ARM GAS  C:\Users\pieta\AppData\Local\Temp\ccKe8Zqe.s 			page 1


   1              		.cpu cortex-m4
   2              		.eabi_attribute 27, 1
   3              		.eabi_attribute 28, 1
   4              		.eabi_attribute 20, 1
   5              		.eabi_attribute 21, 1
   6              		.eabi_attribute 23, 3
   7              		.eabi_attribute 24, 1
   8              		.eabi_attribute 25, 1
   9              		.eabi_attribute 26, 1
  10              		.eabi_attribute 30, 2
  11              		.eabi_attribute 34, 1
  12              		.eabi_attribute 18, 4
  13              		.file	"new.cpp"
  14              		.text
  15              		.section	.text._Znwj,"ax",%progbits
  16              		.align	1
  17              		.p2align 2,,3
  18              		.global	_Znwj
  19              		.syntax unified
  20              		.thumb
  21              		.thumb_func
  22              		.fpu fpv4-sp-d16
  23              		.type	_Znwj, %function
  24              	_Znwj:
  25              		@ args = 0, pretend = 0, frame = 0
  26              		@ frame_needed = 0, uses_anonymous_args = 0
  27              		@ link register save eliminated.
  28 0000 FFF7FEBF 		b	malloc
  29              		.size	_Znwj, .-_Znwj
  30              		.section	.text._Znaj,"ax",%progbits
  31              		.align	1
  32              		.p2align 2,,3
  33              		.global	_Znaj
  34              		.syntax unified
  35              		.thumb
  36              		.thumb_func
  37              		.fpu fpv4-sp-d16
  38              		.type	_Znaj, %function
  39              	_Znaj:
  40              		@ args = 0, pretend = 0, frame = 0
  41              		@ frame_needed = 0, uses_anonymous_args = 0
  42              		@ link register save eliminated.
  43 0000 FFF7FEBF 		b	malloc
  44              		.size	_Znaj, .-_Znaj
  45              		.section	.text._ZdlPv,"ax",%progbits
  46              		.align	1
  47              		.p2align 2,,3
  48              		.global	_ZdlPv
  49              		.syntax unified
  50              		.thumb
  51              		.thumb_func
  52              		.fpu fpv4-sp-d16
  53              		.type	_ZdlPv, %function
  54              	_ZdlPv:
  55              		@ args = 0, pretend = 0, frame = 0
  56              		@ frame_needed = 0, uses_anonymous_args = 0
  57              		@ link register save eliminated.
ARM GAS  C:\Users\pieta\AppData\Local\Temp\ccKe8Zqe.s 			page 2


  58 0000 FFF7FEBF 		b	free
  59              		.size	_ZdlPv, .-_ZdlPv
  60              		.section	.text._ZdaPv,"ax",%progbits
  61              		.align	1
  62              		.p2align 2,,3
  63              		.global	_ZdaPv
  64              		.syntax unified
  65              		.thumb
  66              		.thumb_func
  67              		.fpu fpv4-sp-d16
  68              		.type	_ZdaPv, %function
  69              	_ZdaPv:
  70              		@ args = 0, pretend = 0, frame = 0
  71              		@ frame_needed = 0, uses_anonymous_args = 0
  72              		@ link register save eliminated.
  73 0000 FFF7FEBF 		b	free
  74              		.size	_ZdaPv, .-_ZdaPv
  75              		.section	.text._ZdlPvj,"ax",%progbits
  76              		.align	1
  77              		.p2align 2,,3
  78              		.global	_ZdlPvj
  79              		.syntax unified
  80              		.thumb
  81              		.thumb_func
  82              		.fpu fpv4-sp-d16
  83              		.type	_ZdlPvj, %function
  84              	_ZdlPvj:
  85              		@ args = 0, pretend = 0, frame = 0
  86              		@ frame_needed = 0, uses_anonymous_args = 0
  87              		@ link register save eliminated.
  88 0000 FFF7FEBF 		b	free
  89              		.size	_ZdlPvj, .-_ZdlPvj
  90              		.section	.text._ZdaPvj,"ax",%progbits
  91              		.align	1
  92              		.p2align 2,,3
  93              		.global	_ZdaPvj
  94              		.syntax unified
  95              		.thumb
  96              		.thumb_func
  97              		.fpu fpv4-sp-d16
  98              		.type	_ZdaPvj, %function
  99              	_ZdaPvj:
 100              		@ args = 0, pretend = 0, frame = 0
 101              		@ frame_needed = 0, uses_anonymous_args = 0
 102              		@ link register save eliminated.
 103 0000 FFF7FEBF 		b	free
 104              		.size	_ZdaPvj, .-_ZdaPvj
 105              		.ident	"GCC: (GNU Tools for Arm Embedded Processors 7-2018-q2-update) 7.3.1 20180622 (release) [AR
