ARM GAS  /tmp/ccUVW03W.s 			page 1


   1              		.cpu cortex-m3
   2              		.eabi_attribute 20, 1
   3              		.eabi_attribute 21, 1
   4              		.eabi_attribute 23, 3
   5              		.eabi_attribute 24, 1
   6              		.eabi_attribute 25, 1
   7              		.eabi_attribute 26, 1
   8              		.eabi_attribute 30, 2
   9              		.eabi_attribute 34, 1
  10              		.eabi_attribute 18, 4
  11              		.file	"CartesianKinematics.cpp"
  12              		.section	.text._ZN10Kinematics22SetCalibrationDefaultsEv,"axG",%progbits,_ZN10Kinematics22SetCalib
  13              		.align	1
  14              		.p2align 2,,3
  15              		.weak	_ZN10Kinematics22SetCalibrationDefaultsEv
  16              		.syntax unified
  17              		.thumb
  18              		.thumb_func
  19              		.fpu softvfp
  20              		.type	_ZN10Kinematics22SetCalibrationDefaultsEv, %function
  21              	_ZN10Kinematics22SetCalibrationDefaultsEv:
  22              		@ args = 0, pretend = 0, frame = 0
  23              		@ frame_needed = 0, uses_anonymous_args = 0
  24              		@ link register save eliminated.
  25 0000 7047     		bx	lr
  26              		.size	_ZN10Kinematics22SetCalibrationDefaultsEv, .-_ZN10Kinematics22SetCalibrationDefaultsEv
  27 0002 00BF     		.section	.text._ZNK10Kinematics26WriteCalibrationParametersEP9FileStore,"axG",%progbits,_ZNK10Kine
  28              		.align	1
  29              		.p2align 2,,3
  30              		.weak	_ZNK10Kinematics26WriteCalibrationParametersEP9FileStore
  31              		.syntax unified
  32              		.thumb
  33              		.thumb_func
  34              		.fpu softvfp
  35              		.type	_ZNK10Kinematics26WriteCalibrationParametersEP9FileStore, %function
  36              	_ZNK10Kinematics26WriteCalibrationParametersEP9FileStore:
  37              		@ args = 0, pretend = 0, frame = 0
  38              		@ frame_needed = 0, uses_anonymous_args = 0
  39              		@ link register save eliminated.
  40 0000 0120     		movs	r0, #1
  41 0002 7047     		bx	lr
  42              		.size	_ZNK10Kinematics26WriteCalibrationParametersEP9FileStore, .-_ZNK10Kinematics26WriteCalibrati
  43              		.section	.text._ZNK10Kinematics17GetTiltCorrectionEj,"axG",%progbits,_ZNK10Kinematics17GetTiltCorr
  44              		.align	1
  45              		.p2align 2,,3
  46              		.weak	_ZNK10Kinematics17GetTiltCorrectionEj
  47              		.syntax unified
  48              		.thumb
  49              		.thumb_func
  50              		.fpu softvfp
  51              		.type	_ZNK10Kinematics17GetTiltCorrectionEj, %function
  52              	_ZNK10Kinematics17GetTiltCorrectionEj:
  53              		@ args = 0, pretend = 0, frame = 0
  54              		@ frame_needed = 0, uses_anonymous_args = 0
  55              		@ link register save eliminated.
  56 0000 0020     		movs	r0, #0
  57 0002 7047     		bx	lr
ARM GAS  /tmp/ccUVW03W.s 			page 2


  58              		.size	_ZNK10Kinematics17GetTiltCorrectionEj, .-_ZNK10Kinematics17GetTiltCorrectionEj
  59              		.section	.text._ZNK10Kinematics23AxesToHomeBeforeProbingEv,"axG",%progbits,_ZNK10Kinematics23AxesT
  60              		.align	1
  61              		.p2align 2,,3
  62              		.weak	_ZNK10Kinematics23AxesToHomeBeforeProbingEv
  63              		.syntax unified
  64              		.thumb
  65              		.thumb_func
  66              		.fpu softvfp
  67              		.type	_ZNK10Kinematics23AxesToHomeBeforeProbingEv, %function
  68              	_ZNK10Kinematics23AxesToHomeBeforeProbingEv:
  69              		@ args = 0, pretend = 0, frame = 0
  70              		@ frame_needed = 0, uses_anonymous_args = 0
  71              		@ link register save eliminated.
  72 0000 0320     		movs	r0, #3
  73 0002 7047     		bx	lr
  74              		.size	_ZNK10Kinematics23AxesToHomeBeforeProbingEv, .-_ZNK10Kinematics23AxesToHomeBeforeProbingEv
  75              		.section	.text._ZNK10Kinematics13GetMotionTypeEj,"axG",%progbits,_ZNK10Kinematics13GetMotionTypeEj
  76              		.align	1
  77              		.p2align 2,,3
  78              		.weak	_ZNK10Kinematics13GetMotionTypeEj
  79              		.syntax unified
  80              		.thumb
  81              		.thumb_func
  82              		.fpu softvfp
  83              		.type	_ZNK10Kinematics13GetMotionTypeEj, %function
  84              	_ZNK10Kinematics13GetMotionTypeEj:
  85              		@ args = 0, pretend = 0, frame = 0
  86              		@ frame_needed = 0, uses_anonymous_args = 0
  87              		@ link register save eliminated.
  88 0000 0020     		movs	r0, #0
  89 0002 7047     		bx	lr
  90              		.size	_ZNK10Kinematics13GetMotionTypeEj, .-_ZNK10Kinematics13GetMotionTypeEj
  91              		.section	.text._ZNK10Kinematics16NumHomingButtonsEj,"axG",%progbits,_ZNK10Kinematics16NumHomingBut
  92              		.align	1
  93              		.p2align 2,,3
  94              		.weak	_ZNK10Kinematics16NumHomingButtonsEj
  95              		.syntax unified
  96              		.thumb
  97              		.thumb_func
  98              		.fpu softvfp
  99              		.type	_ZNK10Kinematics16NumHomingButtonsEj, %function
 100              	_ZNK10Kinematics16NumHomingButtonsEj:
 101              		@ args = 0, pretend = 0, frame = 0
 102              		@ frame_needed = 0, uses_anonymous_args = 0
 103              		@ link register save eliminated.
 104 0000 0846     		mov	r0, r1
 105 0002 7047     		bx	lr
 106              		.size	_ZNK10Kinematics16NumHomingButtonsEj, .-_ZNK10Kinematics16NumHomingButtonsEj
 107              		.section	.text._ZNK10Kinematics17HomingButtonNamesEv,"axG",%progbits,_ZNK10Kinematics17HomingButto
 108              		.align	1
 109              		.p2align 2,,3
 110              		.weak	_ZNK10Kinematics17HomingButtonNamesEv
 111              		.syntax unified
 112              		.thumb
 113              		.thumb_func
 114              		.fpu softvfp
ARM GAS  /tmp/ccUVW03W.s 			page 3


 115              		.type	_ZNK10Kinematics17HomingButtonNamesEv, %function
 116              	_ZNK10Kinematics17HomingButtonNamesEv:
 117              		@ args = 0, pretend = 0, frame = 0
 118              		@ frame_needed = 0, uses_anonymous_args = 0
 119              		@ link register save eliminated.
 120 0000 0048     		ldr	r0, .L8
 121 0002 7047     		bx	lr
 122              	.L9:
 123              		.align	2
 124              	.L8:
 125 0004 00000000 		.word	.LC0
 126              		.size	_ZNK10Kinematics17HomingButtonNamesEv, .-_ZNK10Kinematics17HomingButtonNamesEv
 127              		.section	.text._ZNK10Kinematics16AxesAssumedHomedEm,"axG",%progbits,_ZNK10Kinematics16AxesAssumedH
 128              		.align	1
 129              		.p2align 2,,3
 130              		.weak	_ZNK10Kinematics16AxesAssumedHomedEm
 131              		.syntax unified
 132              		.thumb
 133              		.thumb_func
 134              		.fpu softvfp
 135              		.type	_ZNK10Kinematics16AxesAssumedHomedEm, %function
 136              	_ZNK10Kinematics16AxesAssumedHomedEm:
 137              		@ args = 0, pretend = 0, frame = 0
 138              		@ frame_needed = 0, uses_anonymous_args = 0
 139              		@ link register save eliminated.
 140 0000 0846     		mov	r0, r1
 141 0002 7047     		bx	lr
 142              		.size	_ZNK10Kinematics16AxesAssumedHomedEm, .-_ZNK10Kinematics16AxesAssumedHomedEm
 143              		.section	.text._ZNK10Kinematics15MustBeHomedAxesEmb,"axG",%progbits,_ZNK10Kinematics15MustBeHomedA
 144              		.align	1
 145              		.p2align 2,,3
 146              		.weak	_ZNK10Kinematics15MustBeHomedAxesEmb
 147              		.syntax unified
 148              		.thumb
 149              		.thumb_func
 150              		.fpu softvfp
 151              		.type	_ZNK10Kinematics15MustBeHomedAxesEmb, %function
 152              	_ZNK10Kinematics15MustBeHomedAxesEmb:
 153              		@ args = 0, pretend = 0, frame = 0
 154              		@ frame_needed = 0, uses_anonymous_args = 0
 155              		@ link register save eliminated.
 156 0000 002A     		cmp	r2, #0
 157 0002 14BF     		ite	ne
 158 0004 0846     		movne	r0, r1
 159 0006 0020     		moveq	r0, #0
 160 0008 7047     		bx	lr
 161              		.size	_ZNK10Kinematics15MustBeHomedAxesEmb, .-_ZNK10Kinematics15MustBeHomedAxesEmb
 162 000a 00BF     		.section	.text._ZNK10Kinematics24IsContinuousRotationAxisEj,"axG",%progbits,_ZNK10Kinematics24IsCo
 163              		.align	1
 164              		.p2align 2,,3
 165              		.weak	_ZNK10Kinematics24IsContinuousRotationAxisEj
 166              		.syntax unified
 167              		.thumb
 168              		.thumb_func
 169              		.fpu softvfp
 170              		.type	_ZNK10Kinematics24IsContinuousRotationAxisEj, %function
 171              	_ZNK10Kinematics24IsContinuousRotationAxisEj:
ARM GAS  /tmp/ccUVW03W.s 			page 4


 172              		@ args = 0, pretend = 0, frame = 0
 173              		@ frame_needed = 0, uses_anonymous_args = 0
 174              		@ link register save eliminated.
 175 0000 0020     		movs	r0, #0
 176 0002 7047     		bx	lr
 177              		.size	_ZNK10Kinematics24IsContinuousRotationAxisEj, .-_ZNK10Kinematics24IsContinuousRotationAxisEj
 178              		.section	.text._ZNK19CartesianKinematics13GetHomingModeEv,"axG",%progbits,_ZNK19CartesianKinematic
 179              		.align	1
 180              		.p2align 2,,3
 181              		.weak	_ZNK19CartesianKinematics13GetHomingModeEv
 182              		.syntax unified
 183              		.thumb
 184              		.thumb_func
 185              		.fpu softvfp
 186              		.type	_ZNK19CartesianKinematics13GetHomingModeEv, %function
 187              	_ZNK19CartesianKinematics13GetHomingModeEv:
 188              		@ args = 0, pretend = 0, frame = 0
 189              		@ frame_needed = 0, uses_anonymous_args = 0
 190              		@ link register save eliminated.
 191 0000 0020     		movs	r0, #0
 192 0002 7047     		bx	lr
 193              		.size	_ZNK19CartesianKinematics13GetHomingModeEv, .-_ZNK19CartesianKinematics13GetHomingModeEv
 194              		.section	.text._ZNK19CartesianKinematics7GetNameEb,"ax",%progbits
 195              		.align	1
 196              		.p2align 2,,3
 197              		.global	_ZNK19CartesianKinematics7GetNameEb
 198              		.syntax unified
 199              		.thumb
 200              		.thumb_func
 201              		.fpu softvfp
 202              		.type	_ZNK19CartesianKinematics7GetNameEb, %function
 203              	_ZNK19CartesianKinematics7GetNameEb:
 204              		@ args = 0, pretend = 0, frame = 0
 205              		@ frame_needed = 0, uses_anonymous_args = 0
 206              		@ link register save eliminated.
 207 0000 024B     		ldr	r3, .L19
 208 0002 0348     		ldr	r0, .L19+4
 209 0004 0029     		cmp	r1, #0
 210 0006 08BF     		it	eq
 211 0008 1846     		moveq	r0, r3
 212 000a 7047     		bx	lr
 213              	.L20:
 214              		.align	2
 215              	.L19:
 216 000c 0C000000 		.word	.LC2
 217 0010 00000000 		.word	.LC1
 218              		.size	_ZNK19CartesianKinematics7GetNameEb, .-_ZNK19CartesianKinematics7GetNameEb
 219              		.global	__aeabi_i2f
 220              		.global	__aeabi_fdiv
 221              		.section	.text._ZNK19CartesianKinematics21MotorStepsToCartesianEPKlPKfjjPf,"ax",%progbits
 222              		.align	1
 223              		.p2align 2,,3
 224              		.global	_ZNK19CartesianKinematics21MotorStepsToCartesianEPKlPKfjjPf
 225              		.syntax unified
 226              		.thumb
 227              		.thumb_func
 228              		.fpu softvfp
ARM GAS  /tmp/ccUVW03W.s 			page 5


 229              		.type	_ZNK19CartesianKinematics21MotorStepsToCartesianEPKlPKfjjPf, %function
 230              	_ZNK19CartesianKinematics21MotorStepsToCartesianEPKlPKfjjPf:
 231              		@ args = 8, pretend = 0, frame = 0
 232              		@ frame_needed = 0, uses_anonymous_args = 0
 233 0000 9BB1     		cbz	r3, .L26
 234 0002 F8B5     		push	{r3, r4, r5, r6, r7, lr}
 235 0004 0C46     		mov	r4, r1
 236 0006 01EB8307 		add	r7, r1, r3, lsl #2
 237 000a 079B     		ldr	r3, [sp, #28]
 238 000c 151F     		subs	r5, r2, #4
 239 000e 1E1F     		subs	r6, r3, #4
 240              	.L24:
 241 0010 54F8040B 		ldr	r0, [r4], #4
 242 0014 FFF7FEFF 		bl	__aeabi_i2f
 243 0018 55F8041F 		ldr	r1, [r5, #4]!	@ float
 244 001c FFF7FEFF 		bl	__aeabi_fdiv
 245 0020 BC42     		cmp	r4, r7
 246 0022 46F8040F 		str	r0, [r6, #4]!	@ float
 247 0026 F3D1     		bne	.L24
 248 0028 F8BD     		pop	{r3, r4, r5, r6, r7, pc}
 249              	.L26:
 250 002a 7047     		bx	lr
 251              		.size	_ZNK19CartesianKinematics21MotorStepsToCartesianEPKlPKfjjPf, .-_ZNK19CartesianKinematics21Mo
 252              		.section	.text._ZNK19CartesianKinematics24QueryTerminateHomingMoveEj,"ax",%progbits
 253              		.align	1
 254              		.p2align 2,,3
 255              		.global	_ZNK19CartesianKinematics24QueryTerminateHomingMoveEj
 256              		.syntax unified
 257              		.thumb
 258              		.thumb_func
 259              		.fpu softvfp
 260              		.type	_ZNK19CartesianKinematics24QueryTerminateHomingMoveEj, %function
 261              	_ZNK19CartesianKinematics24QueryTerminateHomingMoveEj:
 262              		@ args = 0, pretend = 0, frame = 0
 263              		@ frame_needed = 0, uses_anonymous_args = 0
 264              		@ link register save eliminated.
 265 0000 0020     		movs	r0, #0
 266 0002 7047     		bx	lr
 267              		.size	_ZNK19CartesianKinematics24QueryTerminateHomingMoveEj, .-_ZNK19CartesianKinematics24QueryTer
 268              		.section	.text._ZNK19CartesianKinematics25LimitSpeedAndAccelerationER3DDAPKf,"ax",%progbits
 269              		.align	1
 270              		.p2align 2,,3
 271              		.global	_ZNK19CartesianKinematics25LimitSpeedAndAccelerationER3DDAPKf
 272              		.syntax unified
 273              		.thumb
 274              		.thumb_func
 275              		.fpu softvfp
 276              		.type	_ZNK19CartesianKinematics25LimitSpeedAndAccelerationER3DDAPKf, %function
 277              	_ZNK19CartesianKinematics25LimitSpeedAndAccelerationER3DDAPKf:
 278              		@ args = 0, pretend = 0, frame = 0
 279              		@ frame_needed = 0, uses_anonymous_args = 0
 280              		@ link register save eliminated.
 281 0000 7047     		bx	lr
 282              		.size	_ZNK19CartesianKinematics25LimitSpeedAndAccelerationER3DDAPKf, .-_ZNK19CartesianKinematics25
 283 0002 00BF     		.section	.text._ZN19CartesianKinematicsD2Ev,"axG",%progbits,_ZN19CartesianKinematicsD5Ev,comdat
 284              		.align	1
 285              		.p2align 2,,3
ARM GAS  /tmp/ccUVW03W.s 			page 6


 286              		.weak	_ZN19CartesianKinematicsD2Ev
 287              		.syntax unified
 288              		.thumb
 289              		.thumb_func
 290              		.fpu softvfp
 291              		.type	_ZN19CartesianKinematicsD2Ev, %function
 292              	_ZN19CartesianKinematicsD2Ev:
 293              		@ args = 0, pretend = 0, frame = 0
 294              		@ frame_needed = 0, uses_anonymous_args = 0
 295              		@ link register save eliminated.
 296 0000 7047     		bx	lr
 297              		.size	_ZN19CartesianKinematicsD2Ev, .-_ZN19CartesianKinematicsD2Ev
 298              		.weak	_ZN19CartesianKinematicsD1Ev
 299              		.thumb_set _ZN19CartesianKinematicsD1Ev,_ZN19CartesianKinematicsD2Ev
 300              		.global	__aeabi_fmul
 301 0002 00BF     		.section	.text._ZNK19CartesianKinematics21CartesianToMotorStepsEPKfS1_jjPlb,"ax",%progbits
 302              		.align	1
 303              		.p2align 2,,3
 304              		.global	_ZNK19CartesianKinematics21CartesianToMotorStepsEPKfS1_jjPlb
 305              		.syntax unified
 306              		.thumb
 307              		.thumb_func
 308              		.fpu softvfp
 309              		.type	_ZNK19CartesianKinematics21CartesianToMotorStepsEPKfS1_jjPlb, %function
 310              	_ZNK19CartesianKinematics21CartesianToMotorStepsEPKfS1_jjPlb:
 311              		@ args = 12, pretend = 0, frame = 0
 312              		@ frame_needed = 0, uses_anonymous_args = 0
 313 0000 C3B1     		cbz	r3, .L39
 314 0002 2DE9F041 		push	{r4, r5, r6, r7, r8, lr}
 315 0006 0024     		movs	r4, #0
 316 0008 1F46     		mov	r7, r3
 317 000a 079B     		ldr	r3, [sp, #28]
 318 000c 0E1F     		subs	r6, r1, #4
 319 000e 151F     		subs	r5, r2, #4
 320 0010 A3F10408 		sub	r8, r3, #4
 321              	.L36:
 322 0014 55F8041F 		ldr	r1, [r5, #4]!	@ float
 323 0018 56F8040F 		ldr	r0, [r6, #4]!	@ float
 324 001c FFF7FEFF 		bl	__aeabi_fmul
 325 0020 FFF7FEFF 		bl	lrintf
 326 0024 0134     		adds	r4, r4, #1
 327 0026 A742     		cmp	r7, r4
 328 0028 48F8040F 		str	r0, [r8, #4]!
 329 002c F2D1     		bne	.L36
 330 002e 0120     		movs	r0, #1
 331 0030 BDE8F081 		pop	{r4, r5, r6, r7, r8, pc}
 332              	.L39:
 333 0034 0120     		movs	r0, #1
 334 0036 7047     		bx	lr
 335              		.size	_ZNK19CartesianKinematics21CartesianToMotorStepsEPKfS1_jjPlb, .-_ZNK19CartesianKinematics21C
 336              		.section	.text._ZNK19CartesianKinematics23OnHomingSwitchTriggeredEjbPKfR3DDA,"ax",%progbits
 337              		.align	1
 338              		.p2align 2,,3
 339              		.global	_ZNK19CartesianKinematics23OnHomingSwitchTriggeredEjbPKfR3DDA
 340              		.syntax unified
 341              		.thumb
 342              		.thumb_func
ARM GAS  /tmp/ccUVW03W.s 			page 7


 343              		.fpu softvfp
 344              		.type	_ZNK19CartesianKinematics23OnHomingSwitchTriggeredEjbPKfR3DDA, %function
 345              	_ZNK19CartesianKinematics23OnHomingSwitchTriggeredEjbPKfR3DDA:
 346              		@ args = 4, pretend = 0, frame = 0
 347              		@ frame_needed = 0, uses_anonymous_args = 0
 348 0000 38B5     		push	{r3, r4, r5, lr}
 349 0002 049D     		ldr	r5, [sp, #16]
 350 0004 0C46     		mov	r4, r1
 351 0006 9AB9     		cbnz	r2, .L46
 352 0008 0D4A     		ldr	r2, .L47
 353 000a 1268     		ldr	r2, [r2]
 354 000c 02EB8102 		add	r2, r2, r1, lsl #2
 355 0010 D2F85C04 		ldr	r0, [r2, #1116]	@ float
 356              	.L44:
 357 0014 53F82410 		ldr	r1, [r3, r4, lsl #2]	@ float
 358 0018 FFF7FEFF 		bl	__aeabi_fmul
 359 001c FFF7FEFF 		bl	lrintf
 360 0020 05EB8404 		add	r4, r5, r4, lsl #2
 361 0024 E061     		str	r0, [r4, #28]
 362 0026 AB7A     		ldrb	r3, [r5, #10]	@ zero_extendqisi2
 363 0028 6FF30003 		bfc	r3, #0, #1
 364 002c AB72     		strb	r3, [r5, #10]
 365 002e 38BD     		pop	{r3, r4, r5, pc}
 366              	.L46:
 367 0030 034A     		ldr	r2, .L47
 368 0032 1268     		ldr	r2, [r2]	@ unaligned
 369 0034 02EB8102 		add	r2, r2, r1, lsl #2
 370 0038 D2F84404 		ldr	r0, [r2, #1092]	@ float
 371 003c EAE7     		b	.L44
 372              	.L48:
 373 003e 00BF     		.align	2
 374              	.L47:
 375 0040 00000000 		.word	reprap
 376              		.size	_ZNK19CartesianKinematics23OnHomingSwitchTriggeredEjbPKfR3DDA, .-_ZNK19CartesianKinematics23
 377              		.section	.text._ZN19CartesianKinematicsD0Ev,"axG",%progbits,_ZN19CartesianKinematicsD5Ev,comdat
 378              		.align	1
 379              		.p2align 2,,3
 380              		.weak	_ZN19CartesianKinematicsD0Ev
 381              		.syntax unified
 382              		.thumb
 383              		.thumb_func
 384              		.fpu softvfp
 385              		.type	_ZN19CartesianKinematicsD0Ev, %function
 386              	_ZN19CartesianKinematicsD0Ev:
 387              		@ args = 0, pretend = 0, frame = 0
 388              		@ frame_needed = 0, uses_anonymous_args = 0
 389 0000 10B5     		push	{r4, lr}
 390 0002 0446     		mov	r4, r0
 391 0004 4021     		movs	r1, #64
 392 0006 FFF7FEFF 		bl	_ZdlPvj
 393 000a 2046     		mov	r0, r4
 394 000c 10BD     		pop	{r4, pc}
 395              		.size	_ZN19CartesianKinematicsD0Ev, .-_ZN19CartesianKinematicsD0Ev
 396 000e 00BF     		.section	.text._ZN19CartesianKinematicsC2Ev,"ax",%progbits
 397              		.align	1
 398              		.p2align 2,,3
 399              		.global	_ZN19CartesianKinematicsC2Ev
ARM GAS  /tmp/ccUVW03W.s 			page 8


 400              		.syntax unified
 401              		.thumb
 402              		.thumb_func
 403              		.fpu softvfp
 404              		.type	_ZN19CartesianKinematicsC2Ev, %function
 405              	_ZN19CartesianKinematicsC2Ev:
 406              		@ args = 0, pretend = 0, frame = 0
 407              		@ frame_needed = 0, uses_anonymous_args = 0
 408 0000 10B5     		push	{r4, lr}
 409 0002 0446     		mov	r4, r0
 410 0004 0021     		movs	r1, #0
 411 0006 FFF7FEFF 		bl	_ZN20ZLeadscrewKinematicsC2E14KinematicsType
 412 000a 024B     		ldr	r3, .L53
 413 000c 2046     		mov	r0, r4
 414 000e 2360     		str	r3, [r4]
 415 0010 10BD     		pop	{r4, pc}
 416              	.L54:
 417 0012 00BF     		.align	2
 418              	.L53:
 419 0014 08000000 		.word	.LANCHOR0+8
 420              		.size	_ZN19CartesianKinematicsC2Ev, .-_ZN19CartesianKinematicsC2Ev
 421              		.global	_ZN19CartesianKinematicsC1Ev
 422              		.thumb_set _ZN19CartesianKinematicsC1Ev,_ZN19CartesianKinematicsC2Ev
 423              		.global	_ZTV19CartesianKinematics
 424              		.section	.bss._ZL28cpu_irq_prev_interrupt_state,"aw",%nobits
 425              		.type	_ZL28cpu_irq_prev_interrupt_state, %object
 426              		.size	_ZL28cpu_irq_prev_interrupt_state, 1
 427              	_ZL28cpu_irq_prev_interrupt_state:
 428 0000 00       		.space	1
 429              		.section	.bss._ZL32cpu_irq_critical_section_counter,"aw",%nobits
 430              		.align	2
 431              		.type	_ZL32cpu_irq_critical_section_counter, %object
 432              		.size	_ZL32cpu_irq_critical_section_counter, 4
 433              	_ZL32cpu_irq_critical_section_counter:
 434 0000 00000000 		.space	4
 435              		.section	.bss._ZN9RTOSIfaceL31interruptCriticalSectionNestingE,"aw",%nobits
 436              		.align	2
 437              		.type	_ZN9RTOSIfaceL31interruptCriticalSectionNestingE, %object
 438              		.size	_ZN9RTOSIfaceL31interruptCriticalSectionNestingE, 4
 439              	_ZN9RTOSIfaceL31interruptCriticalSectionNestingE:
 440 0000 00000000 		.space	4
 441              		.section	.rodata._ZNK10Kinematics17HomingButtonNamesEv.str1.4,"aMS",%progbits,1
 442              		.align	2
 443              	.LC0:
 444 0000 58595A55 		.ascii	"XYZUVWABC\000"
 444      56574142 
 444      4300
 445              		.section	.rodata._ZNK19CartesianKinematics7GetNameEb.str1.4,"aMS",%progbits,1
 446              		.align	2
 447              	.LC1:
 448 0000 63617274 		.ascii	"cartesian\000"
 448      65736961 
 448      6E00
 449 000a 0000     		.space	2
 450              	.LC2:
 451 000c 43617274 		.ascii	"Cartesian\000"
 451      65736961 
ARM GAS  /tmp/ccUVW03W.s 			page 9


 451      6E00
 452              		.section	.rodata._ZTV19CartesianKinematics,"a",%progbits
 453              		.align	2
 454              		.set	.LANCHOR0,. + 0
 455              		.type	_ZTV19CartesianKinematics, %object
 456              		.size	_ZTV19CartesianKinematics, 116
 457              	_ZTV19CartesianKinematics:
 458 0000 00000000 		.word	0
 459 0004 00000000 		.word	0
 460 0008 00000000 		.word	_ZNK19CartesianKinematics7GetNameEb
 461 000c 00000000 		.word	_ZN20ZLeadscrewKinematics9ConfigureEjR11GCodeBufferRK9StringRefRb
 462 0010 00000000 		.word	_ZNK19CartesianKinematics21CartesianToMotorStepsEPKfS1_jjPlb
 463 0014 00000000 		.word	_ZNK19CartesianKinematics21MotorStepsToCartesianEPKlPKfjjPf
 464 0018 00000000 		.word	_ZNK20ZLeadscrewKinematics23SupportsAutoCalibrationEv
 465 001c 00000000 		.word	_ZN20ZLeadscrewKinematics17DoAutoCalibrationEjRK19RandomProbePointSetRK9StringRef
 466 0020 00000000 		.word	_ZN10Kinematics22SetCalibrationDefaultsEv
 467 0024 00000000 		.word	_ZNK10Kinematics26WriteCalibrationParametersEP9FileStore
 468 0028 00000000 		.word	_ZNK10Kinematics17GetTiltCorrectionEj
 469 002c 00000000 		.word	_ZNK10Kinematics11IsReachableEffb
 470 0030 00000000 		.word	_ZNK10Kinematics13LimitPositionEPfjmb
 471 0034 00000000 		.word	_ZNK10Kinematics23AxesToHomeBeforeProbingEv
 472 0038 00000000 		.word	_ZNK10Kinematics25GetAssumedInitialPositionEjPf
 473 003c 00000000 		.word	_ZNK10Kinematics13GetMotionTypeEj
 474 0040 00000000 		.word	_ZNK10Kinematics16NumHomingButtonsEj
 475 0044 00000000 		.word	_ZNK10Kinematics17HomingButtonNamesEv
 476 0048 00000000 		.word	_ZNK10Kinematics17GetHomingFileNameEmmjRm
 477 004c 00000000 		.word	_ZNK19CartesianKinematics24QueryTerminateHomingMoveEj
 478 0050 00000000 		.word	_ZNK19CartesianKinematics23OnHomingSwitchTriggeredEjbPKfR3DDA
 479 0054 00000000 		.word	_ZNK19CartesianKinematics13GetHomingModeEv
 480 0058 00000000 		.word	_ZNK10Kinematics16AxesAssumedHomedEm
 481 005c 00000000 		.word	_ZNK10Kinematics15MustBeHomedAxesEmb
 482 0060 00000000 		.word	_ZNK20ZLeadscrewKinematics19WriteResumeSettingsEP9FileStore
 483 0064 00000000 		.word	_ZNK19CartesianKinematics25LimitSpeedAndAccelerationER3DDAPKf
 484 0068 00000000 		.word	_ZNK10Kinematics24IsContinuousRotationAxisEj
 485 006c 00000000 		.word	_ZN19CartesianKinematicsD1Ev
 486 0070 00000000 		.word	_ZN19CartesianKinematicsD0Ev
 487              		.ident	"GCC: (15:6.3.1+svn253039-1build1) 6.3.1 20170620"
