ARM GAS  /tmp/cc0pcVA3.s 			page 1


   1              		.cpu cortex-m3
   2              		.eabi_attribute 20, 1
   3              		.eabi_attribute 21, 1
   4              		.eabi_attribute 23, 3
   5              		.eabi_attribute 24, 1
   6              		.eabi_attribute 25, 1
   7              		.eabi_attribute 26, 1
   8              		.eabi_attribute 30, 2
   9              		.eabi_attribute 34, 1
  10              		.eabi_attribute 18, 4
  11              		.file	"CoreBaseKinematics.cpp"
  12              		.section	.text._ZN10Kinematics22SetCalibrationDefaultsEv,"axG",%progbits,_ZN10Kinematics22SetCalib
  13              		.align	1
  14              		.p2align 2,,3
  15              		.weak	_ZN10Kinematics22SetCalibrationDefaultsEv
  16              		.syntax unified
  17              		.thumb
  18              		.thumb_func
  19              		.fpu softvfp
  20              		.type	_ZN10Kinematics22SetCalibrationDefaultsEv, %function
  21              	_ZN10Kinematics22SetCalibrationDefaultsEv:
  22              		@ args = 0, pretend = 0, frame = 0
  23              		@ frame_needed = 0, uses_anonymous_args = 0
  24              		@ link register save eliminated.
  25 0000 7047     		bx	lr
  26              		.size	_ZN10Kinematics22SetCalibrationDefaultsEv, .-_ZN10Kinematics22SetCalibrationDefaultsEv
  27 0002 00BF     		.section	.text._ZNK10Kinematics26WriteCalibrationParametersEP9FileStore,"axG",%progbits,_ZNK10Kine
  28              		.align	1
  29              		.p2align 2,,3
  30              		.weak	_ZNK10Kinematics26WriteCalibrationParametersEP9FileStore
  31              		.syntax unified
  32              		.thumb
  33              		.thumb_func
  34              		.fpu softvfp
  35              		.type	_ZNK10Kinematics26WriteCalibrationParametersEP9FileStore, %function
  36              	_ZNK10Kinematics26WriteCalibrationParametersEP9FileStore:
  37              		@ args = 0, pretend = 0, frame = 0
  38              		@ frame_needed = 0, uses_anonymous_args = 0
  39              		@ link register save eliminated.
  40 0000 0120     		movs	r0, #1
  41 0002 7047     		bx	lr
  42              		.size	_ZNK10Kinematics26WriteCalibrationParametersEP9FileStore, .-_ZNK10Kinematics26WriteCalibrati
  43              		.section	.text._ZNK10Kinematics17GetTiltCorrectionEj,"axG",%progbits,_ZNK10Kinematics17GetTiltCorr
  44              		.align	1
  45              		.p2align 2,,3
  46              		.weak	_ZNK10Kinematics17GetTiltCorrectionEj
  47              		.syntax unified
  48              		.thumb
  49              		.thumb_func
  50              		.fpu softvfp
  51              		.type	_ZNK10Kinematics17GetTiltCorrectionEj, %function
  52              	_ZNK10Kinematics17GetTiltCorrectionEj:
  53              		@ args = 0, pretend = 0, frame = 0
  54              		@ frame_needed = 0, uses_anonymous_args = 0
  55              		@ link register save eliminated.
  56 0000 0020     		movs	r0, #0
  57 0002 7047     		bx	lr
ARM GAS  /tmp/cc0pcVA3.s 			page 2


  58              		.size	_ZNK10Kinematics17GetTiltCorrectionEj, .-_ZNK10Kinematics17GetTiltCorrectionEj
  59              		.section	.text._ZNK10Kinematics23AxesToHomeBeforeProbingEv,"axG",%progbits,_ZNK10Kinematics23AxesT
  60              		.align	1
  61              		.p2align 2,,3
  62              		.weak	_ZNK10Kinematics23AxesToHomeBeforeProbingEv
  63              		.syntax unified
  64              		.thumb
  65              		.thumb_func
  66              		.fpu softvfp
  67              		.type	_ZNK10Kinematics23AxesToHomeBeforeProbingEv, %function
  68              	_ZNK10Kinematics23AxesToHomeBeforeProbingEv:
  69              		@ args = 0, pretend = 0, frame = 0
  70              		@ frame_needed = 0, uses_anonymous_args = 0
  71              		@ link register save eliminated.
  72 0000 0320     		movs	r0, #3
  73 0002 7047     		bx	lr
  74              		.size	_ZNK10Kinematics23AxesToHomeBeforeProbingEv, .-_ZNK10Kinematics23AxesToHomeBeforeProbingEv
  75              		.section	.text._ZNK10Kinematics13GetMotionTypeEj,"axG",%progbits,_ZNK10Kinematics13GetMotionTypeEj
  76              		.align	1
  77              		.p2align 2,,3
  78              		.weak	_ZNK10Kinematics13GetMotionTypeEj
  79              		.syntax unified
  80              		.thumb
  81              		.thumb_func
  82              		.fpu softvfp
  83              		.type	_ZNK10Kinematics13GetMotionTypeEj, %function
  84              	_ZNK10Kinematics13GetMotionTypeEj:
  85              		@ args = 0, pretend = 0, frame = 0
  86              		@ frame_needed = 0, uses_anonymous_args = 0
  87              		@ link register save eliminated.
  88 0000 0020     		movs	r0, #0
  89 0002 7047     		bx	lr
  90              		.size	_ZNK10Kinematics13GetMotionTypeEj, .-_ZNK10Kinematics13GetMotionTypeEj
  91              		.section	.text._ZNK10Kinematics16NumHomingButtonsEj,"axG",%progbits,_ZNK10Kinematics16NumHomingBut
  92              		.align	1
  93              		.p2align 2,,3
  94              		.weak	_ZNK10Kinematics16NumHomingButtonsEj
  95              		.syntax unified
  96              		.thumb
  97              		.thumb_func
  98              		.fpu softvfp
  99              		.type	_ZNK10Kinematics16NumHomingButtonsEj, %function
 100              	_ZNK10Kinematics16NumHomingButtonsEj:
 101              		@ args = 0, pretend = 0, frame = 0
 102              		@ frame_needed = 0, uses_anonymous_args = 0
 103              		@ link register save eliminated.
 104 0000 0846     		mov	r0, r1
 105 0002 7047     		bx	lr
 106              		.size	_ZNK10Kinematics16NumHomingButtonsEj, .-_ZNK10Kinematics16NumHomingButtonsEj
 107              		.section	.text._ZNK10Kinematics17HomingButtonNamesEv,"axG",%progbits,_ZNK10Kinematics17HomingButto
 108              		.align	1
 109              		.p2align 2,,3
 110              		.weak	_ZNK10Kinematics17HomingButtonNamesEv
 111              		.syntax unified
 112              		.thumb
 113              		.thumb_func
 114              		.fpu softvfp
ARM GAS  /tmp/cc0pcVA3.s 			page 3


 115              		.type	_ZNK10Kinematics17HomingButtonNamesEv, %function
 116              	_ZNK10Kinematics17HomingButtonNamesEv:
 117              		@ args = 0, pretend = 0, frame = 0
 118              		@ frame_needed = 0, uses_anonymous_args = 0
 119              		@ link register save eliminated.
 120 0000 0048     		ldr	r0, .L8
 121 0002 7047     		bx	lr
 122              	.L9:
 123              		.align	2
 124              	.L8:
 125 0004 00000000 		.word	.LC0
 126              		.size	_ZNK10Kinematics17HomingButtonNamesEv, .-_ZNK10Kinematics17HomingButtonNamesEv
 127              		.section	.text._ZNK10Kinematics16AxesAssumedHomedEm,"axG",%progbits,_ZNK10Kinematics16AxesAssumedH
 128              		.align	1
 129              		.p2align 2,,3
 130              		.weak	_ZNK10Kinematics16AxesAssumedHomedEm
 131              		.syntax unified
 132              		.thumb
 133              		.thumb_func
 134              		.fpu softvfp
 135              		.type	_ZNK10Kinematics16AxesAssumedHomedEm, %function
 136              	_ZNK10Kinematics16AxesAssumedHomedEm:
 137              		@ args = 0, pretend = 0, frame = 0
 138              		@ frame_needed = 0, uses_anonymous_args = 0
 139              		@ link register save eliminated.
 140 0000 0846     		mov	r0, r1
 141 0002 7047     		bx	lr
 142              		.size	_ZNK10Kinematics16AxesAssumedHomedEm, .-_ZNK10Kinematics16AxesAssumedHomedEm
 143              		.section	.text._ZNK10Kinematics15MustBeHomedAxesEmb,"axG",%progbits,_ZNK10Kinematics15MustBeHomedA
 144              		.align	1
 145              		.p2align 2,,3
 146              		.weak	_ZNK10Kinematics15MustBeHomedAxesEmb
 147              		.syntax unified
 148              		.thumb
 149              		.thumb_func
 150              		.fpu softvfp
 151              		.type	_ZNK10Kinematics15MustBeHomedAxesEmb, %function
 152              	_ZNK10Kinematics15MustBeHomedAxesEmb:
 153              		@ args = 0, pretend = 0, frame = 0
 154              		@ frame_needed = 0, uses_anonymous_args = 0
 155              		@ link register save eliminated.
 156 0000 002A     		cmp	r2, #0
 157 0002 14BF     		ite	ne
 158 0004 0846     		movne	r0, r1
 159 0006 0020     		moveq	r0, #0
 160 0008 7047     		bx	lr
 161              		.size	_ZNK10Kinematics15MustBeHomedAxesEmb, .-_ZNK10Kinematics15MustBeHomedAxesEmb
 162 000a 00BF     		.section	.text._ZNK10Kinematics24IsContinuousRotationAxisEj,"axG",%progbits,_ZNK10Kinematics24IsCo
 163              		.align	1
 164              		.p2align 2,,3
 165              		.weak	_ZNK10Kinematics24IsContinuousRotationAxisEj
 166              		.syntax unified
 167              		.thumb
 168              		.thumb_func
 169              		.fpu softvfp
 170              		.type	_ZNK10Kinematics24IsContinuousRotationAxisEj, %function
 171              	_ZNK10Kinematics24IsContinuousRotationAxisEj:
ARM GAS  /tmp/cc0pcVA3.s 			page 4


 172              		@ args = 0, pretend = 0, frame = 0
 173              		@ frame_needed = 0, uses_anonymous_args = 0
 174              		@ link register save eliminated.
 175 0000 0020     		movs	r0, #0
 176 0002 7047     		bx	lr
 177              		.size	_ZNK10Kinematics24IsContinuousRotationAxisEj, .-_ZNK10Kinematics24IsContinuousRotationAxisEj
 178              		.section	.text._ZNK18CoreBaseKinematics13GetHomingModeEv,"axG",%progbits,_ZNK18CoreBaseKinematics1
 179              		.align	1
 180              		.p2align 2,,3
 181              		.weak	_ZNK18CoreBaseKinematics13GetHomingModeEv
 182              		.syntax unified
 183              		.thumb
 184              		.thumb_func
 185              		.fpu softvfp
 186              		.type	_ZNK18CoreBaseKinematics13GetHomingModeEv, %function
 187              	_ZNK18CoreBaseKinematics13GetHomingModeEv:
 188              		@ args = 0, pretend = 0, frame = 0
 189              		@ frame_needed = 0, uses_anonymous_args = 0
 190              		@ link register save eliminated.
 191 0000 0020     		movs	r0, #0
 192 0002 7047     		bx	lr
 193              		.size	_ZNK18CoreBaseKinematics13GetHomingModeEv, .-_ZNK18CoreBaseKinematics13GetHomingModeEv
 194              		.section	.text._ZNK18CoreBaseKinematics24QueryTerminateHomingMoveEj,"ax",%progbits
 195              		.align	1
 196              		.p2align 2,,3
 197              		.global	_ZNK18CoreBaseKinematics24QueryTerminateHomingMoveEj
 198              		.syntax unified
 199              		.thumb
 200              		.thumb_func
 201              		.fpu softvfp
 202              		.type	_ZNK18CoreBaseKinematics24QueryTerminateHomingMoveEj, %function
 203              	_ZNK18CoreBaseKinematics24QueryTerminateHomingMoveEj:
 204              		@ args = 0, pretend = 0, frame = 0
 205              		@ frame_needed = 0, uses_anonymous_args = 0
 206              		@ link register save eliminated.
 207 0000 0368     		ldr	r3, [r0]
 208 0002 DB6E     		ldr	r3, [r3, #108]
 209 0004 1847     		bx	r3
 210              		.size	_ZNK18CoreBaseKinematics24QueryTerminateHomingMoveEj, .-_ZNK18CoreBaseKinematics24QueryTermi
 211              		.global	__aeabi_fmul
 212 0006 00BF     		.section	.text._ZNK18CoreBaseKinematics23OnHomingSwitchTriggeredEjbPKfR3DDA,"ax",%progbits
 213              		.align	1
 214              		.p2align 2,,3
 215              		.global	_ZNK18CoreBaseKinematics23OnHomingSwitchTriggeredEjbPKfR3DDA
 216              		.syntax unified
 217              		.thumb
 218              		.thumb_func
 219              		.fpu softvfp
 220              		.type	_ZNK18CoreBaseKinematics23OnHomingSwitchTriggeredEjbPKfR3DDA, %function
 221              	_ZNK18CoreBaseKinematics23OnHomingSwitchTriggeredEjbPKfR3DDA:
 222              		@ args = 4, pretend = 0, frame = 24
 223              		@ frame_needed = 0, uses_anonymous_args = 0
 224 0000 2DE9F043 		push	{r4, r5, r6, r7, r8, r9, lr}
 225 0004 87B0     		sub	sp, sp, #28
 226 0006 8846     		mov	r8, r1
 227 0008 1F46     		mov	r7, r3
 228 000a 0E9E     		ldr	r6, [sp, #56]
ARM GAS  /tmp/cc0pcVA3.s 			page 5


 229 000c 214C     		ldr	r4, .L27
 230 000e 42B3     		cbz	r2, .L18
 231 0010 2368     		ldr	r3, [r4]	@ unaligned
 232 0012 03EB8103 		add	r3, r3, r1, lsl #2
 233 0016 D3F84494 		ldr	r9, [r3, #1092]	@ float
 234              	.L19:
 235 001a 0368     		ldr	r3, [r0]
 236 001c 4146     		mov	r1, r8
 237 001e DB6E     		ldr	r3, [r3, #108]
 238 0020 9847     		blx	r3
 239 0022 0546     		mov	r5, r0
 240 0024 18B3     		cbz	r0, .L20
 241 0026 2369     		ldr	r3, [r4, #16]
 242 0028 D3F8F871 		ldr	r7, [r3, #504]
 243 002c 67B1     		cbz	r7, .L23
 244 002e 0024     		movs	r4, #0
 245 0030 ADF10405 		sub	r5, sp, #4
 246              	.L24:
 247 0034 2146     		mov	r1, r4
 248 0036 0022     		movs	r2, #0
 249 0038 3046     		mov	r0, r6
 250 003a FFF7FEFF 		bl	_ZN3DDA16GetEndCoordinateEjb
 251 003e 0134     		adds	r4, r4, #1
 252 0040 A742     		cmp	r7, r4
 253 0042 45F8040F 		str	r0, [r5, #4]!	@ float
 254 0046 F5D1     		bne	.L24
 255              	.L23:
 256 0048 06AB     		add	r3, sp, #24
 257 004a 03EB8808 		add	r8, r3, r8, lsl #2
 258 004e 3A46     		mov	r2, r7
 259 0050 3046     		mov	r0, r6
 260 0052 6946     		mov	r1, sp
 261 0054 48F8189C 		str	r9, [r8, #-24]	@ float
 262 0058 FFF7FEFF 		bl	_ZN3DDA12SetPositionsEPKfj
 263 005c 07B0     		add	sp, sp, #28
 264              		@ sp needed
 265 005e BDE8F083 		pop	{r4, r5, r6, r7, r8, r9, pc}
 266              	.L18:
 267 0062 2368     		ldr	r3, [r4]
 268 0064 03EB8103 		add	r3, r3, r1, lsl #2
 269 0068 D3F85C94 		ldr	r9, [r3, #1116]	@ float
 270 006c D5E7     		b	.L19
 271              	.L20:
 272 006e 57F82810 		ldr	r1, [r7, r8, lsl #2]	@ float
 273 0072 4846     		mov	r0, r9
 274 0074 FFF7FEFF 		bl	__aeabi_fmul
 275 0078 FFF7FEFF 		bl	lrintf
 276 007c 06EB8808 		add	r8, r6, r8, lsl #2
 277 0080 C8F81C00 		str	r0, [r8, #28]
 278 0084 B37A     		ldrb	r3, [r6, #10]	@ zero_extendqisi2
 279 0086 65F30003 		bfi	r3, r5, #0, #1
 280 008a B372     		strb	r3, [r6, #10]
 281 008c 07B0     		add	sp, sp, #28
 282              		@ sp needed
 283 008e BDE8F083 		pop	{r4, r5, r6, r7, r8, r9, pc}
 284              	.L28:
 285 0092 00BF     		.align	2
ARM GAS  /tmp/cc0pcVA3.s 			page 6


 286              	.L27:
 287 0094 00000000 		.word	reprap
 288              		.size	_ZNK18CoreBaseKinematics23OnHomingSwitchTriggeredEjbPKfR3DDA, .-_ZNK18CoreBaseKinematics23On
 289              		.section	.text._ZN18CoreBaseKinematicsC2E14KinematicsType,"ax",%progbits
 290              		.align	1
 291              		.p2align 2,,3
 292              		.global	_ZN18CoreBaseKinematicsC2E14KinematicsType
 293              		.syntax unified
 294              		.thumb
 295              		.thumb_func
 296              		.fpu softvfp
 297              		.type	_ZN18CoreBaseKinematicsC2E14KinematicsType, %function
 298              	_ZN18CoreBaseKinematicsC2E14KinematicsType:
 299              		@ args = 0, pretend = 0, frame = 0
 300              		@ frame_needed = 0, uses_anonymous_args = 0
 301 0000 10B5     		push	{r4, lr}
 302 0002 0446     		mov	r4, r0
 303 0004 FFF7FEFF 		bl	_ZN20ZLeadscrewKinematicsC2E14KinematicsType
 304 0008 2346     		mov	r3, r4
 305 000a 4FF07E51 		mov	r1, #1065353216
 306 000e 054A     		ldr	r2, .L33
 307 0010 43F8402B 		str	r2, [r3], #64
 308 0014 04F15802 		add	r2, r4, #88
 309              	.L30:
 310 0018 43F8041B 		str	r1, [r3], #4	@ float
 311 001c 9A42     		cmp	r2, r3
 312 001e FBD1     		bne	.L30
 313 0020 2046     		mov	r0, r4
 314 0022 10BD     		pop	{r4, pc}
 315              	.L34:
 316              		.align	2
 317              	.L33:
 318 0024 08000000 		.word	.LANCHOR0+8
 319              		.size	_ZN18CoreBaseKinematicsC2E14KinematicsType, .-_ZN18CoreBaseKinematicsC2E14KinematicsType
 320              		.global	_ZN18CoreBaseKinematicsC1E14KinematicsType
 321              		.thumb_set _ZN18CoreBaseKinematicsC1E14KinematicsType,_ZN18CoreBaseKinematicsC2E14KinematicsType
 322              		.global	__aeabi_f2d
 323              		.section	.text._ZN18CoreBaseKinematics9ConfigureEjR11GCodeBufferRK9StringRefRb,"ax",%progbits
 324              		.align	1
 325              		.p2align 2,,3
 326              		.global	_ZN18CoreBaseKinematics9ConfigureEjR11GCodeBufferRK9StringRefRb
 327              		.syntax unified
 328              		.thumb
 329              		.thumb_func
 330              		.fpu softvfp
 331              		.type	_ZN18CoreBaseKinematics9ConfigureEjR11GCodeBufferRK9StringRefRb, %function
 332              	_ZN18CoreBaseKinematics9ConfigureEjR11GCodeBufferRK9StringRefRb:
 333              		@ args = 4, pretend = 0, frame = 8
 334              		@ frame_needed = 0, uses_anonymous_args = 0
 335 0000 2DE9F04F 		push	{r4, r5, r6, r7, r8, r9, r10, fp, lr}
 336 0004 40F29B24 		movw	r4, #667
 337 0008 85B0     		sub	sp, sp, #20
 338 000a A142     		cmp	r1, r4
 339 000c 0E9F     		ldr	r7, [sp, #56]
 340 000e 05D0     		beq	.L52
 341 0010 0E97     		str	r7, [sp, #56]
 342 0012 05B0     		add	sp, sp, #20
ARM GAS  /tmp/cc0pcVA3.s 			page 7


 343              		@ sp needed
 344 0014 BDE8F04F 		pop	{r4, r5, r6, r7, r8, r9, r10, fp, lr}
 345 0018 FFF7FEBF 		b	_ZN20ZLeadscrewKinematics9ConfigureEjR11GCodeBufferRK9StringRefRb
 346              	.L52:
 347 001c 0027     		movs	r7, #0
 348 001e 00F1400A 		add	r10, r0, #64
 349 0022 0646     		mov	r6, r0
 350 0024 1546     		mov	r5, r2
 351 0026 9846     		mov	r8, r3
 352 0028 3C46     		mov	r4, r7
 353 002a D346     		mov	fp, r10
 354 002c DFF89490 		ldr	r9, .L55+8
 355              	.L38:
 356 0030 D9F81010 		ldr	r1, [r9, #16]
 357 0034 2846     		mov	r0, r5
 358 0036 2144     		add	r1, r1, r4
 359 0038 91F87212 		ldrb	r1, [r1, #626]	@ zero_extendqisi2
 360 003c FFF7FEFF 		bl	_ZN11GCodeBuffer4SeenEc
 361 0040 0134     		adds	r4, r4, #1
 362 0042 40B9     		cbnz	r0, .L53
 363              	.L37:
 364 0044 032C     		cmp	r4, #3
 365 0046 0BF1040B 		add	fp, fp, #4
 366 004a F1D1     		bne	.L38
 367 004c 67B1     		cbz	r7, .L54
 368              	.L43:
 369 004e 3846     		mov	r0, r7
 370 0050 05B0     		add	sp, sp, #20
 371              		@ sp needed
 372 0052 BDE8F08F 		pop	{r4, r5, r6, r7, r8, r9, r10, fp, pc}
 373              	.L53:
 374 0056 0390     		str	r0, [sp, #12]
 375 0058 2846     		mov	r0, r5
 376 005a FFF7FEFF 		bl	_ZN11GCodeBuffer9GetFValueEv
 377 005e 039B     		ldr	r3, [sp, #12]
 378 0060 CBF80000 		str	r0, [fp]	@ float
 379 0064 1F46     		mov	r7, r3
 380 0066 EDE7     		b	.L37
 381              	.L54:
 382 0068 2846     		mov	r0, r5
 383 006a 5321     		movs	r1, #83
 384 006c FFF7FEFF 		bl	_ZN11GCodeBuffer4SeenEc
 385 0070 0028     		cmp	r0, #0
 386 0072 ECD1     		bne	.L43
 387 0074 3368     		ldr	r3, [r6]
 388 0076 3946     		mov	r1, r7
 389 0078 1B68     		ldr	r3, [r3]
 390 007a 3046     		mov	r0, r6
 391 007c 9847     		blx	r3
 392 007e 0F49     		ldr	r1, .L55
 393 0080 0246     		mov	r2, r0
 394 0082 4046     		mov	r0, r8
 395 0084 FFF7FEFF 		bl	_ZNK9StringRef6printfEPKcz
 396 0088 3C46     		mov	r4, r7
 397 008a 0D4D     		ldr	r5, .L55+4
 398              	.L42:
 399 008c D9F81030 		ldr	r3, [r9, #16]
ARM GAS  /tmp/cc0pcVA3.s 			page 8


 400 0090 5AF8040B 		ldr	r0, [r10], #4	@ float
 401 0094 2344     		add	r3, r3, r4
 402 0096 93F87262 		ldrb	r6, [r3, #626]	@ zero_extendqisi2
 403 009a FFF7FEFF 		bl	__aeabi_f2d
 404 009e 0134     		adds	r4, r4, #1
 405 00a0 CDE90001 		strd	r0, [sp]
 406 00a4 3246     		mov	r2, r6
 407 00a6 2946     		mov	r1, r5
 408 00a8 4046     		mov	r0, r8
 409 00aa FFF7FEFF 		bl	_ZNK9StringRef4catfEPKcz
 410 00ae 032C     		cmp	r4, #3
 411 00b0 ECD1     		bne	.L42
 412 00b2 3846     		mov	r0, r7
 413 00b4 05B0     		add	sp, sp, #20
 414              		@ sp needed
 415 00b6 BDE8F08F 		pop	{r4, r5, r6, r7, r8, r9, r10, fp, pc}
 416              	.L56:
 417 00ba 00BF     		.align	2
 418              	.L55:
 419 00bc 0C000000 		.word	.LC2
 420 00c0 00000000 		.word	.LC1
 421 00c4 00000000 		.word	reprap
 422              		.size	_ZN18CoreBaseKinematics9ConfigureEjR11GCodeBufferRK9StringRefRb, .-_ZN18CoreBaseKinematics9C
 423              		.global	_ZTV18CoreBaseKinematics
 424              		.section	.bss._ZL28cpu_irq_prev_interrupt_state,"aw",%nobits
 425              		.type	_ZL28cpu_irq_prev_interrupt_state, %object
 426              		.size	_ZL28cpu_irq_prev_interrupt_state, 1
 427              	_ZL28cpu_irq_prev_interrupt_state:
 428 0000 00       		.space	1
 429              		.section	.bss._ZL32cpu_irq_critical_section_counter,"aw",%nobits
 430              		.align	2
 431              		.type	_ZL32cpu_irq_critical_section_counter, %object
 432              		.size	_ZL32cpu_irq_critical_section_counter, 4
 433              	_ZL32cpu_irq_critical_section_counter:
 434 0000 00000000 		.space	4
 435              		.section	.bss._ZN9RTOSIfaceL31interruptCriticalSectionNestingE,"aw",%nobits
 436              		.align	2
 437              		.type	_ZN9RTOSIfaceL31interruptCriticalSectionNestingE, %object
 438              		.size	_ZN9RTOSIfaceL31interruptCriticalSectionNestingE, 4
 439              	_ZN9RTOSIfaceL31interruptCriticalSectionNestingE:
 440 0000 00000000 		.space	4
 441              		.section	.rodata._ZN18CoreBaseKinematics9ConfigureEjR11GCodeBufferRK9StringRefRb.str1.4,"aMS",%pro
 442              		.align	2
 443              	.LC1:
 444 0000 2025633A 		.ascii	" %c:%.3f\000"
 444      252E3366 
 444      00
 445 0009 000000   		.space	3
 446              	.LC2:
 447 000c 4B696E65 		.ascii	"Kinematics is %s with axis factors\000"
 447      6D617469 
 447      63732069 
 447      73202573 
 447      20776974 
 448              		.section	.rodata._ZNK10Kinematics17HomingButtonNamesEv.str1.4,"aMS",%progbits,1
 449              		.align	2
 450              	.LC0:
ARM GAS  /tmp/cc0pcVA3.s 			page 9


 451 0000 58595A55 		.ascii	"XYZUVWABC\000"
 451      56574142 
 451      4300
 452              		.section	.rodata._ZTV18CoreBaseKinematics,"a",%progbits
 453              		.align	2
 454              		.set	.LANCHOR0,. + 0
 455              		.type	_ZTV18CoreBaseKinematics, %object
 456              		.size	_ZTV18CoreBaseKinematics, 120
 457              	_ZTV18CoreBaseKinematics:
 458 0000 00000000 		.word	0
 459 0004 00000000 		.word	0
 460 0008 00000000 		.word	__cxa_pure_virtual
 461 000c 00000000 		.word	_ZN18CoreBaseKinematics9ConfigureEjR11GCodeBufferRK9StringRefRb
 462 0010 00000000 		.word	__cxa_pure_virtual
 463 0014 00000000 		.word	__cxa_pure_virtual
 464 0018 00000000 		.word	_ZNK20ZLeadscrewKinematics23SupportsAutoCalibrationEv
 465 001c 00000000 		.word	_ZN20ZLeadscrewKinematics17DoAutoCalibrationEjRK19RandomProbePointSetRK9StringRef
 466 0020 00000000 		.word	_ZN10Kinematics22SetCalibrationDefaultsEv
 467 0024 00000000 		.word	_ZNK10Kinematics26WriteCalibrationParametersEP9FileStore
 468 0028 00000000 		.word	_ZNK10Kinematics17GetTiltCorrectionEj
 469 002c 00000000 		.word	_ZNK10Kinematics11IsReachableEffb
 470 0030 00000000 		.word	_ZNK10Kinematics13LimitPositionEPfjmb
 471 0034 00000000 		.word	_ZNK10Kinematics23AxesToHomeBeforeProbingEv
 472 0038 00000000 		.word	_ZNK10Kinematics25GetAssumedInitialPositionEjPf
 473 003c 00000000 		.word	_ZNK10Kinematics13GetMotionTypeEj
 474 0040 00000000 		.word	_ZNK10Kinematics16NumHomingButtonsEj
 475 0044 00000000 		.word	_ZNK10Kinematics17HomingButtonNamesEv
 476 0048 00000000 		.word	_ZNK10Kinematics17GetHomingFileNameEmmjRm
 477 004c 00000000 		.word	_ZNK18CoreBaseKinematics24QueryTerminateHomingMoveEj
 478 0050 00000000 		.word	_ZNK18CoreBaseKinematics23OnHomingSwitchTriggeredEjbPKfR3DDA
 479 0054 00000000 		.word	_ZNK18CoreBaseKinematics13GetHomingModeEv
 480 0058 00000000 		.word	_ZNK10Kinematics16AxesAssumedHomedEm
 481 005c 00000000 		.word	_ZNK10Kinematics15MustBeHomedAxesEmb
 482 0060 00000000 		.word	_ZNK20ZLeadscrewKinematics19WriteResumeSettingsEP9FileStore
 483 0064 00000000 		.word	__cxa_pure_virtual
 484 0068 00000000 		.word	_ZNK10Kinematics24IsContinuousRotationAxisEj
 485 006c 00000000 		.word	0
 486 0070 00000000 		.word	0
 487 0074 00000000 		.word	__cxa_pure_virtual
 488              		.ident	"GCC: (15:6.3.1+svn253039-1build1) 6.3.1 20170620"
