ARM GAS  /tmp/ccBsCYjQ.s 			page 1


   1              		.cpu cortex-m3
   2              		.eabi_attribute 20, 1
   3              		.eabi_attribute 21, 1
   4              		.eabi_attribute 23, 3
   5              		.eabi_attribute 24, 1
   6              		.eabi_attribute 25, 1
   7              		.eabi_attribute 26, 1
   8              		.eabi_attribute 30, 2
   9              		.eabi_attribute 34, 1
  10              		.eabi_attribute 18, 4
  11              		.file	"PolarKinematics.cpp"
  12              		.section	.text._ZNK10Kinematics23SupportsAutoCalibrationEv,"axG",%progbits,_ZNK10Kinematics23Suppo
  13              		.align	1
  14              		.p2align 2,,3
  15              		.weak	_ZNK10Kinematics23SupportsAutoCalibrationEv
  16              		.syntax unified
  17              		.thumb
  18              		.thumb_func
  19              		.fpu softvfp
  20              		.type	_ZNK10Kinematics23SupportsAutoCalibrationEv, %function
  21              	_ZNK10Kinematics23SupportsAutoCalibrationEv:
  22              		@ args = 0, pretend = 0, frame = 0
  23              		@ frame_needed = 0, uses_anonymous_args = 0
  24              		@ link register save eliminated.
  25 0000 0020     		movs	r0, #0
  26 0002 7047     		bx	lr
  27              		.size	_ZNK10Kinematics23SupportsAutoCalibrationEv, .-_ZNK10Kinematics23SupportsAutoCalibrationEv
  28              		.section	.text._ZN10Kinematics17DoAutoCalibrationEjRK19RandomProbePointSetRK9StringRef,"axG",%prog
  29              		.align	1
  30              		.p2align 2,,3
  31              		.weak	_ZN10Kinematics17DoAutoCalibrationEjRK19RandomProbePointSetRK9StringRef
  32              		.syntax unified
  33              		.thumb
  34              		.thumb_func
  35              		.fpu softvfp
  36              		.type	_ZN10Kinematics17DoAutoCalibrationEjRK19RandomProbePointSetRK9StringRef, %function
  37              	_ZN10Kinematics17DoAutoCalibrationEjRK19RandomProbePointSetRK9StringRef:
  38              		@ args = 0, pretend = 0, frame = 0
  39              		@ frame_needed = 0, uses_anonymous_args = 0
  40              		@ link register save eliminated.
  41 0000 0020     		movs	r0, #0
  42 0002 7047     		bx	lr
  43              		.size	_ZN10Kinematics17DoAutoCalibrationEjRK19RandomProbePointSetRK9StringRef, .-_ZN10Kinematics17
  44              		.section	.text._ZN10Kinematics22SetCalibrationDefaultsEv,"axG",%progbits,_ZN10Kinematics22SetCalib
  45              		.align	1
  46              		.p2align 2,,3
  47              		.weak	_ZN10Kinematics22SetCalibrationDefaultsEv
  48              		.syntax unified
  49              		.thumb
  50              		.thumb_func
  51              		.fpu softvfp
  52              		.type	_ZN10Kinematics22SetCalibrationDefaultsEv, %function
  53              	_ZN10Kinematics22SetCalibrationDefaultsEv:
  54              		@ args = 0, pretend = 0, frame = 0
  55              		@ frame_needed = 0, uses_anonymous_args = 0
  56              		@ link register save eliminated.
  57 0000 7047     		bx	lr
ARM GAS  /tmp/ccBsCYjQ.s 			page 2


  58              		.size	_ZN10Kinematics22SetCalibrationDefaultsEv, .-_ZN10Kinematics22SetCalibrationDefaultsEv
  59 0002 00BF     		.section	.text._ZNK10Kinematics26WriteCalibrationParametersEP9FileStore,"axG",%progbits,_ZNK10Kine
  60              		.align	1
  61              		.p2align 2,,3
  62              		.weak	_ZNK10Kinematics26WriteCalibrationParametersEP9FileStore
  63              		.syntax unified
  64              		.thumb
  65              		.thumb_func
  66              		.fpu softvfp
  67              		.type	_ZNK10Kinematics26WriteCalibrationParametersEP9FileStore, %function
  68              	_ZNK10Kinematics26WriteCalibrationParametersEP9FileStore:
  69              		@ args = 0, pretend = 0, frame = 0
  70              		@ frame_needed = 0, uses_anonymous_args = 0
  71              		@ link register save eliminated.
  72 0000 0120     		movs	r0, #1
  73 0002 7047     		bx	lr
  74              		.size	_ZNK10Kinematics26WriteCalibrationParametersEP9FileStore, .-_ZNK10Kinematics26WriteCalibrati
  75              		.section	.text._ZNK10Kinematics17GetTiltCorrectionEj,"axG",%progbits,_ZNK10Kinematics17GetTiltCorr
  76              		.align	1
  77              		.p2align 2,,3
  78              		.weak	_ZNK10Kinematics17GetTiltCorrectionEj
  79              		.syntax unified
  80              		.thumb
  81              		.thumb_func
  82              		.fpu softvfp
  83              		.type	_ZNK10Kinematics17GetTiltCorrectionEj, %function
  84              	_ZNK10Kinematics17GetTiltCorrectionEj:
  85              		@ args = 0, pretend = 0, frame = 0
  86              		@ frame_needed = 0, uses_anonymous_args = 0
  87              		@ link register save eliminated.
  88 0000 0020     		movs	r0, #0
  89 0002 7047     		bx	lr
  90              		.size	_ZNK10Kinematics17GetTiltCorrectionEj, .-_ZNK10Kinematics17GetTiltCorrectionEj
  91              		.section	.text._ZNK10Kinematics23AxesToHomeBeforeProbingEv,"axG",%progbits,_ZNK10Kinematics23AxesT
  92              		.align	1
  93              		.p2align 2,,3
  94              		.weak	_ZNK10Kinematics23AxesToHomeBeforeProbingEv
  95              		.syntax unified
  96              		.thumb
  97              		.thumb_func
  98              		.fpu softvfp
  99              		.type	_ZNK10Kinematics23AxesToHomeBeforeProbingEv, %function
 100              	_ZNK10Kinematics23AxesToHomeBeforeProbingEv:
 101              		@ args = 0, pretend = 0, frame = 0
 102              		@ frame_needed = 0, uses_anonymous_args = 0
 103              		@ link register save eliminated.
 104 0000 0320     		movs	r0, #3
 105 0002 7047     		bx	lr
 106              		.size	_ZNK10Kinematics23AxesToHomeBeforeProbingEv, .-_ZNK10Kinematics23AxesToHomeBeforeProbingEv
 107              		.section	.text._ZNK10Kinematics13GetMotionTypeEj,"axG",%progbits,_ZNK10Kinematics13GetMotionTypeEj
 108              		.align	1
 109              		.p2align 2,,3
 110              		.weak	_ZNK10Kinematics13GetMotionTypeEj
 111              		.syntax unified
 112              		.thumb
 113              		.thumb_func
 114              		.fpu softvfp
ARM GAS  /tmp/ccBsCYjQ.s 			page 3


 115              		.type	_ZNK10Kinematics13GetMotionTypeEj, %function
 116              	_ZNK10Kinematics13GetMotionTypeEj:
 117              		@ args = 0, pretend = 0, frame = 0
 118              		@ frame_needed = 0, uses_anonymous_args = 0
 119              		@ link register save eliminated.
 120 0000 0020     		movs	r0, #0
 121 0002 7047     		bx	lr
 122              		.size	_ZNK10Kinematics13GetMotionTypeEj, .-_ZNK10Kinematics13GetMotionTypeEj
 123              		.section	.text._ZNK10Kinematics16NumHomingButtonsEj,"axG",%progbits,_ZNK10Kinematics16NumHomingBut
 124              		.align	1
 125              		.p2align 2,,3
 126              		.weak	_ZNK10Kinematics16NumHomingButtonsEj
 127              		.syntax unified
 128              		.thumb
 129              		.thumb_func
 130              		.fpu softvfp
 131              		.type	_ZNK10Kinematics16NumHomingButtonsEj, %function
 132              	_ZNK10Kinematics16NumHomingButtonsEj:
 133              		@ args = 0, pretend = 0, frame = 0
 134              		@ frame_needed = 0, uses_anonymous_args = 0
 135              		@ link register save eliminated.
 136 0000 0846     		mov	r0, r1
 137 0002 7047     		bx	lr
 138              		.size	_ZNK10Kinematics16NumHomingButtonsEj, .-_ZNK10Kinematics16NumHomingButtonsEj
 139              		.section	.text._ZNK10Kinematics19WriteResumeSettingsEP9FileStore,"axG",%progbits,_ZNK10Kinematics1
 140              		.align	1
 141              		.p2align 2,,3
 142              		.weak	_ZNK10Kinematics19WriteResumeSettingsEP9FileStore
 143              		.syntax unified
 144              		.thumb
 145              		.thumb_func
 146              		.fpu softvfp
 147              		.type	_ZNK10Kinematics19WriteResumeSettingsEP9FileStore, %function
 148              	_ZNK10Kinematics19WriteResumeSettingsEP9FileStore:
 149              		@ args = 0, pretend = 0, frame = 0
 150              		@ frame_needed = 0, uses_anonymous_args = 0
 151              		@ link register save eliminated.
 152 0000 0120     		movs	r0, #1
 153 0002 7047     		bx	lr
 154              		.size	_ZNK10Kinematics19WriteResumeSettingsEP9FileStore, .-_ZNK10Kinematics19WriteResumeSettingsEP
 155              		.section	.text._ZNK15PolarKinematics17HomingButtonNamesEv,"axG",%progbits,_ZNK15PolarKinematics17H
 156              		.align	1
 157              		.p2align 2,,3
 158              		.weak	_ZNK15PolarKinematics17HomingButtonNamesEv
 159              		.syntax unified
 160              		.thumb
 161              		.thumb_func
 162              		.fpu softvfp
 163              		.type	_ZNK15PolarKinematics17HomingButtonNamesEv, %function
 164              	_ZNK15PolarKinematics17HomingButtonNamesEv:
 165              		@ args = 0, pretend = 0, frame = 0
 166              		@ frame_needed = 0, uses_anonymous_args = 0
 167              		@ link register save eliminated.
 168 0000 0048     		ldr	r0, .L11
 169 0002 7047     		bx	lr
 170              	.L12:
 171              		.align	2
ARM GAS  /tmp/ccBsCYjQ.s 			page 4


 172              	.L11:
 173 0004 00000000 		.word	.LC0
 174              		.size	_ZNK15PolarKinematics17HomingButtonNamesEv, .-_ZNK15PolarKinematics17HomingButtonNamesEv
 175              		.section	.text._ZNK15PolarKinematics13GetHomingModeEv,"axG",%progbits,_ZNK15PolarKinematics13GetHo
 176              		.align	1
 177              		.p2align 2,,3
 178              		.weak	_ZNK15PolarKinematics13GetHomingModeEv
 179              		.syntax unified
 180              		.thumb
 181              		.thumb_func
 182              		.fpu softvfp
 183              		.type	_ZNK15PolarKinematics13GetHomingModeEv, %function
 184              	_ZNK15PolarKinematics13GetHomingModeEv:
 185              		@ args = 0, pretend = 0, frame = 0
 186              		@ frame_needed = 0, uses_anonymous_args = 0
 187              		@ link register save eliminated.
 188 0000 0120     		movs	r0, #1
 189 0002 7047     		bx	lr
 190              		.size	_ZNK15PolarKinematics13GetHomingModeEv, .-_ZNK15PolarKinematics13GetHomingModeEv
 191              		.section	.text._ZNK15PolarKinematics7GetNameEb,"ax",%progbits
 192              		.align	1
 193              		.p2align 2,,3
 194              		.global	_ZNK15PolarKinematics7GetNameEb
 195              		.syntax unified
 196              		.thumb
 197              		.thumb_func
 198              		.fpu softvfp
 199              		.type	_ZNK15PolarKinematics7GetNameEb, %function
 200              	_ZNK15PolarKinematics7GetNameEb:
 201              		@ args = 0, pretend = 0, frame = 0
 202              		@ frame_needed = 0, uses_anonymous_args = 0
 203              		@ link register save eliminated.
 204 0000 0048     		ldr	r0, .L15
 205 0002 7047     		bx	lr
 206              	.L16:
 207              		.align	2
 208              	.L15:
 209 0004 00000000 		.word	.LC1
 210              		.size	_ZNK15PolarKinematics7GetNameEb, .-_ZNK15PolarKinematics7GetNameEb
 211              		.global	__aeabi_fmul
 212              		.global	__aeabi_fadd
 213              		.global	__aeabi_fcmpge
 214              		.global	__aeabi_fcmple
 215              		.section	.text._ZNK15PolarKinematics11IsReachableEffb,"ax",%progbits
 216              		.align	1
 217              		.p2align 2,,3
 218              		.global	_ZNK15PolarKinematics11IsReachableEffb
 219              		.syntax unified
 220              		.thumb
 221              		.thumb_func
 222              		.fpu softvfp
 223              		.type	_ZNK15PolarKinematics11IsReachableEffb, %function
 224              	_ZNK15PolarKinematics11IsReachableEffb:
 225              		@ args = 0, pretend = 0, frame = 0
 226              		@ frame_needed = 0, uses_anonymous_args = 0
 227 0000 70B5     		push	{r4, r5, r6, lr}
 228 0002 0446     		mov	r4, r0
ARM GAS  /tmp/ccBsCYjQ.s 			page 5


 229 0004 0846     		mov	r0, r1
 230 0006 1646     		mov	r6, r2
 231 0008 FFF7FEFF 		bl	__aeabi_fmul
 232 000c 3146     		mov	r1, r6
 233 000e 0546     		mov	r5, r0
 234 0010 3046     		mov	r0, r6
 235 0012 FFF7FEFF 		bl	__aeabi_fmul
 236 0016 0146     		mov	r1, r0
 237 0018 2846     		mov	r0, r5
 238 001a FFF7FEFF 		bl	__aeabi_fadd
 239 001e 616A     		ldr	r1, [r4, #36]	@ float
 240 0020 0546     		mov	r5, r0
 241 0022 FFF7FEFF 		bl	__aeabi_fcmpge
 242 0026 40B1     		cbz	r0, .L23
 243 0028 A16A     		ldr	r1, [r4, #40]	@ float
 244 002a 2846     		mov	r0, r5
 245 002c FFF7FEFF 		bl	__aeabi_fcmple
 246 0030 4FF00103 		mov	r3, #1
 247 0034 18B1     		cbz	r0, .L26
 248 0036 D8B2     		uxtb	r0, r3
 249 0038 70BD     		pop	{r4, r5, r6, pc}
 250              	.L23:
 251 003a 0020     		movs	r0, #0
 252 003c 70BD     		pop	{r4, r5, r6, pc}
 253              	.L26:
 254 003e 0346     		mov	r3, r0
 255 0040 D8B2     		uxtb	r0, r3
 256 0042 70BD     		pop	{r4, r5, r6, pc}
 257              		.size	_ZNK15PolarKinematics11IsReachableEffb, .-_ZNK15PolarKinematics11IsReachableEffb
 258              		.section	.text._ZNK15PolarKinematics25GetAssumedInitialPositionEjPf,"ax",%progbits
 259              		.align	1
 260              		.p2align 2,,3
 261              		.global	_ZNK15PolarKinematics25GetAssumedInitialPositionEjPf
 262              		.syntax unified
 263              		.thumb
 264              		.thumb_func
 265              		.fpu softvfp
 266              		.type	_ZNK15PolarKinematics25GetAssumedInitialPositionEjPf, %function
 267              	_ZNK15PolarKinematics25GetAssumedInitialPositionEjPf:
 268              		@ args = 0, pretend = 0, frame = 0
 269              		@ frame_needed = 0, uses_anonymous_args = 0
 270              		@ link register save eliminated.
 271 0000 31B1     		cbz	r1, .L27
 272 0002 0023     		movs	r3, #0
 273 0004 02EB8101 		add	r1, r2, r1, lsl #2
 274              	.L30:
 275 0008 42F8043B 		str	r3, [r2], #4	@ float
 276 000c 8A42     		cmp	r2, r1
 277 000e FBD1     		bne	.L30
 278              	.L27:
 279 0010 7047     		bx	lr
 280              		.size	_ZNK15PolarKinematics25GetAssumedInitialPositionEjPf, .-_ZNK15PolarKinematics25GetAssumedIni
 281 0012 00BF     		.section	.text._ZNK15PolarKinematics16AxesAssumedHomedEm,"ax",%progbits
 282              		.align	1
 283              		.p2align 2,,3
 284              		.global	_ZNK15PolarKinematics16AxesAssumedHomedEm
 285              		.syntax unified
ARM GAS  /tmp/ccBsCYjQ.s 			page 6


 286              		.thumb
 287              		.thumb_func
 288              		.fpu softvfp
 289              		.type	_ZNK15PolarKinematics16AxesAssumedHomedEm, %function
 290              	_ZNK15PolarKinematics16AxesAssumedHomedEm:
 291              		@ args = 0, pretend = 0, frame = 0
 292              		@ frame_needed = 0, uses_anonymous_args = 0
 293              		@ link register save eliminated.
 294 0000 01F00303 		and	r3, r1, #3
 295 0004 032B     		cmp	r3, #3
 296 0006 14BF     		ite	ne
 297 0008 21F00300 		bicne	r0, r1, #3
 298 000c 0846     		moveq	r0, r1
 299 000e 7047     		bx	lr
 300              		.size	_ZNK15PolarKinematics16AxesAssumedHomedEm, .-_ZNK15PolarKinematics16AxesAssumedHomedEm
 301              		.section	.text._ZNK15PolarKinematics15MustBeHomedAxesEmb,"ax",%progbits
 302              		.align	1
 303              		.p2align 2,,3
 304              		.global	_ZNK15PolarKinematics15MustBeHomedAxesEmb
 305              		.syntax unified
 306              		.thumb
 307              		.thumb_func
 308              		.fpu softvfp
 309              		.type	_ZNK15PolarKinematics15MustBeHomedAxesEmb, %function
 310              	_ZNK15PolarKinematics15MustBeHomedAxesEmb:
 311              		@ args = 0, pretend = 0, frame = 0
 312              		@ frame_needed = 0, uses_anonymous_args = 0
 313              		@ link register save eliminated.
 314 0000 4B07     		lsls	r3, r1, #29
 315 0002 14BF     		ite	ne
 316 0004 41F00700 		orrne	r0, r1, #7
 317 0008 0846     		moveq	r0, r1
 318 000a 7047     		bx	lr
 319              		.size	_ZNK15PolarKinematics15MustBeHomedAxesEmb, .-_ZNK15PolarKinematics15MustBeHomedAxesEmb
 320              		.section	.text._ZNK15PolarKinematics24QueryTerminateHomingMoveEj,"ax",%progbits
 321              		.align	1
 322              		.p2align 2,,3
 323              		.global	_ZNK15PolarKinematics24QueryTerminateHomingMoveEj
 324              		.syntax unified
 325              		.thumb
 326              		.thumb_func
 327              		.fpu softvfp
 328              		.type	_ZNK15PolarKinematics24QueryTerminateHomingMoveEj, %function
 329              	_ZNK15PolarKinematics24QueryTerminateHomingMoveEj:
 330              		@ args = 0, pretend = 0, frame = 0
 331              		@ frame_needed = 0, uses_anonymous_args = 0
 332              		@ link register save eliminated.
 333 0000 0020     		movs	r0, #0
 334 0002 7047     		bx	lr
 335              		.size	_ZNK15PolarKinematics24QueryTerminateHomingMoveEj, .-_ZNK15PolarKinematics24QueryTerminateHo
 336              		.section	.text._ZNK15PolarKinematics24IsContinuousRotationAxisEj,"ax",%progbits
 337              		.align	1
 338              		.p2align 2,,3
 339              		.global	_ZNK15PolarKinematics24IsContinuousRotationAxisEj
 340              		.syntax unified
 341              		.thumb
 342              		.thumb_func
ARM GAS  /tmp/ccBsCYjQ.s 			page 7


 343              		.fpu softvfp
 344              		.type	_ZNK15PolarKinematics24IsContinuousRotationAxisEj, %function
 345              	_ZNK15PolarKinematics24IsContinuousRotationAxisEj:
 346              		@ args = 0, pretend = 0, frame = 0
 347              		@ frame_needed = 0, uses_anonymous_args = 0
 348              		@ link register save eliminated.
 349 0000 A1F10100 		sub	r0, r1, #1
 350 0004 B0FA80F0 		clz	r0, r0
 351 0008 4009     		lsrs	r0, r0, #5
 352 000a 7047     		bx	lr
 353              		.size	_ZNK15PolarKinematics24IsContinuousRotationAxisEj, .-_ZNK15PolarKinematics24IsContinuousRota
 354              		.section	.text._ZN15PolarKinematicsD2Ev,"axG",%progbits,_ZN15PolarKinematicsD5Ev,comdat
 355              		.align	1
 356              		.p2align 2,,3
 357              		.weak	_ZN15PolarKinematicsD2Ev
 358              		.syntax unified
 359              		.thumb
 360              		.thumb_func
 361              		.fpu softvfp
 362              		.type	_ZN15PolarKinematicsD2Ev, %function
 363              	_ZN15PolarKinematicsD2Ev:
 364              		@ args = 0, pretend = 0, frame = 0
 365              		@ frame_needed = 0, uses_anonymous_args = 0
 366              		@ link register save eliminated.
 367 0000 7047     		bx	lr
 368              		.size	_ZN15PolarKinematicsD2Ev, .-_ZN15PolarKinematicsD2Ev
 369              		.weak	_ZN15PolarKinematicsD1Ev
 370              		.thumb_set _ZN15PolarKinematicsD1Ev,_ZN15PolarKinematicsD2Ev
 371              		.global	__aeabi_i2f
 372              		.global	__aeabi_fcmpeq
 373 0002 00BF     		.section	.text._ZNK15PolarKinematics21CartesianToMotorStepsEPKfS1_jjPlb,"ax",%progbits
 374              		.align	1
 375              		.p2align 2,,3
 376              		.global	_ZNK15PolarKinematics21CartesianToMotorStepsEPKfS1_jjPlb
 377              		.syntax unified
 378              		.thumb
 379              		.thumb_func
 380              		.fpu softvfp
 381              		.type	_ZNK15PolarKinematics21CartesianToMotorStepsEPKfS1_jjPlb, %function
 382              	_ZNK15PolarKinematics21CartesianToMotorStepsEPKfS1_jjPlb:
 383              		@ args = 12, pretend = 0, frame = 0
 384              		@ frame_needed = 0, uses_anonymous_args = 0
 385 0000 2DE9F041 		push	{r4, r5, r6, r7, r8, lr}
 386 0004 0D46     		mov	r5, r1
 387 0006 0968     		ldr	r1, [r1]	@ float
 388 0008 1746     		mov	r7, r2
 389 000a 0846     		mov	r0, r1
 390 000c 9846     		mov	r8, r3
 391 000e FFF7FEFF 		bl	__aeabi_fmul
 392 0012 6E68     		ldr	r6, [r5, #4]	@ float
 393 0014 0446     		mov	r4, r0
 394 0016 3146     		mov	r1, r6
 395 0018 3046     		mov	r0, r6
 396 001a FFF7FEFF 		bl	__aeabi_fmul
 397 001e 0146     		mov	r1, r0
 398 0020 2046     		mov	r0, r4
 399 0022 FFF7FEFF 		bl	__aeabi_fadd
ARM GAS  /tmp/ccBsCYjQ.s 			page 8


 400 0026 079E     		ldr	r6, [sp, #28]
 401 0028 FFF7FEFF 		bl	sqrtf
 402 002c 3968     		ldr	r1, [r7]	@ float
 403 002e FFF7FEFF 		bl	__aeabi_fmul
 404 0032 FFF7FEFF 		bl	lrintf
 405 0036 3060     		str	r0, [r6]
 406 0038 FFF7FEFF 		bl	__aeabi_i2f
 407 003c 0021     		movs	r1, #0
 408 003e FFF7FEFF 		bl	__aeabi_fcmpeq
 409 0042 C0B1     		cbz	r0, .L52
 410 0044 0020     		movs	r0, #0
 411              	.L42:
 412 0046 B8F1020F 		cmp	r8, #2
 413 004a 7060     		str	r0, [r6, #4]
 414 004c 10D9     		bls	.L49
 415 004e 0224     		movs	r4, #2
 416 0050 0435     		adds	r5, r5, #4
 417 0052 0437     		adds	r7, r7, #4
 418 0054 0436     		adds	r6, r6, #4
 419              	.L46:
 420 0056 57F8041F 		ldr	r1, [r7, #4]!	@ float
 421 005a 55F8040F 		ldr	r0, [r5, #4]!	@ float
 422 005e FFF7FEFF 		bl	__aeabi_fmul
 423 0062 FFF7FEFF 		bl	lrintf
 424 0066 0134     		adds	r4, r4, #1
 425 0068 A045     		cmp	r8, r4
 426 006a 46F8040F 		str	r0, [r6, #4]!
 427 006e F2D1     		bne	.L46
 428              	.L49:
 429 0070 0120     		movs	r0, #1
 430 0072 BDE8F081 		pop	{r4, r5, r6, r7, r8, pc}
 431              	.L52:
 432 0076 2968     		ldr	r1, [r5]	@ float
 433 0078 6868     		ldr	r0, [r5, #4]	@ float
 434 007a FFF7FEFF 		bl	atan2f
 435 007e 0449     		ldr	r1, .L53
 436 0080 FFF7FEFF 		bl	__aeabi_fmul
 437 0084 7968     		ldr	r1, [r7, #4]	@ float
 438 0086 FFF7FEFF 		bl	__aeabi_fmul
 439 008a FFF7FEFF 		bl	lrintf
 440 008e DAE7     		b	.L42
 441              	.L54:
 442              		.align	2
 443              	.L53:
 444 0090 E02E6542 		.word	1113927392
 445              		.size	_ZNK15PolarKinematics21CartesianToMotorStepsEPKfS1_jjPlb, .-_ZNK15PolarKinematics21Cartesian
 446              		.global	__aeabi_fdiv
 447              		.section	.text._ZNK15PolarKinematics21MotorStepsToCartesianEPKlPKfjjPf,"ax",%progbits
 448              		.align	1
 449              		.p2align 2,,3
 450              		.global	_ZNK15PolarKinematics21MotorStepsToCartesianEPKlPKfjjPf
 451              		.syntax unified
 452              		.thumb
 453              		.thumb_func
 454              		.fpu softvfp
 455              		.type	_ZNK15PolarKinematics21MotorStepsToCartesianEPKlPKfjjPf, %function
 456              	_ZNK15PolarKinematics21MotorStepsToCartesianEPKlPKfjjPf:
ARM GAS  /tmp/ccBsCYjQ.s 			page 9


 457              		@ args = 8, pretend = 0, frame = 0
 458              		@ frame_needed = 0, uses_anonymous_args = 0
 459 0000 2DE9F843 		push	{r3, r4, r5, r6, r7, r8, r9, lr}
 460 0004 1646     		mov	r6, r2
 461 0006 4868     		ldr	r0, [r1, #4]
 462 0008 1F46     		mov	r7, r3
 463 000a 0C46     		mov	r4, r1
 464 000c FFF7FEFF 		bl	__aeabi_i2f
 465 0010 1949     		ldr	r1, .L60
 466 0012 FFF7FEFF 		bl	__aeabi_fmul
 467 0016 7168     		ldr	r1, [r6, #4]	@ float
 468 0018 FFF7FEFF 		bl	__aeabi_fdiv
 469 001c 8146     		mov	r9, r0
 470 001e 2068     		ldr	r0, [r4]
 471 0020 FFF7FEFF 		bl	__aeabi_i2f
 472 0024 3168     		ldr	r1, [r6]	@ float
 473 0026 FFF7FEFF 		bl	__aeabi_fdiv
 474 002a 8046     		mov	r8, r0
 475 002c 4846     		mov	r0, r9
 476 002e FFF7FEFF 		bl	cosf
 477 0032 0146     		mov	r1, r0
 478 0034 4046     		mov	r0, r8
 479 0036 FFF7FEFF 		bl	__aeabi_fmul
 480 003a 099D     		ldr	r5, [sp, #36]
 481 003c 2860     		str	r0, [r5]	@ float
 482 003e 4846     		mov	r0, r9
 483 0040 FFF7FEFF 		bl	sinf
 484 0044 0146     		mov	r1, r0
 485 0046 4046     		mov	r0, r8
 486 0048 FFF7FEFF 		bl	__aeabi_fmul
 487 004c 022F     		cmp	r7, #2
 488 004e 6860     		str	r0, [r5, #4]	@ float
 489 0050 10D9     		bls	.L55
 490 0052 04EB8707 		add	r7, r4, r7, lsl #2
 491 0056 0436     		adds	r6, r6, #4
 492 0058 0435     		adds	r5, r5, #4
 493 005a 0834     		adds	r4, r4, #8
 494              	.L58:
 495 005c 54F8040B 		ldr	r0, [r4], #4
 496 0060 FFF7FEFF 		bl	__aeabi_i2f
 497 0064 56F8041F 		ldr	r1, [r6, #4]!	@ float
 498 0068 FFF7FEFF 		bl	__aeabi_fdiv
 499 006c BC42     		cmp	r4, r7
 500 006e 45F8040F 		str	r0, [r5, #4]!	@ float
 501 0072 F3D1     		bne	.L58
 502              	.L55:
 503 0074 BDE8F883 		pop	{r3, r4, r5, r6, r7, r8, r9, pc}
 504              	.L61:
 505              		.align	2
 506              	.L60:
 507 0078 35FA8E3C 		.word	1016003125
 508              		.size	_ZNK15PolarKinematics21MotorStepsToCartesianEPKlPKfjjPf, .-_ZNK15PolarKinematics21MotorSteps
 509              		.global	__aeabi_fcmplt
 510              		.global	__aeabi_fcmpgt
 511              		.section	.text._ZNK15PolarKinematics13LimitPositionEPfjmb,"ax",%progbits
 512              		.align	1
 513              		.p2align 2,,3
ARM GAS  /tmp/ccBsCYjQ.s 			page 10


 514              		.global	_ZNK15PolarKinematics13LimitPositionEPfjmb
 515              		.syntax unified
 516              		.thumb
 517              		.thumb_func
 518              		.fpu softvfp
 519              		.type	_ZNK15PolarKinematics13LimitPositionEPfjmb, %function
 520              	_ZNK15PolarKinematics13LimitPositionEPfjmb:
 521              		@ args = 4, pretend = 0, frame = 0
 522              		@ frame_needed = 0, uses_anonymous_args = 0
 523 0000 2DE9F041 		push	{r4, r5, r6, r7, r8, lr}
 524 0004 0C46     		mov	r4, r1
 525 0006 82B0     		sub	sp, sp, #8
 526 0008 0093     		str	r3, [sp]
 527 000a 1346     		mov	r3, r2
 528 000c 0222     		movs	r2, #2
 529 000e 0546     		mov	r5, r0
 530 0010 FFF7FEFF 		bl	_ZNK10Kinematics21LimitPositionFromAxisEPfjjm
 531 0014 2168     		ldr	r1, [r4]	@ float
 532 0016 0646     		mov	r6, r0
 533 0018 0846     		mov	r0, r1
 534 001a FFF7FEFF 		bl	__aeabi_fmul
 535 001e D4F80480 		ldr	r8, [r4, #4]	@ float
 536 0022 0746     		mov	r7, r0
 537 0024 4146     		mov	r1, r8
 538 0026 4046     		mov	r0, r8
 539 0028 FFF7FEFF 		bl	__aeabi_fmul
 540 002c 0146     		mov	r1, r0
 541 002e 3846     		mov	r0, r7
 542 0030 FFF7FEFF 		bl	__aeabi_fadd
 543 0034 696A     		ldr	r1, [r5, #36]	@ float
 544 0036 0746     		mov	r7, r0
 545 0038 FFF7FEFF 		bl	__aeabi_fcmplt
 546 003c 40B9     		cbnz	r0, .L78
 547 003e A96A     		ldr	r1, [r5, #40]	@ float
 548 0040 3846     		mov	r0, r7
 549 0042 FFF7FEFF 		bl	__aeabi_fcmpgt
 550 0046 A0B9     		cbnz	r0, .L79
 551 0048 3046     		mov	r0, r6
 552 004a 02B0     		add	sp, sp, #8
 553              		@ sp needed
 554 004c BDE8F081 		pop	{r4, r5, r6, r7, r8, pc}
 555              	.L78:
 556 0050 3846     		mov	r0, r7
 557 0052 FFF7FEFF 		bl	sqrtf
 558 0056 1A49     		ldr	r1, .L80
 559 0058 0646     		mov	r6, r0
 560 005a FFF7FEFF 		bl	__aeabi_fcmplt
 561 005e 18B3     		cbz	r0, .L74
 562 0060 0126     		movs	r6, #1
 563 0062 0023     		movs	r3, #0
 564 0064 3046     		mov	r0, r6
 565 0066 2A69     		ldr	r2, [r5, #16]	@ float
 566 0068 6360     		str	r3, [r4, #4]	@ float
 567 006a 2260     		str	r2, [r4]	@ float
 568 006c 02B0     		add	sp, sp, #8
 569              		@ sp needed
 570 006e BDE8F081 		pop	{r4, r5, r6, r7, r8, pc}
ARM GAS  /tmp/ccBsCYjQ.s 			page 11


 571              	.L79:
 572 0072 3846     		mov	r0, r7
 573 0074 FFF7FEFF 		bl	sqrtf
 574 0078 0146     		mov	r1, r0
 575 007a 0646     		mov	r6, r0
 576 007c 6869     		ldr	r0, [r5, #20]	@ float
 577 007e FFF7FEFF 		bl	__aeabi_fdiv
 578 0082 0146     		mov	r1, r0
 579 0084 2068     		ldr	r0, [r4]	@ float
 580 0086 FFF7FEFF 		bl	__aeabi_fmul
 581 008a 2060     		str	r0, [r4]	@ float
 582 008c 6869     		ldr	r0, [r5, #20]	@ float
 583              	.L77:
 584 008e 3146     		mov	r1, r6
 585 0090 FFF7FEFF 		bl	__aeabi_fdiv
 586 0094 0146     		mov	r1, r0
 587 0096 6068     		ldr	r0, [r4, #4]	@ float
 588 0098 FFF7FEFF 		bl	__aeabi_fmul
 589 009c 0126     		movs	r6, #1
 590 009e 6060     		str	r0, [r4, #4]	@ float
 591 00a0 3046     		mov	r0, r6
 592 00a2 02B0     		add	sp, sp, #8
 593              		@ sp needed
 594 00a4 BDE8F081 		pop	{r4, r5, r6, r7, r8, pc}
 595              	.L74:
 596 00a8 3146     		mov	r1, r6
 597 00aa 2869     		ldr	r0, [r5, #16]	@ float
 598 00ac FFF7FEFF 		bl	__aeabi_fdiv
 599 00b0 0146     		mov	r1, r0
 600 00b2 2068     		ldr	r0, [r4]	@ float
 601 00b4 FFF7FEFF 		bl	__aeabi_fmul
 602 00b8 2060     		str	r0, [r4]	@ float
 603 00ba 2869     		ldr	r0, [r5, #16]	@ float
 604 00bc E7E7     		b	.L77
 605              	.L81:
 606 00be 00BF     		.align	2
 607              	.L80:
 608 00c0 0AD7233C 		.word	1008981770
 609              		.size	_ZNK15PolarKinematics13LimitPositionEPfjmb, .-_ZNK15PolarKinematics13LimitPositionEPfjmb
 610              		.section	.text._ZNK15PolarKinematics17GetHomingFileNameEmmjRm,"ax",%progbits
 611              		.align	1
 612              		.p2align 2,,3
 613              		.global	_ZNK15PolarKinematics17GetHomingFileNameEmmjRm
 614              		.syntax unified
 615              		.thumb
 616              		.thumb_func
 617              		.fpu softvfp
 618              		.type	_ZNK15PolarKinematics17GetHomingFileNameEmmjRm, %function
 619              	_ZNK15PolarKinematics17GetHomingFileNameEmmjRm:
 620              		@ args = 4, pretend = 0, frame = 0
 621              		@ frame_needed = 0, uses_anonymous_args = 0
 622 0000 10B5     		push	{r4, lr}
 623 0002 82B0     		sub	sp, sp, #8
 624 0004 049C     		ldr	r4, [sp, #16]
 625 0006 0094     		str	r4, [sp]
 626 0008 FFF7FEFF 		bl	_ZNK10Kinematics17GetHomingFileNameEmmjRm
 627 000c 064B     		ldr	r3, .L86
ARM GAS  /tmp/ccBsCYjQ.s 			page 12


 628 000e 1A68     		ldr	r2, [r3]
 629 0010 9042     		cmp	r0, r2
 630 0012 06D0     		beq	.L84
 631 0014 5A68     		ldr	r2, [r3, #4]
 632 0016 054B     		ldr	r3, .L86+4
 633 0018 9042     		cmp	r0, r2
 634 001a 08BF     		it	eq
 635 001c 1846     		moveq	r0, r3
 636 001e 02B0     		add	sp, sp, #8
 637              		@ sp needed
 638 0020 10BD     		pop	{r4, pc}
 639              	.L84:
 640 0022 0348     		ldr	r0, .L86+8
 641 0024 02B0     		add	sp, sp, #8
 642              		@ sp needed
 643 0026 10BD     		pop	{r4, pc}
 644              	.L87:
 645              		.align	2
 646              	.L86:
 647 0028 00000000 		.word	_ZN10Kinematics23StandardHomingFileNamesE
 648 002c 10000000 		.word	.LC3
 649 0030 00000000 		.word	.LC2
 650              		.size	_ZNK15PolarKinematics17GetHomingFileNameEmmjRm, .-_ZNK15PolarKinematics17GetHomingFileNameEm
 651              		.section	.text._ZNK15PolarKinematics25LimitSpeedAndAccelerationER3DDAPKf,"ax",%progbits
 652              		.align	1
 653              		.p2align 2,,3
 654              		.global	_ZNK15PolarKinematics25LimitSpeedAndAccelerationER3DDAPKf
 655              		.syntax unified
 656              		.thumb
 657              		.thumb_func
 658              		.fpu softvfp
 659              		.type	_ZNK15PolarKinematics25LimitSpeedAndAccelerationER3DDAPKf, %function
 660              	_ZNK15PolarKinematics25LimitSpeedAndAccelerationER3DDAPKf:
 661              		@ args = 0, pretend = 0, frame = 0
 662              		@ frame_needed = 0, uses_anonymous_args = 0
 663 0000 4B68     		ldr	r3, [r1, #4]
 664 0002 2DE9F041 		push	{r4, r5, r6, r7, r8, lr}
 665 0006 0C6A     		ldr	r4, [r1, #32]
 666 0008 1F6A     		ldr	r7, [r3, #32]
 667 000a BC42     		cmp	r4, r7
 668 000c 25D0     		beq	.L88
 669 000e 144B     		ldr	r3, .L91
 670 0010 0646     		mov	r6, r0
 671 0012 1B68     		ldr	r3, [r3]	@ unaligned
 672 0014 0D46     		mov	r5, r1
 673 0016 D3F82801 		ldr	r0, [r3, #296]	@ float
 674 001a D1F88810 		ldr	r1, [r1, #136]	@ float
 675 001e FFF7FEFF 		bl	__aeabi_fmul
 676 0022 E41B     		subs	r4, r4, r7
 677 0024 8046     		mov	r8, r0
 678 0026 84EAE470 		eor	r0, r4, r4, asr #31
 679 002a A0EBE470 		sub	r0, r0, r4, asr #31
 680 002e FFF7FEFF 		bl	__aeabi_i2f
 681 0032 0146     		mov	r1, r0
 682 0034 4046     		mov	r0, r8
 683 0036 FFF7FEFF 		bl	__aeabi_fdiv
 684 003a 316A     		ldr	r1, [r6, #32]	@ float
ARM GAS  /tmp/ccBsCYjQ.s 			page 13


 685 003c 0746     		mov	r7, r0
 686 003e FFF7FEFF 		bl	__aeabi_fmul
 687 0042 F169     		ldr	r1, [r6, #28]	@ float
 688 0044 0446     		mov	r4, r0
 689 0046 3846     		mov	r0, r7
 690 0048 FFF7FEFF 		bl	__aeabi_fmul
 691 004c 2246     		mov	r2, r4
 692 004e 0146     		mov	r1, r0
 693 0050 2846     		mov	r0, r5
 694 0052 BDE8F041 		pop	{r4, r5, r6, r7, r8, lr}
 695 0056 FFF7FEBF 		b	_ZN3DDA25LimitSpeedAndAccelerationEff
 696              	.L88:
 697 005a BDE8F081 		pop	{r4, r5, r6, r7, r8, pc}
 698              	.L92:
 699 005e 00BF     		.align	2
 700              	.L91:
 701 0060 00000000 		.word	reprap
 702              		.size	_ZNK15PolarKinematics25LimitSpeedAndAccelerationER3DDAPKf, .-_ZNK15PolarKinematics25LimitSpe
 703              		.section	.text._ZN15PolarKinematicsD0Ev,"axG",%progbits,_ZN15PolarKinematicsD5Ev,comdat
 704              		.align	1
 705              		.p2align 2,,3
 706              		.weak	_ZN15PolarKinematicsD0Ev
 707              		.syntax unified
 708              		.thumb
 709              		.thumb_func
 710              		.fpu softvfp
 711              		.type	_ZN15PolarKinematicsD0Ev, %function
 712              	_ZN15PolarKinematicsD0Ev:
 713              		@ args = 0, pretend = 0, frame = 0
 714              		@ frame_needed = 0, uses_anonymous_args = 0
 715 0000 10B5     		push	{r4, lr}
 716 0002 0446     		mov	r4, r0
 717 0004 2C21     		movs	r1, #44
 718 0006 FFF7FEFF 		bl	_ZdlPvj
 719 000a 2046     		mov	r0, r4
 720 000c 10BD     		pop	{r4, pc}
 721              		.size	_ZN15PolarKinematicsD0Ev, .-_ZN15PolarKinematicsD0Ev
 722 000e 00BF     		.section	.text._ZNK15PolarKinematics23OnHomingSwitchTriggeredEjbPKfR3DDA,"ax",%progbits
 723              		.align	1
 724              		.p2align 2,,3
 725              		.global	_ZNK15PolarKinematics23OnHomingSwitchTriggeredEjbPKfR3DDA
 726              		.syntax unified
 727              		.thumb
 728              		.thumb_func
 729              		.fpu softvfp
 730              		.type	_ZNK15PolarKinematics23OnHomingSwitchTriggeredEjbPKfR3DDA, %function
 731              	_ZNK15PolarKinematics23OnHomingSwitchTriggeredEjbPKfR3DDA:
 732              		@ args = 4, pretend = 0, frame = 0
 733              		@ frame_needed = 0, uses_anonymous_args = 0
 734 0000 38B5     		push	{r3, r4, r5, lr}
 735 0002 049D     		ldr	r5, [sp, #16]
 736 0004 0C46     		mov	r4, r1
 737 0006 E9B1     		cbz	r1, .L97
 738 0008 0129     		cmp	r1, #1
 739 000a 06D1     		bne	.L105
 740 000c 0022     		movs	r2, #0
 741 000e AB7A     		ldrb	r3, [r5, #10]	@ zero_extendqisi2
ARM GAS  /tmp/ccBsCYjQ.s 			page 14


 742 0010 2A62     		str	r2, [r5, #32]
 743 0012 62F30003 		bfi	r3, r2, #0, #1
 744 0016 AB72     		strb	r3, [r5, #10]
 745 0018 38BD     		pop	{r3, r4, r5, pc}
 746              	.L105:
 747 001a FAB9     		cbnz	r2, .L106
 748 001c 134A     		ldr	r2, .L107
 749 001e 1268     		ldr	r2, [r2]
 750 0020 02EB8102 		add	r2, r2, r1, lsl #2
 751 0024 D2F85C04 		ldr	r0, [r2, #1116]	@ float
 752              	.L101:
 753 0028 53F82410 		ldr	r1, [r3, r4, lsl #2]	@ float
 754 002c FFF7FEFF 		bl	__aeabi_fmul
 755 0030 FFF7FEFF 		bl	lrintf
 756 0034 05EB8404 		add	r4, r5, r4, lsl #2
 757 0038 E061     		str	r0, [r4, #28]
 758 003a AB7A     		ldrb	r3, [r5, #10]	@ zero_extendqisi2
 759 003c 6FF30003 		bfc	r3, #0, #1
 760 0040 AB72     		strb	r3, [r5, #10]
 761 0042 38BD     		pop	{r3, r4, r5, pc}
 762              	.L97:
 763 0044 1968     		ldr	r1, [r3]	@ float
 764 0046 8069     		ldr	r0, [r0, #24]	@ float
 765 0048 FFF7FEFF 		bl	__aeabi_fmul
 766 004c FFF7FEFF 		bl	lrintf
 767 0050 AB7A     		ldrb	r3, [r5, #10]	@ zero_extendqisi2
 768 0052 E861     		str	r0, [r5, #28]
 769 0054 64F30003 		bfi	r3, r4, #0, #1
 770 0058 AB72     		strb	r3, [r5, #10]
 771 005a 38BD     		pop	{r3, r4, r5, pc}
 772              	.L106:
 773 005c 034A     		ldr	r2, .L107
 774 005e 1268     		ldr	r2, [r2]
 775 0060 02EB8102 		add	r2, r2, r1, lsl #2
 776 0064 D2F84404 		ldr	r0, [r2, #1092]	@ float
 777 0068 DEE7     		b	.L101
 778              	.L108:
 779 006a 00BF     		.align	2
 780              	.L107:
 781 006c 00000000 		.word	reprap
 782              		.size	_ZNK15PolarKinematics23OnHomingSwitchTriggeredEjbPKfR3DDA, .-_ZNK15PolarKinematics23OnHoming
 783              		.global	__aeabi_f2d
 784              		.global	__aeabi_f2iz
 785              		.section	.text._ZN15PolarKinematics9ConfigureEjR11GCodeBufferRK9StringRefRb,"ax",%progbits
 786              		.align	1
 787              		.p2align 2,,3
 788              		.global	_ZN15PolarKinematics9ConfigureEjR11GCodeBufferRK9StringRefRb
 789              		.syntax unified
 790              		.thumb
 791              		.thumb_func
 792              		.fpu softvfp
 793              		.type	_ZN15PolarKinematics9ConfigureEjR11GCodeBufferRK9StringRefRb, %function
 794              	_ZN15PolarKinematics9ConfigureEjR11GCodeBufferRK9StringRefRb:
 795              		@ args = 4, pretend = 0, frame = 16
 796              		@ frame_needed = 0, uses_anonymous_args = 0
 797 0000 2DE9F043 		push	{r4, r5, r6, r7, r8, r9, lr}
 798 0004 40F29D26 		movw	r6, #669
ARM GAS  /tmp/ccBsCYjQ.s 			page 15


 799 0008 B142     		cmp	r1, r6
 800 000a 8DB0     		sub	sp, sp, #52
 801 000c 08D0     		beq	.L126
 802 000e 149C     		ldr	r4, [sp, #80]
 803 0010 0094     		str	r4, [sp]
 804 0012 FFF7FEFF 		bl	_ZN10Kinematics9ConfigureEjR11GCodeBufferRK9StringRefRb
 805 0016 0646     		mov	r6, r0
 806              	.L119:
 807 0018 3046     		mov	r0, r6
 808 001a 0DB0     		add	sp, sp, #52
 809              		@ sp needed
 810 001c BDE8F083 		pop	{r4, r5, r6, r7, r8, r9, pc}
 811              	.L126:
 812 0020 4FF00008 		mov	r8, #0
 813 0024 1546     		mov	r5, r2
 814 0026 0446     		mov	r4, r0
 815 0028 0CAE     		add	r6, sp, #48
 816 002a 06F80E8D 		strb	r8, [r6, #-14]!
 817 002e 021D     		adds	r2, r0, #4
 818 0030 5321     		movs	r1, #83
 819 0032 2846     		mov	r0, r5
 820 0034 1F46     		mov	r7, r3
 821 0036 3346     		mov	r3, r6
 822 0038 FFF7FEFF 		bl	_ZN11GCodeBuffer12TryGetFValueEcRfRb
 823 003c 5421     		movs	r1, #84
 824 003e 2846     		mov	r0, r5
 825 0040 3346     		mov	r3, r6
 826 0042 04F10802 		add	r2, r4, #8
 827 0046 FFF7FEFF 		bl	_ZN11GCodeBuffer12TryGetFValueEcRfRb
 828 004a 5221     		movs	r1, #82
 829 004c 2846     		mov	r0, r5
 830 004e 8DF82380 		strb	r8, [sp, #35]
 831 0052 FFF7FEFF 		bl	_ZN11GCodeBuffer4SeenEc
 832 0056 0028     		cmp	r0, #0
 833 0058 57D1     		bne	.L127
 834              	.L111:
 835 005a 0DF12303 		add	r3, sp, #35
 836 005e 04F11802 		add	r2, r4, #24
 837 0062 4821     		movs	r1, #72
 838 0064 2846     		mov	r0, r5
 839 0066 FFF7FEFF 		bl	_ZN11GCodeBuffer12TryGetFValueEcRfRb
 840 006a 3346     		mov	r3, r6
 841 006c 04F12002 		add	r2, r4, #32
 842 0070 4121     		movs	r1, #65
 843 0072 2846     		mov	r0, r5
 844 0074 FFF7FEFF 		bl	_ZN11GCodeBuffer12TryGetFValueEcRfRb
 845 0078 3346     		mov	r3, r6
 846 007a 04F11C02 		add	r2, r4, #28
 847 007e 4621     		movs	r1, #70
 848 0080 2846     		mov	r0, r5
 849 0082 FFF7FEFF 		bl	_ZN11GCodeBuffer12TryGetFValueEcRfRb
 850 0086 9DF82360 		ldrb	r6, [sp, #35]	@ zero_extendqisi2
 851 008a A6B1     		cbz	r6, .L128
 852              	.L114:
 853 008c 2569     		ldr	r5, [r4, #16]	@ float
 854 008e 0021     		movs	r1, #0
 855 0090 2846     		mov	r0, r5
ARM GAS  /tmp/ccBsCYjQ.s 			page 16


 856 0092 FFF7FEFF 		bl	__aeabi_fcmple
 857 0096 0028     		cmp	r0, #0
 858 0098 4ED1     		bne	.L120
 859 009a 2946     		mov	r1, r5
 860 009c 2846     		mov	r0, r5
 861 009e FFF7FEFF 		bl	__aeabi_fmul
 862              	.L116:
 863 00a2 6169     		ldr	r1, [r4, #20]	@ float
 864 00a4 6062     		str	r0, [r4, #36]	@ float
 865 00a6 0846     		mov	r0, r1
 866 00a8 FFF7FEFF 		bl	__aeabi_fmul
 867 00ac A062     		str	r0, [r4, #40]	@ float
 868 00ae 3046     		mov	r0, r6
 869 00b0 0DB0     		add	sp, sp, #52
 870              		@ sp needed
 871 00b2 BDE8F083 		pop	{r4, r5, r6, r7, r8, r9, pc}
 872              	.L128:
 873 00b6 9DF82230 		ldrb	r3, [sp, #34]	@ zero_extendqisi2
 874 00ba 002B     		cmp	r3, #0
 875 00bc E6D1     		bne	.L114
 876 00be 2846     		mov	r0, r5
 877 00c0 4B21     		movs	r1, #75
 878 00c2 FFF7FEFF 		bl	_ZN11GCodeBuffer4SeenEc
 879 00c6 E8B9     		cbnz	r0, .L125
 880 00c8 2069     		ldr	r0, [r4, #16]	@ float
 881 00ca FFF7FEFF 		bl	__aeabi_f2d
 882 00ce 8046     		mov	r8, r0
 883 00d0 A068     		ldr	r0, [r4, #8]	@ float
 884 00d2 8946     		mov	r9, r1
 885 00d4 FFF7FEFF 		bl	__aeabi_f2d
 886 00d8 CDE90601 		strd	r0, [sp, #24]
 887 00dc 6068     		ldr	r0, [r4, #4]	@ float
 888 00de FFF7FEFF 		bl	__aeabi_f2iz
 889 00e2 0490     		str	r0, [sp, #16]
 890 00e4 A069     		ldr	r0, [r4, #24]	@ float
 891 00e6 FFF7FEFF 		bl	__aeabi_f2d
 892 00ea CDE90201 		strd	r0, [sp, #8]
 893 00ee 6069     		ldr	r0, [r4, #20]	@ float
 894 00f0 FFF7FEFF 		bl	__aeabi_f2d
 895 00f4 4246     		mov	r2, r8
 896 00f6 CDE90001 		strd	r0, [sp]
 897 00fa 4B46     		mov	r3, r9
 898 00fc 3846     		mov	r0, r7
 899 00fe 1249     		ldr	r1, .L130
 900 0100 FFF7FEFF 		bl	_ZNK9StringRef6printfEPKcz
 901              	.L125:
 902 0104 9DF82360 		ldrb	r6, [sp, #35]	@ zero_extendqisi2
 903 0108 86E7     		b	.L119
 904              	.L127:
 905 010a 0223     		movs	r3, #2
 906 010c 4FF0010E 		mov	lr, #1
 907 0110 0CAA     		add	r2, sp, #48
 908 0112 42F80C3D 		str	r3, [r2, #-12]!
 909 0116 0AA9     		add	r1, sp, #40
 910 0118 4346     		mov	r3, r8
 911 011a 2846     		mov	r0, r5
 912 011c 8DF823E0 		strb	lr, [sp, #35]
ARM GAS  /tmp/ccBsCYjQ.s 			page 17


 913 0120 FFF7FEFF 		bl	_ZN11GCodeBuffer13GetFloatArrayEPfRjb
 914 0124 099B     		ldr	r3, [sp, #36]
 915 0126 022B     		cmp	r3, #2
 916 0128 08D0     		beq	.L129
 917 012a 0022     		movs	r2, #0
 918 012c 1346     		mov	r3, r2
 919 012e 0A99     		ldr	r1, [sp, #40]	@ float
 920 0130 2261     		str	r2, [r4, #16]	@ float
 921 0132 6161     		str	r1, [r4, #20]	@ float
 922              	.L113:
 923 0134 A361     		str	r3, [r4, #24]	@ float
 924 0136 90E7     		b	.L111
 925              	.L120:
 926 0138 0020     		movs	r0, #0
 927 013a B2E7     		b	.L116
 928              	.L129:
 929 013c 0A9B     		ldr	r3, [sp, #40]	@ float
 930 013e 0B9A     		ldr	r2, [sp, #44]	@ float
 931 0140 2361     		str	r3, [r4, #16]	@ float
 932 0142 6261     		str	r2, [r4, #20]	@ float
 933 0144 F6E7     		b	.L113
 934              	.L131:
 935 0146 00BF     		.align	2
 936              	.L130:
 937 0148 00000000 		.word	.LC4
 938              		.size	_ZN15PolarKinematics9ConfigureEjR11GCodeBufferRK9StringRefRb, .-_ZN15PolarKinematics9Configu
 939              		.section	.text._ZN15PolarKinematicsC2Ev,"ax",%progbits
 940              		.align	1
 941              		.p2align 2,,3
 942              		.global	_ZN15PolarKinematicsC2Ev
 943              		.syntax unified
 944              		.thumb
 945              		.thumb_func
 946              		.fpu softvfp
 947              		.type	_ZN15PolarKinematicsC2Ev, %function
 948              	_ZN15PolarKinematicsC2Ev:
 949              		@ args = 0, pretend = 0, frame = 0
 950              		@ frame_needed = 0, uses_anonymous_args = 0
 951 0000 0123     		movs	r3, #1
 952 0002 30B5     		push	{r4, r5, lr}
 953 0004 0446     		mov	r4, r0
 954 0006 83B0     		sub	sp, sp, #12
 955 0008 0093     		str	r3, [sp]
 956 000a 0A4A     		ldr	r2, .L134
 957 000c 0A4B     		ldr	r3, .L134+4
 958 000e 0721     		movs	r1, #7
 959 0010 FFF7FEFF 		bl	_ZN10KinematicsC2E14KinematicsTypeffb
 960 0014 0948     		ldr	r0, .L134+8
 961 0016 0023     		movs	r3, #0
 962 0018 6061     		str	r0, [r4, #20]	@ float
 963 001a 2046     		mov	r0, r4
 964 001c 084A     		ldr	r2, .L134+12
 965 001e 094D     		ldr	r5, .L134+16
 966 0020 0949     		ldr	r1, .L134+20
 967 0022 2560     		str	r5, [r4]
 968 0024 A162     		str	r1, [r4, #40]	@ float
 969 0026 2361     		str	r3, [r4, #16]	@ float
ARM GAS  /tmp/ccBsCYjQ.s 			page 18


 970 0028 A361     		str	r3, [r4, #24]	@ float
 971 002a 6362     		str	r3, [r4, #36]	@ float
 972 002c E261     		str	r2, [r4, #28]	@ float
 973 002e 2262     		str	r2, [r4, #32]	@ float
 974 0030 03B0     		add	sp, sp, #12
 975              		@ sp needed
 976 0032 30BD     		pop	{r4, r5, pc}
 977              	.L135:
 978              		.align	2
 979              	.L134:
 980 0034 0000C842 		.word	1120403456
 981 0038 CDCC4C3E 		.word	1045220557
 982 003c 00001643 		.word	1125515264
 983 0040 0000F041 		.word	1106247680
 984 0044 08000000 		.word	.LANCHOR0+8
 985 0048 00C8AF46 		.word	1185925120
 986              		.size	_ZN15PolarKinematicsC2Ev, .-_ZN15PolarKinematicsC2Ev
 987              		.global	_ZN15PolarKinematicsC1Ev
 988              		.thumb_set _ZN15PolarKinematicsC1Ev,_ZN15PolarKinematicsC2Ev
 989              		.section	.text._ZN15PolarKinematics6RecalcEv,"ax",%progbits
 990              		.align	1
 991              		.p2align 2,,3
 992              		.global	_ZN15PolarKinematics6RecalcEv
 993              		.syntax unified
 994              		.thumb
 995              		.thumb_func
 996              		.fpu softvfp
 997              		.type	_ZN15PolarKinematics6RecalcEv, %function
 998              	_ZN15PolarKinematics6RecalcEv:
 999              		@ args = 0, pretend = 0, frame = 0
 1000              		@ frame_needed = 0, uses_anonymous_args = 0
 1001 0000 38B5     		push	{r3, r4, r5, lr}
 1002 0002 0569     		ldr	r5, [r0, #16]	@ float
 1003 0004 0446     		mov	r4, r0
 1004 0006 0021     		movs	r1, #0
 1005 0008 2846     		mov	r0, r5
 1006 000a FFF7FEFF 		bl	__aeabi_fcmple
 1007 000e 50B9     		cbnz	r0, .L138
 1008 0010 2946     		mov	r1, r5
 1009 0012 2846     		mov	r0, r5
 1010 0014 FFF7FEFF 		bl	__aeabi_fmul
 1011              	.L137:
 1012 0018 6169     		ldr	r1, [r4, #20]	@ float
 1013 001a 6062     		str	r0, [r4, #36]	@ float
 1014 001c 0846     		mov	r0, r1
 1015 001e FFF7FEFF 		bl	__aeabi_fmul
 1016 0022 A062     		str	r0, [r4, #40]	@ float
 1017 0024 38BD     		pop	{r3, r4, r5, pc}
 1018              	.L138:
 1019 0026 0020     		movs	r0, #0
 1020 0028 F6E7     		b	.L137
 1021              		.size	_ZN15PolarKinematics6RecalcEv, .-_ZN15PolarKinematics6RecalcEv
 1022              		.global	_ZTV15PolarKinematics
 1023 002a 00BF     		.section	.bss._ZL28cpu_irq_prev_interrupt_state,"aw",%nobits
 1024              		.type	_ZL28cpu_irq_prev_interrupt_state, %object
 1025              		.size	_ZL28cpu_irq_prev_interrupt_state, 1
 1026              	_ZL28cpu_irq_prev_interrupt_state:
ARM GAS  /tmp/ccBsCYjQ.s 			page 19


 1027 0000 00       		.space	1
 1028              		.section	.bss._ZL32cpu_irq_critical_section_counter,"aw",%nobits
 1029              		.align	2
 1030              		.type	_ZL32cpu_irq_critical_section_counter, %object
 1031              		.size	_ZL32cpu_irq_critical_section_counter, 4
 1032              	_ZL32cpu_irq_critical_section_counter:
 1033 0000 00000000 		.space	4
 1034              		.section	.bss._ZN9RTOSIfaceL31interruptCriticalSectionNestingE,"aw",%nobits
 1035              		.align	2
 1036              		.type	_ZN9RTOSIfaceL31interruptCriticalSectionNestingE, %object
 1037              		.size	_ZN9RTOSIfaceL31interruptCriticalSectionNestingE, 4
 1038              	_ZN9RTOSIfaceL31interruptCriticalSectionNestingE:
 1039 0000 00000000 		.space	4
 1040              		.section	.rodata._ZN15PolarKinematics9ConfigureEjR11GCodeBufferRK9StringRefRb.str1.4,"aMS",%progbi
 1041              		.align	2
 1042              	.LC4:
 1043 0000 4B696E65 		.ascii	"Kinematics is Polar with radius %.1f to %.1fmm, hom"
 1043      6D617469 
 1043      63732069 
 1043      7320506F 
 1043      6C617220 
 1044 0033 65642072 		.ascii	"ed radius %.1fmm, segments/sec %d, min. segment len"
 1044      61646975 
 1044      7320252E 
 1044      31666D6D 
 1044      2C207365 
 1045 0066 67746820 		.ascii	"gth %.2f\000"
 1045      252E3266 
 1045      00
 1046              		.section	.rodata._ZNK15PolarKinematics17GetHomingFileNameEmmjRm.str1.4,"aMS",%progbits,1
 1047              		.align	2
 1048              	.LC2:
 1049 0000 686F6D65 		.ascii	"homeradius.g\000"
 1049      72616469 
 1049      75732E67 
 1049      00
 1050 000d 000000   		.space	3
 1051              	.LC3:
 1052 0010 686F6D65 		.ascii	"homebed.g\000"
 1052      6265642E 
 1052      6700
 1053              		.section	.rodata._ZNK15PolarKinematics17HomingButtonNamesEv.str1.4,"aMS",%progbits,1
 1054              		.align	2
 1055              	.LC0:
 1056 0000 52545A55 		.ascii	"RTZUVWABC\000"
 1056      56574142 
 1056      4300
 1057              		.section	.rodata._ZNK15PolarKinematics7GetNameEb.str1.4,"aMS",%progbits,1
 1058              		.align	2
 1059              	.LC1:
 1060 0000 506F6C61 		.ascii	"Polar\000"
 1060      7200
 1061              		.section	.rodata._ZTV15PolarKinematics,"a",%progbits
 1062              		.align	2
 1063              		.set	.LANCHOR0,. + 0
 1064              		.type	_ZTV15PolarKinematics, %object
 1065              		.size	_ZTV15PolarKinematics, 116
ARM GAS  /tmp/ccBsCYjQ.s 			page 20


 1066              	_ZTV15PolarKinematics:
 1067 0000 00000000 		.word	0
 1068 0004 00000000 		.word	0
 1069 0008 00000000 		.word	_ZNK15PolarKinematics7GetNameEb
 1070 000c 00000000 		.word	_ZN15PolarKinematics9ConfigureEjR11GCodeBufferRK9StringRefRb
 1071 0010 00000000 		.word	_ZNK15PolarKinematics21CartesianToMotorStepsEPKfS1_jjPlb
 1072 0014 00000000 		.word	_ZNK15PolarKinematics21MotorStepsToCartesianEPKlPKfjjPf
 1073 0018 00000000 		.word	_ZNK10Kinematics23SupportsAutoCalibrationEv
 1074 001c 00000000 		.word	_ZN10Kinematics17DoAutoCalibrationEjRK19RandomProbePointSetRK9StringRef
 1075 0020 00000000 		.word	_ZN10Kinematics22SetCalibrationDefaultsEv
 1076 0024 00000000 		.word	_ZNK10Kinematics26WriteCalibrationParametersEP9FileStore
 1077 0028 00000000 		.word	_ZNK10Kinematics17GetTiltCorrectionEj
 1078 002c 00000000 		.word	_ZNK15PolarKinematics11IsReachableEffb
 1079 0030 00000000 		.word	_ZNK15PolarKinematics13LimitPositionEPfjmb
 1080 0034 00000000 		.word	_ZNK10Kinematics23AxesToHomeBeforeProbingEv
 1081 0038 00000000 		.word	_ZNK15PolarKinematics25GetAssumedInitialPositionEjPf
 1082 003c 00000000 		.word	_ZNK10Kinematics13GetMotionTypeEj
 1083 0040 00000000 		.word	_ZNK10Kinematics16NumHomingButtonsEj
 1084 0044 00000000 		.word	_ZNK15PolarKinematics17HomingButtonNamesEv
 1085 0048 00000000 		.word	_ZNK15PolarKinematics17GetHomingFileNameEmmjRm
 1086 004c 00000000 		.word	_ZNK15PolarKinematics24QueryTerminateHomingMoveEj
 1087 0050 00000000 		.word	_ZNK15PolarKinematics23OnHomingSwitchTriggeredEjbPKfR3DDA
 1088 0054 00000000 		.word	_ZNK15PolarKinematics13GetHomingModeEv
 1089 0058 00000000 		.word	_ZNK15PolarKinematics16AxesAssumedHomedEm
 1090 005c 00000000 		.word	_ZNK15PolarKinematics15MustBeHomedAxesEmb
 1091 0060 00000000 		.word	_ZNK10Kinematics19WriteResumeSettingsEP9FileStore
 1092 0064 00000000 		.word	_ZNK15PolarKinematics25LimitSpeedAndAccelerationER3DDAPKf
 1093 0068 00000000 		.word	_ZNK15PolarKinematics24IsContinuousRotationAxisEj
 1094 006c 00000000 		.word	_ZN15PolarKinematicsD1Ev
 1095 0070 00000000 		.word	_ZN15PolarKinematicsD0Ev
 1096              		.ident	"GCC: (15:6.3.1+svn253039-1build1) 6.3.1 20170620"
