ARM GAS  /tmp/ccFtFbC6.s 			page 1


   1              		.cpu cortex-m7
   2              		.eabi_attribute 28, 1
   3              		.eabi_attribute 20, 1
   4              		.eabi_attribute 21, 1
   5              		.eabi_attribute 23, 3
   6              		.eabi_attribute 24, 1
   7              		.eabi_attribute 25, 1
   8              		.eabi_attribute 26, 1
   9              		.eabi_attribute 30, 2
  10              		.eabi_attribute 34, 1
  11              		.eabi_attribute 18, 4
  12              		.file	"chipid.c"
  13              		.text
  14              	.Ltext0:
  15              		.cfi_sections	.debug_frame
  16              		.section	.text.chipid_read,"ax",%progbits
  17              		.align	1
  18              		.p2align 2,,3
  19              		.global	chipid_read
  20              		.syntax unified
  21              		.thumb
  22              		.thumb_func
  23              		.fpu fpv5-d16
  24              		.type	chipid_read, %function
  25              	chipid_read:
  26              	.LFB142:
  27              		.file 1 "../asf/sam/drivers/chipid/chipid.c"
   1:../asf/sam/drivers/chipid/chipid.c **** /**
   2:../asf/sam/drivers/chipid/chipid.c ****  * \file
   3:../asf/sam/drivers/chipid/chipid.c ****  *
   4:../asf/sam/drivers/chipid/chipid.c ****  * \brief Chip Identifier (CHIPID) driver for SAM.
   5:../asf/sam/drivers/chipid/chipid.c ****  *
   6:../asf/sam/drivers/chipid/chipid.c ****  * Copyright (c) 2011-2015 Atmel Corporation. All rights reserved.
   7:../asf/sam/drivers/chipid/chipid.c ****  *
   8:../asf/sam/drivers/chipid/chipid.c ****  * \asf_license_start
   9:../asf/sam/drivers/chipid/chipid.c ****  *
  10:../asf/sam/drivers/chipid/chipid.c ****  * \page License
  11:../asf/sam/drivers/chipid/chipid.c ****  *
  12:../asf/sam/drivers/chipid/chipid.c ****  * Redistribution and use in source and binary forms, with or without
  13:../asf/sam/drivers/chipid/chipid.c ****  * modification, are permitted provided that the following conditions are met:
  14:../asf/sam/drivers/chipid/chipid.c ****  *
  15:../asf/sam/drivers/chipid/chipid.c ****  * 1. Redistributions of source code must retain the above copyright notice,
  16:../asf/sam/drivers/chipid/chipid.c ****  *    this list of conditions and the following disclaimer.
  17:../asf/sam/drivers/chipid/chipid.c ****  *
  18:../asf/sam/drivers/chipid/chipid.c ****  * 2. Redistributions in binary form must reproduce the above copyright notice,
  19:../asf/sam/drivers/chipid/chipid.c ****  *    this list of conditions and the following disclaimer in the documentation
  20:../asf/sam/drivers/chipid/chipid.c ****  *    and/or other materials provided with the distribution.
  21:../asf/sam/drivers/chipid/chipid.c ****  *
  22:../asf/sam/drivers/chipid/chipid.c ****  * 3. The name of Atmel may not be used to endorse or promote products derived
  23:../asf/sam/drivers/chipid/chipid.c ****  *    from this software without specific prior written permission.
  24:../asf/sam/drivers/chipid/chipid.c ****  *
  25:../asf/sam/drivers/chipid/chipid.c ****  * 4. This software may only be redistributed and used in connection with an
  26:../asf/sam/drivers/chipid/chipid.c ****  *    Atmel microcontroller product.
  27:../asf/sam/drivers/chipid/chipid.c ****  *
  28:../asf/sam/drivers/chipid/chipid.c ****  * THIS SOFTWARE IS PROVIDED BY ATMEL "AS IS" AND ANY EXPRESS OR IMPLIED
  29:../asf/sam/drivers/chipid/chipid.c ****  * WARRANTIES, INCLUDING, BUT NOT LIMITED TO, THE IMPLIED WARRANTIES OF
  30:../asf/sam/drivers/chipid/chipid.c ****  * MERCHANTABILITY, FITNESS FOR A PARTICULAR PURPOSE AND NON-INFRINGEMENT ARE
ARM GAS  /tmp/ccFtFbC6.s 			page 2


  31:../asf/sam/drivers/chipid/chipid.c ****  * EXPRESSLY AND SPECIFICALLY DISCLAIMED. IN NO EVENT SHALL ATMEL BE LIABLE FOR
  32:../asf/sam/drivers/chipid/chipid.c ****  * ANY DIRECT, INDIRECT, INCIDENTAL, SPECIAL, EXEMPLARY, OR CONSEQUENTIAL
  33:../asf/sam/drivers/chipid/chipid.c ****  * DAMAGES (INCLUDING, BUT NOT LIMITED TO, PROCUREMENT OF SUBSTITUTE GOODS
  34:../asf/sam/drivers/chipid/chipid.c ****  * OR SERVICES; LOSS OF USE, DATA, OR PROFITS; OR BUSINESS INTERRUPTION)
  35:../asf/sam/drivers/chipid/chipid.c ****  * HOWEVER CAUSED AND ON ANY THEORY OF LIABILITY, WHETHER IN CONTRACT,
  36:../asf/sam/drivers/chipid/chipid.c ****  * STRICT LIABILITY, OR TORT (INCLUDING NEGLIGENCE OR OTHERWISE) ARISING IN
  37:../asf/sam/drivers/chipid/chipid.c ****  * ANY WAY OUT OF THE USE OF THIS SOFTWARE, EVEN IF ADVISED OF THE
  38:../asf/sam/drivers/chipid/chipid.c ****  * POSSIBILITY OF SUCH DAMAGE.
  39:../asf/sam/drivers/chipid/chipid.c ****  *
  40:../asf/sam/drivers/chipid/chipid.c ****  * \asf_license_stop
  41:../asf/sam/drivers/chipid/chipid.c ****  *
  42:../asf/sam/drivers/chipid/chipid.c ****  */
  43:../asf/sam/drivers/chipid/chipid.c **** /*
  44:../asf/sam/drivers/chipid/chipid.c ****  * Support and FAQ: visit <a href="http://www.atmel.com/design-support/">Atmel Support</a>
  45:../asf/sam/drivers/chipid/chipid.c ****  */
  46:../asf/sam/drivers/chipid/chipid.c **** 
  47:../asf/sam/drivers/chipid/chipid.c **** #include "chipid.h"
  48:../asf/sam/drivers/chipid/chipid.c **** 
  49:../asf/sam/drivers/chipid/chipid.c **** /// @cond 0
  50:../asf/sam/drivers/chipid/chipid.c **** /**INDENT-OFF**/
  51:../asf/sam/drivers/chipid/chipid.c **** #ifdef __cplusplus
  52:../asf/sam/drivers/chipid/chipid.c **** extern "C" {
  53:../asf/sam/drivers/chipid/chipid.c **** #endif
  54:../asf/sam/drivers/chipid/chipid.c **** /**INDENT-ON**/
  55:../asf/sam/drivers/chipid/chipid.c **** /// @endcond
  56:../asf/sam/drivers/chipid/chipid.c **** 
  57:../asf/sam/drivers/chipid/chipid.c **** /**
  58:../asf/sam/drivers/chipid/chipid.c ****  * \defgroup sam_drivers_chipid_group Chip Identifier (CHIPID)
  59:../asf/sam/drivers/chipid/chipid.c ****  *
  60:../asf/sam/drivers/chipid/chipid.c ****  * \par Purpose
  61:../asf/sam/drivers/chipid/chipid.c ****  *
  62:../asf/sam/drivers/chipid/chipid.c ****  * Driver for the Chip Identifier. This driver provides access to the main 
  63:../asf/sam/drivers/chipid/chipid.c ****  * features of the CHIPID.
  64:../asf/sam/drivers/chipid/chipid.c ****  *
  65:../asf/sam/drivers/chipid/chipid.c ****  * \par Usage
  66:../asf/sam/drivers/chipid/chipid.c ****  *
  67:../asf/sam/drivers/chipid/chipid.c ****  * -# Read whole Chip ID information to a struct using \ref chipid_read().
  68:../asf/sam/drivers/chipid/chipid.c ****  *    The read data is defined using \ref chipid_data_t.
  69:../asf/sam/drivers/chipid/chipid.c ****  * -# Read Chip ID fields using following functions:
  70:../asf/sam/drivers/chipid/chipid.c ****  *    - Device version: \ref chipid_read_version();
  71:../asf/sam/drivers/chipid/chipid.c ****  *    - Embedded processor: \ref chipid_read_processor();
  72:../asf/sam/drivers/chipid/chipid.c ****  *    - Non volatile program memory size: \ref chipid_read_sramsize();
  73:../asf/sam/drivers/chipid/chipid.c ****  *    - Second non volatile program memory size: \ref chipid_read_nvpm2size();
  74:../asf/sam/drivers/chipid/chipid.c ****  *    - Internal SRAM size: \ref chipid_read_sramsize();
  75:../asf/sam/drivers/chipid/chipid.c ****  *    - Architecture Identifier: \ref chipid_read_arch();
  76:../asf/sam/drivers/chipid/chipid.c ****  *    - Non volatile program memory type: \ref chipid_read_nvpmtype();
  77:../asf/sam/drivers/chipid/chipid.c ****  *    - Extension flag: \ref chipid_read_extchipid().
  78:../asf/sam/drivers/chipid/chipid.c ****  *
  79:../asf/sam/drivers/chipid/chipid.c ****  * \section dependencies Dependencies
  80:../asf/sam/drivers/chipid/chipid.c ****  * This driver does not depend on other modules.
  81:../asf/sam/drivers/chipid/chipid.c ****  *
  82:../asf/sam/drivers/chipid/chipid.c ****  * @{
  83:../asf/sam/drivers/chipid/chipid.c ****  */
  84:../asf/sam/drivers/chipid/chipid.c **** 
  85:../asf/sam/drivers/chipid/chipid.c **** /**
  86:../asf/sam/drivers/chipid/chipid.c ****  * \brief Get chip identifier information.
  87:../asf/sam/drivers/chipid/chipid.c ****  *
ARM GAS  /tmp/ccFtFbC6.s 			page 3


  88:../asf/sam/drivers/chipid/chipid.c ****  * \param p_chipid Pointer to a CHIPID instance.
  89:../asf/sam/drivers/chipid/chipid.c ****  * \param p_chipid_data Pointer to a data structure to store chip information.
  90:../asf/sam/drivers/chipid/chipid.c ****  *
  91:../asf/sam/drivers/chipid/chipid.c ****  * \return 0 on success.
  92:../asf/sam/drivers/chipid/chipid.c ****  */
  93:../asf/sam/drivers/chipid/chipid.c **** uint32_t chipid_read(Chipid *p_chipid, chipid_data_t *p_chipid_data)
  94:../asf/sam/drivers/chipid/chipid.c **** {
  28              		.loc 1 94 0
  29              		.cfi_startproc
  30              		@ args = 0, pretend = 0, frame = 0
  31              		@ frame_needed = 0, uses_anonymous_args = 0
  32              		@ link register save eliminated.
  33              	.LVL0:
  95:../asf/sam/drivers/chipid/chipid.c **** 	if (NULL == p_chipid_data) {
  34              		.loc 1 95 0
  35 0000 61B3     		cbz	r1, .L3
  94:../asf/sam/drivers/chipid/chipid.c **** 	if (NULL == p_chipid_data) {
  36              		.loc 1 94 0
  37 0002 2DE9F001 		push	{r4, r5, r6, r7, r8}
  38              		.cfi_def_cfa_offset 20
  39              		.cfi_offset 4, -20
  40              		.cfi_offset 5, -16
  41              		.cfi_offset 6, -12
  42              		.cfi_offset 7, -8
  43              		.cfi_offset 8, -4
  96:../asf/sam/drivers/chipid/chipid.c **** 		return 0xFFFFFFFF;
  97:../asf/sam/drivers/chipid/chipid.c **** 	}
  98:../asf/sam/drivers/chipid/chipid.c **** 	
  99:../asf/sam/drivers/chipid/chipid.c **** 	p_chipid_data->ul_version =
 100:../asf/sam/drivers/chipid/chipid.c **** 		(p_chipid->CHIPID_CIDR & CHIPID_CIDR_VERSION_Msk) >>
  44              		.loc 1 100 0
  45 0006 0568     		ldr	r5, [r0]
 101:../asf/sam/drivers/chipid/chipid.c **** 			CHIPID_CIDR_VERSION_Pos;
 102:../asf/sam/drivers/chipid/chipid.c **** 	p_chipid_data->ul_eproc =
 103:../asf/sam/drivers/chipid/chipid.c **** 		(p_chipid->CHIPID_CIDR & CHIPID_CIDR_EPROC_Msk) >>
 104:../asf/sam/drivers/chipid/chipid.c **** 			CHIPID_CIDR_EPROC_Pos;
 105:../asf/sam/drivers/chipid/chipid.c **** 	p_chipid_data->ul_nvpsiz =
 106:../asf/sam/drivers/chipid/chipid.c **** 		(p_chipid->CHIPID_CIDR & CHIPID_CIDR_NVPSIZ_Msk) >>
 107:../asf/sam/drivers/chipid/chipid.c **** 			CHIPID_CIDR_NVPSIZ_Pos;
 108:../asf/sam/drivers/chipid/chipid.c **** 	p_chipid_data->ul_nvpsiz2 =
  46              		.loc 1 108 0
  47 0008 0024     		movs	r4, #0
 103:../asf/sam/drivers/chipid/chipid.c **** 			CHIPID_CIDR_EPROC_Pos;
  48              		.loc 1 103 0
  49 000a 0268     		ldr	r2, [r0]
 100:../asf/sam/drivers/chipid/chipid.c **** 			CHIPID_CIDR_VERSION_Pos;
  50              		.loc 1 100 0
  51 000c 05F01F08 		and	r8, r5, #31
 106:../asf/sam/drivers/chipid/chipid.c **** 			CHIPID_CIDR_NVPSIZ_Pos;
  52              		.loc 1 106 0
  53 0010 0368     		ldr	r3, [r0]
 103:../asf/sam/drivers/chipid/chipid.c **** 			CHIPID_CIDR_EPROC_Pos;
  54              		.loc 1 103 0
  55 0012 C2F3421C 		ubfx	ip, r2, #5, #3
 109:../asf/sam/drivers/chipid/chipid.c **** 		(p_chipid->CHIPID_CIDR & CHIPID_CIDR_NVPSIZ2_Pos) >>
  56              		.loc 1 109 0
  57 0016 0568     		ldr	r5, [r0]
ARM GAS  /tmp/ccFtFbC6.s 			page 4


 110:../asf/sam/drivers/chipid/chipid.c **** 			CHIPID_CIDR_NVPSIZ2_Pos;
 111:../asf/sam/drivers/chipid/chipid.c **** 	p_chipid_data->ul_sramsiz =
 112:../asf/sam/drivers/chipid/chipid.c **** 		(p_chipid->CHIPID_CIDR & CHIPID_CIDR_SRAMSIZ_Msk) >>
  58              		.loc 1 112 0
  59 0018 0768     		ldr	r7, [r0]
 106:../asf/sam/drivers/chipid/chipid.c **** 			CHIPID_CIDR_NVPSIZ_Pos;
  60              		.loc 1 106 0
  61 001a C3F30323 		ubfx	r3, r3, #8, #4
 113:../asf/sam/drivers/chipid/chipid.c **** 			CHIPID_CIDR_SRAMSIZ_Pos;
 114:../asf/sam/drivers/chipid/chipid.c **** 	p_chipid_data->ul_arch =
 115:../asf/sam/drivers/chipid/chipid.c **** 		(p_chipid->CHIPID_CIDR & CHIPID_CIDR_ARCH_Msk) >>
  62              		.loc 1 115 0
  63 001e 0668     		ldr	r6, [r0]
 116:../asf/sam/drivers/chipid/chipid.c **** 			CHIPID_CIDR_ARCH_Pos;
 117:../asf/sam/drivers/chipid/chipid.c **** 	p_chipid_data->ul_nvptyp =
 118:../asf/sam/drivers/chipid/chipid.c **** 		(p_chipid->CHIPID_CIDR & CHIPID_CIDR_NVPTYP_Msk) >>
  64              		.loc 1 118 0
  65 0020 0568     		ldr	r5, [r0]
 112:../asf/sam/drivers/chipid/chipid.c **** 			CHIPID_CIDR_SRAMSIZ_Pos;
  66              		.loc 1 112 0
  67 0022 C7F30347 		ubfx	r7, r7, #16, #4
 119:../asf/sam/drivers/chipid/chipid.c **** 			CHIPID_CIDR_NVPTYP_Pos;
 120:../asf/sam/drivers/chipid/chipid.c **** 	p_chipid_data->ul_extflag =
 121:../asf/sam/drivers/chipid/chipid.c **** 		(p_chipid->CHIPID_CIDR & CHIPID_CIDR_EXT) >> 31;
  68              		.loc 1 121 0
  69 0026 0268     		ldr	r2, [r0]
 115:../asf/sam/drivers/chipid/chipid.c **** 			CHIPID_CIDR_ARCH_Pos;
  70              		.loc 1 115 0
  71 0028 C6F30756 		ubfx	r6, r6, #20, #8
 118:../asf/sam/drivers/chipid/chipid.c **** 			CHIPID_CIDR_NVPTYP_Pos;
  72              		.loc 1 118 0
  73 002c C5F30275 		ubfx	r5, r5, #28, #3
  99:../asf/sam/drivers/chipid/chipid.c **** 		(p_chipid->CHIPID_CIDR & CHIPID_CIDR_VERSION_Msk) >>
  74              		.loc 1 99 0
  75 0030 C1F80080 		str	r8, [r1]
  76              		.loc 1 121 0
  77 0034 D20F     		lsrs	r2, r2, #31
 102:../asf/sam/drivers/chipid/chipid.c **** 		(p_chipid->CHIPID_CIDR & CHIPID_CIDR_EPROC_Msk) >>
  78              		.loc 1 102 0
  79 0036 C1F804C0 		str	ip, [r1, #4]
 105:../asf/sam/drivers/chipid/chipid.c **** 		(p_chipid->CHIPID_CIDR & CHIPID_CIDR_NVPSIZ_Msk) >>
  80              		.loc 1 105 0
  81 003a 8B60     		str	r3, [r1, #8]
 111:../asf/sam/drivers/chipid/chipid.c **** 		(p_chipid->CHIPID_CIDR & CHIPID_CIDR_SRAMSIZ_Msk) >>
  82              		.loc 1 111 0
  83 003c 0F61     		str	r7, [r1, #16]
 114:../asf/sam/drivers/chipid/chipid.c **** 		(p_chipid->CHIPID_CIDR & CHIPID_CIDR_ARCH_Msk) >>
  84              		.loc 1 114 0
  85 003e 4E61     		str	r6, [r1, #20]
 117:../asf/sam/drivers/chipid/chipid.c **** 		(p_chipid->CHIPID_CIDR & CHIPID_CIDR_NVPTYP_Msk) >>
  86              		.loc 1 117 0
  87 0040 8D61     		str	r5, [r1, #24]
 120:../asf/sam/drivers/chipid/chipid.c **** 		(p_chipid->CHIPID_CIDR & CHIPID_CIDR_EXT) >> 31;
  88              		.loc 1 120 0
  89 0042 CA61     		str	r2, [r1, #28]
 108:../asf/sam/drivers/chipid/chipid.c **** 		(p_chipid->CHIPID_CIDR & CHIPID_CIDR_NVPSIZ2_Pos) >>
  90              		.loc 1 108 0
ARM GAS  /tmp/ccFtFbC6.s 			page 5


  91 0044 CC60     		str	r4, [r1, #12]
 122:../asf/sam/drivers/chipid/chipid.c **** 		
 123:../asf/sam/drivers/chipid/chipid.c **** 	if (p_chipid_data->ul_extflag) {
  92              		.loc 1 123 0
  93 0046 2AB1     		cbz	r2, .L4
 124:../asf/sam/drivers/chipid/chipid.c **** 		p_chipid_data->ul_extid =
 125:../asf/sam/drivers/chipid/chipid.c **** 			p_chipid->CHIPID_EXID & CHIPID_EXID_EXID_Msk;
  94              		.loc 1 125 0
  95 0048 4368     		ldr	r3, [r0, #4]
 126:../asf/sam/drivers/chipid/chipid.c **** 	}
 127:../asf/sam/drivers/chipid/chipid.c **** 	return 0;
  96              		.loc 1 127 0
  97 004a 2046     		mov	r0, r4
  98              	.LVL1:
 124:../asf/sam/drivers/chipid/chipid.c **** 		p_chipid_data->ul_extid =
  99              		.loc 1 124 0
 100 004c 0B62     		str	r3, [r1, #32]
 128:../asf/sam/drivers/chipid/chipid.c **** }
 101              		.loc 1 128 0
 102 004e BDE8F001 		pop	{r4, r5, r6, r7, r8}
 103              		.cfi_remember_state
 104              		.cfi_restore 8
 105              		.cfi_restore 7
 106              		.cfi_restore 6
 107              		.cfi_restore 5
 108              		.cfi_restore 4
 109              		.cfi_def_cfa_offset 0
 110 0052 7047     		bx	lr
 111              	.LVL2:
 112              	.L4:
 113              		.cfi_restore_state
 127:../asf/sam/drivers/chipid/chipid.c **** }
 114              		.loc 1 127 0
 115 0054 1046     		mov	r0, r2
 116              	.LVL3:
 117              		.loc 1 128 0
 118 0056 BDE8F001 		pop	{r4, r5, r6, r7, r8}
 119              		.cfi_restore 4
 120              		.cfi_restore 5
 121              		.cfi_restore 6
 122              		.cfi_restore 7
 123              		.cfi_restore 8
 124              		.cfi_def_cfa_offset 0
 125 005a 7047     		bx	lr
 126              	.LVL4:
 127              	.L3:
  96:../asf/sam/drivers/chipid/chipid.c **** 	}
 128              		.loc 1 96 0
 129 005c 4FF0FF30 		mov	r0, #-1
 130              	.LVL5:
 131 0060 7047     		bx	lr
 132              		.cfi_endproc
 133              	.LFE142:
 134              		.size	chipid_read, .-chipid_read
 135 0062 00BF     		.section	.text.chipid_read_version,"ax",%progbits
 136              		.align	1
 137              		.p2align 2,,3
ARM GAS  /tmp/ccFtFbC6.s 			page 6


 138              		.global	chipid_read_version
 139              		.syntax unified
 140              		.thumb
 141              		.thumb_func
 142              		.fpu fpv5-d16
 143              		.type	chipid_read_version, %function
 144              	chipid_read_version:
 145              	.LFB143:
 129:../asf/sam/drivers/chipid/chipid.c **** 
 130:../asf/sam/drivers/chipid/chipid.c **** /**
 131:../asf/sam/drivers/chipid/chipid.c ****  * \brief Get the revision number of the silicon.
 132:../asf/sam/drivers/chipid/chipid.c ****  *
 133:../asf/sam/drivers/chipid/chipid.c ****  * \param p_chipid Pointer to a CHIPID instance.
 134:../asf/sam/drivers/chipid/chipid.c ****  *
 135:../asf/sam/drivers/chipid/chipid.c ****  * \return Revision number of the silicon.
 136:../asf/sam/drivers/chipid/chipid.c ****  */
 137:../asf/sam/drivers/chipid/chipid.c **** uint32_t chipid_read_version(Chipid *p_chipid)
 138:../asf/sam/drivers/chipid/chipid.c **** {
 146              		.loc 1 138 0
 147              		.cfi_startproc
 148              		@ args = 0, pretend = 0, frame = 0
 149              		@ frame_needed = 0, uses_anonymous_args = 0
 150              		@ link register save eliminated.
 151              	.LVL6:
 139:../asf/sam/drivers/chipid/chipid.c **** 	return p_chipid->CHIPID_CIDR & CHIPID_CIDR_VERSION_Msk;
 152              		.loc 1 139 0
 153 0000 0068     		ldr	r0, [r0]
 154              	.LVL7:
 140:../asf/sam/drivers/chipid/chipid.c **** }
 155              		.loc 1 140 0
 156 0002 00F01F00 		and	r0, r0, #31
 157 0006 7047     		bx	lr
 158              		.cfi_endproc
 159              	.LFE143:
 160              		.size	chipid_read_version, .-chipid_read_version
 161              		.section	.text.chipid_read_processor,"ax",%progbits
 162              		.align	1
 163              		.p2align 2,,3
 164              		.global	chipid_read_processor
 165              		.syntax unified
 166              		.thumb
 167              		.thumb_func
 168              		.fpu fpv5-d16
 169              		.type	chipid_read_processor, %function
 170              	chipid_read_processor:
 171              	.LFB144:
 141:../asf/sam/drivers/chipid/chipid.c **** 
 142:../asf/sam/drivers/chipid/chipid.c **** /**
 143:../asf/sam/drivers/chipid/chipid.c ****  * \brief Get the version of the embedded ARM processor.
 144:../asf/sam/drivers/chipid/chipid.c ****  *
 145:../asf/sam/drivers/chipid/chipid.c ****  * \param p_chipid Pointer to a CHIPID instance.
 146:../asf/sam/drivers/chipid/chipid.c ****  *
 147:../asf/sam/drivers/chipid/chipid.c ****  * \return Version of the embedded ARM processor.
 148:../asf/sam/drivers/chipid/chipid.c ****  */
 149:../asf/sam/drivers/chipid/chipid.c **** uint32_t chipid_read_processor(Chipid *p_chipid)
 150:../asf/sam/drivers/chipid/chipid.c **** {
 172              		.loc 1 150 0
ARM GAS  /tmp/ccFtFbC6.s 			page 7


 173              		.cfi_startproc
 174              		@ args = 0, pretend = 0, frame = 0
 175              		@ frame_needed = 0, uses_anonymous_args = 0
 176              		@ link register save eliminated.
 177              	.LVL8:
 151:../asf/sam/drivers/chipid/chipid.c **** 	return p_chipid->CHIPID_CIDR & CHIPID_CIDR_EPROC_Msk;
 178              		.loc 1 151 0
 179 0000 0068     		ldr	r0, [r0]
 180              	.LVL9:
 152:../asf/sam/drivers/chipid/chipid.c **** }
 181              		.loc 1 152 0
 182 0002 00F0E000 		and	r0, r0, #224
 183 0006 7047     		bx	lr
 184              		.cfi_endproc
 185              	.LFE144:
 186              		.size	chipid_read_processor, .-chipid_read_processor
 187              		.section	.text.chipid_read_arch,"ax",%progbits
 188              		.align	1
 189              		.p2align 2,,3
 190              		.global	chipid_read_arch
 191              		.syntax unified
 192              		.thumb
 193              		.thumb_func
 194              		.fpu fpv5-d16
 195              		.type	chipid_read_arch, %function
 196              	chipid_read_arch:
 197              	.LFB145:
 153:../asf/sam/drivers/chipid/chipid.c **** 
 154:../asf/sam/drivers/chipid/chipid.c **** /**
 155:../asf/sam/drivers/chipid/chipid.c ****  * \brief Get the identifier of the architecture.
 156:../asf/sam/drivers/chipid/chipid.c ****  *
 157:../asf/sam/drivers/chipid/chipid.c ****  * \param p_chipid Pointer to a CHIPID instance.
 158:../asf/sam/drivers/chipid/chipid.c ****  *
 159:../asf/sam/drivers/chipid/chipid.c ****  * \return Identifier of the architecture.
 160:../asf/sam/drivers/chipid/chipid.c ****  */
 161:../asf/sam/drivers/chipid/chipid.c **** uint32_t chipid_read_arch(Chipid *p_chipid)
 162:../asf/sam/drivers/chipid/chipid.c **** {
 198              		.loc 1 162 0
 199              		.cfi_startproc
 200              		@ args = 0, pretend = 0, frame = 0
 201              		@ frame_needed = 0, uses_anonymous_args = 0
 202              		@ link register save eliminated.
 203              	.LVL10:
 163:../asf/sam/drivers/chipid/chipid.c **** 	return p_chipid->CHIPID_CIDR & CHIPID_CIDR_ARCH_Msk;
 204              		.loc 1 163 0
 205 0000 0068     		ldr	r0, [r0]
 206              	.LVL11:
 164:../asf/sam/drivers/chipid/chipid.c **** }
 207              		.loc 1 164 0
 208 0002 00F07F60 		and	r0, r0, #267386880
 209 0006 7047     		bx	lr
 210              		.cfi_endproc
 211              	.LFE145:
 212              		.size	chipid_read_arch, .-chipid_read_arch
 213              		.section	.text.chipid_read_sramsize,"ax",%progbits
 214              		.align	1
 215              		.p2align 2,,3
ARM GAS  /tmp/ccFtFbC6.s 			page 8


 216              		.global	chipid_read_sramsize
 217              		.syntax unified
 218              		.thumb
 219              		.thumb_func
 220              		.fpu fpv5-d16
 221              		.type	chipid_read_sramsize, %function
 222              	chipid_read_sramsize:
 223              	.LFB146:
 165:../asf/sam/drivers/chipid/chipid.c **** 
 166:../asf/sam/drivers/chipid/chipid.c **** /**
 167:../asf/sam/drivers/chipid/chipid.c ****  * \brief Get the size of the embedded SRAM.
 168:../asf/sam/drivers/chipid/chipid.c ****  *
 169:../asf/sam/drivers/chipid/chipid.c ****  * \param p_chipid Pointer to a CHIPID instance.
 170:../asf/sam/drivers/chipid/chipid.c ****  *
 171:../asf/sam/drivers/chipid/chipid.c ****  * \return SRAM size value.
 172:../asf/sam/drivers/chipid/chipid.c ****  */
 173:../asf/sam/drivers/chipid/chipid.c **** uint32_t chipid_read_sramsize(Chipid *p_chipid)
 174:../asf/sam/drivers/chipid/chipid.c **** {
 224              		.loc 1 174 0
 225              		.cfi_startproc
 226              		@ args = 0, pretend = 0, frame = 0
 227              		@ frame_needed = 0, uses_anonymous_args = 0
 228              		@ link register save eliminated.
 229              	.LVL12:
 175:../asf/sam/drivers/chipid/chipid.c **** 	return p_chipid->CHIPID_CIDR & CHIPID_CIDR_SRAMSIZ_Msk;
 230              		.loc 1 175 0
 231 0000 0068     		ldr	r0, [r0]
 232              	.LVL13:
 176:../asf/sam/drivers/chipid/chipid.c **** }
 233              		.loc 1 176 0
 234 0002 00F47020 		and	r0, r0, #983040
 235 0006 7047     		bx	lr
 236              		.cfi_endproc
 237              	.LFE146:
 238              		.size	chipid_read_sramsize, .-chipid_read_sramsize
 239              		.section	.text.chipid_read_nvpmsize,"ax",%progbits
 240              		.align	1
 241              		.p2align 2,,3
 242              		.global	chipid_read_nvpmsize
 243              		.syntax unified
 244              		.thumb
 245              		.thumb_func
 246              		.fpu fpv5-d16
 247              		.type	chipid_read_nvpmsize, %function
 248              	chipid_read_nvpmsize:
 249              	.LFB147:
 177:../asf/sam/drivers/chipid/chipid.c **** 
 178:../asf/sam/drivers/chipid/chipid.c **** /**
 179:../asf/sam/drivers/chipid/chipid.c ****  * \brief Get the size of the first non-volatile program memory.
 180:../asf/sam/drivers/chipid/chipid.c ****  *
 181:../asf/sam/drivers/chipid/chipid.c ****  * \param p_chipid Pointer to a CHIPID instance.
 182:../asf/sam/drivers/chipid/chipid.c ****  *
 183:../asf/sam/drivers/chipid/chipid.c ****  * \return Memory size value.
 184:../asf/sam/drivers/chipid/chipid.c ****  */
 185:../asf/sam/drivers/chipid/chipid.c **** uint32_t chipid_read_nvpmsize(Chipid *p_chipid)
 186:../asf/sam/drivers/chipid/chipid.c **** {
 250              		.loc 1 186 0
ARM GAS  /tmp/ccFtFbC6.s 			page 9


 251              		.cfi_startproc
 252              		@ args = 0, pretend = 0, frame = 0
 253              		@ frame_needed = 0, uses_anonymous_args = 0
 254              		@ link register save eliminated.
 255              	.LVL14:
 187:../asf/sam/drivers/chipid/chipid.c **** 	return p_chipid->CHIPID_CIDR & CHIPID_CIDR_NVPSIZ_Msk;
 256              		.loc 1 187 0
 257 0000 0068     		ldr	r0, [r0]
 258              	.LVL15:
 188:../asf/sam/drivers/chipid/chipid.c **** }
 259              		.loc 1 188 0
 260 0002 00F47060 		and	r0, r0, #3840
 261 0006 7047     		bx	lr
 262              		.cfi_endproc
 263              	.LFE147:
 264              		.size	chipid_read_nvpmsize, .-chipid_read_nvpmsize
 265              		.section	.text.chipid_read_nvpm2size,"ax",%progbits
 266              		.align	1
 267              		.p2align 2,,3
 268              		.global	chipid_read_nvpm2size
 269              		.syntax unified
 270              		.thumb
 271              		.thumb_func
 272              		.fpu fpv5-d16
 273              		.type	chipid_read_nvpm2size, %function
 274              	chipid_read_nvpm2size:
 275              	.LFB148:
 189:../asf/sam/drivers/chipid/chipid.c **** 
 190:../asf/sam/drivers/chipid/chipid.c **** /**
 191:../asf/sam/drivers/chipid/chipid.c ****  * \brief Get the size of the second non-volatile program memory.
 192:../asf/sam/drivers/chipid/chipid.c ****  *
 193:../asf/sam/drivers/chipid/chipid.c ****  * \param p_chipid Pointer to a CHIPID instance.
 194:../asf/sam/drivers/chipid/chipid.c ****  *
 195:../asf/sam/drivers/chipid/chipid.c ****  * \return Memory size value.
 196:../asf/sam/drivers/chipid/chipid.c ****  */
 197:../asf/sam/drivers/chipid/chipid.c **** uint32_t chipid_read_nvpm2size(Chipid *p_chipid)
 198:../asf/sam/drivers/chipid/chipid.c **** {
 276              		.loc 1 198 0
 277              		.cfi_startproc
 278              		@ args = 0, pretend = 0, frame = 0
 279              		@ frame_needed = 0, uses_anonymous_args = 0
 280              		@ link register save eliminated.
 281              	.LVL16:
 199:../asf/sam/drivers/chipid/chipid.c **** 	return p_chipid->CHIPID_CIDR & CHIPID_CIDR_NVPSIZ2_Pos;
 282              		.loc 1 199 0
 283 0000 0068     		ldr	r0, [r0]
 284              	.LVL17:
 200:../asf/sam/drivers/chipid/chipid.c **** }
 285              		.loc 1 200 0
 286 0002 00F00C00 		and	r0, r0, #12
 287 0006 7047     		bx	lr
 288              		.cfi_endproc
 289              	.LFE148:
 290              		.size	chipid_read_nvpm2size, .-chipid_read_nvpm2size
 291              		.section	.text.chipid_read_nvpmtype,"ax",%progbits
 292              		.align	1
 293              		.p2align 2,,3
ARM GAS  /tmp/ccFtFbC6.s 			page 10


 294              		.global	chipid_read_nvpmtype
 295              		.syntax unified
 296              		.thumb
 297              		.thumb_func
 298              		.fpu fpv5-d16
 299              		.type	chipid_read_nvpmtype, %function
 300              	chipid_read_nvpmtype:
 301              	.LFB149:
 201:../asf/sam/drivers/chipid/chipid.c **** 
 202:../asf/sam/drivers/chipid/chipid.c **** /**
 203:../asf/sam/drivers/chipid/chipid.c ****  * \brief Get the type of non-volatile program memory.
 204:../asf/sam/drivers/chipid/chipid.c ****  *
 205:../asf/sam/drivers/chipid/chipid.c ****  * \param p_chipid Pointer to a CHIPID instance.
 206:../asf/sam/drivers/chipid/chipid.c ****  *
 207:../asf/sam/drivers/chipid/chipid.c ****  * \return Memory type.
 208:../asf/sam/drivers/chipid/chipid.c ****  */
 209:../asf/sam/drivers/chipid/chipid.c **** uint32_t chipid_read_nvpmtype(Chipid *p_chipid)
 210:../asf/sam/drivers/chipid/chipid.c **** {
 302              		.loc 1 210 0
 303              		.cfi_startproc
 304              		@ args = 0, pretend = 0, frame = 0
 305              		@ frame_needed = 0, uses_anonymous_args = 0
 306              		@ link register save eliminated.
 307              	.LVL18:
 211:../asf/sam/drivers/chipid/chipid.c **** 	return p_chipid->CHIPID_CIDR & CHIPID_CIDR_NVPTYP_Msk;
 308              		.loc 1 211 0
 309 0000 0068     		ldr	r0, [r0]
 310              	.LVL19:
 212:../asf/sam/drivers/chipid/chipid.c **** }
 311              		.loc 1 212 0
 312 0002 00F0E040 		and	r0, r0, #1879048192
 313 0006 7047     		bx	lr
 314              		.cfi_endproc
 315              	.LFE149:
 316              		.size	chipid_read_nvpmtype, .-chipid_read_nvpmtype
 317              		.section	.text.chipid_read_extchipid,"ax",%progbits
 318              		.align	1
 319              		.p2align 2,,3
 320              		.global	chipid_read_extchipid
 321              		.syntax unified
 322              		.thumb
 323              		.thumb_func
 324              		.fpu fpv5-d16
 325              		.type	chipid_read_extchipid, %function
 326              	chipid_read_extchipid:
 327              	.LFB150:
 213:../asf/sam/drivers/chipid/chipid.c **** 
 214:../asf/sam/drivers/chipid/chipid.c **** /**
 215:../asf/sam/drivers/chipid/chipid.c ****  * \brief Get the chip extension identifier.
 216:../asf/sam/drivers/chipid/chipid.c ****  *
 217:../asf/sam/drivers/chipid/chipid.c ****  * \param p_chipid Pointer to a CHIPID instance.
 218:../asf/sam/drivers/chipid/chipid.c ****  *
 219:../asf/sam/drivers/chipid/chipid.c ****  * \return Chip extension identifier if available, else 0.
 220:../asf/sam/drivers/chipid/chipid.c ****  */
 221:../asf/sam/drivers/chipid/chipid.c **** uint32_t chipid_read_extchipid(Chipid *p_chipid)
 222:../asf/sam/drivers/chipid/chipid.c **** {
 328              		.loc 1 222 0
ARM GAS  /tmp/ccFtFbC6.s 			page 11


 329              		.cfi_startproc
 330              		@ args = 0, pretend = 0, frame = 0
 331              		@ frame_needed = 0, uses_anonymous_args = 0
 332              		@ link register save eliminated.
 333              	.LVL20:
 223:../asf/sam/drivers/chipid/chipid.c **** 	if ((p_chipid->CHIPID_CIDR) & CHIPID_CIDR_EXT)
 334              		.loc 1 223 0
 335 0000 0368     		ldr	r3, [r0]
 336 0002 002B     		cmp	r3, #0
 337 0004 01DB     		blt	.L20
 224:../asf/sam/drivers/chipid/chipid.c **** 		return p_chipid->CHIPID_EXID & CHIPID_EXID_EXID_Msk;
 225:../asf/sam/drivers/chipid/chipid.c **** 	else
 226:../asf/sam/drivers/chipid/chipid.c **** 		return 0;
 338              		.loc 1 226 0
 339 0006 0020     		movs	r0, #0
 340              	.LVL21:
 227:../asf/sam/drivers/chipid/chipid.c **** }
 341              		.loc 1 227 0
 342 0008 7047     		bx	lr
 343              	.LVL22:
 344              	.L20:
 224:../asf/sam/drivers/chipid/chipid.c **** 		return p_chipid->CHIPID_EXID & CHIPID_EXID_EXID_Msk;
 345              		.loc 1 224 0
 346 000a 4068     		ldr	r0, [r0, #4]
 347              	.LVL23:
 348 000c 7047     		bx	lr
 349              		.cfi_endproc
 350              	.LFE150:
 351              		.size	chipid_read_extchipid, .-chipid_read_extchipid
 352 000e 00BF     		.section	.bss.cpu_irq_critical_section_counter,"aw",%nobits
 353              		.align	2
 354              		.type	cpu_irq_critical_section_counter, %object
 355              		.size	cpu_irq_critical_section_counter, 4
 356              	cpu_irq_critical_section_counter:
 357 0000 00000000 		.space	4
 358              		.section	.bss.cpu_irq_prev_interrupt_state,"aw",%nobits
 359              		.type	cpu_irq_prev_interrupt_state, %object
 360              		.size	cpu_irq_prev_interrupt_state, 1
 361              	cpu_irq_prev_interrupt_state:
 362 0000 00       		.space	1
 363              		.text
 364              	.Letext0:
 365              		.file 2 "/usr/include/newlib/machine/_default_types.h"
 366              		.file 3 "/usr/include/newlib/sys/_stdint.h"
 367              		.file 4 "/home/torbjorn/eclipse-workspace/CoreNG/asf/thirdparty/CMSIS/Include/core_cm7.h"
 368              		.file 5 "/home/torbjorn/eclipse-workspace/CoreNG/variants/same70/system_same70.h"
 369              		.file 6 "/home/torbjorn/eclipse-workspace/CoreNG/asf/sam/utils/cmsis/same70/include/component/chip
 370              		.file 7 "/usr/include/newlib/sys/lock.h"
 371              		.file 8 "/usr/include/newlib/sys/_types.h"
 372              		.file 9 "/usr/lib/gcc/arm-none-eabi/6.3.1/include/stddef.h"
 373              		.file 10 "/usr/include/newlib/sys/reent.h"
 374              		.file 11 "/usr/include/newlib/stdlib.h"
 375              		.file 12 "/home/torbjorn/eclipse-workspace/CoreNG/asf/common/utils/interrupt/interrupt_sam_nvic.h"
 376              		.file 13 "../asf/sam/drivers/chipid/chipid.h"