ARM GAS  /tmp/ccfM1LZ3.s 			page 1


   1              		.cpu cortex-m7
   2              		.eabi_attribute 28, 1
   3              		.eabi_attribute 20, 1
   4              		.eabi_attribute 21, 1
   5              		.eabi_attribute 23, 3
   6              		.eabi_attribute 24, 1
   7              		.eabi_attribute 25, 1
   8              		.eabi_attribute 26, 1
   9              		.eabi_attribute 30, 2
  10              		.eabi_attribute 34, 1
  11              		.eabi_attribute 18, 4
  12              		.file	"flash_efc.c"
  13              		.text
  14              	.Ltext0:
  15              		.cfi_sections	.debug_frame
  16              		.section	.text.flash_init,"ax",%progbits
  17              		.align	1
  18              		.p2align 2,,3
  19              		.global	flash_init
  20              		.syntax unified
  21              		.thumb
  22              		.thumb_func
  23              		.fpu fpv5-d16
  24              		.type	flash_init, %function
  25              	flash_init:
  26              	.LFB165:
  27              		.file 1 "../asf/sam/services/flash_efc/flash_efc.c"
   1:../asf/sam/services/flash_efc/flash_efc.c **** /**
   2:../asf/sam/services/flash_efc/flash_efc.c ****  * \file
   3:../asf/sam/services/flash_efc/flash_efc.c ****  *
   4:../asf/sam/services/flash_efc/flash_efc.c ****  * \brief Embedded Flash service for SAM.
   5:../asf/sam/services/flash_efc/flash_efc.c ****  *
   6:../asf/sam/services/flash_efc/flash_efc.c ****  * Copyright (c) 2011-2016 Atmel Corporation. All rights reserved.
   7:../asf/sam/services/flash_efc/flash_efc.c ****  *
   8:../asf/sam/services/flash_efc/flash_efc.c ****  * \asf_license_start
   9:../asf/sam/services/flash_efc/flash_efc.c ****  *
  10:../asf/sam/services/flash_efc/flash_efc.c ****  * \page License
  11:../asf/sam/services/flash_efc/flash_efc.c ****  *
  12:../asf/sam/services/flash_efc/flash_efc.c ****  * Redistribution and use in source and binary forms, with or without
  13:../asf/sam/services/flash_efc/flash_efc.c ****  * modification, are permitted provided that the following conditions are met:
  14:../asf/sam/services/flash_efc/flash_efc.c ****  *
  15:../asf/sam/services/flash_efc/flash_efc.c ****  * 1. Redistributions of source code must retain the above copyright notice,
  16:../asf/sam/services/flash_efc/flash_efc.c ****  *    this list of conditions and the following disclaimer.
  17:../asf/sam/services/flash_efc/flash_efc.c ****  *
  18:../asf/sam/services/flash_efc/flash_efc.c ****  * 2. Redistributions in binary form must reproduce the above copyright notice,
  19:../asf/sam/services/flash_efc/flash_efc.c ****  *    this list of conditions and the following disclaimer in the documentation
  20:../asf/sam/services/flash_efc/flash_efc.c ****  *    and/or other materials provided with the distribution.
  21:../asf/sam/services/flash_efc/flash_efc.c ****  *
  22:../asf/sam/services/flash_efc/flash_efc.c ****  * 3. The name of Atmel may not be used to endorse or promote products derived
  23:../asf/sam/services/flash_efc/flash_efc.c ****  *    from this software without specific prior written permission.
  24:../asf/sam/services/flash_efc/flash_efc.c ****  *
  25:../asf/sam/services/flash_efc/flash_efc.c ****  * 4. This software may only be redistributed and used in connection with an
  26:../asf/sam/services/flash_efc/flash_efc.c ****  *    Atmel microcontroller product.
  27:../asf/sam/services/flash_efc/flash_efc.c ****  *
  28:../asf/sam/services/flash_efc/flash_efc.c ****  * THIS SOFTWARE IS PROVIDED BY ATMEL "AS IS" AND ANY EXPRESS OR IMPLIED
  29:../asf/sam/services/flash_efc/flash_efc.c ****  * WARRANTIES, INCLUDING, BUT NOT LIMITED TO, THE IMPLIED WARRANTIES OF
  30:../asf/sam/services/flash_efc/flash_efc.c ****  * MERCHANTABILITY, FITNESS FOR A PARTICULAR PURPOSE AND NON-INFRINGEMENT ARE
ARM GAS  /tmp/ccfM1LZ3.s 			page 2


  31:../asf/sam/services/flash_efc/flash_efc.c ****  * EXPRESSLY AND SPECIFICALLY DISCLAIMED. IN NO EVENT SHALL ATMEL BE LIABLE FOR
  32:../asf/sam/services/flash_efc/flash_efc.c ****  * ANY DIRECT, INDIRECT, INCIDENTAL, SPECIAL, EXEMPLARY, OR CONSEQUENTIAL
  33:../asf/sam/services/flash_efc/flash_efc.c ****  * DAMAGES (INCLUDING, BUT NOT LIMITED TO, PROCUREMENT OF SUBSTITUTE GOODS
  34:../asf/sam/services/flash_efc/flash_efc.c ****  * OR SERVICES; LOSS OF USE, DATA, OR PROFITS; OR BUSINESS INTERRUPTION)
  35:../asf/sam/services/flash_efc/flash_efc.c ****  * HOWEVER CAUSED AND ON ANY THEORY OF LIABILITY, WHETHER IN CONTRACT,
  36:../asf/sam/services/flash_efc/flash_efc.c ****  * STRICT LIABILITY, OR TORT (INCLUDING NEGLIGENCE OR OTHERWISE) ARISING IN
  37:../asf/sam/services/flash_efc/flash_efc.c ****  * ANY WAY OUT OF THE USE OF THIS SOFTWARE, EVEN IF ADVISED OF THE
  38:../asf/sam/services/flash_efc/flash_efc.c ****  * POSSIBILITY OF SUCH DAMAGE.
  39:../asf/sam/services/flash_efc/flash_efc.c ****  *
  40:../asf/sam/services/flash_efc/flash_efc.c ****  * \asf_license_stop
  41:../asf/sam/services/flash_efc/flash_efc.c ****  *
  42:../asf/sam/services/flash_efc/flash_efc.c ****  */
  43:../asf/sam/services/flash_efc/flash_efc.c **** /*
  44:../asf/sam/services/flash_efc/flash_efc.c ****  * Support and FAQ: visit <a href="http://www.atmel.com/design-support/">Atmel Support</a>
  45:../asf/sam/services/flash_efc/flash_efc.c ****  */
  46:../asf/sam/services/flash_efc/flash_efc.c **** 
  47:../asf/sam/services/flash_efc/flash_efc.c **** #include <string.h>
  48:../asf/sam/services/flash_efc/flash_efc.c **** #include <assert.h>
  49:../asf/sam/services/flash_efc/flash_efc.c **** #include "flash_efc.h"
  50:../asf/sam/services/flash_efc/flash_efc.c **** #include "sysclk.h"
  51:../asf/sam/services/flash_efc/flash_efc.c **** 
  52:../asf/sam/services/flash_efc/flash_efc.c **** /// @cond 0
  53:../asf/sam/services/flash_efc/flash_efc.c **** /**INDENT-OFF**/
  54:../asf/sam/services/flash_efc/flash_efc.c **** #ifdef __cplusplus
  55:../asf/sam/services/flash_efc/flash_efc.c **** extern "C" {
  56:../asf/sam/services/flash_efc/flash_efc.c **** #endif
  57:../asf/sam/services/flash_efc/flash_efc.c **** /**INDENT-ON**/
  58:../asf/sam/services/flash_efc/flash_efc.c **** /// @endcond
  59:../asf/sam/services/flash_efc/flash_efc.c **** 
  60:../asf/sam/services/flash_efc/flash_efc.c **** /**
  61:../asf/sam/services/flash_efc/flash_efc.c ****  * \defgroup sam_services_flash_efc_group Embedded Flash Service
  62:../asf/sam/services/flash_efc/flash_efc.c ****  *
  63:../asf/sam/services/flash_efc/flash_efc.c ****  * The Embedded Flash service provides functions for internal flash operations.
  64:../asf/sam/services/flash_efc/flash_efc.c ****  *
  65:../asf/sam/services/flash_efc/flash_efc.c ****  * @{
  66:../asf/sam/services/flash_efc/flash_efc.c ****  */
  67:../asf/sam/services/flash_efc/flash_efc.c **** 
  68:../asf/sam/services/flash_efc/flash_efc.c **** #if (SAM4E || SAM4N || SAM4S || SAM4C || SAMG || SAM4CP || SAM4CM || \
  69:../asf/sam/services/flash_efc/flash_efc.c **** 	 SAMV71 || SAMV70 || SAMS70 || SAME70)
  70:../asf/sam/services/flash_efc/flash_efc.c **** /* User signature size */
  71:../asf/sam/services/flash_efc/flash_efc.c **** # define FLASH_USER_SIG_SIZE   (512)
  72:../asf/sam/services/flash_efc/flash_efc.c **** #endif
  73:../asf/sam/services/flash_efc/flash_efc.c **** 
  74:../asf/sam/services/flash_efc/flash_efc.c **** #if SAM4S
  75:../asf/sam/services/flash_efc/flash_efc.c **** /* Internal Flash Controller 0. */
  76:../asf/sam/services/flash_efc/flash_efc.c **** # define EFC     EFC0
  77:../asf/sam/services/flash_efc/flash_efc.c **** #if (SAM4SD16 || SAM4SD32)
  78:../asf/sam/services/flash_efc/flash_efc.c **** /* The max GPNVM number. */
  79:../asf/sam/services/flash_efc/flash_efc.c **** # define GPNVM_NUM_MAX        3
  80:../asf/sam/services/flash_efc/flash_efc.c **** #else
  81:../asf/sam/services/flash_efc/flash_efc.c **** /* The max GPNVM number. */
  82:../asf/sam/services/flash_efc/flash_efc.c **** # define GPNVM_NUM_MAX        2
  83:../asf/sam/services/flash_efc/flash_efc.c **** #endif
  84:../asf/sam/services/flash_efc/flash_efc.c **** /* Internal Flash 0 base address. */
  85:../asf/sam/services/flash_efc/flash_efc.c **** # define IFLASH_ADDR     IFLASH0_ADDR
  86:../asf/sam/services/flash_efc/flash_efc.c **** /* Internal flash page size. */
  87:../asf/sam/services/flash_efc/flash_efc.c **** # define IFLASH_PAGE_SIZE     IFLASH0_PAGE_SIZE
ARM GAS  /tmp/ccfM1LZ3.s 			page 3


  88:../asf/sam/services/flash_efc/flash_efc.c **** /* Internal flash lock region size. */
  89:../asf/sam/services/flash_efc/flash_efc.c **** # define IFLASH_LOCK_REGION_SIZE     IFLASH0_LOCK_REGION_SIZE
  90:../asf/sam/services/flash_efc/flash_efc.c **** #elif (SAM3XA || SAM3U4)
  91:../asf/sam/services/flash_efc/flash_efc.c **** /* Internal Flash Controller 0. */
  92:../asf/sam/services/flash_efc/flash_efc.c **** # define EFC     EFC0
  93:../asf/sam/services/flash_efc/flash_efc.c **** /* The max GPNVM number. */
  94:../asf/sam/services/flash_efc/flash_efc.c **** # define GPNVM_NUM_MAX        3
  95:../asf/sam/services/flash_efc/flash_efc.c **** /* Internal Flash 0 base address. */
  96:../asf/sam/services/flash_efc/flash_efc.c **** # define IFLASH_ADDR     IFLASH0_ADDR
  97:../asf/sam/services/flash_efc/flash_efc.c **** /* Internal flash page size. */
  98:../asf/sam/services/flash_efc/flash_efc.c **** # define IFLASH_PAGE_SIZE     IFLASH0_PAGE_SIZE
  99:../asf/sam/services/flash_efc/flash_efc.c **** /* Internal flash lock region size. */
 100:../asf/sam/services/flash_efc/flash_efc.c **** # define IFLASH_LOCK_REGION_SIZE     IFLASH0_LOCK_REGION_SIZE
 101:../asf/sam/services/flash_efc/flash_efc.c **** #elif (SAM3U)
 102:../asf/sam/services/flash_efc/flash_efc.c **** /* There is no EFC1 for SAM3U except for SAM3U4 */
 103:../asf/sam/services/flash_efc/flash_efc.c **** # undef EFC1
 104:../asf/sam/services/flash_efc/flash_efc.c **** /* Internal Flash Controller 0. */
 105:../asf/sam/services/flash_efc/flash_efc.c **** # define EFC     EFC0
 106:../asf/sam/services/flash_efc/flash_efc.c **** /* The max GPNVM number. */
 107:../asf/sam/services/flash_efc/flash_efc.c **** # define GPNVM_NUM_MAX        2
 108:../asf/sam/services/flash_efc/flash_efc.c **** /* Internal Flash 0 base address. */
 109:../asf/sam/services/flash_efc/flash_efc.c **** # define IFLASH_ADDR     IFLASH0_ADDR
 110:../asf/sam/services/flash_efc/flash_efc.c **** /* Internal flash page size. */
 111:../asf/sam/services/flash_efc/flash_efc.c **** # define IFLASH_PAGE_SIZE     IFLASH0_PAGE_SIZE
 112:../asf/sam/services/flash_efc/flash_efc.c **** /* Internal flash lock region size. */
 113:../asf/sam/services/flash_efc/flash_efc.c **** # define IFLASH_LOCK_REGION_SIZE     IFLASH0_LOCK_REGION_SIZE
 114:../asf/sam/services/flash_efc/flash_efc.c **** #elif (SAM3S8 || SAM3SD8)
 115:../asf/sam/services/flash_efc/flash_efc.c **** /* The max GPNVM number. */
 116:../asf/sam/services/flash_efc/flash_efc.c **** # define GPNVM_NUM_MAX        3
 117:../asf/sam/services/flash_efc/flash_efc.c **** /* Internal flash page size. */
 118:../asf/sam/services/flash_efc/flash_efc.c **** # define IFLASH_PAGE_SIZE     IFLASH0_PAGE_SIZE
 119:../asf/sam/services/flash_efc/flash_efc.c **** /* Internal flash lock region size. */
 120:../asf/sam/services/flash_efc/flash_efc.c **** # define IFLASH_LOCK_REGION_SIZE     IFLASH0_LOCK_REGION_SIZE
 121:../asf/sam/services/flash_efc/flash_efc.c **** #elif (SAM4C32 || SAM4CMP32 || SAM4CMS32)
 122:../asf/sam/services/flash_efc/flash_efc.c **** /* The max GPNVM number SAM4C(M)32. */
 123:../asf/sam/services/flash_efc/flash_efc.c **** # define GPNVM_NUM_MAX        3
 124:../asf/sam/services/flash_efc/flash_efc.c **** #elif (SAMG)
 125:../asf/sam/services/flash_efc/flash_efc.c **** /* The max GPNVM number SAMG. */
 126:../asf/sam/services/flash_efc/flash_efc.c **** # define GPNVM_NUM_MAX        8
 127:../asf/sam/services/flash_efc/flash_efc.c **** #elif (SAMV71 || SAMV70 || SAMS70 || SAME70)
 128:../asf/sam/services/flash_efc/flash_efc.c **** /* The max GPNVM number SAMV/S/E. */
 129:../asf/sam/services/flash_efc/flash_efc.c **** # define GPNVM_NUM_MAX        9
 130:../asf/sam/services/flash_efc/flash_efc.c **** #else
 131:../asf/sam/services/flash_efc/flash_efc.c **** /* The max GPNVM number. */
 132:../asf/sam/services/flash_efc/flash_efc.c **** # define GPNVM_NUM_MAX        2
 133:../asf/sam/services/flash_efc/flash_efc.c **** #endif
 134:../asf/sam/services/flash_efc/flash_efc.c **** 
 135:../asf/sam/services/flash_efc/flash_efc.c **** #if (SAM4C || SAM4CP || SAM4CM)
 136:../asf/sam/services/flash_efc/flash_efc.c **** #if (SAM4C32 || SAM4CMP32 || SAM4CMS32)
 137:../asf/sam/services/flash_efc/flash_efc.c **** # define EFC     EFC0
 138:../asf/sam/services/flash_efc/flash_efc.c **** /* Internal Flash 0 base address. */
 139:../asf/sam/services/flash_efc/flash_efc.c **** # define IFLASH0_ADDR    IFLASH0_CNC_ADDR
 140:../asf/sam/services/flash_efc/flash_efc.c **** # define IFLASH1_ADDR    IFLASH1_CNC_ADDR
 141:../asf/sam/services/flash_efc/flash_efc.c **** # define IFLASH_ADDR     IFLASH0_ADDR
 142:../asf/sam/services/flash_efc/flash_efc.c **** /* Internal flash page size. */
 143:../asf/sam/services/flash_efc/flash_efc.c **** # define IFLASH_PAGE_SIZE     IFLASH0_PAGE_SIZE
 144:../asf/sam/services/flash_efc/flash_efc.c **** /* Internal flash lock region size. */
ARM GAS  /tmp/ccfM1LZ3.s 			page 4


 145:../asf/sam/services/flash_efc/flash_efc.c **** # define IFLASH_LOCK_REGION_SIZE     IFLASH0_LOCK_REGION_SIZE
 146:../asf/sam/services/flash_efc/flash_efc.c **** #else
 147:../asf/sam/services/flash_efc/flash_efc.c **** #define IFLASH_ADDR  IFLASH_CNC_ADDR
 148:../asf/sam/services/flash_efc/flash_efc.c **** #endif
 149:../asf/sam/services/flash_efc/flash_efc.c **** #endif
 150:../asf/sam/services/flash_efc/flash_efc.c **** 
 151:../asf/sam/services/flash_efc/flash_efc.c **** /* Flash page buffer for alignment */
 152:../asf/sam/services/flash_efc/flash_efc.c **** static uint32_t gs_ul_page_buffer[IFLASH_PAGE_SIZE / sizeof(uint32_t)];
 153:../asf/sam/services/flash_efc/flash_efc.c **** 
 154:../asf/sam/services/flash_efc/flash_efc.c **** /**
 155:../asf/sam/services/flash_efc/flash_efc.c ****  * \brief Translate the given flash address to page and offset values.
 156:../asf/sam/services/flash_efc/flash_efc.c ****  * \note pus_page and pus_offset must not be null in order to store the
 157:../asf/sam/services/flash_efc/flash_efc.c ****  * corresponding values.
 158:../asf/sam/services/flash_efc/flash_efc.c ****  *
 159:../asf/sam/services/flash_efc/flash_efc.c ****  * \param pp_efc Pointer to an EFC pointer.
 160:../asf/sam/services/flash_efc/flash_efc.c ****  * \param ul_addr Address to translate.
 161:../asf/sam/services/flash_efc/flash_efc.c ****  * \param pus_page The first page accessed.
 162:../asf/sam/services/flash_efc/flash_efc.c ****  * \param pus_offset Byte offset in the first page.
 163:../asf/sam/services/flash_efc/flash_efc.c ****  */
 164:../asf/sam/services/flash_efc/flash_efc.c **** static void translate_address(Efc **pp_efc, uint32_t ul_addr,
 165:../asf/sam/services/flash_efc/flash_efc.c **** 		uint16_t *pus_page, uint16_t *pus_offset)
 166:../asf/sam/services/flash_efc/flash_efc.c **** {
 167:../asf/sam/services/flash_efc/flash_efc.c **** 	Efc *p_efc;
 168:../asf/sam/services/flash_efc/flash_efc.c **** 	uint16_t us_page;
 169:../asf/sam/services/flash_efc/flash_efc.c **** 	uint16_t us_offset;
 170:../asf/sam/services/flash_efc/flash_efc.c **** 
 171:../asf/sam/services/flash_efc/flash_efc.c **** #if (SAM3XA || SAM3U4)
 172:../asf/sam/services/flash_efc/flash_efc.c **** 	if (ul_addr >= IFLASH1_ADDR) {
 173:../asf/sam/services/flash_efc/flash_efc.c **** 		p_efc = EFC1;
 174:../asf/sam/services/flash_efc/flash_efc.c **** 		us_page = (ul_addr - IFLASH1_ADDR) / IFLASH1_PAGE_SIZE;
 175:../asf/sam/services/flash_efc/flash_efc.c **** 		us_offset = (ul_addr - IFLASH1_ADDR) % IFLASH1_PAGE_SIZE;
 176:../asf/sam/services/flash_efc/flash_efc.c **** 	} else {
 177:../asf/sam/services/flash_efc/flash_efc.c **** 		p_efc = EFC0;
 178:../asf/sam/services/flash_efc/flash_efc.c **** 		us_page = (ul_addr - IFLASH0_ADDR) / IFLASH0_PAGE_SIZE;
 179:../asf/sam/services/flash_efc/flash_efc.c **** 		us_offset = (ul_addr - IFLASH0_ADDR) % IFLASH0_PAGE_SIZE;
 180:../asf/sam/services/flash_efc/flash_efc.c **** 	}
 181:../asf/sam/services/flash_efc/flash_efc.c **** #elif (SAM4SD16 || SAM4SD32 || SAM4C32 || SAM4CMP32 || SAM4CMS32)
 182:../asf/sam/services/flash_efc/flash_efc.c **** 	uint32_t uc_gpnvm2;
 183:../asf/sam/services/flash_efc/flash_efc.c **** 	uc_gpnvm2 = flash_is_gpnvm_set(2);
 184:../asf/sam/services/flash_efc/flash_efc.c **** 	if (ul_addr >= IFLASH1_ADDR) {
 185:../asf/sam/services/flash_efc/flash_efc.c **** 		if(uc_gpnvm2 == FLASH_RC_YES) {
 186:../asf/sam/services/flash_efc/flash_efc.c **** 			p_efc = EFC0;
 187:../asf/sam/services/flash_efc/flash_efc.c **** 		} else {
 188:../asf/sam/services/flash_efc/flash_efc.c **** 			p_efc = EFC1;
 189:../asf/sam/services/flash_efc/flash_efc.c **** 		}
 190:../asf/sam/services/flash_efc/flash_efc.c **** 		us_page = (ul_addr - IFLASH1_ADDR) / IFLASH1_PAGE_SIZE;
 191:../asf/sam/services/flash_efc/flash_efc.c **** 		us_offset = (ul_addr - IFLASH1_ADDR) % IFLASH1_PAGE_SIZE;
 192:../asf/sam/services/flash_efc/flash_efc.c **** 	} else {
 193:../asf/sam/services/flash_efc/flash_efc.c **** 		if(uc_gpnvm2 == FLASH_RC_YES) {
 194:../asf/sam/services/flash_efc/flash_efc.c **** 			p_efc = EFC1;
 195:../asf/sam/services/flash_efc/flash_efc.c **** 		} else {
 196:../asf/sam/services/flash_efc/flash_efc.c **** 			p_efc = EFC0;
 197:../asf/sam/services/flash_efc/flash_efc.c **** 		}
 198:../asf/sam/services/flash_efc/flash_efc.c **** 		us_page = (ul_addr - IFLASH0_ADDR) / IFLASH0_PAGE_SIZE;
 199:../asf/sam/services/flash_efc/flash_efc.c **** 		us_offset = (ul_addr - IFLASH0_ADDR) % IFLASH0_PAGE_SIZE;
 200:../asf/sam/services/flash_efc/flash_efc.c **** 	}
 201:../asf/sam/services/flash_efc/flash_efc.c **** #elif (SAM3S8 || SAM3SD8)
ARM GAS  /tmp/ccfM1LZ3.s 			page 5


 202:../asf/sam/services/flash_efc/flash_efc.c **** 	p_efc = EFC;
 203:../asf/sam/services/flash_efc/flash_efc.c **** 	us_page = (ul_addr - IFLASH0_ADDR) / IFLASH0_PAGE_SIZE;
 204:../asf/sam/services/flash_efc/flash_efc.c **** 	us_offset = (ul_addr - IFLASH0_ADDR) % IFLASH0_PAGE_SIZE;
 205:../asf/sam/services/flash_efc/flash_efc.c **** #else
 206:../asf/sam/services/flash_efc/flash_efc.c **** 	Assert(ul_addr >= IFLASH_ADDR);
 207:../asf/sam/services/flash_efc/flash_efc.c **** 	Assert(ul_addr <= (IFLASH_ADDR + IFLASH_SIZE));
 208:../asf/sam/services/flash_efc/flash_efc.c **** 
 209:../asf/sam/services/flash_efc/flash_efc.c **** 	p_efc = EFC;
 210:../asf/sam/services/flash_efc/flash_efc.c **** 	us_page = (ul_addr - IFLASH_ADDR) / IFLASH_PAGE_SIZE;
 211:../asf/sam/services/flash_efc/flash_efc.c **** 	us_offset = (ul_addr - IFLASH_ADDR) % IFLASH_PAGE_SIZE;
 212:../asf/sam/services/flash_efc/flash_efc.c **** #endif
 213:../asf/sam/services/flash_efc/flash_efc.c **** 
 214:../asf/sam/services/flash_efc/flash_efc.c **** 	/* Store values */
 215:../asf/sam/services/flash_efc/flash_efc.c **** 	if (pp_efc) {
 216:../asf/sam/services/flash_efc/flash_efc.c **** 		*pp_efc = p_efc;
 217:../asf/sam/services/flash_efc/flash_efc.c **** 	}
 218:../asf/sam/services/flash_efc/flash_efc.c **** 
 219:../asf/sam/services/flash_efc/flash_efc.c **** 	if (pus_page) {
 220:../asf/sam/services/flash_efc/flash_efc.c **** 		*pus_page = us_page;
 221:../asf/sam/services/flash_efc/flash_efc.c **** 	}
 222:../asf/sam/services/flash_efc/flash_efc.c **** 
 223:../asf/sam/services/flash_efc/flash_efc.c **** 	if (pus_offset) {
 224:../asf/sam/services/flash_efc/flash_efc.c **** 		*pus_offset = us_offset;
 225:../asf/sam/services/flash_efc/flash_efc.c **** 	}
 226:../asf/sam/services/flash_efc/flash_efc.c **** }
 227:../asf/sam/services/flash_efc/flash_efc.c **** 
 228:../asf/sam/services/flash_efc/flash_efc.c **** /**
 229:../asf/sam/services/flash_efc/flash_efc.c ****  * \brief Compute the address of a flash by the given page and offset.
 230:../asf/sam/services/flash_efc/flash_efc.c ****  *
 231:../asf/sam/services/flash_efc/flash_efc.c ****  * \param p_efc Pointer to an EFC instance.
 232:../asf/sam/services/flash_efc/flash_efc.c ****  * \param us_page Page number.
 233:../asf/sam/services/flash_efc/flash_efc.c ****  * \param us_offset Byte offset inside page.
 234:../asf/sam/services/flash_efc/flash_efc.c ****  * \param pul_addr Computed address (optional).
 235:../asf/sam/services/flash_efc/flash_efc.c ****  */
 236:../asf/sam/services/flash_efc/flash_efc.c **** static void compute_address(Efc *p_efc, uint16_t us_page, uint16_t us_offset,
 237:../asf/sam/services/flash_efc/flash_efc.c **** 		uint32_t *pul_addr)
 238:../asf/sam/services/flash_efc/flash_efc.c **** {
 239:../asf/sam/services/flash_efc/flash_efc.c **** 	uint32_t ul_addr;
 240:../asf/sam/services/flash_efc/flash_efc.c **** 
 241:../asf/sam/services/flash_efc/flash_efc.c **** /* Dual bank flash */
 242:../asf/sam/services/flash_efc/flash_efc.c **** #ifdef EFC1
 243:../asf/sam/services/flash_efc/flash_efc.c **** 	/* Compute address */
 244:../asf/sam/services/flash_efc/flash_efc.c **** #if (SAM4SD16 || SAM4SD32 || SAM4C32 || SAM4CMP32 || SAM4CMS32)
 245:../asf/sam/services/flash_efc/flash_efc.c **** 	uint32_t uc_gpnvm2;
 246:../asf/sam/services/flash_efc/flash_efc.c **** 	uc_gpnvm2 = flash_is_gpnvm_set(2);
 247:../asf/sam/services/flash_efc/flash_efc.c **** 	if (p_efc == EFC0) {
 248:../asf/sam/services/flash_efc/flash_efc.c **** 		if(uc_gpnvm2 == FLASH_RC_YES) {
 249:../asf/sam/services/flash_efc/flash_efc.c **** 			ul_addr = IFLASH1_ADDR + us_page * IFLASH_PAGE_SIZE + us_offset;
 250:../asf/sam/services/flash_efc/flash_efc.c **** 		} else {
 251:../asf/sam/services/flash_efc/flash_efc.c **** 			ul_addr = IFLASH0_ADDR + us_page * IFLASH_PAGE_SIZE + us_offset;
 252:../asf/sam/services/flash_efc/flash_efc.c **** 		}
 253:../asf/sam/services/flash_efc/flash_efc.c **** 	} else {
 254:../asf/sam/services/flash_efc/flash_efc.c **** 		if(uc_gpnvm2 == FLASH_RC_YES) {
 255:../asf/sam/services/flash_efc/flash_efc.c **** 			ul_addr = IFLASH0_ADDR + us_page * IFLASH_PAGE_SIZE + us_offset;
 256:../asf/sam/services/flash_efc/flash_efc.c **** 		} else {
 257:../asf/sam/services/flash_efc/flash_efc.c **** 			ul_addr = IFLASH1_ADDR + us_page * IFLASH_PAGE_SIZE + us_offset;
 258:../asf/sam/services/flash_efc/flash_efc.c **** 		}
ARM GAS  /tmp/ccfM1LZ3.s 			page 6


 259:../asf/sam/services/flash_efc/flash_efc.c **** 	}
 260:../asf/sam/services/flash_efc/flash_efc.c **** #else
 261:../asf/sam/services/flash_efc/flash_efc.c **** 	ul_addr = (p_efc == EFC0) ?
 262:../asf/sam/services/flash_efc/flash_efc.c **** 			IFLASH0_ADDR + us_page * IFLASH_PAGE_SIZE + us_offset :
 263:../asf/sam/services/flash_efc/flash_efc.c **** 			IFLASH1_ADDR + us_page * IFLASH_PAGE_SIZE + us_offset;
 264:../asf/sam/services/flash_efc/flash_efc.c **** #endif
 265:../asf/sam/services/flash_efc/flash_efc.c **** /* One bank flash */
 266:../asf/sam/services/flash_efc/flash_efc.c **** #else
 267:../asf/sam/services/flash_efc/flash_efc.c **** 	/* avoid Cppcheck Warning */
 268:../asf/sam/services/flash_efc/flash_efc.c **** 	UNUSED(p_efc);
 269:../asf/sam/services/flash_efc/flash_efc.c **** 	/* Compute address */
 270:../asf/sam/services/flash_efc/flash_efc.c **** 	ul_addr = IFLASH_ADDR + us_page * IFLASH_PAGE_SIZE + us_offset;
 271:../asf/sam/services/flash_efc/flash_efc.c **** #endif
 272:../asf/sam/services/flash_efc/flash_efc.c **** 
 273:../asf/sam/services/flash_efc/flash_efc.c **** 	/* Store result */
 274:../asf/sam/services/flash_efc/flash_efc.c **** 	if (pul_addr != NULL) {
 275:../asf/sam/services/flash_efc/flash_efc.c **** 		*pul_addr = ul_addr;
 276:../asf/sam/services/flash_efc/flash_efc.c **** 	}
 277:../asf/sam/services/flash_efc/flash_efc.c **** }
 278:../asf/sam/services/flash_efc/flash_efc.c **** 
 279:../asf/sam/services/flash_efc/flash_efc.c **** /**
 280:../asf/sam/services/flash_efc/flash_efc.c ****  * \brief Compute the lock range associated with the given address range.
 281:../asf/sam/services/flash_efc/flash_efc.c ****  *
 282:../asf/sam/services/flash_efc/flash_efc.c ****  * \param ul_start Start address of lock range.
 283:../asf/sam/services/flash_efc/flash_efc.c ****  * \param ul_end End address of lock range.
 284:../asf/sam/services/flash_efc/flash_efc.c ****  * \param pul_actual_start Actual start address of lock range.
 285:../asf/sam/services/flash_efc/flash_efc.c ****  * \param pul_actual_end Actual end address of lock range.
 286:../asf/sam/services/flash_efc/flash_efc.c ****  */
 287:../asf/sam/services/flash_efc/flash_efc.c **** static void compute_lock_range(uint32_t ul_start, uint32_t ul_end,
 288:../asf/sam/services/flash_efc/flash_efc.c **** 		uint32_t *pul_actual_start, uint32_t *pul_actual_end)
 289:../asf/sam/services/flash_efc/flash_efc.c **** {
 290:../asf/sam/services/flash_efc/flash_efc.c **** 	uint32_t ul_actual_start, ul_actual_end;
 291:../asf/sam/services/flash_efc/flash_efc.c **** 
 292:../asf/sam/services/flash_efc/flash_efc.c **** 	ul_actual_start = ul_start - (ul_start % IFLASH_LOCK_REGION_SIZE);
 293:../asf/sam/services/flash_efc/flash_efc.c **** 	ul_actual_end = ul_end - (ul_end % IFLASH_LOCK_REGION_SIZE) +
 294:../asf/sam/services/flash_efc/flash_efc.c **** 			IFLASH_LOCK_REGION_SIZE - 1;
 295:../asf/sam/services/flash_efc/flash_efc.c **** 
 296:../asf/sam/services/flash_efc/flash_efc.c **** 	if (pul_actual_start) {
 297:../asf/sam/services/flash_efc/flash_efc.c **** 		*pul_actual_start = ul_actual_start;
 298:../asf/sam/services/flash_efc/flash_efc.c **** 	}
 299:../asf/sam/services/flash_efc/flash_efc.c **** 
 300:../asf/sam/services/flash_efc/flash_efc.c **** 	if (pul_actual_end) {
 301:../asf/sam/services/flash_efc/flash_efc.c **** 		*pul_actual_end = ul_actual_end;
 302:../asf/sam/services/flash_efc/flash_efc.c **** 	}
 303:../asf/sam/services/flash_efc/flash_efc.c **** }
 304:../asf/sam/services/flash_efc/flash_efc.c **** 
 305:../asf/sam/services/flash_efc/flash_efc.c **** /**
 306:../asf/sam/services/flash_efc/flash_efc.c ****  * \brief Initialize the flash service.
 307:../asf/sam/services/flash_efc/flash_efc.c ****  *
 308:../asf/sam/services/flash_efc/flash_efc.c ****  * \param ul_mode FLASH_ACCESS_MODE_128 or FLASH_ACCESS_MODE_64.
 309:../asf/sam/services/flash_efc/flash_efc.c ****  * \param ul_fws The number of wait states in cycle (no shift).
 310:../asf/sam/services/flash_efc/flash_efc.c ****  *
 311:../asf/sam/services/flash_efc/flash_efc.c ****  * \return 0 if successful; otherwise returns an error code.
 312:../asf/sam/services/flash_efc/flash_efc.c ****  */
 313:../asf/sam/services/flash_efc/flash_efc.c **** uint32_t flash_init(uint32_t ul_mode, uint32_t ul_fws)
 314:../asf/sam/services/flash_efc/flash_efc.c **** {
  28              		.loc 1 314 0
ARM GAS  /tmp/ccfM1LZ3.s 			page 7


  29              		.cfi_startproc
  30              		@ args = 0, pretend = 0, frame = 0
  31              		@ frame_needed = 0, uses_anonymous_args = 0
  32              	.LVL0:
 315:../asf/sam/services/flash_efc/flash_efc.c **** 	efc_init(EFC, ul_mode, ul_fws);
  33              		.loc 1 315 0
  34 0000 0A46     		mov	r2, r1
  35 0002 0146     		mov	r1, r0
  36              	.LVL1:
  37 0004 0248     		ldr	r0, .L3
  38              	.LVL2:
 314:../asf/sam/services/flash_efc/flash_efc.c **** 	efc_init(EFC, ul_mode, ul_fws);
  39              		.loc 1 314 0
  40 0006 08B5     		push	{r3, lr}
  41              		.cfi_def_cfa_offset 8
  42              		.cfi_offset 3, -8
  43              		.cfi_offset 14, -4
  44              		.loc 1 315 0
  45 0008 FFF7FEFF 		bl	efc_init
  46              	.LVL3:
 316:../asf/sam/services/flash_efc/flash_efc.c **** 
 317:../asf/sam/services/flash_efc/flash_efc.c **** #ifdef EFC1
 318:../asf/sam/services/flash_efc/flash_efc.c **** 	efc_init(EFC1, ul_mode, ul_fws);
 319:../asf/sam/services/flash_efc/flash_efc.c **** #endif
 320:../asf/sam/services/flash_efc/flash_efc.c **** 
 321:../asf/sam/services/flash_efc/flash_efc.c **** 	return FLASH_RC_OK;
 322:../asf/sam/services/flash_efc/flash_efc.c **** }
  47              		.loc 1 322 0
  48 000c 0020     		movs	r0, #0
  49 000e 08BD     		pop	{r3, pc}
  50              	.L4:
  51              		.align	2
  52              	.L3:
  53 0010 000C0E40 		.word	1074662400
  54              		.cfi_endproc
  55              	.LFE165:
  56              		.size	flash_init, .-flash_init
  57              		.section	.text.flash_set_wait_state,"ax",%progbits
  58              		.align	1
  59              		.p2align 2,,3
  60              		.global	flash_set_wait_state
  61              		.syntax unified
  62              		.thumb
  63              		.thumb_func
  64              		.fpu fpv5-d16
  65              		.type	flash_set_wait_state, %function
  66              	flash_set_wait_state:
  67              	.LFB166:
 323:../asf/sam/services/flash_efc/flash_efc.c **** 
 324:../asf/sam/services/flash_efc/flash_efc.c **** /**
 325:../asf/sam/services/flash_efc/flash_efc.c ****  * \brief Set flash wait state.
 326:../asf/sam/services/flash_efc/flash_efc.c ****  *
 327:../asf/sam/services/flash_efc/flash_efc.c ****  * \param ul_address Flash bank start address.
 328:../asf/sam/services/flash_efc/flash_efc.c ****  * \param ul_fws The number of wait states in cycle (no shift).
 329:../asf/sam/services/flash_efc/flash_efc.c ****  *
 330:../asf/sam/services/flash_efc/flash_efc.c ****  * \return 0 if successful; otherwise returns an error code.
 331:../asf/sam/services/flash_efc/flash_efc.c ****  */
ARM GAS  /tmp/ccfM1LZ3.s 			page 8


 332:../asf/sam/services/flash_efc/flash_efc.c **** uint32_t flash_set_wait_state(uint32_t ul_address, uint32_t ul_fws)
 333:../asf/sam/services/flash_efc/flash_efc.c **** {
  68              		.loc 1 333 0
  69              		.cfi_startproc
  70              		@ args = 0, pretend = 0, frame = 0
  71              		@ frame_needed = 0, uses_anonymous_args = 0
  72              	.LVL4:
  73 0000 08B5     		push	{r3, lr}
  74              		.cfi_def_cfa_offset 8
  75              		.cfi_offset 3, -8
  76              		.cfi_offset 14, -4
 334:../asf/sam/services/flash_efc/flash_efc.c **** 	Efc *p_efc;
 335:../asf/sam/services/flash_efc/flash_efc.c **** 
 336:../asf/sam/services/flash_efc/flash_efc.c **** 	translate_address(&p_efc, ul_address, NULL, NULL);
 337:../asf/sam/services/flash_efc/flash_efc.c **** 	efc_set_wait_state(p_efc, ul_fws);
  77              		.loc 1 337 0
  78 0002 0248     		ldr	r0, .L7
  79              	.LVL5:
  80 0004 FFF7FEFF 		bl	efc_set_wait_state
  81              	.LVL6:
 338:../asf/sam/services/flash_efc/flash_efc.c **** 
 339:../asf/sam/services/flash_efc/flash_efc.c **** 	return FLASH_RC_OK;
 340:../asf/sam/services/flash_efc/flash_efc.c **** }
  82              		.loc 1 340 0
  83 0008 0020     		movs	r0, #0
  84 000a 08BD     		pop	{r3, pc}
  85              	.L8:
  86              		.align	2
  87              	.L7:
  88 000c 000C0E40 		.word	1074662400
  89              		.cfi_endproc
  90              	.LFE166:
  91              		.size	flash_set_wait_state, .-flash_set_wait_state
  92              		.section	.text.flash_set_wait_state_adaptively,"ax",%progbits
  93              		.align	1
  94              		.p2align 2,,3
  95              		.global	flash_set_wait_state_adaptively
  96              		.syntax unified
  97              		.thumb
  98              		.thumb_func
  99              		.fpu fpv5-d16
 100              		.type	flash_set_wait_state_adaptively, %function
 101              	flash_set_wait_state_adaptively:
 102              	.LFB167:
 341:../asf/sam/services/flash_efc/flash_efc.c **** 
 342:../asf/sam/services/flash_efc/flash_efc.c **** /**
 343:../asf/sam/services/flash_efc/flash_efc.c ****  * \brief Set flash wait state.
 344:../asf/sam/services/flash_efc/flash_efc.c ****  *
 345:../asf/sam/services/flash_efc/flash_efc.c ****  * \param ul_address Flash bank start address.
 346:../asf/sam/services/flash_efc/flash_efc.c ****  * \param ul_fws The number of wait states in cycle (no shift).
 347:../asf/sam/services/flash_efc/flash_efc.c ****  *
 348:../asf/sam/services/flash_efc/flash_efc.c ****  * \return 0 if successful; otherwise returns an error code.
 349:../asf/sam/services/flash_efc/flash_efc.c ****  */
 350:../asf/sam/services/flash_efc/flash_efc.c **** uint32_t flash_set_wait_state_adaptively(uint32_t ul_address)
 351:../asf/sam/services/flash_efc/flash_efc.c **** {
 103              		.loc 1 351 0
 104              		.cfi_startproc
ARM GAS  /tmp/ccfM1LZ3.s 			page 9


 105              		@ args = 0, pretend = 0, frame = 0
 106              		@ frame_needed = 0, uses_anonymous_args = 0
 107              	.LVL7:
 108 0000 08B5     		push	{r3, lr}
 109              		.cfi_def_cfa_offset 8
 110              		.cfi_offset 3, -8
 111              		.cfi_offset 14, -4
 352:../asf/sam/services/flash_efc/flash_efc.c **** 	Efc *p_efc;
 353:../asf/sam/services/flash_efc/flash_efc.c **** 	uint32_t clock = sysclk_get_cpu_hz();
 354:../asf/sam/services/flash_efc/flash_efc.c **** 
 355:../asf/sam/services/flash_efc/flash_efc.c **** 	translate_address(&p_efc, ul_address, NULL, NULL);
 356:../asf/sam/services/flash_efc/flash_efc.c **** 
 357:../asf/sam/services/flash_efc/flash_efc.c **** 	/* Set FWS for embedded Flash access according to operating frequency */
 358:../asf/sam/services/flash_efc/flash_efc.c **** 	if (clock < CHIP_FREQ_FWS_0) {
 359:../asf/sam/services/flash_efc/flash_efc.c **** 		efc_set_wait_state(p_efc, 0);
 360:../asf/sam/services/flash_efc/flash_efc.c **** 	} else if (clock < CHIP_FREQ_FWS_1) {
 361:../asf/sam/services/flash_efc/flash_efc.c **** 		efc_set_wait_state(p_efc, 1);
 362:../asf/sam/services/flash_efc/flash_efc.c **** 	} else if (clock < CHIP_FREQ_FWS_2) {
 363:../asf/sam/services/flash_efc/flash_efc.c **** 		efc_set_wait_state(p_efc, 2);
 364:../asf/sam/services/flash_efc/flash_efc.c **** #if (SAM3XA || SAM3U)
 365:../asf/sam/services/flash_efc/flash_efc.c **** 	} else if (clock < CHIP_FREQ_FWS_3) {
 366:../asf/sam/services/flash_efc/flash_efc.c **** 		efc_set_wait_state(p_efc, 3);
 367:../asf/sam/services/flash_efc/flash_efc.c **** 	} else {
 368:../asf/sam/services/flash_efc/flash_efc.c **** 		efc_set_wait_state(p_efc, 4);
 369:../asf/sam/services/flash_efc/flash_efc.c **** 	}
 370:../asf/sam/services/flash_efc/flash_efc.c **** #elif (SAM4S || SAM4E || SAM4N || SAM4C || SAM4CP || SAM4CM || \
 371:../asf/sam/services/flash_efc/flash_efc.c **** 	 SAMV71 || SAMV70 || SAMS70 || SAME70)
 372:../asf/sam/services/flash_efc/flash_efc.c **** 	} else if (clock < CHIP_FREQ_FWS_3) {
 373:../asf/sam/services/flash_efc/flash_efc.c **** 		efc_set_wait_state(p_efc, 3);
 374:../asf/sam/services/flash_efc/flash_efc.c **** 	} else if (clock < CHIP_FREQ_FWS_4) {
 375:../asf/sam/services/flash_efc/flash_efc.c **** 		efc_set_wait_state(p_efc, 4);
 376:../asf/sam/services/flash_efc/flash_efc.c **** 	} else {
 377:../asf/sam/services/flash_efc/flash_efc.c **** 		efc_set_wait_state(p_efc, 5);
 112              		.loc 1 377 0
 113 0002 0521     		movs	r1, #5
 114 0004 0248     		ldr	r0, .L11
 115              	.LVL8:
 116 0006 FFF7FEFF 		bl	efc_set_wait_state
 117              	.LVL9:
 378:../asf/sam/services/flash_efc/flash_efc.c **** 	}
 379:../asf/sam/services/flash_efc/flash_efc.c **** #else
 380:../asf/sam/services/flash_efc/flash_efc.c **** 	} else {
 381:../asf/sam/services/flash_efc/flash_efc.c **** 		efc_set_wait_state(p_efc, 3);
 382:../asf/sam/services/flash_efc/flash_efc.c **** 	}
 383:../asf/sam/services/flash_efc/flash_efc.c **** #endif
 384:../asf/sam/services/flash_efc/flash_efc.c **** 
 385:../asf/sam/services/flash_efc/flash_efc.c **** 	return FLASH_RC_OK;
 386:../asf/sam/services/flash_efc/flash_efc.c **** }
 118              		.loc 1 386 0
 119 000a 0020     		movs	r0, #0
 120 000c 08BD     		pop	{r3, pc}
 121              	.L12:
 122 000e 00BF     		.align	2
 123              	.L11:
 124 0010 000C0E40 		.word	1074662400
 125              		.cfi_endproc
 126              	.LFE167:
ARM GAS  /tmp/ccfM1LZ3.s 			page 10


 127              		.size	flash_set_wait_state_adaptively, .-flash_set_wait_state_adaptively
 128              		.section	.text.flash_get_wait_state,"ax",%progbits
 129              		.align	1
 130              		.p2align 2,,3
 131              		.global	flash_get_wait_state
 132              		.syntax unified
 133              		.thumb
 134              		.thumb_func
 135              		.fpu fpv5-d16
 136              		.type	flash_get_wait_state, %function
 137              	flash_get_wait_state:
 138              	.LFB168:
 387:../asf/sam/services/flash_efc/flash_efc.c **** 
 388:../asf/sam/services/flash_efc/flash_efc.c **** /**
 389:../asf/sam/services/flash_efc/flash_efc.c ****  * \brief Get flash wait state.
 390:../asf/sam/services/flash_efc/flash_efc.c ****  *
 391:../asf/sam/services/flash_efc/flash_efc.c ****  * \param ul_address Flash bank start address.
 392:../asf/sam/services/flash_efc/flash_efc.c ****  *
 393:../asf/sam/services/flash_efc/flash_efc.c ****  * \return The number of wait states in cycle (no shift).
 394:../asf/sam/services/flash_efc/flash_efc.c ****  */
 395:../asf/sam/services/flash_efc/flash_efc.c **** uint32_t flash_get_wait_state(uint32_t ul_address)
 396:../asf/sam/services/flash_efc/flash_efc.c **** {
 139              		.loc 1 396 0
 140              		.cfi_startproc
 141              		@ args = 0, pretend = 0, frame = 0
 142              		@ frame_needed = 0, uses_anonymous_args = 0
 143              		@ link register save eliminated.
 144              	.LVL10:
 397:../asf/sam/services/flash_efc/flash_efc.c **** 	Efc *p_efc;
 398:../asf/sam/services/flash_efc/flash_efc.c **** 
 399:../asf/sam/services/flash_efc/flash_efc.c **** 	translate_address(&p_efc, ul_address, NULL, NULL);
 400:../asf/sam/services/flash_efc/flash_efc.c **** 	return efc_get_wait_state(p_efc);
 145              		.loc 1 400 0
 146 0000 0148     		ldr	r0, .L14
 147              	.LVL11:
 148 0002 FFF7FEBF 		b	efc_get_wait_state
 149              	.LVL12:
 150              	.L15:
 151 0006 00BF     		.align	2
 152              	.L14:
 153 0008 000C0E40 		.word	1074662400
 154              		.cfi_endproc
 155              	.LFE168:
 156              		.size	flash_get_wait_state, .-flash_get_wait_state
 157              		.section	.text.flash_get_descriptor,"ax",%progbits
 158              		.align	1
 159              		.p2align 2,,3
 160              		.global	flash_get_descriptor
 161              		.syntax unified
 162              		.thumb
 163              		.thumb_func
 164              		.fpu fpv5-d16
 165              		.type	flash_get_descriptor, %function
 166              	flash_get_descriptor:
 167              	.LFB169:
 401:../asf/sam/services/flash_efc/flash_efc.c **** }
 402:../asf/sam/services/flash_efc/flash_efc.c **** 
ARM GAS  /tmp/ccfM1LZ3.s 			page 11


 403:../asf/sam/services/flash_efc/flash_efc.c **** /**
 404:../asf/sam/services/flash_efc/flash_efc.c ****  * \brief Get flash descriptor.
 405:../asf/sam/services/flash_efc/flash_efc.c ****  *
 406:../asf/sam/services/flash_efc/flash_efc.c ****  * \param ul_address Flash bank start address.
 407:../asf/sam/services/flash_efc/flash_efc.c ****  * \param pul_flash_descriptor Pointer to a data buffer to store flash descriptor.
 408:../asf/sam/services/flash_efc/flash_efc.c ****  * \param ul_size Data buffer size in DWORD.
 409:../asf/sam/services/flash_efc/flash_efc.c ****  *
 410:../asf/sam/services/flash_efc/flash_efc.c ****  * \return The actual descriptor length.
 411:../asf/sam/services/flash_efc/flash_efc.c ****  */
 412:../asf/sam/services/flash_efc/flash_efc.c **** uint32_t flash_get_descriptor(uint32_t ul_address,
 413:../asf/sam/services/flash_efc/flash_efc.c **** 		uint32_t *pul_flash_descriptor, uint32_t ul_size)
 414:../asf/sam/services/flash_efc/flash_efc.c **** {
 168              		.loc 1 414 0
 169              		.cfi_startproc
 170              		@ args = 0, pretend = 0, frame = 0
 171              		@ frame_needed = 0, uses_anonymous_args = 0
 172              	.LVL13:
 173 0000 F8B5     		push	{r3, r4, r5, r6, r7, lr}
 174              		.cfi_def_cfa_offset 24
 175              		.cfi_offset 3, -24
 176              		.cfi_offset 4, -20
 177              		.cfi_offset 5, -16
 178              		.cfi_offset 6, -12
 179              		.cfi_offset 7, -8
 180              		.cfi_offset 14, -4
 181              		.loc 1 414 0
 182 0002 1646     		mov	r6, r2
 415:../asf/sam/services/flash_efc/flash_efc.c **** 	Efc *p_efc;
 416:../asf/sam/services/flash_efc/flash_efc.c **** 	uint32_t ul_tmp;
 417:../asf/sam/services/flash_efc/flash_efc.c **** 	uint32_t ul_cnt;
 418:../asf/sam/services/flash_efc/flash_efc.c **** 
 419:../asf/sam/services/flash_efc/flash_efc.c **** 	translate_address(&p_efc, ul_address, NULL, NULL);
 420:../asf/sam/services/flash_efc/flash_efc.c **** 
 421:../asf/sam/services/flash_efc/flash_efc.c **** 	/* Command fails */
 422:../asf/sam/services/flash_efc/flash_efc.c **** 	if (FLASH_RC_OK != efc_perform_command(p_efc, EFC_FCMD_GETD, 0)) {
 183              		.loc 1 422 0
 184 0004 0022     		movs	r2, #0
 185              	.LVL14:
 414:../asf/sam/services/flash_efc/flash_efc.c **** 	Efc *p_efc;
 186              		.loc 1 414 0
 187 0006 0D46     		mov	r5, r1
 188              		.loc 1 422 0
 189 0008 0A48     		ldr	r0, .L29
 190              	.LVL15:
 191 000a 1146     		mov	r1, r2
 192              	.LVL16:
 193 000c FFF7FEFF 		bl	efc_perform_command
 194              	.LVL17:
 195 0010 68B9     		cbnz	r0, .L19
 196 0012 0446     		mov	r4, r0
 423:../asf/sam/services/flash_efc/flash_efc.c **** 		return 0;
 424:../asf/sam/services/flash_efc/flash_efc.c **** 	} else {
 425:../asf/sam/services/flash_efc/flash_efc.c **** 		/* Read until no result */
 426:../asf/sam/services/flash_efc/flash_efc.c **** 		for (ul_cnt = 0;; ul_cnt++) {
 427:../asf/sam/services/flash_efc/flash_efc.c **** 			ul_tmp = efc_get_result(p_efc);
 197              		.loc 1 427 0
 198 0014 074F     		ldr	r7, .L29
ARM GAS  /tmp/ccfM1LZ3.s 			page 12


 199 0016 03E0     		b	.L18
 200              	.LVL18:
 201              	.L28:
 428:../asf/sam/services/flash_efc/flash_efc.c **** 			if ((ul_size > ul_cnt) && (ul_tmp != 0)) {
 202              		.loc 1 428 0
 203 0018 38B1     		cbz	r0, .L16
 426:../asf/sam/services/flash_efc/flash_efc.c **** 			ul_tmp = efc_get_result(p_efc);
 204              		.loc 1 426 0
 205 001a 0134     		adds	r4, r4, #1
 206              	.LVL19:
 429:../asf/sam/services/flash_efc/flash_efc.c **** 				*pul_flash_descriptor++ = ul_tmp;
 207              		.loc 1 429 0
 208 001c 45F8040B 		str	r0, [r5], #4
 209              	.LVL20:
 210              	.L18:
 427:../asf/sam/services/flash_efc/flash_efc.c **** 			if ((ul_size > ul_cnt) && (ul_tmp != 0)) {
 211              		.loc 1 427 0
 212 0020 3846     		mov	r0, r7
 213 0022 FFF7FEFF 		bl	efc_get_result
 214              	.LVL21:
 428:../asf/sam/services/flash_efc/flash_efc.c **** 				*pul_flash_descriptor++ = ul_tmp;
 215              		.loc 1 428 0
 216 0026 B442     		cmp	r4, r6
 217 0028 F6D3     		bcc	.L28
 218              	.L16:
 430:../asf/sam/services/flash_efc/flash_efc.c **** 			} else {
 431:../asf/sam/services/flash_efc/flash_efc.c **** 				break;
 432:../asf/sam/services/flash_efc/flash_efc.c **** 			}
 433:../asf/sam/services/flash_efc/flash_efc.c **** 		}
 434:../asf/sam/services/flash_efc/flash_efc.c **** 	}
 435:../asf/sam/services/flash_efc/flash_efc.c **** 
 436:../asf/sam/services/flash_efc/flash_efc.c **** 	return ul_cnt;
 437:../asf/sam/services/flash_efc/flash_efc.c **** }
 219              		.loc 1 437 0
 220 002a 2046     		mov	r0, r4
 221              	.LVL22:
 222 002c F8BD     		pop	{r3, r4, r5, r6, r7, pc}
 223              	.LVL23:
 224              	.L19:
 423:../asf/sam/services/flash_efc/flash_efc.c **** 	} else {
 225              		.loc 1 423 0
 226 002e 0024     		movs	r4, #0
 227              	.LVL24:
 228              		.loc 1 437 0
 229 0030 2046     		mov	r0, r4
 230 0032 F8BD     		pop	{r3, r4, r5, r6, r7, pc}
 231              	.LVL25:
 232              	.L30:
 233              		.align	2
 234              	.L29:
 235 0034 000C0E40 		.word	1074662400
 236              		.cfi_endproc
 237              	.LFE169:
 238              		.size	flash_get_descriptor, .-flash_get_descriptor
 239              		.section	.text.flash_get_page_count,"ax",%progbits
 240              		.align	1
 241              		.p2align 2,,3
ARM GAS  /tmp/ccfM1LZ3.s 			page 13


 242              		.global	flash_get_page_count
 243              		.syntax unified
 244              		.thumb
 245              		.thumb_func
 246              		.fpu fpv5-d16
 247              		.type	flash_get_page_count, %function
 248              	flash_get_page_count:
 249              	.LFB170:
 438:../asf/sam/services/flash_efc/flash_efc.c **** 
 439:../asf/sam/services/flash_efc/flash_efc.c **** /**
 440:../asf/sam/services/flash_efc/flash_efc.c ****  * \brief Get flash total page count for the specified bank.
 441:../asf/sam/services/flash_efc/flash_efc.c ****  *
 442:../asf/sam/services/flash_efc/flash_efc.c ****  * \note The flash descriptor must be fetched from flash_get_descriptor
 443:../asf/sam/services/flash_efc/flash_efc.c ****  * function first.
 444:../asf/sam/services/flash_efc/flash_efc.c ****  *
 445:../asf/sam/services/flash_efc/flash_efc.c ****  * \param pul_flash_descriptor Pointer to a flash descriptor.
 446:../asf/sam/services/flash_efc/flash_efc.c ****  *
 447:../asf/sam/services/flash_efc/flash_efc.c ****  * \return The flash total page count.
 448:../asf/sam/services/flash_efc/flash_efc.c ****  */
 449:../asf/sam/services/flash_efc/flash_efc.c **** uint32_t flash_get_page_count(const uint32_t *pul_flash_descriptor)
 450:../asf/sam/services/flash_efc/flash_efc.c **** {
 250              		.loc 1 450 0
 251              		.cfi_startproc
 252              		@ args = 0, pretend = 0, frame = 0
 253              		@ frame_needed = 0, uses_anonymous_args = 0
 254              		@ link register save eliminated.
 255              	.LVL26:
 451:../asf/sam/services/flash_efc/flash_efc.c **** 	return (pul_flash_descriptor[1] / pul_flash_descriptor[2]);
 256              		.loc 1 451 0
 257 0000 4268     		ldr	r2, [r0, #4]
 258 0002 8068     		ldr	r0, [r0, #8]
 259              	.LVL27:
 452:../asf/sam/services/flash_efc/flash_efc.c **** }
 260              		.loc 1 452 0
 261 0004 B2FBF0F0 		udiv	r0, r2, r0
 262 0008 7047     		bx	lr
 263              		.cfi_endproc
 264              	.LFE170:
 265              		.size	flash_get_page_count, .-flash_get_page_count
 266 000a 00BF     		.section	.text.flash_get_page_count_per_region,"ax",%progbits
 267              		.align	1
 268              		.p2align 2,,3
 269              		.global	flash_get_page_count_per_region
 270              		.syntax unified
 271              		.thumb
 272              		.thumb_func
 273              		.fpu fpv5-d16
 274              		.type	flash_get_page_count_per_region, %function
 275              	flash_get_page_count_per_region:
 276              	.LFB171:
 453:../asf/sam/services/flash_efc/flash_efc.c **** 
 454:../asf/sam/services/flash_efc/flash_efc.c **** /**
 455:../asf/sam/services/flash_efc/flash_efc.c ****  * \brief Get flash page count per region (plane) for the specified bank.
 456:../asf/sam/services/flash_efc/flash_efc.c ****  *
 457:../asf/sam/services/flash_efc/flash_efc.c ****  * \note The flash descriptor must be fetched from flash_get_descriptor
 458:../asf/sam/services/flash_efc/flash_efc.c ****  * function first.
 459:../asf/sam/services/flash_efc/flash_efc.c ****  *
ARM GAS  /tmp/ccfM1LZ3.s 			page 14


 460:../asf/sam/services/flash_efc/flash_efc.c ****  * \param pul_flash_descriptor Pointer to a flash descriptor.
 461:../asf/sam/services/flash_efc/flash_efc.c ****  *
 462:../asf/sam/services/flash_efc/flash_efc.c ****  * \return The flash page count per region (plane).
 463:../asf/sam/services/flash_efc/flash_efc.c ****  */
 464:../asf/sam/services/flash_efc/flash_efc.c **** uint32_t flash_get_page_count_per_region(const uint32_t *pul_flash_descriptor)
 465:../asf/sam/services/flash_efc/flash_efc.c **** {
 277              		.loc 1 465 0
 278              		.cfi_startproc
 279              		@ args = 0, pretend = 0, frame = 0
 280              		@ frame_needed = 0, uses_anonymous_args = 0
 281              		@ link register save eliminated.
 282              	.LVL28:
 466:../asf/sam/services/flash_efc/flash_efc.c **** 	return (pul_flash_descriptor[4] / pul_flash_descriptor[2]);
 283              		.loc 1 466 0
 284 0000 0269     		ldr	r2, [r0, #16]
 285 0002 8068     		ldr	r0, [r0, #8]
 286              	.LVL29:
 467:../asf/sam/services/flash_efc/flash_efc.c **** }
 287              		.loc 1 467 0
 288 0004 B2FBF0F0 		udiv	r0, r2, r0
 289 0008 7047     		bx	lr
 290              		.cfi_endproc
 291              	.LFE171:
 292              		.size	flash_get_page_count_per_region, .-flash_get_page_count_per_region
 293 000a 00BF     		.section	.text.flash_get_region_count,"ax",%progbits
 294              		.align	1
 295              		.p2align 2,,3
 296              		.global	flash_get_region_count
 297              		.syntax unified
 298              		.thumb
 299              		.thumb_func
 300              		.fpu fpv5-d16
 301              		.type	flash_get_region_count, %function
 302              	flash_get_region_count:
 303              	.LFB172:
 468:../asf/sam/services/flash_efc/flash_efc.c **** 
 469:../asf/sam/services/flash_efc/flash_efc.c **** /**
 470:../asf/sam/services/flash_efc/flash_efc.c ****  * \brief Get flash region (plane) count for the specified bank.
 471:../asf/sam/services/flash_efc/flash_efc.c ****  *
 472:../asf/sam/services/flash_efc/flash_efc.c ****  * \note The flash descriptor must be fetched from flash_get_descriptor
 473:../asf/sam/services/flash_efc/flash_efc.c ****  * function first.
 474:../asf/sam/services/flash_efc/flash_efc.c ****  *
 475:../asf/sam/services/flash_efc/flash_efc.c ****  * \param pul_flash_descriptor Pointer to a flash descriptor.
 476:../asf/sam/services/flash_efc/flash_efc.c ****  *
 477:../asf/sam/services/flash_efc/flash_efc.c ****  * \return The flash region (plane) count.
 478:../asf/sam/services/flash_efc/flash_efc.c ****  */
 479:../asf/sam/services/flash_efc/flash_efc.c **** uint32_t flash_get_region_count(const uint32_t *pul_flash_descriptor)
 480:../asf/sam/services/flash_efc/flash_efc.c **** {
 304              		.loc 1 480 0
 305              		.cfi_startproc
 306              		@ args = 0, pretend = 0, frame = 0
 307              		@ frame_needed = 0, uses_anonymous_args = 0
 308              		@ link register save eliminated.
 309              	.LVL30:
 481:../asf/sam/services/flash_efc/flash_efc.c **** 	return (pul_flash_descriptor[3]);
 482:../asf/sam/services/flash_efc/flash_efc.c **** }
 310              		.loc 1 482 0
ARM GAS  /tmp/ccfM1LZ3.s 			page 15


 311 0000 C068     		ldr	r0, [r0, #12]
 312              	.LVL31:
 313 0002 7047     		bx	lr
 314              		.cfi_endproc
 315              	.LFE172:
 316              		.size	flash_get_region_count, .-flash_get_region_count
 317              		.section	.text.flash_erase_all,"ax",%progbits
 318              		.align	1
 319              		.p2align 2,,3
 320              		.global	flash_erase_all
 321              		.syntax unified
 322              		.thumb
 323              		.thumb_func
 324              		.fpu fpv5-d16
 325              		.type	flash_erase_all, %function
 326              	flash_erase_all:
 327              	.LFB173:
 483:../asf/sam/services/flash_efc/flash_efc.c **** 
 484:../asf/sam/services/flash_efc/flash_efc.c **** /**
 485:../asf/sam/services/flash_efc/flash_efc.c ****  * \brief Erase the entire flash.
 486:../asf/sam/services/flash_efc/flash_efc.c ****  *
 487:../asf/sam/services/flash_efc/flash_efc.c ****  * \note Only the flash bank including ul_address will be erased. If there are
 488:../asf/sam/services/flash_efc/flash_efc.c ****  * two flash banks, we need to call this function twice with each bank start
 489:../asf/sam/services/flash_efc/flash_efc.c ****  * address.
 490:../asf/sam/services/flash_efc/flash_efc.c ****  *
 491:../asf/sam/services/flash_efc/flash_efc.c ****  * \param ul_address  Flash bank start address.
 492:../asf/sam/services/flash_efc/flash_efc.c ****  *
 493:../asf/sam/services/flash_efc/flash_efc.c ****  * \return 0 if successful; otherwise returns an error code.
 494:../asf/sam/services/flash_efc/flash_efc.c ****  */
 495:../asf/sam/services/flash_efc/flash_efc.c **** uint32_t flash_erase_all(uint32_t ul_address)
 496:../asf/sam/services/flash_efc/flash_efc.c **** {
 328              		.loc 1 496 0
 329              		.cfi_startproc
 330              		@ args = 0, pretend = 0, frame = 0
 331              		@ frame_needed = 0, uses_anonymous_args = 0
 332              	.LVL32:
 333 0000 08B5     		push	{r3, lr}
 334              		.cfi_def_cfa_offset 8
 335              		.cfi_offset 3, -8
 336              		.cfi_offset 14, -4
 497:../asf/sam/services/flash_efc/flash_efc.c **** 	Efc *p_efc;
 498:../asf/sam/services/flash_efc/flash_efc.c **** 
 499:../asf/sam/services/flash_efc/flash_efc.c **** 	translate_address(&p_efc, ul_address, NULL, NULL);
 500:../asf/sam/services/flash_efc/flash_efc.c **** 
 501:../asf/sam/services/flash_efc/flash_efc.c **** 	if (EFC_RC_OK != efc_perform_command(p_efc, EFC_FCMD_EA, 0)) {
 337              		.loc 1 501 0
 338 0002 0022     		movs	r2, #0
 339 0004 0521     		movs	r1, #5
 340 0006 0448     		ldr	r0, .L38
 341              	.LVL33:
 342 0008 FFF7FEFF 		bl	efc_perform_command
 343              	.LVL34:
 502:../asf/sam/services/flash_efc/flash_efc.c **** 		return FLASH_RC_ERROR;
 503:../asf/sam/services/flash_efc/flash_efc.c **** 	}
 504:../asf/sam/services/flash_efc/flash_efc.c **** 
 505:../asf/sam/services/flash_efc/flash_efc.c **** 	return FLASH_RC_OK;
 506:../asf/sam/services/flash_efc/flash_efc.c **** }
ARM GAS  /tmp/ccfM1LZ3.s 			page 16


 344              		.loc 1 506 0
 345 000c 0028     		cmp	r0, #0
 346 000e 14BF     		ite	ne
 347 0010 1020     		movne	r0, #16
 348 0012 0020     		moveq	r0, #0
 349 0014 08BD     		pop	{r3, pc}
 350              	.L39:
 351 0016 00BF     		.align	2
 352              	.L38:
 353 0018 000C0E40 		.word	1074662400
 354              		.cfi_endproc
 355              	.LFE173:
 356              		.size	flash_erase_all, .-flash_erase_all
 357              		.section	.text.flash_erase_page,"ax",%progbits
 358              		.align	1
 359              		.p2align 2,,3
 360              		.global	flash_erase_page
 361              		.syntax unified
 362              		.thumb
 363              		.thumb_func
 364              		.fpu fpv5-d16
 365              		.type	flash_erase_page, %function
 366              	flash_erase_page:
 367              	.LFB174:
 507:../asf/sam/services/flash_efc/flash_efc.c **** 
 508:../asf/sam/services/flash_efc/flash_efc.c **** #if (SAM3S8 || SAM3SD8)
 509:../asf/sam/services/flash_efc/flash_efc.c **** /**
 510:../asf/sam/services/flash_efc/flash_efc.c ****  * \brief Erase the flash by plane.
 511:../asf/sam/services/flash_efc/flash_efc.c ****  *
 512:../asf/sam/services/flash_efc/flash_efc.c ****  * \param ul_address Flash plane start address.
 513:../asf/sam/services/flash_efc/flash_efc.c ****  *
 514:../asf/sam/services/flash_efc/flash_efc.c ****  * \note Erase plane command needs a page number parameter which belongs to
 515:../asf/sam/services/flash_efc/flash_efc.c ****  * the plane to be erased.
 516:../asf/sam/services/flash_efc/flash_efc.c ****  *
 517:../asf/sam/services/flash_efc/flash_efc.c ****  * \return 0 if successful; otherwise returns an error code.
 518:../asf/sam/services/flash_efc/flash_efc.c ****  */
 519:../asf/sam/services/flash_efc/flash_efc.c **** uint32_t flash_erase_plane(uint32_t ul_address)
 520:../asf/sam/services/flash_efc/flash_efc.c **** {
 521:../asf/sam/services/flash_efc/flash_efc.c **** 	Efc *p_efc;
 522:../asf/sam/services/flash_efc/flash_efc.c **** 	uint16_t us_page;
 523:../asf/sam/services/flash_efc/flash_efc.c **** 
 524:../asf/sam/services/flash_efc/flash_efc.c **** 	translate_address(&p_efc, ul_address, &us_page, NULL);
 525:../asf/sam/services/flash_efc/flash_efc.c **** 
 526:../asf/sam/services/flash_efc/flash_efc.c **** 	if (EFC_RC_OK != efc_perform_command(p_efc, EFC_FCMD_EPL, us_page)) {
 527:../asf/sam/services/flash_efc/flash_efc.c **** 		return FLASH_RC_ERROR;
 528:../asf/sam/services/flash_efc/flash_efc.c **** 	}
 529:../asf/sam/services/flash_efc/flash_efc.c **** 
 530:../asf/sam/services/flash_efc/flash_efc.c **** 	return FLASH_RC_OK;
 531:../asf/sam/services/flash_efc/flash_efc.c **** }
 532:../asf/sam/services/flash_efc/flash_efc.c **** #endif
 533:../asf/sam/services/flash_efc/flash_efc.c **** 
 534:../asf/sam/services/flash_efc/flash_efc.c **** #if (SAM4S || SAM4E || SAM4N || SAM4C || SAMG || SAM4CP || SAM4CM || \
 535:../asf/sam/services/flash_efc/flash_efc.c **** 	 SAMV71 || SAMV70 || SAMS70 || SAME70)
 536:../asf/sam/services/flash_efc/flash_efc.c **** /**
 537:../asf/sam/services/flash_efc/flash_efc.c ****  * \brief Erase the specified pages of flash.
 538:../asf/sam/services/flash_efc/flash_efc.c ****  *
 539:../asf/sam/services/flash_efc/flash_efc.c ****  * \param ul_address Flash bank start address.
ARM GAS  /tmp/ccfM1LZ3.s 			page 17


 540:../asf/sam/services/flash_efc/flash_efc.c ****  *
 541:../asf/sam/services/flash_efc/flash_efc.c ****  * \return 0 if successful; otherwise returns an error code.
 542:../asf/sam/services/flash_efc/flash_efc.c ****  */
 543:../asf/sam/services/flash_efc/flash_efc.c **** uint32_t flash_erase_page(uint32_t ul_address, uint8_t uc_page_num)
 544:../asf/sam/services/flash_efc/flash_efc.c **** {
 368              		.loc 1 544 0
 369              		.cfi_startproc
 370              		@ args = 0, pretend = 0, frame = 0
 371              		@ frame_needed = 0, uses_anonymous_args = 0
 372              	.LVL35:
 545:../asf/sam/services/flash_efc/flash_efc.c **** 	Efc *p_efc;
 546:../asf/sam/services/flash_efc/flash_efc.c **** 	uint16_t us_page;
 547:../asf/sam/services/flash_efc/flash_efc.c **** 
 548:../asf/sam/services/flash_efc/flash_efc.c **** 	if (uc_page_num >= IFLASH_ERASE_PAGES_INVALID) {
 373              		.loc 1 548 0
 374 0000 0329     		cmp	r1, #3
 375 0002 01D9     		bls	.L49
 549:../asf/sam/services/flash_efc/flash_efc.c **** 		return FLASH_RC_INVALID;
 376              		.loc 1 549 0
 377 0004 1120     		movs	r0, #17
 378              	.LVL36:
 379 0006 7047     		bx	lr
 380              	.LVL37:
 381              	.L49:
 544:../asf/sam/services/flash_efc/flash_efc.c **** 	Efc *p_efc;
 382              		.loc 1 544 0
 383 0008 08B5     		push	{r3, lr}
 384              		.cfi_def_cfa_offset 8
 385              		.cfi_offset 3, -8
 386              		.cfi_offset 14, -4
 550:../asf/sam/services/flash_efc/flash_efc.c **** 	}
 551:../asf/sam/services/flash_efc/flash_efc.c **** 
 552:../asf/sam/services/flash_efc/flash_efc.c **** 	if (ul_address & (IFLASH_PAGE_SIZE - 1)) {
 387              		.loc 1 552 0
 388 000a C0F30803 		ubfx	r3, r0, #0, #9
 389 000e 0BB1     		cbz	r3, .L50
 549:../asf/sam/services/flash_efc/flash_efc.c **** 	}
 390              		.loc 1 549 0
 391 0010 1120     		movs	r0, #17
 392              	.LVL38:
 553:../asf/sam/services/flash_efc/flash_efc.c **** 		return FLASH_RC_INVALID;
 554:../asf/sam/services/flash_efc/flash_efc.c **** 	}
 555:../asf/sam/services/flash_efc/flash_efc.c **** 
 556:../asf/sam/services/flash_efc/flash_efc.c **** 	translate_address(&p_efc, ul_address, &us_page, NULL);
 557:../asf/sam/services/flash_efc/flash_efc.c **** 
 558:../asf/sam/services/flash_efc/flash_efc.c **** 	if (EFC_RC_OK != efc_perform_command(p_efc, EFC_FCMD_EPA,
 559:../asf/sam/services/flash_efc/flash_efc.c **** 					(us_page | uc_page_num))) {
 560:../asf/sam/services/flash_efc/flash_efc.c **** 		return FLASH_RC_ERROR;
 561:../asf/sam/services/flash_efc/flash_efc.c **** 	}
 562:../asf/sam/services/flash_efc/flash_efc.c **** 
 563:../asf/sam/services/flash_efc/flash_efc.c **** 	return FLASH_RC_OK;
 564:../asf/sam/services/flash_efc/flash_efc.c **** }
 393              		.loc 1 564 0
 394 0012 08BD     		pop	{r3, pc}
 395              	.LVL39:
 396              	.L50:
 397              	.LBB42:
ARM GAS  /tmp/ccfM1LZ3.s 			page 18


 398              	.LBB43:
 210:../asf/sam/services/flash_efc/flash_efc.c **** 	us_offset = (ul_addr - IFLASH_ADDR) % IFLASH_PAGE_SIZE;
 399              		.loc 1 210 0
 400 0014 A0F58003 		sub	r3, r0, #4194304
 401 0018 0A46     		mov	r2, r1
 402              	.LBE43:
 403              	.LBE42:
 558:../asf/sam/services/flash_efc/flash_efc.c **** 					(us_page | uc_page_num))) {
 404              		.loc 1 558 0
 405 001a 0648     		ldr	r0, .L51
 406              	.LVL40:
 407 001c 0721     		movs	r1, #7
 408              	.LVL41:
 559:../asf/sam/services/flash_efc/flash_efc.c **** 		return FLASH_RC_ERROR;
 409              		.loc 1 559 0
 410 001e C3F34F23 		ubfx	r3, r3, #9, #16
 411              	.LVL42:
 558:../asf/sam/services/flash_efc/flash_efc.c **** 					(us_page | uc_page_num))) {
 412              		.loc 1 558 0
 413 0022 1A43     		orrs	r2, r2, r3
 414 0024 FFF7FEFF 		bl	efc_perform_command
 415              	.LVL43:
 560:../asf/sam/services/flash_efc/flash_efc.c **** 	}
 416              		.loc 1 560 0
 417 0028 0028     		cmp	r0, #0
 418 002a 14BF     		ite	ne
 419 002c 1020     		movne	r0, #16
 420 002e 0020     		moveq	r0, #0
 421 0030 08BD     		pop	{r3, pc}
 422              	.L52:
 423 0032 00BF     		.align	2
 424              	.L51:
 425 0034 000C0E40 		.word	1074662400
 426              		.cfi_endproc
 427              	.LFE174:
 428              		.size	flash_erase_page, .-flash_erase_page
 429              		.section	.text.flash_erase_sector,"ax",%progbits
 430              		.align	1
 431              		.p2align 2,,3
 432              		.global	flash_erase_sector
 433              		.syntax unified
 434              		.thumb
 435              		.thumb_func
 436              		.fpu fpv5-d16
 437              		.type	flash_erase_sector, %function
 438              	flash_erase_sector:
 439              	.LFB175:
 565:../asf/sam/services/flash_efc/flash_efc.c **** 
 566:../asf/sam/services/flash_efc/flash_efc.c **** /**
 567:../asf/sam/services/flash_efc/flash_efc.c ****  * \brief Erase the flash sector.
 568:../asf/sam/services/flash_efc/flash_efc.c ****  *
 569:../asf/sam/services/flash_efc/flash_efc.c ****  * \note Erase sector command needs a page number parameter which belongs to
 570:../asf/sam/services/flash_efc/flash_efc.c ****  * the sector to be erased.
 571:../asf/sam/services/flash_efc/flash_efc.c ****  *
 572:../asf/sam/services/flash_efc/flash_efc.c ****  * \param ul_address Flash sector start address.
 573:../asf/sam/services/flash_efc/flash_efc.c ****  *
 574:../asf/sam/services/flash_efc/flash_efc.c ****  * \return 0 if successful; otherwise returns an error code.
ARM GAS  /tmp/ccfM1LZ3.s 			page 19


 575:../asf/sam/services/flash_efc/flash_efc.c ****  */
 576:../asf/sam/services/flash_efc/flash_efc.c **** uint32_t flash_erase_sector(uint32_t ul_address)
 577:../asf/sam/services/flash_efc/flash_efc.c **** {
 440              		.loc 1 577 0
 441              		.cfi_startproc
 442              		@ args = 0, pretend = 0, frame = 0
 443              		@ frame_needed = 0, uses_anonymous_args = 0
 444              	.LVL44:
 445              	.LBB44:
 446              	.LBB45:
 210:../asf/sam/services/flash_efc/flash_efc.c **** 	us_offset = (ul_addr - IFLASH_ADDR) % IFLASH_PAGE_SIZE;
 447              		.loc 1 210 0
 448 0000 A0F58002 		sub	r2, r0, #4194304
 449              	.LBE45:
 450              	.LBE44:
 578:../asf/sam/services/flash_efc/flash_efc.c **** 	Efc *p_efc;
 579:../asf/sam/services/flash_efc/flash_efc.c **** 	uint16_t us_page;
 580:../asf/sam/services/flash_efc/flash_efc.c **** 
 581:../asf/sam/services/flash_efc/flash_efc.c **** 	translate_address(&p_efc, ul_address, &us_page, NULL);
 582:../asf/sam/services/flash_efc/flash_efc.c **** 
 583:../asf/sam/services/flash_efc/flash_efc.c **** 	if (EFC_RC_OK != efc_perform_command(p_efc, EFC_FCMD_ES, us_page)) {
 451              		.loc 1 583 0
 452 0004 1121     		movs	r1, #17
 453 0006 0548     		ldr	r0, .L57
 454              	.LVL45:
 455 0008 C2F34F22 		ubfx	r2, r2, #9, #16
 456              	.LVL46:
 577:../asf/sam/services/flash_efc/flash_efc.c **** 	Efc *p_efc;
 457              		.loc 1 577 0
 458 000c 08B5     		push	{r3, lr}
 459              		.cfi_def_cfa_offset 8
 460              		.cfi_offset 3, -8
 461              		.cfi_offset 14, -4
 462              		.loc 1 583 0
 463 000e FFF7FEFF 		bl	efc_perform_command
 464              	.LVL47:
 584:../asf/sam/services/flash_efc/flash_efc.c **** 		return FLASH_RC_ERROR;
 585:../asf/sam/services/flash_efc/flash_efc.c **** 	}
 586:../asf/sam/services/flash_efc/flash_efc.c **** 
 587:../asf/sam/services/flash_efc/flash_efc.c **** 	return FLASH_RC_OK;
 588:../asf/sam/services/flash_efc/flash_efc.c **** }
 465              		.loc 1 588 0
 466 0012 0028     		cmp	r0, #0
 467 0014 14BF     		ite	ne
 468 0016 1020     		movne	r0, #16
 469 0018 0020     		moveq	r0, #0
 470 001a 08BD     		pop	{r3, pc}
 471              	.L58:
 472              		.align	2
 473              	.L57:
 474 001c 000C0E40 		.word	1074662400
 475              		.cfi_endproc
 476              	.LFE175:
 477              		.size	flash_erase_sector, .-flash_erase_sector
 478              		.section	.text.flash_write,"ax",%progbits
 479              		.align	1
 480              		.p2align 2,,3
ARM GAS  /tmp/ccfM1LZ3.s 			page 20


 481              		.global	flash_write
 482              		.syntax unified
 483              		.thumb
 484              		.thumb_func
 485              		.fpu fpv5-d16
 486              		.type	flash_write, %function
 487              	flash_write:
 488              	.LFB176:
 589:../asf/sam/services/flash_efc/flash_efc.c **** #endif
 590:../asf/sam/services/flash_efc/flash_efc.c **** 
 591:../asf/sam/services/flash_efc/flash_efc.c **** /**
 592:../asf/sam/services/flash_efc/flash_efc.c ****  * \brief Write a data buffer on flash.
 593:../asf/sam/services/flash_efc/flash_efc.c ****  *
 594:../asf/sam/services/flash_efc/flash_efc.c ****  * \note This function works in polling mode, and thus only returns when the
 595:../asf/sam/services/flash_efc/flash_efc.c ****  * data has been effectively written.
 596:../asf/sam/services/flash_efc/flash_efc.c ****  * \note For dual bank flash, this function doesn't support cross write from
 597:../asf/sam/services/flash_efc/flash_efc.c ****  * bank 0 to bank 1. In this case, flash_write must be called twice (ie for
 598:../asf/sam/services/flash_efc/flash_efc.c ****  * each bank).
 599:../asf/sam/services/flash_efc/flash_efc.c ****  *
 600:../asf/sam/services/flash_efc/flash_efc.c ****  * \param ul_address Write address.
 601:../asf/sam/services/flash_efc/flash_efc.c ****  * \param p_buffer Data buffer.
 602:../asf/sam/services/flash_efc/flash_efc.c ****  * \param ul_size Size of data buffer in bytes.
 603:../asf/sam/services/flash_efc/flash_efc.c ****  * \param ul_erase_flag Flag to set if erase first.
 604:../asf/sam/services/flash_efc/flash_efc.c ****  *
 605:../asf/sam/services/flash_efc/flash_efc.c ****  * \return 0 if successful, otherwise returns an error code.
 606:../asf/sam/services/flash_efc/flash_efc.c ****  */
 607:../asf/sam/services/flash_efc/flash_efc.c **** uint32_t flash_write(uint32_t ul_address, const void *p_buffer,
 608:../asf/sam/services/flash_efc/flash_efc.c **** 		uint32_t ul_size, uint32_t ul_erase_flag)
 609:../asf/sam/services/flash_efc/flash_efc.c **** {
 489              		.loc 1 609 0
 490              		.cfi_startproc
 491              		@ args = 0, pretend = 0, frame = 8
 492              		@ frame_needed = 0, uses_anonymous_args = 0
 493              	.LVL48:
 494 0000 2DE9F04F 		push	{r4, r5, r6, r7, r8, r9, r10, fp, lr}
 495              		.cfi_def_cfa_offset 36
 496              		.cfi_offset 4, -36
 497              		.cfi_offset 5, -32
 498              		.cfi_offset 6, -28
 499              		.cfi_offset 7, -24
 500              		.cfi_offset 8, -20
 501              		.cfi_offset 9, -16
 502              		.cfi_offset 10, -12
 503              		.cfi_offset 11, -8
 504              		.cfi_offset 14, -4
 505              	.LBB46:
 506              	.LBB47:
 210:../asf/sam/services/flash_efc/flash_efc.c **** 	us_offset = (ul_addr - IFLASH_ADDR) % IFLASH_PAGE_SIZE;
 507              		.loc 1 210 0
 508 0004 A0F58008 		sub	r8, r0, #4194304
 509              	.LBE47:
 510              	.LBE46:
 511              		.loc 1 609 0
 512 0008 83B0     		sub	sp, sp, #12
 513              		.cfi_def_cfa_offset 48
 514              	.LBB50:
 515              	.LBB48:
ARM GAS  /tmp/ccfM1LZ3.s 			page 21


 211:../asf/sam/services/flash_efc/flash_efc.c **** #endif
 516              		.loc 1 211 0
 517 000a C0F30806 		ubfx	r6, r0, #0, #9
 518              	.LBE48:
 519              	.LBE50:
 520              		.loc 1 609 0
 521 000e 0193     		str	r3, [sp, #4]
 522              	.LBB51:
 523              	.LBB49:
 210:../asf/sam/services/flash_efc/flash_efc.c **** 	us_offset = (ul_addr - IFLASH_ADDR) % IFLASH_PAGE_SIZE;
 524              		.loc 1 210 0
 525 0010 C8F34F28 		ubfx	r8, r8, #9, #16
 526              	.LVL49:
 527              	.LBE49:
 528              	.LBE51:
 610:../asf/sam/services/flash_efc/flash_efc.c **** 	Efc *p_efc;
 611:../asf/sam/services/flash_efc/flash_efc.c **** 	uint32_t ul_fws_temp;
 612:../asf/sam/services/flash_efc/flash_efc.c **** 	uint16_t us_page;
 613:../asf/sam/services/flash_efc/flash_efc.c **** 	uint16_t us_offset;
 614:../asf/sam/services/flash_efc/flash_efc.c **** 	uint32_t writeSize;
 615:../asf/sam/services/flash_efc/flash_efc.c **** 	uint32_t ul_page_addr;
 616:../asf/sam/services/flash_efc/flash_efc.c **** 	uint16_t us_padding;
 617:../asf/sam/services/flash_efc/flash_efc.c **** 	uint32_t ul_error;
 618:../asf/sam/services/flash_efc/flash_efc.c **** 	uint32_t ul_idx;
 619:../asf/sam/services/flash_efc/flash_efc.c **** 	uint32_t *p_aligned_dest;
 620:../asf/sam/services/flash_efc/flash_efc.c **** 	uint8_t *puc_page_buffer = (uint8_t *) gs_ul_page_buffer;
 621:../asf/sam/services/flash_efc/flash_efc.c **** 
 622:../asf/sam/services/flash_efc/flash_efc.c **** 	translate_address(&p_efc, ul_address, &us_page, &us_offset);
 623:../asf/sam/services/flash_efc/flash_efc.c **** 
 624:../asf/sam/services/flash_efc/flash_efc.c **** #if SAM3S || SAM3N || SAM3XA || SAM3U
 625:../asf/sam/services/flash_efc/flash_efc.c **** 	/* According to the errata, set the wait state value to 6. */
 626:../asf/sam/services/flash_efc/flash_efc.c **** 	ul_fws_temp = efc_get_wait_state(p_efc);
 627:../asf/sam/services/flash_efc/flash_efc.c **** 	efc_set_wait_state(p_efc, 6);
 628:../asf/sam/services/flash_efc/flash_efc.c **** #else
 629:../asf/sam/services/flash_efc/flash_efc.c **** 	UNUSED(ul_fws_temp);
 630:../asf/sam/services/flash_efc/flash_efc.c **** #endif
 631:../asf/sam/services/flash_efc/flash_efc.c **** 
 632:../asf/sam/services/flash_efc/flash_efc.c **** 	/* Write all pages */
 633:../asf/sam/services/flash_efc/flash_efc.c **** 	while (ul_size > 0) {
 529              		.loc 1 633 0
 530 0014 002A     		cmp	r2, #0
 531 0016 3DD0     		beq	.L66
 532 0018 DFF88CB0 		ldr	fp, .L71
 533 001c 8A46     		mov	r10, r1
 534 001e 9146     		mov	r9, r2
 535 0020 0BF5FE75 		add	r5, fp, #508
 536              	.LVL50:
 537              	.L65:
 634:../asf/sam/services/flash_efc/flash_efc.c **** 		/* Copy data in temporary buffer to avoid alignment problems. */
 635:../asf/sam/services/flash_efc/flash_efc.c **** 		writeSize = Min((uint32_t) IFLASH_PAGE_SIZE - us_offset,
 538              		.loc 1 635 0
 539 0024 C6F50073 		rsb	r3, r6, #512
 540              	.LBB52:
 541              	.LBB53:
 270:../asf/sam/services/flash_efc/flash_efc.c **** #endif
 542              		.loc 1 270 0
 543 0028 08F50054 		add	r4, r8, #8192
ARM GAS  /tmp/ccfM1LZ3.s 			page 22


 544              	.LBE53:
 545              	.LBE52:
 636:../asf/sam/services/flash_efc/flash_efc.c **** 				ul_size);
 637:../asf/sam/services/flash_efc/flash_efc.c **** 		compute_address(p_efc, us_page, 0, &ul_page_addr);
 638:../asf/sam/services/flash_efc/flash_efc.c **** 		us_padding = IFLASH_PAGE_SIZE - us_offset - writeSize;
 639:../asf/sam/services/flash_efc/flash_efc.c **** 
 640:../asf/sam/services/flash_efc/flash_efc.c **** 		/* Pre-buffer data */
 641:../asf/sam/services/flash_efc/flash_efc.c **** 		memcpy(puc_page_buffer, (void *)ul_page_addr, us_offset);
 546              		.loc 1 641 0
 547 002c 3246     		mov	r2, r6
 548 002e 1E48     		ldr	r0, .L71
 635:../asf/sam/services/flash_efc/flash_efc.c **** 				ul_size);
 549              		.loc 1 635 0
 550 0030 4B45     		cmp	r3, r9
 551              	.LBB55:
 552              	.LBB54:
 270:../asf/sam/services/flash_efc/flash_efc.c **** #endif
 553              		.loc 1 270 0
 554 0032 4FEA4424 		lsl	r4, r4, #9
 555              	.LBE54:
 556              	.LBE55:
 635:../asf/sam/services/flash_efc/flash_efc.c **** 				ul_size);
 557              		.loc 1 635 0
 558 0036 1F46     		mov	r7, r3
 559 0038 0093     		str	r3, [sp]
 560 003a 28BF     		it	cs
 561 003c 4F46     		movcs	r7, r9
 562              	.LVL51:
 563              		.loc 1 641 0
 564 003e 2146     		mov	r1, r4
 565 0040 FFF7FEFF 		bl	memcpy
 566              	.LVL52:
 642:../asf/sam/services/flash_efc/flash_efc.c **** 
 643:../asf/sam/services/flash_efc/flash_efc.c **** 		/* Buffer data */
 644:../asf/sam/services/flash_efc/flash_efc.c **** 		memcpy(puc_page_buffer + us_offset, p_buffer, writeSize);
 567              		.loc 1 644 0
 568 0044 5146     		mov	r1, r10
 569 0046 3A46     		mov	r2, r7
 570 0048 0BEB0600 		add	r0, fp, r6
 571 004c FFF7FEFF 		bl	memcpy
 572              	.LVL53:
 638:../asf/sam/services/flash_efc/flash_efc.c **** 
 573              		.loc 1 638 0
 574 0050 009B     		ldr	r3, [sp]
 645:../asf/sam/services/flash_efc/flash_efc.c **** 
 646:../asf/sam/services/flash_efc/flash_efc.c **** 		/* Post-buffer data */
 647:../asf/sam/services/flash_efc/flash_efc.c **** 		memcpy(puc_page_buffer + us_offset + writeSize,
 648:../asf/sam/services/flash_efc/flash_efc.c **** 				(void *)(ul_page_addr + us_offset + writeSize),
 575              		.loc 1 648 0
 576 0052 3919     		adds	r1, r7, r4
 647:../asf/sam/services/flash_efc/flash_efc.c **** 				(void *)(ul_page_addr + us_offset + writeSize),
 577              		.loc 1 647 0
 578 0054 F019     		adds	r0, r6, r7
 638:../asf/sam/services/flash_efc/flash_efc.c **** 
 579              		.loc 1 638 0
 580 0056 DB1B     		subs	r3, r3, r7
 581 0058 043C     		subs	r4, r4, #4
ARM GAS  /tmp/ccfM1LZ3.s 			page 23


 647:../asf/sam/services/flash_efc/flash_efc.c **** 				(void *)(ul_page_addr + us_offset + writeSize),
 582              		.loc 1 647 0
 583 005a 5844     		add	r0, r0, fp
 584 005c 3144     		add	r1, r1, r6
 585 005e 9AB2     		uxth	r2, r3
 586 0060 FFF7FEFF 		bl	memcpy
 587              	.LVL54:
 588 0064 114B     		ldr	r3, .L71+4
 589              	.LVL55:
 590              	.L62:
 649:../asf/sam/services/flash_efc/flash_efc.c **** 				us_padding);
 650:../asf/sam/services/flash_efc/flash_efc.c **** 
 651:../asf/sam/services/flash_efc/flash_efc.c **** 		/* Write page.
 652:../asf/sam/services/flash_efc/flash_efc.c **** 		 * Writing 8-bit and 16-bit data is not allowed and may lead to
 653:../asf/sam/services/flash_efc/flash_efc.c **** 		 * unpredictable data corruption.
 654:../asf/sam/services/flash_efc/flash_efc.c **** 		 */
 655:../asf/sam/services/flash_efc/flash_efc.c **** 		p_aligned_dest = (uint32_t *) ul_page_addr;
 656:../asf/sam/services/flash_efc/flash_efc.c **** 		for (ul_idx = 0; ul_idx < (IFLASH_PAGE_SIZE / sizeof(uint32_t));
 657:../asf/sam/services/flash_efc/flash_efc.c **** 				++ul_idx) {
 658:../asf/sam/services/flash_efc/flash_efc.c **** 			*p_aligned_dest++ = gs_ul_page_buffer[ul_idx];
 591              		.loc 1 658 0
 592 0066 53F8042F 		ldr	r2, [r3, #4]!
 656:../asf/sam/services/flash_efc/flash_efc.c **** 				++ul_idx) {
 593              		.loc 1 656 0
 594 006a 9D42     		cmp	r5, r3
 595              		.loc 1 658 0
 596 006c 44F8042F 		str	r2, [r4, #4]!
 656:../asf/sam/services/flash_efc/flash_efc.c **** 				++ul_idx) {
 597              		.loc 1 656 0
 598 0070 F9D1     		bne	.L62
 659:../asf/sam/services/flash_efc/flash_efc.c **** 		}
 660:../asf/sam/services/flash_efc/flash_efc.c **** 
 661:../asf/sam/services/flash_efc/flash_efc.c **** 		if (ul_erase_flag) {
 599              		.loc 1 661 0
 600 0072 019B     		ldr	r3, [sp, #4]
 662:../asf/sam/services/flash_efc/flash_efc.c **** 			ul_error = efc_perform_command(p_efc, EFC_FCMD_EWP,
 601              		.loc 1 662 0
 602 0074 4246     		mov	r2, r8
 661:../asf/sam/services/flash_efc/flash_efc.c **** 			ul_error = efc_perform_command(p_efc, EFC_FCMD_EWP,
 603              		.loc 1 661 0
 604 0076 8BB1     		cbz	r3, .L63
 605              		.loc 1 662 0
 606 0078 0321     		movs	r1, #3
 607 007a 0D48     		ldr	r0, .L71+8
 608 007c FFF7FEFF 		bl	efc_perform_command
 609              	.LVL56:
 610              	.L64:
 663:../asf/sam/services/flash_efc/flash_efc.c **** 					us_page);
 664:../asf/sam/services/flash_efc/flash_efc.c **** 		} else {
 665:../asf/sam/services/flash_efc/flash_efc.c **** 			ul_error = efc_perform_command(p_efc, EFC_FCMD_WP,
 666:../asf/sam/services/flash_efc/flash_efc.c **** 					us_page);
 667:../asf/sam/services/flash_efc/flash_efc.c **** 		}
 668:../asf/sam/services/flash_efc/flash_efc.c **** 
 669:../asf/sam/services/flash_efc/flash_efc.c **** 		if (ul_error) {
 611              		.loc 1 669 0
 612 0080 48B9     		cbnz	r0, .L59
 670:../asf/sam/services/flash_efc/flash_efc.c **** 			return ul_error;
ARM GAS  /tmp/ccfM1LZ3.s 			page 24


 671:../asf/sam/services/flash_efc/flash_efc.c **** 		}
 672:../asf/sam/services/flash_efc/flash_efc.c **** 
 673:../asf/sam/services/flash_efc/flash_efc.c **** 		/* Progression */
 674:../asf/sam/services/flash_efc/flash_efc.c **** 		p_buffer = (void *)((uint32_t) p_buffer + writeSize);
 675:../asf/sam/services/flash_efc/flash_efc.c **** 		ul_size -= writeSize;
 676:../asf/sam/services/flash_efc/flash_efc.c **** 		us_page++;
 613              		.loc 1 676 0
 614 0082 08F10108 		add	r8, r8, #1
 615              	.LVL57:
 633:../asf/sam/services/flash_efc/flash_efc.c **** 		/* Copy data in temporary buffer to avoid alignment problems. */
 616              		.loc 1 633 0
 617 0086 B9EB0709 		subs	r9, r9, r7
 618              	.LVL58:
 674:../asf/sam/services/flash_efc/flash_efc.c **** 		ul_size -= writeSize;
 619              		.loc 1 674 0
 620 008a BA44     		add	r10, r10, r7
 621              	.LVL59:
 677:../asf/sam/services/flash_efc/flash_efc.c **** 		us_offset = 0;
 622              		.loc 1 677 0
 623 008c 0646     		mov	r6, r0
 624              	.LVL60:
 676:../asf/sam/services/flash_efc/flash_efc.c **** 		us_offset = 0;
 625              		.loc 1 676 0
 626 008e 1FFA88F8 		uxth	r8, r8
 627              	.LVL61:
 633:../asf/sam/services/flash_efc/flash_efc.c **** 		/* Copy data in temporary buffer to avoid alignment problems. */
 628              		.loc 1 633 0
 629 0092 C7D1     		bne	.L65
 630              	.LVL62:
 631              	.L66:
 678:../asf/sam/services/flash_efc/flash_efc.c **** 	}
 679:../asf/sam/services/flash_efc/flash_efc.c **** 
 680:../asf/sam/services/flash_efc/flash_efc.c **** #if SAM3S || SAM3N || SAM3XA || SAM3U
 681:../asf/sam/services/flash_efc/flash_efc.c **** 	/* According to the errata, restore the wait state value. */
 682:../asf/sam/services/flash_efc/flash_efc.c **** 	efc_set_wait_state(p_efc, ul_fws_temp);
 683:../asf/sam/services/flash_efc/flash_efc.c **** #endif
 684:../asf/sam/services/flash_efc/flash_efc.c **** 
 685:../asf/sam/services/flash_efc/flash_efc.c **** 	return FLASH_RC_OK;
 632              		.loc 1 685 0
 633 0094 0020     		movs	r0, #0
 634              	.L59:
 686:../asf/sam/services/flash_efc/flash_efc.c **** }
 635              		.loc 1 686 0
 636 0096 03B0     		add	sp, sp, #12
 637              		.cfi_remember_state
 638              		.cfi_def_cfa_offset 36
 639              		@ sp needed
 640 0098 BDE8F08F 		pop	{r4, r5, r6, r7, r8, r9, r10, fp, pc}
 641              	.LVL63:
 642              	.L63:
 643              		.cfi_restore_state
 665:../asf/sam/services/flash_efc/flash_efc.c **** 					us_page);
 644              		.loc 1 665 0
 645 009c 0121     		movs	r1, #1
 646 009e 0448     		ldr	r0, .L71+8
 647 00a0 FFF7FEFF 		bl	efc_perform_command
 648              	.LVL64:
ARM GAS  /tmp/ccfM1LZ3.s 			page 25


 649 00a4 ECE7     		b	.L64
 650              	.L72:
 651 00a6 00BF     		.align	2
 652              	.L71:
 653 00a8 00000000 		.word	.LANCHOR0
 654 00ac FCFFFFFF 		.word	.LANCHOR0-4
 655 00b0 000C0E40 		.word	1074662400
 656              		.cfi_endproc
 657              	.LFE176:
 658              		.size	flash_write, .-flash_write
 659              		.section	.text.flash_lock,"ax",%progbits
 660              		.align	1
 661              		.p2align 2,,3
 662              		.global	flash_lock
 663              		.syntax unified
 664              		.thumb
 665              		.thumb_func
 666              		.fpu fpv5-d16
 667              		.type	flash_lock, %function
 668              	flash_lock:
 669              	.LFB177:
 687:../asf/sam/services/flash_efc/flash_efc.c **** 
 688:../asf/sam/services/flash_efc/flash_efc.c **** 
 689:../asf/sam/services/flash_efc/flash_efc.c **** /**
 690:../asf/sam/services/flash_efc/flash_efc.c ****  * \brief Lock all the regions in the given address range. The actual lock
 691:../asf/sam/services/flash_efc/flash_efc.c ****  * range is reported through two output parameters.
 692:../asf/sam/services/flash_efc/flash_efc.c ****  *
 693:../asf/sam/services/flash_efc/flash_efc.c ****  * \param ul_start Start address of lock range.
 694:../asf/sam/services/flash_efc/flash_efc.c ****  * \param ul_end End address of lock range.
 695:../asf/sam/services/flash_efc/flash_efc.c ****  * \param pul_actual_start Start address of the actual lock range (optional).
 696:../asf/sam/services/flash_efc/flash_efc.c ****  * \param pul_actual_end End address of the actual lock range (optional).
 697:../asf/sam/services/flash_efc/flash_efc.c ****  *
 698:../asf/sam/services/flash_efc/flash_efc.c ****  * \return 0 if successful, otherwise returns an error code.
 699:../asf/sam/services/flash_efc/flash_efc.c ****  */
 700:../asf/sam/services/flash_efc/flash_efc.c **** uint32_t flash_lock(uint32_t ul_start, uint32_t ul_end,
 701:../asf/sam/services/flash_efc/flash_efc.c **** 		uint32_t *pul_actual_start, uint32_t *pul_actual_end)
 702:../asf/sam/services/flash_efc/flash_efc.c **** {
 670              		.loc 1 702 0
 671              		.cfi_startproc
 672              		@ args = 0, pretend = 0, frame = 0
 673              		@ frame_needed = 0, uses_anonymous_args = 0
 674              	.LVL65:
 675 0000 70B5     		push	{r4, r5, r6, lr}
 676              		.cfi_def_cfa_offset 16
 677              		.cfi_offset 4, -16
 678              		.cfi_offset 5, -12
 679              		.cfi_offset 6, -8
 680              		.cfi_offset 14, -4
 681              	.LBB56:
 682              	.LBB57:
 292:../asf/sam/services/flash_efc/flash_efc.c **** 	ul_actual_end = ul_end - (ul_end % IFLASH_LOCK_REGION_SIZE) +
 683              		.loc 1 292 0
 684 0002 124C     		ldr	r4, .L89
 293:../asf/sam/services/flash_efc/flash_efc.c **** 			IFLASH_LOCK_REGION_SIZE - 1;
 685              		.loc 1 293 0
 686 0004 43F6FF75 		movw	r5, #16383
 687 0008 2140     		ands	r1, r1, r4
ARM GAS  /tmp/ccfM1LZ3.s 			page 26


 688              	.LVL66:
 292:../asf/sam/services/flash_efc/flash_efc.c **** 	ul_actual_end = ul_end - (ul_end % IFLASH_LOCK_REGION_SIZE) +
 689              		.loc 1 292 0
 690 000a 0440     		ands	r4, r4, r0
 691              	.LVL67:
 293:../asf/sam/services/flash_efc/flash_efc.c **** 			IFLASH_LOCK_REGION_SIZE - 1;
 692              		.loc 1 293 0
 693 000c 0D44     		add	r5, r5, r1
 694              	.LVL68:
 695              	.LBE57:
 696              	.LBE56:
 703:../asf/sam/services/flash_efc/flash_efc.c **** 	Efc *p_efc;
 704:../asf/sam/services/flash_efc/flash_efc.c **** 	uint32_t ul_actual_start, ul_actual_end;
 705:../asf/sam/services/flash_efc/flash_efc.c **** 	uint16_t us_start_page, us_end_page;
 706:../asf/sam/services/flash_efc/flash_efc.c **** 	uint32_t ul_error;
 707:../asf/sam/services/flash_efc/flash_efc.c **** 	uint16_t us_num_pages_in_region =
 708:../asf/sam/services/flash_efc/flash_efc.c **** 			IFLASH_LOCK_REGION_SIZE / IFLASH_PAGE_SIZE;
 709:../asf/sam/services/flash_efc/flash_efc.c **** 
 710:../asf/sam/services/flash_efc/flash_efc.c **** 	/* Compute actual lock range and store it */
 711:../asf/sam/services/flash_efc/flash_efc.c **** 	compute_lock_range(ul_start, ul_end, &ul_actual_start, &ul_actual_end);
 712:../asf/sam/services/flash_efc/flash_efc.c **** 
 713:../asf/sam/services/flash_efc/flash_efc.c **** 	if (pul_actual_start != NULL) {
 697              		.loc 1 713 0
 698 000e 02B1     		cbz	r2, .L74
 714:../asf/sam/services/flash_efc/flash_efc.c **** 		*pul_actual_start = ul_actual_start;
 699              		.loc 1 714 0
 700 0010 1460     		str	r4, [r2]
 701              	.L74:
 715:../asf/sam/services/flash_efc/flash_efc.c **** 	}
 716:../asf/sam/services/flash_efc/flash_efc.c **** 
 717:../asf/sam/services/flash_efc/flash_efc.c **** 	if (pul_actual_end != NULL) {
 702              		.loc 1 717 0
 703 0012 03B1     		cbz	r3, .L75
 718:../asf/sam/services/flash_efc/flash_efc.c **** 		*pul_actual_end = ul_actual_end;
 704              		.loc 1 718 0
 705 0014 1D60     		str	r5, [r3]
 706              	.L75:
 707              	.LVL69:
 708              	.LBB58:
 709              	.LBB59:
 210:../asf/sam/services/flash_efc/flash_efc.c **** 	us_offset = (ul_addr - IFLASH_ADDR) % IFLASH_PAGE_SIZE;
 710              		.loc 1 210 0
 711 0016 A4F58004 		sub	r4, r4, #4194304
 712              	.LVL70:
 713              	.LBE59:
 714              	.LBE58:
 715              	.LBB62:
 716              	.LBB63:
 717 001a 6FF47F15 		mvn	r5, #4177920
 718              	.LVL71:
 719              	.LBE63:
 720              	.LBE62:
 721              	.LBB66:
 722              	.LBB60:
 723 001e 640A     		lsrs	r4, r4, #9
 724              	.LVL72:
 725              	.LBE60:
ARM GAS  /tmp/ccfM1LZ3.s 			page 27


 726              	.LBE66:
 727              	.LBB67:
 728              	.LBB64:
 729 0020 0D44     		add	r5, r5, r1
 730              	.LBE64:
 731              	.LBE67:
 732              	.LBB68:
 733              	.LBB61:
 734 0022 A4B2     		uxth	r4, r4
 735              	.LVL73:
 736              	.LBE61:
 737              	.LBE68:
 738              	.LBB69:
 739              	.LBB65:
 740 0024 C5F34F25 		ubfx	r5, r5, #9, #16
 741              	.LVL74:
 742              	.LBE65:
 743              	.LBE69:
 719:../asf/sam/services/flash_efc/flash_efc.c **** 	}
 720:../asf/sam/services/flash_efc/flash_efc.c **** 
 721:../asf/sam/services/flash_efc/flash_efc.c **** 	/* Compute page numbers */
 722:../asf/sam/services/flash_efc/flash_efc.c **** 	translate_address(&p_efc, ul_actual_start, &us_start_page, 0);
 723:../asf/sam/services/flash_efc/flash_efc.c **** 	translate_address(0, ul_actual_end, &us_end_page, 0);
 724:../asf/sam/services/flash_efc/flash_efc.c **** 
 725:../asf/sam/services/flash_efc/flash_efc.c **** 	/* Lock all pages */
 726:../asf/sam/services/flash_efc/flash_efc.c **** 	while (us_start_page < us_end_page) {
 744              		.loc 1 726 0
 745 0028 A542     		cmp	r5, r4
 746 002a 0DD9     		bls	.L79
 727:../asf/sam/services/flash_efc/flash_efc.c **** 		ul_error = efc_perform_command(p_efc, EFC_FCMD_SLB, us_start_page);
 747              		.loc 1 727 0
 748 002c 084E     		ldr	r6, .L89+4
 749 002e 02E0     		b	.L78
 750              	.LVL75:
 751              	.L88:
 728:../asf/sam/services/flash_efc/flash_efc.c **** 
 729:../asf/sam/services/flash_efc/flash_efc.c **** 		if (ul_error) {
 730:../asf/sam/services/flash_efc/flash_efc.c **** 			return ul_error;
 731:../asf/sam/services/flash_efc/flash_efc.c **** 		}
 732:../asf/sam/services/flash_efc/flash_efc.c **** 		us_start_page += us_num_pages_in_region;
 752              		.loc 1 732 0
 753 0030 A4B2     		uxth	r4, r4
 754              	.LVL76:
 726:../asf/sam/services/flash_efc/flash_efc.c **** 		ul_error = efc_perform_command(p_efc, EFC_FCMD_SLB, us_start_page);
 755              		.loc 1 726 0
 756 0032 AC42     		cmp	r4, r5
 757 0034 08D2     		bcs	.L79
 758              	.LVL77:
 759              	.L78:
 727:../asf/sam/services/flash_efc/flash_efc.c **** 		ul_error = efc_perform_command(p_efc, EFC_FCMD_SLB, us_start_page);
 760              		.loc 1 727 0
 761 0036 2246     		mov	r2, r4
 762 0038 0821     		movs	r1, #8
 763 003a 3046     		mov	r0, r6
 764              		.loc 1 732 0
 765 003c 2034     		adds	r4, r4, #32
 766              	.LVL78:
ARM GAS  /tmp/ccfM1LZ3.s 			page 28


 727:../asf/sam/services/flash_efc/flash_efc.c **** 		ul_error = efc_perform_command(p_efc, EFC_FCMD_SLB, us_start_page);
 767              		.loc 1 727 0
 768 003e FFF7FEFF 		bl	efc_perform_command
 769              	.LVL79:
 729:../asf/sam/services/flash_efc/flash_efc.c **** 			return ul_error;
 770              		.loc 1 729 0
 771 0042 0028     		cmp	r0, #0
 772 0044 F4D0     		beq	.L88
 733:../asf/sam/services/flash_efc/flash_efc.c **** 	}
 734:../asf/sam/services/flash_efc/flash_efc.c **** 
 735:../asf/sam/services/flash_efc/flash_efc.c **** 	return FLASH_RC_OK;
 736:../asf/sam/services/flash_efc/flash_efc.c **** }
 773              		.loc 1 736 0
 774 0046 70BD     		pop	{r4, r5, r6, pc}
 775              	.LVL80:
 776              	.L79:
 735:../asf/sam/services/flash_efc/flash_efc.c **** }
 777              		.loc 1 735 0
 778 0048 0020     		movs	r0, #0
 779 004a 70BD     		pop	{r4, r5, r6, pc}
 780              	.LVL81:
 781              	.L90:
 782              		.align	2
 783              	.L89:
 784 004c 00C0FFFF 		.word	-16384
 785 0050 000C0E40 		.word	1074662400
 786              		.cfi_endproc
 787              	.LFE177:
 788              		.size	flash_lock, .-flash_lock
 789              		.section	.text.flash_unlock,"ax",%progbits
 790              		.align	1
 791              		.p2align 2,,3
 792              		.global	flash_unlock
 793              		.syntax unified
 794              		.thumb
 795              		.thumb_func
 796              		.fpu fpv5-d16
 797              		.type	flash_unlock, %function
 798              	flash_unlock:
 799              	.LFB178:
 737:../asf/sam/services/flash_efc/flash_efc.c **** 
 738:../asf/sam/services/flash_efc/flash_efc.c **** /**
 739:../asf/sam/services/flash_efc/flash_efc.c ****  * \brief Unlock all the regions in the given address range. The actual unlock
 740:../asf/sam/services/flash_efc/flash_efc.c ****  * range is reported through two output parameters.
 741:../asf/sam/services/flash_efc/flash_efc.c ****  *
 742:../asf/sam/services/flash_efc/flash_efc.c ****  * \param ul_start Start address of unlock range.
 743:../asf/sam/services/flash_efc/flash_efc.c ****  * \param ul_end End address of unlock range.
 744:../asf/sam/services/flash_efc/flash_efc.c ****  * \param pul_actual_start Start address of the actual unlock range (optional).
 745:../asf/sam/services/flash_efc/flash_efc.c ****  * \param pul_actual_end End address of the actual unlock range (optional).
 746:../asf/sam/services/flash_efc/flash_efc.c ****  *
 747:../asf/sam/services/flash_efc/flash_efc.c ****  * \return 0 if successful, otherwise returns an error code.
 748:../asf/sam/services/flash_efc/flash_efc.c ****  */
 749:../asf/sam/services/flash_efc/flash_efc.c **** uint32_t flash_unlock(uint32_t ul_start, uint32_t ul_end,
 750:../asf/sam/services/flash_efc/flash_efc.c **** 		uint32_t *pul_actual_start, uint32_t *pul_actual_end)
 751:../asf/sam/services/flash_efc/flash_efc.c **** {
 800              		.loc 1 751 0
 801              		.cfi_startproc
ARM GAS  /tmp/ccfM1LZ3.s 			page 29


 802              		@ args = 0, pretend = 0, frame = 0
 803              		@ frame_needed = 0, uses_anonymous_args = 0
 804              	.LVL82:
 805 0000 70B5     		push	{r4, r5, r6, lr}
 806              		.cfi_def_cfa_offset 16
 807              		.cfi_offset 4, -16
 808              		.cfi_offset 5, -12
 809              		.cfi_offset 6, -8
 810              		.cfi_offset 14, -4
 811              	.LBB70:
 812              	.LBB71:
 292:../asf/sam/services/flash_efc/flash_efc.c **** 	ul_actual_end = ul_end - (ul_end % IFLASH_LOCK_REGION_SIZE) +
 813              		.loc 1 292 0
 814 0002 124C     		ldr	r4, .L107
 293:../asf/sam/services/flash_efc/flash_efc.c **** 			IFLASH_LOCK_REGION_SIZE - 1;
 815              		.loc 1 293 0
 816 0004 43F6FF75 		movw	r5, #16383
 817 0008 2140     		ands	r1, r1, r4
 818              	.LVL83:
 292:../asf/sam/services/flash_efc/flash_efc.c **** 	ul_actual_end = ul_end - (ul_end % IFLASH_LOCK_REGION_SIZE) +
 819              		.loc 1 292 0
 820 000a 0440     		ands	r4, r4, r0
 821              	.LVL84:
 293:../asf/sam/services/flash_efc/flash_efc.c **** 			IFLASH_LOCK_REGION_SIZE - 1;
 822              		.loc 1 293 0
 823 000c 0D44     		add	r5, r5, r1
 824              	.LVL85:
 825              	.LBE71:
 826              	.LBE70:
 752:../asf/sam/services/flash_efc/flash_efc.c **** 	Efc *p_efc;
 753:../asf/sam/services/flash_efc/flash_efc.c **** 	uint32_t ul_actual_start, ul_actual_end;
 754:../asf/sam/services/flash_efc/flash_efc.c **** 	uint16_t us_start_page, us_end_page;
 755:../asf/sam/services/flash_efc/flash_efc.c **** 	uint32_t ul_error;
 756:../asf/sam/services/flash_efc/flash_efc.c **** 	uint16_t us_num_pages_in_region =
 757:../asf/sam/services/flash_efc/flash_efc.c **** 			IFLASH_LOCK_REGION_SIZE / IFLASH_PAGE_SIZE;
 758:../asf/sam/services/flash_efc/flash_efc.c **** 
 759:../asf/sam/services/flash_efc/flash_efc.c **** 	/* Compute actual unlock range and store it */
 760:../asf/sam/services/flash_efc/flash_efc.c **** 	compute_lock_range(ul_start, ul_end, &ul_actual_start, &ul_actual_end);
 761:../asf/sam/services/flash_efc/flash_efc.c **** 	if (pul_actual_start != NULL) {
 827              		.loc 1 761 0
 828 000e 02B1     		cbz	r2, .L92
 762:../asf/sam/services/flash_efc/flash_efc.c **** 		*pul_actual_start = ul_actual_start;
 829              		.loc 1 762 0
 830 0010 1460     		str	r4, [r2]
 831              	.L92:
 763:../asf/sam/services/flash_efc/flash_efc.c **** 	}
 764:../asf/sam/services/flash_efc/flash_efc.c **** 	if (pul_actual_end != NULL) {
 832              		.loc 1 764 0
 833 0012 03B1     		cbz	r3, .L93
 765:../asf/sam/services/flash_efc/flash_efc.c **** 		*pul_actual_end = ul_actual_end;
 834              		.loc 1 765 0
 835 0014 1D60     		str	r5, [r3]
 836              	.L93:
 837              	.LVL86:
 838              	.LBB72:
 839              	.LBB73:
 210:../asf/sam/services/flash_efc/flash_efc.c **** 	us_offset = (ul_addr - IFLASH_ADDR) % IFLASH_PAGE_SIZE;
ARM GAS  /tmp/ccfM1LZ3.s 			page 30


 840              		.loc 1 210 0
 841 0016 A4F58004 		sub	r4, r4, #4194304
 842              	.LVL87:
 843              	.LBE73:
 844              	.LBE72:
 845              	.LBB76:
 846              	.LBB77:
 847 001a 6FF47F15 		mvn	r5, #4177920
 848              	.LVL88:
 849              	.LBE77:
 850              	.LBE76:
 851              	.LBB80:
 852              	.LBB74:
 853 001e 640A     		lsrs	r4, r4, #9
 854              	.LBE74:
 855              	.LBE80:
 856              	.LBB81:
 857              	.LBB78:
 858 0020 0D44     		add	r5, r5, r1
 859              	.LBE78:
 860              	.LBE81:
 861              	.LBB82:
 862              	.LBB75:
 863 0022 A4B2     		uxth	r4, r4
 864              	.LVL89:
 865              	.LBE75:
 866              	.LBE82:
 867              	.LBB83:
 868              	.LBB79:
 869 0024 C5F34F25 		ubfx	r5, r5, #9, #16
 870              	.LVL90:
 871              	.LBE79:
 872              	.LBE83:
 766:../asf/sam/services/flash_efc/flash_efc.c **** 	}
 767:../asf/sam/services/flash_efc/flash_efc.c **** 
 768:../asf/sam/services/flash_efc/flash_efc.c **** 	/* Compute page numbers */
 769:../asf/sam/services/flash_efc/flash_efc.c **** 	translate_address(&p_efc, ul_actual_start, &us_start_page, 0);
 770:../asf/sam/services/flash_efc/flash_efc.c **** 	translate_address(0, ul_actual_end, &us_end_page, 0);
 771:../asf/sam/services/flash_efc/flash_efc.c **** 
 772:../asf/sam/services/flash_efc/flash_efc.c **** 	/* Unlock all pages */
 773:../asf/sam/services/flash_efc/flash_efc.c **** 	while (us_start_page < us_end_page) {
 873              		.loc 1 773 0
 874 0028 A542     		cmp	r5, r4
 875 002a 0DD9     		bls	.L97
 774:../asf/sam/services/flash_efc/flash_efc.c **** 		ul_error = efc_perform_command(p_efc, EFC_FCMD_CLB,
 876              		.loc 1 774 0
 877 002c 084E     		ldr	r6, .L107+4
 878 002e 02E0     		b	.L96
 879              	.LVL91:
 880              	.L106:
 775:../asf/sam/services/flash_efc/flash_efc.c **** 				us_start_page);
 776:../asf/sam/services/flash_efc/flash_efc.c **** 		if (ul_error) {
 777:../asf/sam/services/flash_efc/flash_efc.c **** 			return ul_error;
 778:../asf/sam/services/flash_efc/flash_efc.c **** 		}
 779:../asf/sam/services/flash_efc/flash_efc.c **** 		us_start_page += us_num_pages_in_region;
 881              		.loc 1 779 0
 882 0030 A4B2     		uxth	r4, r4
ARM GAS  /tmp/ccfM1LZ3.s 			page 31


 883              	.LVL92:
 773:../asf/sam/services/flash_efc/flash_efc.c **** 		ul_error = efc_perform_command(p_efc, EFC_FCMD_CLB,
 884              		.loc 1 773 0
 885 0032 AC42     		cmp	r4, r5
 886 0034 08D2     		bcs	.L97
 887              	.LVL93:
 888              	.L96:
 774:../asf/sam/services/flash_efc/flash_efc.c **** 		ul_error = efc_perform_command(p_efc, EFC_FCMD_CLB,
 889              		.loc 1 774 0
 890 0036 2246     		mov	r2, r4
 891 0038 0921     		movs	r1, #9
 892 003a 3046     		mov	r0, r6
 893              		.loc 1 779 0
 894 003c 2034     		adds	r4, r4, #32
 895              	.LVL94:
 774:../asf/sam/services/flash_efc/flash_efc.c **** 		ul_error = efc_perform_command(p_efc, EFC_FCMD_CLB,
 896              		.loc 1 774 0
 897 003e FFF7FEFF 		bl	efc_perform_command
 898              	.LVL95:
 776:../asf/sam/services/flash_efc/flash_efc.c **** 			return ul_error;
 899              		.loc 1 776 0
 900 0042 0028     		cmp	r0, #0
 901 0044 F4D0     		beq	.L106
 780:../asf/sam/services/flash_efc/flash_efc.c **** 	}
 781:../asf/sam/services/flash_efc/flash_efc.c **** 
 782:../asf/sam/services/flash_efc/flash_efc.c **** 	return FLASH_RC_OK;
 783:../asf/sam/services/flash_efc/flash_efc.c **** }
 902              		.loc 1 783 0
 903 0046 70BD     		pop	{r4, r5, r6, pc}
 904              	.LVL96:
 905              	.L97:
 782:../asf/sam/services/flash_efc/flash_efc.c **** }
 906              		.loc 1 782 0
 907 0048 0020     		movs	r0, #0
 908 004a 70BD     		pop	{r4, r5, r6, pc}
 909              	.LVL97:
 910              	.L108:
 911              		.align	2
 912              	.L107:
 913 004c 00C0FFFF 		.word	-16384
 914 0050 000C0E40 		.word	1074662400
 915              		.cfi_endproc
 916              	.LFE178:
 917              		.size	flash_unlock, .-flash_unlock
 918              		.section	.text.flash_is_locked,"ax",%progbits
 919              		.align	1
 920              		.p2align 2,,3
 921              		.global	flash_is_locked
 922              		.syntax unified
 923              		.thumb
 924              		.thumb_func
 925              		.fpu fpv5-d16
 926              		.type	flash_is_locked, %function
 927              	flash_is_locked:
 928              	.LFB179:
 784:../asf/sam/services/flash_efc/flash_efc.c **** 
 785:../asf/sam/services/flash_efc/flash_efc.c **** /**
ARM GAS  /tmp/ccfM1LZ3.s 			page 32


 786:../asf/sam/services/flash_efc/flash_efc.c ****  * \brief Get the number of locked regions inside the given address range.
 787:../asf/sam/services/flash_efc/flash_efc.c ****  *
 788:../asf/sam/services/flash_efc/flash_efc.c ****  * \param ul_start Start address of range
 789:../asf/sam/services/flash_efc/flash_efc.c ****  * \param ul_end End address of range.
 790:../asf/sam/services/flash_efc/flash_efc.c ****  *
 791:../asf/sam/services/flash_efc/flash_efc.c ****  * \return The number of locked regions inside the given address range.
 792:../asf/sam/services/flash_efc/flash_efc.c ****  */
 793:../asf/sam/services/flash_efc/flash_efc.c **** uint32_t flash_is_locked(uint32_t ul_start, uint32_t ul_end)
 794:../asf/sam/services/flash_efc/flash_efc.c **** {
 929              		.loc 1 794 0
 930              		.cfi_startproc
 931              		@ args = 0, pretend = 0, frame = 0
 932              		@ frame_needed = 0, uses_anonymous_args = 0
 933              	.LVL98:
 934 0000 2DE9F041 		push	{r4, r5, r6, r7, r8, lr}
 935              		.cfi_def_cfa_offset 24
 936              		.cfi_offset 4, -24
 937              		.cfi_offset 5, -20
 938              		.cfi_offset 6, -16
 939              		.cfi_offset 7, -12
 940              		.cfi_offset 8, -8
 941              		.cfi_offset 14, -4
 795:../asf/sam/services/flash_efc/flash_efc.c **** 	Efc *p_efc;
 796:../asf/sam/services/flash_efc/flash_efc.c **** 	uint16_t us_start_page, us_end_page;
 797:../asf/sam/services/flash_efc/flash_efc.c **** 	uint8_t uc_start_region, uc_end_region;
 798:../asf/sam/services/flash_efc/flash_efc.c **** 	uint16_t us_num_pages_in_region;
 799:../asf/sam/services/flash_efc/flash_efc.c **** 	uint32_t ul_status;
 800:../asf/sam/services/flash_efc/flash_efc.c **** 	uint32_t ul_error;
 801:../asf/sam/services/flash_efc/flash_efc.c **** 	uint32_t ul_num_locked_regions = 0;
 802:../asf/sam/services/flash_efc/flash_efc.c **** 	uint32_t ul_count = 0;
 803:../asf/sam/services/flash_efc/flash_efc.c **** 	uint32_t ul_bit = 0;
 804:../asf/sam/services/flash_efc/flash_efc.c **** 
 805:../asf/sam/services/flash_efc/flash_efc.c **** 	Assert(ul_end >= ul_start);
 806:../asf/sam/services/flash_efc/flash_efc.c **** 
 807:../asf/sam/services/flash_efc/flash_efc.c **** #ifdef EFC1
 808:../asf/sam/services/flash_efc/flash_efc.c **** 	Assert(((ul_start >= IFLASH0_ADDR)
 809:../asf/sam/services/flash_efc/flash_efc.c **** 				&& (ul_end <= IFLASH0_ADDR + IFLASH0_SIZE))
 810:../asf/sam/services/flash_efc/flash_efc.c **** 				|| ((ul_start >= IFLASH1_ADDR)
 811:../asf/sam/services/flash_efc/flash_efc.c **** 					&& (ul_end <= IFLASH1_ADDR + IFLASH1_SIZE)));
 812:../asf/sam/services/flash_efc/flash_efc.c **** #else
 813:../asf/sam/services/flash_efc/flash_efc.c **** 	Assert((ul_start >= IFLASH_ADDR)
 814:../asf/sam/services/flash_efc/flash_efc.c **** 				&& (ul_end <= IFLASH_ADDR + IFLASH_SIZE));
 815:../asf/sam/services/flash_efc/flash_efc.c **** #endif
 816:../asf/sam/services/flash_efc/flash_efc.c **** 
 817:../asf/sam/services/flash_efc/flash_efc.c **** 	/* Compute page numbers */
 818:../asf/sam/services/flash_efc/flash_efc.c **** 	translate_address(&p_efc, ul_start, &us_start_page, 0);
 819:../asf/sam/services/flash_efc/flash_efc.c **** 	translate_address(0, ul_end, &us_end_page, 0);
 820:../asf/sam/services/flash_efc/flash_efc.c **** 
 821:../asf/sam/services/flash_efc/flash_efc.c **** 	/* Compute region numbers */
 822:../asf/sam/services/flash_efc/flash_efc.c **** 	us_num_pages_in_region = IFLASH_LOCK_REGION_SIZE / IFLASH_PAGE_SIZE;
 823:../asf/sam/services/flash_efc/flash_efc.c **** 	uc_start_region = us_start_page / us_num_pages_in_region;
 824:../asf/sam/services/flash_efc/flash_efc.c **** 	uc_end_region = us_end_page / us_num_pages_in_region;
 825:../asf/sam/services/flash_efc/flash_efc.c **** 
 826:../asf/sam/services/flash_efc/flash_efc.c **** 	/* Retrieve lock status */
 827:../asf/sam/services/flash_efc/flash_efc.c **** 	ul_error = efc_perform_command(p_efc, EFC_FCMD_GLB, 0);
 942              		.loc 1 827 0
 943 0004 0022     		movs	r2, #0
ARM GAS  /tmp/ccfM1LZ3.s 			page 33


 794:../asf/sam/services/flash_efc/flash_efc.c **** 	Efc *p_efc;
 944              		.loc 1 794 0
 945 0006 0746     		mov	r7, r0
 946              	.LVL99:
 947 0008 0E46     		mov	r6, r1
 948              	.LVL100:
 949              		.loc 1 827 0
 950 000a 1E48     		ldr	r0, .L124
 951              	.LVL101:
 952 000c 0A21     		movs	r1, #10
 953              	.LVL102:
 954 000e FFF7FEFF 		bl	efc_perform_command
 955              	.LVL103:
 828:../asf/sam/services/flash_efc/flash_efc.c **** 	if (ul_error) {
 956              		.loc 1 828 0
 957 0012 0446     		mov	r4, r0
 958 0014 10B1     		cbz	r0, .L122
 959              	.LVL104:
 960              	.L109:
 829:../asf/sam/services/flash_efc/flash_efc.c **** 		return ul_error;
 830:../asf/sam/services/flash_efc/flash_efc.c **** 	}
 831:../asf/sam/services/flash_efc/flash_efc.c ****     UNUSED(ul_error);
 832:../asf/sam/services/flash_efc/flash_efc.c **** 
 833:../asf/sam/services/flash_efc/flash_efc.c **** 	/* Skip unrequested regions (if necessary) */
 834:../asf/sam/services/flash_efc/flash_efc.c **** 	ul_status = efc_get_result(p_efc);
 835:../asf/sam/services/flash_efc/flash_efc.c **** 	while (!(ul_count <= uc_start_region &&
 836:../asf/sam/services/flash_efc/flash_efc.c **** 			uc_start_region < (ul_count + 32))) {
 837:../asf/sam/services/flash_efc/flash_efc.c **** 		ul_status = efc_get_result(p_efc);
 838:../asf/sam/services/flash_efc/flash_efc.c **** 		ul_count += 32;
 839:../asf/sam/services/flash_efc/flash_efc.c **** 	}
 840:../asf/sam/services/flash_efc/flash_efc.c **** 
 841:../asf/sam/services/flash_efc/flash_efc.c **** 	/* Check status of each involved region */
 842:../asf/sam/services/flash_efc/flash_efc.c **** 	ul_bit = uc_start_region - ul_count;
 843:../asf/sam/services/flash_efc/flash_efc.c **** 
 844:../asf/sam/services/flash_efc/flash_efc.c **** 	/* Number of region to check (must be > 0) */
 845:../asf/sam/services/flash_efc/flash_efc.c **** 	ul_count = uc_end_region - uc_start_region + 1;
 846:../asf/sam/services/flash_efc/flash_efc.c **** 
 847:../asf/sam/services/flash_efc/flash_efc.c **** 	while (ul_count > 0) {
 848:../asf/sam/services/flash_efc/flash_efc.c **** 		if (ul_status & (1 << (ul_bit))) {
 849:../asf/sam/services/flash_efc/flash_efc.c **** 			ul_num_locked_regions++;
 850:../asf/sam/services/flash_efc/flash_efc.c **** 		}
 851:../asf/sam/services/flash_efc/flash_efc.c **** 
 852:../asf/sam/services/flash_efc/flash_efc.c **** 		ul_count -= 1;
 853:../asf/sam/services/flash_efc/flash_efc.c **** 		ul_bit += 1;
 854:../asf/sam/services/flash_efc/flash_efc.c **** 		if (ul_bit == 32) {
 855:../asf/sam/services/flash_efc/flash_efc.c **** 			ul_status = efc_get_result(p_efc);
 856:../asf/sam/services/flash_efc/flash_efc.c **** 			ul_bit = 0;
 857:../asf/sam/services/flash_efc/flash_efc.c **** 		}
 858:../asf/sam/services/flash_efc/flash_efc.c **** 	}
 859:../asf/sam/services/flash_efc/flash_efc.c **** 
 860:../asf/sam/services/flash_efc/flash_efc.c **** 	return ul_num_locked_regions;
 861:../asf/sam/services/flash_efc/flash_efc.c **** }
 961              		.loc 1 861 0
 962 0016 2046     		mov	r0, r4
 963 0018 BDE8F081 		pop	{r4, r5, r6, r7, r8, pc}
 964              	.LVL105:
 965              	.L122:
ARM GAS  /tmp/ccfM1LZ3.s 			page 34


 834:../asf/sam/services/flash_efc/flash_efc.c **** 	while (!(ul_count <= uc_start_region &&
 966              		.loc 1 834 0
 967 001c 1948     		ldr	r0, .L124
 968              	.LVL106:
 823:../asf/sam/services/flash_efc/flash_efc.c **** 	uc_end_region = us_end_page / us_num_pages_in_region;
 969              		.loc 1 823 0
 970 001e C7F38737 		ubfx	r7, r7, #14, #8
 971              	.LVL107:
 834:../asf/sam/services/flash_efc/flash_efc.c **** 	while (!(ul_count <= uc_start_region &&
 972              		.loc 1 834 0
 973 0022 FFF7FEFF 		bl	efc_get_result
 974              	.LVL108:
 835:../asf/sam/services/flash_efc/flash_efc.c **** 			uc_start_region < (ul_count + 32))) {
 975              		.loc 1 835 0
 976 0026 2025     		movs	r5, #32
 834:../asf/sam/services/flash_efc/flash_efc.c **** 	while (!(ul_count <= uc_start_region &&
 977              		.loc 1 834 0
 978 0028 0146     		mov	r1, r0
 979              	.LVL109:
 837:../asf/sam/services/flash_efc/flash_efc.c **** 		ul_count += 32;
 980              		.loc 1 837 0
 981 002a DFF85880 		ldr	r8, .L124
 835:../asf/sam/services/flash_efc/flash_efc.c **** 			uc_start_region < (ul_count + 32))) {
 982              		.loc 1 835 0
 983 002e 04E0     		b	.L111
 984              	.LVL110:
 985              	.L112:
 837:../asf/sam/services/flash_efc/flash_efc.c **** 		ul_count += 32;
 986              		.loc 1 837 0
 987 0030 FFF7FEFF 		bl	efc_get_result
 988              	.LVL111:
 989 0034 2034     		adds	r4, r4, #32
 990              	.LVL112:
 991 0036 0146     		mov	r1, r0
 992              	.LVL113:
 993 0038 2035     		adds	r5, r5, #32
 994              	.L111:
 995              	.LVL114:
 835:../asf/sam/services/flash_efc/flash_efc.c **** 			uc_start_region < (ul_count + 32))) {
 996              		.loc 1 835 0
 997 003a A742     		cmp	r7, r4
 837:../asf/sam/services/flash_efc/flash_efc.c **** 		ul_count += 32;
 998              		.loc 1 837 0
 999 003c 4046     		mov	r0, r8
 835:../asf/sam/services/flash_efc/flash_efc.c **** 			uc_start_region < (ul_count + 32))) {
 1000              		.loc 1 835 0
 1001 003e F7D3     		bcc	.L112
 835:../asf/sam/services/flash_efc/flash_efc.c **** 			uc_start_region < (ul_count + 32))) {
 1002              		.loc 1 835 0 is_stmt 0 discriminator 1
 1003 0040 AF42     		cmp	r7, r5
 1004 0042 F5D2     		bcs	.L112
 845:../asf/sam/services/flash_efc/flash_efc.c **** 
 1005              		.loc 1 845 0 is_stmt 1
 1006 0044 C6F38736 		ubfx	r6, r6, #14, #8
 1007              	.LVL115:
 842:../asf/sam/services/flash_efc/flash_efc.c **** 
 1008              		.loc 1 842 0
ARM GAS  /tmp/ccfM1LZ3.s 			page 35


 1009 0048 3B1B     		subs	r3, r7, r4
 1010              	.LVL116:
 845:../asf/sam/services/flash_efc/flash_efc.c **** 
 1011              		.loc 1 845 0
 1012 004a F41B     		subs	r4, r6, r7
 1013              	.LVL117:
 847:../asf/sam/services/flash_efc/flash_efc.c **** 		if (ul_status & (1 << (ul_bit))) {
 1014              		.loc 1 847 0
 1015 004c 651C     		adds	r5, r4, #1
 1016              	.LVL118:
 1017 004e 16D0     		beq	.L116
 1018 0050 0024     		movs	r4, #0
 848:../asf/sam/services/flash_efc/flash_efc.c **** 			ul_num_locked_regions++;
 1019              		.loc 1 848 0
 1020 0052 0126     		movs	r6, #1
 855:../asf/sam/services/flash_efc/flash_efc.c **** 			ul_bit = 0;
 1021              		.loc 1 855 0
 1022 0054 0B4F     		ldr	r7, .L124
 1023              	.LVL119:
 1024              	.L115:
 848:../asf/sam/services/flash_efc/flash_efc.c **** 			ul_num_locked_regions++;
 1025              		.loc 1 848 0
 1026 0056 06FA03F2 		lsl	r2, r6, r3
 1027 005a 0133     		adds	r3, r3, #1
 1028              	.LVL120:
 852:../asf/sam/services/flash_efc/flash_efc.c **** 		ul_bit += 1;
 1029              		.loc 1 852 0
 1030 005c 013D     		subs	r5, r5, #1
 1031              	.LVL121:
 848:../asf/sam/services/flash_efc/flash_efc.c **** 			ul_num_locked_regions++;
 1032              		.loc 1 848 0
 1033 005e 0A42     		tst	r2, r1
 849:../asf/sam/services/flash_efc/flash_efc.c **** 		}
 1034              		.loc 1 849 0
 1035 0060 18BF     		it	ne
 1036 0062 0134     		addne	r4, r4, #1
 1037              	.LVL122:
 854:../asf/sam/services/flash_efc/flash_efc.c **** 			ul_status = efc_get_result(p_efc);
 1038              		.loc 1 854 0
 1039 0064 202B     		cmp	r3, #32
 1040 0066 02D0     		beq	.L123
 847:../asf/sam/services/flash_efc/flash_efc.c **** 		if (ul_status & (1 << (ul_bit))) {
 1041              		.loc 1 847 0
 1042 0068 002D     		cmp	r5, #0
 1043 006a F4D1     		bne	.L115
 1044 006c D3E7     		b	.L109
 1045              	.L123:
 855:../asf/sam/services/flash_efc/flash_efc.c **** 			ul_bit = 0;
 1046              		.loc 1 855 0
 1047 006e 3846     		mov	r0, r7
 1048 0070 FFF7FEFF 		bl	efc_get_result
 1049              	.LVL123:
 856:../asf/sam/services/flash_efc/flash_efc.c **** 		}
 1050              		.loc 1 856 0
 1051 0074 0023     		movs	r3, #0
 855:../asf/sam/services/flash_efc/flash_efc.c **** 			ul_bit = 0;
 1052              		.loc 1 855 0
ARM GAS  /tmp/ccfM1LZ3.s 			page 36


 1053 0076 0146     		mov	r1, r0
 1054              	.LVL124:
 847:../asf/sam/services/flash_efc/flash_efc.c **** 		if (ul_status & (1 << (ul_bit))) {
 1055              		.loc 1 847 0
 1056 0078 002D     		cmp	r5, #0
 1057 007a ECD1     		bne	.L115
 1058 007c CBE7     		b	.L109
 1059              	.LVL125:
 1060              	.L116:
 801:../asf/sam/services/flash_efc/flash_efc.c **** 	uint32_t ul_count = 0;
 1061              		.loc 1 801 0
 1062 007e 2C46     		mov	r4, r5
 1063              	.LVL126:
 1064 0080 C9E7     		b	.L109
 1065              	.L125:
 1066 0082 00BF     		.align	2
 1067              	.L124:
 1068 0084 000C0E40 		.word	1074662400
 1069              		.cfi_endproc
 1070              	.LFE179:
 1071              		.size	flash_is_locked, .-flash_is_locked
 1072              		.section	.text.flash_is_gpnvm_set,"ax",%progbits
 1073              		.align	1
 1074              		.p2align 2,,3
 1075              		.global	flash_is_gpnvm_set
 1076              		.syntax unified
 1077              		.thumb
 1078              		.thumb_func
 1079              		.fpu fpv5-d16
 1080              		.type	flash_is_gpnvm_set, %function
 1081              	flash_is_gpnvm_set:
 1082              	.LFB182:
 862:../asf/sam/services/flash_efc/flash_efc.c **** 
 863:../asf/sam/services/flash_efc/flash_efc.c **** /**
 864:../asf/sam/services/flash_efc/flash_efc.c ****  * \brief Set the given GPNVM bit.
 865:../asf/sam/services/flash_efc/flash_efc.c ****  *
 866:../asf/sam/services/flash_efc/flash_efc.c ****  * \param ul_gpnvm GPNVM bit index.
 867:../asf/sam/services/flash_efc/flash_efc.c ****  *
 868:../asf/sam/services/flash_efc/flash_efc.c ****  * \return 0 if successful; otherwise returns an error code.
 869:../asf/sam/services/flash_efc/flash_efc.c ****  */
 870:../asf/sam/services/flash_efc/flash_efc.c **** uint32_t flash_set_gpnvm(uint32_t ul_gpnvm)
 871:../asf/sam/services/flash_efc/flash_efc.c **** {
 872:../asf/sam/services/flash_efc/flash_efc.c **** 	if (ul_gpnvm >= GPNVM_NUM_MAX) {
 873:../asf/sam/services/flash_efc/flash_efc.c **** 		return FLASH_RC_INVALID;
 874:../asf/sam/services/flash_efc/flash_efc.c **** 	}
 875:../asf/sam/services/flash_efc/flash_efc.c **** 
 876:../asf/sam/services/flash_efc/flash_efc.c **** 	if (FLASH_RC_YES == flash_is_gpnvm_set(ul_gpnvm)) {
 877:../asf/sam/services/flash_efc/flash_efc.c **** 		return FLASH_RC_OK;
 878:../asf/sam/services/flash_efc/flash_efc.c **** 	}
 879:../asf/sam/services/flash_efc/flash_efc.c **** 
 880:../asf/sam/services/flash_efc/flash_efc.c **** 	if (EFC_RC_OK == efc_perform_command(EFC, EFC_FCMD_SGPB, ul_gpnvm)) {
 881:../asf/sam/services/flash_efc/flash_efc.c **** 		return FLASH_RC_OK;
 882:../asf/sam/services/flash_efc/flash_efc.c **** 	}
 883:../asf/sam/services/flash_efc/flash_efc.c **** 
 884:../asf/sam/services/flash_efc/flash_efc.c **** 	return FLASH_RC_ERROR;
 885:../asf/sam/services/flash_efc/flash_efc.c **** }
 886:../asf/sam/services/flash_efc/flash_efc.c **** 
ARM GAS  /tmp/ccfM1LZ3.s 			page 37


 887:../asf/sam/services/flash_efc/flash_efc.c **** /**
 888:../asf/sam/services/flash_efc/flash_efc.c ****  * \brief Clear the given GPNVM bit.
 889:../asf/sam/services/flash_efc/flash_efc.c ****  *
 890:../asf/sam/services/flash_efc/flash_efc.c ****  * \param ul_gpnvm GPNVM bit index.
 891:../asf/sam/services/flash_efc/flash_efc.c ****  *
 892:../asf/sam/services/flash_efc/flash_efc.c ****  * \return 0 if successful; otherwise returns an error code.
 893:../asf/sam/services/flash_efc/flash_efc.c ****  */
 894:../asf/sam/services/flash_efc/flash_efc.c **** uint32_t flash_clear_gpnvm(uint32_t ul_gpnvm)
 895:../asf/sam/services/flash_efc/flash_efc.c **** {
 896:../asf/sam/services/flash_efc/flash_efc.c **** 	if (ul_gpnvm >= GPNVM_NUM_MAX) {
 897:../asf/sam/services/flash_efc/flash_efc.c **** 		return FLASH_RC_INVALID;
 898:../asf/sam/services/flash_efc/flash_efc.c **** 	}
 899:../asf/sam/services/flash_efc/flash_efc.c **** 
 900:../asf/sam/services/flash_efc/flash_efc.c **** 	if (FLASH_RC_NO == flash_is_gpnvm_set(ul_gpnvm)) {
 901:../asf/sam/services/flash_efc/flash_efc.c **** 		return FLASH_RC_OK;
 902:../asf/sam/services/flash_efc/flash_efc.c **** 	}
 903:../asf/sam/services/flash_efc/flash_efc.c **** 
 904:../asf/sam/services/flash_efc/flash_efc.c **** 	if (EFC_RC_OK == efc_perform_command(EFC, EFC_FCMD_CGPB, ul_gpnvm)) {
 905:../asf/sam/services/flash_efc/flash_efc.c **** 		return FLASH_RC_OK;
 906:../asf/sam/services/flash_efc/flash_efc.c **** 	}
 907:../asf/sam/services/flash_efc/flash_efc.c **** 
 908:../asf/sam/services/flash_efc/flash_efc.c **** 	return FLASH_RC_ERROR;
 909:../asf/sam/services/flash_efc/flash_efc.c **** }
 910:../asf/sam/services/flash_efc/flash_efc.c **** 
 911:../asf/sam/services/flash_efc/flash_efc.c **** /**
 912:../asf/sam/services/flash_efc/flash_efc.c ****  * \brief Check if the given GPNVM bit is set or not.
 913:../asf/sam/services/flash_efc/flash_efc.c ****  *
 914:../asf/sam/services/flash_efc/flash_efc.c ****  * \param ul_gpnvm GPNVM bit index.
 915:../asf/sam/services/flash_efc/flash_efc.c ****  *
 916:../asf/sam/services/flash_efc/flash_efc.c ****  * \retval 1 If the given GPNVM bit is currently set.
 917:../asf/sam/services/flash_efc/flash_efc.c ****  * \retval 0 If the given GPNVM bit is currently cleared.
 918:../asf/sam/services/flash_efc/flash_efc.c ****  * otherwise returns an error code.
 919:../asf/sam/services/flash_efc/flash_efc.c ****  */
 920:../asf/sam/services/flash_efc/flash_efc.c **** uint32_t flash_is_gpnvm_set(uint32_t ul_gpnvm)
 921:../asf/sam/services/flash_efc/flash_efc.c **** {
 1083              		.loc 1 921 0
 1084              		.cfi_startproc
 1085              		@ args = 0, pretend = 0, frame = 0
 1086              		@ frame_needed = 0, uses_anonymous_args = 0
 1087              	.LVL127:
 922:../asf/sam/services/flash_efc/flash_efc.c **** 	uint32_t ul_gpnvm_bits;
 923:../asf/sam/services/flash_efc/flash_efc.c **** 
 924:../asf/sam/services/flash_efc/flash_efc.c **** 	if (ul_gpnvm >= GPNVM_NUM_MAX) {
 1088              		.loc 1 924 0
 1089 0000 0828     		cmp	r0, #8
 1090 0002 01D9     		bls	.L134
 925:../asf/sam/services/flash_efc/flash_efc.c **** 		return FLASH_RC_INVALID;
 1091              		.loc 1 925 0
 1092 0004 1120     		movs	r0, #17
 1093              	.LVL128:
 1094 0006 7047     		bx	lr
 1095              	.LVL129:
 1096              	.L134:
 921:../asf/sam/services/flash_efc/flash_efc.c **** 	uint32_t ul_gpnvm_bits;
 1097              		.loc 1 921 0
 1098 0008 10B5     		push	{r4, lr}
 1099              		.cfi_def_cfa_offset 8
ARM GAS  /tmp/ccfM1LZ3.s 			page 38


 1100              		.cfi_offset 4, -8
 1101              		.cfi_offset 14, -4
 926:../asf/sam/services/flash_efc/flash_efc.c **** 	}
 927:../asf/sam/services/flash_efc/flash_efc.c **** 
 928:../asf/sam/services/flash_efc/flash_efc.c **** 	if (EFC_RC_OK != efc_perform_command(EFC, EFC_FCMD_GGPB, 0)) {
 1102              		.loc 1 928 0
 1103 000a 0022     		movs	r2, #0
 1104 000c 0446     		mov	r4, r0
 1105 000e 0D21     		movs	r1, #13
 1106 0010 0848     		ldr	r0, .L136
 1107              	.LVL130:
 1108 0012 FFF7FEFF 		bl	efc_perform_command
 1109              	.LVL131:
 1110 0016 08B1     		cbz	r0, .L135
 929:../asf/sam/services/flash_efc/flash_efc.c **** 		return FLASH_RC_ERROR;
 1111              		.loc 1 929 0
 1112 0018 1020     		movs	r0, #16
 930:../asf/sam/services/flash_efc/flash_efc.c **** 	}
 931:../asf/sam/services/flash_efc/flash_efc.c **** 
 932:../asf/sam/services/flash_efc/flash_efc.c **** 	ul_gpnvm_bits = efc_get_result(EFC);
 933:../asf/sam/services/flash_efc/flash_efc.c **** 	if (ul_gpnvm_bits & (1 << ul_gpnvm)) {
 934:../asf/sam/services/flash_efc/flash_efc.c **** 		return FLASH_RC_YES;
 935:../asf/sam/services/flash_efc/flash_efc.c **** 	}
 936:../asf/sam/services/flash_efc/flash_efc.c **** 
 937:../asf/sam/services/flash_efc/flash_efc.c **** 	return FLASH_RC_NO;
 938:../asf/sam/services/flash_efc/flash_efc.c **** }
 1113              		.loc 1 938 0
 1114 001a 10BD     		pop	{r4, pc}
 1115              	.LVL132:
 1116              	.L135:
 1117              	.LBB86:
 1118              	.LBB87:
 932:../asf/sam/services/flash_efc/flash_efc.c **** 	if (ul_gpnvm_bits & (1 << ul_gpnvm)) {
 1119              		.loc 1 932 0
 1120 001c 0548     		ldr	r0, .L136
 1121 001e FFF7FEFF 		bl	efc_get_result
 1122              	.LVL133:
 933:../asf/sam/services/flash_efc/flash_efc.c **** 		return FLASH_RC_YES;
 1123              		.loc 1 933 0
 1124 0022 0123     		movs	r3, #1
 1125 0024 03FA04F4 		lsl	r4, r3, r4
 1126              	.LVL134:
 1127 0028 0442     		tst	r4, r0
 1128 002a 14BF     		ite	ne
 1129 002c 1846     		movne	r0, r3
 1130              	.LVL135:
 1131 002e 0020     		moveq	r0, #0
 1132 0030 10BD     		pop	{r4, pc}
 1133              	.L137:
 1134 0032 00BF     		.align	2
 1135              	.L136:
 1136 0034 000C0E40 		.word	1074662400
 1137              	.LBE87:
 1138              	.LBE86:
 1139              		.cfi_endproc
 1140              	.LFE182:
 1141              		.size	flash_is_gpnvm_set, .-flash_is_gpnvm_set
ARM GAS  /tmp/ccfM1LZ3.s 			page 39


 1142              		.section	.text.flash_set_gpnvm,"ax",%progbits
 1143              		.align	1
 1144              		.p2align 2,,3
 1145              		.global	flash_set_gpnvm
 1146              		.syntax unified
 1147              		.thumb
 1148              		.thumb_func
 1149              		.fpu fpv5-d16
 1150              		.type	flash_set_gpnvm, %function
 1151              	flash_set_gpnvm:
 1152              	.LFB180:
 871:../asf/sam/services/flash_efc/flash_efc.c **** 	if (ul_gpnvm >= GPNVM_NUM_MAX) {
 1153              		.loc 1 871 0
 1154              		.cfi_startproc
 1155              		@ args = 0, pretend = 0, frame = 0
 1156              		@ frame_needed = 0, uses_anonymous_args = 0
 1157              	.LVL136:
 872:../asf/sam/services/flash_efc/flash_efc.c **** 		return FLASH_RC_INVALID;
 1158              		.loc 1 872 0
 1159 0000 0828     		cmp	r0, #8
 1160 0002 01D9     		bls	.L150
 873:../asf/sam/services/flash_efc/flash_efc.c **** 	}
 1161              		.loc 1 873 0
 1162 0004 1120     		movs	r0, #17
 1163              	.LVL137:
 1164 0006 7047     		bx	lr
 1165              	.LVL138:
 1166              	.L150:
 871:../asf/sam/services/flash_efc/flash_efc.c **** 	if (ul_gpnvm >= GPNVM_NUM_MAX) {
 1167              		.loc 1 871 0
 1168 0008 10B5     		push	{r4, lr}
 1169              		.cfi_def_cfa_offset 8
 1170              		.cfi_offset 4, -8
 1171              		.cfi_offset 14, -4
 1172 000a 0446     		mov	r4, r0
 876:../asf/sam/services/flash_efc/flash_efc.c **** 		return FLASH_RC_OK;
 1173              		.loc 1 876 0
 1174 000c FFF7FEFF 		bl	flash_is_gpnvm_set
 1175              	.LVL139:
 1176 0010 0128     		cmp	r0, #1
 1177 0012 07D0     		beq	.L141
 1178              	.LVL140:
 1179              	.LBB90:
 1180              	.LBB91:
 880:../asf/sam/services/flash_efc/flash_efc.c **** 		return FLASH_RC_OK;
 1181              		.loc 1 880 0
 1182 0014 2246     		mov	r2, r4
 1183 0016 0B21     		movs	r1, #11
 1184 0018 0348     		ldr	r0, .L151
 1185 001a FFF7FEFF 		bl	efc_perform_command
 1186              	.LVL141:
 1187 001e 08B1     		cbz	r0, .L141
 884:../asf/sam/services/flash_efc/flash_efc.c **** }
 1188              		.loc 1 884 0
 1189 0020 1020     		movs	r0, #16
 1190 0022 10BD     		pop	{r4, pc}
 1191              	.LVL142:
ARM GAS  /tmp/ccfM1LZ3.s 			page 40


 1192              	.L141:
 1193              	.LBE91:
 1194              	.LBE90:
 877:../asf/sam/services/flash_efc/flash_efc.c **** 	}
 1195              		.loc 1 877 0
 1196 0024 0020     		movs	r0, #0
 1197 0026 10BD     		pop	{r4, pc}
 1198              	.LVL143:
 1199              	.L152:
 1200              		.align	2
 1201              	.L151:
 1202 0028 000C0E40 		.word	1074662400
 1203              		.cfi_endproc
 1204              	.LFE180:
 1205              		.size	flash_set_gpnvm, .-flash_set_gpnvm
 1206              		.section	.text.flash_clear_gpnvm,"ax",%progbits
 1207              		.align	1
 1208              		.p2align 2,,3
 1209              		.global	flash_clear_gpnvm
 1210              		.syntax unified
 1211              		.thumb
 1212              		.thumb_func
 1213              		.fpu fpv5-d16
 1214              		.type	flash_clear_gpnvm, %function
 1215              	flash_clear_gpnvm:
 1216              	.LFB181:
 895:../asf/sam/services/flash_efc/flash_efc.c **** 	if (ul_gpnvm >= GPNVM_NUM_MAX) {
 1217              		.loc 1 895 0
 1218              		.cfi_startproc
 1219              		@ args = 0, pretend = 0, frame = 0
 1220              		@ frame_needed = 0, uses_anonymous_args = 0
 1221              	.LVL144:
 896:../asf/sam/services/flash_efc/flash_efc.c **** 		return FLASH_RC_INVALID;
 1222              		.loc 1 896 0
 1223 0000 0828     		cmp	r0, #8
 1224 0002 01D9     		bls	.L165
 897:../asf/sam/services/flash_efc/flash_efc.c **** 	}
 1225              		.loc 1 897 0
 1226 0004 1120     		movs	r0, #17
 1227              	.LVL145:
 1228 0006 7047     		bx	lr
 1229              	.LVL146:
 1230              	.L165:
 895:../asf/sam/services/flash_efc/flash_efc.c **** 	if (ul_gpnvm >= GPNVM_NUM_MAX) {
 1231              		.loc 1 895 0
 1232 0008 10B5     		push	{r4, lr}
 1233              		.cfi_def_cfa_offset 8
 1234              		.cfi_offset 4, -8
 1235              		.cfi_offset 14, -4
 1236 000a 0446     		mov	r4, r0
 900:../asf/sam/services/flash_efc/flash_efc.c **** 		return FLASH_RC_OK;
 1237              		.loc 1 900 0
 1238 000c FFF7FEFF 		bl	flash_is_gpnvm_set
 1239              	.LVL147:
 1240 0010 08B9     		cbnz	r0, .L155
 1241              	.L156:
 901:../asf/sam/services/flash_efc/flash_efc.c **** 	}
ARM GAS  /tmp/ccfM1LZ3.s 			page 41


 1242              		.loc 1 901 0
 1243 0012 0020     		movs	r0, #0
 1244 0014 10BD     		pop	{r4, pc}
 1245              	.LVL148:
 1246              	.L155:
 904:../asf/sam/services/flash_efc/flash_efc.c **** 		return FLASH_RC_OK;
 1247              		.loc 1 904 0
 1248 0016 2246     		mov	r2, r4
 1249 0018 0C21     		movs	r1, #12
 1250 001a 0348     		ldr	r0, .L166
 1251 001c FFF7FEFF 		bl	efc_perform_command
 1252              	.LVL149:
 1253 0020 0028     		cmp	r0, #0
 1254 0022 F6D0     		beq	.L156
 908:../asf/sam/services/flash_efc/flash_efc.c **** }
 1255              		.loc 1 908 0
 1256 0024 1020     		movs	r0, #16
 1257 0026 10BD     		pop	{r4, pc}
 1258              	.LVL150:
 1259              	.L167:
 1260              		.align	2
 1261              	.L166:
 1262 0028 000C0E40 		.word	1074662400
 1263              		.cfi_endproc
 1264              	.LFE181:
 1265              		.size	flash_clear_gpnvm, .-flash_clear_gpnvm
 1266              		.section	.text.flash_enable_security_bit,"ax",%progbits
 1267              		.align	1
 1268              		.p2align 2,,3
 1269              		.global	flash_enable_security_bit
 1270              		.syntax unified
 1271              		.thumb
 1272              		.thumb_func
 1273              		.fpu fpv5-d16
 1274              		.type	flash_enable_security_bit, %function
 1275              	flash_enable_security_bit:
 1276              	.LFB183:
 939:../asf/sam/services/flash_efc/flash_efc.c **** 
 940:../asf/sam/services/flash_efc/flash_efc.c **** /**
 941:../asf/sam/services/flash_efc/flash_efc.c ****  * \brief Set security bit.
 942:../asf/sam/services/flash_efc/flash_efc.c ****  *
 943:../asf/sam/services/flash_efc/flash_efc.c ****  * \return 0 if successful; otherwise returns an error code.
 944:../asf/sam/services/flash_efc/flash_efc.c ****  */
 945:../asf/sam/services/flash_efc/flash_efc.c **** uint32_t flash_enable_security_bit(void)
 946:../asf/sam/services/flash_efc/flash_efc.c **** {
 1277              		.loc 1 946 0
 1278              		.cfi_startproc
 1279              		@ args = 0, pretend = 0, frame = 0
 1280              		@ frame_needed = 0, uses_anonymous_args = 0
 1281              		@ link register save eliminated.
 947:../asf/sam/services/flash_efc/flash_efc.c **** 	return flash_set_gpnvm(0);
 1282              		.loc 1 947 0
 1283 0000 0020     		movs	r0, #0
 1284 0002 FFF7FEBF 		b	flash_set_gpnvm
 1285              	.LVL151:
 1286              		.cfi_endproc
 1287              	.LFE183:
ARM GAS  /tmp/ccfM1LZ3.s 			page 42


 1288              		.size	flash_enable_security_bit, .-flash_enable_security_bit
 1289 0006 00BF     		.section	.text.flash_is_security_bit_enabled,"ax",%progbits
 1290              		.align	1
 1291              		.p2align 2,,3
 1292              		.global	flash_is_security_bit_enabled
 1293              		.syntax unified
 1294              		.thumb
 1295              		.thumb_func
 1296              		.fpu fpv5-d16
 1297              		.type	flash_is_security_bit_enabled, %function
 1298              	flash_is_security_bit_enabled:
 1299              	.LFB184:
 948:../asf/sam/services/flash_efc/flash_efc.c **** }
 949:../asf/sam/services/flash_efc/flash_efc.c **** 
 950:../asf/sam/services/flash_efc/flash_efc.c **** /**
 951:../asf/sam/services/flash_efc/flash_efc.c ****  * \brief Check if the security bit is set or not.
 952:../asf/sam/services/flash_efc/flash_efc.c ****  *
 953:../asf/sam/services/flash_efc/flash_efc.c ****  * \retval 1 If the security bit is currently set.
 954:../asf/sam/services/flash_efc/flash_efc.c ****  * \retval 0 If the security bit is currently cleared.
 955:../asf/sam/services/flash_efc/flash_efc.c ****  * otherwise returns an error code.
 956:../asf/sam/services/flash_efc/flash_efc.c ****  */
 957:../asf/sam/services/flash_efc/flash_efc.c **** uint32_t flash_is_security_bit_enabled(void)
 958:../asf/sam/services/flash_efc/flash_efc.c **** {
 1300              		.loc 1 958 0
 1301              		.cfi_startproc
 1302              		@ args = 0, pretend = 0, frame = 0
 1303              		@ frame_needed = 0, uses_anonymous_args = 0
 1304              		@ link register save eliminated.
 959:../asf/sam/services/flash_efc/flash_efc.c **** 	return flash_is_gpnvm_set(0);
 1305              		.loc 1 959 0
 1306 0000 0020     		movs	r0, #0
 1307 0002 FFF7FEBF 		b	flash_is_gpnvm_set
 1308              	.LVL152:
 1309              		.cfi_endproc
 1310              	.LFE184:
 1311              		.size	flash_is_security_bit_enabled, .-flash_is_security_bit_enabled
 1312 0006 00BF     		.section	.text.flash_read_unique_id,"ax",%progbits
 1313              		.align	1
 1314              		.p2align 2,,3
 1315              		.global	flash_read_unique_id
 1316              		.syntax unified
 1317              		.thumb
 1318              		.thumb_func
 1319              		.fpu fpv5-d16
 1320              		.type	flash_read_unique_id, %function
 1321              	flash_read_unique_id:
 1322              	.LFB185:
 960:../asf/sam/services/flash_efc/flash_efc.c **** }
 961:../asf/sam/services/flash_efc/flash_efc.c **** 
 962:../asf/sam/services/flash_efc/flash_efc.c **** /**
 963:../asf/sam/services/flash_efc/flash_efc.c ****  * \brief Read the flash unique ID.
 964:../asf/sam/services/flash_efc/flash_efc.c ****  *
 965:../asf/sam/services/flash_efc/flash_efc.c ****  * \param pul_data Pointer to a data buffer to store 128-bit unique ID.
 966:../asf/sam/services/flash_efc/flash_efc.c ****  * \param ul_size Data buffer size in DWORD.
 967:../asf/sam/services/flash_efc/flash_efc.c ****  *
 968:../asf/sam/services/flash_efc/flash_efc.c ****  * \return 0 if successful; otherwise returns an error code.
 969:../asf/sam/services/flash_efc/flash_efc.c ****  */
ARM GAS  /tmp/ccfM1LZ3.s 			page 43


 970:../asf/sam/services/flash_efc/flash_efc.c **** uint32_t flash_read_unique_id(uint32_t *pul_data, uint32_t ul_size)
 971:../asf/sam/services/flash_efc/flash_efc.c **** {
 1323              		.loc 1 971 0
 1324              		.cfi_startproc
 1325              		@ args = 0, pretend = 0, frame = 16
 1326              		@ frame_needed = 0, uses_anonymous_args = 0
 1327              	.LVL153:
 1328 0000 30B5     		push	{r4, r5, lr}
 1329              		.cfi_def_cfa_offset 12
 1330              		.cfi_offset 4, -12
 1331              		.cfi_offset 5, -8
 1332              		.cfi_offset 14, -4
 972:../asf/sam/services/flash_efc/flash_efc.c **** 	uint32_t uid_buf[4];
 973:../asf/sam/services/flash_efc/flash_efc.c **** 	uint32_t ul_idx;
 974:../asf/sam/services/flash_efc/flash_efc.c **** 
 975:../asf/sam/services/flash_efc/flash_efc.c **** 	if (FLASH_RC_OK != efc_perform_read_sequence(EFC, EFC_FCMD_STUI,
 1333              		.loc 1 975 0
 1334 0002 0422     		movs	r2, #4
 971:../asf/sam/services/flash_efc/flash_efc.c **** 	uint32_t uid_buf[4];
 1335              		.loc 1 971 0
 1336 0004 87B0     		sub	sp, sp, #28
 1337              		.cfi_def_cfa_offset 40
 971:../asf/sam/services/flash_efc/flash_efc.c **** 	uint32_t uid_buf[4];
 1338              		.loc 1 971 0
 1339 0006 0446     		mov	r4, r0
 1340 0008 0D46     		mov	r5, r1
 1341              		.loc 1 975 0
 1342 000a 0092     		str	r2, [sp]
 1343 000c 02AB     		add	r3, sp, #8
 1344 000e 0F22     		movs	r2, #15
 1345 0010 0E21     		movs	r1, #14
 1346              	.LVL154:
 1347 0012 0C48     		ldr	r0, .L179
 1348              	.LVL155:
 1349 0014 FFF7FEFF 		bl	efc_perform_read_sequence
 1350              	.LVL156:
 1351 0018 10B1     		cbz	r0, .L178
 976:../asf/sam/services/flash_efc/flash_efc.c **** 			EFC_FCMD_SPUI, uid_buf, 4)) {
 977:../asf/sam/services/flash_efc/flash_efc.c **** 		return FLASH_RC_ERROR;
 1352              		.loc 1 977 0
 1353 001a 1020     		movs	r0, #16
 1354              	.L170:
 978:../asf/sam/services/flash_efc/flash_efc.c **** 	}
 979:../asf/sam/services/flash_efc/flash_efc.c **** 
 980:../asf/sam/services/flash_efc/flash_efc.c **** 	if (ul_size > 4) {
 981:../asf/sam/services/flash_efc/flash_efc.c **** 		/* Only 4 dword to store unique ID */
 982:../asf/sam/services/flash_efc/flash_efc.c **** 		ul_size = 4;
 983:../asf/sam/services/flash_efc/flash_efc.c **** 	}
 984:../asf/sam/services/flash_efc/flash_efc.c **** 
 985:../asf/sam/services/flash_efc/flash_efc.c **** 	for (ul_idx = 0; ul_idx < ul_size; ul_idx++) {
 986:../asf/sam/services/flash_efc/flash_efc.c **** 		pul_data[ul_idx] = uid_buf[ul_idx];
 987:../asf/sam/services/flash_efc/flash_efc.c **** 	}
 988:../asf/sam/services/flash_efc/flash_efc.c **** 
 989:../asf/sam/services/flash_efc/flash_efc.c **** 	return FLASH_RC_OK;
 990:../asf/sam/services/flash_efc/flash_efc.c **** }
 1355              		.loc 1 990 0
 1356 001c 07B0     		add	sp, sp, #28
ARM GAS  /tmp/ccfM1LZ3.s 			page 44


 1357              		.cfi_remember_state
 1358              		.cfi_def_cfa_offset 12
 1359              		@ sp needed
 1360 001e 30BD     		pop	{r4, r5, pc}
 1361              	.LVL157:
 1362              	.L178:
 1363              		.cfi_restore_state
 1364 0020 042D     		cmp	r5, #4
 1365 0022 28BF     		it	cs
 1366 0024 0425     		movcs	r5, #4
 1367              	.LVL158:
 985:../asf/sam/services/flash_efc/flash_efc.c **** 		pul_data[ul_idx] = uid_buf[ul_idx];
 1368              		.loc 1 985 0
 1369 0026 002D     		cmp	r5, #0
 1370 0028 F8D0     		beq	.L170
 1371 002a 2346     		mov	r3, r4
 1372 002c 02AA     		add	r2, sp, #8
 1373 002e 04EB8501 		add	r1, r4, r5, lsl #2
 1374              	.LVL159:
 1375              	.L173:
 986:../asf/sam/services/flash_efc/flash_efc.c **** 	}
 1376              		.loc 1 986 0 discriminator 3
 1377 0032 52F8044B 		ldr	r4, [r2], #4
 1378 0036 43F8044B 		str	r4, [r3], #4
 985:../asf/sam/services/flash_efc/flash_efc.c **** 		pul_data[ul_idx] = uid_buf[ul_idx];
 1379              		.loc 1 985 0 discriminator 3
 1380 003a 8B42     		cmp	r3, r1
 1381 003c F9D1     		bne	.L173
 1382              		.loc 1 990 0
 1383 003e 07B0     		add	sp, sp, #28
 1384              		.cfi_def_cfa_offset 12
 1385              		@ sp needed
 1386 0040 30BD     		pop	{r4, r5, pc}
 1387              	.LVL160:
 1388              	.L180:
 1389 0042 00BF     		.align	2
 1390              	.L179:
 1391 0044 000C0E40 		.word	1074662400
 1392              		.cfi_endproc
 1393              	.LFE185:
 1394              		.size	flash_read_unique_id, .-flash_read_unique_id
 1395              		.section	.text.flash_read_user_signature,"ax",%progbits
 1396              		.align	1
 1397              		.p2align 2,,3
 1398              		.global	flash_read_user_signature
 1399              		.syntax unified
 1400              		.thumb
 1401              		.thumb_func
 1402              		.fpu fpv5-d16
 1403              		.type	flash_read_user_signature, %function
 1404              	flash_read_user_signature:
 1405              	.LFB186:
 991:../asf/sam/services/flash_efc/flash_efc.c **** 
 992:../asf/sam/services/flash_efc/flash_efc.c **** #if (SAM4S || SAM4E || SAM4N || SAM4C || SAMG || SAM4CP || SAM4CM || \
 993:../asf/sam/services/flash_efc/flash_efc.c **** 	 SAMV71 || SAMV70 || SAMS70 || SAME70)
 994:../asf/sam/services/flash_efc/flash_efc.c **** /**
 995:../asf/sam/services/flash_efc/flash_efc.c ****  * \brief Read the flash user signature.
ARM GAS  /tmp/ccfM1LZ3.s 			page 45


 996:../asf/sam/services/flash_efc/flash_efc.c ****  *
 997:../asf/sam/services/flash_efc/flash_efc.c ****  * \param p_data Pointer to a data buffer to store 512 bytes of user signature.
 998:../asf/sam/services/flash_efc/flash_efc.c ****  * \param ul_size Data buffer size in 32 bit words.
 999:../asf/sam/services/flash_efc/flash_efc.c ****  *
1000:../asf/sam/services/flash_efc/flash_efc.c ****  * \return 0 if successful; otherwise returns an error code.
1001:../asf/sam/services/flash_efc/flash_efc.c ****  */
1002:../asf/sam/services/flash_efc/flash_efc.c **** uint32_t flash_read_user_signature(uint32_t *p_data, uint32_t ul_size)
1003:../asf/sam/services/flash_efc/flash_efc.c **** {
 1406              		.loc 1 1003 0
 1407              		.cfi_startproc
 1408              		@ args = 0, pretend = 0, frame = 0
 1409              		@ frame_needed = 0, uses_anonymous_args = 0
 1410              	.LVL161:
1004:../asf/sam/services/flash_efc/flash_efc.c **** 	if (ul_size > (FLASH_USER_SIG_SIZE / sizeof(uint32_t))) {
1005:../asf/sam/services/flash_efc/flash_efc.c **** 		/* Only 512 byte to store user signature */
1006:../asf/sam/services/flash_efc/flash_efc.c **** 		ul_size = FLASH_USER_SIG_SIZE / sizeof(uint32_t);
1007:../asf/sam/services/flash_efc/flash_efc.c **** 	}
1008:../asf/sam/services/flash_efc/flash_efc.c **** 
1009:../asf/sam/services/flash_efc/flash_efc.c **** 	/* Send the read user signature commands */
1010:../asf/sam/services/flash_efc/flash_efc.c **** 	if (FLASH_RC_OK != efc_perform_read_sequence(EFC, EFC_FCMD_STUS,
 1411              		.loc 1 1010 0
 1412 0000 8029     		cmp	r1, #128
 1413 0002 0346     		mov	r3, r0
 1414 0004 4FF01502 		mov	r2, #21
 1415 0008 0748     		ldr	r0, .L185
 1416              	.LVL162:
 1417 000a 28BF     		it	cs
 1418 000c 8021     		movcs	r1, #128
 1419              	.LVL163:
1003:../asf/sam/services/flash_efc/flash_efc.c **** 	if (ul_size > (FLASH_USER_SIG_SIZE / sizeof(uint32_t))) {
 1420              		.loc 1 1003 0
 1421 000e 10B5     		push	{r4, lr}
 1422              		.cfi_def_cfa_offset 8
 1423              		.cfi_offset 4, -8
 1424              		.cfi_offset 14, -4
 1425              		.loc 1 1010 0
 1426 0010 0C46     		mov	r4, r1
1003:../asf/sam/services/flash_efc/flash_efc.c **** 	if (ul_size > (FLASH_USER_SIG_SIZE / sizeof(uint32_t))) {
 1427              		.loc 1 1003 0
 1428 0012 82B0     		sub	sp, sp, #8
 1429              		.cfi_def_cfa_offset 16
 1430              		.loc 1 1010 0
 1431 0014 1421     		movs	r1, #20
 1432 0016 0094     		str	r4, [sp]
 1433 0018 FFF7FEFF 		bl	efc_perform_read_sequence
 1434              	.LVL164:
1011:../asf/sam/services/flash_efc/flash_efc.c **** 			EFC_FCMD_SPUS, p_data, ul_size)) {
1012:../asf/sam/services/flash_efc/flash_efc.c **** 		return FLASH_RC_ERROR;
1013:../asf/sam/services/flash_efc/flash_efc.c **** 	}
1014:../asf/sam/services/flash_efc/flash_efc.c **** 
1015:../asf/sam/services/flash_efc/flash_efc.c **** 	return FLASH_RC_OK;
1016:../asf/sam/services/flash_efc/flash_efc.c **** }
 1435              		.loc 1 1016 0
 1436 001c 0028     		cmp	r0, #0
 1437 001e 14BF     		ite	ne
 1438 0020 1020     		movne	r0, #16
 1439 0022 0020     		moveq	r0, #0
ARM GAS  /tmp/ccfM1LZ3.s 			page 46


 1440 0024 02B0     		add	sp, sp, #8
 1441              		.cfi_def_cfa_offset 8
 1442              		@ sp needed
 1443 0026 10BD     		pop	{r4, pc}
 1444              	.L186:
 1445              		.align	2
 1446              	.L185:
 1447 0028 000C0E40 		.word	1074662400
 1448              		.cfi_endproc
 1449              	.LFE186:
 1450              		.size	flash_read_user_signature, .-flash_read_user_signature
 1451              		.section	.text.flash_write_user_signature,"ax",%progbits
 1452              		.align	1
 1453              		.p2align 2,,3
 1454              		.global	flash_write_user_signature
 1455              		.syntax unified
 1456              		.thumb
 1457              		.thumb_func
 1458              		.fpu fpv5-d16
 1459              		.type	flash_write_user_signature, %function
 1460              	flash_write_user_signature:
 1461              	.LFB187:
1017:../asf/sam/services/flash_efc/flash_efc.c **** 
1018:../asf/sam/services/flash_efc/flash_efc.c **** /**
1019:../asf/sam/services/flash_efc/flash_efc.c ****  * \brief Write the flash user signature.
1020:../asf/sam/services/flash_efc/flash_efc.c ****  *
1021:../asf/sam/services/flash_efc/flash_efc.c ****  * \param p_data Pointer to a data buffer to store info for the user signature.
1022:../asf/sam/services/flash_efc/flash_efc.c ****  * \param ul_size Data buffer size in 32 bit words.
1023:../asf/sam/services/flash_efc/flash_efc.c ****  *
1024:../asf/sam/services/flash_efc/flash_efc.c ****  * \return 0 if successful; otherwise returns an error code.
1025:../asf/sam/services/flash_efc/flash_efc.c ****  */
1026:../asf/sam/services/flash_efc/flash_efc.c **** uint32_t flash_write_user_signature(const void *p_buffer, uint32_t ul_size)
1027:../asf/sam/services/flash_efc/flash_efc.c **** {
 1462              		.loc 1 1027 0
 1463              		.cfi_startproc
 1464              		@ args = 0, pretend = 0, frame = 0
 1465              		@ frame_needed = 0, uses_anonymous_args = 0
 1466              	.LVL165:
1028:../asf/sam/services/flash_efc/flash_efc.c **** 	uint32_t ul_idx;
1029:../asf/sam/services/flash_efc/flash_efc.c **** 	uint32_t *p_dest;
1030:../asf/sam/services/flash_efc/flash_efc.c **** 
1031:../asf/sam/services/flash_efc/flash_efc.c **** 	/* The user signature should be no longer than 512 bytes */
1032:../asf/sam/services/flash_efc/flash_efc.c **** 	if (ul_size > (IFLASH_PAGE_SIZE / sizeof(uint32_t))) {
 1467              		.loc 1 1032 0
 1468 0000 8029     		cmp	r1, #128
 1469 0002 01D9     		bls	.L197
1033:../asf/sam/services/flash_efc/flash_efc.c **** 		return FLASH_RC_INVALID;
 1470              		.loc 1 1033 0
 1471 0004 1120     		movs	r0, #17
 1472              	.LVL166:
 1473 0006 7047     		bx	lr
 1474              	.LVL167:
 1475              	.L197:
1034:../asf/sam/services/flash_efc/flash_efc.c **** 	}
1035:../asf/sam/services/flash_efc/flash_efc.c **** 
1036:../asf/sam/services/flash_efc/flash_efc.c **** 	/* Copy Buffer data */
1037:../asf/sam/services/flash_efc/flash_efc.c **** 	memcpy((uint8_t *) gs_ul_page_buffer, p_buffer, 
ARM GAS  /tmp/ccfM1LZ3.s 			page 47


 1476              		.loc 1 1037 0
 1477 0008 8A00     		lsls	r2, r1, #2
 1478 000a 0146     		mov	r1, r0
 1479              	.LVL168:
 1480 000c 0B48     		ldr	r0, .L198
 1481              	.LVL169:
1027:../asf/sam/services/flash_efc/flash_efc.c **** 	uint32_t ul_idx;
 1482              		.loc 1 1027 0
 1483 000e 08B5     		push	{r3, lr}
 1484              		.cfi_def_cfa_offset 8
 1485              		.cfi_offset 3, -8
 1486              		.cfi_offset 14, -4
 1487              		.loc 1 1037 0
 1488 0010 FFF7FEFF 		bl	memcpy
 1489              	.LVL170:
 1490 0014 0A4B     		ldr	r3, .L198+4
 1491 0016 0B4A     		ldr	r2, .L198+8
 1492 0018 03F50070 		add	r0, r3, #512
 1493              	.LVL171:
 1494              	.L189:
1038:../asf/sam/services/flash_efc/flash_efc.c **** 			ul_size * sizeof(uint32_t));
1039:../asf/sam/services/flash_efc/flash_efc.c **** 
1040:../asf/sam/services/flash_efc/flash_efc.c **** 	/* Write page buffer.
1041:../asf/sam/services/flash_efc/flash_efc.c **** 	* Writing 8-bit and 16-bit data is not allowed and may lead to
1042:../asf/sam/services/flash_efc/flash_efc.c **** 	* unpredictable data corruption.
1043:../asf/sam/services/flash_efc/flash_efc.c **** 	*/
1044:../asf/sam/services/flash_efc/flash_efc.c **** 	p_dest = (uint32_t *)IFLASH_ADDR;
1045:../asf/sam/services/flash_efc/flash_efc.c **** 	for (ul_idx = 0; ul_idx < (IFLASH_PAGE_SIZE / sizeof(uint32_t)); 
1046:../asf/sam/services/flash_efc/flash_efc.c **** 			ul_idx++) {
1047:../asf/sam/services/flash_efc/flash_efc.c **** 		*p_dest++ = gs_ul_page_buffer[ul_idx];
 1495              		.loc 1 1047 0
 1496 001c 53F8041F 		ldr	r1, [r3, #4]!
1045:../asf/sam/services/flash_efc/flash_efc.c **** 			ul_idx++) {
 1497              		.loc 1 1045 0
 1498 0020 8342     		cmp	r3, r0
 1499              		.loc 1 1047 0
 1500 0022 42F8041F 		str	r1, [r2, #4]!
 1501              	.LVL172:
1045:../asf/sam/services/flash_efc/flash_efc.c **** 			ul_idx++) {
 1502              		.loc 1 1045 0
 1503 0026 F9D1     		bne	.L189
1048:../asf/sam/services/flash_efc/flash_efc.c **** 	}
1049:../asf/sam/services/flash_efc/flash_efc.c **** 
1050:../asf/sam/services/flash_efc/flash_efc.c **** 	/* Send the write signature command */
1051:../asf/sam/services/flash_efc/flash_efc.c **** 	if (FLASH_RC_OK != efc_perform_command(EFC, EFC_FCMD_WUS, 0)) {
 1504              		.loc 1 1051 0
 1505 0028 0022     		movs	r2, #0
 1506              	.LVL173:
 1507 002a 1221     		movs	r1, #18
 1508 002c 0648     		ldr	r0, .L198+12
 1509 002e FFF7FEFF 		bl	efc_perform_command
 1510              	.LVL174:
1052:../asf/sam/services/flash_efc/flash_efc.c **** 		return FLASH_RC_ERROR;
 1511              		.loc 1 1052 0
 1512 0032 0028     		cmp	r0, #0
 1513 0034 14BF     		ite	ne
 1514 0036 1020     		movne	r0, #16
ARM GAS  /tmp/ccfM1LZ3.s 			page 48


 1515 0038 0020     		moveq	r0, #0
 1516 003a 08BD     		pop	{r3, pc}
 1517              	.L199:
 1518              		.align	2
 1519              	.L198:
 1520 003c 00000000 		.word	.LANCHOR0
 1521 0040 FCFFFFFF 		.word	.LANCHOR0-4
 1522 0044 FCFF3F00 		.word	4194300
 1523 0048 000C0E40 		.word	1074662400
 1524              		.cfi_endproc
 1525              	.LFE187:
 1526              		.size	flash_write_user_signature, .-flash_write_user_signature
 1527              		.section	.text.flash_erase_user_signature,"ax",%progbits
 1528              		.align	1
 1529              		.p2align 2,,3
 1530              		.global	flash_erase_user_signature
 1531              		.syntax unified
 1532              		.thumb
 1533              		.thumb_func
 1534              		.fpu fpv5-d16
 1535              		.type	flash_erase_user_signature, %function
 1536              	flash_erase_user_signature:
 1537              	.LFB188:
1053:../asf/sam/services/flash_efc/flash_efc.c **** 	}
1054:../asf/sam/services/flash_efc/flash_efc.c **** 
1055:../asf/sam/services/flash_efc/flash_efc.c **** 	return FLASH_RC_OK;
1056:../asf/sam/services/flash_efc/flash_efc.c **** }
1057:../asf/sam/services/flash_efc/flash_efc.c **** 
1058:../asf/sam/services/flash_efc/flash_efc.c **** /**
1059:../asf/sam/services/flash_efc/flash_efc.c ****  * \brief Erase the flash user signature.
1060:../asf/sam/services/flash_efc/flash_efc.c ****  *
1061:../asf/sam/services/flash_efc/flash_efc.c ****  * \return 0 if successful; otherwise returns an error code.
1062:../asf/sam/services/flash_efc/flash_efc.c ****  */
1063:../asf/sam/services/flash_efc/flash_efc.c **** uint32_t flash_erase_user_signature(void)
1064:../asf/sam/services/flash_efc/flash_efc.c **** {
 1538              		.loc 1 1064 0
 1539              		.cfi_startproc
 1540              		@ args = 0, pretend = 0, frame = 0
 1541              		@ frame_needed = 0, uses_anonymous_args = 0
 1542              		@ link register save eliminated.
1065:../asf/sam/services/flash_efc/flash_efc.c **** 	/* Perform the erase user signature command */
1066:../asf/sam/services/flash_efc/flash_efc.c **** 	return efc_perform_command(EFC, EFC_FCMD_EUS, 0);
 1543              		.loc 1 1066 0
 1544 0000 0022     		movs	r2, #0
 1545 0002 1321     		movs	r1, #19
 1546 0004 0148     		ldr	r0, .L201
 1547 0006 FFF7FEBF 		b	efc_perform_command
 1548              	.LVL175:
 1549              	.L202:
 1550 000a 00BF     		.align	2
 1551              	.L201:
 1552 000c 000C0E40 		.word	1074662400
 1553              		.cfi_endproc
 1554              	.LFE188:
 1555              		.size	flash_erase_user_signature, .-flash_erase_user_signature
 1556              		.section	.bss.cpu_irq_critical_section_counter,"aw",%nobits
 1557              		.align	2
ARM GAS  /tmp/ccfM1LZ3.s 			page 49


 1558              		.type	cpu_irq_critical_section_counter, %object
 1559              		.size	cpu_irq_critical_section_counter, 4
 1560              	cpu_irq_critical_section_counter:
 1561 0000 00000000 		.space	4
 1562              		.section	.bss.cpu_irq_prev_interrupt_state,"aw",%nobits
 1563              		.type	cpu_irq_prev_interrupt_state, %object
 1564              		.size	cpu_irq_prev_interrupt_state, 1
 1565              	cpu_irq_prev_interrupt_state:
 1566 0000 00       		.space	1
 1567              		.section	.bss.gs_ul_page_buffer,"aw",%nobits
 1568              		.align	2
 1569              		.set	.LANCHOR0,. + 0
 1570              		.type	gs_ul_page_buffer, %object
 1571              		.size	gs_ul_page_buffer, 512
 1572              	gs_ul_page_buffer:
 1573 0000 00000000 		.space	512
 1573      00000000 
 1573      00000000 
 1573      00000000 
 1573      00000000 
 1574              		.text
 1575              	.Letext0:
 1576              		.file 2 "/usr/include/newlib/machine/_default_types.h"
 1577              		.file 3 "/usr/include/newlib/sys/lock.h"
 1578              		.file 4 "/usr/include/newlib/sys/_types.h"
 1579              		.file 5 "/usr/lib/gcc/arm-none-eabi/6.3.1/include/stddef.h"
 1580              		.file 6 "/usr/include/newlib/sys/reent.h"
 1581              		.file 7 "/usr/include/newlib/sys/_stdint.h"
 1582              		.file 8 "/home/torbjorn/eclipse-workspace/CoreNG/asf/thirdparty/CMSIS/Include/core_cm7.h"
 1583              		.file 9 "/home/torbjorn/eclipse-workspace/CoreNG/variants/same70/system_same70.h"
 1584              		.file 10 "/home/torbjorn/eclipse-workspace/CoreNG/asf/sam/utils/cmsis/same70/include/component/efc
 1585              		.file 11 "/usr/include/newlib/stdlib.h"
 1586              		.file 12 "/home/torbjorn/eclipse-workspace/CoreNG/asf/common/utils/interrupt/interrupt_sam_nvic.h"
 1587              		.file 13 "/home/torbjorn/eclipse-workspace/CoreNG/asf/sam/drivers/efc/efc.h"
 1588              		.file 14 "../asf/sam/services/flash_efc/flash_efc.h"
 1589              		.file 15 "/home/torbjorn/eclipse-workspace/CoreNG/asf/common/services/clock/same70/pll.h"
 1590              		.file 16 "/home/torbjorn/eclipse-workspace/CoreNG/asf/common/services/clock/same70/sysclk.h"
 1591              		.file 17 "/home/torbjorn/eclipse-workspace/CoreNG/asf/common/services/clock/same70/osc.h"