ARM GAS  /tmp/cc9w1cGI.s 			page 1


   1              		.cpu cortex-m7
   2              		.eabi_attribute 28, 1
   3              		.eabi_attribute 20, 1
   4              		.eabi_attribute 21, 1
   5              		.eabi_attribute 23, 3
   6              		.eabi_attribute 24, 1
   7              		.eabi_attribute 25, 1
   8              		.eabi_attribute 26, 1
   9              		.eabi_attribute 30, 2
  10              		.eabi_attribute 34, 1
  11              		.eabi_attribute 18, 4
  12              		.file	"hsmci.c"
  13              		.text
  14              	.Ltext0:
  15              		.cfi_sections	.debug_frame
  16              		.section	.text.hsmci_send_cmd_execute,"ax",%progbits
  17              		.align	1
  18              		.p2align 2,,3
  19              		.syntax unified
  20              		.thumb
  21              		.thumb_func
  22              		.fpu fpv5-d16
  23              		.type	hsmci_send_cmd_execute, %function
  24              	hsmci_send_cmd_execute:
  25              	.LFB199:
  26              		.file 1 "../asf/sam/drivers/hsmci/hsmci.c"
   1:../asf/sam/drivers/hsmci/hsmci.c **** /**
   2:../asf/sam/drivers/hsmci/hsmci.c ****  * \file
   3:../asf/sam/drivers/hsmci/hsmci.c ****  *
   4:../asf/sam/drivers/hsmci/hsmci.c ****  * \brief SAM HSMCI driver
   5:../asf/sam/drivers/hsmci/hsmci.c ****  *
   6:../asf/sam/drivers/hsmci/hsmci.c ****  * Copyright (c) 2012-2016 Atmel Corporation. All rights reserved.
   7:../asf/sam/drivers/hsmci/hsmci.c ****  *
   8:../asf/sam/drivers/hsmci/hsmci.c ****  * \asf_license_start
   9:../asf/sam/drivers/hsmci/hsmci.c ****  *
  10:../asf/sam/drivers/hsmci/hsmci.c ****  * \page License
  11:../asf/sam/drivers/hsmci/hsmci.c ****  *
  12:../asf/sam/drivers/hsmci/hsmci.c ****  * Redistribution and use in source and binary forms, with or without
  13:../asf/sam/drivers/hsmci/hsmci.c ****  * modification, are permitted provided that the following conditions are met:
  14:../asf/sam/drivers/hsmci/hsmci.c ****  *
  15:../asf/sam/drivers/hsmci/hsmci.c ****  * 1. Redistributions of source code must retain the above copyright notice,
  16:../asf/sam/drivers/hsmci/hsmci.c ****  *    this list of conditions and the following disclaimer.
  17:../asf/sam/drivers/hsmci/hsmci.c ****  *
  18:../asf/sam/drivers/hsmci/hsmci.c ****  * 2. Redistributions in binary form must reproduce the above copyright notice,
  19:../asf/sam/drivers/hsmci/hsmci.c ****  *    this list of conditions and the following disclaimer in the documentation
  20:../asf/sam/drivers/hsmci/hsmci.c ****  *    and/or other materials provided with the distribution.
  21:../asf/sam/drivers/hsmci/hsmci.c ****  *
  22:../asf/sam/drivers/hsmci/hsmci.c ****  * 3. The name of Atmel may not be used to endorse or promote products derived
  23:../asf/sam/drivers/hsmci/hsmci.c ****  *    from this software without specific prior written permission.
  24:../asf/sam/drivers/hsmci/hsmci.c ****  *
  25:../asf/sam/drivers/hsmci/hsmci.c ****  * 4. This software may only be redistributed and used in connection with an
  26:../asf/sam/drivers/hsmci/hsmci.c ****  *    Atmel microcontroller product.
  27:../asf/sam/drivers/hsmci/hsmci.c ****  *
  28:../asf/sam/drivers/hsmci/hsmci.c ****  * THIS SOFTWARE IS PROVIDED BY ATMEL "AS IS" AND ANY EXPRESS OR IMPLIED
  29:../asf/sam/drivers/hsmci/hsmci.c ****  * WARRANTIES, INCLUDING, BUT NOT LIMITED TO, THE IMPLIED WARRANTIES OF
  30:../asf/sam/drivers/hsmci/hsmci.c ****  * MERCHANTABILITY, FITNESS FOR A PARTICULAR PURPOSE AND NON-INFRINGEMENT ARE
  31:../asf/sam/drivers/hsmci/hsmci.c ****  * EXPRESSLY AND SPECIFICALLY DISCLAIMED. IN NO EVENT SHALL ATMEL BE LIABLE FOR
ARM GAS  /tmp/cc9w1cGI.s 			page 2


  32:../asf/sam/drivers/hsmci/hsmci.c ****  * ANY DIRECT, INDIRECT, INCIDENTAL, SPECIAL, EXEMPLARY, OR CONSEQUENTIAL
  33:../asf/sam/drivers/hsmci/hsmci.c ****  * DAMAGES (INCLUDING, BUT NOT LIMITED TO, PROCUREMENT OF SUBSTITUTE GOODS
  34:../asf/sam/drivers/hsmci/hsmci.c ****  * OR SERVICES; LOSS OF USE, DATA, OR PROFITS; OR BUSINESS INTERRUPTION)
  35:../asf/sam/drivers/hsmci/hsmci.c ****  * HOWEVER CAUSED AND ON ANY THEORY OF LIABILITY, WHETHER IN CONTRACT,
  36:../asf/sam/drivers/hsmci/hsmci.c ****  * STRICT LIABILITY, OR TORT (INCLUDING NEGLIGENCE OR OTHERWISE) ARISING IN
  37:../asf/sam/drivers/hsmci/hsmci.c ****  * ANY WAY OUT OF THE USE OF THIS SOFTWARE, EVEN IF ADVISED OF THE
  38:../asf/sam/drivers/hsmci/hsmci.c ****  * POSSIBILITY OF SUCH DAMAGE.
  39:../asf/sam/drivers/hsmci/hsmci.c ****  *
  40:../asf/sam/drivers/hsmci/hsmci.c ****  * \asf_license_stop
  41:../asf/sam/drivers/hsmci/hsmci.c ****  *
  42:../asf/sam/drivers/hsmci/hsmci.c ****  */
  43:../asf/sam/drivers/hsmci/hsmci.c **** /*
  44:../asf/sam/drivers/hsmci/hsmci.c ****  * Support and FAQ: visit <a href="http://www.atmel.com/design-support/">Atmel Support</a>
  45:../asf/sam/drivers/hsmci/hsmci.c ****  */
  46:../asf/sam/drivers/hsmci/hsmci.c **** 
  47:../asf/sam/drivers/hsmci/hsmci.c **** #if 0	//dc42
  48:../asf/sam/drivers/hsmci/hsmci.c **** #include <asf.h>
  49:../asf/sam/drivers/hsmci/hsmci.c **** #include "conf_board.h"
  50:../asf/sam/drivers/hsmci/hsmci.c **** #include "../../../../libraries/Storage/sd_mmc_protocol.h"
  51:../asf/sam/drivers/hsmci/hsmci.c **** #endif
  52:../asf/sam/drivers/hsmci/hsmci.c **** 
  53:../asf/sam/drivers/hsmci/hsmci.c **** #include "sysclk.h"
  54:../asf/sam/drivers/hsmci/hsmci.c **** #include "pmc.h"
  55:../asf/sam/drivers/hsmci/hsmci.c **** #include "hsmci.h"
  56:../asf/sam/drivers/hsmci/hsmci.c **** #include "conf_sd_mmc.h"
  57:../asf/sam/drivers/hsmci/hsmci.c **** 
  58:../asf/sam/drivers/hsmci/hsmci.c **** /**
  59:../asf/sam/drivers/hsmci/hsmci.c ****  * \ingroup sam_drivers_hsmci
  60:../asf/sam/drivers/hsmci/hsmci.c ****  * \defgroup sam_drivers_hsmci_internal High Speed MultiMedia Card Interface
  61:../asf/sam/drivers/hsmci/hsmci.c ****  * (HSMCI) implementation
  62:../asf/sam/drivers/hsmci/hsmci.c ****  *
  63:../asf/sam/drivers/hsmci/hsmci.c ****  * @{
  64:../asf/sam/drivers/hsmci/hsmci.c ****  */
  65:../asf/sam/drivers/hsmci/hsmci.c **** 
  66:../asf/sam/drivers/hsmci/hsmci.c **** // Check configurations
  67:../asf/sam/drivers/hsmci/hsmci.c **** #if (!defined SD_MMC_HSMCI_MEM_CNT) || (SD_MMC_HSMCI_MEM_CNT == 0)
  68:../asf/sam/drivers/hsmci/hsmci.c **** #  warning SD_MMC_HSMCI_MEM_CNT must be defined in board.h file.
  69:../asf/sam/drivers/hsmci/hsmci.c **** #  define SD_MMC_HSMCI_MEM_CNT 1
  70:../asf/sam/drivers/hsmci/hsmci.c **** #endif
  71:../asf/sam/drivers/hsmci/hsmci.c **** #ifndef CONF_BOARD_SD_MMC_HSMCI
  72:../asf/sam/drivers/hsmci/hsmci.c **** #  warning CONF_BOARD_SD_MMC_HSMCI must be defined in conf_board.h file.
  73:../asf/sam/drivers/hsmci/hsmci.c **** #endif
  74:../asf/sam/drivers/hsmci/hsmci.c **** #if (SAM3XA)
  75:../asf/sam/drivers/hsmci/hsmci.c **** #  if (SD_MMC_HSMCI_MEM_CNT > 2)
  76:../asf/sam/drivers/hsmci/hsmci.c **** #    warning Wrong define SD_MMC_HSMCI_MEM_CNT in board.h,\
  77:../asf/sam/drivers/hsmci/hsmci.c ****      this part have 2 slots maximum on HSMCI.
  78:../asf/sam/drivers/hsmci/hsmci.c **** #  endif
  79:../asf/sam/drivers/hsmci/hsmci.c **** #else
  80:../asf/sam/drivers/hsmci/hsmci.c **** #  if (SD_MMC_HSMCI_MEM_CNT > 1)
  81:../asf/sam/drivers/hsmci/hsmci.c **** #    warning Wrong define SD_MMC_HSMCI_MEM_CNT in board.h,\
  82:../asf/sam/drivers/hsmci/hsmci.c ****      this part have 1 slots maximum on HSMCI.
  83:../asf/sam/drivers/hsmci/hsmci.c **** #  endif
  84:../asf/sam/drivers/hsmci/hsmci.c **** #endif
  85:../asf/sam/drivers/hsmci/hsmci.c **** #ifndef SD_MMC_HSMCI_SLOT_0_SIZE
  86:../asf/sam/drivers/hsmci/hsmci.c **** #  warning SD_MMC_HSMCI_SLOT_0_SIZE must be defined in board.h.
  87:../asf/sam/drivers/hsmci/hsmci.c **** #  define SD_MMC_HSMCI_SLOT_0_SIZE 1
  88:../asf/sam/drivers/hsmci/hsmci.c **** #endif
ARM GAS  /tmp/cc9w1cGI.s 			page 3


  89:../asf/sam/drivers/hsmci/hsmci.c **** #if (SD_MMC_HSMCI_MEM_CNT > 2)
  90:../asf/sam/drivers/hsmci/hsmci.c **** #  ifndef SD_MMC_HSMCI_SLOT_1_SIZE
  91:../asf/sam/drivers/hsmci/hsmci.c **** #    warning SD_MMC_HSMCI_SLOT_1_SIZE must be defined in board.h.
  92:../asf/sam/drivers/hsmci/hsmci.c **** #    define SD_MMC_HSMCI_SLOT_1_SIZE 1
  93:../asf/sam/drivers/hsmci/hsmci.c **** #  endif
  94:../asf/sam/drivers/hsmci/hsmci.c **** #endif
  95:../asf/sam/drivers/hsmci/hsmci.c **** 
  96:../asf/sam/drivers/hsmci/hsmci.c **** // Enable debug information for SD/MMC SPI module
  97:../asf/sam/drivers/hsmci/hsmci.c **** //#define HSMCI_DEBUG
  98:../asf/sam/drivers/hsmci/hsmci.c **** #ifdef HSMCI_DEBUG
  99:../asf/sam/drivers/hsmci/hsmci.c **** extern void debugPrintf(const char* fmt, ...);
 100:../asf/sam/drivers/hsmci/hsmci.c **** #  define hsmci_debug(...)      debugPrintf(__VA_ARGS__)
 101:../asf/sam/drivers/hsmci/hsmci.c **** #else
 102:../asf/sam/drivers/hsmci/hsmci.c **** #  define hsmci_debug(...)
 103:../asf/sam/drivers/hsmci/hsmci.c **** #endif
 104:../asf/sam/drivers/hsmci/hsmci.c **** 
 105:../asf/sam/drivers/hsmci/hsmci.c **** #if (SAM3S || SAM4S || SAM4E)
 106:../asf/sam/drivers/hsmci/hsmci.c ****   // PDC is used for transfer
 107:../asf/sam/drivers/hsmci/hsmci.c **** #elif (SAM3U || SAM3XA)
 108:../asf/sam/drivers/hsmci/hsmci.c ****   // DMA is used for transfer
 109:../asf/sam/drivers/hsmci/hsmci.c **** #  include "dmac.h"
 110:../asf/sam/drivers/hsmci/hsmci.c **** #  define DMA_HW_ID_HSMCI    0
 111:../asf/sam/drivers/hsmci/hsmci.c **** #  ifndef CONF_HSMCI_DMA_CHANNEL
 112:../asf/sam/drivers/hsmci/hsmci.c **** #    define CONF_HSMCI_DMA_CHANNEL 0
 113:../asf/sam/drivers/hsmci/hsmci.c **** #  endif
 114:../asf/sam/drivers/hsmci/hsmci.c **** #elif (SAMV70 || SAMV71 || SAME70 || SAMS70)
 115:../asf/sam/drivers/hsmci/hsmci.c ****   // XDMAC is used for transfer
 116:../asf/sam/drivers/hsmci/hsmci.c **** #  include "xdmac.h"
 117:../asf/sam/drivers/hsmci/hsmci.c **** #  define XDMAC_HW_ID_HSMCI    0
 118:../asf/sam/drivers/hsmci/hsmci.c **** #  ifndef CONF_HSMCI_XDMAC_CHANNEL
 119:../asf/sam/drivers/hsmci/hsmci.c **** #    define CONF_HSMCI_XDMAC_CHANNEL 0
 120:../asf/sam/drivers/hsmci/hsmci.c **** #  endif
 121:../asf/sam/drivers/hsmci/hsmci.c **** #else
 122:../asf/sam/drivers/hsmci/hsmci.c **** #  error Not supported device
 123:../asf/sam/drivers/hsmci/hsmci.c **** #endif
 124:../asf/sam/drivers/hsmci/hsmci.c **** 
 125:../asf/sam/drivers/hsmci/hsmci.c **** //! Current position (byte) of the transfer started by hsmci_adtc_start()
 126:../asf/sam/drivers/hsmci/hsmci.c **** static uint32_t hsmci_transfert_pos;
 127:../asf/sam/drivers/hsmci/hsmci.c **** //! Size block requested by last hsmci_adtc_start()
 128:../asf/sam/drivers/hsmci/hsmci.c **** static uint16_t hsmci_block_size;
 129:../asf/sam/drivers/hsmci/hsmci.c **** //! Total number of block requested by last hsmci_adtc_start()
 130:../asf/sam/drivers/hsmci/hsmci.c **** static uint16_t hsmci_nb_block;
 131:../asf/sam/drivers/hsmci/hsmci.c **** 
 132:../asf/sam/drivers/hsmci/hsmci.c **** static void hsmci_reset(void);
 133:../asf/sam/drivers/hsmci/hsmci.c **** static void hsmci_set_speed(uint32_t speed, uint32_t mck);
 134:../asf/sam/drivers/hsmci/hsmci.c **** static bool hsmci_wait_busy(void);
 135:../asf/sam/drivers/hsmci/hsmci.c **** static bool hsmci_send_cmd_execute(uint32_t cmdr, sdmmc_cmd_def_t cmd,
 136:../asf/sam/drivers/hsmci/hsmci.c **** 		uint32_t arg);
 137:../asf/sam/drivers/hsmci/hsmci.c **** 
 138:../asf/sam/drivers/hsmci/hsmci.c **** /**
 139:../asf/sam/drivers/hsmci/hsmci.c ****  * \brief Reset the HSMCI interface
 140:../asf/sam/drivers/hsmci/hsmci.c ****  */
 141:../asf/sam/drivers/hsmci/hsmci.c **** static void hsmci_reset(void)
 142:../asf/sam/drivers/hsmci/hsmci.c **** {
 143:../asf/sam/drivers/hsmci/hsmci.c **** 	uint32_t mr = HSMCI->HSMCI_MR;
 144:../asf/sam/drivers/hsmci/hsmci.c **** 	uint32_t dtor = HSMCI->HSMCI_DTOR;
 145:../asf/sam/drivers/hsmci/hsmci.c **** 	uint32_t sdcr = HSMCI->HSMCI_SDCR;
ARM GAS  /tmp/cc9w1cGI.s 			page 4


 146:../asf/sam/drivers/hsmci/hsmci.c **** 	uint32_t cstor = HSMCI->HSMCI_CSTOR;
 147:../asf/sam/drivers/hsmci/hsmci.c **** 	uint32_t cfg = HSMCI->HSMCI_CFG;
 148:../asf/sam/drivers/hsmci/hsmci.c **** 	HSMCI->HSMCI_CR = HSMCI_CR_SWRST;
 149:../asf/sam/drivers/hsmci/hsmci.c **** 	HSMCI->HSMCI_MR = mr;
 150:../asf/sam/drivers/hsmci/hsmci.c **** 	HSMCI->HSMCI_DTOR = dtor;
 151:../asf/sam/drivers/hsmci/hsmci.c **** 	HSMCI->HSMCI_SDCR = sdcr;
 152:../asf/sam/drivers/hsmci/hsmci.c **** 	HSMCI->HSMCI_CSTOR = cstor;
 153:../asf/sam/drivers/hsmci/hsmci.c **** 	HSMCI->HSMCI_CFG = cfg;
 154:../asf/sam/drivers/hsmci/hsmci.c **** #ifdef HSMCI_SR_DMADONE
 155:../asf/sam/drivers/hsmci/hsmci.c **** 	HSMCI->HSMCI_DMA = 0;
 156:../asf/sam/drivers/hsmci/hsmci.c **** #endif
 157:../asf/sam/drivers/hsmci/hsmci.c **** #if (SAMV70 || SAMV71 || SAME70 || SAMS70)
 158:../asf/sam/drivers/hsmci/hsmci.c **** #ifdef HSMCI_DMA_DMAEN
 159:../asf/sam/drivers/hsmci/hsmci.c **** 	HSMCI->HSMCI_DMA = 0;
 160:../asf/sam/drivers/hsmci/hsmci.c **** #endif
 161:../asf/sam/drivers/hsmci/hsmci.c **** #endif
 162:../asf/sam/drivers/hsmci/hsmci.c **** 	// Enable the HSMCI
 163:../asf/sam/drivers/hsmci/hsmci.c **** 	HSMCI->HSMCI_CR = HSMCI_CR_PWSEN | HSMCI_CR_MCIEN;
 164:../asf/sam/drivers/hsmci/hsmci.c **** }
 165:../asf/sam/drivers/hsmci/hsmci.c **** 
 166:../asf/sam/drivers/hsmci/hsmci.c **** /**
 167:../asf/sam/drivers/hsmci/hsmci.c ****  * \brief Set speed of the HSMCI clock.
 168:../asf/sam/drivers/hsmci/hsmci.c ****  *
 169:../asf/sam/drivers/hsmci/hsmci.c ****  * \param speed    HSMCI clock speed in Hz.
 170:../asf/sam/drivers/hsmci/hsmci.c ****  * \param mck      MCK clock speed in Hz.
 171:../asf/sam/drivers/hsmci/hsmci.c ****  */
 172:../asf/sam/drivers/hsmci/hsmci.c **** static void hsmci_set_speed(uint32_t speed, uint32_t mck)
 173:../asf/sam/drivers/hsmci/hsmci.c **** {
 174:../asf/sam/drivers/hsmci/hsmci.c **** #if (SAM4E || SAMV70 || SAMV71 || SAME70 || SAMS70)
 175:../asf/sam/drivers/hsmci/hsmci.c **** 	uint32_t clkdiv = 0;
 176:../asf/sam/drivers/hsmci/hsmci.c **** 	uint32_t clkodd = 0;
 177:../asf/sam/drivers/hsmci/hsmci.c **** 	// clock divider, represent (((clkdiv << 1) + clkodd) + 2)
 178:../asf/sam/drivers/hsmci/hsmci.c **** 	uint32_t div = 0;
 179:../asf/sam/drivers/hsmci/hsmci.c **** 
 180:../asf/sam/drivers/hsmci/hsmci.c **** 	// Speed = MCK clock / (((clkdiv << 1) + clkodd) + 2)
 181:../asf/sam/drivers/hsmci/hsmci.c **** 	if ((speed * 2) < mck) {
 182:../asf/sam/drivers/hsmci/hsmci.c **** 		div = (mck / speed) - 2;
 183:../asf/sam/drivers/hsmci/hsmci.c **** 		if (mck % speed) {
 184:../asf/sam/drivers/hsmci/hsmci.c **** 			// Ensure that the card speed not be higher than expected.
 185:../asf/sam/drivers/hsmci/hsmci.c **** 			div++;
 186:../asf/sam/drivers/hsmci/hsmci.c **** 		}
 187:../asf/sam/drivers/hsmci/hsmci.c **** 		clkdiv = div >> 1;
 188:../asf/sam/drivers/hsmci/hsmci.c **** 		// clkodd is the last significant bit of the clock divider (div).
 189:../asf/sam/drivers/hsmci/hsmci.c **** 		clkodd = div % 2;
 190:../asf/sam/drivers/hsmci/hsmci.c **** 	} else {
 191:../asf/sam/drivers/hsmci/hsmci.c **** 		clkdiv = 0;
 192:../asf/sam/drivers/hsmci/hsmci.c **** 		clkodd = 0;
 193:../asf/sam/drivers/hsmci/hsmci.c **** 	}
 194:../asf/sam/drivers/hsmci/hsmci.c **** 
 195:../asf/sam/drivers/hsmci/hsmci.c **** 	HSMCI->HSMCI_MR &= ~HSMCI_MR_CLKDIV_Msk;
 196:../asf/sam/drivers/hsmci/hsmci.c **** 	HSMCI->HSMCI_MR |= HSMCI_MR_CLKDIV(clkdiv);
 197:../asf/sam/drivers/hsmci/hsmci.c **** 	if (clkodd) {
 198:../asf/sam/drivers/hsmci/hsmci.c **** 		HSMCI->HSMCI_MR |= HSMCI_MR_CLKODD;
 199:../asf/sam/drivers/hsmci/hsmci.c **** 	}
 200:../asf/sam/drivers/hsmci/hsmci.c **** 	else {
 201:../asf/sam/drivers/hsmci/hsmci.c **** 		HSMCI->HSMCI_MR &= ~HSMCI_MR_CLKODD;
 202:../asf/sam/drivers/hsmci/hsmci.c **** 	}
ARM GAS  /tmp/cc9w1cGI.s 			page 5


 203:../asf/sam/drivers/hsmci/hsmci.c **** #else
 204:../asf/sam/drivers/hsmci/hsmci.c **** 	uint32_t clkdiv = 0;
 205:../asf/sam/drivers/hsmci/hsmci.c **** 	uint32_t rest = 0;
 206:../asf/sam/drivers/hsmci/hsmci.c **** 
 207:../asf/sam/drivers/hsmci/hsmci.c **** 	// Speed = MCK clock / (2 * (CLKDIV + 1))
 208:../asf/sam/drivers/hsmci/hsmci.c **** 	if ((speed * 2) < mck) {
 209:../asf/sam/drivers/hsmci/hsmci.c **** 		clkdiv = mck / (2 * speed);
 210:../asf/sam/drivers/hsmci/hsmci.c **** 		rest = mck % (2 * speed);
 211:../asf/sam/drivers/hsmci/hsmci.c **** 		if (rest > 0) {
 212:../asf/sam/drivers/hsmci/hsmci.c **** 			// Ensure that the card speed not be higher than expected.
 213:../asf/sam/drivers/hsmci/hsmci.c **** 			clkdiv++;
 214:../asf/sam/drivers/hsmci/hsmci.c **** 		}
 215:../asf/sam/drivers/hsmci/hsmci.c **** 		if (clkdiv > 0) {
 216:../asf/sam/drivers/hsmci/hsmci.c **** 			clkdiv -= 1;
 217:../asf/sam/drivers/hsmci/hsmci.c **** 		}
 218:../asf/sam/drivers/hsmci/hsmci.c **** 	} else {
 219:../asf/sam/drivers/hsmci/hsmci.c **** 		clkdiv = 0;
 220:../asf/sam/drivers/hsmci/hsmci.c **** 	}
 221:../asf/sam/drivers/hsmci/hsmci.c **** 	HSMCI->HSMCI_MR &= ~HSMCI_MR_CLKDIV_Msk;
 222:../asf/sam/drivers/hsmci/hsmci.c **** 	HSMCI->HSMCI_MR |= HSMCI_MR_CLKDIV(clkdiv);
 223:../asf/sam/drivers/hsmci/hsmci.c **** #endif
 224:../asf/sam/drivers/hsmci/hsmci.c **** 
 225:../asf/sam/drivers/hsmci/hsmci.c **** }
 226:../asf/sam/drivers/hsmci/hsmci.c **** 
 227:../asf/sam/drivers/hsmci/hsmci.c **** #if 1  // dc42
 228:../asf/sam/drivers/hsmci/hsmci.c **** // Get the speed of the HSMCI interface for reporting purposes, in bytes/sec
 229:../asf/sam/drivers/hsmci/hsmci.c **** uint32_t hsmci_get_speed()
 230:../asf/sam/drivers/hsmci/hsmci.c **** {
 231:../asf/sam/drivers/hsmci/hsmci.c **** #if SAM4E || SAME70
 232:../asf/sam/drivers/hsmci/hsmci.c ****        const uint32_t clkdiv = HSMCI->HSMCI_MR & HSMCI_MR_CLKDIV_Msk;
 233:../asf/sam/drivers/hsmci/hsmci.c ****        const uint32_t clkodd = ((HSMCI->HSMCI_MR & HSMCI_MR_CLKODD) != 0) ? 1 : 0;
 234:../asf/sam/drivers/hsmci/hsmci.c ****        const uint32_t hsmciClock = sysclk_get_cpu_hz()/((2 * clkdiv) + clkodd + 2);
 235:../asf/sam/drivers/hsmci/hsmci.c **** #else
 236:../asf/sam/drivers/hsmci/hsmci.c ****        const uint32_t clkdiv = HSMCI->HSMCI_MR & HSMCI_MR_CLKDIV_Msk;
 237:../asf/sam/drivers/hsmci/hsmci.c ****        const uint32_t hsmciClock =  sysclk_get_cpu_hz()/((2 * clkdiv) + 2);
 238:../asf/sam/drivers/hsmci/hsmci.c **** #endif
 239:../asf/sam/drivers/hsmci/hsmci.c ****        return hsmciClock/2;            // HSMCI interface is 4 bits wide, so divide by 2 to get byt
 240:../asf/sam/drivers/hsmci/hsmci.c **** }
 241:../asf/sam/drivers/hsmci/hsmci.c **** 
 242:../asf/sam/drivers/hsmci/hsmci.c **** static hsmciIdleFunc_t hsmciIdleFunc = NULL;
 243:../asf/sam/drivers/hsmci/hsmci.c **** 
 244:../asf/sam/drivers/hsmci/hsmci.c **** // Set the idle function and return the old one
 245:../asf/sam/drivers/hsmci/hsmci.c **** hsmciIdleFunc_t hsmci_set_idle_func(hsmciIdleFunc_t p)
 246:../asf/sam/drivers/hsmci/hsmci.c **** {
 247:../asf/sam/drivers/hsmci/hsmci.c ****        hsmciIdleFunc_t ret = hsmciIdleFunc;
 248:../asf/sam/drivers/hsmci/hsmci.c ****        hsmciIdleFunc = p;
 249:../asf/sam/drivers/hsmci/hsmci.c ****        return ret;
 250:../asf/sam/drivers/hsmci/hsmci.c **** }
 251:../asf/sam/drivers/hsmci/hsmci.c **** 
 252:../asf/sam/drivers/hsmci/hsmci.c **** #endif
 253:../asf/sam/drivers/hsmci/hsmci.c **** 
 254:../asf/sam/drivers/hsmci/hsmci.c **** /** \brief Wait the end of busy signal on data line
 255:../asf/sam/drivers/hsmci/hsmci.c ****  *
 256:../asf/sam/drivers/hsmci/hsmci.c ****  * \return true if success, otherwise false
 257:../asf/sam/drivers/hsmci/hsmci.c ****  */
 258:../asf/sam/drivers/hsmci/hsmci.c **** static bool hsmci_wait_busy(void)
 259:../asf/sam/drivers/hsmci/hsmci.c **** {
ARM GAS  /tmp/cc9w1cGI.s 			page 6


 260:../asf/sam/drivers/hsmci/hsmci.c **** 	uint32_t busy_wait = 0xFFFFFFFF;
 261:../asf/sam/drivers/hsmci/hsmci.c **** 	uint32_t sr;
 262:../asf/sam/drivers/hsmci/hsmci.c **** 
 263:../asf/sam/drivers/hsmci/hsmci.c **** 	do {
 264:../asf/sam/drivers/hsmci/hsmci.c **** 		sr = HSMCI->HSMCI_SR;
 265:../asf/sam/drivers/hsmci/hsmci.c **** 		if (busy_wait-- == 0) {
 266:../asf/sam/drivers/hsmci/hsmci.c **** 			hsmci_debug("%s: timeout\n\r", __func__);
 267:../asf/sam/drivers/hsmci/hsmci.c **** 			hsmci_reset();
 268:../asf/sam/drivers/hsmci/hsmci.c **** 			return false;
 269:../asf/sam/drivers/hsmci/hsmci.c **** 		}
 270:../asf/sam/drivers/hsmci/hsmci.c **** 	} while (!((sr & HSMCI_SR_NOTBUSY) && ((sr & HSMCI_SR_DTIP) == 0)));
 271:../asf/sam/drivers/hsmci/hsmci.c **** 	return true;
 272:../asf/sam/drivers/hsmci/hsmci.c **** }
 273:../asf/sam/drivers/hsmci/hsmci.c **** 
 274:../asf/sam/drivers/hsmci/hsmci.c **** 
 275:../asf/sam/drivers/hsmci/hsmci.c **** /** \brief Send a command
 276:../asf/sam/drivers/hsmci/hsmci.c ****  *
 277:../asf/sam/drivers/hsmci/hsmci.c ****  * \param cmdr       CMDR register bit to use for this command
 278:../asf/sam/drivers/hsmci/hsmci.c ****  * \param cmd        Command definition
 279:../asf/sam/drivers/hsmci/hsmci.c ****  * \param arg        Argument of the command
 280:../asf/sam/drivers/hsmci/hsmci.c ****  *
 281:../asf/sam/drivers/hsmci/hsmci.c ****  * \return true if success, otherwise false
 282:../asf/sam/drivers/hsmci/hsmci.c ****  */
 283:../asf/sam/drivers/hsmci/hsmci.c **** static bool hsmci_send_cmd_execute(uint32_t cmdr, sdmmc_cmd_def_t cmd,
 284:../asf/sam/drivers/hsmci/hsmci.c **** 		uint32_t arg)
 285:../asf/sam/drivers/hsmci/hsmci.c **** {
  27              		.loc 1 285 0
  28              		.cfi_startproc
  29              		@ args = 0, pretend = 0, frame = 0
  30              		@ frame_needed = 0, uses_anonymous_args = 0
  31              	.LVL0:
  32 0000 F0B5     		push	{r4, r5, r6, r7, lr}
  33              		.cfi_def_cfa_offset 20
  34              		.cfi_offset 4, -20
  35              		.cfi_offset 5, -16
  36              		.cfi_offset 6, -12
  37              		.cfi_offset 7, -8
  38              		.cfi_offset 14, -4
 286:../asf/sam/drivers/hsmci/hsmci.c **** 	uint32_t sr;
 287:../asf/sam/drivers/hsmci/hsmci.c **** 
 288:../asf/sam/drivers/hsmci/hsmci.c **** 	cmdr |= HSMCI_CMDR_CMDNB(cmd) | HSMCI_CMDR_SPCMD_STD;
  39              		.loc 1 288 0
  40 0002 01F03F03 		and	r3, r1, #63
 289:../asf/sam/drivers/hsmci/hsmci.c **** 	if (cmd & SDMMC_RESP_PRESENT) {
  41              		.loc 1 289 0
  42 0006 CF05     		lsls	r7, r1, #23
 288:../asf/sam/drivers/hsmci/hsmci.c **** 	if (cmd & SDMMC_RESP_PRESENT) {
  43              		.loc 1 288 0
  44 0008 40EA0300 		orr	r0, r0, r3
  45              	.LVL1:
  46              		.loc 1 289 0
  47 000c 03D5     		bpl	.L2
  48              	.LVL2:
 290:../asf/sam/drivers/hsmci/hsmci.c **** 		cmdr |= HSMCI_CMDR_MAXLAT;
 291:../asf/sam/drivers/hsmci/hsmci.c **** 		if (cmd & SDMMC_RESP_136) {
  49              		.loc 1 291 0
  50 000e 0E05     		lsls	r6, r1, #20
ARM GAS  /tmp/cc9w1cGI.s 			page 7


  51 0010 2BD5     		bpl	.L3
 292:../asf/sam/drivers/hsmci/hsmci.c **** 			cmdr |= HSMCI_CMDR_RSPTYP_136_BIT;
  52              		.loc 1 292 0
  53 0012 40F48450 		orr	r0, r0, #4224
  54              	.LVL3:
  55              	.L2:
 293:../asf/sam/drivers/hsmci/hsmci.c **** 		} else if (cmd & SDMMC_RESP_BUSY) {
 294:../asf/sam/drivers/hsmci/hsmci.c **** 			cmdr |= HSMCI_CMDR_RSPTYP_R1B;
 295:../asf/sam/drivers/hsmci/hsmci.c **** 		} else {
 296:../asf/sam/drivers/hsmci/hsmci.c **** 			cmdr |= HSMCI_CMDR_RSPTYP_48_BIT;
 297:../asf/sam/drivers/hsmci/hsmci.c **** 		}
 298:../asf/sam/drivers/hsmci/hsmci.c **** 	}
 299:../asf/sam/drivers/hsmci/hsmci.c **** 	if (cmd & SDMMC_CMD_OPENDRAIN) {
  56              		.loc 1 299 0
  57 0016 4C04     		lsls	r4, r1, #17
 300:../asf/sam/drivers/hsmci/hsmci.c **** 		cmdr |= HSMCI_CMDR_OPDCMD_OPENDRAIN;
 301:../asf/sam/drivers/hsmci/hsmci.c **** 	}
 302:../asf/sam/drivers/hsmci/hsmci.c **** 
 303:../asf/sam/drivers/hsmci/hsmci.c **** 	// Write argument
 304:../asf/sam/drivers/hsmci/hsmci.c **** 	HSMCI->HSMCI_ARGR = arg;
  58              		.loc 1 304 0
  59 0018 4FF08043 		mov	r3, #1073741824
  60 001c 01F48055 		and	r5, r1, #4096
 300:../asf/sam/drivers/hsmci/hsmci.c **** 		cmdr |= HSMCI_CMDR_OPDCMD_OPENDRAIN;
  61              		.loc 1 300 0
  62 0020 48BF     		it	mi
  63 0022 40F40060 		orrmi	r0, r0, #2048
  64              	.LVL4:
  65              		.loc 1 304 0
  66 0026 1A61     		str	r2, [r3, #16]
 305:../asf/sam/drivers/hsmci/hsmci.c **** 	// Write and start command
 306:../asf/sam/drivers/hsmci/hsmci.c **** 	HSMCI->HSMCI_CMDR = cmdr;
 307:../asf/sam/drivers/hsmci/hsmci.c **** 
 308:../asf/sam/drivers/hsmci/hsmci.c **** 	// Wait end of command
 309:../asf/sam/drivers/hsmci/hsmci.c **** 	do {
 310:../asf/sam/drivers/hsmci/hsmci.c **** 		sr = HSMCI->HSMCI_SR;
  67              		.loc 1 310 0
  68 0028 1C46     		mov	r4, r3
 306:../asf/sam/drivers/hsmci/hsmci.c **** 
  69              		.loc 1 306 0
  70 002a 5861     		str	r0, [r3, #20]
  71 002c 04E0     		b	.L9
  72              	.LVL5:
  73              	.L34:
 311:../asf/sam/drivers/hsmci/hsmci.c **** 		if (cmd & SDMMC_RESP_CRC) {
 312:../asf/sam/drivers/hsmci/hsmci.c **** 			if (sr & (HSMCI_SR_CSTOE | HSMCI_SR_RTOE
  74              		.loc 1 312 0
  75 002e 13F41F0F 		tst	r3, #10420224
  76 0032 25D1     		bne	.L32
  77              	.L7:
 313:../asf/sam/drivers/hsmci/hsmci.c **** 					| HSMCI_SR_RENDE | HSMCI_SR_RCRCE
 314:../asf/sam/drivers/hsmci/hsmci.c **** 					| HSMCI_SR_RDIRE | HSMCI_SR_RINDE)) {
 315:../asf/sam/drivers/hsmci/hsmci.c **** 				hsmci_debug("%s: CMD 0x%08x sr 0x%08x error\n\r",
 316:../asf/sam/drivers/hsmci/hsmci.c **** 						__func__, cmd, sr);
 317:../asf/sam/drivers/hsmci/hsmci.c **** 				hsmci_reset();
 318:../asf/sam/drivers/hsmci/hsmci.c **** 				return false;
 319:../asf/sam/drivers/hsmci/hsmci.c **** 			}
ARM GAS  /tmp/cc9w1cGI.s 			page 8


 320:../asf/sam/drivers/hsmci/hsmci.c **** 		} else {
 321:../asf/sam/drivers/hsmci/hsmci.c **** 			if (sr & (HSMCI_SR_CSTOE | HSMCI_SR_RTOE
 322:../asf/sam/drivers/hsmci/hsmci.c **** 					| HSMCI_SR_RENDE
 323:../asf/sam/drivers/hsmci/hsmci.c **** 					| HSMCI_SR_RDIRE | HSMCI_SR_RINDE)) {
 324:../asf/sam/drivers/hsmci/hsmci.c **** 				hsmci_debug("%s: CMD 0x%08x sr 0x%08x error\n\r",
 325:../asf/sam/drivers/hsmci/hsmci.c **** 						__func__, cmd, sr);
 326:../asf/sam/drivers/hsmci/hsmci.c **** 				hsmci_reset();
 327:../asf/sam/drivers/hsmci/hsmci.c **** 				return false;
 328:../asf/sam/drivers/hsmci/hsmci.c **** 			}
 329:../asf/sam/drivers/hsmci/hsmci.c **** 		}
 330:../asf/sam/drivers/hsmci/hsmci.c **** 	} while (!(sr & HSMCI_SR_CMDRDY));
  78              		.loc 1 330 0
  79 0034 DA07     		lsls	r2, r3, #31
  80 0036 1FD4     		bmi	.L33
  81              	.LVL6:
  82              	.L9:
 310:../asf/sam/drivers/hsmci/hsmci.c **** 		if (cmd & SDMMC_RESP_CRC) {
  83              		.loc 1 310 0
  84 0038 236C     		ldr	r3, [r4, #64]
  85              	.LVL7:
 311:../asf/sam/drivers/hsmci/hsmci.c **** 		if (cmd & SDMMC_RESP_CRC) {
  86              		.loc 1 311 0
  87 003a 002D     		cmp	r5, #0
  88 003c F7D1     		bne	.L34
 321:../asf/sam/drivers/hsmci/hsmci.c **** 					| HSMCI_SR_RENDE
  89              		.loc 1 321 0
  90 003e 13F41B0F 		tst	r3, #10158080
  91 0042 F7D0     		beq	.L7
  92              	.LBB56:
  93              	.LBB57:
 143:../asf/sam/drivers/hsmci/hsmci.c **** 	uint32_t dtor = HSMCI->HSMCI_DTOR;
  94              		.loc 1 143 0
  95 0044 D4F804E0 		ldr	lr, [r4, #4]
  96              	.LVL8:
 148:../asf/sam/drivers/hsmci/hsmci.c **** 	HSMCI->HSMCI_MR = mr;
  97              		.loc 1 148 0
  98 0048 8020     		movs	r0, #128
  99              	.LVL9:
 144:../asf/sam/drivers/hsmci/hsmci.c **** 	uint32_t sdcr = HSMCI->HSMCI_SDCR;
 100              		.loc 1 144 0
 101 004a A768     		ldr	r7, [r4, #8]
 102              	.LVL10:
 163:../asf/sam/drivers/hsmci/hsmci.c **** }
 103              		.loc 1 163 0
 104 004c 0523     		movs	r3, #5
 105              	.LVL11:
 145:../asf/sam/drivers/hsmci/hsmci.c **** 	uint32_t cstor = HSMCI->HSMCI_CSTOR;
 106              		.loc 1 145 0
 107 004e E668     		ldr	r6, [r4, #12]
 108              	.LVL12:
 146:../asf/sam/drivers/hsmci/hsmci.c **** 	uint32_t cfg = HSMCI->HSMCI_CFG;
 109              		.loc 1 146 0
 110 0050 E169     		ldr	r1, [r4, #28]
 111              	.LVL13:
 147:../asf/sam/drivers/hsmci/hsmci.c **** 	HSMCI->HSMCI_CR = HSMCI_CR_SWRST;
 112              		.loc 1 147 0
 113 0052 626D     		ldr	r2, [r4, #84]
ARM GAS  /tmp/cc9w1cGI.s 			page 9


 114              	.LVL14:
 148:../asf/sam/drivers/hsmci/hsmci.c **** 	HSMCI->HSMCI_MR = mr;
 115              		.loc 1 148 0
 116 0054 2060     		str	r0, [r4]
 117              	.LVL15:
 118              	.LBE57:
 119              	.LBE56:
 327:../asf/sam/drivers/hsmci/hsmci.c **** 			}
 120              		.loc 1 327 0
 121 0056 2846     		mov	r0, r5
 122              	.LBB59:
 123              	.LBB58:
 149:../asf/sam/drivers/hsmci/hsmci.c **** 	HSMCI->HSMCI_DTOR = dtor;
 124              		.loc 1 149 0
 125 0058 C4F804E0 		str	lr, [r4, #4]
 150:../asf/sam/drivers/hsmci/hsmci.c **** 	HSMCI->HSMCI_SDCR = sdcr;
 126              		.loc 1 150 0
 127 005c A760     		str	r7, [r4, #8]
 151:../asf/sam/drivers/hsmci/hsmci.c **** 	HSMCI->HSMCI_CSTOR = cstor;
 128              		.loc 1 151 0
 129 005e E660     		str	r6, [r4, #12]
 152:../asf/sam/drivers/hsmci/hsmci.c **** 	HSMCI->HSMCI_CFG = cfg;
 130              		.loc 1 152 0
 131 0060 E161     		str	r1, [r4, #28]
 153:../asf/sam/drivers/hsmci/hsmci.c **** #ifdef HSMCI_SR_DMADONE
 132              		.loc 1 153 0
 133 0062 6265     		str	r2, [r4, #84]
 159:../asf/sam/drivers/hsmci/hsmci.c **** #endif
 134              		.loc 1 159 0
 135 0064 2565     		str	r5, [r4, #80]
 163:../asf/sam/drivers/hsmci/hsmci.c **** }
 136              		.loc 1 163 0
 137 0066 2360     		str	r3, [r4]
 138              	.LVL16:
 139              	.LBE58:
 140              	.LBE59:
 327:../asf/sam/drivers/hsmci/hsmci.c **** 			}
 141              		.loc 1 327 0
 142 0068 F0BD     		pop	{r4, r5, r6, r7, pc}
 143              	.LVL17:
 144              	.L3:
 293:../asf/sam/drivers/hsmci/hsmci.c **** 			cmdr |= HSMCI_CMDR_RSPTYP_R1B;
 145              		.loc 1 293 0
 146 006a 8D04     		lsls	r5, r1, #18
 294:../asf/sam/drivers/hsmci/hsmci.c **** 		} else {
 147              		.loc 1 294 0
 148 006c 4CBF     		ite	mi
 149 006e 40F48650 		orrmi	r0, r0, #4288
 150              	.LVL18:
 296:../asf/sam/drivers/hsmci/hsmci.c **** 		}
 151              		.loc 1 296 0
 152 0072 40F48250 		orrpl	r0, r0, #4160
 153              	.LVL19:
 154 0076 CEE7     		b	.L2
 155              	.LVL20:
 156              	.L33:
 331:../asf/sam/drivers/hsmci/hsmci.c **** 
ARM GAS  /tmp/cc9w1cGI.s 			page 10


 332:../asf/sam/drivers/hsmci/hsmci.c **** 	if (cmd & SDMMC_RESP_BUSY) {
 157              		.loc 1 332 0
 158 0078 8B04     		lsls	r3, r1, #18
 159              	.LVL21:
 160 007a 15D4     		bmi	.L35
 161              	.LVL22:
 162              	.L30:
 333:../asf/sam/drivers/hsmci/hsmci.c **** 		if (!hsmci_wait_busy()) {
 334:../asf/sam/drivers/hsmci/hsmci.c **** 			return false;
 335:../asf/sam/drivers/hsmci/hsmci.c **** 		}
 336:../asf/sam/drivers/hsmci/hsmci.c **** 	}
 337:../asf/sam/drivers/hsmci/hsmci.c **** 	return true;
 163              		.loc 1 337 0
 164 007c 0120     		movs	r0, #1
 165              	.LVL23:
 166 007e F0BD     		pop	{r4, r5, r6, r7, pc}
 167              	.LVL24:
 168              	.L32:
 169              	.LBB60:
 170              	.LBB61:
 143:../asf/sam/drivers/hsmci/hsmci.c **** 	uint32_t dtor = HSMCI->HSMCI_DTOR;
 171              		.loc 1 143 0
 172 0080 6068     		ldr	r0, [r4, #4]
 173              	.LVL25:
 159:../asf/sam/drivers/hsmci/hsmci.c **** #endif
 174              		.loc 1 159 0
 175 0082 0023     		movs	r3, #0
 176              	.LVL26:
 144:../asf/sam/drivers/hsmci/hsmci.c **** 	uint32_t sdcr = HSMCI->HSMCI_SDCR;
 177              		.loc 1 144 0
 178 0084 A768     		ldr	r7, [r4, #8]
 179              	.LVL27:
 148:../asf/sam/drivers/hsmci/hsmci.c **** 	HSMCI->HSMCI_MR = mr;
 180              		.loc 1 148 0
 181 0086 4FF0800E 		mov	lr, #128
 145:../asf/sam/drivers/hsmci/hsmci.c **** 	uint32_t cstor = HSMCI->HSMCI_CSTOR;
 182              		.loc 1 145 0
 183 008a E668     		ldr	r6, [r4, #12]
 184              	.LVL28:
 163:../asf/sam/drivers/hsmci/hsmci.c **** }
 185              		.loc 1 163 0
 186 008c 0522     		movs	r2, #5
 146:../asf/sam/drivers/hsmci/hsmci.c **** 	uint32_t cfg = HSMCI->HSMCI_CFG;
 187              		.loc 1 146 0
 188 008e E569     		ldr	r5, [r4, #28]
 189              	.LVL29:
 147:../asf/sam/drivers/hsmci/hsmci.c **** 	HSMCI->HSMCI_CR = HSMCI_CR_SWRST;
 190              		.loc 1 147 0
 191 0090 616D     		ldr	r1, [r4, #84]
 192              	.LVL30:
 148:../asf/sam/drivers/hsmci/hsmci.c **** 	HSMCI->HSMCI_MR = mr;
 193              		.loc 1 148 0
 194 0092 C4F800E0 		str	lr, [r4]
 195              	.LVL31:
 149:../asf/sam/drivers/hsmci/hsmci.c **** 	HSMCI->HSMCI_DTOR = dtor;
 196              		.loc 1 149 0
 197 0096 6060     		str	r0, [r4, #4]
ARM GAS  /tmp/cc9w1cGI.s 			page 11


 198              	.LBE61:
 199              	.LBE60:
 318:../asf/sam/drivers/hsmci/hsmci.c **** 			}
 200              		.loc 1 318 0
 201 0098 1846     		mov	r0, r3
 202              	.LVL32:
 203              	.LBB63:
 204              	.LBB62:
 150:../asf/sam/drivers/hsmci/hsmci.c **** 	HSMCI->HSMCI_SDCR = sdcr;
 205              		.loc 1 150 0
 206 009a A760     		str	r7, [r4, #8]
 207              	.LVL33:
 151:../asf/sam/drivers/hsmci/hsmci.c **** 	HSMCI->HSMCI_CSTOR = cstor;
 208              		.loc 1 151 0
 209 009c E660     		str	r6, [r4, #12]
 152:../asf/sam/drivers/hsmci/hsmci.c **** 	HSMCI->HSMCI_CFG = cfg;
 210              		.loc 1 152 0
 211 009e E561     		str	r5, [r4, #28]
 153:../asf/sam/drivers/hsmci/hsmci.c **** #ifdef HSMCI_SR_DMADONE
 212              		.loc 1 153 0
 213 00a0 6165     		str	r1, [r4, #84]
 159:../asf/sam/drivers/hsmci/hsmci.c **** #endif
 214              		.loc 1 159 0
 215 00a2 2365     		str	r3, [r4, #80]
 163:../asf/sam/drivers/hsmci/hsmci.c **** }
 216              		.loc 1 163 0
 217 00a4 2260     		str	r2, [r4]
 218              	.LVL34:
 219              	.LBE62:
 220              	.LBE63:
 318:../asf/sam/drivers/hsmci/hsmci.c **** 			}
 221              		.loc 1 318 0
 222 00a6 F0BD     		pop	{r4, r5, r6, r7, pc}
 223              	.LVL35:
 224              	.L35:
 225              	.LBB64:
 226              	.LBB65:
 264:../asf/sam/drivers/hsmci/hsmci.c **** 		if (busy_wait-- == 0) {
 227              		.loc 1 264 0
 228 00a8 4FF08041 		mov	r1, #1073741824
 229              	.LVL36:
 230 00ac 4FF0FF32 		mov	r2, #-1
 231 00b0 0B6C     		ldr	r3, [r1, #64]
 232              	.LVL37:
 233              	.L11:
 270:../asf/sam/drivers/hsmci/hsmci.c **** 	return true;
 234              		.loc 1 270 0
 235 00b2 03F03003 		and	r3, r3, #48
 236              	.LVL38:
 237 00b6 202B     		cmp	r3, #32
 238 00b8 E0D0     		beq	.L30
 265:../asf/sam/drivers/hsmci/hsmci.c **** 			hsmci_debug("%s: timeout\n\r", __func__);
 239              		.loc 1 265 0
 240 00ba 013A     		subs	r2, r2, #1
 241              	.LVL39:
 264:../asf/sam/drivers/hsmci/hsmci.c **** 		if (busy_wait-- == 0) {
 242              		.loc 1 264 0
ARM GAS  /tmp/cc9w1cGI.s 			page 12


 243 00bc 0B6C     		ldr	r3, [r1, #64]
 244              	.LVL40:
 265:../asf/sam/drivers/hsmci/hsmci.c **** 			hsmci_debug("%s: timeout\n\r", __func__);
 245              		.loc 1 265 0
 246 00be F8D1     		bne	.L11
 247              	.LBB66:
 248              	.LBB67:
 143:../asf/sam/drivers/hsmci/hsmci.c **** 	uint32_t dtor = HSMCI->HSMCI_DTOR;
 249              		.loc 1 143 0
 250 00c0 D1F804E0 		ldr	lr, [r1, #4]
 251              	.LVL41:
 148:../asf/sam/drivers/hsmci/hsmci.c **** 	HSMCI->HSMCI_MR = mr;
 252              		.loc 1 148 0
 253 00c4 8020     		movs	r0, #128
 254              	.LVL42:
 144:../asf/sam/drivers/hsmci/hsmci.c **** 	uint32_t sdcr = HSMCI->HSMCI_SDCR;
 255              		.loc 1 144 0
 256 00c6 8F68     		ldr	r7, [r1, #8]
 257              	.LVL43:
 163:../asf/sam/drivers/hsmci/hsmci.c **** }
 258              		.loc 1 163 0
 259 00c8 0523     		movs	r3, #5
 260              	.LVL44:
 145:../asf/sam/drivers/hsmci/hsmci.c **** 	uint32_t cstor = HSMCI->HSMCI_CSTOR;
 261              		.loc 1 145 0
 262 00ca CE68     		ldr	r6, [r1, #12]
 263              	.LVL45:
 146:../asf/sam/drivers/hsmci/hsmci.c **** 	uint32_t cfg = HSMCI->HSMCI_CFG;
 264              		.loc 1 146 0
 265 00cc CD69     		ldr	r5, [r1, #28]
 266              	.LVL46:
 147:../asf/sam/drivers/hsmci/hsmci.c **** 	HSMCI->HSMCI_CR = HSMCI_CR_SWRST;
 267              		.loc 1 147 0
 268 00ce 4C6D     		ldr	r4, [r1, #84]
 269              	.LVL47:
 148:../asf/sam/drivers/hsmci/hsmci.c **** 	HSMCI->HSMCI_MR = mr;
 270              		.loc 1 148 0
 271 00d0 0860     		str	r0, [r1]
 272              	.LVL48:
 273              	.LBE67:
 274              	.LBE66:
 275              	.LBE65:
 276              	.LBE64:
 334:../asf/sam/drivers/hsmci/hsmci.c **** 		}
 277              		.loc 1 334 0
 278 00d2 1046     		mov	r0, r2
 279              	.LBB71:
 280              	.LBB70:
 281              	.LBB69:
 282              	.LBB68:
 149:../asf/sam/drivers/hsmci/hsmci.c **** 	HSMCI->HSMCI_DTOR = dtor;
 283              		.loc 1 149 0
 284 00d4 C1F804E0 		str	lr, [r1, #4]
 150:../asf/sam/drivers/hsmci/hsmci.c **** 	HSMCI->HSMCI_SDCR = sdcr;
 285              		.loc 1 150 0
 286 00d8 8F60     		str	r7, [r1, #8]
 151:../asf/sam/drivers/hsmci/hsmci.c **** 	HSMCI->HSMCI_CSTOR = cstor;
ARM GAS  /tmp/cc9w1cGI.s 			page 13


 287              		.loc 1 151 0
 288 00da CE60     		str	r6, [r1, #12]
 152:../asf/sam/drivers/hsmci/hsmci.c **** 	HSMCI->HSMCI_CFG = cfg;
 289              		.loc 1 152 0
 290 00dc CD61     		str	r5, [r1, #28]
 153:../asf/sam/drivers/hsmci/hsmci.c **** #ifdef HSMCI_SR_DMADONE
 291              		.loc 1 153 0
 292 00de 4C65     		str	r4, [r1, #84]
 159:../asf/sam/drivers/hsmci/hsmci.c **** #endif
 293              		.loc 1 159 0
 294 00e0 0A65     		str	r2, [r1, #80]
 163:../asf/sam/drivers/hsmci/hsmci.c **** }
 295              		.loc 1 163 0
 296 00e2 0B60     		str	r3, [r1]
 297              	.LVL49:
 298 00e4 F0BD     		pop	{r4, r5, r6, r7, pc}
 299              	.LBE68:
 300              	.LBE69:
 301              	.LBE70:
 302              	.LBE71:
 303              		.cfi_endproc
 304              	.LFE199:
 305              		.size	hsmci_send_cmd_execute, .-hsmci_send_cmd_execute
 306 00e6 00BF     		.section	.text.hsmci_get_speed,"ax",%progbits
 307              		.align	1
 308              		.p2align 2,,3
 309              		.global	hsmci_get_speed
 310              		.syntax unified
 311              		.thumb
 312              		.thumb_func
 313              		.fpu fpv5-d16
 314              		.type	hsmci_get_speed, %function
 315              	hsmci_get_speed:
 316              	.LFB196:
 230:../asf/sam/drivers/hsmci/hsmci.c **** #if SAM4E || SAME70
 317              		.loc 1 230 0
 318              		.cfi_startproc
 319              		@ args = 0, pretend = 0, frame = 0
 320              		@ frame_needed = 0, uses_anonymous_args = 0
 321              		@ link register save eliminated.
 232:../asf/sam/drivers/hsmci/hsmci.c ****        const uint32_t clkodd = ((HSMCI->HSMCI_MR & HSMCI_MR_CLKODD) != 0) ? 1 : 0;
 322              		.loc 1 232 0
 323 0000 4FF08042 		mov	r2, #1073741824
 234:../asf/sam/drivers/hsmci/hsmci.c **** #else
 324              		.loc 1 234 0
 325 0004 064B     		ldr	r3, .L37
 232:../asf/sam/drivers/hsmci/hsmci.c ****        const uint32_t clkodd = ((HSMCI->HSMCI_MR & HSMCI_MR_CLKODD) != 0) ? 1 : 0;
 326              		.loc 1 232 0
 327 0006 5068     		ldr	r0, [r2, #4]
 328              	.LVL50:
 233:../asf/sam/drivers/hsmci/hsmci.c ****        const uint32_t hsmciClock = sysclk_get_cpu_hz()/((2 * clkdiv) + clkodd + 2);
 329              		.loc 1 233 0
 330 0008 5268     		ldr	r2, [r2, #4]
 331              	.LVL51:
 232:../asf/sam/drivers/hsmci/hsmci.c ****        const uint32_t clkodd = ((HSMCI->HSMCI_MR & HSMCI_MR_CLKODD) != 0) ? 1 : 0;
 332              		.loc 1 232 0
 333 000a C0B2     		uxtb	r0, r0
ARM GAS  /tmp/cc9w1cGI.s 			page 14


 334              	.LVL52:
 233:../asf/sam/drivers/hsmci/hsmci.c ****        const uint32_t hsmciClock = sysclk_get_cpu_hz()/((2 * clkdiv) + clkodd + 2);
 335              		.loc 1 233 0
 336 000c C2F30042 		ubfx	r2, r2, #16, #1
 337              	.LVL53:
 234:../asf/sam/drivers/hsmci/hsmci.c **** #else
 338              		.loc 1 234 0
 339 0010 4000     		lsls	r0, r0, #1
 340 0012 0230     		adds	r0, r0, #2
 341 0014 1044     		add	r0, r0, r2
 342 0016 B3FBF0F0 		udiv	r0, r3, r0
 240:../asf/sam/drivers/hsmci/hsmci.c **** 
 343              		.loc 1 240 0
 344 001a 4008     		lsrs	r0, r0, #1
 345 001c 7047     		bx	lr
 346              	.L38:
 347 001e 00BF     		.align	2
 348              	.L37:
 349 0020 00A3E111 		.word	300000000
 350              		.cfi_endproc
 351              	.LFE196:
 352              		.size	hsmci_get_speed, .-hsmci_get_speed
 353              		.section	.text.hsmci_set_idle_func,"ax",%progbits
 354              		.align	1
 355              		.p2align 2,,3
 356              		.global	hsmci_set_idle_func
 357              		.syntax unified
 358              		.thumb
 359              		.thumb_func
 360              		.fpu fpv5-d16
 361              		.type	hsmci_set_idle_func, %function
 362              	hsmci_set_idle_func:
 363              	.LFB197:
 246:../asf/sam/drivers/hsmci/hsmci.c ****        hsmciIdleFunc_t ret = hsmciIdleFunc;
 364              		.loc 1 246 0
 365              		.cfi_startproc
 366              		@ args = 0, pretend = 0, frame = 0
 367              		@ frame_needed = 0, uses_anonymous_args = 0
 368              		@ link register save eliminated.
 369              	.LVL54:
 247:../asf/sam/drivers/hsmci/hsmci.c ****        hsmciIdleFunc = p;
 370              		.loc 1 247 0
 371 0000 024B     		ldr	r3, .L40
 372 0002 1A68     		ldr	r2, [r3]
 373              	.LVL55:
 248:../asf/sam/drivers/hsmci/hsmci.c ****        return ret;
 374              		.loc 1 248 0
 375 0004 1860     		str	r0, [r3]
 250:../asf/sam/drivers/hsmci/hsmci.c **** 
 376              		.loc 1 250 0
 377 0006 1046     		mov	r0, r2
 378              	.LVL56:
 379 0008 7047     		bx	lr
 380              	.L41:
 381 000a 00BF     		.align	2
 382              	.L40:
 383 000c 00000000 		.word	.LANCHOR0
ARM GAS  /tmp/cc9w1cGI.s 			page 15


 384              		.cfi_endproc
 385              	.LFE197:
 386              		.size	hsmci_set_idle_func, .-hsmci_set_idle_func
 387              		.section	.text.hsmci_init,"ax",%progbits
 388              		.align	1
 389              		.p2align 2,,3
 390              		.global	hsmci_init
 391              		.syntax unified
 392              		.thumb
 393              		.thumb_func
 394              		.fpu fpv5-d16
 395              		.type	hsmci_init, %function
 396              	hsmci_init:
 397              	.LFB200:
 338:../asf/sam/drivers/hsmci/hsmci.c **** }
 339:../asf/sam/drivers/hsmci/hsmci.c **** 
 340:../asf/sam/drivers/hsmci/hsmci.c **** 
 341:../asf/sam/drivers/hsmci/hsmci.c **** //-------------------------------------------------------------------
 342:../asf/sam/drivers/hsmci/hsmci.c **** //--------------------- PUBLIC FUNCTIONS ----------------------------
 343:../asf/sam/drivers/hsmci/hsmci.c **** 
 344:../asf/sam/drivers/hsmci/hsmci.c **** void hsmci_init(void)
 345:../asf/sam/drivers/hsmci/hsmci.c **** {
 398              		.loc 1 345 0
 399              		.cfi_startproc
 400              		@ args = 0, pretend = 0, frame = 0
 401              		@ frame_needed = 0, uses_anonymous_args = 0
 402 0000 10B5     		push	{r4, lr}
 403              		.cfi_def_cfa_offset 8
 404              		.cfi_offset 4, -8
 405              		.cfi_offset 14, -4
 346:../asf/sam/drivers/hsmci/hsmci.c **** 	pmc_enable_periph_clk(ID_HSMCI);
 406              		.loc 1 346 0
 407 0002 1220     		movs	r0, #18
 347:../asf/sam/drivers/hsmci/hsmci.c **** #ifdef HSMCI_SR_DMADONE
 348:../asf/sam/drivers/hsmci/hsmci.c **** 	// Enable clock for DMA controller
 349:../asf/sam/drivers/hsmci/hsmci.c **** 	pmc_enable_periph_clk(ID_DMAC);
 350:../asf/sam/drivers/hsmci/hsmci.c **** #endif
 351:../asf/sam/drivers/hsmci/hsmci.c **** 
 352:../asf/sam/drivers/hsmci/hsmci.c **** #if (SAMV70 || SAMV71 || SAME70 || SAMS70)
 353:../asf/sam/drivers/hsmci/hsmci.c **** #ifdef HSMCI_DMA_DMAEN
 354:../asf/sam/drivers/hsmci/hsmci.c **** 	// Enable clock for DMA controller
 355:../asf/sam/drivers/hsmci/hsmci.c **** 	pmc_enable_periph_clk(ID_XDMAC);
 356:../asf/sam/drivers/hsmci/hsmci.c **** #endif
 357:../asf/sam/drivers/hsmci/hsmci.c **** #endif
 358:../asf/sam/drivers/hsmci/hsmci.c **** 
 359:../asf/sam/drivers/hsmci/hsmci.c **** 	// Set the Data Timeout Register to 2 Mega Cycles
 360:../asf/sam/drivers/hsmci/hsmci.c **** 	HSMCI->HSMCI_DTOR = HSMCI_DTOR_DTOMUL_1048576 | HSMCI_DTOR_DTOCYC(2);
 361:../asf/sam/drivers/hsmci/hsmci.c **** 	// Set Completion Signal Timeout to 2 Mega Cycles
 362:../asf/sam/drivers/hsmci/hsmci.c **** 	HSMCI->HSMCI_CSTOR = HSMCI_CSTOR_CSTOMUL_1048576 | HSMCI_CSTOR_CSTOCYC(2);
 363:../asf/sam/drivers/hsmci/hsmci.c **** 	// Set Configuration Register
 364:../asf/sam/drivers/hsmci/hsmci.c **** 	HSMCI->HSMCI_CFG = HSMCI_CFG_FIFOMODE | HSMCI_CFG_FERRCTRL;
 408              		.loc 1 364 0
 409 0004 1124     		movs	r4, #17
 346:../asf/sam/drivers/hsmci/hsmci.c **** 	pmc_enable_periph_clk(ID_HSMCI);
 410              		.loc 1 346 0
 411 0006 FFF7FEFF 		bl	pmc_enable_periph_clk
 412              	.LVL57:
ARM GAS  /tmp/cc9w1cGI.s 			page 16


 355:../asf/sam/drivers/hsmci/hsmci.c **** #endif
 413              		.loc 1 355 0
 414 000a 3A20     		movs	r0, #58
 415 000c FFF7FEFF 		bl	pmc_enable_periph_clk
 416              	.LVL58:
 360:../asf/sam/drivers/hsmci/hsmci.c **** 	// Set Completion Signal Timeout to 2 Mega Cycles
 417              		.loc 1 360 0
 418 0010 4FF08043 		mov	r3, #1073741824
 419 0014 7222     		movs	r2, #114
 365:../asf/sam/drivers/hsmci/hsmci.c **** 	// Set power saving to maximum value
 366:../asf/sam/drivers/hsmci/hsmci.c **** 	HSMCI->HSMCI_MR = HSMCI_MR_PWSDIV_Msk;
 420              		.loc 1 366 0
 421 0016 4FF4E060 		mov	r0, #1792
 367:../asf/sam/drivers/hsmci/hsmci.c **** 
 368:../asf/sam/drivers/hsmci/hsmci.c **** 	// Enable the HSMCI and the Power Saving
 369:../asf/sam/drivers/hsmci/hsmci.c **** 	HSMCI->HSMCI_CR = HSMCI_CR_MCIEN | HSMCI_CR_PWSEN;
 422              		.loc 1 369 0
 423 001a 0521     		movs	r1, #5
 360:../asf/sam/drivers/hsmci/hsmci.c **** 	// Set Completion Signal Timeout to 2 Mega Cycles
 424              		.loc 1 360 0
 425 001c 9A60     		str	r2, [r3, #8]
 362:../asf/sam/drivers/hsmci/hsmci.c **** 	// Set Configuration Register
 426              		.loc 1 362 0
 427 001e DA61     		str	r2, [r3, #28]
 364:../asf/sam/drivers/hsmci/hsmci.c **** 	// Set power saving to maximum value
 428              		.loc 1 364 0
 429 0020 5C65     		str	r4, [r3, #84]
 366:../asf/sam/drivers/hsmci/hsmci.c **** 
 430              		.loc 1 366 0
 431 0022 5860     		str	r0, [r3, #4]
 432              		.loc 1 369 0
 433 0024 1960     		str	r1, [r3]
 434 0026 10BD     		pop	{r4, pc}
 435              		.cfi_endproc
 436              	.LFE200:
 437              		.size	hsmci_init, .-hsmci_init
 438              		.section	.text.hsmci_get_bus_width,"ax",%progbits
 439              		.align	1
 440              		.p2align 2,,3
 441              		.global	hsmci_get_bus_width
 442              		.syntax unified
 443              		.thumb
 444              		.thumb_func
 445              		.fpu fpv5-d16
 446              		.type	hsmci_get_bus_width, %function
 447              	hsmci_get_bus_width:
 448              	.LFB201:
 370:../asf/sam/drivers/hsmci/hsmci.c **** }
 371:../asf/sam/drivers/hsmci/hsmci.c **** 
 372:../asf/sam/drivers/hsmci/hsmci.c **** uint8_t hsmci_get_bus_width(uint8_t slot)
 373:../asf/sam/drivers/hsmci/hsmci.c **** {
 449              		.loc 1 373 0
 450              		.cfi_startproc
 451              		@ args = 0, pretend = 0, frame = 0
 452              		@ frame_needed = 0, uses_anonymous_args = 0
 453              		@ link register save eliminated.
 454              	.LVL59:
ARM GAS  /tmp/cc9w1cGI.s 			page 17


 374:../asf/sam/drivers/hsmci/hsmci.c **** 	switch (slot) {
 455              		.loc 1 374 0
 456 0000 0028     		cmp	r0, #0
 375:../asf/sam/drivers/hsmci/hsmci.c **** 	case 0:
 376:../asf/sam/drivers/hsmci/hsmci.c **** 		return SD_MMC_HSMCI_SLOT_0_SIZE;
 377:../asf/sam/drivers/hsmci/hsmci.c **** #if (SD_MMC_HSMCI_MEM_CNT == 2)
 378:../asf/sam/drivers/hsmci/hsmci.c **** 	case 1:
 379:../asf/sam/drivers/hsmci/hsmci.c **** 		return SD_MMC_HSMCI_SLOT_1_SIZE;
 380:../asf/sam/drivers/hsmci/hsmci.c **** #endif
 381:../asf/sam/drivers/hsmci/hsmci.c **** 	default:
 382:../asf/sam/drivers/hsmci/hsmci.c **** 		return 0; // Slot number wrong
 383:../asf/sam/drivers/hsmci/hsmci.c **** 	}
 384:../asf/sam/drivers/hsmci/hsmci.c **** }
 457              		.loc 1 384 0
 458 0002 0CBF     		ite	eq
 459 0004 0420     		moveq	r0, #4
 460              	.LVL60:
 461 0006 0020     		movne	r0, #0
 462 0008 7047     		bx	lr
 463              		.cfi_endproc
 464              	.LFE201:
 465              		.size	hsmci_get_bus_width, .-hsmci_get_bus_width
 466 000a 00BF     		.section	.text.hsmci_is_high_speed_capable,"ax",%progbits
 467              		.align	1
 468              		.p2align 2,,3
 469              		.global	hsmci_is_high_speed_capable
 470              		.syntax unified
 471              		.thumb
 472              		.thumb_func
 473              		.fpu fpv5-d16
 474              		.type	hsmci_is_high_speed_capable, %function
 475              	hsmci_is_high_speed_capable:
 476              	.LFB202:
 385:../asf/sam/drivers/hsmci/hsmci.c **** 
 386:../asf/sam/drivers/hsmci/hsmci.c **** bool hsmci_is_high_speed_capable(void)
 387:../asf/sam/drivers/hsmci/hsmci.c **** {
 477              		.loc 1 387 0
 478              		.cfi_startproc
 479              		@ args = 0, pretend = 0, frame = 0
 480              		@ frame_needed = 0, uses_anonymous_args = 0
 481              		@ link register save eliminated.
 388:../asf/sam/drivers/hsmci/hsmci.c **** 	return true;
 389:../asf/sam/drivers/hsmci/hsmci.c **** }
 482              		.loc 1 389 0
 483 0000 0120     		movs	r0, #1
 484 0002 7047     		bx	lr
 485              		.cfi_endproc
 486              	.LFE202:
 487              		.size	hsmci_is_high_speed_capable, .-hsmci_is_high_speed_capable
 488              		.section	.text.hsmci_select_device,"ax",%progbits
 489              		.align	1
 490              		.p2align 2,,3
 491              		.global	hsmci_select_device
 492              		.syntax unified
 493              		.thumb
 494              		.thumb_func
 495              		.fpu fpv5-d16
ARM GAS  /tmp/cc9w1cGI.s 			page 18


 496              		.type	hsmci_select_device, %function
 497              	hsmci_select_device:
 498              	.LFB203:
 390:../asf/sam/drivers/hsmci/hsmci.c **** 
 391:../asf/sam/drivers/hsmci/hsmci.c **** void hsmci_select_device(uint8_t slot, uint32_t clock, uint8_t bus_width, bool high_speed)
 392:../asf/sam/drivers/hsmci/hsmci.c **** {
 499              		.loc 1 392 0
 500              		.cfi_startproc
 501              		@ args = 0, pretend = 0, frame = 0
 502              		@ frame_needed = 0, uses_anonymous_args = 0
 503              		@ link register save eliminated.
 504              	.LVL61:
 393:../asf/sam/drivers/hsmci/hsmci.c **** 	uint32_t hsmci_slot = HSMCI_SDCR_SDCSEL_SLOTA;
 394:../asf/sam/drivers/hsmci/hsmci.c **** 	uint32_t hsmci_bus_width = HSMCI_SDCR_SDCBUS_1;
 395:../asf/sam/drivers/hsmci/hsmci.c **** 
 396:../asf/sam/drivers/hsmci/hsmci.c **** 	if (high_speed) {
 397:../asf/sam/drivers/hsmci/hsmci.c **** 		HSMCI->HSMCI_CFG |= HSMCI_CFG_HSMODE;
 505              		.loc 1 397 0
 506 0000 4FF08040 		mov	r0, #1073741824
 507              	.LVL62:
 396:../asf/sam/drivers/hsmci/hsmci.c **** 		HSMCI->HSMCI_CFG |= HSMCI_CFG_HSMODE;
 508              		.loc 1 396 0
 509 0004 002B     		cmp	r3, #0
 510 0006 2ED0     		beq	.L50
 511              	.LVL63:
 512              		.loc 1 397 0
 513 0008 436D     		ldr	r3, [r0, #84]
 514              	.LVL64:
 515 000a 43F48073 		orr	r3, r3, #256
 516 000e 4365     		str	r3, [r0, #84]
 517              	.LBB74:
 518              	.LBB75:
 181:../asf/sam/drivers/hsmci/hsmci.c **** 		div = (mck / speed) - 2;
 519              		.loc 1 181 0
 520 0010 304B     		ldr	r3, .L75
 521 0012 B3EB410F 		cmp	r3, r1, lsl #1
 522 0016 2ED3     		bcc	.L52
 523              	.L73:
 182:../asf/sam/drivers/hsmci/hsmci.c **** 		if (mck % speed) {
 524              		.loc 1 182 0
 525 0018 2F48     		ldr	r0, .L75+4
 526 001a B0FBF1F3 		udiv	r3, r0, r1
 527              	.LVL65:
 183:../asf/sam/drivers/hsmci/hsmci.c **** 			// Ensure that the card speed not be higher than expected.
 528              		.loc 1 183 0
 529 001e 01FB1301 		mls	r1, r1, r3, r0
 530              	.LVL66:
 531              	.LBE75:
 532              	.LBE74:
 392:../asf/sam/drivers/hsmci/hsmci.c **** 	uint32_t hsmci_slot = HSMCI_SDCR_SDCSEL_SLOTA;
 533              		.loc 1 392 0
 534 0022 10B4     		push	{r4}
 535              		.cfi_def_cfa_offset 4
 536              		.cfi_offset 4, -4
 537              	.LBB82:
 538              	.LBB76:
 183:../asf/sam/drivers/hsmci/hsmci.c **** 			// Ensure that the card speed not be higher than expected.
ARM GAS  /tmp/cc9w1cGI.s 			page 19


 539              		.loc 1 183 0
 540 0024 0029     		cmp	r1, #0
 541 0026 3ED1     		bne	.L53
 182:../asf/sam/drivers/hsmci/hsmci.c **** 		if (mck % speed) {
 542              		.loc 1 182 0
 543 0028 991E     		subs	r1, r3, #2
 544              	.LVL67:
 545              	.L54:
 195:../asf/sam/drivers/hsmci/hsmci.c **** 	HSMCI->HSMCI_MR |= HSMCI_MR_CLKDIV(clkdiv);
 546              		.loc 1 195 0
 547 002a 4FF08043 		mov	r3, #1073741824
 196:../asf/sam/drivers/hsmci/hsmci.c **** 	if (clkodd) {
 548              		.loc 1 196 0
 549 002e C1F34700 		ubfx	r0, r1, #1, #8
 197:../asf/sam/drivers/hsmci/hsmci.c **** 		HSMCI->HSMCI_MR |= HSMCI_MR_CLKODD;
 550              		.loc 1 197 0
 551 0032 C907     		lsls	r1, r1, #31
 552              	.LVL68:
 195:../asf/sam/drivers/hsmci/hsmci.c **** 	HSMCI->HSMCI_MR |= HSMCI_MR_CLKDIV(clkdiv);
 553              		.loc 1 195 0
 554 0034 5C68     		ldr	r4, [r3, #4]
 555 0036 24F0FF04 		bic	r4, r4, #255
 556 003a 5C60     		str	r4, [r3, #4]
 196:../asf/sam/drivers/hsmci/hsmci.c **** 	if (clkodd) {
 557              		.loc 1 196 0
 558 003c 5C68     		ldr	r4, [r3, #4]
 559 003e 40EA0400 		orr	r0, r0, r4
 560 0042 5860     		str	r0, [r3, #4]
 197:../asf/sam/drivers/hsmci/hsmci.c **** 		HSMCI->HSMCI_MR |= HSMCI_MR_CLKODD;
 561              		.loc 1 197 0
 562 0044 31D5     		bpl	.L55
 198:../asf/sam/drivers/hsmci/hsmci.c **** 	}
 563              		.loc 1 198 0
 564 0046 5968     		ldr	r1, [r3, #4]
 565              	.LBE76:
 566              	.LBE82:
 398:../asf/sam/drivers/hsmci/hsmci.c **** 	} else {
 399:../asf/sam/drivers/hsmci/hsmci.c **** 		HSMCI->HSMCI_CFG &= ~HSMCI_CFG_HSMODE;
 400:../asf/sam/drivers/hsmci/hsmci.c **** 	}
 401:../asf/sam/drivers/hsmci/hsmci.c **** 
 402:../asf/sam/drivers/hsmci/hsmci.c **** 	hsmci_set_speed(clock, sysclk_get_peripheral_hz());
 403:../asf/sam/drivers/hsmci/hsmci.c **** 
 404:../asf/sam/drivers/hsmci/hsmci.c **** 	switch (slot) {
 405:../asf/sam/drivers/hsmci/hsmci.c **** 	case 0:
 406:../asf/sam/drivers/hsmci/hsmci.c **** 		hsmci_slot = HSMCI_SDCR_SDCSEL_SLOTA;
 407:../asf/sam/drivers/hsmci/hsmci.c **** 		break;
 408:../asf/sam/drivers/hsmci/hsmci.c **** #if (SD_MMC_HSMCI_MEM_CNT == 2)
 409:../asf/sam/drivers/hsmci/hsmci.c **** 	case 1:
 410:../asf/sam/drivers/hsmci/hsmci.c **** 		hsmci_slot = HSMCI_SDCR_SDCSEL_SLOTB;
 411:../asf/sam/drivers/hsmci/hsmci.c **** 		break;
 412:../asf/sam/drivers/hsmci/hsmci.c **** #endif
 413:../asf/sam/drivers/hsmci/hsmci.c **** 	default:
 414:../asf/sam/drivers/hsmci/hsmci.c **** 		Assert(false); // Slot number wrong
 415:../asf/sam/drivers/hsmci/hsmci.c **** 	}
 416:../asf/sam/drivers/hsmci/hsmci.c **** 
 417:../asf/sam/drivers/hsmci/hsmci.c **** 	switch (bus_width) {
 567              		.loc 1 417 0
ARM GAS  /tmp/cc9w1cGI.s 			page 20


 568 0048 042A     		cmp	r2, #4
 569              	.LBB83:
 570              	.LBB77:
 198:../asf/sam/drivers/hsmci/hsmci.c **** 	}
 571              		.loc 1 198 0
 572 004a 41F48031 		orr	r1, r1, #65536
 573 004e 5960     		str	r1, [r3, #4]
 574              	.LVL69:
 575              	.LBE77:
 576              	.LBE83:
 577              		.loc 1 417 0
 578 0050 33D0     		beq	.L58
 579              	.L74:
 394:../asf/sam/drivers/hsmci/hsmci.c **** 
 580              		.loc 1 394 0
 581 0052 082A     		cmp	r2, #8
 418:../asf/sam/drivers/hsmci/hsmci.c **** 	case 1:
 419:../asf/sam/drivers/hsmci/hsmci.c **** 		hsmci_bus_width = HSMCI_SDCR_SDCBUS_1;
 420:../asf/sam/drivers/hsmci/hsmci.c **** 		break;
 421:../asf/sam/drivers/hsmci/hsmci.c **** 
 422:../asf/sam/drivers/hsmci/hsmci.c **** 	case 4:
 423:../asf/sam/drivers/hsmci/hsmci.c **** 		hsmci_bus_width = HSMCI_SDCR_SDCBUS_4;
 424:../asf/sam/drivers/hsmci/hsmci.c **** 		break;
 425:../asf/sam/drivers/hsmci/hsmci.c **** 
 426:../asf/sam/drivers/hsmci/hsmci.c **** 	case 8:
 427:../asf/sam/drivers/hsmci/hsmci.c **** 		hsmci_bus_width = HSMCI_SDCR_SDCBUS_8;
 428:../asf/sam/drivers/hsmci/hsmci.c **** 		break;
 429:../asf/sam/drivers/hsmci/hsmci.c **** 
 430:../asf/sam/drivers/hsmci/hsmci.c **** 	default:
 431:../asf/sam/drivers/hsmci/hsmci.c **** 		Assert(false); // Bus width wrong
 432:../asf/sam/drivers/hsmci/hsmci.c **** 	}
 433:../asf/sam/drivers/hsmci/hsmci.c **** 	HSMCI->HSMCI_SDCR = hsmci_slot | hsmci_bus_width;
 582              		.loc 1 433 0
 583 0054 4FF08043 		mov	r3, #1073741824
 434:../asf/sam/drivers/hsmci/hsmci.c **** }
 584              		.loc 1 434 0
 585 0058 5DF8044B 		ldr	r4, [sp], #4
 586              		.cfi_restore 4
 587              		.cfi_def_cfa_offset 0
 394:../asf/sam/drivers/hsmci/hsmci.c **** 
 588              		.loc 1 394 0
 589 005c 0CBF     		ite	eq
 590 005e C022     		moveq	r2, #192
 591              	.LVL70:
 592 0060 0022     		movne	r2, #0
 593              	.LVL71:
 433:../asf/sam/drivers/hsmci/hsmci.c **** }
 594              		.loc 1 433 0
 595 0062 DA60     		str	r2, [r3, #12]
 596              		.loc 1 434 0
 597 0064 7047     		bx	lr
 598              	.LVL72:
 599              	.L50:
 399:../asf/sam/drivers/hsmci/hsmci.c **** 	}
 600              		.loc 1 399 0
 601 0066 436D     		ldr	r3, [r0, #84]
 602              	.LVL73:
ARM GAS  /tmp/cc9w1cGI.s 			page 21


 603 0068 23F48073 		bic	r3, r3, #256
 604 006c 4365     		str	r3, [r0, #84]
 605              	.LVL74:
 606              	.LBB84:
 607              	.LBB78:
 181:../asf/sam/drivers/hsmci/hsmci.c **** 		div = (mck / speed) - 2;
 608              		.loc 1 181 0
 609 006e 194B     		ldr	r3, .L75
 610 0070 B3EB410F 		cmp	r3, r1, lsl #1
 611 0074 D0D2     		bcs	.L73
 612              	.L52:
 195:../asf/sam/drivers/hsmci/hsmci.c **** 	HSMCI->HSMCI_MR |= HSMCI_MR_CLKDIV(clkdiv);
 613              		.loc 1 195 0
 614 0076 4FF08043 		mov	r3, #1073741824
 615              	.LBE78:
 616              	.LBE84:
 417:../asf/sam/drivers/hsmci/hsmci.c **** 	case 1:
 617              		.loc 1 417 0
 618 007a 042A     		cmp	r2, #4
 619              	.LBB85:
 620              	.LBB79:
 195:../asf/sam/drivers/hsmci/hsmci.c **** 	HSMCI->HSMCI_MR |= HSMCI_MR_CLKDIV(clkdiv);
 621              		.loc 1 195 0
 622 007c 5968     		ldr	r1, [r3, #4]
 623              	.LVL75:
 624 007e 21F0FF01 		bic	r1, r1, #255
 625 0082 5960     		str	r1, [r3, #4]
 196:../asf/sam/drivers/hsmci/hsmci.c **** 	if (clkodd) {
 626              		.loc 1 196 0
 627 0084 5968     		ldr	r1, [r3, #4]
 628 0086 5960     		str	r1, [r3, #4]
 629              	.LVL76:
 201:../asf/sam/drivers/hsmci/hsmci.c **** 	}
 630              		.loc 1 201 0
 631 0088 4FF08041 		mov	r1, #1073741824
 632 008c 4B68     		ldr	r3, [r1, #4]
 633 008e 23F48033 		bic	r3, r3, #65536
 634 0092 4B60     		str	r3, [r1, #4]
 635              	.LVL77:
 636              	.LBE79:
 637              	.LBE85:
 417:../asf/sam/drivers/hsmci/hsmci.c **** 	case 1:
 638              		.loc 1 417 0
 639 0094 18D0     		beq	.L67
 394:../asf/sam/drivers/hsmci/hsmci.c **** 
 640              		.loc 1 394 0
 641 0096 082A     		cmp	r2, #8
 433:../asf/sam/drivers/hsmci/hsmci.c **** }
 642              		.loc 1 433 0
 643 0098 4FF08043 		mov	r3, #1073741824
 394:../asf/sam/drivers/hsmci/hsmci.c **** 
 644              		.loc 1 394 0
 645 009c 0CBF     		ite	eq
 646 009e C022     		moveq	r2, #192
 647              	.LVL78:
 648 00a0 0022     		movne	r2, #0
 649              	.LVL79:
ARM GAS  /tmp/cc9w1cGI.s 			page 22


 433:../asf/sam/drivers/hsmci/hsmci.c **** }
 650              		.loc 1 433 0
 651 00a2 DA60     		str	r2, [r3, #12]
 652 00a4 7047     		bx	lr
 653              	.LVL80:
 654              	.L53:
 655              		.cfi_def_cfa_offset 4
 656              		.cfi_offset 4, -4
 657              	.LBB86:
 658              	.LBB80:
 185:../asf/sam/drivers/hsmci/hsmci.c **** 		}
 659              		.loc 1 185 0
 660 00a6 591E     		subs	r1, r3, #1
 661              	.LVL81:
 662 00a8 BFE7     		b	.L54
 663              	.LVL82:
 664              	.L55:
 201:../asf/sam/drivers/hsmci/hsmci.c **** 	}
 665              		.loc 1 201 0
 666 00aa 4FF08041 		mov	r1, #1073741824
 667              	.LBE80:
 668              	.LBE86:
 417:../asf/sam/drivers/hsmci/hsmci.c **** 	case 1:
 669              		.loc 1 417 0
 670 00ae 042A     		cmp	r2, #4
 671              	.LBB87:
 672              	.LBB81:
 201:../asf/sam/drivers/hsmci/hsmci.c **** 	}
 673              		.loc 1 201 0
 674 00b0 4B68     		ldr	r3, [r1, #4]
 675 00b2 23F48033 		bic	r3, r3, #65536
 676 00b6 4B60     		str	r3, [r1, #4]
 677              	.LVL83:
 678              	.LBE81:
 679              	.LBE87:
 417:../asf/sam/drivers/hsmci/hsmci.c **** 	case 1:
 680              		.loc 1 417 0
 681 00b8 CBD1     		bne	.L74
 682              	.L58:
 423:../asf/sam/drivers/hsmci/hsmci.c **** 		break;
 683              		.loc 1 423 0
 684 00ba 8022     		movs	r2, #128
 685              	.LVL84:
 433:../asf/sam/drivers/hsmci/hsmci.c **** }
 686              		.loc 1 433 0
 687 00bc 4FF08043 		mov	r3, #1073741824
 688              		.loc 1 434 0
 689 00c0 5DF8044B 		ldr	r4, [sp], #4
 690              		.cfi_restore 4
 691              		.cfi_def_cfa_offset 0
 433:../asf/sam/drivers/hsmci/hsmci.c **** }
 692              		.loc 1 433 0
 693 00c4 DA60     		str	r2, [r3, #12]
 694              		.loc 1 434 0
 695 00c6 7047     		bx	lr
 696              	.LVL85:
 697              	.L67:
ARM GAS  /tmp/cc9w1cGI.s 			page 23


 423:../asf/sam/drivers/hsmci/hsmci.c **** 		break;
 698              		.loc 1 423 0
 699 00c8 8022     		movs	r2, #128
 700              	.LVL86:
 433:../asf/sam/drivers/hsmci/hsmci.c **** }
 701              		.loc 1 433 0
 702 00ca 4FF08043 		mov	r3, #1073741824
 703 00ce DA60     		str	r2, [r3, #12]
 704 00d0 7047     		bx	lr
 705              	.L76:
 706 00d2 00BF     		.align	2
 707              	.L75:
 708 00d4 7FD1F008 		.word	149999999
 709 00d8 80D1F008 		.word	150000000
 710              		.cfi_endproc
 711              	.LFE203:
 712              		.size	hsmci_select_device, .-hsmci_select_device
 713              		.section	.text.hsmci_deselect_device,"ax",%progbits
 714              		.align	1
 715              		.p2align 2,,3
 716              		.global	hsmci_deselect_device
 717              		.syntax unified
 718              		.thumb
 719              		.thumb_func
 720              		.fpu fpv5-d16
 721              		.type	hsmci_deselect_device, %function
 722              	hsmci_deselect_device:
 723              	.LFB204:
 435:../asf/sam/drivers/hsmci/hsmci.c **** 
 436:../asf/sam/drivers/hsmci/hsmci.c **** void hsmci_deselect_device(uint8_t slot)
 437:../asf/sam/drivers/hsmci/hsmci.c **** {
 724              		.loc 1 437 0
 725              		.cfi_startproc
 726              		@ args = 0, pretend = 0, frame = 0
 727              		@ frame_needed = 0, uses_anonymous_args = 0
 728              		@ link register save eliminated.
 729              	.LVL87:
 730 0000 7047     		bx	lr
 731              		.cfi_endproc
 732              	.LFE204:
 733              		.size	hsmci_deselect_device, .-hsmci_deselect_device
 734 0002 00BF     		.section	.text.hsmci_send_clock,"ax",%progbits
 735              		.align	1
 736              		.p2align 2,,3
 737              		.global	hsmci_send_clock
 738              		.syntax unified
 739              		.thumb
 740              		.thumb_func
 741              		.fpu fpv5-d16
 742              		.type	hsmci_send_clock, %function
 743              	hsmci_send_clock:
 744              	.LFB205:
 438:../asf/sam/drivers/hsmci/hsmci.c **** 	UNUSED(slot);
 439:../asf/sam/drivers/hsmci/hsmci.c **** 	// Nothing to do
 440:../asf/sam/drivers/hsmci/hsmci.c **** }
 441:../asf/sam/drivers/hsmci/hsmci.c **** 
 442:../asf/sam/drivers/hsmci/hsmci.c **** void hsmci_send_clock(void)
ARM GAS  /tmp/cc9w1cGI.s 			page 24


 443:../asf/sam/drivers/hsmci/hsmci.c **** {
 745              		.loc 1 443 0
 746              		.cfi_startproc
 747              		@ args = 0, pretend = 0, frame = 0
 748              		@ frame_needed = 0, uses_anonymous_args = 0
 749              		@ link register save eliminated.
 444:../asf/sam/drivers/hsmci/hsmci.c **** 	// Configure command
 445:../asf/sam/drivers/hsmci/hsmci.c **** 	HSMCI->HSMCI_MR &= ~(HSMCI_MR_WRPROOF | HSMCI_MR_RDPROOF | HSMCI_MR_FBYTE);
 750              		.loc 1 445 0
 751 0000 4FF08043 		mov	r3, #1073741824
 446:../asf/sam/drivers/hsmci/hsmci.c **** 	// Write argument
 447:../asf/sam/drivers/hsmci/hsmci.c **** 	HSMCI->HSMCI_ARGR = 0;
 448:../asf/sam/drivers/hsmci/hsmci.c **** 	// Write and start initialization command
 449:../asf/sam/drivers/hsmci/hsmci.c **** 	HSMCI->HSMCI_CMDR = HSMCI_CMDR_RSPTYP_NORESP
 752              		.loc 1 449 0
 753 0004 4FF41060 		mov	r0, #2304
 445:../asf/sam/drivers/hsmci/hsmci.c **** 	// Write argument
 754              		.loc 1 445 0
 755 0008 5968     		ldr	r1, [r3, #4]
 450:../asf/sam/drivers/hsmci/hsmci.c **** 			| HSMCI_CMDR_SPCMD_INIT
 451:../asf/sam/drivers/hsmci/hsmci.c **** 			| HSMCI_CMDR_OPDCMD_OPENDRAIN;
 452:../asf/sam/drivers/hsmci/hsmci.c **** 	// Wait end of initialization command
 453:../asf/sam/drivers/hsmci/hsmci.c **** 	while (!(HSMCI->HSMCI_SR & HSMCI_SR_CMDRDY));
 756              		.loc 1 453 0
 757 000a 1A46     		mov	r2, r3
 443:../asf/sam/drivers/hsmci/hsmci.c **** 	// Configure command
 758              		.loc 1 443 0
 759 000c 10B4     		push	{r4}
 760              		.cfi_def_cfa_offset 4
 761              		.cfi_offset 4, -4
 445:../asf/sam/drivers/hsmci/hsmci.c **** 	// Write argument
 762              		.loc 1 445 0
 763 000e 21F46051 		bic	r1, r1, #14336
 447:../asf/sam/drivers/hsmci/hsmci.c **** 	// Write and start initialization command
 764              		.loc 1 447 0
 765 0012 0024     		movs	r4, #0
 445:../asf/sam/drivers/hsmci/hsmci.c **** 	// Write argument
 766              		.loc 1 445 0
 767 0014 5960     		str	r1, [r3, #4]
 447:../asf/sam/drivers/hsmci/hsmci.c **** 	// Write and start initialization command
 768              		.loc 1 447 0
 769 0016 1C61     		str	r4, [r3, #16]
 449:../asf/sam/drivers/hsmci/hsmci.c **** 			| HSMCI_CMDR_SPCMD_INIT
 770              		.loc 1 449 0
 771 0018 5861     		str	r0, [r3, #20]
 772              	.L79:
 773              		.loc 1 453 0 discriminator 1
 774 001a 136C     		ldr	r3, [r2, #64]
 775 001c DB07     		lsls	r3, r3, #31
 776 001e FCD5     		bpl	.L79
 454:../asf/sam/drivers/hsmci/hsmci.c **** }
 777              		.loc 1 454 0
 778 0020 5DF8044B 		ldr	r4, [sp], #4
 779              		.cfi_restore 4
 780              		.cfi_def_cfa_offset 0
 781 0024 7047     		bx	lr
 782              		.cfi_endproc
ARM GAS  /tmp/cc9w1cGI.s 			page 25


 783              	.LFE205:
 784              		.size	hsmci_send_clock, .-hsmci_send_clock
 785 0026 00BF     		.section	.text.hsmci_send_cmd,"ax",%progbits
 786              		.align	1
 787              		.p2align 2,,3
 788              		.global	hsmci_send_cmd
 789              		.syntax unified
 790              		.thumb
 791              		.thumb_func
 792              		.fpu fpv5-d16
 793              		.type	hsmci_send_cmd, %function
 794              	hsmci_send_cmd:
 795              	.LFB206:
 455:../asf/sam/drivers/hsmci/hsmci.c **** 
 456:../asf/sam/drivers/hsmci/hsmci.c **** bool hsmci_send_cmd(sdmmc_cmd_def_t cmd, uint32_t arg)
 457:../asf/sam/drivers/hsmci/hsmci.c **** {
 796              		.loc 1 457 0
 797              		.cfi_startproc
 798              		@ args = 0, pretend = 0, frame = 0
 799              		@ frame_needed = 0, uses_anonymous_args = 0
 800              		@ link register save eliminated.
 801              	.LVL88:
 458:../asf/sam/drivers/hsmci/hsmci.c **** 	// Configure command
 459:../asf/sam/drivers/hsmci/hsmci.c **** 	HSMCI->HSMCI_MR &= ~(HSMCI_MR_WRPROOF | HSMCI_MR_RDPROOF | HSMCI_MR_FBYTE);
 802              		.loc 1 459 0
 803 0000 4FF08043 		mov	r3, #1073741824
 460:../asf/sam/drivers/hsmci/hsmci.c **** #ifdef HSMCI_SR_DMADONE
 461:../asf/sam/drivers/hsmci/hsmci.c **** 	// Disable DMA for HSMCI
 462:../asf/sam/drivers/hsmci/hsmci.c **** 	HSMCI->HSMCI_DMA = 0;
 463:../asf/sam/drivers/hsmci/hsmci.c **** #endif
 464:../asf/sam/drivers/hsmci/hsmci.c **** #ifdef HSMCI_MR_PDCMODE
 465:../asf/sam/drivers/hsmci/hsmci.c **** 	// Disable PDC for HSMCI
 466:../asf/sam/drivers/hsmci/hsmci.c **** 	HSMCI->HSMCI_MR &= ~HSMCI_MR_PDCMODE;
 467:../asf/sam/drivers/hsmci/hsmci.c **** #endif
 468:../asf/sam/drivers/hsmci/hsmci.c **** #if (SAMV70 || SAMV71 || SAME70 || SAMS70)
 469:../asf/sam/drivers/hsmci/hsmci.c **** #ifdef HSMCI_DMA_DMAEN
 470:../asf/sam/drivers/hsmci/hsmci.c **** 	// Disable DMA for HSMCI
 471:../asf/sam/drivers/hsmci/hsmci.c **** 	HSMCI->HSMCI_DMA = 0;
 472:../asf/sam/drivers/hsmci/hsmci.c **** #endif
 473:../asf/sam/drivers/hsmci/hsmci.c **** #endif
 474:../asf/sam/drivers/hsmci/hsmci.c **** 	HSMCI->HSMCI_BLKR = 0;
 475:../asf/sam/drivers/hsmci/hsmci.c **** 	return hsmci_send_cmd_execute(0, cmd, arg);
 804              		.loc 1 475 0
 805 0004 0A46     		mov	r2, r1
 806 0006 0146     		mov	r1, r0
 807              	.LVL89:
 457:../asf/sam/drivers/hsmci/hsmci.c **** 	// Configure command
 808              		.loc 1 457 0
 809 0008 30B4     		push	{r4, r5}
 810              		.cfi_def_cfa_offset 8
 811              		.cfi_offset 4, -8
 812              		.cfi_offset 5, -4
 459:../asf/sam/drivers/hsmci/hsmci.c **** #ifdef HSMCI_SR_DMADONE
 813              		.loc 1 459 0
 814 000a 5D68     		ldr	r5, [r3, #4]
 471:../asf/sam/drivers/hsmci/hsmci.c **** #endif
 815              		.loc 1 471 0
ARM GAS  /tmp/cc9w1cGI.s 			page 26


 816 000c 0024     		movs	r4, #0
 459:../asf/sam/drivers/hsmci/hsmci.c **** #ifdef HSMCI_SR_DMADONE
 817              		.loc 1 459 0
 818 000e 25F46055 		bic	r5, r5, #14336
 819              		.loc 1 475 0
 820 0012 2046     		mov	r0, r4
 821              	.LVL90:
 459:../asf/sam/drivers/hsmci/hsmci.c **** #ifdef HSMCI_SR_DMADONE
 822              		.loc 1 459 0
 823 0014 5D60     		str	r5, [r3, #4]
 471:../asf/sam/drivers/hsmci/hsmci.c **** #endif
 824              		.loc 1 471 0
 825 0016 1C65     		str	r4, [r3, #80]
 474:../asf/sam/drivers/hsmci/hsmci.c **** 	return hsmci_send_cmd_execute(0, cmd, arg);
 826              		.loc 1 474 0
 827 0018 9C61     		str	r4, [r3, #24]
 476:../asf/sam/drivers/hsmci/hsmci.c **** }
 828              		.loc 1 476 0
 829 001a 30BC     		pop	{r4, r5}
 830              		.cfi_restore 5
 831              		.cfi_restore 4
 832              		.cfi_def_cfa_offset 0
 475:../asf/sam/drivers/hsmci/hsmci.c **** }
 833              		.loc 1 475 0
 834 001c FFF7FEBF 		b	hsmci_send_cmd_execute
 835              	.LVL91:
 836              		.cfi_endproc
 837              	.LFE206:
 838              		.size	hsmci_send_cmd, .-hsmci_send_cmd
 839              		.section	.text.hsmci_get_response,"ax",%progbits
 840              		.align	1
 841              		.p2align 2,,3
 842              		.global	hsmci_get_response
 843              		.syntax unified
 844              		.thumb
 845              		.thumb_func
 846              		.fpu fpv5-d16
 847              		.type	hsmci_get_response, %function
 848              	hsmci_get_response:
 849              	.LFB207:
 477:../asf/sam/drivers/hsmci/hsmci.c **** 
 478:../asf/sam/drivers/hsmci/hsmci.c **** uint32_t hsmci_get_response(void)
 479:../asf/sam/drivers/hsmci/hsmci.c **** {
 850              		.loc 1 479 0
 851              		.cfi_startproc
 852              		@ args = 0, pretend = 0, frame = 0
 853              		@ frame_needed = 0, uses_anonymous_args = 0
 854              		@ link register save eliminated.
 480:../asf/sam/drivers/hsmci/hsmci.c **** 	return HSMCI->HSMCI_RSPR[0];
 855              		.loc 1 480 0
 856 0000 4FF08043 		mov	r3, #1073741824
 857 0004 186A     		ldr	r0, [r3, #32]
 481:../asf/sam/drivers/hsmci/hsmci.c **** }
 858              		.loc 1 481 0
 859 0006 7047     		bx	lr
 860              		.cfi_endproc
 861              	.LFE207:
ARM GAS  /tmp/cc9w1cGI.s 			page 27


 862              		.size	hsmci_get_response, .-hsmci_get_response
 863              		.section	.text.hsmci_get_response_128,"ax",%progbits
 864              		.align	1
 865              		.p2align 2,,3
 866              		.global	hsmci_get_response_128
 867              		.syntax unified
 868              		.thumb
 869              		.thumb_func
 870              		.fpu fpv5-d16
 871              		.type	hsmci_get_response_128, %function
 872              	hsmci_get_response_128:
 873              	.LFB208:
 482:../asf/sam/drivers/hsmci/hsmci.c **** 
 483:../asf/sam/drivers/hsmci/hsmci.c **** void hsmci_get_response_128(uint8_t* response)
 484:../asf/sam/drivers/hsmci/hsmci.c **** {
 874              		.loc 1 484 0
 875              		.cfi_startproc
 876              		@ args = 0, pretend = 0, frame = 0
 877              		@ frame_needed = 0, uses_anonymous_args = 0
 878              		@ link register save eliminated.
 879              	.LVL92:
 880 0000 30B4     		push	{r4, r5}
 881              		.cfi_def_cfa_offset 8
 882              		.cfi_offset 4, -8
 883              		.cfi_offset 5, -4
 884 0002 031D     		adds	r3, r0, #4
 885              	.LBB88:
 485:../asf/sam/drivers/hsmci/hsmci.c **** 	uint32_t response_32;
 486:../asf/sam/drivers/hsmci/hsmci.c **** 
 487:../asf/sam/drivers/hsmci/hsmci.c **** 	for (uint8_t i = 0; i < 4; i++) {
 488:../asf/sam/drivers/hsmci/hsmci.c **** 		response_32 = HSMCI->HSMCI_RSPR[0];
 886              		.loc 1 488 0
 887 0004 4FF08045 		mov	r5, #1073741824
 888 0008 1430     		adds	r0, r0, #20
 889              	.LVL93:
 890              	.L87:
 891              		.loc 1 488 0 is_stmt 0 discriminator 3
 892 000a 2A6A     		ldr	r2, [r5, #32]
 893              	.LVL94:
 894 000c 0433     		adds	r3, r3, #4
 895              	.LVL95:
 489:../asf/sam/drivers/hsmci/hsmci.c **** 		*response = (response_32 >> 24) & 0xFF;
 490:../asf/sam/drivers/hsmci/hsmci.c **** 		response++;
 491:../asf/sam/drivers/hsmci/hsmci.c **** 		*response = (response_32 >> 16) & 0xFF;
 492:../asf/sam/drivers/hsmci/hsmci.c **** 		response++;
 493:../asf/sam/drivers/hsmci/hsmci.c **** 		*response = (response_32 >>  8) & 0xFF;
 494:../asf/sam/drivers/hsmci/hsmci.c **** 		response++;
 495:../asf/sam/drivers/hsmci/hsmci.c **** 		*response = (response_32 >>  0) & 0xFF;
 896              		.loc 1 495 0 is_stmt 1 discriminator 3
 897 000e 03F8052C 		strb	r2, [r3, #-5]
 489:../asf/sam/drivers/hsmci/hsmci.c **** 		*response = (response_32 >> 24) & 0xFF;
 898              		.loc 1 489 0 discriminator 3
 899 0012 140E     		lsrs	r4, r2, #24
 491:../asf/sam/drivers/hsmci/hsmci.c **** 		response++;
 900              		.loc 1 491 0 discriminator 3
 901 0014 110C     		lsrs	r1, r2, #16
 493:../asf/sam/drivers/hsmci/hsmci.c **** 		response++;
ARM GAS  /tmp/cc9w1cGI.s 			page 28


 902              		.loc 1 493 0 discriminator 3
 903 0016 120A     		lsrs	r2, r2, #8
 904              	.LVL96:
 489:../asf/sam/drivers/hsmci/hsmci.c **** 		*response = (response_32 >> 24) & 0xFF;
 905              		.loc 1 489 0 discriminator 3
 906 0018 03F8084C 		strb	r4, [r3, #-8]
 907              	.LVL97:
 491:../asf/sam/drivers/hsmci/hsmci.c **** 		response++;
 908              		.loc 1 491 0 discriminator 3
 909 001c 03F8071C 		strb	r1, [r3, #-7]
 910              	.LVL98:
 493:../asf/sam/drivers/hsmci/hsmci.c **** 		response++;
 911              		.loc 1 493 0 discriminator 3
 912 0020 03F8062C 		strb	r2, [r3, #-6]
 913              	.LVL99:
 487:../asf/sam/drivers/hsmci/hsmci.c **** 		response_32 = HSMCI->HSMCI_RSPR[0];
 914              		.loc 1 487 0 discriminator 3
 915 0024 8342     		cmp	r3, r0
 916 0026 F0D1     		bne	.L87
 917              	.LBE88:
 496:../asf/sam/drivers/hsmci/hsmci.c **** 		response++;
 497:../asf/sam/drivers/hsmci/hsmci.c **** 	}
 498:../asf/sam/drivers/hsmci/hsmci.c **** }
 918              		.loc 1 498 0
 919 0028 30BC     		pop	{r4, r5}
 920              		.cfi_restore 5
 921              		.cfi_restore 4
 922              		.cfi_def_cfa_offset 0
 923 002a 7047     		bx	lr
 924              		.cfi_endproc
 925              	.LFE208:
 926              		.size	hsmci_get_response_128, .-hsmci_get_response_128
 927              		.section	.text.hsmci_adtc_start,"ax",%progbits
 928              		.align	1
 929              		.p2align 2,,3
 930              		.global	hsmci_adtc_start
 931              		.syntax unified
 932              		.thumb
 933              		.thumb_func
 934              		.fpu fpv5-d16
 935              		.type	hsmci_adtc_start, %function
 936              	hsmci_adtc_start:
 937              	.LFB209:
 499:../asf/sam/drivers/hsmci/hsmci.c **** 
 500:../asf/sam/drivers/hsmci/hsmci.c **** bool hsmci_adtc_start(sdmmc_cmd_def_t cmd, uint32_t arg, uint16_t block_size, uint16_t nb_block, bo
 501:../asf/sam/drivers/hsmci/hsmci.c **** {
 938              		.loc 1 501 0
 939              		.cfi_startproc
 940              		@ args = 4, pretend = 0, frame = 0
 941              		@ frame_needed = 0, uses_anonymous_args = 0
 942              	.LVL100:
 943 0000 F0B5     		push	{r4, r5, r6, r7, lr}
 944              		.cfi_def_cfa_offset 20
 945              		.cfi_offset 4, -20
 946              		.cfi_offset 5, -16
 947              		.cfi_offset 6, -12
 948              		.cfi_offset 7, -8
ARM GAS  /tmp/cc9w1cGI.s 			page 29


 949              		.cfi_offset 14, -4
 950              		.loc 1 501 0
 951 0002 9DF81450 		ldrb	r5, [sp, #20]	@ zero_extendqisi2
 952 0006 1446     		mov	r4, r2
 502:../asf/sam/drivers/hsmci/hsmci.c **** 	uint32_t cmdr;
 503:../asf/sam/drivers/hsmci/hsmci.c **** 
 504:../asf/sam/drivers/hsmci/hsmci.c **** #ifdef HSMCI_SR_DMADONE
 505:../asf/sam/drivers/hsmci/hsmci.c **** 	if (access_block) {
 506:../asf/sam/drivers/hsmci/hsmci.c **** 		// Enable DMA for HSMCI
 507:../asf/sam/drivers/hsmci/hsmci.c **** 		HSMCI->HSMCI_DMA = HSMCI_DMA_DMAEN;
 508:../asf/sam/drivers/hsmci/hsmci.c **** 	} else {
 509:../asf/sam/drivers/hsmci/hsmci.c **** 		// Disable DMA for HSMCI
 510:../asf/sam/drivers/hsmci/hsmci.c **** 		HSMCI->HSMCI_DMA = 0;
 511:../asf/sam/drivers/hsmci/hsmci.c **** 	}
 512:../asf/sam/drivers/hsmci/hsmci.c **** #endif
 513:../asf/sam/drivers/hsmci/hsmci.c **** 
 514:../asf/sam/drivers/hsmci/hsmci.c **** #ifdef HSMCI_MR_PDCMODE
 515:../asf/sam/drivers/hsmci/hsmci.c **** 	if (access_block) {
 516:../asf/sam/drivers/hsmci/hsmci.c **** 		// Enable PDC for HSMCI
 517:../asf/sam/drivers/hsmci/hsmci.c **** 		HSMCI->HSMCI_MR |= HSMCI_MR_PDCMODE;
 518:../asf/sam/drivers/hsmci/hsmci.c **** 	} else {
 519:../asf/sam/drivers/hsmci/hsmci.c **** 		// Disable PDC for HSMCI
 520:../asf/sam/drivers/hsmci/hsmci.c **** 		HSMCI->HSMCI_MR &= ~HSMCI_MR_PDCMODE;
 521:../asf/sam/drivers/hsmci/hsmci.c **** 	}
 522:../asf/sam/drivers/hsmci/hsmci.c **** #endif
 523:../asf/sam/drivers/hsmci/hsmci.c **** 
 524:../asf/sam/drivers/hsmci/hsmci.c **** #if (SAMV70 || SAMV71 || SAME70 || SAMS70)
 525:../asf/sam/drivers/hsmci/hsmci.c **** #ifdef HSMCI_DMA_DMAEN
 526:../asf/sam/drivers/hsmci/hsmci.c **** 	if (access_block) {
 527:../asf/sam/drivers/hsmci/hsmci.c **** 		// Enable DMA for HSMCI
 528:../asf/sam/drivers/hsmci/hsmci.c **** 		HSMCI->HSMCI_DMA = HSMCI_DMA_DMAEN;
 953              		.loc 1 528 0
 954 0008 4FF08042 		mov	r2, #1073741824
 955              	.LVL101:
 526:../asf/sam/drivers/hsmci/hsmci.c **** 		// Enable DMA for HSMCI
 956              		.loc 1 526 0
 957 000c 4DB3     		cbz	r5, .L91
 958              		.loc 1 528 0
 959 000e 4FF48075 		mov	r5, #256
 960 0012 1565     		str	r5, [r2, #80]
 961              	.L92:
 529:../asf/sam/drivers/hsmci/hsmci.c **** 	} else {
 530:../asf/sam/drivers/hsmci/hsmci.c **** 		// Disable DMA for HSMCI
 531:../asf/sam/drivers/hsmci/hsmci.c **** 		HSMCI->HSMCI_DMA = 0;
 532:../asf/sam/drivers/hsmci/hsmci.c **** 	}
 533:../asf/sam/drivers/hsmci/hsmci.c **** #endif
 534:../asf/sam/drivers/hsmci/hsmci.c **** #endif
 535:../asf/sam/drivers/hsmci/hsmci.c **** 	// Enabling Read/Write Proof allows to stop the HSMCI Clock during
 536:../asf/sam/drivers/hsmci/hsmci.c **** 	// read/write  access if the internal FIFO is full.
 537:../asf/sam/drivers/hsmci/hsmci.c **** 	// This will guarantee data integrity, not bandwidth.
 538:../asf/sam/drivers/hsmci/hsmci.c **** 	HSMCI->HSMCI_MR |= HSMCI_MR_WRPROOF | HSMCI_MR_RDPROOF;
 962              		.loc 1 538 0
 963 0014 4FF08042 		mov	r2, #1073741824
 539:../asf/sam/drivers/hsmci/hsmci.c **** 	// Force byte transfer if needed
 540:../asf/sam/drivers/hsmci/hsmci.c **** 	if (block_size & 0x3) {
 964              		.loc 1 540 0
 965 0018 A707     		lsls	r7, r4, #30
ARM GAS  /tmp/cc9w1cGI.s 			page 30


 538:../asf/sam/drivers/hsmci/hsmci.c **** 	// Force byte transfer if needed
 966              		.loc 1 538 0
 967 001a 5568     		ldr	r5, [r2, #4]
 968 001c 45F4C055 		orr	r5, r5, #6144
 969 0020 5560     		str	r5, [r2, #4]
 541:../asf/sam/drivers/hsmci/hsmci.c **** 		HSMCI->HSMCI_MR |= HSMCI_MR_FBYTE;
 970              		.loc 1 541 0
 971 0022 5568     		ldr	r5, [r2, #4]
 972 0024 14BF     		ite	ne
 973 0026 45F40055 		orrne	r5, r5, #8192
 542:../asf/sam/drivers/hsmci/hsmci.c **** 	} else {
 543:../asf/sam/drivers/hsmci/hsmci.c **** 		HSMCI->HSMCI_MR &= ~HSMCI_MR_FBYTE;
 974              		.loc 1 543 0
 975 002a 25F40055 		biceq	r5, r5, #8192
 544:../asf/sam/drivers/hsmci/hsmci.c **** 	}
 545:../asf/sam/drivers/hsmci/hsmci.c **** 
 546:../asf/sam/drivers/hsmci/hsmci.c **** 	if (cmd & SDMMC_CMD_WRITE) {
 547:../asf/sam/drivers/hsmci/hsmci.c **** 		cmdr = HSMCI_CMDR_TRCMD_START_DATA | HSMCI_CMDR_TRDIR_WRITE;
 548:../asf/sam/drivers/hsmci/hsmci.c **** 	} else {
 549:../asf/sam/drivers/hsmci/hsmci.c **** 		cmdr = HSMCI_CMDR_TRCMD_START_DATA | HSMCI_CMDR_TRDIR_READ;
 976              		.loc 1 549 0
 977 002e 10F4004F 		tst	r0, #32768
 543:../asf/sam/drivers/hsmci/hsmci.c **** 	}
 978              		.loc 1 543 0
 979 0032 5560     		str	r5, [r2, #4]
 980              		.loc 1 549 0
 981 0034 14BF     		ite	ne
 982 0036 4FF48035 		movne	r5, #65536
 983 003a 4FF4A025 		moveq	r5, #327680
 984              	.LVL102:
 550:../asf/sam/drivers/hsmci/hsmci.c **** 	}
 551:../asf/sam/drivers/hsmci/hsmci.c **** 
 552:../asf/sam/drivers/hsmci/hsmci.c **** 	if (cmd & SDMMC_CMD_SDIO_BYTE) {
 985              		.loc 1 552 0
 986 003e C603     		lsls	r6, r0, #15
 987 0040 23D4     		bmi	.L105
 553:../asf/sam/drivers/hsmci/hsmci.c **** 			cmdr |= HSMCI_CMDR_TRTYP_BYTE;
 554:../asf/sam/drivers/hsmci/hsmci.c **** 			// Value 0 corresponds to a 512-byte transfer
 555:../asf/sam/drivers/hsmci/hsmci.c **** 			HSMCI->HSMCI_BLKR = ((block_size % 512) << HSMCI_BLKR_BCNT_Pos);
 556:../asf/sam/drivers/hsmci/hsmci.c **** 	} else {
 557:../asf/sam/drivers/hsmci/hsmci.c **** 		HSMCI->HSMCI_BLKR = (block_size << HSMCI_BLKR_BLKLEN_Pos) |
 988              		.loc 1 557 0
 989 0042 43EA0442 		orr	r2, r3, r4, lsl #16
 990 0046 4FF08046 		mov	r6, #1073741824
 991 004a B261     		str	r2, [r6, #24]
 558:../asf/sam/drivers/hsmci/hsmci.c **** 				(nb_block << HSMCI_BLKR_BCNT_Pos);
 559:../asf/sam/drivers/hsmci/hsmci.c **** 		if (cmd & SDMMC_CMD_SDIO_BLOCK) {
 992              		.loc 1 559 0
 993 004c 8203     		lsls	r2, r0, #14
 994 004e 0AD4     		bmi	.L106
 560:../asf/sam/drivers/hsmci/hsmci.c **** 			cmdr |= HSMCI_CMDR_TRTYP_BLOCK;
 561:../asf/sam/drivers/hsmci/hsmci.c **** 		} else if (cmd & SDMMC_CMD_STREAM) {
 995              		.loc 1 561 0
 996 0050 4703     		lsls	r7, r0, #13
 997 0052 22D4     		bmi	.L107
 562:../asf/sam/drivers/hsmci/hsmci.c **** 			cmdr |= HSMCI_CMDR_TRTYP_STREAM;
 563:../asf/sam/drivers/hsmci/hsmci.c **** 		} else if (cmd & SDMMC_CMD_SINGLE_BLOCK) {
ARM GAS  /tmp/cc9w1cGI.s 			page 31


 998              		.loc 1 563 0
 999 0054 0603     		lsls	r6, r0, #12
 1000 0056 08D4     		bmi	.L97
 564:../asf/sam/drivers/hsmci/hsmci.c **** 			cmdr |= HSMCI_CMDR_TRTYP_SINGLE;
 565:../asf/sam/drivers/hsmci/hsmci.c **** 		} else if (cmd & SDMMC_CMD_MULTI_BLOCK) {
 1001              		.loc 1 565 0
 1002 0058 C202     		lsls	r2, r0, #11
 566:../asf/sam/drivers/hsmci/hsmci.c **** 			cmdr |= HSMCI_CMDR_TRTYP_MULTIPLE;
 1003              		.loc 1 566 0
 1004 005a 48BF     		it	mi
 1005 005c 45F40025 		orrmi	r5, r5, #524288
 1006              	.LVL103:
 1007 0060 03E0     		b	.L97
 1008              	.LVL104:
 1009              	.L91:
 531:../asf/sam/drivers/hsmci/hsmci.c **** 	}
 1010              		.loc 1 531 0
 1011 0062 1565     		str	r5, [r2, #80]
 1012 0064 D6E7     		b	.L92
 1013              	.LVL105:
 1014              	.L106:
 560:../asf/sam/drivers/hsmci/hsmci.c **** 		} else if (cmd & SDMMC_CMD_STREAM) {
 1015              		.loc 1 560 0
 1016 0066 45F42015 		orr	r5, r5, #2621440
 1017              	.LVL106:
 1018              	.L97:
 567:../asf/sam/drivers/hsmci/hsmci.c **** 		} else {
 568:../asf/sam/drivers/hsmci/hsmci.c **** 			Assert(false); // Incorrect flags
 569:../asf/sam/drivers/hsmci/hsmci.c **** 		}
 570:../asf/sam/drivers/hsmci/hsmci.c **** 	}
 571:../asf/sam/drivers/hsmci/hsmci.c **** 	hsmci_transfert_pos = 0;
 1019              		.loc 1 571 0
 1020 006a 0D4F     		ldr	r7, .L108
 1021 006c 4FF0000E 		mov	lr, #0
 572:../asf/sam/drivers/hsmci/hsmci.c **** 	hsmci_block_size = block_size;
 1022              		.loc 1 572 0
 1023 0070 0C4E     		ldr	r6, .L108+4
 573:../asf/sam/drivers/hsmci/hsmci.c **** 	hsmci_nb_block = nb_block;
 574:../asf/sam/drivers/hsmci/hsmci.c **** 
 575:../asf/sam/drivers/hsmci/hsmci.c **** 	return hsmci_send_cmd_execute(cmdr, cmd, arg);
 1024              		.loc 1 575 0
 1025 0072 0A46     		mov	r2, r1
 1026 0074 0146     		mov	r1, r0
 1027              	.LVL107:
 1028 0076 2846     		mov	r0, r5
 1029              	.LVL108:
 573:../asf/sam/drivers/hsmci/hsmci.c **** 	hsmci_nb_block = nb_block;
 1030              		.loc 1 573 0
 1031 0078 0B4D     		ldr	r5, .L108+8
 1032              	.LVL109:
 571:../asf/sam/drivers/hsmci/hsmci.c **** 	hsmci_block_size = block_size;
 1033              		.loc 1 571 0
 1034 007a C7F800E0 		str	lr, [r7]
 572:../asf/sam/drivers/hsmci/hsmci.c **** 	hsmci_block_size = block_size;
 1035              		.loc 1 572 0
 1036 007e 3480     		strh	r4, [r6]	@ movhi
 573:../asf/sam/drivers/hsmci/hsmci.c **** 	hsmci_nb_block = nb_block;
ARM GAS  /tmp/cc9w1cGI.s 			page 32


 1037              		.loc 1 573 0
 1038 0080 2B80     		strh	r3, [r5]	@ movhi
 576:../asf/sam/drivers/hsmci/hsmci.c **** }
 1039              		.loc 1 576 0
 1040 0082 BDE8F040 		pop	{r4, r5, r6, r7, lr}
 1041              		.cfi_remember_state
 1042              		.cfi_restore 14
 1043              		.cfi_restore 7
 1044              		.cfi_restore 6
 1045              		.cfi_restore 5
 1046              		.cfi_restore 4
 1047              		.cfi_def_cfa_offset 0
 1048              	.LVL110:
 575:../asf/sam/drivers/hsmci/hsmci.c **** }
 1049              		.loc 1 575 0
 1050 0086 FFF7FEBF 		b	hsmci_send_cmd_execute
 1051              	.LVL111:
 1052              	.L105:
 1053              		.cfi_restore_state
 555:../asf/sam/drivers/hsmci/hsmci.c **** 	} else {
 1054              		.loc 1 555 0
 1055 008a C4F30802 		ubfx	r2, r4, #0, #9
 1056 008e 4FF08046 		mov	r6, #1073741824
 553:../asf/sam/drivers/hsmci/hsmci.c **** 			// Value 0 corresponds to a 512-byte transfer
 1057              		.loc 1 553 0
 1058 0092 45F40015 		orr	r5, r5, #2097152
 1059              	.LVL112:
 555:../asf/sam/drivers/hsmci/hsmci.c **** 	} else {
 1060              		.loc 1 555 0
 1061 0096 B261     		str	r2, [r6, #24]
 1062 0098 E7E7     		b	.L97
 1063              	.L107:
 562:../asf/sam/drivers/hsmci/hsmci.c **** 		} else if (cmd & SDMMC_CMD_SINGLE_BLOCK) {
 1064              		.loc 1 562 0
 1065 009a 45F48015 		orr	r5, r5, #1048576
 1066              	.LVL113:
 1067 009e E4E7     		b	.L97
 1068              	.L109:
 1069              		.align	2
 1070              	.L108:
 1071 00a0 00000000 		.word	.LANCHOR1
 1072 00a4 00000000 		.word	.LANCHOR2
 1073 00a8 00000000 		.word	.LANCHOR3
 1074              		.cfi_endproc
 1075              	.LFE209:
 1076              		.size	hsmci_adtc_start, .-hsmci_adtc_start
 1077              		.section	.text.hsmci_adtc_stop,"ax",%progbits
 1078              		.align	1
 1079              		.p2align 2,,3
 1080              		.global	hsmci_adtc_stop
 1081              		.syntax unified
 1082              		.thumb
 1083              		.thumb_func
 1084              		.fpu fpv5-d16
 1085              		.type	hsmci_adtc_stop, %function
 1086              	hsmci_adtc_stop:
 1087              	.LFB210:
ARM GAS  /tmp/cc9w1cGI.s 			page 33


 577:../asf/sam/drivers/hsmci/hsmci.c **** 
 578:../asf/sam/drivers/hsmci/hsmci.c **** bool hsmci_adtc_stop(sdmmc_cmd_def_t cmd, uint32_t arg)
 579:../asf/sam/drivers/hsmci/hsmci.c **** {
 1088              		.loc 1 579 0
 1089              		.cfi_startproc
 1090              		@ args = 0, pretend = 0, frame = 0
 1091              		@ frame_needed = 0, uses_anonymous_args = 0
 1092              		@ link register save eliminated.
 1093              	.LVL114:
 580:../asf/sam/drivers/hsmci/hsmci.c **** 	return hsmci_send_cmd_execute(HSMCI_CMDR_TRCMD_STOP_DATA, cmd, arg);
 1094              		.loc 1 580 0
 1095 0000 0A46     		mov	r2, r1
 1096 0002 0146     		mov	r1, r0
 1097              	.LVL115:
 1098 0004 4FF40030 		mov	r0, #131072
 1099              	.LVL116:
 1100 0008 FFF7FEBF 		b	hsmci_send_cmd_execute
 1101              	.LVL117:
 1102              		.cfi_endproc
 1103              	.LFE210:
 1104              		.size	hsmci_adtc_stop, .-hsmci_adtc_stop
 1105              		.section	.text.hsmci_read_word,"ax",%progbits
 1106              		.align	1
 1107              		.p2align 2,,3
 1108              		.global	hsmci_read_word
 1109              		.syntax unified
 1110              		.thumb
 1111              		.thumb_func
 1112              		.fpu fpv5-d16
 1113              		.type	hsmci_read_word, %function
 1114              	hsmci_read_word:
 1115              	.LFB211:
 581:../asf/sam/drivers/hsmci/hsmci.c **** }
 582:../asf/sam/drivers/hsmci/hsmci.c **** 
 583:../asf/sam/drivers/hsmci/hsmci.c **** bool hsmci_read_word(uint32_t* value)
 584:../asf/sam/drivers/hsmci/hsmci.c **** {
 1116              		.loc 1 584 0
 1117              		.cfi_startproc
 1118              		@ args = 0, pretend = 0, frame = 0
 1119              		@ frame_needed = 0, uses_anonymous_args = 0
 1120              	.LVL118:
 1121 0000 F8B5     		push	{r3, r4, r5, r6, r7, lr}
 1122              		.cfi_def_cfa_offset 24
 1123              		.cfi_offset 3, -24
 1124              		.cfi_offset 4, -20
 1125              		.cfi_offset 5, -16
 1126              		.cfi_offset 6, -12
 1127              		.cfi_offset 7, -8
 1128              		.cfi_offset 14, -4
 585:../asf/sam/drivers/hsmci/hsmci.c **** 	uint32_t sr;
 586:../asf/sam/drivers/hsmci/hsmci.c **** 
 587:../asf/sam/drivers/hsmci/hsmci.c **** 	Assert(((uint32_t)hsmci_block_size * hsmci_nb_block) > hsmci_transfert_pos);
 588:../asf/sam/drivers/hsmci/hsmci.c **** 
 589:../asf/sam/drivers/hsmci/hsmci.c **** 	// Wait data available
 590:../asf/sam/drivers/hsmci/hsmci.c **** 	do {
 591:../asf/sam/drivers/hsmci/hsmci.c **** 		sr = HSMCI->HSMCI_SR;
 1129              		.loc 1 591 0
ARM GAS  /tmp/cc9w1cGI.s 			page 34


 1130 0002 4FF08042 		mov	r2, #1073741824
 592:../asf/sam/drivers/hsmci/hsmci.c **** 		if (sr & (HSMCI_SR_UNRE | HSMCI_SR_OVRE | \
 1131              		.loc 1 592 0
 1132 0006 1E49     		ldr	r1, .L131
 1133 0008 01E0     		b	.L114
 1134              	.LVL119:
 1135              	.L130:
 593:../asf/sam/drivers/hsmci/hsmci.c **** 				HSMCI_SR_DTOE | HSMCI_SR_DCRCE)) {
 594:../asf/sam/drivers/hsmci/hsmci.c **** 			hsmci_debug("%s: DMA sr 0x%08x error\n\r",
 595:../asf/sam/drivers/hsmci/hsmci.c **** 					__func__, sr);
 596:../asf/sam/drivers/hsmci/hsmci.c **** 			hsmci_reset();
 597:../asf/sam/drivers/hsmci/hsmci.c **** 			return false;
 598:../asf/sam/drivers/hsmci/hsmci.c **** 		}
 599:../asf/sam/drivers/hsmci/hsmci.c **** 	} while (!(sr & HSMCI_SR_RXRDY));
 1136              		.loc 1 599 0
 1137 000a 9C07     		lsls	r4, r3, #30
 1138 000c 16D4     		bmi	.L129
 1139              	.LVL120:
 1140              	.L114:
 591:../asf/sam/drivers/hsmci/hsmci.c **** 		if (sr & (HSMCI_SR_UNRE | HSMCI_SR_OVRE | \
 1141              		.loc 1 591 0
 1142 000e 136C     		ldr	r3, [r2, #64]
 1143              	.LVL121:
 592:../asf/sam/drivers/hsmci/hsmci.c **** 		if (sr & (HSMCI_SR_UNRE | HSMCI_SR_OVRE | \
 1144              		.loc 1 592 0
 1145 0010 0B42     		tst	r3, r1
 1146 0012 FAD0     		beq	.L130
 1147              	.LVL122:
 1148              	.L128:
 1149              	.LBB89:
 1150              	.LBB90:
 143:../asf/sam/drivers/hsmci/hsmci.c **** 	uint32_t dtor = HSMCI->HSMCI_DTOR;
 1151              		.loc 1 143 0
 1152 0014 5068     		ldr	r0, [r2, #4]
 1153              	.LVL123:
 159:../asf/sam/drivers/hsmci/hsmci.c **** #endif
 1154              		.loc 1 159 0
 1155 0016 0023     		movs	r3, #0
 1156              	.LVL124:
 144:../asf/sam/drivers/hsmci/hsmci.c **** 	uint32_t sdcr = HSMCI->HSMCI_SDCR;
 1157              		.loc 1 144 0
 1158 0018 9768     		ldr	r7, [r2, #8]
 1159              	.LVL125:
 148:../asf/sam/drivers/hsmci/hsmci.c **** 	HSMCI->HSMCI_MR = mr;
 1160              		.loc 1 148 0
 1161 001a 4FF0800E 		mov	lr, #128
 145:../asf/sam/drivers/hsmci/hsmci.c **** 	uint32_t cstor = HSMCI->HSMCI_CSTOR;
 1162              		.loc 1 145 0
 1163 001e D668     		ldr	r6, [r2, #12]
 1164              	.LVL126:
 163:../asf/sam/drivers/hsmci/hsmci.c **** }
 1165              		.loc 1 163 0
 1166 0020 0521     		movs	r1, #5
 146:../asf/sam/drivers/hsmci/hsmci.c **** 	uint32_t cfg = HSMCI->HSMCI_CFG;
 1167              		.loc 1 146 0
 1168 0022 D569     		ldr	r5, [r2, #28]
 1169              	.LVL127:
ARM GAS  /tmp/cc9w1cGI.s 			page 35


 147:../asf/sam/drivers/hsmci/hsmci.c **** 	HSMCI->HSMCI_CR = HSMCI_CR_SWRST;
 1170              		.loc 1 147 0
 1171 0024 546D     		ldr	r4, [r2, #84]
 1172              	.LVL128:
 148:../asf/sam/drivers/hsmci/hsmci.c **** 	HSMCI->HSMCI_MR = mr;
 1173              		.loc 1 148 0
 1174 0026 C2F800E0 		str	lr, [r2]
 149:../asf/sam/drivers/hsmci/hsmci.c **** 	HSMCI->HSMCI_DTOR = dtor;
 1175              		.loc 1 149 0
 1176 002a 5060     		str	r0, [r2, #4]
 1177              	.LBE90:
 1178              	.LBE89:
 600:../asf/sam/drivers/hsmci/hsmci.c **** 
 601:../asf/sam/drivers/hsmci/hsmci.c **** 	// Read data
 602:../asf/sam/drivers/hsmci/hsmci.c **** 	*value = HSMCI->HSMCI_RDR;
 603:../asf/sam/drivers/hsmci/hsmci.c **** 	hsmci_transfert_pos += 4;
 604:../asf/sam/drivers/hsmci/hsmci.c **** 	if (((uint32_t)hsmci_block_size * hsmci_nb_block) > hsmci_transfert_pos) {
 605:../asf/sam/drivers/hsmci/hsmci.c **** 		return true;
 606:../asf/sam/drivers/hsmci/hsmci.c **** 	}
 607:../asf/sam/drivers/hsmci/hsmci.c **** 
 608:../asf/sam/drivers/hsmci/hsmci.c **** 	// Wait end of transfer
 609:../asf/sam/drivers/hsmci/hsmci.c **** 	// Note: no need of timeout, because it is include in HSMCI
 610:../asf/sam/drivers/hsmci/hsmci.c **** 	do {
 611:../asf/sam/drivers/hsmci/hsmci.c **** #if 1  // dc42 changes
 612:../asf/sam/drivers/hsmci/hsmci.c **** 		if (hsmciIdleFunc != NULL)
 613:../asf/sam/drivers/hsmci/hsmci.c **** 		{
 614:../asf/sam/drivers/hsmci/hsmci.c **** 			hsmciIdleFunc(HSMCI_SR_UNRE | HSMCI_SR_OVRE | HSMCI_SR_DTOE | HSMCI_SR_DCRCE | HSMCI_SR_XFRDONE,
 615:../asf/sam/drivers/hsmci/hsmci.c **** 		}
 616:../asf/sam/drivers/hsmci/hsmci.c **** #endif
 617:../asf/sam/drivers/hsmci/hsmci.c **** 		sr = HSMCI->HSMCI_SR;
 618:../asf/sam/drivers/hsmci/hsmci.c **** 		if (sr & (HSMCI_SR_UNRE | HSMCI_SR_OVRE | \
 619:../asf/sam/drivers/hsmci/hsmci.c **** 				HSMCI_SR_DTOE | HSMCI_SR_DCRCE)) {
 620:../asf/sam/drivers/hsmci/hsmci.c **** 			hsmci_debug("%s: DMA sr 0x%08x error\n\r",
 621:../asf/sam/drivers/hsmci/hsmci.c **** 					__func__, sr);
 622:../asf/sam/drivers/hsmci/hsmci.c **** 			hsmci_reset();
 623:../asf/sam/drivers/hsmci/hsmci.c **** 			return false;
 1179              		.loc 1 623 0
 1180 002c 1846     		mov	r0, r3
 1181              	.LVL129:
 1182              	.LBB92:
 1183              	.LBB91:
 150:../asf/sam/drivers/hsmci/hsmci.c **** 	HSMCI->HSMCI_SDCR = sdcr;
 1184              		.loc 1 150 0
 1185 002e 9760     		str	r7, [r2, #8]
 1186              	.LVL130:
 151:../asf/sam/drivers/hsmci/hsmci.c **** 	HSMCI->HSMCI_CSTOR = cstor;
 1187              		.loc 1 151 0
 1188 0030 D660     		str	r6, [r2, #12]
 152:../asf/sam/drivers/hsmci/hsmci.c **** 	HSMCI->HSMCI_CFG = cfg;
 1189              		.loc 1 152 0
 1190 0032 D561     		str	r5, [r2, #28]
 153:../asf/sam/drivers/hsmci/hsmci.c **** #ifdef HSMCI_SR_DMADONE
 1191              		.loc 1 153 0
 1192 0034 5465     		str	r4, [r2, #84]
 159:../asf/sam/drivers/hsmci/hsmci.c **** #endif
 1193              		.loc 1 159 0
 1194 0036 1365     		str	r3, [r2, #80]
ARM GAS  /tmp/cc9w1cGI.s 			page 36


 163:../asf/sam/drivers/hsmci/hsmci.c **** }
 1195              		.loc 1 163 0
 1196 0038 1160     		str	r1, [r2]
 1197              	.LVL131:
 1198              	.LBE91:
 1199              	.LBE92:
 1200              		.loc 1 623 0
 1201 003a F8BD     		pop	{r3, r4, r5, r6, r7, pc}
 1202              	.LVL132:
 1203              	.L129:
 603:../asf/sam/drivers/hsmci/hsmci.c **** 	if (((uint32_t)hsmci_block_size * hsmci_nb_block) > hsmci_transfert_pos) {
 1204              		.loc 1 603 0
 1205 003c 114C     		ldr	r4, .L131+4
 604:../asf/sam/drivers/hsmci/hsmci.c **** 		return true;
 1206              		.loc 1 604 0
 1207 003e 124D     		ldr	r5, .L131+8
 1208 0040 1249     		ldr	r1, .L131+12
 603:../asf/sam/drivers/hsmci/hsmci.c **** 	if (((uint32_t)hsmci_block_size * hsmci_nb_block) > hsmci_transfert_pos) {
 1209              		.loc 1 603 0
 1210 0042 2368     		ldr	r3, [r4]
 1211              	.LVL133:
 604:../asf/sam/drivers/hsmci/hsmci.c **** 		return true;
 1212              		.loc 1 604 0
 1213 0044 2E88     		ldrh	r6, [r5]
 1214 0046 0988     		ldrh	r1, [r1]
 603:../asf/sam/drivers/hsmci/hsmci.c **** 	if (((uint32_t)hsmci_block_size * hsmci_nb_block) > hsmci_transfert_pos) {
 1215              		.loc 1 603 0
 1216 0048 0433     		adds	r3, r3, #4
 602:../asf/sam/drivers/hsmci/hsmci.c **** 	hsmci_transfert_pos += 4;
 1217              		.loc 1 602 0
 1218 004a 156B     		ldr	r5, [r2, #48]
 604:../asf/sam/drivers/hsmci/hsmci.c **** 		return true;
 1219              		.loc 1 604 0
 1220 004c 01FB06F2 		mul	r2, r1, r6
 602:../asf/sam/drivers/hsmci/hsmci.c **** 	hsmci_transfert_pos += 4;
 1221              		.loc 1 602 0
 1222 0050 0560     		str	r5, [r0]
 604:../asf/sam/drivers/hsmci/hsmci.c **** 		return true;
 1223              		.loc 1 604 0
 1224 0052 9342     		cmp	r3, r2
 603:../asf/sam/drivers/hsmci/hsmci.c **** 	if (((uint32_t)hsmci_block_size * hsmci_nb_block) > hsmci_transfert_pos) {
 1225              		.loc 1 603 0
 1226 0054 2360     		str	r3, [r4]
 604:../asf/sam/drivers/hsmci/hsmci.c **** 		return true;
 1227              		.loc 1 604 0
 1228 0056 10D3     		bcc	.L118
 1229 0058 0D4E     		ldr	r6, .L131+16
 614:../asf/sam/drivers/hsmci/hsmci.c **** 		}
 1230              		.loc 1 614 0
 1231 005a 0E4D     		ldr	r5, .L131+20
 618:../asf/sam/drivers/hsmci/hsmci.c **** 				HSMCI_SR_DTOE | HSMCI_SR_DCRCE)) {
 1232              		.loc 1 618 0
 1233 005c 084C     		ldr	r4, .L131
 1234 005e 01E0     		b	.L115
 1235              	.LVL134:
 1236              	.L117:
 624:../asf/sam/drivers/hsmci/hsmci.c **** 		}
ARM GAS  /tmp/cc9w1cGI.s 			page 37


 625:../asf/sam/drivers/hsmci/hsmci.c **** 	} while (!(sr & HSMCI_SR_XFRDONE));
 1237              		.loc 1 625 0
 1238 0060 1B01     		lsls	r3, r3, #4
 1239              	.LVL135:
 1240 0062 0AD4     		bmi	.L118
 1241              	.L115:
 612:../asf/sam/drivers/hsmci/hsmci.c **** 		{
 1242              		.loc 1 612 0
 1243 0064 3368     		ldr	r3, [r6]
 614:../asf/sam/drivers/hsmci/hsmci.c **** 		}
 1244              		.loc 1 614 0
 1245 0066 0021     		movs	r1, #0
 1246 0068 2846     		mov	r0, r5
 612:../asf/sam/drivers/hsmci/hsmci.c **** 		{
 1247              		.loc 1 612 0
 1248 006a 03B1     		cbz	r3, .L116
 614:../asf/sam/drivers/hsmci/hsmci.c **** 		}
 1249              		.loc 1 614 0
 1250 006c 9847     		blx	r3
 1251              	.LVL136:
 1252              	.L116:
 617:../asf/sam/drivers/hsmci/hsmci.c **** 		if (sr & (HSMCI_SR_UNRE | HSMCI_SR_OVRE | \
 1253              		.loc 1 617 0
 1254 006e 4FF08042 		mov	r2, #1073741824
 1255 0072 136C     		ldr	r3, [r2, #64]
 1256              	.LVL137:
 618:../asf/sam/drivers/hsmci/hsmci.c **** 				HSMCI_SR_DTOE | HSMCI_SR_DCRCE)) {
 1257              		.loc 1 618 0
 1258 0074 2342     		tst	r3, r4
 1259 0076 F3D0     		beq	.L117
 1260 0078 CCE7     		b	.L128
 1261              	.LVL138:
 1262              	.L118:
 605:../asf/sam/drivers/hsmci/hsmci.c **** 	}
 1263              		.loc 1 605 0
 1264 007a 0120     		movs	r0, #1
 1265 007c F8BD     		pop	{r3, r4, r5, r6, r7, pc}
 1266              	.L132:
 1267 007e 00BF     		.align	2
 1268              	.L131:
 1269 0080 000060C0 		.word	-1067450368
 1270 0084 00000000 		.word	.LANCHOR1
 1271 0088 00000000 		.word	.LANCHOR2
 1272 008c 00000000 		.word	.LANCHOR3
 1273 0090 00000000 		.word	.LANCHOR0
 1274 0094 000060C8 		.word	-933232640
 1275              		.cfi_endproc
 1276              	.LFE211:
 1277              		.size	hsmci_read_word, .-hsmci_read_word
 1278              		.section	.text.hsmci_write_word,"ax",%progbits
 1279              		.align	1
 1280              		.p2align 2,,3
 1281              		.global	hsmci_write_word
 1282              		.syntax unified
 1283              		.thumb
 1284              		.thumb_func
 1285              		.fpu fpv5-d16
ARM GAS  /tmp/cc9w1cGI.s 			page 38


 1286              		.type	hsmci_write_word, %function
 1287              	hsmci_write_word:
 1288              	.LFB212:
 626:../asf/sam/drivers/hsmci/hsmci.c **** 	return true;
 627:../asf/sam/drivers/hsmci/hsmci.c **** }
 628:../asf/sam/drivers/hsmci/hsmci.c **** 
 629:../asf/sam/drivers/hsmci/hsmci.c **** bool hsmci_write_word(uint32_t value)
 630:../asf/sam/drivers/hsmci/hsmci.c **** {
 1289              		.loc 1 630 0
 1290              		.cfi_startproc
 1291              		@ args = 0, pretend = 0, frame = 0
 1292              		@ frame_needed = 0, uses_anonymous_args = 0
 1293              	.LVL139:
 1294 0000 F8B5     		push	{r3, r4, r5, r6, r7, lr}
 1295              		.cfi_def_cfa_offset 24
 1296              		.cfi_offset 3, -24
 1297              		.cfi_offset 4, -20
 1298              		.cfi_offset 5, -16
 1299              		.cfi_offset 6, -12
 1300              		.cfi_offset 7, -8
 1301              		.cfi_offset 14, -4
 631:../asf/sam/drivers/hsmci/hsmci.c **** 	uint32_t sr;
 632:../asf/sam/drivers/hsmci/hsmci.c **** 
 633:../asf/sam/drivers/hsmci/hsmci.c **** 	Assert(((uint32_t)hsmci_block_size * hsmci_nb_block) > hsmci_transfert_pos);
 634:../asf/sam/drivers/hsmci/hsmci.c **** 
 635:../asf/sam/drivers/hsmci/hsmci.c **** 	// Wait data available
 636:../asf/sam/drivers/hsmci/hsmci.c **** 	do {
 637:../asf/sam/drivers/hsmci/hsmci.c **** 		sr = HSMCI->HSMCI_SR;
 1302              		.loc 1 637 0
 1303 0002 4FF08042 		mov	r2, #1073741824
 638:../asf/sam/drivers/hsmci/hsmci.c **** 		if (sr & (HSMCI_SR_UNRE | HSMCI_SR_OVRE | \
 1304              		.loc 1 638 0
 1305 0006 1D49     		ldr	r1, .L153
 1306 0008 01E0     		b	.L136
 1307              	.LVL140:
 1308              	.L152:
 639:../asf/sam/drivers/hsmci/hsmci.c **** 				HSMCI_SR_DTOE | HSMCI_SR_DCRCE)) {
 640:../asf/sam/drivers/hsmci/hsmci.c **** 			hsmci_debug("%s: DMA sr 0x%08x error\n\r",
 641:../asf/sam/drivers/hsmci/hsmci.c **** 					__func__, sr);
 642:../asf/sam/drivers/hsmci/hsmci.c **** 			hsmci_reset();
 643:../asf/sam/drivers/hsmci/hsmci.c **** 			return false;
 644:../asf/sam/drivers/hsmci/hsmci.c **** 		}
 645:../asf/sam/drivers/hsmci/hsmci.c **** 	} while (!(sr & HSMCI_SR_TXRDY));
 1309              		.loc 1 645 0
 1310 000a 5C07     		lsls	r4, r3, #29
 1311 000c 16D4     		bmi	.L151
 1312              	.LVL141:
 1313              	.L136:
 637:../asf/sam/drivers/hsmci/hsmci.c **** 		if (sr & (HSMCI_SR_UNRE | HSMCI_SR_OVRE | \
 1314              		.loc 1 637 0
 1315 000e 136C     		ldr	r3, [r2, #64]
 1316              	.LVL142:
 638:../asf/sam/drivers/hsmci/hsmci.c **** 		if (sr & (HSMCI_SR_UNRE | HSMCI_SR_OVRE | \
 1317              		.loc 1 638 0
 1318 0010 0B42     		tst	r3, r1
 1319 0012 FAD0     		beq	.L152
 1320              	.LVL143:
ARM GAS  /tmp/cc9w1cGI.s 			page 39


 1321              	.L150:
 1322              	.LBB93:
 1323              	.LBB94:
 143:../asf/sam/drivers/hsmci/hsmci.c **** 	uint32_t dtor = HSMCI->HSMCI_DTOR;
 1324              		.loc 1 143 0
 1325 0014 5068     		ldr	r0, [r2, #4]
 1326              	.LVL144:
 159:../asf/sam/drivers/hsmci/hsmci.c **** #endif
 1327              		.loc 1 159 0
 1328 0016 0023     		movs	r3, #0
 1329              	.LVL145:
 144:../asf/sam/drivers/hsmci/hsmci.c **** 	uint32_t sdcr = HSMCI->HSMCI_SDCR;
 1330              		.loc 1 144 0
 1331 0018 9768     		ldr	r7, [r2, #8]
 1332              	.LVL146:
 148:../asf/sam/drivers/hsmci/hsmci.c **** 	HSMCI->HSMCI_MR = mr;
 1333              		.loc 1 148 0
 1334 001a 4FF0800E 		mov	lr, #128
 145:../asf/sam/drivers/hsmci/hsmci.c **** 	uint32_t cstor = HSMCI->HSMCI_CSTOR;
 1335              		.loc 1 145 0
 1336 001e D668     		ldr	r6, [r2, #12]
 1337              	.LVL147:
 163:../asf/sam/drivers/hsmci/hsmci.c **** }
 1338              		.loc 1 163 0
 1339 0020 0521     		movs	r1, #5
 146:../asf/sam/drivers/hsmci/hsmci.c **** 	uint32_t cfg = HSMCI->HSMCI_CFG;
 1340              		.loc 1 146 0
 1341 0022 D569     		ldr	r5, [r2, #28]
 1342              	.LVL148:
 147:../asf/sam/drivers/hsmci/hsmci.c **** 	HSMCI->HSMCI_CR = HSMCI_CR_SWRST;
 1343              		.loc 1 147 0
 1344 0024 546D     		ldr	r4, [r2, #84]
 1345              	.LVL149:
 148:../asf/sam/drivers/hsmci/hsmci.c **** 	HSMCI->HSMCI_MR = mr;
 1346              		.loc 1 148 0
 1347 0026 C2F800E0 		str	lr, [r2]
 149:../asf/sam/drivers/hsmci/hsmci.c **** 	HSMCI->HSMCI_DTOR = dtor;
 1348              		.loc 1 149 0
 1349 002a 5060     		str	r0, [r2, #4]
 1350              	.LBE94:
 1351              	.LBE93:
 646:../asf/sam/drivers/hsmci/hsmci.c **** 
 647:../asf/sam/drivers/hsmci/hsmci.c **** 	// Write data
 648:../asf/sam/drivers/hsmci/hsmci.c **** 	HSMCI->HSMCI_TDR = value;
 649:../asf/sam/drivers/hsmci/hsmci.c **** 	hsmci_transfert_pos += 4;
 650:../asf/sam/drivers/hsmci/hsmci.c **** 	if (((uint32_t)hsmci_block_size * hsmci_nb_block) > hsmci_transfert_pos) {
 651:../asf/sam/drivers/hsmci/hsmci.c **** 		return true;
 652:../asf/sam/drivers/hsmci/hsmci.c **** 	}
 653:../asf/sam/drivers/hsmci/hsmci.c **** 
 654:../asf/sam/drivers/hsmci/hsmci.c **** 	// Wait end of transfer
 655:../asf/sam/drivers/hsmci/hsmci.c **** 	// Note: no need of timeout, because it is include in HSMCI, see DTOE bit.
 656:../asf/sam/drivers/hsmci/hsmci.c **** 	do {
 657:../asf/sam/drivers/hsmci/hsmci.c **** #if 1  // dc42 changes
 658:../asf/sam/drivers/hsmci/hsmci.c **** 		if (hsmciIdleFunc != NULL)
 659:../asf/sam/drivers/hsmci/hsmci.c **** 		{
 660:../asf/sam/drivers/hsmci/hsmci.c **** 			hsmciIdleFunc(HSMCI_SR_UNRE | HSMCI_SR_OVRE | HSMCI_SR_DTOE | HSMCI_SR_DCRCE | HSMCI_SR_NOTBUSY,
 661:../asf/sam/drivers/hsmci/hsmci.c **** 		}
ARM GAS  /tmp/cc9w1cGI.s 			page 40


 662:../asf/sam/drivers/hsmci/hsmci.c **** #endif
 663:../asf/sam/drivers/hsmci/hsmci.c **** 		sr = HSMCI->HSMCI_SR;
 664:../asf/sam/drivers/hsmci/hsmci.c **** 		if (sr & (HSMCI_SR_UNRE | HSMCI_SR_OVRE | \
 665:../asf/sam/drivers/hsmci/hsmci.c **** 				HSMCI_SR_DTOE | HSMCI_SR_DCRCE)) {
 666:../asf/sam/drivers/hsmci/hsmci.c **** 			hsmci_debug("%s: DMA sr 0x%08x error\n\r",
 667:../asf/sam/drivers/hsmci/hsmci.c **** 					__func__, sr);
 668:../asf/sam/drivers/hsmci/hsmci.c **** 			hsmci_reset();
 669:../asf/sam/drivers/hsmci/hsmci.c **** 			return false;
 1352              		.loc 1 669 0
 1353 002c 1846     		mov	r0, r3
 1354              	.LVL150:
 1355              	.LBB96:
 1356              	.LBB95:
 150:../asf/sam/drivers/hsmci/hsmci.c **** 	HSMCI->HSMCI_SDCR = sdcr;
 1357              		.loc 1 150 0
 1358 002e 9760     		str	r7, [r2, #8]
 1359              	.LVL151:
 151:../asf/sam/drivers/hsmci/hsmci.c **** 	HSMCI->HSMCI_CSTOR = cstor;
 1360              		.loc 1 151 0
 1361 0030 D660     		str	r6, [r2, #12]
 152:../asf/sam/drivers/hsmci/hsmci.c **** 	HSMCI->HSMCI_CFG = cfg;
 1362              		.loc 1 152 0
 1363 0032 D561     		str	r5, [r2, #28]
 153:../asf/sam/drivers/hsmci/hsmci.c **** #ifdef HSMCI_SR_DMADONE
 1364              		.loc 1 153 0
 1365 0034 5465     		str	r4, [r2, #84]
 159:../asf/sam/drivers/hsmci/hsmci.c **** #endif
 1366              		.loc 1 159 0
 1367 0036 1365     		str	r3, [r2, #80]
 163:../asf/sam/drivers/hsmci/hsmci.c **** }
 1368              		.loc 1 163 0
 1369 0038 1160     		str	r1, [r2]
 1370              	.LVL152:
 1371              	.LBE95:
 1372              	.LBE96:
 1373              		.loc 1 669 0
 1374 003a F8BD     		pop	{r3, r4, r5, r6, r7, pc}
 1375              	.LVL153:
 1376              	.L151:
 649:../asf/sam/drivers/hsmci/hsmci.c **** 	if (((uint32_t)hsmci_block_size * hsmci_nb_block) > hsmci_transfert_pos) {
 1377              		.loc 1 649 0
 1378 003c 1049     		ldr	r1, .L153+4
 650:../asf/sam/drivers/hsmci/hsmci.c **** 		return true;
 1379              		.loc 1 650 0
 1380 003e 114D     		ldr	r5, .L153+8
 1381 0040 114C     		ldr	r4, .L153+12
 648:../asf/sam/drivers/hsmci/hsmci.c **** 	hsmci_transfert_pos += 4;
 1382              		.loc 1 648 0
 1383 0042 5063     		str	r0, [r2, #52]
 650:../asf/sam/drivers/hsmci/hsmci.c **** 		return true;
 1384              		.loc 1 650 0
 1385 0044 2888     		ldrh	r0, [r5]
 1386              	.LVL154:
 649:../asf/sam/drivers/hsmci/hsmci.c **** 	if (((uint32_t)hsmci_block_size * hsmci_nb_block) > hsmci_transfert_pos) {
 1387              		.loc 1 649 0
 1388 0046 0B68     		ldr	r3, [r1]
 1389              	.LVL155:
ARM GAS  /tmp/cc9w1cGI.s 			page 41


 650:../asf/sam/drivers/hsmci/hsmci.c **** 		return true;
 1390              		.loc 1 650 0
 1391 0048 2288     		ldrh	r2, [r4]
 1392              	.LVL156:
 649:../asf/sam/drivers/hsmci/hsmci.c **** 	if (((uint32_t)hsmci_block_size * hsmci_nb_block) > hsmci_transfert_pos) {
 1393              		.loc 1 649 0
 1394 004a 0433     		adds	r3, r3, #4
 650:../asf/sam/drivers/hsmci/hsmci.c **** 		return true;
 1395              		.loc 1 650 0
 1396 004c 02FB00F2 		mul	r2, r2, r0
 649:../asf/sam/drivers/hsmci/hsmci.c **** 	if (((uint32_t)hsmci_block_size * hsmci_nb_block) > hsmci_transfert_pos) {
 1397              		.loc 1 649 0
 1398 0050 0B60     		str	r3, [r1]
 1399              	.LVL157:
 650:../asf/sam/drivers/hsmci/hsmci.c **** 		return true;
 1400              		.loc 1 650 0
 1401 0052 9342     		cmp	r3, r2
 1402 0054 10D3     		bcc	.L140
 1403 0056 0D4E     		ldr	r6, .L153+16
 660:../asf/sam/drivers/hsmci/hsmci.c **** 		}
 1404              		.loc 1 660 0
 1405 0058 0D4D     		ldr	r5, .L153+20
 664:../asf/sam/drivers/hsmci/hsmci.c **** 				HSMCI_SR_DTOE | HSMCI_SR_DCRCE)) {
 1406              		.loc 1 664 0
 1407 005a 084C     		ldr	r4, .L153
 1408 005c 01E0     		b	.L137
 1409              	.LVL158:
 1410              	.L139:
 670:../asf/sam/drivers/hsmci/hsmci.c **** 		}
 671:../asf/sam/drivers/hsmci/hsmci.c **** 	} while (!(sr & HSMCI_SR_NOTBUSY));
 1411              		.loc 1 671 0
 1412 005e 9B06     		lsls	r3, r3, #26
 1413              	.LVL159:
 1414 0060 0AD4     		bmi	.L140
 1415              	.L137:
 658:../asf/sam/drivers/hsmci/hsmci.c **** 		{
 1416              		.loc 1 658 0
 1417 0062 3368     		ldr	r3, [r6]
 660:../asf/sam/drivers/hsmci/hsmci.c **** 		}
 1418              		.loc 1 660 0
 1419 0064 0021     		movs	r1, #0
 1420 0066 2846     		mov	r0, r5
 658:../asf/sam/drivers/hsmci/hsmci.c **** 		{
 1421              		.loc 1 658 0
 1422 0068 03B1     		cbz	r3, .L138
 660:../asf/sam/drivers/hsmci/hsmci.c **** 		}
 1423              		.loc 1 660 0
 1424 006a 9847     		blx	r3
 1425              	.LVL160:
 1426              	.L138:
 663:../asf/sam/drivers/hsmci/hsmci.c **** 		if (sr & (HSMCI_SR_UNRE | HSMCI_SR_OVRE | \
 1427              		.loc 1 663 0
 1428 006c 4FF08042 		mov	r2, #1073741824
 1429 0070 136C     		ldr	r3, [r2, #64]
 1430              	.LVL161:
 664:../asf/sam/drivers/hsmci/hsmci.c **** 				HSMCI_SR_DTOE | HSMCI_SR_DCRCE)) {
 1431              		.loc 1 664 0
ARM GAS  /tmp/cc9w1cGI.s 			page 42


 1432 0072 2342     		tst	r3, r4
 1433 0074 F3D0     		beq	.L139
 1434 0076 CDE7     		b	.L150
 1435              	.LVL162:
 1436              	.L140:
 651:../asf/sam/drivers/hsmci/hsmci.c **** 	}
 1437              		.loc 1 651 0
 1438 0078 0120     		movs	r0, #1
 1439 007a F8BD     		pop	{r3, r4, r5, r6, r7, pc}
 1440              	.L154:
 1441              		.align	2
 1442              	.L153:
 1443 007c 000060C0 		.word	-1067450368
 1444 0080 00000000 		.word	.LANCHOR1
 1445 0084 00000000 		.word	.LANCHOR2
 1446 0088 00000000 		.word	.LANCHOR3
 1447 008c 00000000 		.word	.LANCHOR0
 1448 0090 200060C0 		.word	-1067450336
 1449              		.cfi_endproc
 1450              	.LFE212:
 1451              		.size	hsmci_write_word, .-hsmci_write_word
 1452              		.section	.text.hsmci_start_read_blocks,"ax",%progbits
 1453              		.align	1
 1454              		.p2align 2,,3
 1455              		.global	hsmci_start_read_blocks
 1456              		.syntax unified
 1457              		.thumb
 1458              		.thumb_func
 1459              		.fpu fpv5-d16
 1460              		.type	hsmci_start_read_blocks, %function
 1461              	hsmci_start_read_blocks:
 1462              	.LFB213:
 672:../asf/sam/drivers/hsmci/hsmci.c **** 	Assert(HSMCI->HSMCI_SR & HSMCI_SR_FIFOEMPTY);
 673:../asf/sam/drivers/hsmci/hsmci.c **** 	return true;
 674:../asf/sam/drivers/hsmci/hsmci.c **** }
 675:../asf/sam/drivers/hsmci/hsmci.c **** 
 676:../asf/sam/drivers/hsmci/hsmci.c **** #ifdef HSMCI_SR_DMADONE
 677:../asf/sam/drivers/hsmci/hsmci.c **** bool hsmci_start_read_blocks(void *dest, uint16_t nb_block)
 678:../asf/sam/drivers/hsmci/hsmci.c **** {
 679:../asf/sam/drivers/hsmci/hsmci.c **** 	uint32_t cfg, nb_data;
 680:../asf/sam/drivers/hsmci/hsmci.c **** 	dma_transfer_descriptor_t desc;
 681:../asf/sam/drivers/hsmci/hsmci.c **** 	bool transfert_byte;
 682:../asf/sam/drivers/hsmci/hsmci.c **** 
 683:../asf/sam/drivers/hsmci/hsmci.c **** 	nb_data = nb_block * hsmci_block_size;
 684:../asf/sam/drivers/hsmci/hsmci.c **** 	transfert_byte = ((HSMCI->HSMCI_MR & HSMCI_MR_FBYTE) || (((uint32_t)dest & 0x3) > 0)) ? 1 : 0;
 685:../asf/sam/drivers/hsmci/hsmci.c **** 
 686:../asf/sam/drivers/hsmci/hsmci.c **** 	Assert(nb_data <= (((uint32_t)hsmci_block_size * hsmci_nb_block) - hsmci_transfert_pos));
 687:../asf/sam/drivers/hsmci/hsmci.c **** 	Assert(nb_data <= (transfert_byte ?
 688:../asf/sam/drivers/hsmci/hsmci.c **** 			DMAC_CTRLA_BTSIZE_Msk >> DMAC_CTRLA_BTSIZE_Pos :
 689:../asf/sam/drivers/hsmci/hsmci.c **** 			((DMAC_CTRLA_BTSIZE_Msk >> DMAC_CTRLA_BTSIZE_Pos) * 4)));
 690:../asf/sam/drivers/hsmci/hsmci.c **** 
 691:../asf/sam/drivers/hsmci/hsmci.c **** 	/* Set channel configuration register
 692:../asf/sam/drivers/hsmci/hsmci.c **** 	 * - Enable stop on done
 693:../asf/sam/drivers/hsmci/hsmci.c **** 	 * - Hardware Selection for the Source
 694:../asf/sam/drivers/hsmci/hsmci.c **** 	 * - Source with Peripheral identifier
 695:../asf/sam/drivers/hsmci/hsmci.c **** 	 * - Set AHB Protection
 696:../asf/sam/drivers/hsmci/hsmci.c **** 	 * - FIFO Configuration
ARM GAS  /tmp/cc9w1cGI.s 			page 43


 697:../asf/sam/drivers/hsmci/hsmci.c **** 	 */
 698:../asf/sam/drivers/hsmci/hsmci.c **** 	dmac_enable(DMAC);
 699:../asf/sam/drivers/hsmci/hsmci.c **** 	dmac_channel_disable(DMAC, CONF_HSMCI_DMA_CHANNEL);
 700:../asf/sam/drivers/hsmci/hsmci.c **** 	cfg = DMAC_CFG_SOD_ENABLE | DMAC_CFG_SRC_H2SEL |
 701:../asf/sam/drivers/hsmci/hsmci.c **** 			DMAC_CFG_SRC_PER(DMA_HW_ID_HSMCI) |
 702:../asf/sam/drivers/hsmci/hsmci.c **** 			DMAC_CFG_AHB_PROT(1) | DMAC_CFG_FIFOCFG_ALAP_CFG;
 703:../asf/sam/drivers/hsmci/hsmci.c **** 	dmac_channel_set_configuration(DMAC, CONF_HSMCI_DMA_CHANNEL, cfg);
 704:../asf/sam/drivers/hsmci/hsmci.c **** 
 705:../asf/sam/drivers/hsmci/hsmci.c **** 	// Prepare DMA transfer
 706:../asf/sam/drivers/hsmci/hsmci.c **** 	desc.ul_source_addr = (uint32_t)&(HSMCI->HSMCI_RDR);
 707:../asf/sam/drivers/hsmci/hsmci.c **** 	desc.ul_destination_addr = (uint32_t)dest;
 708:../asf/sam/drivers/hsmci/hsmci.c **** 	if (transfert_byte) {
 709:../asf/sam/drivers/hsmci/hsmci.c **** 		desc.ul_ctrlA = DMAC_CTRLA_BTSIZE(nb_data)
 710:../asf/sam/drivers/hsmci/hsmci.c **** 				| DMAC_CTRLA_SRC_WIDTH_BYTE
 711:../asf/sam/drivers/hsmci/hsmci.c **** 				| DMAC_CTRLA_DST_WIDTH_BYTE;
 712:../asf/sam/drivers/hsmci/hsmci.c **** 	} else {
 713:../asf/sam/drivers/hsmci/hsmci.c **** 		desc.ul_ctrlA = DMAC_CTRLA_BTSIZE(nb_data / 4)
 714:../asf/sam/drivers/hsmci/hsmci.c **** 				| DMAC_CTRLA_SRC_WIDTH_WORD
 715:../asf/sam/drivers/hsmci/hsmci.c **** 				| DMAC_CTRLA_DST_WIDTH_WORD;
 716:../asf/sam/drivers/hsmci/hsmci.c **** 	}
 717:../asf/sam/drivers/hsmci/hsmci.c **** 	desc.ul_ctrlB = DMAC_CTRLB_SRC_DSCR_FETCH_DISABLE
 718:../asf/sam/drivers/hsmci/hsmci.c **** 			| DMAC_CTRLB_DST_DSCR_FETCH_DISABLE
 719:../asf/sam/drivers/hsmci/hsmci.c **** 			| DMAC_CTRLB_FC_PER2MEM_DMA_FC
 720:../asf/sam/drivers/hsmci/hsmci.c **** 			| DMAC_CTRLB_SRC_INCR_FIXED
 721:../asf/sam/drivers/hsmci/hsmci.c **** 			| DMAC_CTRLB_DST_INCR_INCREMENTING
 722:../asf/sam/drivers/hsmci/hsmci.c **** 			| DMAC_CTRLB_IEN;
 723:../asf/sam/drivers/hsmci/hsmci.c **** 	desc.ul_descriptor_addr = (uint32_t)NULL;
 724:../asf/sam/drivers/hsmci/hsmci.c **** 	dmac_channel_single_buf_transfer_init(DMAC, CONF_HSMCI_DMA_CHANNEL,
 725:../asf/sam/drivers/hsmci/hsmci.c **** 			&desc);
 726:../asf/sam/drivers/hsmci/hsmci.c **** 
 727:../asf/sam/drivers/hsmci/hsmci.c **** 	// Start DMA transfer
 728:../asf/sam/drivers/hsmci/hsmci.c **** 	dmac_channel_enable(DMAC, CONF_HSMCI_DMA_CHANNEL);
 729:../asf/sam/drivers/hsmci/hsmci.c **** 	hsmci_transfert_pos += nb_data;
 730:../asf/sam/drivers/hsmci/hsmci.c **** 	return true;
 731:../asf/sam/drivers/hsmci/hsmci.c **** }
 732:../asf/sam/drivers/hsmci/hsmci.c **** 
 733:../asf/sam/drivers/hsmci/hsmci.c **** bool hsmci_wait_end_of_read_blocks(void)
 734:../asf/sam/drivers/hsmci/hsmci.c **** {
 735:../asf/sam/drivers/hsmci/hsmci.c **** 	uint32_t sr;
 736:../asf/sam/drivers/hsmci/hsmci.c **** 	// Wait end of transfer
 737:../asf/sam/drivers/hsmci/hsmci.c **** 	// Note: no need of timeout, because it is include in HSMCI
 738:../asf/sam/drivers/hsmci/hsmci.c **** 	do {
 739:../asf/sam/drivers/hsmci/hsmci.c **** #if 1  // dc42 changes
 740:../asf/sam/drivers/hsmci/hsmci.c **** 		if (hsmciIdleFunc != NULL)
 741:../asf/sam/drivers/hsmci/hsmci.c **** 		{
 742:../asf/sam/drivers/hsmci/hsmci.c **** 			hsmciIdleFunc(HSMCI_SR_UNRE | HSMCI_SR_OVRE | HSMCI_SR_DTOE | HSMCI_SR_DCRCE | HSMCI_SR_DMADONE,
 743:../asf/sam/drivers/hsmci/hsmci.c **** 		}
 744:../asf/sam/drivers/hsmci/hsmci.c **** #endif
 745:../asf/sam/drivers/hsmci/hsmci.c **** 		sr = HSMCI->HSMCI_SR;
 746:../asf/sam/drivers/hsmci/hsmci.c **** 		if (sr & (HSMCI_SR_UNRE | HSMCI_SR_OVRE | \
 747:../asf/sam/drivers/hsmci/hsmci.c **** 				HSMCI_SR_DTOE | HSMCI_SR_DCRCE)) {
 748:../asf/sam/drivers/hsmci/hsmci.c **** 			hsmci_debug("%s: DMA sr 0x%08x error\n\r",
 749:../asf/sam/drivers/hsmci/hsmci.c **** 					__func__, sr);
 750:../asf/sam/drivers/hsmci/hsmci.c **** 			hsmci_reset();
 751:../asf/sam/drivers/hsmci/hsmci.c **** 			// Disable DMA
 752:../asf/sam/drivers/hsmci/hsmci.c **** 			dmac_channel_disable(DMAC, CONF_HSMCI_DMA_CHANNEL);
 753:../asf/sam/drivers/hsmci/hsmci.c **** 			return false;
ARM GAS  /tmp/cc9w1cGI.s 			page 44


 754:../asf/sam/drivers/hsmci/hsmci.c **** 		}
 755:../asf/sam/drivers/hsmci/hsmci.c **** 		if (((uint32_t)hsmci_block_size * hsmci_nb_block) > hsmci_transfert_pos) {
 756:../asf/sam/drivers/hsmci/hsmci.c **** 			// It is not the end of all transfers
 757:../asf/sam/drivers/hsmci/hsmci.c **** 			// then just wait end of DMA
 758:../asf/sam/drivers/hsmci/hsmci.c **** 			if (sr & HSMCI_SR_DMADONE) {
 759:../asf/sam/drivers/hsmci/hsmci.c **** 				return true;
 760:../asf/sam/drivers/hsmci/hsmci.c **** 			}
 761:../asf/sam/drivers/hsmci/hsmci.c **** 		}
 762:../asf/sam/drivers/hsmci/hsmci.c **** 	} while (!(sr & HSMCI_SR_XFRDONE));
 763:../asf/sam/drivers/hsmci/hsmci.c **** 	return true;
 764:../asf/sam/drivers/hsmci/hsmci.c **** }
 765:../asf/sam/drivers/hsmci/hsmci.c **** 
 766:../asf/sam/drivers/hsmci/hsmci.c **** bool hsmci_start_write_blocks(const void *src, uint16_t nb_block)
 767:../asf/sam/drivers/hsmci/hsmci.c **** {
 768:../asf/sam/drivers/hsmci/hsmci.c **** 	bool transfert_byte;
 769:../asf/sam/drivers/hsmci/hsmci.c **** 	uint32_t cfg, nb_data;
 770:../asf/sam/drivers/hsmci/hsmci.c **** 	dma_transfer_descriptor_t desc;
 771:../asf/sam/drivers/hsmci/hsmci.c **** 
 772:../asf/sam/drivers/hsmci/hsmci.c **** 	nb_data = nb_block * hsmci_block_size;
 773:../asf/sam/drivers/hsmci/hsmci.c **** 	transfert_byte = ((HSMCI->HSMCI_MR & HSMCI_MR_FBYTE) || (((uint32_t)src & 0x3) > 0)) ? 1 : 0;
 774:../asf/sam/drivers/hsmci/hsmci.c **** 
 775:../asf/sam/drivers/hsmci/hsmci.c **** 	Assert(nb_data <= (((uint32_t)hsmci_block_size * hsmci_nb_block) - hsmci_transfert_pos));
 776:../asf/sam/drivers/hsmci/hsmci.c **** 	Assert(nb_data <= (transfert_byte ?
 777:../asf/sam/drivers/hsmci/hsmci.c **** 			DMAC_CTRLA_BTSIZE_Msk >> DMAC_CTRLA_BTSIZE_Pos :
 778:../asf/sam/drivers/hsmci/hsmci.c **** 			((DMAC_CTRLA_BTSIZE_Msk >> DMAC_CTRLA_BTSIZE_Pos) * 4)));
 779:../asf/sam/drivers/hsmci/hsmci.c **** 
 780:../asf/sam/drivers/hsmci/hsmci.c **** 	/* Set channel configuration register:
 781:../asf/sam/drivers/hsmci/hsmci.c **** 	 * - Enable stop on done
 782:../asf/sam/drivers/hsmci/hsmci.c **** 	 * - Hardware Selection for the Destination
 783:../asf/sam/drivers/hsmci/hsmci.c **** 	 * - Destination with Peripheral identifier
 784:../asf/sam/drivers/hsmci/hsmci.c **** 	 * - Set AHB Protection
 785:../asf/sam/drivers/hsmci/hsmci.c **** 	 * - FIFO Configuration
 786:../asf/sam/drivers/hsmci/hsmci.c **** 	 */
 787:../asf/sam/drivers/hsmci/hsmci.c **** 	dmac_enable(DMAC);
 788:../asf/sam/drivers/hsmci/hsmci.c **** 	Assert(!dmac_channel_is_enable(DMAC, CONF_HSMCI_DMA_CHANNEL));
 789:../asf/sam/drivers/hsmci/hsmci.c **** 	cfg = DMAC_CFG_SOD_ENABLE | DMAC_CFG_DST_H2SEL |
 790:../asf/sam/drivers/hsmci/hsmci.c **** 			DMAC_CFG_DST_PER(DMA_HW_ID_HSMCI) |
 791:../asf/sam/drivers/hsmci/hsmci.c **** 			DMAC_CFG_AHB_PROT(1) | DMAC_CFG_FIFOCFG_ALAP_CFG;
 792:../asf/sam/drivers/hsmci/hsmci.c **** 	dmac_channel_set_configuration(DMAC, CONF_HSMCI_DMA_CHANNEL, cfg);
 793:../asf/sam/drivers/hsmci/hsmci.c **** 
 794:../asf/sam/drivers/hsmci/hsmci.c **** 	// Prepare DMA transfer
 795:../asf/sam/drivers/hsmci/hsmci.c **** 	desc.ul_source_addr = (uint32_t)src;
 796:../asf/sam/drivers/hsmci/hsmci.c **** 	desc.ul_destination_addr = (uint32_t)&(HSMCI->HSMCI_TDR);
 797:../asf/sam/drivers/hsmci/hsmci.c **** 	if (transfert_byte) {
 798:../asf/sam/drivers/hsmci/hsmci.c **** 		desc.ul_ctrlA = DMAC_CTRLA_BTSIZE(nb_data)
 799:../asf/sam/drivers/hsmci/hsmci.c **** 				| DMAC_CTRLA_SRC_WIDTH_BYTE
 800:../asf/sam/drivers/hsmci/hsmci.c **** 				| DMAC_CTRLA_DST_WIDTH_BYTE;
 801:../asf/sam/drivers/hsmci/hsmci.c **** 	} else {
 802:../asf/sam/drivers/hsmci/hsmci.c **** 		desc.ul_ctrlA = DMAC_CTRLA_BTSIZE(nb_data / 4)
 803:../asf/sam/drivers/hsmci/hsmci.c **** 				| DMAC_CTRLA_SRC_WIDTH_WORD
 804:../asf/sam/drivers/hsmci/hsmci.c **** 				| DMAC_CTRLA_DST_WIDTH_WORD;
 805:../asf/sam/drivers/hsmci/hsmci.c **** 	}
 806:../asf/sam/drivers/hsmci/hsmci.c **** 	desc.ul_ctrlB = DMAC_CTRLB_SRC_DSCR_FETCH_DISABLE
 807:../asf/sam/drivers/hsmci/hsmci.c **** 			| DMAC_CTRLB_DST_DSCR_FETCH_DISABLE
 808:../asf/sam/drivers/hsmci/hsmci.c **** 			| DMAC_CTRLB_FC_MEM2PER_DMA_FC
 809:../asf/sam/drivers/hsmci/hsmci.c **** 			| DMAC_CTRLB_SRC_INCR_INCREMENTING
 810:../asf/sam/drivers/hsmci/hsmci.c **** 			| DMAC_CTRLB_DST_INCR_FIXED
ARM GAS  /tmp/cc9w1cGI.s 			page 45


 811:../asf/sam/drivers/hsmci/hsmci.c **** 			| DMAC_CTRLB_IEN;
 812:../asf/sam/drivers/hsmci/hsmci.c **** 	desc.ul_descriptor_addr = (uint32_t)NULL;
 813:../asf/sam/drivers/hsmci/hsmci.c **** 	dmac_channel_single_buf_transfer_init(DMAC, CONF_HSMCI_DMA_CHANNEL,
 814:../asf/sam/drivers/hsmci/hsmci.c **** 			&desc);
 815:../asf/sam/drivers/hsmci/hsmci.c **** 
 816:../asf/sam/drivers/hsmci/hsmci.c **** 	// Start DMA transfer
 817:../asf/sam/drivers/hsmci/hsmci.c **** 	dmac_channel_enable(DMAC, CONF_HSMCI_DMA_CHANNEL);
 818:../asf/sam/drivers/hsmci/hsmci.c **** 	hsmci_transfert_pos += nb_data;
 819:../asf/sam/drivers/hsmci/hsmci.c **** 	return true;
 820:../asf/sam/drivers/hsmci/hsmci.c **** }
 821:../asf/sam/drivers/hsmci/hsmci.c **** 
 822:../asf/sam/drivers/hsmci/hsmci.c **** bool hsmci_wait_end_of_write_blocks(void)
 823:../asf/sam/drivers/hsmci/hsmci.c **** {
 824:../asf/sam/drivers/hsmci/hsmci.c **** 	uint32_t sr;
 825:../asf/sam/drivers/hsmci/hsmci.c **** 	// Wait end of transfer
 826:../asf/sam/drivers/hsmci/hsmci.c **** 	// Note: no need of timeout, because it is include in HSMCI, see DTOE bit.
 827:../asf/sam/drivers/hsmci/hsmci.c **** 	do {
 828:../asf/sam/drivers/hsmci/hsmci.c **** #if 1  // dc42 changes
 829:../asf/sam/drivers/hsmci/hsmci.c **** 		if (hsmciIdleFunc != NULL)
 830:../asf/sam/drivers/hsmci/hsmci.c **** 		{
 831:../asf/sam/drivers/hsmci/hsmci.c **** 			hsmciIdleFunc(HSMCI_SR_UNRE | HSMCI_SR_OVRE | HSMCI_SR_DTOE | HSMCI_SR_DCRCE | HSMCI_SR_DMADONE 
 832:../asf/sam/drivers/hsmci/hsmci.c **** 		}
 833:../asf/sam/drivers/hsmci/hsmci.c **** #endif
 834:../asf/sam/drivers/hsmci/hsmci.c **** 		sr = HSMCI->HSMCI_SR;
 835:../asf/sam/drivers/hsmci/hsmci.c **** 		if (sr & (HSMCI_SR_UNRE | HSMCI_SR_OVRE | \
 836:../asf/sam/drivers/hsmci/hsmci.c **** 				HSMCI_SR_DTOE | HSMCI_SR_DCRCE)) {
 837:../asf/sam/drivers/hsmci/hsmci.c **** 			hsmci_debug("%s: DMA sr 0x%08x error\n\r",
 838:../asf/sam/drivers/hsmci/hsmci.c **** 					__func__, sr);
 839:../asf/sam/drivers/hsmci/hsmci.c **** 			hsmci_reset();
 840:../asf/sam/drivers/hsmci/hsmci.c **** 			// Disable DMA
 841:../asf/sam/drivers/hsmci/hsmci.c **** 			dmac_channel_disable(DMAC, CONF_HSMCI_DMA_CHANNEL);
 842:../asf/sam/drivers/hsmci/hsmci.c **** 			return false;
 843:../asf/sam/drivers/hsmci/hsmci.c **** 		}
 844:../asf/sam/drivers/hsmci/hsmci.c **** 		if (((uint32_t)hsmci_block_size * hsmci_nb_block) > hsmci_transfert_pos) {
 845:../asf/sam/drivers/hsmci/hsmci.c **** 			// It is not the end of all transfers
 846:../asf/sam/drivers/hsmci/hsmci.c **** 			// then just wait end of DMA
 847:../asf/sam/drivers/hsmci/hsmci.c **** 			if (sr & HSMCI_SR_DMADONE) {
 848:../asf/sam/drivers/hsmci/hsmci.c **** 				return true;
 849:../asf/sam/drivers/hsmci/hsmci.c **** 			}
 850:../asf/sam/drivers/hsmci/hsmci.c **** 		}
 851:../asf/sam/drivers/hsmci/hsmci.c **** 	} while (!(sr & HSMCI_SR_NOTBUSY));
 852:../asf/sam/drivers/hsmci/hsmci.c **** 	Assert(HSMCI->HSMCI_SR & HSMCI_SR_FIFOEMPTY);
 853:../asf/sam/drivers/hsmci/hsmci.c **** 	Assert(!dmac_channel_is_enable(DMAC, CONF_HSMCI_DMA_CHANNEL));
 854:../asf/sam/drivers/hsmci/hsmci.c **** 	return true;
 855:../asf/sam/drivers/hsmci/hsmci.c **** 
 856:../asf/sam/drivers/hsmci/hsmci.c **** }
 857:../asf/sam/drivers/hsmci/hsmci.c **** #endif // HSMCI_SR_DMADONE
 858:../asf/sam/drivers/hsmci/hsmci.c **** 
 859:../asf/sam/drivers/hsmci/hsmci.c **** #ifdef HSMCI_MR_PDCMODE
 860:../asf/sam/drivers/hsmci/hsmci.c **** bool hsmci_start_read_blocks(void *dest, uint16_t nb_block)
 861:../asf/sam/drivers/hsmci/hsmci.c **** {
 862:../asf/sam/drivers/hsmci/hsmci.c **** 	uint32_t nb_data;
 863:../asf/sam/drivers/hsmci/hsmci.c **** 
 864:../asf/sam/drivers/hsmci/hsmci.c **** 	nb_data = nb_block * hsmci_block_size;
 865:../asf/sam/drivers/hsmci/hsmci.c **** 	Assert(nb_data <= (((uint32_t)hsmci_block_size * hsmci_nb_block) - hsmci_transfert_pos));
 866:../asf/sam/drivers/hsmci/hsmci.c **** 	Assert(nb_data <= (PERIPH_RCR_RXCTR_Msk >> PERIPH_RCR_RXCTR_Pos));
 867:../asf/sam/drivers/hsmci/hsmci.c **** 
ARM GAS  /tmp/cc9w1cGI.s 			page 46


 868:../asf/sam/drivers/hsmci/hsmci.c **** 	// Handle unaligned memory address
 869:../asf/sam/drivers/hsmci/hsmci.c **** 	if (((uint32_t)dest & 0x3) || (hsmci_block_size & 0x3)) {
 870:../asf/sam/drivers/hsmci/hsmci.c **** 		HSMCI->HSMCI_MR |= HSMCI_MR_FBYTE;
 871:../asf/sam/drivers/hsmci/hsmci.c **** 	} else {
 872:../asf/sam/drivers/hsmci/hsmci.c **** 		HSMCI->HSMCI_MR &= ~HSMCI_MR_FBYTE;
 873:../asf/sam/drivers/hsmci/hsmci.c **** 	}
 874:../asf/sam/drivers/hsmci/hsmci.c **** 
 875:../asf/sam/drivers/hsmci/hsmci.c **** 	// Configure PDC transfer
 876:../asf/sam/drivers/hsmci/hsmci.c **** 	HSMCI->HSMCI_RPR = (uint32_t)dest;
 877:../asf/sam/drivers/hsmci/hsmci.c **** 	HSMCI->HSMCI_RCR = (HSMCI->HSMCI_MR & HSMCI_MR_FBYTE) ?
 878:../asf/sam/drivers/hsmci/hsmci.c **** 			nb_data : nb_data / 4;
 879:../asf/sam/drivers/hsmci/hsmci.c **** 	HSMCI->HSMCI_RNCR = 0;
 880:../asf/sam/drivers/hsmci/hsmci.c **** 	// Start transfer
 881:../asf/sam/drivers/hsmci/hsmci.c **** 	HSMCI->HSMCI_PTCR = HSMCI_PTCR_RXTEN;
 882:../asf/sam/drivers/hsmci/hsmci.c **** 	hsmci_transfert_pos += nb_data;
 883:../asf/sam/drivers/hsmci/hsmci.c **** 	return true;
 884:../asf/sam/drivers/hsmci/hsmci.c **** }
 885:../asf/sam/drivers/hsmci/hsmci.c **** 
 886:../asf/sam/drivers/hsmci/hsmci.c **** bool hsmci_wait_end_of_read_blocks(void)
 887:../asf/sam/drivers/hsmci/hsmci.c **** {
 888:../asf/sam/drivers/hsmci/hsmci.c **** 	uint32_t sr;
 889:../asf/sam/drivers/hsmci/hsmci.c **** 	// Wait end of transfer
 890:../asf/sam/drivers/hsmci/hsmci.c **** 	// Note: no need of timeout, because it is include in HSMCI, see DTOE bit.
 891:../asf/sam/drivers/hsmci/hsmci.c **** 	do {
 892:../asf/sam/drivers/hsmci/hsmci.c **** #if 1  // dc42 changes
 893:../asf/sam/drivers/hsmci/hsmci.c **** 		if (hsmciIdleFunc != NULL)
 894:../asf/sam/drivers/hsmci/hsmci.c **** 		{
 895:../asf/sam/drivers/hsmci/hsmci.c **** 			hsmciIdleFunc(HSMCI_SR_UNRE | HSMCI_SR_OVRE | HSMCI_SR_DTOE | HSMCI_SR_DCRCE | HSMCI_SR_RXBUFF, 
 896:../asf/sam/drivers/hsmci/hsmci.c **** 		}
 897:../asf/sam/drivers/hsmci/hsmci.c **** #endif
 898:../asf/sam/drivers/hsmci/hsmci.c **** 		sr = HSMCI->HSMCI_SR;
 899:../asf/sam/drivers/hsmci/hsmci.c **** 		if (sr & (HSMCI_SR_UNRE | HSMCI_SR_OVRE | \
 900:../asf/sam/drivers/hsmci/hsmci.c **** 				HSMCI_SR_DTOE | HSMCI_SR_DCRCE)) {
 901:../asf/sam/drivers/hsmci/hsmci.c **** 			hsmci_debug("%s: PDC sr 0x%08x error\n\r",
 902:../asf/sam/drivers/hsmci/hsmci.c **** 					__func__, sr);
 903:../asf/sam/drivers/hsmci/hsmci.c **** 			HSMCI->HSMCI_PTCR = HSMCI_PTCR_RXTDIS | HSMCI_PTCR_TXTDIS;
 904:../asf/sam/drivers/hsmci/hsmci.c **** 			hsmci_reset();
 905:../asf/sam/drivers/hsmci/hsmci.c **** 			return false;
 906:../asf/sam/drivers/hsmci/hsmci.c **** 		}
 907:../asf/sam/drivers/hsmci/hsmci.c **** 
 908:../asf/sam/drivers/hsmci/hsmci.c **** 	} while (!(sr & HSMCI_SR_RXBUFF));
 909:../asf/sam/drivers/hsmci/hsmci.c **** 
 910:../asf/sam/drivers/hsmci/hsmci.c **** 	if (hsmci_transfert_pos < ((uint32_t)hsmci_block_size * hsmci_nb_block)) {
 911:../asf/sam/drivers/hsmci/hsmci.c **** 		return true;
 912:../asf/sam/drivers/hsmci/hsmci.c **** 	}
 913:../asf/sam/drivers/hsmci/hsmci.c **** 	// It is the last transfer, then wait command completed
 914:../asf/sam/drivers/hsmci/hsmci.c **** 	// Note: no need of timeout, because it is include in HSMCI, see DTOE bit.
 915:../asf/sam/drivers/hsmci/hsmci.c **** 	do {
 916:../asf/sam/drivers/hsmci/hsmci.c **** #if 1  // dc42 changes
 917:../asf/sam/drivers/hsmci/hsmci.c **** 		if (hsmciIdleFunc != NULL)
 918:../asf/sam/drivers/hsmci/hsmci.c **** 		{
 919:../asf/sam/drivers/hsmci/hsmci.c **** 			hsmciIdleFunc(HSMCI_SR_UNRE | HSMCI_SR_OVRE | HSMCI_SR_DTOE | HSMCI_SR_DCRCE | HSMCI_SR_XFRDONE,
 920:../asf/sam/drivers/hsmci/hsmci.c **** 		}
 921:../asf/sam/drivers/hsmci/hsmci.c **** #endif
 922:../asf/sam/drivers/hsmci/hsmci.c **** 		sr = HSMCI->HSMCI_SR;
 923:../asf/sam/drivers/hsmci/hsmci.c **** 		if (sr & (HSMCI_SR_UNRE | HSMCI_SR_OVRE | \
 924:../asf/sam/drivers/hsmci/hsmci.c **** 				HSMCI_SR_DTOE | HSMCI_SR_DCRCE)) {
ARM GAS  /tmp/cc9w1cGI.s 			page 47


 925:../asf/sam/drivers/hsmci/hsmci.c **** 			hsmci_debug("%s: PDC sr 0x%08x last transfer error\n\r",
 926:../asf/sam/drivers/hsmci/hsmci.c **** 					__func__, sr);
 927:../asf/sam/drivers/hsmci/hsmci.c **** 			hsmci_reset();
 928:../asf/sam/drivers/hsmci/hsmci.c **** 			return false;
 929:../asf/sam/drivers/hsmci/hsmci.c **** 		}
 930:../asf/sam/drivers/hsmci/hsmci.c **** 	} while (!(sr & HSMCI_SR_XFRDONE));
 931:../asf/sam/drivers/hsmci/hsmci.c **** 	return true;
 932:../asf/sam/drivers/hsmci/hsmci.c **** }
 933:../asf/sam/drivers/hsmci/hsmci.c **** 
 934:../asf/sam/drivers/hsmci/hsmci.c **** bool hsmci_start_write_blocks(const void *src, uint16_t nb_block)
 935:../asf/sam/drivers/hsmci/hsmci.c **** {
 936:../asf/sam/drivers/hsmci/hsmci.c **** 	uint32_t nb_data;
 937:../asf/sam/drivers/hsmci/hsmci.c **** 
 938:../asf/sam/drivers/hsmci/hsmci.c **** 	nb_data = nb_block * hsmci_block_size;
 939:../asf/sam/drivers/hsmci/hsmci.c **** 	Assert(nb_data <= (((uint32_t)hsmci_block_size * hsmci_nb_block) - hsmci_transfert_pos));
 940:../asf/sam/drivers/hsmci/hsmci.c **** 	Assert(nb_data <= (PERIPH_TCR_TXCTR_Msk >> PERIPH_TCR_TXCTR_Pos));
 941:../asf/sam/drivers/hsmci/hsmci.c **** 
 942:../asf/sam/drivers/hsmci/hsmci.c **** 	// Handle unaligned memory address
 943:../asf/sam/drivers/hsmci/hsmci.c **** 	if (((uint32_t)src & 0x3) || (hsmci_block_size & 0x3)) {
 944:../asf/sam/drivers/hsmci/hsmci.c **** 		HSMCI->HSMCI_MR |= HSMCI_MR_FBYTE;
 945:../asf/sam/drivers/hsmci/hsmci.c **** 	} else {
 946:../asf/sam/drivers/hsmci/hsmci.c **** 		HSMCI->HSMCI_MR &= ~HSMCI_MR_FBYTE;
 947:../asf/sam/drivers/hsmci/hsmci.c **** 	}
 948:../asf/sam/drivers/hsmci/hsmci.c **** 
 949:../asf/sam/drivers/hsmci/hsmci.c **** 	// Configure PDC transfer
 950:../asf/sam/drivers/hsmci/hsmci.c **** 	HSMCI->HSMCI_TPR = (uint32_t)src;
 951:../asf/sam/drivers/hsmci/hsmci.c **** 	HSMCI->HSMCI_TCR = (HSMCI->HSMCI_MR & HSMCI_MR_FBYTE) ?
 952:../asf/sam/drivers/hsmci/hsmci.c **** 			nb_data : nb_data / 4;
 953:../asf/sam/drivers/hsmci/hsmci.c **** 	HSMCI->HSMCI_TNCR = 0;
 954:../asf/sam/drivers/hsmci/hsmci.c **** 	// Start transfer
 955:../asf/sam/drivers/hsmci/hsmci.c **** 	HSMCI->HSMCI_PTCR = HSMCI_PTCR_TXTEN;
 956:../asf/sam/drivers/hsmci/hsmci.c **** 	hsmci_transfert_pos += nb_data;
 957:../asf/sam/drivers/hsmci/hsmci.c **** 	return true;
 958:../asf/sam/drivers/hsmci/hsmci.c **** }
 959:../asf/sam/drivers/hsmci/hsmci.c **** 
 960:../asf/sam/drivers/hsmci/hsmci.c **** bool hsmci_wait_end_of_write_blocks(void)
 961:../asf/sam/drivers/hsmci/hsmci.c **** {
 962:../asf/sam/drivers/hsmci/hsmci.c **** 	uint32_t sr;
 963:../asf/sam/drivers/hsmci/hsmci.c **** 
 964:../asf/sam/drivers/hsmci/hsmci.c **** 	// Wait end of transfer
 965:../asf/sam/drivers/hsmci/hsmci.c **** 	// Note: no need of timeout, because it is include in HSMCI, see DTOE bit.
 966:../asf/sam/drivers/hsmci/hsmci.c **** 	do {
 967:../asf/sam/drivers/hsmci/hsmci.c **** #if 1  // dc42 changes
 968:../asf/sam/drivers/hsmci/hsmci.c **** 		if (hsmciIdleFunc != NULL)
 969:../asf/sam/drivers/hsmci/hsmci.c **** 		{
 970:../asf/sam/drivers/hsmci/hsmci.c **** 			hsmciIdleFunc(HSMCI_SR_UNRE | HSMCI_SR_OVRE | HSMCI_SR_DTOE | HSMCI_SR_DCRCE | HSMCI_SR_TXBUFE, 
 971:../asf/sam/drivers/hsmci/hsmci.c **** 		}
 972:../asf/sam/drivers/hsmci/hsmci.c **** #endif
 973:../asf/sam/drivers/hsmci/hsmci.c **** 		sr = HSMCI->HSMCI_SR;
 974:../asf/sam/drivers/hsmci/hsmci.c **** 		if (sr &
 975:../asf/sam/drivers/hsmci/hsmci.c **** 				(HSMCI_SR_UNRE | HSMCI_SR_OVRE | \
 976:../asf/sam/drivers/hsmci/hsmci.c **** 				HSMCI_SR_DTOE | HSMCI_SR_DCRCE)) {
 977:../asf/sam/drivers/hsmci/hsmci.c **** 			hsmci_debug("%s: PDC sr 0x%08x error\n\r",
 978:../asf/sam/drivers/hsmci/hsmci.c **** 					__func__, sr);
 979:../asf/sam/drivers/hsmci/hsmci.c **** 			hsmci_reset();
 980:../asf/sam/drivers/hsmci/hsmci.c **** 			HSMCI->HSMCI_PTCR = HSMCI_PTCR_RXTDIS | HSMCI_PTCR_TXTDIS;
 981:../asf/sam/drivers/hsmci/hsmci.c **** 			return false;
ARM GAS  /tmp/cc9w1cGI.s 			page 48


 982:../asf/sam/drivers/hsmci/hsmci.c **** 		}
 983:../asf/sam/drivers/hsmci/hsmci.c **** 	} while (!(sr & HSMCI_SR_TXBUFE));
 984:../asf/sam/drivers/hsmci/hsmci.c **** 
 985:../asf/sam/drivers/hsmci/hsmci.c **** 
 986:../asf/sam/drivers/hsmci/hsmci.c **** 	if (hsmci_transfert_pos < ((uint32_t)hsmci_block_size * hsmci_nb_block)) {
 987:../asf/sam/drivers/hsmci/hsmci.c **** 		return true;
 988:../asf/sam/drivers/hsmci/hsmci.c **** 	}
 989:../asf/sam/drivers/hsmci/hsmci.c **** 	// It is the last transfer, then wait command completed
 990:../asf/sam/drivers/hsmci/hsmci.c **** 	// Note: no need of timeout, because it is include in HSMCI, see DTOE bit.
 991:../asf/sam/drivers/hsmci/hsmci.c **** 	do {
 992:../asf/sam/drivers/hsmci/hsmci.c **** #if 1  // dc42 changes
 993:../asf/sam/drivers/hsmci/hsmci.c **** 		if (hsmciIdleFunc != NULL)
 994:../asf/sam/drivers/hsmci/hsmci.c **** 		{
 995:../asf/sam/drivers/hsmci/hsmci.c **** 			hsmciIdleFunc(HSMCI_SR_UNRE | HSMCI_SR_OVRE | HSMCI_SR_DTOE | HSMCI_SR_DCRCE | HSMCI_SR_NOTBUSY,
 996:../asf/sam/drivers/hsmci/hsmci.c **** 		}
 997:../asf/sam/drivers/hsmci/hsmci.c **** #endif
 998:../asf/sam/drivers/hsmci/hsmci.c **** 		sr = HSMCI->HSMCI_SR;
 999:../asf/sam/drivers/hsmci/hsmci.c **** 		if (sr & (HSMCI_SR_UNRE | HSMCI_SR_OVRE | \
1000:../asf/sam/drivers/hsmci/hsmci.c **** 				HSMCI_SR_DTOE | HSMCI_SR_DCRCE)) {
1001:../asf/sam/drivers/hsmci/hsmci.c **** 			hsmci_debug("%s: PDC sr 0x%08x last transfer error\n\r",
1002:../asf/sam/drivers/hsmci/hsmci.c **** 					__func__, sr);
1003:../asf/sam/drivers/hsmci/hsmci.c **** 			hsmci_reset();
1004:../asf/sam/drivers/hsmci/hsmci.c **** 			return false;
1005:../asf/sam/drivers/hsmci/hsmci.c **** 		}
1006:../asf/sam/drivers/hsmci/hsmci.c **** 	} while (!(sr & HSMCI_SR_NOTBUSY));
1007:../asf/sam/drivers/hsmci/hsmci.c **** 	Assert(HSMCI->HSMCI_SR & HSMCI_SR_FIFOEMPTY);
1008:../asf/sam/drivers/hsmci/hsmci.c **** 	return true;
1009:../asf/sam/drivers/hsmci/hsmci.c **** }
1010:../asf/sam/drivers/hsmci/hsmci.c **** #endif // HSMCI_MR_PDCMODE
1011:../asf/sam/drivers/hsmci/hsmci.c **** 
1012:../asf/sam/drivers/hsmci/hsmci.c **** #if (SAMV70 || SAMV71 || SAME70 || SAMS70)
1013:../asf/sam/drivers/hsmci/hsmci.c **** #ifdef HSMCI_DMA_DMAEN
1014:../asf/sam/drivers/hsmci/hsmci.c **** bool hsmci_start_read_blocks(void *dest, uint16_t nb_block)
1015:../asf/sam/drivers/hsmci/hsmci.c **** {
 1463              		.loc 1 1015 0
 1464              		.cfi_startproc
 1465              		@ args = 0, pretend = 0, frame = 32
 1466              		@ frame_needed = 0, uses_anonymous_args = 0
 1467              	.LVL163:
 1468 0000 70B5     		push	{r4, r5, r6, lr}
 1469              		.cfi_def_cfa_offset 16
 1470              		.cfi_offset 4, -16
 1471              		.cfi_offset 5, -12
 1472              		.cfi_offset 6, -8
 1473              		.cfi_offset 14, -4
 1474 0002 88B0     		sub	sp, sp, #32
 1475              		.cfi_def_cfa_offset 48
 1476              		.loc 1 1015 0
 1477 0004 0646     		mov	r6, r0
 1478 0006 0C46     		mov	r4, r1
1016:../asf/sam/drivers/hsmci/hsmci.c **** 	xdmac_channel_config_t p_cfg = {0, 0, 0, 0, 0, 0, 0, 0};
 1479              		.loc 1 1016 0
 1480 0008 2022     		movs	r2, #32
 1481 000a 0021     		movs	r1, #0
 1482              	.LVL164:
 1483 000c 6846     		mov	r0, sp
 1484              	.LVL165:
ARM GAS  /tmp/cc9w1cGI.s 			page 49


 1485 000e FFF7FEFF 		bl	memset
 1486              	.LVL166:
1017:../asf/sam/drivers/hsmci/hsmci.c **** 	uint32_t nb_data;
1018:../asf/sam/drivers/hsmci/hsmci.c **** 
1019:../asf/sam/drivers/hsmci/hsmci.c **** 	Assert(nb_block);
1020:../asf/sam/drivers/hsmci/hsmci.c **** 	Assert(dest);
1021:../asf/sam/drivers/hsmci/hsmci.c **** 
1022:../asf/sam/drivers/hsmci/hsmci.c **** 	xdmac_channel_disable(XDMAC, CONF_HSMCI_XDMAC_CHANNEL);
1023:../asf/sam/drivers/hsmci/hsmci.c **** 
1024:../asf/sam/drivers/hsmci/hsmci.c **** 	nb_data = nb_block * hsmci_block_size;
 1487              		.loc 1 1024 0
 1488 0012 174B     		ldr	r3, .L160
 1489              	.LBB97:
 1490              	.LBB98:
 1491              		.file 2 "/home/torbjorn/eclipse-workspace/CoreNG/asf/sam/drivers/xdmac/xdmac.h"
   1:/home/torbjorn/eclipse-workspace/CoreNG/asf/sam/drivers/xdmac/xdmac.h **** /**
   2:/home/torbjorn/eclipse-workspace/CoreNG/asf/sam/drivers/xdmac/xdmac.h ****  * \file
   3:/home/torbjorn/eclipse-workspace/CoreNG/asf/sam/drivers/xdmac/xdmac.h ****  *
   4:/home/torbjorn/eclipse-workspace/CoreNG/asf/sam/drivers/xdmac/xdmac.h ****  * \brief SAM XDMA Controller (DMAC) driver.
   5:/home/torbjorn/eclipse-workspace/CoreNG/asf/sam/drivers/xdmac/xdmac.h ****  *
   6:/home/torbjorn/eclipse-workspace/CoreNG/asf/sam/drivers/xdmac/xdmac.h ****  * Copyright (c) 2015-2016 Atmel Corporation. All rights reserved.
   7:/home/torbjorn/eclipse-workspace/CoreNG/asf/sam/drivers/xdmac/xdmac.h ****  *
   8:/home/torbjorn/eclipse-workspace/CoreNG/asf/sam/drivers/xdmac/xdmac.h ****  * \asf_license_start
   9:/home/torbjorn/eclipse-workspace/CoreNG/asf/sam/drivers/xdmac/xdmac.h ****  *
  10:/home/torbjorn/eclipse-workspace/CoreNG/asf/sam/drivers/xdmac/xdmac.h ****  * \page License
  11:/home/torbjorn/eclipse-workspace/CoreNG/asf/sam/drivers/xdmac/xdmac.h ****  *
  12:/home/torbjorn/eclipse-workspace/CoreNG/asf/sam/drivers/xdmac/xdmac.h ****  * Redistribution and use in source and binary forms, with or without
  13:/home/torbjorn/eclipse-workspace/CoreNG/asf/sam/drivers/xdmac/xdmac.h ****  * modification, are permitted provided that the following conditions are met:
  14:/home/torbjorn/eclipse-workspace/CoreNG/asf/sam/drivers/xdmac/xdmac.h ****  *
  15:/home/torbjorn/eclipse-workspace/CoreNG/asf/sam/drivers/xdmac/xdmac.h ****  * 1. Redistributions of source code must retain the above copyright notice,
  16:/home/torbjorn/eclipse-workspace/CoreNG/asf/sam/drivers/xdmac/xdmac.h ****  *    this list of conditions and the following disclaimer.
  17:/home/torbjorn/eclipse-workspace/CoreNG/asf/sam/drivers/xdmac/xdmac.h ****  *
  18:/home/torbjorn/eclipse-workspace/CoreNG/asf/sam/drivers/xdmac/xdmac.h ****  * 2. Redistributions in binary form must reproduce the above copyright notice,
  19:/home/torbjorn/eclipse-workspace/CoreNG/asf/sam/drivers/xdmac/xdmac.h ****  *    this list of conditions and the following disclaimer in the documentation
  20:/home/torbjorn/eclipse-workspace/CoreNG/asf/sam/drivers/xdmac/xdmac.h ****  *    and/or other materials provided with the distribution.
  21:/home/torbjorn/eclipse-workspace/CoreNG/asf/sam/drivers/xdmac/xdmac.h ****  *
  22:/home/torbjorn/eclipse-workspace/CoreNG/asf/sam/drivers/xdmac/xdmac.h ****  * 3. The name of Atmel may not be used to endorse or promote products derived
  23:/home/torbjorn/eclipse-workspace/CoreNG/asf/sam/drivers/xdmac/xdmac.h ****  *    from this software without specific prior written permission.
  24:/home/torbjorn/eclipse-workspace/CoreNG/asf/sam/drivers/xdmac/xdmac.h ****  *
  25:/home/torbjorn/eclipse-workspace/CoreNG/asf/sam/drivers/xdmac/xdmac.h ****  * 4. This software may only be redistributed and used in connection with an
  26:/home/torbjorn/eclipse-workspace/CoreNG/asf/sam/drivers/xdmac/xdmac.h ****  *    Atmel microcontroller product.
  27:/home/torbjorn/eclipse-workspace/CoreNG/asf/sam/drivers/xdmac/xdmac.h ****  *
  28:/home/torbjorn/eclipse-workspace/CoreNG/asf/sam/drivers/xdmac/xdmac.h ****  * THIS SOFTWARE IS PROVIDED BY ATMEL "AS IS" AND ANY EXPRESS OR IMPLIED
  29:/home/torbjorn/eclipse-workspace/CoreNG/asf/sam/drivers/xdmac/xdmac.h ****  * WARRANTIES, INCLUDING, BUT NOT LIMITED TO, THE IMPLIED WARRANTIES OF
  30:/home/torbjorn/eclipse-workspace/CoreNG/asf/sam/drivers/xdmac/xdmac.h ****  * MERCHANTABILITY, FITNESS FOR A PARTICULAR PURPOSE AND NON-INFRINGEMENT ARE
  31:/home/torbjorn/eclipse-workspace/CoreNG/asf/sam/drivers/xdmac/xdmac.h ****  * EXPRESSLY AND SPECIFICALLY DISCLAIMED. IN NO EVENT SHALL ATMEL BE LIABLE FOR
  32:/home/torbjorn/eclipse-workspace/CoreNG/asf/sam/drivers/xdmac/xdmac.h ****  * ANY DIRECT, INDIRECT, INCIDENTAL, SPECIAL, EXEMPLARY, OR CONSEQUENTIAL
  33:/home/torbjorn/eclipse-workspace/CoreNG/asf/sam/drivers/xdmac/xdmac.h ****  * DAMAGES (INCLUDING, BUT NOT LIMITED TO, PROCUREMENT OF SUBSTITUTE GOODS
  34:/home/torbjorn/eclipse-workspace/CoreNG/asf/sam/drivers/xdmac/xdmac.h ****  * OR SERVICES; LOSS OF USE, DATA, OR PROFITS; OR BUSINESS INTERRUPTION)
  35:/home/torbjorn/eclipse-workspace/CoreNG/asf/sam/drivers/xdmac/xdmac.h ****  * HOWEVER CAUSED AND ON ANY THEORY OF LIABILITY, WHETHER IN CONTRACT,
  36:/home/torbjorn/eclipse-workspace/CoreNG/asf/sam/drivers/xdmac/xdmac.h ****  * STRICT LIABILITY, OR TORT (INCLUDING NEGLIGENCE OR OTHERWISE) ARISING IN
  37:/home/torbjorn/eclipse-workspace/CoreNG/asf/sam/drivers/xdmac/xdmac.h ****  * ANY WAY OUT OF THE USE OF THIS SOFTWARE, EVEN IF ADVISED OF THE
  38:/home/torbjorn/eclipse-workspace/CoreNG/asf/sam/drivers/xdmac/xdmac.h ****  * POSSIBILITY OF SUCH DAMAGE.
  39:/home/torbjorn/eclipse-workspace/CoreNG/asf/sam/drivers/xdmac/xdmac.h ****  *
  40:/home/torbjorn/eclipse-workspace/CoreNG/asf/sam/drivers/xdmac/xdmac.h ****  * \asf_license_stop
  41:/home/torbjorn/eclipse-workspace/CoreNG/asf/sam/drivers/xdmac/xdmac.h ****  *
  42:/home/torbjorn/eclipse-workspace/CoreNG/asf/sam/drivers/xdmac/xdmac.h ****  */
ARM GAS  /tmp/cc9w1cGI.s 			page 50


  43:/home/torbjorn/eclipse-workspace/CoreNG/asf/sam/drivers/xdmac/xdmac.h **** /*
  44:/home/torbjorn/eclipse-workspace/CoreNG/asf/sam/drivers/xdmac/xdmac.h ****  * Support and FAQ: visit <a href="http://www.atmel.com/design-support/">Atmel Support</a>
  45:/home/torbjorn/eclipse-workspace/CoreNG/asf/sam/drivers/xdmac/xdmac.h ****  */
  46:/home/torbjorn/eclipse-workspace/CoreNG/asf/sam/drivers/xdmac/xdmac.h **** 
  47:/home/torbjorn/eclipse-workspace/CoreNG/asf/sam/drivers/xdmac/xdmac.h **** #ifndef XDMAC_H_INCLUDED
  48:/home/torbjorn/eclipse-workspace/CoreNG/asf/sam/drivers/xdmac/xdmac.h **** #define XDMAC_H_INCLUDED
  49:/home/torbjorn/eclipse-workspace/CoreNG/asf/sam/drivers/xdmac/xdmac.h **** 
  50:/home/torbjorn/eclipse-workspace/CoreNG/asf/sam/drivers/xdmac/xdmac.h **** /**
  51:/home/torbjorn/eclipse-workspace/CoreNG/asf/sam/drivers/xdmac/xdmac.h ****  * \defgroup asfdoc_sam_drivers_xdmac_group SAMV71/V70/E70/S70 XDMA Controller (XDMAC) Driver
  52:/home/torbjorn/eclipse-workspace/CoreNG/asf/sam/drivers/xdmac/xdmac.h ****  *
  53:/home/torbjorn/eclipse-workspace/CoreNG/asf/sam/drivers/xdmac/xdmac.h ****  * This driver for Atmel&reg; | SMART SAM XDMA Controller (XDMAC) is a AHB-protocol central
  54:/home/torbjorn/eclipse-workspace/CoreNG/asf/sam/drivers/xdmac/xdmac.h ****  * direct memory access controller. It performs peripheral data transfer and memory move operations
  55:/home/torbjorn/eclipse-workspace/CoreNG/asf/sam/drivers/xdmac/xdmac.h ****  * over one or two bus ports through the unidirectional communication channel.
  56:/home/torbjorn/eclipse-workspace/CoreNG/asf/sam/drivers/xdmac/xdmac.h ****  * This is a driver for the configuration, enabling, disabling, and use of the XDMAC peripheral.
  57:/home/torbjorn/eclipse-workspace/CoreNG/asf/sam/drivers/xdmac/xdmac.h ****  *
  58:/home/torbjorn/eclipse-workspace/CoreNG/asf/sam/drivers/xdmac/xdmac.h ****  * Devices from the following series can use this module:
  59:/home/torbjorn/eclipse-workspace/CoreNG/asf/sam/drivers/xdmac/xdmac.h ****  * - Atmel | SMART SAMV71
  60:/home/torbjorn/eclipse-workspace/CoreNG/asf/sam/drivers/xdmac/xdmac.h ****  * - Atmel | SMART SAMV70
  61:/home/torbjorn/eclipse-workspace/CoreNG/asf/sam/drivers/xdmac/xdmac.h ****  * - Atmel | SMART SAMS70
  62:/home/torbjorn/eclipse-workspace/CoreNG/asf/sam/drivers/xdmac/xdmac.h ****  * - Atmel | SMART SAME70
  63:/home/torbjorn/eclipse-workspace/CoreNG/asf/sam/drivers/xdmac/xdmac.h ****  *
  64:/home/torbjorn/eclipse-workspace/CoreNG/asf/sam/drivers/xdmac/xdmac.h ****  * The outline of this documentation is as follows:
  65:/home/torbjorn/eclipse-workspace/CoreNG/asf/sam/drivers/xdmac/xdmac.h ****  *  - \ref asfdoc_sam_drivers_xdmac_prerequisites
  66:/home/torbjorn/eclipse-workspace/CoreNG/asf/sam/drivers/xdmac/xdmac.h ****  *  - \ref asfdoc_sam_drivers_xdmac_module_overview
  67:/home/torbjorn/eclipse-workspace/CoreNG/asf/sam/drivers/xdmac/xdmac.h ****  *  - \ref asfdoc_sam_drivers_xdmac_special_considerations
  68:/home/torbjorn/eclipse-workspace/CoreNG/asf/sam/drivers/xdmac/xdmac.h ****  *  - \ref asfdoc_sam_drivers_xdmac_extra_info
  69:/home/torbjorn/eclipse-workspace/CoreNG/asf/sam/drivers/xdmac/xdmac.h ****  *  - \ref asfdoc_sam_drivers_xdmac_examples
  70:/home/torbjorn/eclipse-workspace/CoreNG/asf/sam/drivers/xdmac/xdmac.h ****  *  - \ref asfdoc_sam_drivers_xdmac_api_overview
  71:/home/torbjorn/eclipse-workspace/CoreNG/asf/sam/drivers/xdmac/xdmac.h ****  *
  72:/home/torbjorn/eclipse-workspace/CoreNG/asf/sam/drivers/xdmac/xdmac.h ****  *
  73:/home/torbjorn/eclipse-workspace/CoreNG/asf/sam/drivers/xdmac/xdmac.h ****  * \section asfdoc_sam_drivers_xdmac_prerequisites Prerequisites
  74:/home/torbjorn/eclipse-workspace/CoreNG/asf/sam/drivers/xdmac/xdmac.h ****  *
  75:/home/torbjorn/eclipse-workspace/CoreNG/asf/sam/drivers/xdmac/xdmac.h ****  * There are no prerequisites for this module.
  76:/home/torbjorn/eclipse-workspace/CoreNG/asf/sam/drivers/xdmac/xdmac.h ****  *
  77:/home/torbjorn/eclipse-workspace/CoreNG/asf/sam/drivers/xdmac/xdmac.h ****  *
  78:/home/torbjorn/eclipse-workspace/CoreNG/asf/sam/drivers/xdmac/xdmac.h ****  * \section asfdoc_sam_drivers_xdmac_module_overview Module Overview
  79:/home/torbjorn/eclipse-workspace/CoreNG/asf/sam/drivers/xdmac/xdmac.h ****  * The DMA Controller (XDMAC) is a AHB-protocol central direct memory access controller.
  80:/home/torbjorn/eclipse-workspace/CoreNG/asf/sam/drivers/xdmac/xdmac.h ****  * It performs peripheral data transfer and memory move operations over one or two bus ports
  81:/home/torbjorn/eclipse-workspace/CoreNG/asf/sam/drivers/xdmac/xdmac.h ****  * through the unidirectional communication channel. Each channel is fully programmable and
  82:/home/torbjorn/eclipse-workspace/CoreNG/asf/sam/drivers/xdmac/xdmac.h ****  * provides both peripheral or memory to memory transfer. The channel features are configurable
  83:/home/torbjorn/eclipse-workspace/CoreNG/asf/sam/drivers/xdmac/xdmac.h ****  * at implementation time.
  84:/home/torbjorn/eclipse-workspace/CoreNG/asf/sam/drivers/xdmac/xdmac.h ****  *
  85:/home/torbjorn/eclipse-workspace/CoreNG/asf/sam/drivers/xdmac/xdmac.h ****  *
  86:/home/torbjorn/eclipse-workspace/CoreNG/asf/sam/drivers/xdmac/xdmac.h ****  * \section asfdoc_sam_drivers_xdmac_special_considerations Special Considerations
  87:/home/torbjorn/eclipse-workspace/CoreNG/asf/sam/drivers/xdmac/xdmac.h ****  * There are no special considerations for this module.
  88:/home/torbjorn/eclipse-workspace/CoreNG/asf/sam/drivers/xdmac/xdmac.h ****  *
  89:/home/torbjorn/eclipse-workspace/CoreNG/asf/sam/drivers/xdmac/xdmac.h ****  *
  90:/home/torbjorn/eclipse-workspace/CoreNG/asf/sam/drivers/xdmac/xdmac.h ****  * \section asfdoc_sam_drivers_xdmac_extra_info Extra Information
  91:/home/torbjorn/eclipse-workspace/CoreNG/asf/sam/drivers/xdmac/xdmac.h ****  *
  92:/home/torbjorn/eclipse-workspace/CoreNG/asf/sam/drivers/xdmac/xdmac.h ****  * For extra information, see \ref asfdoc_sam_drivers_xdmac_extra. This includes:
  93:/home/torbjorn/eclipse-workspace/CoreNG/asf/sam/drivers/xdmac/xdmac.h ****  *  - \ref asfdoc_sam_drivers_xdmac_extra_acronyms
  94:/home/torbjorn/eclipse-workspace/CoreNG/asf/sam/drivers/xdmac/xdmac.h ****  *  - \ref asfdoc_sam_drivers_xdmac_extra_dependencies
  95:/home/torbjorn/eclipse-workspace/CoreNG/asf/sam/drivers/xdmac/xdmac.h ****  *  - \ref asfdoc_sam_drivers_xdmac_extra_errata
  96:/home/torbjorn/eclipse-workspace/CoreNG/asf/sam/drivers/xdmac/xdmac.h ****  *  - \ref asfdoc_sam_drivers_xdmac_extra_history
  97:/home/torbjorn/eclipse-workspace/CoreNG/asf/sam/drivers/xdmac/xdmac.h ****  *
  98:/home/torbjorn/eclipse-workspace/CoreNG/asf/sam/drivers/xdmac/xdmac.h ****  * \section asfdoc_sam_drivers_xdmac_examples Examples
  99:/home/torbjorn/eclipse-workspace/CoreNG/asf/sam/drivers/xdmac/xdmac.h ****  *
ARM GAS  /tmp/cc9w1cGI.s 			page 51


 100:/home/torbjorn/eclipse-workspace/CoreNG/asf/sam/drivers/xdmac/xdmac.h ****  * For a list of examples related to this driver, see
 101:/home/torbjorn/eclipse-workspace/CoreNG/asf/sam/drivers/xdmac/xdmac.h ****  * \ref asfdoc_sam_drivers_xdmac_exqsg.
 102:/home/torbjorn/eclipse-workspace/CoreNG/asf/sam/drivers/xdmac/xdmac.h ****  *
 103:/home/torbjorn/eclipse-workspace/CoreNG/asf/sam/drivers/xdmac/xdmac.h ****  *
 104:/home/torbjorn/eclipse-workspace/CoreNG/asf/sam/drivers/xdmac/xdmac.h ****  * \section asfdoc_sam_drivers_xdmac_api_overview API Overview
 105:/home/torbjorn/eclipse-workspace/CoreNG/asf/sam/drivers/xdmac/xdmac.h ****  * @{
 106:/home/torbjorn/eclipse-workspace/CoreNG/asf/sam/drivers/xdmac/xdmac.h ****  */
 107:/home/torbjorn/eclipse-workspace/CoreNG/asf/sam/drivers/xdmac/xdmac.h **** 
 108:/home/torbjorn/eclipse-workspace/CoreNG/asf/sam/drivers/xdmac/xdmac.h **** #include  <compiler.h>
 109:/home/torbjorn/eclipse-workspace/CoreNG/asf/sam/drivers/xdmac/xdmac.h **** #include  <status_codes.h>
 110:/home/torbjorn/eclipse-workspace/CoreNG/asf/sam/drivers/xdmac/xdmac.h **** 
 111:/home/torbjorn/eclipse-workspace/CoreNG/asf/sam/drivers/xdmac/xdmac.h **** /** @cond */
 112:/home/torbjorn/eclipse-workspace/CoreNG/asf/sam/drivers/xdmac/xdmac.h **** /**INDENT-OFF**/
 113:/home/torbjorn/eclipse-workspace/CoreNG/asf/sam/drivers/xdmac/xdmac.h **** #ifdef __cplusplus
 114:/home/torbjorn/eclipse-workspace/CoreNG/asf/sam/drivers/xdmac/xdmac.h **** extern "C" {
 115:/home/torbjorn/eclipse-workspace/CoreNG/asf/sam/drivers/xdmac/xdmac.h **** #endif
 116:/home/torbjorn/eclipse-workspace/CoreNG/asf/sam/drivers/xdmac/xdmac.h **** /**INDENT-ON**/
 117:/home/torbjorn/eclipse-workspace/CoreNG/asf/sam/drivers/xdmac/xdmac.h **** /** @endcond */
 118:/home/torbjorn/eclipse-workspace/CoreNG/asf/sam/drivers/xdmac/xdmac.h **** 
 119:/home/torbjorn/eclipse-workspace/CoreNG/asf/sam/drivers/xdmac/xdmac.h **** /** DMA channel hardware interface number */
 120:/home/torbjorn/eclipse-workspace/CoreNG/asf/sam/drivers/xdmac/xdmac.h **** #define XDAMC_CHANNEL_HWID_HSMCI       0
 121:/home/torbjorn/eclipse-workspace/CoreNG/asf/sam/drivers/xdmac/xdmac.h **** #define XDAMC_CHANNEL_HWID_SPI0_TX     1
 122:/home/torbjorn/eclipse-workspace/CoreNG/asf/sam/drivers/xdmac/xdmac.h **** #define XDAMC_CHANNEL_HWID_SPI0_RX     2
 123:/home/torbjorn/eclipse-workspace/CoreNG/asf/sam/drivers/xdmac/xdmac.h **** #define XDAMC_CHANNEL_HWID_SPI1_TX     3
 124:/home/torbjorn/eclipse-workspace/CoreNG/asf/sam/drivers/xdmac/xdmac.h **** #define XDAMC_CHANNEL_HWID_SPI1_RX     4
 125:/home/torbjorn/eclipse-workspace/CoreNG/asf/sam/drivers/xdmac/xdmac.h **** #define XDAMC_CHANNEL_HWID_QSPI_TX     5
 126:/home/torbjorn/eclipse-workspace/CoreNG/asf/sam/drivers/xdmac/xdmac.h **** #define XDAMC_CHANNEL_HWID_QSPI_RX     6
 127:/home/torbjorn/eclipse-workspace/CoreNG/asf/sam/drivers/xdmac/xdmac.h **** #define XDAMC_CHANNEL_HWID_USART0_TX   7
 128:/home/torbjorn/eclipse-workspace/CoreNG/asf/sam/drivers/xdmac/xdmac.h **** #define XDAMC_CHANNEL_HWID_USART0_RX   8
 129:/home/torbjorn/eclipse-workspace/CoreNG/asf/sam/drivers/xdmac/xdmac.h **** #define XDAMC_CHANNEL_HWID_USART1_TX   9
 130:/home/torbjorn/eclipse-workspace/CoreNG/asf/sam/drivers/xdmac/xdmac.h **** #define XDAMC_CHANNEL_HWID_USART1_RX   10
 131:/home/torbjorn/eclipse-workspace/CoreNG/asf/sam/drivers/xdmac/xdmac.h **** #define XDAMC_CHANNEL_HWID_USART2_TX   11
 132:/home/torbjorn/eclipse-workspace/CoreNG/asf/sam/drivers/xdmac/xdmac.h **** #define XDAMC_CHANNEL_HWID_USART2_RX   12
 133:/home/torbjorn/eclipse-workspace/CoreNG/asf/sam/drivers/xdmac/xdmac.h **** #define XDAMC_CHANNEL_HWID_PWM0        13
 134:/home/torbjorn/eclipse-workspace/CoreNG/asf/sam/drivers/xdmac/xdmac.h **** #define XDAMC_CHANNEL_HWID_TWIHS0_TX   14
 135:/home/torbjorn/eclipse-workspace/CoreNG/asf/sam/drivers/xdmac/xdmac.h **** #define XDAMC_CHANNEL_HWID_TWIHS0_RX   15
 136:/home/torbjorn/eclipse-workspace/CoreNG/asf/sam/drivers/xdmac/xdmac.h **** #define XDAMC_CHANNEL_HWID_TWIHS1_TX   16
 137:/home/torbjorn/eclipse-workspace/CoreNG/asf/sam/drivers/xdmac/xdmac.h **** #define XDAMC_CHANNEL_HWID_TWIHS1_RX   17
 138:/home/torbjorn/eclipse-workspace/CoreNG/asf/sam/drivers/xdmac/xdmac.h **** #define XDAMC_CHANNEL_HWID_TWIHS2_TX   18
 139:/home/torbjorn/eclipse-workspace/CoreNG/asf/sam/drivers/xdmac/xdmac.h **** #define XDAMC_CHANNEL_HWID_TWIHS2_RX   19
 140:/home/torbjorn/eclipse-workspace/CoreNG/asf/sam/drivers/xdmac/xdmac.h **** #define XDAMC_CHANNEL_HWID_UART0_TX    20
 141:/home/torbjorn/eclipse-workspace/CoreNG/asf/sam/drivers/xdmac/xdmac.h **** #define XDAMC_CHANNEL_HWID_UART0_RX    21
 142:/home/torbjorn/eclipse-workspace/CoreNG/asf/sam/drivers/xdmac/xdmac.h **** #define XDAMC_CHANNEL_HWID_UART1_TX    22
 143:/home/torbjorn/eclipse-workspace/CoreNG/asf/sam/drivers/xdmac/xdmac.h **** #define XDAMC_CHANNEL_HWID_UART1_RX    23
 144:/home/torbjorn/eclipse-workspace/CoreNG/asf/sam/drivers/xdmac/xdmac.h **** #define XDAMC_CHANNEL_HWID_UART2_TX    24
 145:/home/torbjorn/eclipse-workspace/CoreNG/asf/sam/drivers/xdmac/xdmac.h **** #define XDAMC_CHANNEL_HWID_UART2_RX    25
 146:/home/torbjorn/eclipse-workspace/CoreNG/asf/sam/drivers/xdmac/xdmac.h **** #define XDAMC_CHANNEL_HWID_UART3_TX    26
 147:/home/torbjorn/eclipse-workspace/CoreNG/asf/sam/drivers/xdmac/xdmac.h **** #define XDAMC_CHANNEL_HWID_UART3_RX    27
 148:/home/torbjorn/eclipse-workspace/CoreNG/asf/sam/drivers/xdmac/xdmac.h **** #define XDAMC_CHANNEL_HWID_UART4_TX    28
 149:/home/torbjorn/eclipse-workspace/CoreNG/asf/sam/drivers/xdmac/xdmac.h **** #define XDAMC_CHANNEL_HWID_UART4_RX    29
 150:/home/torbjorn/eclipse-workspace/CoreNG/asf/sam/drivers/xdmac/xdmac.h **** #define XDAMC_CHANNEL_HWID_DAC         30
 151:/home/torbjorn/eclipse-workspace/CoreNG/asf/sam/drivers/xdmac/xdmac.h **** #define XDAMC_CHANNEL_HWID_SSC_TX      32
 152:/home/torbjorn/eclipse-workspace/CoreNG/asf/sam/drivers/xdmac/xdmac.h **** #define XDAMC_CHANNEL_HWID_SSC_RX      33
 153:/home/torbjorn/eclipse-workspace/CoreNG/asf/sam/drivers/xdmac/xdmac.h **** #define XDAMC_CHANNEL_HWID_PIOA        34
 154:/home/torbjorn/eclipse-workspace/CoreNG/asf/sam/drivers/xdmac/xdmac.h **** #define XDAMC_CHANNEL_HWID_AFEC0       35
 155:/home/torbjorn/eclipse-workspace/CoreNG/asf/sam/drivers/xdmac/xdmac.h **** #define XDAMC_CHANNEL_HWID_AFEC1       36
 156:/home/torbjorn/eclipse-workspace/CoreNG/asf/sam/drivers/xdmac/xdmac.h **** #define XDAMC_CHANNEL_HWID_AES_TX      37
ARM GAS  /tmp/cc9w1cGI.s 			page 52


 157:/home/torbjorn/eclipse-workspace/CoreNG/asf/sam/drivers/xdmac/xdmac.h **** #define XDAMC_CHANNEL_HWID_AES_RX      38
 158:/home/torbjorn/eclipse-workspace/CoreNG/asf/sam/drivers/xdmac/xdmac.h **** #define XDAMC_CHANNEL_HWID_PWM1        39
 159:/home/torbjorn/eclipse-workspace/CoreNG/asf/sam/drivers/xdmac/xdmac.h **** #define XDAMC_CHANNEL_HWID_TC0         40
 160:/home/torbjorn/eclipse-workspace/CoreNG/asf/sam/drivers/xdmac/xdmac.h **** #define XDAMC_CHANNEL_HWID_TC1         41
 161:/home/torbjorn/eclipse-workspace/CoreNG/asf/sam/drivers/xdmac/xdmac.h **** #define XDAMC_CHANNEL_HWID_TC2         42
 162:/home/torbjorn/eclipse-workspace/CoreNG/asf/sam/drivers/xdmac/xdmac.h **** #define XDAMC_CHANNEL_HWID_TC3         43
 163:/home/torbjorn/eclipse-workspace/CoreNG/asf/sam/drivers/xdmac/xdmac.h **** 
 164:/home/torbjorn/eclipse-workspace/CoreNG/asf/sam/drivers/xdmac/xdmac.h **** /* XDMA_MBR_UBC */
 165:/home/torbjorn/eclipse-workspace/CoreNG/asf/sam/drivers/xdmac/xdmac.h **** #define   XDMAC_UBC_NDE            (0x1u << 24)
 166:/home/torbjorn/eclipse-workspace/CoreNG/asf/sam/drivers/xdmac/xdmac.h **** #define   XDMAC_UBC_NDE_FETCH_DIS  (0x0u << 24)
 167:/home/torbjorn/eclipse-workspace/CoreNG/asf/sam/drivers/xdmac/xdmac.h **** #define   XDMAC_UBC_NDE_FETCH_EN   (0x1u << 24)
 168:/home/torbjorn/eclipse-workspace/CoreNG/asf/sam/drivers/xdmac/xdmac.h **** #define   XDMAC_UBC_NSEN           (0x1u << 25)
 169:/home/torbjorn/eclipse-workspace/CoreNG/asf/sam/drivers/xdmac/xdmac.h **** #define   XDMAC_UBC_NSEN_UNCHANGED (0x0u << 25)
 170:/home/torbjorn/eclipse-workspace/CoreNG/asf/sam/drivers/xdmac/xdmac.h **** #define   XDMAC_UBC_NSEN_UPDATED   (0x1u << 25)
 171:/home/torbjorn/eclipse-workspace/CoreNG/asf/sam/drivers/xdmac/xdmac.h **** #define   XDMAC_UBC_NDEN           (0x1u << 26)
 172:/home/torbjorn/eclipse-workspace/CoreNG/asf/sam/drivers/xdmac/xdmac.h **** #define   XDMAC_UBC_NDEN_UNCHANGED (0x0u << 26)
 173:/home/torbjorn/eclipse-workspace/CoreNG/asf/sam/drivers/xdmac/xdmac.h **** #define   XDMAC_UBC_NDEN_UPDATED   (0x1u << 26)
 174:/home/torbjorn/eclipse-workspace/CoreNG/asf/sam/drivers/xdmac/xdmac.h **** #define   XDMAC_UBC_NVIEW_Pos      27
 175:/home/torbjorn/eclipse-workspace/CoreNG/asf/sam/drivers/xdmac/xdmac.h **** #define   XDMAC_UBC_NVIEW_Msk      (0x3u << XDMAC_UBC_NVIEW_Pos)
 176:/home/torbjorn/eclipse-workspace/CoreNG/asf/sam/drivers/xdmac/xdmac.h **** #define   XDMAC_UBC_NVIEW_NDV0     (0x0u << XDMAC_UBC_NVIEW_Pos)
 177:/home/torbjorn/eclipse-workspace/CoreNG/asf/sam/drivers/xdmac/xdmac.h **** #define   XDMAC_UBC_NVIEW_NDV1     (0x1u << XDMAC_UBC_NVIEW_Pos)
 178:/home/torbjorn/eclipse-workspace/CoreNG/asf/sam/drivers/xdmac/xdmac.h **** #define   XDMAC_UBC_NVIEW_NDV2     (0x2u << XDMAC_UBC_NVIEW_Pos)
 179:/home/torbjorn/eclipse-workspace/CoreNG/asf/sam/drivers/xdmac/xdmac.h **** #define   XDMAC_UBC_NVIEW_NDV3     (0x3u << XDMAC_UBC_NVIEW_Pos)
 180:/home/torbjorn/eclipse-workspace/CoreNG/asf/sam/drivers/xdmac/xdmac.h **** #define   XDMAC_UBC_UBLEN_Pos 0
 181:/home/torbjorn/eclipse-workspace/CoreNG/asf/sam/drivers/xdmac/xdmac.h **** #define   XDMAC_UBC_UBLEN_Msk (0xffffffu << XDMAC_UBC_UBLEN_Pos)
 182:/home/torbjorn/eclipse-workspace/CoreNG/asf/sam/drivers/xdmac/xdmac.h **** #define   XDMAC_UBC_UBLEN(value) ((XDMAC_UBC_UBLEN_Msk & ((value) << XDMAC_UBC_UBLEN_Pos)))
 183:/home/torbjorn/eclipse-workspace/CoreNG/asf/sam/drivers/xdmac/xdmac.h **** 
 184:/home/torbjorn/eclipse-workspace/CoreNG/asf/sam/drivers/xdmac/xdmac.h **** /** XDMA config register for channel */
 185:/home/torbjorn/eclipse-workspace/CoreNG/asf/sam/drivers/xdmac/xdmac.h **** typedef struct {
 186:/home/torbjorn/eclipse-workspace/CoreNG/asf/sam/drivers/xdmac/xdmac.h **** 	/** Microblock Control Member. */
 187:/home/torbjorn/eclipse-workspace/CoreNG/asf/sam/drivers/xdmac/xdmac.h **** 	uint32_t mbr_ubc;
 188:/home/torbjorn/eclipse-workspace/CoreNG/asf/sam/drivers/xdmac/xdmac.h **** 	/** Source Address Member. */
 189:/home/torbjorn/eclipse-workspace/CoreNG/asf/sam/drivers/xdmac/xdmac.h **** 	uint32_t mbr_sa;
 190:/home/torbjorn/eclipse-workspace/CoreNG/asf/sam/drivers/xdmac/xdmac.h **** 	/** Destination Address Member. */
 191:/home/torbjorn/eclipse-workspace/CoreNG/asf/sam/drivers/xdmac/xdmac.h **** 	uint32_t mbr_da;
 192:/home/torbjorn/eclipse-workspace/CoreNG/asf/sam/drivers/xdmac/xdmac.h **** 	/** Configuration Register. */
 193:/home/torbjorn/eclipse-workspace/CoreNG/asf/sam/drivers/xdmac/xdmac.h **** 	uint32_t mbr_cfg;
 194:/home/torbjorn/eclipse-workspace/CoreNG/asf/sam/drivers/xdmac/xdmac.h **** 	/** Block Control Member. */
 195:/home/torbjorn/eclipse-workspace/CoreNG/asf/sam/drivers/xdmac/xdmac.h **** 	uint32_t mbr_bc;
 196:/home/torbjorn/eclipse-workspace/CoreNG/asf/sam/drivers/xdmac/xdmac.h **** 	/** Data Stride Member. */
 197:/home/torbjorn/eclipse-workspace/CoreNG/asf/sam/drivers/xdmac/xdmac.h **** 	uint32_t mbr_ds;
 198:/home/torbjorn/eclipse-workspace/CoreNG/asf/sam/drivers/xdmac/xdmac.h **** 	/** Source Microblock Stride Member. */
 199:/home/torbjorn/eclipse-workspace/CoreNG/asf/sam/drivers/xdmac/xdmac.h **** 	uint32_t mbr_sus;
 200:/home/torbjorn/eclipse-workspace/CoreNG/asf/sam/drivers/xdmac/xdmac.h **** 	/** Destination Microblock Stride Member. */
 201:/home/torbjorn/eclipse-workspace/CoreNG/asf/sam/drivers/xdmac/xdmac.h **** 	uint32_t mbr_dus;
 202:/home/torbjorn/eclipse-workspace/CoreNG/asf/sam/drivers/xdmac/xdmac.h **** } xdmac_channel_config_t;
 203:/home/torbjorn/eclipse-workspace/CoreNG/asf/sam/drivers/xdmac/xdmac.h **** 
 204:/home/torbjorn/eclipse-workspace/CoreNG/asf/sam/drivers/xdmac/xdmac.h **** /**
 205:/home/torbjorn/eclipse-workspace/CoreNG/asf/sam/drivers/xdmac/xdmac.h ****  * \brief Structure for storing parameters for DMA view0 that can be
 206:/home/torbjorn/eclipse-workspace/CoreNG/asf/sam/drivers/xdmac/xdmac.h ****  * performed by the DMA Master transfer.
 207:/home/torbjorn/eclipse-workspace/CoreNG/asf/sam/drivers/xdmac/xdmac.h ****  */
 208:/home/torbjorn/eclipse-workspace/CoreNG/asf/sam/drivers/xdmac/xdmac.h **** typedef struct {
 209:/home/torbjorn/eclipse-workspace/CoreNG/asf/sam/drivers/xdmac/xdmac.h **** 	/** Next Descriptor Address number. */
 210:/home/torbjorn/eclipse-workspace/CoreNG/asf/sam/drivers/xdmac/xdmac.h **** 	uint32_t mbr_nda;
 211:/home/torbjorn/eclipse-workspace/CoreNG/asf/sam/drivers/xdmac/xdmac.h **** 	/** Microblock Control Member. */
 212:/home/torbjorn/eclipse-workspace/CoreNG/asf/sam/drivers/xdmac/xdmac.h **** 	uint32_t mbr_ubc;
 213:/home/torbjorn/eclipse-workspace/CoreNG/asf/sam/drivers/xdmac/xdmac.h **** 	/** Destination Address Member. */
ARM GAS  /tmp/cc9w1cGI.s 			page 53


 214:/home/torbjorn/eclipse-workspace/CoreNG/asf/sam/drivers/xdmac/xdmac.h **** 	uint32_t mbr_da;
 215:/home/torbjorn/eclipse-workspace/CoreNG/asf/sam/drivers/xdmac/xdmac.h **** } lld_view0;
 216:/home/torbjorn/eclipse-workspace/CoreNG/asf/sam/drivers/xdmac/xdmac.h **** 
 217:/home/torbjorn/eclipse-workspace/CoreNG/asf/sam/drivers/xdmac/xdmac.h **** /**
 218:/home/torbjorn/eclipse-workspace/CoreNG/asf/sam/drivers/xdmac/xdmac.h ****  * \brief Structure for storing parameters for DMA view1 that can be
 219:/home/torbjorn/eclipse-workspace/CoreNG/asf/sam/drivers/xdmac/xdmac.h ****  * performed by the DMA Master transfer.
 220:/home/torbjorn/eclipse-workspace/CoreNG/asf/sam/drivers/xdmac/xdmac.h ****  */
 221:/home/torbjorn/eclipse-workspace/CoreNG/asf/sam/drivers/xdmac/xdmac.h **** typedef struct {
 222:/home/torbjorn/eclipse-workspace/CoreNG/asf/sam/drivers/xdmac/xdmac.h **** 	/** Next Descriptor Address number. */
 223:/home/torbjorn/eclipse-workspace/CoreNG/asf/sam/drivers/xdmac/xdmac.h **** 	uint32_t mbr_nda;
 224:/home/torbjorn/eclipse-workspace/CoreNG/asf/sam/drivers/xdmac/xdmac.h **** 	/** Microblock Control Member. */
 225:/home/torbjorn/eclipse-workspace/CoreNG/asf/sam/drivers/xdmac/xdmac.h **** 	uint32_t mbr_ubc;
 226:/home/torbjorn/eclipse-workspace/CoreNG/asf/sam/drivers/xdmac/xdmac.h **** 	/** Source Address Member. */
 227:/home/torbjorn/eclipse-workspace/CoreNG/asf/sam/drivers/xdmac/xdmac.h **** 	uint32_t mbr_sa;
 228:/home/torbjorn/eclipse-workspace/CoreNG/asf/sam/drivers/xdmac/xdmac.h **** 	/** Destination Address Member. */
 229:/home/torbjorn/eclipse-workspace/CoreNG/asf/sam/drivers/xdmac/xdmac.h **** 	uint32_t mbr_da;
 230:/home/torbjorn/eclipse-workspace/CoreNG/asf/sam/drivers/xdmac/xdmac.h **** } lld_view1;
 231:/home/torbjorn/eclipse-workspace/CoreNG/asf/sam/drivers/xdmac/xdmac.h **** 
 232:/home/torbjorn/eclipse-workspace/CoreNG/asf/sam/drivers/xdmac/xdmac.h **** /**
 233:/home/torbjorn/eclipse-workspace/CoreNG/asf/sam/drivers/xdmac/xdmac.h ****  * \brief Structure for storing parameters for DMA view2 that can be
 234:/home/torbjorn/eclipse-workspace/CoreNG/asf/sam/drivers/xdmac/xdmac.h ****  * performed by the DMA Master transfer.
 235:/home/torbjorn/eclipse-workspace/CoreNG/asf/sam/drivers/xdmac/xdmac.h ****  */
 236:/home/torbjorn/eclipse-workspace/CoreNG/asf/sam/drivers/xdmac/xdmac.h **** typedef struct {
 237:/home/torbjorn/eclipse-workspace/CoreNG/asf/sam/drivers/xdmac/xdmac.h **** 	/** Next Descriptor Address number. */
 238:/home/torbjorn/eclipse-workspace/CoreNG/asf/sam/drivers/xdmac/xdmac.h **** 	uint32_t mbr_nda;
 239:/home/torbjorn/eclipse-workspace/CoreNG/asf/sam/drivers/xdmac/xdmac.h **** 	/** Microblock Control Member. */
 240:/home/torbjorn/eclipse-workspace/CoreNG/asf/sam/drivers/xdmac/xdmac.h **** 	uint32_t mbr_ubc;
 241:/home/torbjorn/eclipse-workspace/CoreNG/asf/sam/drivers/xdmac/xdmac.h **** 	/** Source Address Member. */
 242:/home/torbjorn/eclipse-workspace/CoreNG/asf/sam/drivers/xdmac/xdmac.h **** 	uint32_t mbr_sa;
 243:/home/torbjorn/eclipse-workspace/CoreNG/asf/sam/drivers/xdmac/xdmac.h **** 	/** Destination Address Member. */
 244:/home/torbjorn/eclipse-workspace/CoreNG/asf/sam/drivers/xdmac/xdmac.h **** 	uint32_t mbr_da;
 245:/home/torbjorn/eclipse-workspace/CoreNG/asf/sam/drivers/xdmac/xdmac.h **** 	/** Configuration Register. */
 246:/home/torbjorn/eclipse-workspace/CoreNG/asf/sam/drivers/xdmac/xdmac.h **** 	uint32_t mbr_cfg;
 247:/home/torbjorn/eclipse-workspace/CoreNG/asf/sam/drivers/xdmac/xdmac.h **** } lld_view2;
 248:/home/torbjorn/eclipse-workspace/CoreNG/asf/sam/drivers/xdmac/xdmac.h **** 
 249:/home/torbjorn/eclipse-workspace/CoreNG/asf/sam/drivers/xdmac/xdmac.h **** /**
 250:/home/torbjorn/eclipse-workspace/CoreNG/asf/sam/drivers/xdmac/xdmac.h ****  * \brief Structure for storing parameters for DMA view3 that can be
 251:/home/torbjorn/eclipse-workspace/CoreNG/asf/sam/drivers/xdmac/xdmac.h ****  * performed by the DMA Master transfer.
 252:/home/torbjorn/eclipse-workspace/CoreNG/asf/sam/drivers/xdmac/xdmac.h ****  */
 253:/home/torbjorn/eclipse-workspace/CoreNG/asf/sam/drivers/xdmac/xdmac.h **** typedef struct {
 254:/home/torbjorn/eclipse-workspace/CoreNG/asf/sam/drivers/xdmac/xdmac.h **** 	/** Next Descriptor Address number. */
 255:/home/torbjorn/eclipse-workspace/CoreNG/asf/sam/drivers/xdmac/xdmac.h **** 	uint32_t mbr_nda;
 256:/home/torbjorn/eclipse-workspace/CoreNG/asf/sam/drivers/xdmac/xdmac.h **** 	/** Microblock Control Member. */
 257:/home/torbjorn/eclipse-workspace/CoreNG/asf/sam/drivers/xdmac/xdmac.h **** 	uint32_t mbr_ubc;
 258:/home/torbjorn/eclipse-workspace/CoreNG/asf/sam/drivers/xdmac/xdmac.h **** 	/** Source Address Member. */
 259:/home/torbjorn/eclipse-workspace/CoreNG/asf/sam/drivers/xdmac/xdmac.h **** 	uint32_t mbr_sa;
 260:/home/torbjorn/eclipse-workspace/CoreNG/asf/sam/drivers/xdmac/xdmac.h **** 	/** Destination Address Member. */
 261:/home/torbjorn/eclipse-workspace/CoreNG/asf/sam/drivers/xdmac/xdmac.h **** 	uint32_t mbr_da;
 262:/home/torbjorn/eclipse-workspace/CoreNG/asf/sam/drivers/xdmac/xdmac.h **** 	/** Configuration Register. */
 263:/home/torbjorn/eclipse-workspace/CoreNG/asf/sam/drivers/xdmac/xdmac.h **** 	uint32_t mbr_cfg;
 264:/home/torbjorn/eclipse-workspace/CoreNG/asf/sam/drivers/xdmac/xdmac.h **** 	/** Block Control Member. */
 265:/home/torbjorn/eclipse-workspace/CoreNG/asf/sam/drivers/xdmac/xdmac.h **** 	uint32_t mbr_bc;
 266:/home/torbjorn/eclipse-workspace/CoreNG/asf/sam/drivers/xdmac/xdmac.h **** 	/** Data Stride Member. */
 267:/home/torbjorn/eclipse-workspace/CoreNG/asf/sam/drivers/xdmac/xdmac.h **** 	uint32_t mbr_ds;
 268:/home/torbjorn/eclipse-workspace/CoreNG/asf/sam/drivers/xdmac/xdmac.h **** 	/** Source Microblock Stride Member. */
 269:/home/torbjorn/eclipse-workspace/CoreNG/asf/sam/drivers/xdmac/xdmac.h **** 	uint32_t mbr_sus;
 270:/home/torbjorn/eclipse-workspace/CoreNG/asf/sam/drivers/xdmac/xdmac.h **** 	/** Destination Microblock Stride Member. */
ARM GAS  /tmp/cc9w1cGI.s 			page 54


 271:/home/torbjorn/eclipse-workspace/CoreNG/asf/sam/drivers/xdmac/xdmac.h **** 	uint32_t mbr_dus;
 272:/home/torbjorn/eclipse-workspace/CoreNG/asf/sam/drivers/xdmac/xdmac.h **** } lld_view3;
 273:/home/torbjorn/eclipse-workspace/CoreNG/asf/sam/drivers/xdmac/xdmac.h **** 
 274:/home/torbjorn/eclipse-workspace/CoreNG/asf/sam/drivers/xdmac/xdmac.h **** /**
 275:/home/torbjorn/eclipse-workspace/CoreNG/asf/sam/drivers/xdmac/xdmac.h ****  * \brief Get XDMAC global type.
 276:/home/torbjorn/eclipse-workspace/CoreNG/asf/sam/drivers/xdmac/xdmac.h ****  *
 277:/home/torbjorn/eclipse-workspace/CoreNG/asf/sam/drivers/xdmac/xdmac.h ****  * \param[out] xdmac Module hardware register base address pointer.
 278:/home/torbjorn/eclipse-workspace/CoreNG/asf/sam/drivers/xdmac/xdmac.h ****  */
 279:/home/torbjorn/eclipse-workspace/CoreNG/asf/sam/drivers/xdmac/xdmac.h **** static inline uint32_t xdmac_get_type( Xdmac *xdmac)
 280:/home/torbjorn/eclipse-workspace/CoreNG/asf/sam/drivers/xdmac/xdmac.h **** {
 281:/home/torbjorn/eclipse-workspace/CoreNG/asf/sam/drivers/xdmac/xdmac.h **** 	Assert(xdmac);
 282:/home/torbjorn/eclipse-workspace/CoreNG/asf/sam/drivers/xdmac/xdmac.h **** 	return xdmac->XDMAC_GTYPE;
 283:/home/torbjorn/eclipse-workspace/CoreNG/asf/sam/drivers/xdmac/xdmac.h **** }
 284:/home/torbjorn/eclipse-workspace/CoreNG/asf/sam/drivers/xdmac/xdmac.h **** 
 285:/home/torbjorn/eclipse-workspace/CoreNG/asf/sam/drivers/xdmac/xdmac.h **** /**
 286:/home/torbjorn/eclipse-workspace/CoreNG/asf/sam/drivers/xdmac/xdmac.h ****  * \brief Get XDMAC global configuration.
 287:/home/torbjorn/eclipse-workspace/CoreNG/asf/sam/drivers/xdmac/xdmac.h ****  *
 288:/home/torbjorn/eclipse-workspace/CoreNG/asf/sam/drivers/xdmac/xdmac.h ****  * \param[out] xdmac Module hardware register base address pointer.
 289:/home/torbjorn/eclipse-workspace/CoreNG/asf/sam/drivers/xdmac/xdmac.h ****  */
 290:/home/torbjorn/eclipse-workspace/CoreNG/asf/sam/drivers/xdmac/xdmac.h **** static inline uint32_t xdmac_get_config(Xdmac *xdmac)
 291:/home/torbjorn/eclipse-workspace/CoreNG/asf/sam/drivers/xdmac/xdmac.h **** {
 292:/home/torbjorn/eclipse-workspace/CoreNG/asf/sam/drivers/xdmac/xdmac.h **** 	Assert(xdmac);
 293:/home/torbjorn/eclipse-workspace/CoreNG/asf/sam/drivers/xdmac/xdmac.h **** 	return xdmac->XDMAC_GCFG;
 294:/home/torbjorn/eclipse-workspace/CoreNG/asf/sam/drivers/xdmac/xdmac.h **** }
 295:/home/torbjorn/eclipse-workspace/CoreNG/asf/sam/drivers/xdmac/xdmac.h **** 
 296:/home/torbjorn/eclipse-workspace/CoreNG/asf/sam/drivers/xdmac/xdmac.h **** /**
 297:/home/torbjorn/eclipse-workspace/CoreNG/asf/sam/drivers/xdmac/xdmac.h ****  * \brief Get XDMAC global weighted arbiter configuration.
 298:/home/torbjorn/eclipse-workspace/CoreNG/asf/sam/drivers/xdmac/xdmac.h ****  *
 299:/home/torbjorn/eclipse-workspace/CoreNG/asf/sam/drivers/xdmac/xdmac.h ****  * \param[out] xdmac Module hardware register base address pointer.
 300:/home/torbjorn/eclipse-workspace/CoreNG/asf/sam/drivers/xdmac/xdmac.h ****  */
 301:/home/torbjorn/eclipse-workspace/CoreNG/asf/sam/drivers/xdmac/xdmac.h **** static inline uint32_t xdmac_get_arbiter(Xdmac *xdmac)
 302:/home/torbjorn/eclipse-workspace/CoreNG/asf/sam/drivers/xdmac/xdmac.h **** {
 303:/home/torbjorn/eclipse-workspace/CoreNG/asf/sam/drivers/xdmac/xdmac.h **** 	Assert(xdmac);
 304:/home/torbjorn/eclipse-workspace/CoreNG/asf/sam/drivers/xdmac/xdmac.h **** 	return xdmac->XDMAC_GWAC;
 305:/home/torbjorn/eclipse-workspace/CoreNG/asf/sam/drivers/xdmac/xdmac.h **** }
 306:/home/torbjorn/eclipse-workspace/CoreNG/asf/sam/drivers/xdmac/xdmac.h **** 
 307:/home/torbjorn/eclipse-workspace/CoreNG/asf/sam/drivers/xdmac/xdmac.h **** /**
 308:/home/torbjorn/eclipse-workspace/CoreNG/asf/sam/drivers/xdmac/xdmac.h ****  * \brief Enables XDMAC global interrupt.
 309:/home/torbjorn/eclipse-workspace/CoreNG/asf/sam/drivers/xdmac/xdmac.h ****  *
 310:/home/torbjorn/eclipse-workspace/CoreNG/asf/sam/drivers/xdmac/xdmac.h ****  * \param[out] xdmac Module hardware register base address pointer.
 311:/home/torbjorn/eclipse-workspace/CoreNG/asf/sam/drivers/xdmac/xdmac.h ****  * \param[in] channel_num  XDMA Channel number (range 0 to 23).
 312:/home/torbjorn/eclipse-workspace/CoreNG/asf/sam/drivers/xdmac/xdmac.h ****  */
 313:/home/torbjorn/eclipse-workspace/CoreNG/asf/sam/drivers/xdmac/xdmac.h **** static inline void xdmac_enable_interrupt(Xdmac *xdmac, uint32_t channel_num)
 314:/home/torbjorn/eclipse-workspace/CoreNG/asf/sam/drivers/xdmac/xdmac.h **** {
 315:/home/torbjorn/eclipse-workspace/CoreNG/asf/sam/drivers/xdmac/xdmac.h **** 	Assert(xdmac);
 316:/home/torbjorn/eclipse-workspace/CoreNG/asf/sam/drivers/xdmac/xdmac.h **** 	xdmac->XDMAC_GIE = ( XDMAC_GIE_IE0 << channel_num) ;
 317:/home/torbjorn/eclipse-workspace/CoreNG/asf/sam/drivers/xdmac/xdmac.h **** }
 318:/home/torbjorn/eclipse-workspace/CoreNG/asf/sam/drivers/xdmac/xdmac.h **** 
 319:/home/torbjorn/eclipse-workspace/CoreNG/asf/sam/drivers/xdmac/xdmac.h **** /**
 320:/home/torbjorn/eclipse-workspace/CoreNG/asf/sam/drivers/xdmac/xdmac.h ****  * \brief Disables XDMAC global interrupt
 321:/home/torbjorn/eclipse-workspace/CoreNG/asf/sam/drivers/xdmac/xdmac.h ****  *
 322:/home/torbjorn/eclipse-workspace/CoreNG/asf/sam/drivers/xdmac/xdmac.h ****  * \param[out] xdmac Module hardware register base address pointer.
 323:/home/torbjorn/eclipse-workspace/CoreNG/asf/sam/drivers/xdmac/xdmac.h ****  * \param[in] channel_num  XDMA Channel number (range 0 to 23).
 324:/home/torbjorn/eclipse-workspace/CoreNG/asf/sam/drivers/xdmac/xdmac.h ****  */
 325:/home/torbjorn/eclipse-workspace/CoreNG/asf/sam/drivers/xdmac/xdmac.h **** static inline void xdmac_disable_interrupt(Xdmac *xdmac, uint32_t channel_num)
 326:/home/torbjorn/eclipse-workspace/CoreNG/asf/sam/drivers/xdmac/xdmac.h **** {
 327:/home/torbjorn/eclipse-workspace/CoreNG/asf/sam/drivers/xdmac/xdmac.h **** 	Assert(xdmac);
ARM GAS  /tmp/cc9w1cGI.s 			page 55


 328:/home/torbjorn/eclipse-workspace/CoreNG/asf/sam/drivers/xdmac/xdmac.h **** 	xdmac->XDMAC_GID = (XDMAC_GID_ID0 << channel_num);
 329:/home/torbjorn/eclipse-workspace/CoreNG/asf/sam/drivers/xdmac/xdmac.h **** }
 330:/home/torbjorn/eclipse-workspace/CoreNG/asf/sam/drivers/xdmac/xdmac.h **** 
 331:/home/torbjorn/eclipse-workspace/CoreNG/asf/sam/drivers/xdmac/xdmac.h **** /**
 332:/home/torbjorn/eclipse-workspace/CoreNG/asf/sam/drivers/xdmac/xdmac.h ****  * \brief Get XDMAC global interrupt mask.
 333:/home/torbjorn/eclipse-workspace/CoreNG/asf/sam/drivers/xdmac/xdmac.h ****  *
 334:/home/torbjorn/eclipse-workspace/CoreNG/asf/sam/drivers/xdmac/xdmac.h ****  * \param[out] xdmac Module hardware register base address pointer.
 335:/home/torbjorn/eclipse-workspace/CoreNG/asf/sam/drivers/xdmac/xdmac.h ****  */
 336:/home/torbjorn/eclipse-workspace/CoreNG/asf/sam/drivers/xdmac/xdmac.h **** static inline uint32_t xdmac_get_interrupt_mask(Xdmac *xdmac)
 337:/home/torbjorn/eclipse-workspace/CoreNG/asf/sam/drivers/xdmac/xdmac.h **** {
 338:/home/torbjorn/eclipse-workspace/CoreNG/asf/sam/drivers/xdmac/xdmac.h **** 	Assert(xdmac);
 339:/home/torbjorn/eclipse-workspace/CoreNG/asf/sam/drivers/xdmac/xdmac.h **** 	return (xdmac->XDMAC_GIM);
 340:/home/torbjorn/eclipse-workspace/CoreNG/asf/sam/drivers/xdmac/xdmac.h **** }
 341:/home/torbjorn/eclipse-workspace/CoreNG/asf/sam/drivers/xdmac/xdmac.h **** 
 342:/home/torbjorn/eclipse-workspace/CoreNG/asf/sam/drivers/xdmac/xdmac.h **** /**
 343:/home/torbjorn/eclipse-workspace/CoreNG/asf/sam/drivers/xdmac/xdmac.h ****  * \brief Get XDMAC global interrupt status.
 344:/home/torbjorn/eclipse-workspace/CoreNG/asf/sam/drivers/xdmac/xdmac.h ****  *
 345:/home/torbjorn/eclipse-workspace/CoreNG/asf/sam/drivers/xdmac/xdmac.h ****  * \param[out] xdmac Module hardware register base address pointer.
 346:/home/torbjorn/eclipse-workspace/CoreNG/asf/sam/drivers/xdmac/xdmac.h ****  */
 347:/home/torbjorn/eclipse-workspace/CoreNG/asf/sam/drivers/xdmac/xdmac.h **** static inline uint32_t xdmac_get_interrupt_status(Xdmac *xdmac)
 348:/home/torbjorn/eclipse-workspace/CoreNG/asf/sam/drivers/xdmac/xdmac.h **** {
 349:/home/torbjorn/eclipse-workspace/CoreNG/asf/sam/drivers/xdmac/xdmac.h **** 	Assert(xdmac);
 350:/home/torbjorn/eclipse-workspace/CoreNG/asf/sam/drivers/xdmac/xdmac.h **** 	return (xdmac->XDMAC_GIS);
 351:/home/torbjorn/eclipse-workspace/CoreNG/asf/sam/drivers/xdmac/xdmac.h **** }
 352:/home/torbjorn/eclipse-workspace/CoreNG/asf/sam/drivers/xdmac/xdmac.h **** 
 353:/home/torbjorn/eclipse-workspace/CoreNG/asf/sam/drivers/xdmac/xdmac.h **** /**
 354:/home/torbjorn/eclipse-workspace/CoreNG/asf/sam/drivers/xdmac/xdmac.h ****  * \brief enables the relevant channel of given XDMAC.
 355:/home/torbjorn/eclipse-workspace/CoreNG/asf/sam/drivers/xdmac/xdmac.h ****  *
 356:/home/torbjorn/eclipse-workspace/CoreNG/asf/sam/drivers/xdmac/xdmac.h ****  * \param[out] xdmac Module hardware register base address pointer.
 357:/home/torbjorn/eclipse-workspace/CoreNG/asf/sam/drivers/xdmac/xdmac.h ****  * \param[in]  channel_num  XDMA Channel number (range 0 to 23)
 358:/home/torbjorn/eclipse-workspace/CoreNG/asf/sam/drivers/xdmac/xdmac.h ****  */
 359:/home/torbjorn/eclipse-workspace/CoreNG/asf/sam/drivers/xdmac/xdmac.h **** static inline void xdmac_channel_enable(Xdmac *xdmac, uint32_t channel_num)
 360:/home/torbjorn/eclipse-workspace/CoreNG/asf/sam/drivers/xdmac/xdmac.h **** {
 361:/home/torbjorn/eclipse-workspace/CoreNG/asf/sam/drivers/xdmac/xdmac.h **** 	Assert(xdmac);
 362:/home/torbjorn/eclipse-workspace/CoreNG/asf/sam/drivers/xdmac/xdmac.h **** 	Assert(channel_num < XDMACCHID_NUMBER);
 363:/home/torbjorn/eclipse-workspace/CoreNG/asf/sam/drivers/xdmac/xdmac.h **** 	
 364:/home/torbjorn/eclipse-workspace/CoreNG/asf/sam/drivers/xdmac/xdmac.h **** #if 0	// chrishamm: This causes occasional hard faults. Not good
 365:/home/torbjorn/eclipse-workspace/CoreNG/asf/sam/drivers/xdmac/xdmac.h **** 	/* Update DCache before DMA transmit */
 366:/home/torbjorn/eclipse-workspace/CoreNG/asf/sam/drivers/xdmac/xdmac.h **** 	SCB_CleanInvalidateDCache();
 367:/home/torbjorn/eclipse-workspace/CoreNG/asf/sam/drivers/xdmac/xdmac.h **** #endif
 368:/home/torbjorn/eclipse-workspace/CoreNG/asf/sam/drivers/xdmac/xdmac.h **** 	
 369:/home/torbjorn/eclipse-workspace/CoreNG/asf/sam/drivers/xdmac/xdmac.h **** 	xdmac->XDMAC_GE = (XDMAC_GE_EN0 << channel_num);
 370:/home/torbjorn/eclipse-workspace/CoreNG/asf/sam/drivers/xdmac/xdmac.h **** }
 371:/home/torbjorn/eclipse-workspace/CoreNG/asf/sam/drivers/xdmac/xdmac.h **** 
 372:/home/torbjorn/eclipse-workspace/CoreNG/asf/sam/drivers/xdmac/xdmac.h **** /**
 373:/home/torbjorn/eclipse-workspace/CoreNG/asf/sam/drivers/xdmac/xdmac.h ****  * \brief Disables the relevant channel of given XDMAC.
 374:/home/torbjorn/eclipse-workspace/CoreNG/asf/sam/drivers/xdmac/xdmac.h ****  *
 375:/home/torbjorn/eclipse-workspace/CoreNG/asf/sam/drivers/xdmac/xdmac.h ****  * \param[out] xdmac Module hardware register base address pointer.
 376:/home/torbjorn/eclipse-workspace/CoreNG/asf/sam/drivers/xdmac/xdmac.h ****  * \param[in]  channel_num  XDMA Channel number (range 0 to 23)
 377:/home/torbjorn/eclipse-workspace/CoreNG/asf/sam/drivers/xdmac/xdmac.h ****  */
 378:/home/torbjorn/eclipse-workspace/CoreNG/asf/sam/drivers/xdmac/xdmac.h **** static inline void xdmac_channel_disable(Xdmac *xdmac, uint32_t channel_num)
 379:/home/torbjorn/eclipse-workspace/CoreNG/asf/sam/drivers/xdmac/xdmac.h **** {
 380:/home/torbjorn/eclipse-workspace/CoreNG/asf/sam/drivers/xdmac/xdmac.h **** 	Assert(xdmac);
 381:/home/torbjorn/eclipse-workspace/CoreNG/asf/sam/drivers/xdmac/xdmac.h **** 	Assert(channel_num < XDMACCHID_NUMBER);
 382:/home/torbjorn/eclipse-workspace/CoreNG/asf/sam/drivers/xdmac/xdmac.h **** 	xdmac->XDMAC_GD =(XDMAC_GD_DI0 << channel_num);
 1492              		.loc 2 382 0
 1493 0014 174A     		ldr	r2, .L160+4
ARM GAS  /tmp/cc9w1cGI.s 			page 56


 1494 0016 0121     		movs	r1, #1
 1495              	.LBE98:
 1496              	.LBE97:
 1497              		.loc 1 1024 0
 1498 0018 1B88     		ldrh	r3, [r3]
 1499              	.LBB100:
 1500              	.LBB99:
 1501              		.loc 2 382 0
 1502 001a 1162     		str	r1, [r2, #32]
 1503              	.LVL167:
 1504              	.LBE99:
 1505              	.LBE100:
 1506              		.loc 1 1024 0
 1507 001c 04FB03F4 		mul	r4, r4, r3
 1508              	.LVL168:
1025:../asf/sam/drivers/hsmci/hsmci.c **** 
1026:../asf/sam/drivers/hsmci/hsmci.c **** 	if((uint32_t)dest & 3) {
 1509              		.loc 1 1026 0
 1510 0020 B307     		lsls	r3, r6, #30
 1511 0022 1AD1     		bne	.L159
1027:../asf/sam/drivers/hsmci/hsmci.c **** 		p_cfg.mbr_cfg = XDMAC_CC_TYPE_PER_TRAN
1028:../asf/sam/drivers/hsmci/hsmci.c **** 						| XDMAC_CC_MBSIZE_SINGLE
1029:../asf/sam/drivers/hsmci/hsmci.c **** 						| XDMAC_CC_DSYNC_PER2MEM
1030:../asf/sam/drivers/hsmci/hsmci.c **** 						| XDMAC_CC_CSIZE_CHK_1
1031:../asf/sam/drivers/hsmci/hsmci.c **** 						| XDMAC_CC_DWIDTH_BYTE
1032:../asf/sam/drivers/hsmci/hsmci.c **** 						| XDMAC_CC_SIF_AHB_IF1
1033:../asf/sam/drivers/hsmci/hsmci.c **** 						| XDMAC_CC_DIF_AHB_IF0
1034:../asf/sam/drivers/hsmci/hsmci.c **** 						| XDMAC_CC_SAM_FIXED_AM
1035:../asf/sam/drivers/hsmci/hsmci.c **** 						| XDMAC_CC_DAM_INCREMENTED_AM
1036:../asf/sam/drivers/hsmci/hsmci.c **** 						| XDMAC_CC_PERID(CONF_HSMCI_XDMAC_CHANNEL);
1037:../asf/sam/drivers/hsmci/hsmci.c **** 		p_cfg.mbr_ubc = nb_data;
1038:../asf/sam/drivers/hsmci/hsmci.c **** 		HSMCI->HSMCI_MR |= HSMCI_MR_FBYTE;
1039:../asf/sam/drivers/hsmci/hsmci.c **** 	} else {
1040:../asf/sam/drivers/hsmci/hsmci.c **** 		p_cfg.mbr_cfg = XDMAC_CC_TYPE_PER_TRAN
1041:../asf/sam/drivers/hsmci/hsmci.c **** 						| XDMAC_CC_MBSIZE_SINGLE
1042:../asf/sam/drivers/hsmci/hsmci.c **** 						| XDMAC_CC_DSYNC_PER2MEM
1043:../asf/sam/drivers/hsmci/hsmci.c **** 						| XDMAC_CC_CSIZE_CHK_1
1044:../asf/sam/drivers/hsmci/hsmci.c **** 						| XDMAC_CC_DWIDTH_WORD
1045:../asf/sam/drivers/hsmci/hsmci.c **** 						| XDMAC_CC_SIF_AHB_IF1
1046:../asf/sam/drivers/hsmci/hsmci.c **** 						| XDMAC_CC_DIF_AHB_IF0
1047:../asf/sam/drivers/hsmci/hsmci.c **** 						| XDMAC_CC_SAM_FIXED_AM
1048:../asf/sam/drivers/hsmci/hsmci.c **** 						| XDMAC_CC_DAM_INCREMENTED_AM
1049:../asf/sam/drivers/hsmci/hsmci.c **** 						| XDMAC_CC_PERID(CONF_HSMCI_XDMAC_CHANNEL);
1050:../asf/sam/drivers/hsmci/hsmci.c **** 		p_cfg.mbr_ubc = nb_data / 4;
 1512              		.loc 1 1050 0
 1513 0024 A308     		lsrs	r3, r4, #2
1051:../asf/sam/drivers/hsmci/hsmci.c **** 		HSMCI->HSMCI_MR &= ~HSMCI_MR_FBYTE;
 1514              		.loc 1 1051 0
 1515 0026 4FF08042 		mov	r2, #1073741824
1040:../asf/sam/drivers/hsmci/hsmci.c **** 						| XDMAC_CC_MBSIZE_SINGLE
 1516              		.loc 1 1040 0
 1517 002a 1349     		ldr	r1, .L160+8
1050:../asf/sam/drivers/hsmci/hsmci.c **** 		HSMCI->HSMCI_MR &= ~HSMCI_MR_FBYTE;
 1518              		.loc 1 1050 0
 1519 002c 0093     		str	r3, [sp]
1040:../asf/sam/drivers/hsmci/hsmci.c **** 						| XDMAC_CC_MBSIZE_SINGLE
 1520              		.loc 1 1040 0
ARM GAS  /tmp/cc9w1cGI.s 			page 57


 1521 002e 0391     		str	r1, [sp, #12]
 1522              		.loc 1 1051 0
 1523 0030 5368     		ldr	r3, [r2, #4]
 1524 0032 23F40053 		bic	r3, r3, #8192
 1525 0036 5360     		str	r3, [r2, #4]
 1526              	.L157:
1052:../asf/sam/drivers/hsmci/hsmci.c **** 	}
1053:../asf/sam/drivers/hsmci/hsmci.c **** 	p_cfg.mbr_sa = (uint32_t)&(HSMCI->HSMCI_FIFO[0]);
1054:../asf/sam/drivers/hsmci/hsmci.c **** 	p_cfg.mbr_da = (uint32_t)dest;
1055:../asf/sam/drivers/hsmci/hsmci.c **** 	xdmac_configure_transfer(XDMAC, CONF_HSMCI_XDMAC_CHANNEL, &p_cfg);
 1527              		.loc 1 1055 0
 1528 0038 0E4D     		ldr	r5, .L160+4
 1529 003a 6A46     		mov	r2, sp
1053:../asf/sam/drivers/hsmci/hsmci.c **** 	p_cfg.mbr_da = (uint32_t)dest;
 1530              		.loc 1 1053 0
 1531 003c 0F4B     		ldr	r3, .L160+12
 1532              		.loc 1 1055 0
 1533 003e 0021     		movs	r1, #0
 1534 0040 2846     		mov	r0, r5
1054:../asf/sam/drivers/hsmci/hsmci.c **** 	xdmac_configure_transfer(XDMAC, CONF_HSMCI_XDMAC_CHANNEL, &p_cfg);
 1535              		.loc 1 1054 0
 1536 0042 0296     		str	r6, [sp, #8]
1053:../asf/sam/drivers/hsmci/hsmci.c **** 	p_cfg.mbr_da = (uint32_t)dest;
 1537              		.loc 1 1053 0
 1538 0044 0193     		str	r3, [sp, #4]
 1539              		.loc 1 1055 0
 1540 0046 FFF7FEFF 		bl	xdmac_configure_transfer
 1541              	.LVL169:
 1542              	.LBB101:
 1543              	.LBB102:
 369:/home/torbjorn/eclipse-workspace/CoreNG/asf/sam/drivers/xdmac/xdmac.h **** }
 1544              		.loc 2 369 0
 1545 004a 0120     		movs	r0, #1
 1546              	.LBE102:
 1547              	.LBE101:
1056:../asf/sam/drivers/hsmci/hsmci.c **** 	xdmac_channel_enable(XDMAC, CONF_HSMCI_XDMAC_CHANNEL);
1057:../asf/sam/drivers/hsmci/hsmci.c **** 	hsmci_transfert_pos += nb_data;
 1548              		.loc 1 1057 0
 1549 004c 0C4A     		ldr	r2, .L160+16
 1550              	.LBB104:
 1551              	.LBB103:
 369:/home/torbjorn/eclipse-workspace/CoreNG/asf/sam/drivers/xdmac/xdmac.h **** }
 1552              		.loc 2 369 0
 1553 004e E861     		str	r0, [r5, #28]
 1554              	.LVL170:
 1555              	.LBE103:
 1556              	.LBE104:
 1557              		.loc 1 1057 0
 1558 0050 1368     		ldr	r3, [r2]
 1559 0052 1C44     		add	r4, r4, r3
 1560              	.LVL171:
 1561 0054 1460     		str	r4, [r2]
1058:../asf/sam/drivers/hsmci/hsmci.c **** 	return true;
1059:../asf/sam/drivers/hsmci/hsmci.c **** }
 1562              		.loc 1 1059 0
 1563 0056 08B0     		add	sp, sp, #32
 1564              		.cfi_remember_state
ARM GAS  /tmp/cc9w1cGI.s 			page 58


 1565              		.cfi_def_cfa_offset 16
 1566              		@ sp needed
 1567 0058 70BD     		pop	{r4, r5, r6, pc}
 1568              	.LVL172:
 1569              	.L159:
 1570              		.cfi_restore_state
1027:../asf/sam/drivers/hsmci/hsmci.c **** 						| XDMAC_CC_MBSIZE_SINGLE
 1571              		.loc 1 1027 0
 1572 005a 0A4B     		ldr	r3, .L160+20
1038:../asf/sam/drivers/hsmci/hsmci.c **** 	} else {
 1573              		.loc 1 1038 0
 1574 005c 4FF08042 		mov	r2, #1073741824
1037:../asf/sam/drivers/hsmci/hsmci.c **** 		HSMCI->HSMCI_MR |= HSMCI_MR_FBYTE;
 1575              		.loc 1 1037 0
 1576 0060 0094     		str	r4, [sp]
1027:../asf/sam/drivers/hsmci/hsmci.c **** 						| XDMAC_CC_MBSIZE_SINGLE
 1577              		.loc 1 1027 0
 1578 0062 0393     		str	r3, [sp, #12]
1038:../asf/sam/drivers/hsmci/hsmci.c **** 	} else {
 1579              		.loc 1 1038 0
 1580 0064 5368     		ldr	r3, [r2, #4]
 1581 0066 43F40053 		orr	r3, r3, #8192
 1582 006a 5360     		str	r3, [r2, #4]
 1583 006c E4E7     		b	.L157
 1584              	.L161:
 1585 006e 00BF     		.align	2
 1586              	.L160:
 1587 0070 00000000 		.word	.LANCHOR2
 1588 0074 00800740 		.word	1074233344
 1589 0078 01300400 		.word	274433
 1590 007c 00020040 		.word	1073742336
 1591 0080 00000000 		.word	.LANCHOR1
 1592 0084 01200400 		.word	270337
 1593              		.cfi_endproc
 1594              	.LFE213:
 1595              		.size	hsmci_start_read_blocks, .-hsmci_start_read_blocks
 1596              		.section	.text.hsmci_start_write_blocks,"ax",%progbits
 1597              		.align	1
 1598              		.p2align 2,,3
 1599              		.global	hsmci_start_write_blocks
 1600              		.syntax unified
 1601              		.thumb
 1602              		.thumb_func
 1603              		.fpu fpv5-d16
 1604              		.type	hsmci_start_write_blocks, %function
 1605              	hsmci_start_write_blocks:
 1606              	.LFB215:
1060:../asf/sam/drivers/hsmci/hsmci.c **** 
1061:../asf/sam/drivers/hsmci/hsmci.c **** bool hsmci_wait_end_of_read_blocks(void)
1062:../asf/sam/drivers/hsmci/hsmci.c **** {
1063:../asf/sam/drivers/hsmci/hsmci.c **** 	uint32_t sr;
1064:../asf/sam/drivers/hsmci/hsmci.c **** 	uint32_t dma_sr;
1065:../asf/sam/drivers/hsmci/hsmci.c **** 	// Wait end of transfer
1066:../asf/sam/drivers/hsmci/hsmci.c **** 	// Note: no need of timeout, because it is include in HSMCI
1067:../asf/sam/drivers/hsmci/hsmci.c **** 	do {
1068:../asf/sam/drivers/hsmci/hsmci.c **** #if 1  // dc42 changes
1069:../asf/sam/drivers/hsmci/hsmci.c **** 		const bool checkDmaEnded = (uint32_t)hsmci_block_size * hsmci_nb_block > hsmci_transfert_pos;
ARM GAS  /tmp/cc9w1cGI.s 			page 59


1070:../asf/sam/drivers/hsmci/hsmci.c **** 		if (hsmciIdleFunc != NULL)
1071:../asf/sam/drivers/hsmci/hsmci.c **** 		{
1072:../asf/sam/drivers/hsmci/hsmci.c **** 			hsmciIdleFunc(HSMCI_SR_UNRE | HSMCI_SR_OVRE | HSMCI_SR_DTOE | HSMCI_SR_DCRCE | HSMCI_SR_XFRDONE,
1073:../asf/sam/drivers/hsmci/hsmci.c **** 		}
1074:../asf/sam/drivers/hsmci/hsmci.c **** #endif
1075:../asf/sam/drivers/hsmci/hsmci.c **** 		sr = HSMCI->HSMCI_SR;
1076:../asf/sam/drivers/hsmci/hsmci.c **** 		if (sr & (HSMCI_SR_UNRE | HSMCI_SR_OVRE | \
1077:../asf/sam/drivers/hsmci/hsmci.c **** 				HSMCI_SR_DTOE | HSMCI_SR_DCRCE)) {
1078:../asf/sam/drivers/hsmci/hsmci.c **** 			hsmci_debug("%s: DMA sr 0x%08x error\n\r",
1079:../asf/sam/drivers/hsmci/hsmci.c **** 					__func__, sr);
1080:../asf/sam/drivers/hsmci/hsmci.c **** 			hsmci_reset();
1081:../asf/sam/drivers/hsmci/hsmci.c **** 			// Disable XDMAC
1082:../asf/sam/drivers/hsmci/hsmci.c **** 			xdmac_channel_disable(XDMAC, CONF_HSMCI_XDMAC_CHANNEL);
1083:../asf/sam/drivers/hsmci/hsmci.c **** 			return false;
1084:../asf/sam/drivers/hsmci/hsmci.c **** 		}
1085:../asf/sam/drivers/hsmci/hsmci.c **** #if 1	// dc42
1086:../asf/sam/drivers/hsmci/hsmci.c **** 		if (checkDmaEnded)
1087:../asf/sam/drivers/hsmci/hsmci.c **** 		{
1088:../asf/sam/drivers/hsmci/hsmci.c **** #else
1089:../asf/sam/drivers/hsmci/hsmci.c **** 		if (((uint32_t)hsmci_block_size * hsmci_nb_block) > hsmci_transfert_pos) {
1090:../asf/sam/drivers/hsmci/hsmci.c **** #endif
1091:../asf/sam/drivers/hsmci/hsmci.c **** 			// It is not the end of all transfers
1092:../asf/sam/drivers/hsmci/hsmci.c **** 			// then just wait end of DMA
1093:../asf/sam/drivers/hsmci/hsmci.c **** 			dma_sr = xdmac_channel_get_interrupt_status(XDMAC, CONF_HSMCI_XDMAC_CHANNEL);
1094:../asf/sam/drivers/hsmci/hsmci.c **** 			if (dma_sr & XDMAC_CIS_BIS) {
1095:../asf/sam/drivers/hsmci/hsmci.c **** 				return true;
1096:../asf/sam/drivers/hsmci/hsmci.c **** 			}
1097:../asf/sam/drivers/hsmci/hsmci.c **** 		}
1098:../asf/sam/drivers/hsmci/hsmci.c **** 	} while (!(sr & HSMCI_SR_XFRDONE));
1099:../asf/sam/drivers/hsmci/hsmci.c **** 	return true;
1100:../asf/sam/drivers/hsmci/hsmci.c **** }
1101:../asf/sam/drivers/hsmci/hsmci.c **** 
1102:../asf/sam/drivers/hsmci/hsmci.c **** bool hsmci_start_write_blocks(const void *src, uint16_t nb_block)
1103:../asf/sam/drivers/hsmci/hsmci.c **** {
 1607              		.loc 1 1103 0
 1608              		.cfi_startproc
 1609              		@ args = 0, pretend = 0, frame = 32
 1610              		@ frame_needed = 0, uses_anonymous_args = 0
 1611              	.LVL173:
 1612 0000 70B5     		push	{r4, r5, r6, lr}
 1613              		.cfi_def_cfa_offset 16
 1614              		.cfi_offset 4, -16
 1615              		.cfi_offset 5, -12
 1616              		.cfi_offset 6, -8
 1617              		.cfi_offset 14, -4
 1618 0002 88B0     		sub	sp, sp, #32
 1619              		.cfi_def_cfa_offset 48
 1620              		.loc 1 1103 0
 1621 0004 0646     		mov	r6, r0
 1622 0006 0C46     		mov	r4, r1
1104:../asf/sam/drivers/hsmci/hsmci.c **** 	xdmac_channel_config_t p_cfg = {0, 0, 0, 0, 0, 0, 0, 0};
 1623              		.loc 1 1104 0
 1624 0008 2022     		movs	r2, #32
 1625 000a 0021     		movs	r1, #0
 1626              	.LVL174:
 1627 000c 6846     		mov	r0, sp
 1628              	.LVL175:
ARM GAS  /tmp/cc9w1cGI.s 			page 60


 1629 000e FFF7FEFF 		bl	memset
 1630              	.LVL176:
1105:../asf/sam/drivers/hsmci/hsmci.c **** 	uint32_t nb_data;
1106:../asf/sam/drivers/hsmci/hsmci.c **** 
1107:../asf/sam/drivers/hsmci/hsmci.c **** 	Assert(nb_block);
1108:../asf/sam/drivers/hsmci/hsmci.c **** 	Assert(dest);
1109:../asf/sam/drivers/hsmci/hsmci.c **** 
1110:../asf/sam/drivers/hsmci/hsmci.c **** 	xdmac_channel_disable(XDMAC, CONF_HSMCI_XDMAC_CHANNEL);
1111:../asf/sam/drivers/hsmci/hsmci.c **** 
1112:../asf/sam/drivers/hsmci/hsmci.c **** 	nb_data = nb_block * hsmci_block_size;
 1631              		.loc 1 1112 0
 1632 0012 174B     		ldr	r3, .L167
 1633              	.LBB105:
 1634              	.LBB106:
 1635              		.loc 2 382 0
 1636 0014 174A     		ldr	r2, .L167+4
 1637 0016 0121     		movs	r1, #1
 1638              	.LBE106:
 1639              	.LBE105:
 1640              		.loc 1 1112 0
 1641 0018 1B88     		ldrh	r3, [r3]
 1642              	.LBB108:
 1643              	.LBB107:
 1644              		.loc 2 382 0
 1645 001a 1162     		str	r1, [r2, #32]
 1646              	.LVL177:
 1647              	.LBE107:
 1648              	.LBE108:
 1649              		.loc 1 1112 0
 1650 001c 04FB03F4 		mul	r4, r4, r3
 1651              	.LVL178:
1113:../asf/sam/drivers/hsmci/hsmci.c **** 
1114:../asf/sam/drivers/hsmci/hsmci.c **** 	if((uint32_t)src & 3) {
 1652              		.loc 1 1114 0
 1653 0020 B307     		lsls	r3, r6, #30
 1654 0022 1AD1     		bne	.L166
1115:../asf/sam/drivers/hsmci/hsmci.c **** 		p_cfg.mbr_cfg = XDMAC_CC_TYPE_PER_TRAN
1116:../asf/sam/drivers/hsmci/hsmci.c **** 						| XDMAC_CC_MBSIZE_SINGLE
1117:../asf/sam/drivers/hsmci/hsmci.c **** 						| XDMAC_CC_DSYNC_MEM2PER
1118:../asf/sam/drivers/hsmci/hsmci.c **** 						| XDMAC_CC_CSIZE_CHK_1
1119:../asf/sam/drivers/hsmci/hsmci.c **** 						| XDMAC_CC_DWIDTH_BYTE
1120:../asf/sam/drivers/hsmci/hsmci.c **** 						| XDMAC_CC_SIF_AHB_IF0
1121:../asf/sam/drivers/hsmci/hsmci.c **** 						| XDMAC_CC_DIF_AHB_IF1
1122:../asf/sam/drivers/hsmci/hsmci.c **** 						| XDMAC_CC_SAM_INCREMENTED_AM
1123:../asf/sam/drivers/hsmci/hsmci.c **** 						| XDMAC_CC_DAM_FIXED_AM
1124:../asf/sam/drivers/hsmci/hsmci.c **** 						| XDMAC_CC_PERID(CONF_HSMCI_XDMAC_CHANNEL);
1125:../asf/sam/drivers/hsmci/hsmci.c **** 		p_cfg.mbr_ubc = nb_data;
1126:../asf/sam/drivers/hsmci/hsmci.c **** 		HSMCI->HSMCI_MR |= HSMCI_MR_FBYTE;
1127:../asf/sam/drivers/hsmci/hsmci.c **** 	} else {
1128:../asf/sam/drivers/hsmci/hsmci.c **** 		p_cfg.mbr_cfg = XDMAC_CC_TYPE_PER_TRAN
1129:../asf/sam/drivers/hsmci/hsmci.c **** 						| XDMAC_CC_MBSIZE_SINGLE
1130:../asf/sam/drivers/hsmci/hsmci.c **** 						| XDMAC_CC_DSYNC_MEM2PER
1131:../asf/sam/drivers/hsmci/hsmci.c **** 						| XDMAC_CC_CSIZE_CHK_1
1132:../asf/sam/drivers/hsmci/hsmci.c **** 						| XDMAC_CC_DWIDTH_WORD
1133:../asf/sam/drivers/hsmci/hsmci.c **** 						| XDMAC_CC_SIF_AHB_IF0
1134:../asf/sam/drivers/hsmci/hsmci.c **** 						| XDMAC_CC_DIF_AHB_IF1
1135:../asf/sam/drivers/hsmci/hsmci.c **** 						| XDMAC_CC_SAM_INCREMENTED_AM
ARM GAS  /tmp/cc9w1cGI.s 			page 61


1136:../asf/sam/drivers/hsmci/hsmci.c **** 						| XDMAC_CC_DAM_FIXED_AM
1137:../asf/sam/drivers/hsmci/hsmci.c **** 						| XDMAC_CC_PERID(CONF_HSMCI_XDMAC_CHANNEL);
1138:../asf/sam/drivers/hsmci/hsmci.c **** 		p_cfg.mbr_ubc = nb_data / 4;
 1655              		.loc 1 1138 0
 1656 0024 A308     		lsrs	r3, r4, #2
1139:../asf/sam/drivers/hsmci/hsmci.c **** 		HSMCI->HSMCI_MR &= ~HSMCI_MR_FBYTE;
 1657              		.loc 1 1139 0
 1658 0026 4FF08042 		mov	r2, #1073741824
1128:../asf/sam/drivers/hsmci/hsmci.c **** 						| XDMAC_CC_MBSIZE_SINGLE
 1659              		.loc 1 1128 0
 1660 002a 1349     		ldr	r1, .L167+8
1138:../asf/sam/drivers/hsmci/hsmci.c **** 		HSMCI->HSMCI_MR &= ~HSMCI_MR_FBYTE;
 1661              		.loc 1 1138 0
 1662 002c 0093     		str	r3, [sp]
1128:../asf/sam/drivers/hsmci/hsmci.c **** 						| XDMAC_CC_MBSIZE_SINGLE
 1663              		.loc 1 1128 0
 1664 002e 0391     		str	r1, [sp, #12]
 1665              		.loc 1 1139 0
 1666 0030 5368     		ldr	r3, [r2, #4]
 1667 0032 23F40053 		bic	r3, r3, #8192
 1668 0036 5360     		str	r3, [r2, #4]
 1669              	.L164:
1140:../asf/sam/drivers/hsmci/hsmci.c **** 	}
1141:../asf/sam/drivers/hsmci/hsmci.c **** 	p_cfg.mbr_sa = (uint32_t)src;
1142:../asf/sam/drivers/hsmci/hsmci.c **** 	p_cfg.mbr_da = (uint32_t)&(HSMCI->HSMCI_FIFO[0]);
1143:../asf/sam/drivers/hsmci/hsmci.c **** 	xdmac_configure_transfer(XDMAC, CONF_HSMCI_XDMAC_CHANNEL, &p_cfg);
 1670              		.loc 1 1143 0
 1671 0038 0E4D     		ldr	r5, .L167+4
 1672 003a 6A46     		mov	r2, sp
1142:../asf/sam/drivers/hsmci/hsmci.c **** 	xdmac_configure_transfer(XDMAC, CONF_HSMCI_XDMAC_CHANNEL, &p_cfg);
 1673              		.loc 1 1142 0
 1674 003c 0F4B     		ldr	r3, .L167+12
 1675              		.loc 1 1143 0
 1676 003e 0021     		movs	r1, #0
 1677 0040 2846     		mov	r0, r5
1141:../asf/sam/drivers/hsmci/hsmci.c **** 	p_cfg.mbr_da = (uint32_t)&(HSMCI->HSMCI_FIFO[0]);
 1678              		.loc 1 1141 0
 1679 0042 0196     		str	r6, [sp, #4]
1142:../asf/sam/drivers/hsmci/hsmci.c **** 	xdmac_configure_transfer(XDMAC, CONF_HSMCI_XDMAC_CHANNEL, &p_cfg);
 1680              		.loc 1 1142 0
 1681 0044 0293     		str	r3, [sp, #8]
 1682              		.loc 1 1143 0
 1683 0046 FFF7FEFF 		bl	xdmac_configure_transfer
 1684              	.LVL179:
 1685              	.LBB109:
 1686              	.LBB110:
 369:/home/torbjorn/eclipse-workspace/CoreNG/asf/sam/drivers/xdmac/xdmac.h **** }
 1687              		.loc 2 369 0
 1688 004a 0120     		movs	r0, #1
 1689              	.LBE110:
 1690              	.LBE109:
1144:../asf/sam/drivers/hsmci/hsmci.c **** 	xdmac_channel_enable(XDMAC, CONF_HSMCI_XDMAC_CHANNEL);
1145:../asf/sam/drivers/hsmci/hsmci.c **** 	hsmci_transfert_pos += nb_data;
 1691              		.loc 1 1145 0
 1692 004c 0C4A     		ldr	r2, .L167+16
 1693              	.LBB112:
 1694              	.LBB111:
ARM GAS  /tmp/cc9w1cGI.s 			page 62


 369:/home/torbjorn/eclipse-workspace/CoreNG/asf/sam/drivers/xdmac/xdmac.h **** }
 1695              		.loc 2 369 0
 1696 004e E861     		str	r0, [r5, #28]
 1697              	.LVL180:
 1698              	.LBE111:
 1699              	.LBE112:
 1700              		.loc 1 1145 0
 1701 0050 1368     		ldr	r3, [r2]
 1702 0052 1C44     		add	r4, r4, r3
 1703              	.LVL181:
 1704 0054 1460     		str	r4, [r2]
1146:../asf/sam/drivers/hsmci/hsmci.c **** 	return true;
1147:../asf/sam/drivers/hsmci/hsmci.c **** }
 1705              		.loc 1 1147 0
 1706 0056 08B0     		add	sp, sp, #32
 1707              		.cfi_remember_state
 1708              		.cfi_def_cfa_offset 16
 1709              		@ sp needed
 1710 0058 70BD     		pop	{r4, r5, r6, pc}
 1711              	.LVL182:
 1712              	.L166:
 1713              		.cfi_restore_state
1115:../asf/sam/drivers/hsmci/hsmci.c **** 						| XDMAC_CC_MBSIZE_SINGLE
 1714              		.loc 1 1115 0
 1715 005a 0A4B     		ldr	r3, .L167+20
1126:../asf/sam/drivers/hsmci/hsmci.c **** 	} else {
 1716              		.loc 1 1126 0
 1717 005c 4FF08042 		mov	r2, #1073741824
1125:../asf/sam/drivers/hsmci/hsmci.c **** 		HSMCI->HSMCI_MR |= HSMCI_MR_FBYTE;
 1718              		.loc 1 1125 0
 1719 0060 0094     		str	r4, [sp]
1115:../asf/sam/drivers/hsmci/hsmci.c **** 						| XDMAC_CC_MBSIZE_SINGLE
 1720              		.loc 1 1115 0
 1721 0062 0393     		str	r3, [sp, #12]
1126:../asf/sam/drivers/hsmci/hsmci.c **** 	} else {
 1722              		.loc 1 1126 0
 1723 0064 5368     		ldr	r3, [r2, #4]
 1724 0066 43F40053 		orr	r3, r3, #8192
 1725 006a 5360     		str	r3, [r2, #4]
 1726 006c E4E7     		b	.L164
 1727              	.L168:
 1728 006e 00BF     		.align	2
 1729              	.L167:
 1730 0070 00000000 		.word	.LANCHOR2
 1731 0074 00800740 		.word	1074233344
 1732 0078 11500100 		.word	86033
 1733 007c 00020040 		.word	1073742336
 1734 0080 00000000 		.word	.LANCHOR1
 1735 0084 11400100 		.word	81937
 1736              		.cfi_endproc
 1737              	.LFE215:
 1738              		.size	hsmci_start_write_blocks, .-hsmci_start_write_blocks
 1739              		.section	.text.hsmci_wait_end_of_write_blocks,"ax",%progbits
 1740              		.align	1
 1741              		.p2align 2,,3
 1742              		.global	hsmci_wait_end_of_write_blocks
 1743              		.syntax unified
ARM GAS  /tmp/cc9w1cGI.s 			page 63


 1744              		.thumb
 1745              		.thumb_func
 1746              		.fpu fpv5-d16
 1747              		.type	hsmci_wait_end_of_write_blocks, %function
 1748              	hsmci_wait_end_of_write_blocks:
 1749              	.LFB216:
1148:../asf/sam/drivers/hsmci/hsmci.c **** 
1149:../asf/sam/drivers/hsmci/hsmci.c **** bool hsmci_wait_end_of_write_blocks(void)
1150:../asf/sam/drivers/hsmci/hsmci.c **** {
 1750              		.loc 1 1150 0
 1751              		.cfi_startproc
 1752              		@ args = 0, pretend = 0, frame = 0
 1753              		@ frame_needed = 0, uses_anonymous_args = 0
 1754 0000 2DE9F84F 		push	{r3, r4, r5, r6, r7, r8, r9, r10, fp, lr}
 1755              		.cfi_def_cfa_offset 40
 1756              		.cfi_offset 3, -40
 1757              		.cfi_offset 4, -36
 1758              		.cfi_offset 5, -32
 1759              		.cfi_offset 6, -28
 1760              		.cfi_offset 7, -24
 1761              		.cfi_offset 8, -20
 1762              		.cfi_offset 9, -16
 1763              		.cfi_offset 10, -12
 1764              		.cfi_offset 11, -8
 1765              		.cfi_offset 14, -4
 1766 0004 DFF894A0 		ldr	r10, .L182+16
 1767 0008 DFF89490 		ldr	r9, .L182+20
 1768 000c DFF89480 		ldr	r8, .L182+24
 1769 0010 1E4F     		ldr	r7, .L182
 1770              	.LBB113:
1151:../asf/sam/drivers/hsmci/hsmci.c **** 	uint32_t sr;
1152:../asf/sam/drivers/hsmci/hsmci.c **** 	uint32_t dma_sr;
1153:../asf/sam/drivers/hsmci/hsmci.c **** 	// Wait end of transfer
1154:../asf/sam/drivers/hsmci/hsmci.c **** 	// Note: no need of timeout, because it is include in HSMCI
1155:../asf/sam/drivers/hsmci/hsmci.c **** 	do {
1156:../asf/sam/drivers/hsmci/hsmci.c **** #if 1  // dc42 changes
1157:../asf/sam/drivers/hsmci/hsmci.c **** 		const bool checkDmaEnded = (uint32_t)hsmci_block_size * hsmci_nb_block > hsmci_transfert_pos;
1158:../asf/sam/drivers/hsmci/hsmci.c **** 		if (hsmciIdleFunc != NULL)
1159:../asf/sam/drivers/hsmci/hsmci.c **** 		{
1160:../asf/sam/drivers/hsmci/hsmci.c **** 			hsmciIdleFunc(HSMCI_SR_UNRE | HSMCI_SR_OVRE | HSMCI_SR_DTOE | HSMCI_SR_DCRCE | HSMCI_SR_XFRDONE,
 1771              		.loc 1 1160 0
 1772 0012 1F4E     		ldr	r6, .L182+4
1161:../asf/sam/drivers/hsmci/hsmci.c **** 		}
1162:../asf/sam/drivers/hsmci/hsmci.c **** #endif
1163:../asf/sam/drivers/hsmci/hsmci.c **** 		sr = HSMCI->HSMCI_SR;
1164:../asf/sam/drivers/hsmci/hsmci.c **** 		if (sr & (HSMCI_SR_UNRE | HSMCI_SR_OVRE | \
 1773              		.loc 1 1164 0
 1774 0014 1F4D     		ldr	r5, .L182+8
 1775 0016 07E0     		b	.L174
 1776              	.LVL183:
 1777              	.L171:
1165:../asf/sam/drivers/hsmci/hsmci.c **** 		HSMCI_SR_DTOE | HSMCI_SR_DCRCE)) {
1166:../asf/sam/drivers/hsmci/hsmci.c **** 			hsmci_debug("%s: DMA sr 0x%08x error\n\r",
1167:../asf/sam/drivers/hsmci/hsmci.c **** 			__func__, sr);
1168:../asf/sam/drivers/hsmci/hsmci.c **** 			hsmci_reset();
1169:../asf/sam/drivers/hsmci/hsmci.c **** 			// Disable XDMAC
1170:../asf/sam/drivers/hsmci/hsmci.c **** 			xdmac_channel_disable(XDMAC, CONF_HSMCI_XDMAC_CHANNEL);
ARM GAS  /tmp/cc9w1cGI.s 			page 64


1171:../asf/sam/drivers/hsmci/hsmci.c **** 			return false;
1172:../asf/sam/drivers/hsmci/hsmci.c **** 		}
1173:../asf/sam/drivers/hsmci/hsmci.c **** #if 1	// dc42
1174:../asf/sam/drivers/hsmci/hsmci.c **** 		if (checkDmaEnded)
 1778              		.loc 1 1174 0
 1779 0018 5C45     		cmp	r4, fp
 1780 001a 03D9     		bls	.L173
 1781              	.LBB114:
 1782              	.LBB115:
 383:/home/torbjorn/eclipse-workspace/CoreNG/asf/sam/drivers/xdmac/xdmac.h **** }
 384:/home/torbjorn/eclipse-workspace/CoreNG/asf/sam/drivers/xdmac/xdmac.h **** 
 385:/home/torbjorn/eclipse-workspace/CoreNG/asf/sam/drivers/xdmac/xdmac.h **** /**
 386:/home/torbjorn/eclipse-workspace/CoreNG/asf/sam/drivers/xdmac/xdmac.h ****  * \brief Get Global channel status of given XDMAC.
 387:/home/torbjorn/eclipse-workspace/CoreNG/asf/sam/drivers/xdmac/xdmac.h ****  * \note: When set to 1, this bit indicates that the channel x is enabled.
 388:/home/torbjorn/eclipse-workspace/CoreNG/asf/sam/drivers/xdmac/xdmac.h ****           If a channel disable request is issued, this bit remains asserted
 389:/home/torbjorn/eclipse-workspace/CoreNG/asf/sam/drivers/xdmac/xdmac.h ****           until pending transaction is completed.
 390:/home/torbjorn/eclipse-workspace/CoreNG/asf/sam/drivers/xdmac/xdmac.h ****  * \param[out] xdmac Module hardware register base address pointer.
 391:/home/torbjorn/eclipse-workspace/CoreNG/asf/sam/drivers/xdmac/xdmac.h ****  */
 392:/home/torbjorn/eclipse-workspace/CoreNG/asf/sam/drivers/xdmac/xdmac.h **** static inline uint32_t xdmac_channel_get_status(Xdmac *xdmac)
 393:/home/torbjorn/eclipse-workspace/CoreNG/asf/sam/drivers/xdmac/xdmac.h **** {
 394:/home/torbjorn/eclipse-workspace/CoreNG/asf/sam/drivers/xdmac/xdmac.h **** 	Assert(xdmac);
 395:/home/torbjorn/eclipse-workspace/CoreNG/asf/sam/drivers/xdmac/xdmac.h **** 	return xdmac->XDMAC_GS;
 396:/home/torbjorn/eclipse-workspace/CoreNG/asf/sam/drivers/xdmac/xdmac.h **** }
 397:/home/torbjorn/eclipse-workspace/CoreNG/asf/sam/drivers/xdmac/xdmac.h **** 
 398:/home/torbjorn/eclipse-workspace/CoreNG/asf/sam/drivers/xdmac/xdmac.h **** /**
 399:/home/torbjorn/eclipse-workspace/CoreNG/asf/sam/drivers/xdmac/xdmac.h ****  * \brief Suspend the relevant channel's read.
 400:/home/torbjorn/eclipse-workspace/CoreNG/asf/sam/drivers/xdmac/xdmac.h ****  *
 401:/home/torbjorn/eclipse-workspace/CoreNG/asf/sam/drivers/xdmac/xdmac.h ****  * \param[out] xdmac Module hardware register base address pointer.
 402:/home/torbjorn/eclipse-workspace/CoreNG/asf/sam/drivers/xdmac/xdmac.h ****  * \param[in] channel_num  XDMA Channel number (range 0 to 23).
 403:/home/torbjorn/eclipse-workspace/CoreNG/asf/sam/drivers/xdmac/xdmac.h ****  */
 404:/home/torbjorn/eclipse-workspace/CoreNG/asf/sam/drivers/xdmac/xdmac.h **** static inline void xdmac_channel_read_suspend(Xdmac *xdmac, uint32_t channel_num)
 405:/home/torbjorn/eclipse-workspace/CoreNG/asf/sam/drivers/xdmac/xdmac.h **** {
 406:/home/torbjorn/eclipse-workspace/CoreNG/asf/sam/drivers/xdmac/xdmac.h **** 	Assert(xdmac);
 407:/home/torbjorn/eclipse-workspace/CoreNG/asf/sam/drivers/xdmac/xdmac.h **** 	Assert(channel_num < XDMACCHID_NUMBER);
 408:/home/torbjorn/eclipse-workspace/CoreNG/asf/sam/drivers/xdmac/xdmac.h **** 	xdmac->XDMAC_GRS |= XDMAC_GRS_RS0 << channel_num;
 409:/home/torbjorn/eclipse-workspace/CoreNG/asf/sam/drivers/xdmac/xdmac.h **** }
 410:/home/torbjorn/eclipse-workspace/CoreNG/asf/sam/drivers/xdmac/xdmac.h **** 
 411:/home/torbjorn/eclipse-workspace/CoreNG/asf/sam/drivers/xdmac/xdmac.h **** /**
 412:/home/torbjorn/eclipse-workspace/CoreNG/asf/sam/drivers/xdmac/xdmac.h ****  * \brief Suspend the relevant channel's write.
 413:/home/torbjorn/eclipse-workspace/CoreNG/asf/sam/drivers/xdmac/xdmac.h ****  *
 414:/home/torbjorn/eclipse-workspace/CoreNG/asf/sam/drivers/xdmac/xdmac.h ****  * \param[out] xdmac Module hardware register base address pointer.
 415:/home/torbjorn/eclipse-workspace/CoreNG/asf/sam/drivers/xdmac/xdmac.h ****  * \param[in] channel_num  XDMA Channel number (range 0 to 23).
 416:/home/torbjorn/eclipse-workspace/CoreNG/asf/sam/drivers/xdmac/xdmac.h ****  */
 417:/home/torbjorn/eclipse-workspace/CoreNG/asf/sam/drivers/xdmac/xdmac.h **** static inline void xdmac_channel_write_suspend(Xdmac *xdmac, uint32_t channel_num)
 418:/home/torbjorn/eclipse-workspace/CoreNG/asf/sam/drivers/xdmac/xdmac.h **** {
 419:/home/torbjorn/eclipse-workspace/CoreNG/asf/sam/drivers/xdmac/xdmac.h **** 	Assert(xdmac);
 420:/home/torbjorn/eclipse-workspace/CoreNG/asf/sam/drivers/xdmac/xdmac.h **** 	Assert(channel_num < XDMACCHID_NUMBER);
 421:/home/torbjorn/eclipse-workspace/CoreNG/asf/sam/drivers/xdmac/xdmac.h **** 	xdmac->XDMAC_GWS |= XDMAC_GWS_WS0 << channel_num;
 422:/home/torbjorn/eclipse-workspace/CoreNG/asf/sam/drivers/xdmac/xdmac.h **** }
 423:/home/torbjorn/eclipse-workspace/CoreNG/asf/sam/drivers/xdmac/xdmac.h **** 
 424:/home/torbjorn/eclipse-workspace/CoreNG/asf/sam/drivers/xdmac/xdmac.h **** /**
 425:/home/torbjorn/eclipse-workspace/CoreNG/asf/sam/drivers/xdmac/xdmac.h ****  * \brief Suspend the relevant channel's read & write.
 426:/home/torbjorn/eclipse-workspace/CoreNG/asf/sam/drivers/xdmac/xdmac.h ****  *
 427:/home/torbjorn/eclipse-workspace/CoreNG/asf/sam/drivers/xdmac/xdmac.h ****  * \param[out] xdmac Module hardware register base address pointer.
 428:/home/torbjorn/eclipse-workspace/CoreNG/asf/sam/drivers/xdmac/xdmac.h ****  * \param[in] channel_num  XDMA Channel number (range 0 to 23).
 429:/home/torbjorn/eclipse-workspace/CoreNG/asf/sam/drivers/xdmac/xdmac.h ****  */
 430:/home/torbjorn/eclipse-workspace/CoreNG/asf/sam/drivers/xdmac/xdmac.h **** static inline void xdmac_channel_readwrite_suspend(Xdmac *xdmac, uint32_t channel_num)
ARM GAS  /tmp/cc9w1cGI.s 			page 65


 431:/home/torbjorn/eclipse-workspace/CoreNG/asf/sam/drivers/xdmac/xdmac.h **** {
 432:/home/torbjorn/eclipse-workspace/CoreNG/asf/sam/drivers/xdmac/xdmac.h **** 	Assert(xdmac);
 433:/home/torbjorn/eclipse-workspace/CoreNG/asf/sam/drivers/xdmac/xdmac.h **** 	Assert(channel_num < XDMACCHID_NUMBER);
 434:/home/torbjorn/eclipse-workspace/CoreNG/asf/sam/drivers/xdmac/xdmac.h **** 	xdmac->XDMAC_GRWS = (XDMAC_GRWS_RWS0 << channel_num);
 435:/home/torbjorn/eclipse-workspace/CoreNG/asf/sam/drivers/xdmac/xdmac.h **** }
 436:/home/torbjorn/eclipse-workspace/CoreNG/asf/sam/drivers/xdmac/xdmac.h **** 
 437:/home/torbjorn/eclipse-workspace/CoreNG/asf/sam/drivers/xdmac/xdmac.h **** /**
 438:/home/torbjorn/eclipse-workspace/CoreNG/asf/sam/drivers/xdmac/xdmac.h ****  * \brief Resume the relevant channel's read & write.
 439:/home/torbjorn/eclipse-workspace/CoreNG/asf/sam/drivers/xdmac/xdmac.h ****  *
 440:/home/torbjorn/eclipse-workspace/CoreNG/asf/sam/drivers/xdmac/xdmac.h ****  * \param[out] xdmac Module hardware register base address pointer.
 441:/home/torbjorn/eclipse-workspace/CoreNG/asf/sam/drivers/xdmac/xdmac.h ****  * \param[in] channel_num  XDMA Channel number (range 0 to 23).
 442:/home/torbjorn/eclipse-workspace/CoreNG/asf/sam/drivers/xdmac/xdmac.h ****  */
 443:/home/torbjorn/eclipse-workspace/CoreNG/asf/sam/drivers/xdmac/xdmac.h **** static inline void xdmac_channel_readwrite_resume(Xdmac *xdmac, uint32_t channel_num)
 444:/home/torbjorn/eclipse-workspace/CoreNG/asf/sam/drivers/xdmac/xdmac.h **** {
 445:/home/torbjorn/eclipse-workspace/CoreNG/asf/sam/drivers/xdmac/xdmac.h **** 	Assert(xdmac);
 446:/home/torbjorn/eclipse-workspace/CoreNG/asf/sam/drivers/xdmac/xdmac.h **** 	Assert(channel_num < XDMACCHID_NUMBER);
 447:/home/torbjorn/eclipse-workspace/CoreNG/asf/sam/drivers/xdmac/xdmac.h **** 	xdmac->XDMAC_GRWR = (XDMAC_GRWR_RWR0 << channel_num);
 448:/home/torbjorn/eclipse-workspace/CoreNG/asf/sam/drivers/xdmac/xdmac.h **** }
 449:/home/torbjorn/eclipse-workspace/CoreNG/asf/sam/drivers/xdmac/xdmac.h **** 
 450:/home/torbjorn/eclipse-workspace/CoreNG/asf/sam/drivers/xdmac/xdmac.h **** /**
 451:/home/torbjorn/eclipse-workspace/CoreNG/asf/sam/drivers/xdmac/xdmac.h ****  * \brief Set software transfer request on the relevant channel.
 452:/home/torbjorn/eclipse-workspace/CoreNG/asf/sam/drivers/xdmac/xdmac.h ****  *
 453:/home/torbjorn/eclipse-workspace/CoreNG/asf/sam/drivers/xdmac/xdmac.h ****  * \param[out] xdmac Module hardware register base address pointer.
 454:/home/torbjorn/eclipse-workspace/CoreNG/asf/sam/drivers/xdmac/xdmac.h ****  * \param[in] channel_num  XDMA Channel number (range 0 to 23).
 455:/home/torbjorn/eclipse-workspace/CoreNG/asf/sam/drivers/xdmac/xdmac.h ****  */
 456:/home/torbjorn/eclipse-workspace/CoreNG/asf/sam/drivers/xdmac/xdmac.h **** static inline void xdmac_channel_software_request(Xdmac *xdmac, uint32_t channel_num)
 457:/home/torbjorn/eclipse-workspace/CoreNG/asf/sam/drivers/xdmac/xdmac.h **** {
 458:/home/torbjorn/eclipse-workspace/CoreNG/asf/sam/drivers/xdmac/xdmac.h **** 	Assert(xdmac);
 459:/home/torbjorn/eclipse-workspace/CoreNG/asf/sam/drivers/xdmac/xdmac.h **** 	Assert(channel_num < XDMACCHID_NUMBER);
 460:/home/torbjorn/eclipse-workspace/CoreNG/asf/sam/drivers/xdmac/xdmac.h **** 	xdmac->XDMAC_GSWR = (XDMAC_GSWR_SWREQ0 << channel_num);
 461:/home/torbjorn/eclipse-workspace/CoreNG/asf/sam/drivers/xdmac/xdmac.h **** }
 462:/home/torbjorn/eclipse-workspace/CoreNG/asf/sam/drivers/xdmac/xdmac.h **** 
 463:/home/torbjorn/eclipse-workspace/CoreNG/asf/sam/drivers/xdmac/xdmac.h **** /**
 464:/home/torbjorn/eclipse-workspace/CoreNG/asf/sam/drivers/xdmac/xdmac.h ****  * \brief Get software transfer status of the relevant channel.
 465:/home/torbjorn/eclipse-workspace/CoreNG/asf/sam/drivers/xdmac/xdmac.h ****  *
 466:/home/torbjorn/eclipse-workspace/CoreNG/asf/sam/drivers/xdmac/xdmac.h ****  * \param[out] xdmac Module hardware register base address pointer.
 467:/home/torbjorn/eclipse-workspace/CoreNG/asf/sam/drivers/xdmac/xdmac.h ****  */
 468:/home/torbjorn/eclipse-workspace/CoreNG/asf/sam/drivers/xdmac/xdmac.h **** static inline uint32_t xdmac_get_software_request_status(Xdmac *xdmac)
 469:/home/torbjorn/eclipse-workspace/CoreNG/asf/sam/drivers/xdmac/xdmac.h **** {
 470:/home/torbjorn/eclipse-workspace/CoreNG/asf/sam/drivers/xdmac/xdmac.h **** 	Assert(xdmac);
 471:/home/torbjorn/eclipse-workspace/CoreNG/asf/sam/drivers/xdmac/xdmac.h **** 	return xdmac->XDMAC_GSWS;
 472:/home/torbjorn/eclipse-workspace/CoreNG/asf/sam/drivers/xdmac/xdmac.h **** }
 473:/home/torbjorn/eclipse-workspace/CoreNG/asf/sam/drivers/xdmac/xdmac.h **** 
 474:/home/torbjorn/eclipse-workspace/CoreNG/asf/sam/drivers/xdmac/xdmac.h **** /**
 475:/home/torbjorn/eclipse-workspace/CoreNG/asf/sam/drivers/xdmac/xdmac.h ****  * \brief Enable interrupt with mask on the relevant channel of given XDMA.
 476:/home/torbjorn/eclipse-workspace/CoreNG/asf/sam/drivers/xdmac/xdmac.h ****  *
 477:/home/torbjorn/eclipse-workspace/CoreNG/asf/sam/drivers/xdmac/xdmac.h ****  * \param[out] xdmac Module hardware register base address pointer.
 478:/home/torbjorn/eclipse-workspace/CoreNG/asf/sam/drivers/xdmac/xdmac.h ****  * \param[in] channel_num  XDMA Channel number (range 0 to 23).
 479:/home/torbjorn/eclipse-workspace/CoreNG/asf/sam/drivers/xdmac/xdmac.h ****  * \param[in] mask Interrupt mask.
 480:/home/torbjorn/eclipse-workspace/CoreNG/asf/sam/drivers/xdmac/xdmac.h ****  */
 481:/home/torbjorn/eclipse-workspace/CoreNG/asf/sam/drivers/xdmac/xdmac.h **** static inline void xdmac_channel_enable_interrupt(Xdmac *xdmac, uint32_t channel_num, uint32_t mask
 482:/home/torbjorn/eclipse-workspace/CoreNG/asf/sam/drivers/xdmac/xdmac.h **** {
 483:/home/torbjorn/eclipse-workspace/CoreNG/asf/sam/drivers/xdmac/xdmac.h **** 	Assert(xdmac);
 484:/home/torbjorn/eclipse-workspace/CoreNG/asf/sam/drivers/xdmac/xdmac.h **** 	Assert(channel_num < XDMACCHID_NUMBER);
 485:/home/torbjorn/eclipse-workspace/CoreNG/asf/sam/drivers/xdmac/xdmac.h **** 	xdmac->XDMAC_CHID[channel_num].XDMAC_CIE = mask;
 486:/home/torbjorn/eclipse-workspace/CoreNG/asf/sam/drivers/xdmac/xdmac.h **** }
 487:/home/torbjorn/eclipse-workspace/CoreNG/asf/sam/drivers/xdmac/xdmac.h **** 
ARM GAS  /tmp/cc9w1cGI.s 			page 66


 488:/home/torbjorn/eclipse-workspace/CoreNG/asf/sam/drivers/xdmac/xdmac.h **** /**
 489:/home/torbjorn/eclipse-workspace/CoreNG/asf/sam/drivers/xdmac/xdmac.h ****  * \brief Disable interrupt with mask on the relevant channel of given XDMA.
 490:/home/torbjorn/eclipse-workspace/CoreNG/asf/sam/drivers/xdmac/xdmac.h ****  *
 491:/home/torbjorn/eclipse-workspace/CoreNG/asf/sam/drivers/xdmac/xdmac.h ****  * \param[out] xdmac Module hardware register base address pointer.
 492:/home/torbjorn/eclipse-workspace/CoreNG/asf/sam/drivers/xdmac/xdmac.h ****  * \param[in] channel_num  XDMA Channel number (range 0 to 23).
 493:/home/torbjorn/eclipse-workspace/CoreNG/asf/sam/drivers/xdmac/xdmac.h ****  * \param[in] mask Interrupt mask.
 494:/home/torbjorn/eclipse-workspace/CoreNG/asf/sam/drivers/xdmac/xdmac.h ****  */
 495:/home/torbjorn/eclipse-workspace/CoreNG/asf/sam/drivers/xdmac/xdmac.h **** static inline void xdmac_channel_disable_interrupt(Xdmac *xdmac, uint32_t channel_num, uint32_t mas
 496:/home/torbjorn/eclipse-workspace/CoreNG/asf/sam/drivers/xdmac/xdmac.h **** {
 497:/home/torbjorn/eclipse-workspace/CoreNG/asf/sam/drivers/xdmac/xdmac.h **** 	Assert(xdmac);
 498:/home/torbjorn/eclipse-workspace/CoreNG/asf/sam/drivers/xdmac/xdmac.h **** 	Assert(channel_num < XDMACCHID_NUMBER);
 499:/home/torbjorn/eclipse-workspace/CoreNG/asf/sam/drivers/xdmac/xdmac.h **** 	xdmac->XDMAC_CHID[channel_num].XDMAC_CID = mask;
 500:/home/torbjorn/eclipse-workspace/CoreNG/asf/sam/drivers/xdmac/xdmac.h **** }
 501:/home/torbjorn/eclipse-workspace/CoreNG/asf/sam/drivers/xdmac/xdmac.h **** 
 502:/home/torbjorn/eclipse-workspace/CoreNG/asf/sam/drivers/xdmac/xdmac.h **** /**
 503:/home/torbjorn/eclipse-workspace/CoreNG/asf/sam/drivers/xdmac/xdmac.h ****  * \brief Get interrupt mask for the relevant channel of given XDMA.
 504:/home/torbjorn/eclipse-workspace/CoreNG/asf/sam/drivers/xdmac/xdmac.h ****  *
 505:/home/torbjorn/eclipse-workspace/CoreNG/asf/sam/drivers/xdmac/xdmac.h ****  * \param[out] xdmac Module hardware register base address pointer.
 506:/home/torbjorn/eclipse-workspace/CoreNG/asf/sam/drivers/xdmac/xdmac.h ****  * \param[in] channel_num  XDMA Channel number (range 0 to 23).
 507:/home/torbjorn/eclipse-workspace/CoreNG/asf/sam/drivers/xdmac/xdmac.h ****  */
 508:/home/torbjorn/eclipse-workspace/CoreNG/asf/sam/drivers/xdmac/xdmac.h **** static inline uint32_t xdmac_channel_get_interrupt_mask(Xdmac *xdmac, uint32_t channel_num)
 509:/home/torbjorn/eclipse-workspace/CoreNG/asf/sam/drivers/xdmac/xdmac.h **** {
 510:/home/torbjorn/eclipse-workspace/CoreNG/asf/sam/drivers/xdmac/xdmac.h **** 	Assert(xdmac);
 511:/home/torbjorn/eclipse-workspace/CoreNG/asf/sam/drivers/xdmac/xdmac.h **** 	Assert(channel_num < XDMACCHID_NUMBER);
 512:/home/torbjorn/eclipse-workspace/CoreNG/asf/sam/drivers/xdmac/xdmac.h **** 	return xdmac->XDMAC_CHID[channel_num].XDMAC_CIM;
 513:/home/torbjorn/eclipse-workspace/CoreNG/asf/sam/drivers/xdmac/xdmac.h **** }
 514:/home/torbjorn/eclipse-workspace/CoreNG/asf/sam/drivers/xdmac/xdmac.h **** 
 515:/home/torbjorn/eclipse-workspace/CoreNG/asf/sam/drivers/xdmac/xdmac.h **** /**
 516:/home/torbjorn/eclipse-workspace/CoreNG/asf/sam/drivers/xdmac/xdmac.h ****  * \brief Get interrupt status for the relevant channel of given XDMA.
 517:/home/torbjorn/eclipse-workspace/CoreNG/asf/sam/drivers/xdmac/xdmac.h ****  *
 518:/home/torbjorn/eclipse-workspace/CoreNG/asf/sam/drivers/xdmac/xdmac.h ****  * \param[out] xdmac Module hardware register base address pointer.
 519:/home/torbjorn/eclipse-workspace/CoreNG/asf/sam/drivers/xdmac/xdmac.h ****  * \param[in] channel_num  XDMA Channel number (range 0 to 23).
 520:/home/torbjorn/eclipse-workspace/CoreNG/asf/sam/drivers/xdmac/xdmac.h ****  */
 521:/home/torbjorn/eclipse-workspace/CoreNG/asf/sam/drivers/xdmac/xdmac.h **** static inline uint32_t xdmac_channel_get_interrupt_status(Xdmac *xdmac, uint32_t channel_num)
 522:/home/torbjorn/eclipse-workspace/CoreNG/asf/sam/drivers/xdmac/xdmac.h **** {
 523:/home/torbjorn/eclipse-workspace/CoreNG/asf/sam/drivers/xdmac/xdmac.h **** 	Assert(xdmac);
 524:/home/torbjorn/eclipse-workspace/CoreNG/asf/sam/drivers/xdmac/xdmac.h **** 	Assert(channel_num < XDMACCHID_NUMBER);
 525:/home/torbjorn/eclipse-workspace/CoreNG/asf/sam/drivers/xdmac/xdmac.h **** 	return xdmac->XDMAC_CHID[channel_num].XDMAC_CIS;
 1783              		.loc 2 525 0
 1784 001c 1E4A     		ldr	r2, .L182+12
 1785 001e D26D     		ldr	r2, [r2, #92]
 1786              	.LVL184:
 1787              	.LBE115:
 1788              	.LBE114:
1175:../asf/sam/drivers/hsmci/hsmci.c **** 		{
1176:../asf/sam/drivers/hsmci/hsmci.c **** #else
1177:../asf/sam/drivers/hsmci/hsmci.c **** 		if (((uint32_t)hsmci_block_size * hsmci_nb_block) > hsmci_transfert_pos) {
1178:../asf/sam/drivers/hsmci/hsmci.c **** #endif
1179:../asf/sam/drivers/hsmci/hsmci.c **** 			// It is not the end of all transfers
1180:../asf/sam/drivers/hsmci/hsmci.c **** 			// then just wait end of DMA
1181:../asf/sam/drivers/hsmci/hsmci.c **** 			dma_sr = xdmac_channel_get_interrupt_status(XDMAC, CONF_HSMCI_XDMAC_CHANNEL);
1182:../asf/sam/drivers/hsmci/hsmci.c **** 			if (dma_sr & XDMAC_CIS_BIS) {
 1789              		.loc 1 1182 0
 1790 0020 D207     		lsls	r2, r2, #31
 1791 0022 30D4     		bmi	.L175
 1792              	.L173:
 1793              	.LBE113:
ARM GAS  /tmp/cc9w1cGI.s 			page 67


1183:../asf/sam/drivers/hsmci/hsmci.c **** 				return true;
1184:../asf/sam/drivers/hsmci/hsmci.c **** 			}
1185:../asf/sam/drivers/hsmci/hsmci.c **** 		}
1186:../asf/sam/drivers/hsmci/hsmci.c **** 	} while (!(sr & HSMCI_SR_XFRDONE));
 1794              		.loc 1 1186 0
 1795 0024 1B01     		lsls	r3, r3, #4
 1796              	.LVL185:
 1797 0026 2ED4     		bmi	.L175
 1798              	.LVL186:
 1799              	.L174:
 1800              	.LBB130:
1157:../asf/sam/drivers/hsmci/hsmci.c **** 		if (hsmciIdleFunc != NULL)
 1801              		.loc 1 1157 0
 1802 0028 BAF80020 		ldrh	r2, [r10]
1160:../asf/sam/drivers/hsmci/hsmci.c **** 		}
 1803              		.loc 1 1160 0
 1804 002c 3046     		mov	r0, r6
1157:../asf/sam/drivers/hsmci/hsmci.c **** 		if (hsmciIdleFunc != NULL)
 1805              		.loc 1 1157 0
 1806 002e B9F80040 		ldrh	r4, [r9]
1158:../asf/sam/drivers/hsmci/hsmci.c **** 		{
 1807              		.loc 1 1158 0
 1808 0032 3B68     		ldr	r3, [r7]
1157:../asf/sam/drivers/hsmci/hsmci.c **** 		if (hsmciIdleFunc != NULL)
 1809              		.loc 1 1157 0
 1810 0034 04FB02F4 		mul	r4, r4, r2
 1811 0038 D8F800B0 		ldr	fp, [r8]
 1812              	.LVL187:
1158:../asf/sam/drivers/hsmci/hsmci.c **** 		{
 1813              		.loc 1 1158 0
 1814 003c 23B1     		cbz	r3, .L170
1160:../asf/sam/drivers/hsmci/hsmci.c **** 		}
 1815              		.loc 1 1160 0
 1816 003e 5C45     		cmp	r4, fp
 1817 0040 94BF     		ite	ls
 1818 0042 0021     		movls	r1, #0
 1819 0044 0121     		movhi	r1, #1
 1820 0046 9847     		blx	r3
 1821              	.LVL188:
 1822              	.L170:
1163:../asf/sam/drivers/hsmci/hsmci.c **** 		if (sr & (HSMCI_SR_UNRE | HSMCI_SR_OVRE | \
 1823              		.loc 1 1163 0
 1824 0048 4FF08041 		mov	r1, #1073741824
 1825 004c 0B6C     		ldr	r3, [r1, #64]
 1826              	.LVL189:
1164:../asf/sam/drivers/hsmci/hsmci.c **** 		HSMCI_SR_DTOE | HSMCI_SR_DCRCE)) {
 1827              		.loc 1 1164 0
 1828 004e 2B42     		tst	r3, r5
 1829 0050 E2D0     		beq	.L171
 1830              	.LBB116:
 1831              	.LBB117:
 143:../asf/sam/drivers/hsmci/hsmci.c **** 	uint32_t dtor = HSMCI->HSMCI_DTOR;
 1832              		.loc 1 143 0
 1833 0052 D1F804E0 		ldr	lr, [r1, #4]
 1834              	.LVL190:
 148:../asf/sam/drivers/hsmci/hsmci.c **** 	HSMCI->HSMCI_MR = mr;
 1835              		.loc 1 148 0
ARM GAS  /tmp/cc9w1cGI.s 			page 68


 1836 0056 4FF0800C 		mov	ip, #128
 144:../asf/sam/drivers/hsmci/hsmci.c **** 	uint32_t sdcr = HSMCI->HSMCI_SDCR;
 1837              		.loc 1 144 0
 1838 005a 8868     		ldr	r0, [r1, #8]
 1839              	.LVL191:
 159:../asf/sam/drivers/hsmci/hsmci.c **** #endif
 1840              		.loc 1 159 0
 1841 005c 0023     		movs	r3, #0
 1842              	.LVL192:
 145:../asf/sam/drivers/hsmci/hsmci.c **** 	uint32_t cstor = HSMCI->HSMCI_CSTOR;
 1843              		.loc 1 145 0
 1844 005e CA68     		ldr	r2, [r1, #12]
 1845              	.LVL193:
 163:../asf/sam/drivers/hsmci/hsmci.c **** }
 1846              		.loc 1 163 0
 1847 0060 0525     		movs	r5, #5
 146:../asf/sam/drivers/hsmci/hsmci.c **** 	uint32_t cfg = HSMCI->HSMCI_CFG;
 1848              		.loc 1 146 0
 1849 0062 CF69     		ldr	r7, [r1, #28]
 1850              	.LVL194:
 1851              	.LBE117:
 1852              	.LBE116:
 1853              	.LBB121:
 1854              	.LBB122:
 382:/home/torbjorn/eclipse-workspace/CoreNG/asf/sam/drivers/xdmac/xdmac.h **** }
 1855              		.loc 2 382 0
 1856 0064 0124     		movs	r4, #1
 1857              	.LVL195:
 1858              	.LBE122:
 1859              	.LBE121:
 1860              	.LBB125:
 1861              	.LBB118:
 147:../asf/sam/drivers/hsmci/hsmci.c **** 	HSMCI->HSMCI_CR = HSMCI_CR_SWRST;
 1862              		.loc 1 147 0
 1863 0066 4E6D     		ldr	r6, [r1, #84]
 1864              	.LVL196:
 148:../asf/sam/drivers/hsmci/hsmci.c **** 	HSMCI->HSMCI_MR = mr;
 1865              		.loc 1 148 0
 1866 0068 C1F800C0 		str	ip, [r1]
 149:../asf/sam/drivers/hsmci/hsmci.c **** 	HSMCI->HSMCI_DTOR = dtor;
 1867              		.loc 1 149 0
 1868 006c C1F804E0 		str	lr, [r1, #4]
 150:../asf/sam/drivers/hsmci/hsmci.c **** 	HSMCI->HSMCI_SDCR = sdcr;
 1869              		.loc 1 150 0
 1870 0070 8860     		str	r0, [r1, #8]
 1871              	.LBE118:
 1872              	.LBE125:
1171:../asf/sam/drivers/hsmci/hsmci.c **** 		}
 1873              		.loc 1 1171 0
 1874 0072 1846     		mov	r0, r3
 1875              	.LVL197:
 1876              	.LBB126:
 1877              	.LBB119:
 151:../asf/sam/drivers/hsmci/hsmci.c **** 	HSMCI->HSMCI_CSTOR = cstor;
 1878              		.loc 1 151 0
 1879 0074 CA60     		str	r2, [r1, #12]
 1880              	.LVL198:
ARM GAS  /tmp/cc9w1cGI.s 			page 69


 1881              	.LBE119:
 1882              	.LBE126:
 1883              	.LBB127:
 1884              	.LBB123:
 382:/home/torbjorn/eclipse-workspace/CoreNG/asf/sam/drivers/xdmac/xdmac.h **** }
 1885              		.loc 2 382 0
 1886 0076 084A     		ldr	r2, .L182+12
 1887              	.LVL199:
 1888              	.LBE123:
 1889              	.LBE127:
 1890              	.LBB128:
 1891              	.LBB120:
 152:../asf/sam/drivers/hsmci/hsmci.c **** 	HSMCI->HSMCI_CFG = cfg;
 1892              		.loc 1 152 0
 1893 0078 CF61     		str	r7, [r1, #28]
 1894              	.LVL200:
 153:../asf/sam/drivers/hsmci/hsmci.c **** #ifdef HSMCI_SR_DMADONE
 1895              		.loc 1 153 0
 1896 007a 4E65     		str	r6, [r1, #84]
 159:../asf/sam/drivers/hsmci/hsmci.c **** #endif
 1897              		.loc 1 159 0
 1898 007c 0B65     		str	r3, [r1, #80]
 163:../asf/sam/drivers/hsmci/hsmci.c **** }
 1899              		.loc 1 163 0
 1900 007e 0D60     		str	r5, [r1]
 1901              	.LVL201:
 1902              	.LBE120:
 1903              	.LBE128:
 1904              	.LBB129:
 1905              	.LBB124:
 382:/home/torbjorn/eclipse-workspace/CoreNG/asf/sam/drivers/xdmac/xdmac.h **** }
 1906              		.loc 2 382 0
 1907 0080 1462     		str	r4, [r2, #32]
 1908              	.LVL202:
 1909              	.LBE124:
 1910              	.LBE129:
1171:../asf/sam/drivers/hsmci/hsmci.c **** 		}
 1911              		.loc 1 1171 0
 1912 0082 BDE8F88F 		pop	{r3, r4, r5, r6, r7, r8, r9, r10, fp, pc}
 1913              	.LVL203:
 1914              	.L175:
1183:../asf/sam/drivers/hsmci/hsmci.c **** 			}
 1915              		.loc 1 1183 0
 1916 0086 0120     		movs	r0, #1
 1917              	.LBE130:
1187:../asf/sam/drivers/hsmci/hsmci.c **** 
1188:../asf/sam/drivers/hsmci/hsmci.c **** 	return true;
1189:../asf/sam/drivers/hsmci/hsmci.c **** }
 1918              		.loc 1 1189 0
 1919 0088 BDE8F88F 		pop	{r3, r4, r5, r6, r7, r8, r9, r10, fp, pc}
 1920              	.LVL204:
 1921              	.L183:
 1922              		.align	2
 1923              	.L182:
 1924 008c 00000000 		.word	.LANCHOR0
 1925 0090 000060C8 		.word	-933232640
 1926 0094 000060C0 		.word	-1067450368
ARM GAS  /tmp/cc9w1cGI.s 			page 70


 1927 0098 00800740 		.word	1074233344
 1928 009c 00000000 		.word	.LANCHOR2
 1929 00a0 00000000 		.word	.LANCHOR3
 1930 00a4 00000000 		.word	.LANCHOR1
 1931              		.cfi_endproc
 1932              	.LFE216:
 1933              		.size	hsmci_wait_end_of_write_blocks, .-hsmci_wait_end_of_write_blocks
 1934              		.section	.text.hsmci_wait_end_of_read_blocks,"ax",%progbits
 1935              		.align	1
 1936              		.p2align 2,,3
 1937              		.global	hsmci_wait_end_of_read_blocks
 1938              		.syntax unified
 1939              		.thumb
 1940              		.thumb_func
 1941              		.fpu fpv5-d16
 1942              		.type	hsmci_wait_end_of_read_blocks, %function
 1943              	hsmci_wait_end_of_read_blocks:
 1944              	.LFB218:
 1945              		.cfi_startproc
 1946              		@ args = 0, pretend = 0, frame = 0
 1947              		@ frame_needed = 0, uses_anonymous_args = 0
 1948              		@ link register save eliminated.
 1949 0000 FFF7FEBF 		b	hsmci_wait_end_of_write_blocks
 1950              		.cfi_endproc
 1951              	.LFE218:
 1952              		.size	hsmci_wait_end_of_read_blocks, .-hsmci_wait_end_of_read_blocks
 1953              		.section	.bss.cpu_irq_critical_section_counter,"aw",%nobits
 1954              		.align	2
 1955              		.type	cpu_irq_critical_section_counter, %object
 1956              		.size	cpu_irq_critical_section_counter, 4
 1957              	cpu_irq_critical_section_counter:
 1958 0000 00000000 		.space	4
 1959              		.section	.bss.cpu_irq_prev_interrupt_state,"aw",%nobits
 1960              		.type	cpu_irq_prev_interrupt_state, %object
 1961              		.size	cpu_irq_prev_interrupt_state, 1
 1962              	cpu_irq_prev_interrupt_state:
 1963 0000 00       		.space	1
 1964              		.section	.bss.hsmciIdleFunc,"aw",%nobits
 1965              		.align	2
 1966              		.set	.LANCHOR0,. + 0
 1967              		.type	hsmciIdleFunc, %object
 1968              		.size	hsmciIdleFunc, 4
 1969              	hsmciIdleFunc:
 1970 0000 00000000 		.space	4
 1971              		.section	.bss.hsmci_block_size,"aw",%nobits
 1972              		.align	1
 1973              		.set	.LANCHOR2,. + 0
 1974              		.type	hsmci_block_size, %object
 1975              		.size	hsmci_block_size, 2
 1976              	hsmci_block_size:
 1977 0000 0000     		.space	2
 1978              		.section	.bss.hsmci_nb_block,"aw",%nobits
 1979              		.align	1
 1980              		.set	.LANCHOR3,. + 0
 1981              		.type	hsmci_nb_block, %object
 1982              		.size	hsmci_nb_block, 2
 1983              	hsmci_nb_block:
ARM GAS  /tmp/cc9w1cGI.s 			page 71


 1984 0000 0000     		.space	2
 1985              		.section	.bss.hsmci_transfert_pos,"aw",%nobits
 1986              		.align	2
 1987              		.set	.LANCHOR1,. + 0
 1988              		.type	hsmci_transfert_pos, %object
 1989              		.size	hsmci_transfert_pos, 4
 1990              	hsmci_transfert_pos:
 1991 0000 00000000 		.space	4
 1992              		.text
 1993              	.Letext0:
 1994              		.file 3 "/usr/include/newlib/machine/_default_types.h"
 1995              		.file 4 "/usr/include/newlib/sys/_stdint.h"
 1996              		.file 5 "/home/torbjorn/eclipse-workspace/CoreNG/asf/thirdparty/CMSIS/Include/core_cm7.h"
 1997              		.file 6 "/home/torbjorn/eclipse-workspace/CoreNG/variants/same70/system_same70.h"
 1998              		.file 7 "/home/torbjorn/eclipse-workspace/CoreNG/asf/sam/utils/cmsis/same70/include/component/hsmc
 1999              		.file 8 "/home/torbjorn/eclipse-workspace/CoreNG/asf/sam/utils/cmsis/same70/include/component/xdma
 2000              		.file 9 "/usr/include/newlib/sys/lock.h"
 2001              		.file 10 "/usr/include/newlib/sys/_types.h"
 2002              		.file 11 "/usr/lib/gcc/arm-none-eabi/6.3.1/include/stddef.h"
 2003              		.file 12 "/usr/include/newlib/sys/reent.h"
 2004              		.file 13 "/usr/include/newlib/stdlib.h"
 2005              		.file 14 "/home/torbjorn/eclipse-workspace/CoreNG/asf/common/utils/interrupt/interrupt_sam_nvic.h"
 2006              		.file 15 "../asf/sam/drivers/hsmci/../../../../libraries/Storage/sd_mmc_protocol.h"
 2007              		.file 16 "../asf/sam/drivers/hsmci/hsmci.h"
 2008              		.file 17 "/home/torbjorn/eclipse-workspace/CoreNG/asf/common/services/clock/same70/sysclk.h"
 2009              		.file 18 "/home/torbjorn/eclipse-workspace/CoreNG/asf/common/services/clock/same70/osc.h"
 2010              		.file 19 "/home/torbjorn/eclipse-workspace/CoreNG/asf/sam/drivers/pmc/pmc.h"
 2011              		.file 20 "/home/torbjorn/eclipse-workspace/CoreNG/asf/common/services/clock/same70/pll.h"