ARM GAS  /tmp/ccOyha2A.s 			page 1


   1              		.cpu cortex-m7
   2              		.eabi_attribute 28, 1
   3              		.eabi_attribute 20, 1
   4              		.eabi_attribute 21, 1
   5              		.eabi_attribute 23, 3
   6              		.eabi_attribute 24, 1
   7              		.eabi_attribute 25, 1
   8              		.eabi_attribute 26, 1
   9              		.eabi_attribute 30, 2
  10              		.eabi_attribute 34, 1
  11              		.eabi_attribute 18, 4
  12              		.file	"itoa.c"
  13              		.text
  14              	.Ltext0:
  15              		.cfi_sections	.debug_frame
  16              		.section	.text.ltoa,"ax",%progbits
  17              		.align	1
  18              		.p2align 2,,3
  19              		.global	ltoa
  20              		.syntax unified
  21              		.thumb
  22              		.thumb_func
  23              		.fpu fpv5-d16
  24              		.type	ltoa, %function
  25              	ltoa:
  26              	.LFB1:
  27              		.file 1 "../cores/arduino/itoa.c"
   1:../cores/arduino/itoa.c **** /*
   2:../cores/arduino/itoa.c ****   Copyright (c) 2011 Arduino.  All right reserved.
   3:../cores/arduino/itoa.c **** 
   4:../cores/arduino/itoa.c ****   This library is free software; you can redistribute it and/or
   5:../cores/arduino/itoa.c ****   modify it under the terms of the GNU Lesser General Public
   6:../cores/arduino/itoa.c ****   License as published by the Free Software Foundation; either
   7:../cores/arduino/itoa.c ****   version 2.1 of the License, or (at your option) any later version.
   8:../cores/arduino/itoa.c **** 
   9:../cores/arduino/itoa.c ****   This library is distributed in the hope that it will be useful,
  10:../cores/arduino/itoa.c ****   but WITHOUT ANY WARRANTY; without even the implied warranty of
  11:../cores/arduino/itoa.c ****   MERCHANTABILITY or FITNESS FOR A PARTICULAR PURPOSE. 
  12:../cores/arduino/itoa.c ****   See the GNU Lesser General Public License for more details.
  13:../cores/arduino/itoa.c **** 
  14:../cores/arduino/itoa.c ****   You should have received a copy of the GNU Lesser General Public
  15:../cores/arduino/itoa.c ****   License along with this library; if not, write to the Free Software
  16:../cores/arduino/itoa.c ****   Foundation, Inc., 51 Franklin St, Fifth Floor, Boston, MA  02110-1301  USA
  17:../cores/arduino/itoa.c **** */
  18:../cores/arduino/itoa.c **** 
  19:../cores/arduino/itoa.c **** #include "itoa.h"
  20:../cores/arduino/itoa.c **** #include <string.h>
  21:../cores/arduino/itoa.c **** 
  22:../cores/arduino/itoa.c **** #ifdef __cplusplus
  23:../cores/arduino/itoa.c **** extern "C"{
  24:../cores/arduino/itoa.c **** #endif // __cplusplus
  25:../cores/arduino/itoa.c **** 
  26:../cores/arduino/itoa.c **** #if 0
  27:../cores/arduino/itoa.c **** /* reverse:  reverse string s in place */
  28:../cores/arduino/itoa.c **** static void reverse( char s[] )
  29:../cores/arduino/itoa.c **** {
  30:../cores/arduino/itoa.c ****   int i, j ;
ARM GAS  /tmp/ccOyha2A.s 			page 2


  31:../cores/arduino/itoa.c ****   char c ;
  32:../cores/arduino/itoa.c **** 
  33:../cores/arduino/itoa.c ****   for ( i = 0, j = strlen(s)-1 ; i < j ; i++, j-- )
  34:../cores/arduino/itoa.c ****   {
  35:../cores/arduino/itoa.c ****     c = s[i] ;
  36:../cores/arduino/itoa.c ****     s[i] = s[j] ;
  37:../cores/arduino/itoa.c ****     s[j] = c ;
  38:../cores/arduino/itoa.c ****   }
  39:../cores/arduino/itoa.c **** }
  40:../cores/arduino/itoa.c **** 
  41:../cores/arduino/itoa.c **** /* itoa:  convert n to characters in s */
  42:../cores/arduino/itoa.c **** extern void itoa( int n, char s[] )
  43:../cores/arduino/itoa.c **** {
  44:../cores/arduino/itoa.c ****   int i, sign ;
  45:../cores/arduino/itoa.c **** 
  46:../cores/arduino/itoa.c ****   if ( (sign = n) < 0 )  /* record sign */
  47:../cores/arduino/itoa.c ****   {
  48:../cores/arduino/itoa.c ****     n = -n;          /* make n positive */
  49:../cores/arduino/itoa.c ****   }
  50:../cores/arduino/itoa.c **** 
  51:../cores/arduino/itoa.c ****   i = 0;
  52:../cores/arduino/itoa.c ****   do
  53:../cores/arduino/itoa.c ****   {       /* generate digits in reverse order */
  54:../cores/arduino/itoa.c ****     s[i++] = n % 10 + '0';   /* get next digit */
  55:../cores/arduino/itoa.c ****   } while ((n /= 10) > 0) ;     /* delete it */
  56:../cores/arduino/itoa.c **** 
  57:../cores/arduino/itoa.c ****   if (sign < 0 )
  58:../cores/arduino/itoa.c ****   {
  59:../cores/arduino/itoa.c ****     s[i++] = '-';
  60:../cores/arduino/itoa.c ****   }
  61:../cores/arduino/itoa.c **** 
  62:../cores/arduino/itoa.c ****   s[i] = '\0';
  63:../cores/arduino/itoa.c **** 
  64:../cores/arduino/itoa.c ****   reverse( s ) ;
  65:../cores/arduino/itoa.c **** }
  66:../cores/arduino/itoa.c **** 
  67:../cores/arduino/itoa.c **** #else
  68:../cores/arduino/itoa.c **** 
  69:../cores/arduino/itoa.c **** extern char* itoa( int value, char *string, int radix )
  70:../cores/arduino/itoa.c **** {
  71:../cores/arduino/itoa.c ****   return ltoa( value, string, radix ) ;
  72:../cores/arduino/itoa.c **** }
  73:../cores/arduino/itoa.c **** 
  74:../cores/arduino/itoa.c **** extern char* ltoa( long value, char *string, int radix )
  75:../cores/arduino/itoa.c **** {
  28              		.loc 1 75 0
  29              		.cfi_startproc
  30              		@ args = 0, pretend = 0, frame = 40
  31              		@ frame_needed = 0, uses_anonymous_args = 0
  32              	.LVL0:
  76:../cores/arduino/itoa.c ****   char tmp[33];
  77:../cores/arduino/itoa.c ****   char *tp = tmp;
  78:../cores/arduino/itoa.c ****   long i;
  79:../cores/arduino/itoa.c ****   unsigned long v;
  80:../cores/arduino/itoa.c ****   int sign;
  81:../cores/arduino/itoa.c ****   char *sp;
  82:../cores/arduino/itoa.c **** 
ARM GAS  /tmp/ccOyha2A.s 			page 3


  83:../cores/arduino/itoa.c ****   if ( string == NULL )
  33              		.loc 1 83 0
  34 0000 0029     		cmp	r1, #0
  35 0002 46D0     		beq	.L12
  84:../cores/arduino/itoa.c ****   {
  85:../cores/arduino/itoa.c ****     return 0 ;
  86:../cores/arduino/itoa.c ****   }
  87:../cores/arduino/itoa.c **** 
  88:../cores/arduino/itoa.c ****   if (radix > 36 || radix <= 1)
  36              		.loc 1 88 0
  37 0004 931E     		subs	r3, r2, #2
  38 0006 222B     		cmp	r3, #34
  39 0008 43D8     		bhi	.L12
  75:../cores/arduino/itoa.c ****   char tmp[33];
  40              		.loc 1 75 0
  41 000a 2DE9F041 		push	{r4, r5, r6, r7, r8, lr}
  42              		.cfi_def_cfa_offset 24
  43              		.cfi_offset 4, -24
  44              		.cfi_offset 5, -20
  45              		.cfi_offset 6, -16
  46              		.cfi_offset 7, -12
  47              		.cfi_offset 8, -8
  48              		.cfi_offset 14, -4
  89:../cores/arduino/itoa.c ****   {
  90:../cores/arduino/itoa.c ****     return 0 ;
  91:../cores/arduino/itoa.c ****   }
  92:../cores/arduino/itoa.c **** 
  93:../cores/arduino/itoa.c ****   sign = (radix == 10 && value < 0);
  49              		.loc 1 93 0
  50 000e 4FEAD078 		lsr	r8, r0, #31
  75:../cores/arduino/itoa.c ****   char tmp[33];
  51              		.loc 1 75 0
  52 0012 8AB0     		sub	sp, sp, #40
  53              		.cfi_def_cfa_offset 64
  54              		.loc 1 93 0
  55 0014 0A2A     		cmp	r2, #10
  56 0016 14BF     		ite	ne
  57 0018 4FF00008 		movne	r8, #0
  58 001c 08F00108 		andeq	r8, r8, #1
  59              	.LVL1:
  94:../cores/arduino/itoa.c ****   if (sign)
  60              		.loc 1 94 0
  61 0020 B8F1000F 		cmp	r8, #0
  62 0024 31D1     		bne	.L21
  95:../cores/arduino/itoa.c ****   {
  96:../cores/arduino/itoa.c ****     v = -value;
  97:../cores/arduino/itoa.c ****   }
  98:../cores/arduino/itoa.c ****   else
  99:../cores/arduino/itoa.c ****   {
 100:../cores/arduino/itoa.c ****     v = (unsigned long)value;
  63              		.loc 1 100 0
  64 0026 0646     		mov	r6, r0
  65              	.LVL2:
  66              	.L5:
  67 0028 0DF10504 		add	r4, sp, #5
  68 002c 0DF1040E 		add	lr, sp, #4
  69              	.LVL3:
ARM GAS  /tmp/ccOyha2A.s 			page 4


  70              	.L15:
 101:../cores/arduino/itoa.c ****   }
 102:../cores/arduino/itoa.c **** 
 103:../cores/arduino/itoa.c ****   while (v || tp == tmp)
 104:../cores/arduino/itoa.c ****   {
 105:../cores/arduino/itoa.c ****     i = v % radix;
 106:../cores/arduino/itoa.c ****     v = v / radix;
 107:../cores/arduino/itoa.c ****     if (i < 10)
 108:../cores/arduino/itoa.c ****       *tp++ = i+'0';
 109:../cores/arduino/itoa.c ****     else
 110:../cores/arduino/itoa.c ****       *tp++ = i + 'a' - 10;
  71              		.loc 1 110 0
  72 0030 2746     		mov	r7, r4
  73 0032 0134     		adds	r4, r4, #1
  74              	.LVL4:
 105:../cores/arduino/itoa.c ****     v = v / radix;
  75              		.loc 1 105 0
  76 0034 B6FBF2F5 		udiv	r5, r6, r2
  77 0038 02FB1563 		mls	r3, r2, r5, r6
  78              	.LVL5:
 106:../cores/arduino/itoa.c ****     if (i < 10)
  79              		.loc 1 106 0
  80 003c 2E46     		mov	r6, r5
  81              	.LVL6:
 107:../cores/arduino/itoa.c ****       *tp++ = i+'0';
  82              		.loc 1 107 0
  83 003e 092B     		cmp	r3, #9
 108:../cores/arduino/itoa.c ****     else
  84              		.loc 1 108 0
  85 0040 03F1300C 		add	ip, r3, #48
  86              		.loc 1 110 0
  87 0044 03F15703 		add	r3, r3, #87
  88              	.LVL7:
 108:../cores/arduino/itoa.c ****     else
  89              		.loc 1 108 0
  90 0048 94BF     		ite	ls
  91 004a 04F802CC 		strbls	ip, [r4, #-2]
  92              		.loc 1 110 0
  93 004e 04F8023C 		strbhi	r3, [r4, #-2]
 103:../cores/arduino/itoa.c ****   {
  94              		.loc 1 103 0
  95 0052 7745     		cmp	r7, lr
  96 0054 ECD0     		beq	.L15
  97 0056 002D     		cmp	r5, #0
  98 0058 EAD1     		bne	.L15
  99              	.LVL8:
 111:../cores/arduino/itoa.c ****   }
 112:../cores/arduino/itoa.c **** 
 113:../cores/arduino/itoa.c ****   sp = string;
 114:../cores/arduino/itoa.c **** 
 115:../cores/arduino/itoa.c ****   if (sign)
 100              		.loc 1 115 0
 101 005a B8F1000F 		cmp	r8, #0
 102 005e 16D0     		beq	.L13
 116:../cores/arduino/itoa.c ****     *sp++ = '-';
 103              		.loc 1 116 0
 104 0060 2D23     		movs	r3, #45
ARM GAS  /tmp/ccOyha2A.s 			page 5


 105              	.LVL9:
 106 0062 4C1C     		adds	r4, r1, #1
 107              	.LVL10:
 108 0064 0B70     		strb	r3, [r1]
 109              	.L8:
 110              	.LVL11:
 117:../cores/arduino/itoa.c ****   while (tp > tmp)
 111              		.loc 1 117 0
 112 0066 7745     		cmp	r7, lr
 113 0068 09D9     		bls	.L9
 114 006a 621E     		subs	r2, r4, #1
 115              	.LVL12:
 116 006c 3B46     		mov	r3, r7
 117              	.LVL13:
 118              	.L10:
 118:../cores/arduino/itoa.c ****     *sp++ = *--tp;
 119              		.loc 1 118 0
 120 006e 13F8010D 		ldrb	r0, [r3, #-1]!	@ zero_extendqisi2
 121              	.LVL14:
 117:../cores/arduino/itoa.c ****   while (tp > tmp)
 122              		.loc 1 117 0
 123 0072 7345     		cmp	r3, lr
 124              		.loc 1 118 0
 125 0074 02F8010F 		strb	r0, [r2, #1]!
 126              	.LVL15:
 117:../cores/arduino/itoa.c ****   while (tp > tmp)
 127              		.loc 1 117 0
 128 0078 F9D1     		bne	.L10
 129 007a FF1A     		subs	r7, r7, r3
 130 007c 3C44     		add	r4, r4, r7
 131              	.LVL16:
 132              	.L9:
 119:../cores/arduino/itoa.c ****   *sp = 0;
 133              		.loc 1 119 0
 134 007e 0023     		movs	r3, #0
 120:../cores/arduino/itoa.c **** 
 121:../cores/arduino/itoa.c ****   return string;
 135              		.loc 1 121 0
 136 0080 0846     		mov	r0, r1
 119:../cores/arduino/itoa.c ****   *sp = 0;
 137              		.loc 1 119 0
 138 0082 2370     		strb	r3, [r4]
 122:../cores/arduino/itoa.c **** }
 139              		.loc 1 122 0
 140 0084 0AB0     		add	sp, sp, #40
 141              		.cfi_remember_state
 142              		.cfi_def_cfa_offset 24
 143              		@ sp needed
 144 0086 BDE8F081 		pop	{r4, r5, r6, r7, r8, pc}
 145              	.LVL17:
 146              	.L21:
 147              		.cfi_restore_state
  96:../cores/arduino/itoa.c ****   }
 148              		.loc 1 96 0
 149 008a 4642     		negs	r6, r0
 150              	.LVL18:
 151 008c CCE7     		b	.L5
ARM GAS  /tmp/ccOyha2A.s 			page 6


 152              	.LVL19:
 153              	.L13:
 154 008e 0C46     		mov	r4, r1
 155 0090 E9E7     		b	.L8
 156              	.LVL20:
 157              	.L12:
 158              		.cfi_def_cfa_offset 0
 159              		.cfi_restore 4
 160              		.cfi_restore 5
 161              		.cfi_restore 6
 162              		.cfi_restore 7
 163              		.cfi_restore 8
 164              		.cfi_restore 14
  85:../cores/arduino/itoa.c ****   }
 165              		.loc 1 85 0
 166 0092 0020     		movs	r0, #0
 167              	.LVL21:
 168 0094 7047     		bx	lr
 169              		.cfi_endproc
 170              	.LFE1:
 171              		.size	ltoa, .-ltoa
 172 0096 00BF     		.section	.text.itoa,"ax",%progbits
 173              		.align	1
 174              		.p2align 2,,3
 175              		.global	itoa
 176              		.syntax unified
 177              		.thumb
 178              		.thumb_func
 179              		.fpu fpv5-d16
 180              		.type	itoa, %function
 181              	itoa:
 182              	.LFB0:
  70:../cores/arduino/itoa.c ****   return ltoa( value, string, radix ) ;
 183              		.loc 1 70 0
 184              		.cfi_startproc
 185              		@ args = 0, pretend = 0, frame = 0
 186              		@ frame_needed = 0, uses_anonymous_args = 0
 187              		@ link register save eliminated.
 188              	.LVL22:
  71:../cores/arduino/itoa.c **** }
 189              		.loc 1 71 0
 190 0000 FFF7FEBF 		b	ltoa
 191              	.LVL23:
 192              		.cfi_endproc
 193              	.LFE0:
 194              		.size	itoa, .-itoa
 195              		.section	.text.ultoa,"ax",%progbits
 196              		.align	1
 197              		.p2align 2,,3
 198              		.global	ultoa
 199              		.syntax unified
 200              		.thumb
 201              		.thumb_func
 202              		.fpu fpv5-d16
 203              		.type	ultoa, %function
 204              	ultoa:
 205              	.LFB3:
ARM GAS  /tmp/ccOyha2A.s 			page 7


 123:../cores/arduino/itoa.c **** 
 124:../cores/arduino/itoa.c **** extern char* utoa( unsigned int value, char *string, int radix )
 125:../cores/arduino/itoa.c **** {
 126:../cores/arduino/itoa.c ****   return ultoa( (unsigned long)value, string, radix ) ;
 127:../cores/arduino/itoa.c **** }
 128:../cores/arduino/itoa.c **** 
 129:../cores/arduino/itoa.c **** extern char* ultoa( unsigned long value, char *string, int radix )
 130:../cores/arduino/itoa.c **** {
 206              		.loc 1 130 0
 207              		.cfi_startproc
 208              		@ args = 0, pretend = 0, frame = 40
 209              		@ frame_needed = 0, uses_anonymous_args = 0
 210              	.LVL24:
 131:../cores/arduino/itoa.c ****   char tmp[33];
 132:../cores/arduino/itoa.c ****   char *tp = tmp;
 133:../cores/arduino/itoa.c ****   long i;
 134:../cores/arduino/itoa.c ****   unsigned long v = value;
 135:../cores/arduino/itoa.c ****   char *sp;
 136:../cores/arduino/itoa.c **** 
 137:../cores/arduino/itoa.c ****   if ( string == NULL )
 211              		.loc 1 137 0
 212 0000 99B3     		cbz	r1, .L31
 138:../cores/arduino/itoa.c ****   {
 139:../cores/arduino/itoa.c ****     return 0;
 140:../cores/arduino/itoa.c ****   }
 141:../cores/arduino/itoa.c **** 
 142:../cores/arduino/itoa.c ****   if (radix > 36 || radix <= 1)
 213              		.loc 1 142 0
 214 0002 931E     		subs	r3, r2, #2
 215 0004 222B     		cmp	r3, #34
 216 0006 30D8     		bhi	.L31
 130:../cores/arduino/itoa.c ****   char tmp[33];
 217              		.loc 1 130 0
 218 0008 F0B5     		push	{r4, r5, r6, r7, lr}
 219              		.cfi_def_cfa_offset 20
 220              		.cfi_offset 4, -20
 221              		.cfi_offset 5, -16
 222              		.cfi_offset 6, -12
 223              		.cfi_offset 7, -8
 224              		.cfi_offset 14, -4
 225 000a 8BB0     		sub	sp, sp, #44
 226              		.cfi_def_cfa_offset 64
 227 000c 0DF10504 		add	r4, sp, #5
 228 0010 0DF1040E 		add	lr, sp, #4
 229              	.LVL25:
 230              	.L34:
 143:../cores/arduino/itoa.c ****   {
 144:../cores/arduino/itoa.c ****     return 0;
 145:../cores/arduino/itoa.c ****   }
 146:../cores/arduino/itoa.c ****  
 147:../cores/arduino/itoa.c ****   while (v || tp == tmp)
 148:../cores/arduino/itoa.c ****   {
 149:../cores/arduino/itoa.c ****     i = v % radix;
 150:../cores/arduino/itoa.c ****     v = v / radix;
 151:../cores/arduino/itoa.c ****     if (i < 10)
 152:../cores/arduino/itoa.c ****       *tp++ = i+'0';
 153:../cores/arduino/itoa.c ****     else
ARM GAS  /tmp/ccOyha2A.s 			page 8


 154:../cores/arduino/itoa.c ****       *tp++ = i + 'a' - 10;
 231              		.loc 1 154 0
 232 0014 2646     		mov	r6, r4
 233 0016 0134     		adds	r4, r4, #1
 234              	.LVL26:
 149:../cores/arduino/itoa.c ****     v = v / radix;
 235              		.loc 1 149 0
 236 0018 B0FBF2F5 		udiv	r5, r0, r2
 237 001c 02FB1503 		mls	r3, r2, r5, r0
 238              	.LVL27:
 150:../cores/arduino/itoa.c ****     if (i < 10)
 239              		.loc 1 150 0
 240 0020 2846     		mov	r0, r5
 241              	.LVL28:
 151:../cores/arduino/itoa.c ****       *tp++ = i+'0';
 242              		.loc 1 151 0
 243 0022 092B     		cmp	r3, #9
 152:../cores/arduino/itoa.c ****     else
 244              		.loc 1 152 0
 245 0024 03F13007 		add	r7, r3, #48
 246              		.loc 1 154 0
 247 0028 03F15703 		add	r3, r3, #87
 248              	.LVL29:
 152:../cores/arduino/itoa.c ****     else
 249              		.loc 1 152 0
 250 002c 94BF     		ite	ls
 251 002e 04F8027C 		strbls	r7, [r4, #-2]
 252              		.loc 1 154 0
 253 0032 04F8023C 		strbhi	r3, [r4, #-2]
 147:../cores/arduino/itoa.c ****   {
 254              		.loc 1 147 0
 255 0036 002D     		cmp	r5, #0
 256 0038 ECD1     		bne	.L34
 257 003a 7645     		cmp	r6, lr
 258 003c EAD0     		beq	.L34
 259              	.LVL30:
 155:../cores/arduino/itoa.c ****   }
 156:../cores/arduino/itoa.c **** 
 157:../cores/arduino/itoa.c ****   sp = string;
 158:../cores/arduino/itoa.c **** 
 159:../cores/arduino/itoa.c ****  
 160:../cores/arduino/itoa.c ****   while (tp > tmp)
 260              		.loc 1 160 0
 261 003e 0ED9     		bls	.L32
 262 0040 4A1E     		subs	r2, r1, #1
 263              	.LVL31:
 264 0042 3346     		mov	r3, r6
 265              	.LVL32:
 266              	.L29:
 161:../cores/arduino/itoa.c ****     *sp++ = *--tp;
 267              		.loc 1 161 0
 268 0044 13F8010D 		ldrb	r0, [r3, #-1]!	@ zero_extendqisi2
 269              	.LVL33:
 160:../cores/arduino/itoa.c ****     *sp++ = *--tp;
 270              		.loc 1 160 0
 271 0048 7345     		cmp	r3, lr
 272              		.loc 1 161 0
ARM GAS  /tmp/ccOyha2A.s 			page 9


 273 004a 02F8010F 		strb	r0, [r2, #1]!
 274              	.LVL34:
 160:../cores/arduino/itoa.c ****     *sp++ = *--tp;
 275              		.loc 1 160 0
 276 004e F9D1     		bne	.L29
 277 0050 F61A     		subs	r6, r6, r3
 162:../cores/arduino/itoa.c ****   *sp = 0;
 163:../cores/arduino/itoa.c **** 
 164:../cores/arduino/itoa.c ****   return string;
 278              		.loc 1 164 0
 279 0052 0846     		mov	r0, r1
 162:../cores/arduino/itoa.c ****   *sp = 0;
 280              		.loc 1 162 0
 281 0054 0023     		movs	r3, #0
 282              	.LVL35:
 283 0056 0E44     		add	r6, r6, r1
 284 0058 3370     		strb	r3, [r6]
 165:../cores/arduino/itoa.c **** }
 285              		.loc 1 165 0
 286 005a 0BB0     		add	sp, sp, #44
 287              		.cfi_remember_state
 288              		.cfi_def_cfa_offset 20
 289              		@ sp needed
 290 005c F0BD     		pop	{r4, r5, r6, r7, pc}
 291              	.LVL36:
 292              	.L32:
 293              		.cfi_restore_state
 160:../cores/arduino/itoa.c ****     *sp++ = *--tp;
 294              		.loc 1 160 0
 295 005e 0E46     		mov	r6, r1
 296              	.LVL37:
 162:../cores/arduino/itoa.c ****   *sp = 0;
 297              		.loc 1 162 0
 298 0060 0023     		movs	r3, #0
 299              	.LVL38:
 164:../cores/arduino/itoa.c **** }
 300              		.loc 1 164 0
 301 0062 0846     		mov	r0, r1
 302              	.LVL39:
 162:../cores/arduino/itoa.c ****   *sp = 0;
 303              		.loc 1 162 0
 304 0064 3370     		strb	r3, [r6]
 305              		.loc 1 165 0
 306 0066 0BB0     		add	sp, sp, #44
 307              		.cfi_def_cfa_offset 20
 308              		@ sp needed
 309 0068 F0BD     		pop	{r4, r5, r6, r7, pc}
 310              	.LVL40:
 311              	.L31:
 312              		.cfi_def_cfa_offset 0
 313              		.cfi_restore 4
 314              		.cfi_restore 5
 315              		.cfi_restore 6
 316              		.cfi_restore 7
 317              		.cfi_restore 14
 139:../cores/arduino/itoa.c ****   }
 318              		.loc 1 139 0
ARM GAS  /tmp/ccOyha2A.s 			page 10


 319 006a 0020     		movs	r0, #0
 320              	.LVL41:
 321 006c 7047     		bx	lr
 322              		.cfi_endproc
 323              	.LFE3:
 324              		.size	ultoa, .-ultoa
 325 006e 00BF     		.section	.text.utoa,"ax",%progbits
 326              		.align	1
 327              		.p2align 2,,3
 328              		.global	utoa
 329              		.syntax unified
 330              		.thumb
 331              		.thumb_func
 332              		.fpu fpv5-d16
 333              		.type	utoa, %function
 334              	utoa:
 335              	.LFB2:
 125:../cores/arduino/itoa.c ****   return ultoa( (unsigned long)value, string, radix ) ;
 336              		.loc 1 125 0
 337              		.cfi_startproc
 338              		@ args = 0, pretend = 0, frame = 0
 339              		@ frame_needed = 0, uses_anonymous_args = 0
 340              		@ link register save eliminated.
 341              	.LVL42:
 126:../cores/arduino/itoa.c **** }
 342              		.loc 1 126 0
 343 0000 FFF7FEBF 		b	ultoa
 344              	.LVL43:
 345              		.cfi_endproc
 346              	.LFE2:
 347              		.size	utoa, .-utoa
 348              		.text
 349              	.Letext0:
 350              		.file 2 "/usr/include/newlib/sys/lock.h"
 351              		.file 3 "/usr/include/newlib/sys/_types.h"
 352              		.file 4 "/usr/lib/gcc/arm-none-eabi/6.3.1/include/stddef.h"
 353              		.file 5 "/usr/include/newlib/sys/reent.h"