ARM GAS  /tmp/ccqzbxJl.s 			page 1


   1              		.cpu cortex-m7
   2              		.eabi_attribute 28, 1
   3              		.eabi_attribute 20, 1
   4              		.eabi_attribute 21, 1
   5              		.eabi_attribute 23, 3
   6              		.eabi_attribute 24, 1
   7              		.eabi_attribute 25, 1
   8              		.eabi_attribute 26, 1
   9              		.eabi_attribute 30, 2
  10              		.eabi_attribute 34, 1
  11              		.eabi_attribute 18, 4
  12              		.file	"pio.c"
  13              		.text
  14              	.Ltext0:
  15              		.cfi_sections	.debug_frame
  16              		.section	.text.pio_pull_up,"ax",%progbits
  17              		.align	1
  18              		.p2align 2,,3
  19              		.global	pio_pull_up
  20              		.syntax unified
  21              		.thumb
  22              		.thumb_func
  23              		.fpu fpv5-d16
  24              		.type	pio_pull_up, %function
  25              	pio_pull_up:
  26              	.LFB142:
  27              		.file 1 "../asf/sam/drivers/pio/pio.c"
   1:../asf/sam/drivers/pio/pio.c **** /**
   2:../asf/sam/drivers/pio/pio.c ****  * \file
   3:../asf/sam/drivers/pio/pio.c ****  *
   4:../asf/sam/drivers/pio/pio.c ****  * \brief Parallel Input/Output (PIO) Controller driver for SAM.
   5:../asf/sam/drivers/pio/pio.c ****  *
   6:../asf/sam/drivers/pio/pio.c ****  * Copyright (c) 2011-2016 Atmel Corporation. All rights reserved.
   7:../asf/sam/drivers/pio/pio.c ****  *
   8:../asf/sam/drivers/pio/pio.c ****  * \asf_license_start
   9:../asf/sam/drivers/pio/pio.c ****  *
  10:../asf/sam/drivers/pio/pio.c ****  * \page License
  11:../asf/sam/drivers/pio/pio.c ****  *
  12:../asf/sam/drivers/pio/pio.c ****  * Redistribution and use in source and binary forms, with or without
  13:../asf/sam/drivers/pio/pio.c ****  * modification, are permitted provided that the following conditions are met:
  14:../asf/sam/drivers/pio/pio.c ****  *
  15:../asf/sam/drivers/pio/pio.c ****  * 1. Redistributions of source code must retain the above copyright notice,
  16:../asf/sam/drivers/pio/pio.c ****  *    this list of conditions and the following disclaimer.
  17:../asf/sam/drivers/pio/pio.c ****  *
  18:../asf/sam/drivers/pio/pio.c ****  * 2. Redistributions in binary form must reproduce the above copyright notice,
  19:../asf/sam/drivers/pio/pio.c ****  *    this list of conditions and the following disclaimer in the documentation
  20:../asf/sam/drivers/pio/pio.c ****  *    and/or other materials provided with the distribution.
  21:../asf/sam/drivers/pio/pio.c ****  *
  22:../asf/sam/drivers/pio/pio.c ****  * 3. The name of Atmel may not be used to endorse or promote products derived
  23:../asf/sam/drivers/pio/pio.c ****  *    from this software without specific prior written permission.
  24:../asf/sam/drivers/pio/pio.c ****  *
  25:../asf/sam/drivers/pio/pio.c ****  * 4. This software may only be redistributed and used in connection with an
  26:../asf/sam/drivers/pio/pio.c ****  *    Atmel microcontroller product.
  27:../asf/sam/drivers/pio/pio.c ****  *
  28:../asf/sam/drivers/pio/pio.c ****  * THIS SOFTWARE IS PROVIDED BY ATMEL "AS IS" AND ANY EXPRESS OR IMPLIED
  29:../asf/sam/drivers/pio/pio.c ****  * WARRANTIES, INCLUDING, BUT NOT LIMITED TO, THE IMPLIED WARRANTIES OF
  30:../asf/sam/drivers/pio/pio.c ****  * MERCHANTABILITY, FITNESS FOR A PARTICULAR PURPOSE AND NON-INFRINGEMENT ARE
ARM GAS  /tmp/ccqzbxJl.s 			page 2


  31:../asf/sam/drivers/pio/pio.c ****  * EXPRESSLY AND SPECIFICALLY DISCLAIMED. IN NO EVENT SHALL ATMEL BE LIABLE FOR
  32:../asf/sam/drivers/pio/pio.c ****  * ANY DIRECT, INDIRECT, INCIDENTAL, SPECIAL, EXEMPLARY, OR CONSEQUENTIAL
  33:../asf/sam/drivers/pio/pio.c ****  * DAMAGES (INCLUDING, BUT NOT LIMITED TO, PROCUREMENT OF SUBSTITUTE GOODS
  34:../asf/sam/drivers/pio/pio.c ****  * OR SERVICES; LOSS OF USE, DATA, OR PROFITS; OR BUSINESS INTERRUPTION)
  35:../asf/sam/drivers/pio/pio.c ****  * HOWEVER CAUSED AND ON ANY THEORY OF LIABILITY, WHETHER IN CONTRACT,
  36:../asf/sam/drivers/pio/pio.c ****  * STRICT LIABILITY, OR TORT (INCLUDING NEGLIGENCE OR OTHERWISE) ARISING IN
  37:../asf/sam/drivers/pio/pio.c ****  * ANY WAY OUT OF THE USE OF THIS SOFTWARE, EVEN IF ADVISED OF THE
  38:../asf/sam/drivers/pio/pio.c ****  * POSSIBILITY OF SUCH DAMAGE.
  39:../asf/sam/drivers/pio/pio.c ****  *
  40:../asf/sam/drivers/pio/pio.c ****  * \asf_license_stop
  41:../asf/sam/drivers/pio/pio.c ****  *
  42:../asf/sam/drivers/pio/pio.c ****  */
  43:../asf/sam/drivers/pio/pio.c **** /*
  44:../asf/sam/drivers/pio/pio.c ****  * Support and FAQ: visit <a href="http://www.atmel.com/design-support/">Atmel Support</a>
  45:../asf/sam/drivers/pio/pio.c ****  */
  46:../asf/sam/drivers/pio/pio.c **** 
  47:../asf/sam/drivers/pio/pio.c **** #include "pio.h"
  48:../asf/sam/drivers/pio/pio.c **** 
  49:../asf/sam/drivers/pio/pio.c **** #ifndef PIO_WPMR_WPKEY_PASSWD
  50:../asf/sam/drivers/pio/pio.c **** #  define PIO_WPMR_WPKEY_PASSWD PIO_WPMR_WPKEY(0x50494Fu)
  51:../asf/sam/drivers/pio/pio.c **** #endif
  52:../asf/sam/drivers/pio/pio.c **** 
  53:../asf/sam/drivers/pio/pio.c **** /**
  54:../asf/sam/drivers/pio/pio.c ****  * \defgroup sam_drivers_pio_group Peripheral Parallel Input/Output (PIO) Controller
  55:../asf/sam/drivers/pio/pio.c ****  *
  56:../asf/sam/drivers/pio/pio.c ****  * \par Purpose
  57:../asf/sam/drivers/pio/pio.c ****  *
  58:../asf/sam/drivers/pio/pio.c ****  * The Parallel Input/Output Controller (PIO) manages up to 32 fully
  59:../asf/sam/drivers/pio/pio.c ****  * programmable input/output lines. Each I/O line may be dedicated as a
  60:../asf/sam/drivers/pio/pio.c ****  * general-purpose I/O or be assigned to a function of an embedded peripheral.
  61:../asf/sam/drivers/pio/pio.c ****  * This assures effective optimization of the pins of a product.
  62:../asf/sam/drivers/pio/pio.c ****  *
  63:../asf/sam/drivers/pio/pio.c ****  * @{
  64:../asf/sam/drivers/pio/pio.c ****  */
  65:../asf/sam/drivers/pio/pio.c **** 
  66:../asf/sam/drivers/pio/pio.c **** #ifndef FREQ_SLOW_CLOCK_EXT
  67:../asf/sam/drivers/pio/pio.c **** /* External slow clock frequency (hz) */
  68:../asf/sam/drivers/pio/pio.c **** #define FREQ_SLOW_CLOCK_EXT 32768
  69:../asf/sam/drivers/pio/pio.c **** #endif
  70:../asf/sam/drivers/pio/pio.c **** 
  71:../asf/sam/drivers/pio/pio.c **** /**
  72:../asf/sam/drivers/pio/pio.c ****  * \brief Configure PIO internal pull-up.
  73:../asf/sam/drivers/pio/pio.c ****  *
  74:../asf/sam/drivers/pio/pio.c ****  * \param p_pio Pointer to a PIO instance.
  75:../asf/sam/drivers/pio/pio.c ****  * \param ul_mask Bitmask of one or more pin(s) to configure.
  76:../asf/sam/drivers/pio/pio.c ****  * \param ul_pull_up_enable Indicates if the pin(s) internal pull-up shall be
  77:../asf/sam/drivers/pio/pio.c ****  * configured.
  78:../asf/sam/drivers/pio/pio.c ****  */
  79:../asf/sam/drivers/pio/pio.c **** void pio_pull_up(Pio *p_pio, const uint32_t ul_mask,
  80:../asf/sam/drivers/pio/pio.c **** 		const uint32_t ul_pull_up_enable)
  81:../asf/sam/drivers/pio/pio.c **** {
  28              		.loc 1 81 0
  29              		.cfi_startproc
  30              		@ args = 0, pretend = 0, frame = 0
  31              		@ frame_needed = 0, uses_anonymous_args = 0
  32              		@ link register save eliminated.
  33              	.LVL0:
ARM GAS  /tmp/ccqzbxJl.s 			page 3


  82:../asf/sam/drivers/pio/pio.c **** 	/* Enable the pull-up(s) if necessary */
  83:../asf/sam/drivers/pio/pio.c **** 	if (ul_pull_up_enable) {
  34              		.loc 1 83 0
  35 0000 0AB9     		cbnz	r2, .L5
  84:../asf/sam/drivers/pio/pio.c **** 		p_pio->PIO_PUER = ul_mask;
  85:../asf/sam/drivers/pio/pio.c **** 	} else {
  86:../asf/sam/drivers/pio/pio.c **** 		p_pio->PIO_PUDR = ul_mask;
  36              		.loc 1 86 0
  37 0002 0166     		str	r1, [r0, #96]
  38 0004 7047     		bx	lr
  39              	.L5:
  84:../asf/sam/drivers/pio/pio.c **** 		p_pio->PIO_PUER = ul_mask;
  40              		.loc 1 84 0
  41 0006 4166     		str	r1, [r0, #100]
  42 0008 7047     		bx	lr
  43              		.cfi_endproc
  44              	.LFE142:
  45              		.size	pio_pull_up, .-pio_pull_up
  46 000a 00BF     		.section	.text.pio_set_debounce_filter,"ax",%progbits
  47              		.align	1
  48              		.p2align 2,,3
  49              		.global	pio_set_debounce_filter
  50              		.syntax unified
  51              		.thumb
  52              		.thumb_func
  53              		.fpu fpv5-d16
  54              		.type	pio_set_debounce_filter, %function
  55              	pio_set_debounce_filter:
  56              	.LFB143:
  87:../asf/sam/drivers/pio/pio.c **** 	}
  88:../asf/sam/drivers/pio/pio.c **** }
  89:../asf/sam/drivers/pio/pio.c **** 
  90:../asf/sam/drivers/pio/pio.c **** /**
  91:../asf/sam/drivers/pio/pio.c ****  * \brief Configure Glitch or Debouncing filter for the specified input(s).
  92:../asf/sam/drivers/pio/pio.c ****  *
  93:../asf/sam/drivers/pio/pio.c ****  * \param p_pio Pointer to a PIO instance.
  94:../asf/sam/drivers/pio/pio.c ****  * \param ul_mask Bitmask of one or more pin(s) to configure.
  95:../asf/sam/drivers/pio/pio.c ****  * \param ul_cut_off Cuts off frequency for debouncing filter.
  96:../asf/sam/drivers/pio/pio.c ****  */
  97:../asf/sam/drivers/pio/pio.c **** void pio_set_debounce_filter(Pio *p_pio, const uint32_t ul_mask,
  98:../asf/sam/drivers/pio/pio.c **** 		const uint32_t ul_cut_off)
  99:../asf/sam/drivers/pio/pio.c **** {
  57              		.loc 1 99 0
  58              		.cfi_startproc
  59              		@ args = 0, pretend = 0, frame = 0
  60              		@ frame_needed = 0, uses_anonymous_args = 0
  61              		@ link register save eliminated.
  62              	.LVL1:
 100:../asf/sam/drivers/pio/pio.c **** #if (SAM3S || SAM3N || SAM4S || SAM4E || SAM4N || SAM4C || SAMG || SAM4CP || SAM4CM || SAMV71 || SA
 101:../asf/sam/drivers/pio/pio.c **** 	/* Set Debouncing, 0 bit field no effect */
 102:../asf/sam/drivers/pio/pio.c **** 	p_pio->PIO_IFSCER = ul_mask;
 103:../asf/sam/drivers/pio/pio.c **** #elif (SAM3XA || SAM3U)
 104:../asf/sam/drivers/pio/pio.c **** 	/* Set Debouncing, 0 bit field no effect */
 105:../asf/sam/drivers/pio/pio.c **** 	p_pio->PIO_DIFSR = ul_mask;
 106:../asf/sam/drivers/pio/pio.c **** #else
 107:../asf/sam/drivers/pio/pio.c **** #error "Unsupported device"
 108:../asf/sam/drivers/pio/pio.c **** #endif
ARM GAS  /tmp/ccqzbxJl.s 			page 4


 109:../asf/sam/drivers/pio/pio.c **** 
 110:../asf/sam/drivers/pio/pio.c **** 	/*
 111:../asf/sam/drivers/pio/pio.c **** 	 * The debouncing filter can filter a pulse of less than 1/2 Period of a
 112:../asf/sam/drivers/pio/pio.c **** 	 * programmable Divided Slow Clock:
 113:../asf/sam/drivers/pio/pio.c **** 	 * Tdiv_slclk = ((DIV+1)*2).Tslow_clock
 114:../asf/sam/drivers/pio/pio.c **** 	 */
 115:../asf/sam/drivers/pio/pio.c **** 	p_pio->PIO_SCDR = PIO_SCDR_DIV((FREQ_SLOW_CLOCK_EXT /
  63              		.loc 1 115 0
  64 0000 5200     		lsls	r2, r2, #1
  65              	.LVL2:
  66 0002 4FF40043 		mov	r3, #32768
 102:../asf/sam/drivers/pio/pio.c **** #elif (SAM3XA || SAM3U)
  67              		.loc 1 102 0
  68 0006 C0F88410 		str	r1, [r0, #132]
  69              		.loc 1 115 0
  70 000a B3FBF2F3 		udiv	r3, r3, r2
  71 000e 013B     		subs	r3, r3, #1
  72 0010 C3F30D03 		ubfx	r3, r3, #0, #14
  73 0014 C0F88C30 		str	r3, [r0, #140]
  74 0018 7047     		bx	lr
  75              		.cfi_endproc
  76              	.LFE143:
  77              		.size	pio_set_debounce_filter, .-pio_set_debounce_filter
  78 001a 00BF     		.section	.text.pio_set,"ax",%progbits
  79              		.align	1
  80              		.p2align 2,,3
  81              		.global	pio_set
  82              		.syntax unified
  83              		.thumb
  84              		.thumb_func
  85              		.fpu fpv5-d16
  86              		.type	pio_set, %function
  87              	pio_set:
  88              	.LFB195:
  89              		.cfi_startproc
  90              		@ args = 0, pretend = 0, frame = 0
  91              		@ frame_needed = 0, uses_anonymous_args = 0
  92              		@ link register save eliminated.
  93 0000 0163     		str	r1, [r0, #48]
  94 0002 7047     		bx	lr
  95              		.cfi_endproc
  96              	.LFE195:
  97              		.size	pio_set, .-pio_set
  98              		.section	.text.pio_clear,"ax",%progbits
  99              		.align	1
 100              		.p2align 2,,3
 101              		.global	pio_clear
 102              		.syntax unified
 103              		.thumb
 104              		.thumb_func
 105              		.fpu fpv5-d16
 106              		.type	pio_clear, %function
 107              	pio_clear:
 108              	.LFB193:
 109              		.cfi_startproc
 110              		@ args = 0, pretend = 0, frame = 0
 111              		@ frame_needed = 0, uses_anonymous_args = 0
ARM GAS  /tmp/ccqzbxJl.s 			page 5


 112              		@ link register save eliminated.
 113 0000 4163     		str	r1, [r0, #52]
 114 0002 7047     		bx	lr
 115              		.cfi_endproc
 116              	.LFE193:
 117              		.size	pio_clear, .-pio_clear
 118              		.section	.text.pio_get,"ax",%progbits
 119              		.align	1
 120              		.p2align 2,,3
 121              		.global	pio_get
 122              		.syntax unified
 123              		.thumb
 124              		.thumb_func
 125              		.fpu fpv5-d16
 126              		.type	pio_get, %function
 127              	pio_get:
 128              	.LFB146:
 116:../asf/sam/drivers/pio/pio.c **** 			(2 * (ul_cut_off))) - 1);
 117:../asf/sam/drivers/pio/pio.c **** }
 118:../asf/sam/drivers/pio/pio.c **** 
 119:../asf/sam/drivers/pio/pio.c **** /**
 120:../asf/sam/drivers/pio/pio.c ****  * \brief Set a high output level on all the PIOs defined in ul_mask.
 121:../asf/sam/drivers/pio/pio.c ****  * This has no immediate effects on PIOs that are not output, but the PIO
 122:../asf/sam/drivers/pio/pio.c ****  * controller will save the value if they are changed to outputs.
 123:../asf/sam/drivers/pio/pio.c ****  *
 124:../asf/sam/drivers/pio/pio.c ****  * \param p_pio Pointer to a PIO instance.
 125:../asf/sam/drivers/pio/pio.c ****  * \param ul_mask Bitmask of one or more pin(s) to configure.
 126:../asf/sam/drivers/pio/pio.c ****  */
 127:../asf/sam/drivers/pio/pio.c **** void pio_set(Pio *p_pio, const uint32_t ul_mask)
 128:../asf/sam/drivers/pio/pio.c **** {
 129:../asf/sam/drivers/pio/pio.c **** 	p_pio->PIO_SODR = ul_mask;
 130:../asf/sam/drivers/pio/pio.c **** }
 131:../asf/sam/drivers/pio/pio.c **** 
 132:../asf/sam/drivers/pio/pio.c **** /**
 133:../asf/sam/drivers/pio/pio.c ****  * \brief Set a low output level on all the PIOs defined in ul_mask.
 134:../asf/sam/drivers/pio/pio.c ****  * This has no immediate effects on PIOs that are not output, but the PIO
 135:../asf/sam/drivers/pio/pio.c ****  * controller will save the value if they are changed to outputs.
 136:../asf/sam/drivers/pio/pio.c ****  *
 137:../asf/sam/drivers/pio/pio.c ****  * \param p_pio Pointer to a PIO instance.
 138:../asf/sam/drivers/pio/pio.c ****  * \param ul_mask Bitmask of one or more pin(s) to configure.
 139:../asf/sam/drivers/pio/pio.c ****  */
 140:../asf/sam/drivers/pio/pio.c **** void pio_clear(Pio *p_pio, const uint32_t ul_mask)
 141:../asf/sam/drivers/pio/pio.c **** {
 142:../asf/sam/drivers/pio/pio.c **** 	p_pio->PIO_CODR = ul_mask;
 143:../asf/sam/drivers/pio/pio.c **** }
 144:../asf/sam/drivers/pio/pio.c **** 
 145:../asf/sam/drivers/pio/pio.c **** /**
 146:../asf/sam/drivers/pio/pio.c ****  * \brief Return 1 if one or more PIOs of the given Pin instance currently have
 147:../asf/sam/drivers/pio/pio.c ****  * a high level; otherwise returns 0. This method returns the actual value that
 148:../asf/sam/drivers/pio/pio.c ****  * is being read on the pin. To return the supposed output value of a pin, use
 149:../asf/sam/drivers/pio/pio.c ****  * pio_get_output_data_status() instead.
 150:../asf/sam/drivers/pio/pio.c ****  *
 151:../asf/sam/drivers/pio/pio.c ****  * \param p_pio Pointer to a PIO instance.
 152:../asf/sam/drivers/pio/pio.c ****  * \param ul_type PIO type.
 153:../asf/sam/drivers/pio/pio.c ****  * \param ul_mask Bitmask of one or more pin(s) to configure.
 154:../asf/sam/drivers/pio/pio.c ****  *
 155:../asf/sam/drivers/pio/pio.c ****  * \retval 1 at least one PIO currently has a high level.
ARM GAS  /tmp/ccqzbxJl.s 			page 6


 156:../asf/sam/drivers/pio/pio.c ****  * \retval 0 all PIOs have a low level.
 157:../asf/sam/drivers/pio/pio.c ****  */
 158:../asf/sam/drivers/pio/pio.c **** uint32_t pio_get(Pio *p_pio, const pio_type_t ul_type,
 159:../asf/sam/drivers/pio/pio.c **** 		const uint32_t ul_mask)
 160:../asf/sam/drivers/pio/pio.c **** {
 129              		.loc 1 160 0
 130              		.cfi_startproc
 131              		@ args = 0, pretend = 0, frame = 0
 132              		@ frame_needed = 0, uses_anonymous_args = 0
 133              		@ link register save eliminated.
 134              	.LVL3:
 161:../asf/sam/drivers/pio/pio.c **** 	uint32_t ul_reg;
 162:../asf/sam/drivers/pio/pio.c **** 
 163:../asf/sam/drivers/pio/pio.c **** 	if ((ul_type == PIO_OUTPUT_0) || (ul_type == PIO_OUTPUT_1)) {
 135              		.loc 1 163 0
 136 0000 21F00061 		bic	r1, r1, #134217728
 137              	.LVL4:
 138 0004 B1F1405F 		cmp	r1, #805306368
 139 0008 05D1     		bne	.L10
 164:../asf/sam/drivers/pio/pio.c **** 		ul_reg = p_pio->PIO_ODSR;
 140              		.loc 1 164 0
 141 000a 836B     		ldr	r3, [r0, #56]
 142              	.LVL5:
 143              	.L11:
 165:../asf/sam/drivers/pio/pio.c **** 	} else {
 166:../asf/sam/drivers/pio/pio.c **** 		ul_reg = p_pio->PIO_PDSR;
 167:../asf/sam/drivers/pio/pio.c **** 	}
 168:../asf/sam/drivers/pio/pio.c **** 
 169:../asf/sam/drivers/pio/pio.c **** 	if ((ul_reg & ul_mask) == 0) {
 144              		.loc 1 169 0
 145 000c 1342     		tst	r3, r2
 170:../asf/sam/drivers/pio/pio.c **** 		return 0;
 171:../asf/sam/drivers/pio/pio.c **** 	} else {
 172:../asf/sam/drivers/pio/pio.c **** 		return 1;
 173:../asf/sam/drivers/pio/pio.c **** 	}
 174:../asf/sam/drivers/pio/pio.c **** }
 146              		.loc 1 174 0
 147 000e 14BF     		ite	ne
 148 0010 0120     		movne	r0, #1
 149              	.LVL6:
 150 0012 0020     		moveq	r0, #0
 151 0014 7047     		bx	lr
 152              	.LVL7:
 153              	.L10:
 166:../asf/sam/drivers/pio/pio.c **** 	}
 154              		.loc 1 166 0
 155 0016 C36B     		ldr	r3, [r0, #60]
 156              	.LVL8:
 157 0018 F8E7     		b	.L11
 158              		.cfi_endproc
 159              	.LFE146:
 160              		.size	pio_get, .-pio_get
 161 001a 00BF     		.section	.text.pio_set_peripheral,"ax",%progbits
 162              		.align	1
 163              		.p2align 2,,3
 164              		.global	pio_set_peripheral
 165              		.syntax unified
ARM GAS  /tmp/ccqzbxJl.s 			page 7


 166              		.thumb
 167              		.thumb_func
 168              		.fpu fpv5-d16
 169              		.type	pio_set_peripheral, %function
 170              	pio_set_peripheral:
 171              	.LFB147:
 175:../asf/sam/drivers/pio/pio.c **** 
 176:../asf/sam/drivers/pio/pio.c **** /**
 177:../asf/sam/drivers/pio/pio.c ****  * \brief Configure IO of a PIO controller as being controlled by a specific
 178:../asf/sam/drivers/pio/pio.c ****  * peripheral.
 179:../asf/sam/drivers/pio/pio.c ****  *
 180:../asf/sam/drivers/pio/pio.c ****  * \param p_pio Pointer to a PIO instance.
 181:../asf/sam/drivers/pio/pio.c ****  * \param ul_type PIO type.
 182:../asf/sam/drivers/pio/pio.c ****  * \param ul_mask Bitmask of one or more pin(s) to configure.
 183:../asf/sam/drivers/pio/pio.c ****  */
 184:../asf/sam/drivers/pio/pio.c **** void pio_set_peripheral(Pio *p_pio, const pio_type_t ul_type,
 185:../asf/sam/drivers/pio/pio.c **** 		const uint32_t ul_mask)
 186:../asf/sam/drivers/pio/pio.c **** {
 172              		.loc 1 186 0
 173              		.cfi_startproc
 174              		@ args = 0, pretend = 0, frame = 0
 175              		@ frame_needed = 0, uses_anonymous_args = 0
 176              		@ link register save eliminated.
 177              	.LVL9:
 187:../asf/sam/drivers/pio/pio.c **** 	uint32_t ul_sr;
 188:../asf/sam/drivers/pio/pio.c **** 
 189:../asf/sam/drivers/pio/pio.c **** 	/* Disable interrupts on the pin(s) */
 190:../asf/sam/drivers/pio/pio.c **** 	p_pio->PIO_IDR = ul_mask;
 191:../asf/sam/drivers/pio/pio.c **** 
 192:../asf/sam/drivers/pio/pio.c **** #if (SAM3S || SAM3N || SAM4S || SAM4E || SAM4N || SAM4C || SAMG || SAM4CP || SAM4CM || SAMV71 || SA
 193:../asf/sam/drivers/pio/pio.c **** 	switch (ul_type) {
 178              		.loc 1 193 0
 179 0000 B1F1C05F 		cmp	r1, #402653184
 190:../asf/sam/drivers/pio/pio.c **** 
 180              		.loc 1 190 0
 181 0004 4264     		str	r2, [r0, #68]
 182              		.loc 1 193 0
 183 0006 34D0     		beq	.L14
 184 0008 10D8     		bhi	.L15
 185 000a B1F1006F 		cmp	r1, #134217728
 186 000e 1CD0     		beq	.L16
 187 0010 B1F1805F 		cmp	r1, #268435456
 188 0014 2AD1     		bne	.L38
 194:../asf/sam/drivers/pio/pio.c **** 	case PIO_PERIPH_A:
 195:../asf/sam/drivers/pio/pio.c **** 		ul_sr = p_pio->PIO_ABCDSR[0];
 196:../asf/sam/drivers/pio/pio.c **** 		p_pio->PIO_ABCDSR[0] &= (~ul_mask & ul_sr);
 197:../asf/sam/drivers/pio/pio.c **** 
 198:../asf/sam/drivers/pio/pio.c **** 		ul_sr = p_pio->PIO_ABCDSR[1];
 199:../asf/sam/drivers/pio/pio.c **** 		p_pio->PIO_ABCDSR[1] &= (~ul_mask & ul_sr);
 200:../asf/sam/drivers/pio/pio.c **** 		break;
 201:../asf/sam/drivers/pio/pio.c **** 	case PIO_PERIPH_B:
 202:../asf/sam/drivers/pio/pio.c **** 		ul_sr = p_pio->PIO_ABCDSR[0];
 189              		.loc 1 202 0
 190 0016 036F     		ldr	r3, [r0, #112]
 191              	.LVL10:
 203:../asf/sam/drivers/pio/pio.c **** 		p_pio->PIO_ABCDSR[0] = (ul_mask | ul_sr);
 192              		.loc 1 203 0
ARM GAS  /tmp/ccqzbxJl.s 			page 8


 193 0018 1343     		orrs	r3, r3, r2
 194              	.LVL11:
 195 001a 0367     		str	r3, [r0, #112]
 204:../asf/sam/drivers/pio/pio.c **** 
 205:../asf/sam/drivers/pio/pio.c **** 		ul_sr = p_pio->PIO_ABCDSR[1];
 196              		.loc 1 205 0
 197 001c 436F     		ldr	r3, [r0, #116]
 198              	.LVL12:
 206:../asf/sam/drivers/pio/pio.c **** 		p_pio->PIO_ABCDSR[1] &= (~ul_mask & ul_sr);
 199              		.loc 1 206 0
 200 001e 416F     		ldr	r1, [r0, #116]
 201              	.LVL13:
 202 0020 0B40     		ands	r3, r3, r1
 203              	.LVL14:
 204 0022 23EA0203 		bic	r3, r3, r2
 205 0026 4367     		str	r3, [r0, #116]
 206              	.L34:
 207:../asf/sam/drivers/pio/pio.c **** 		break;
 208:../asf/sam/drivers/pio/pio.c **** #if (!SAMG)
 209:../asf/sam/drivers/pio/pio.c **** 	case PIO_PERIPH_C:
 210:../asf/sam/drivers/pio/pio.c **** 		ul_sr = p_pio->PIO_ABCDSR[0];
 211:../asf/sam/drivers/pio/pio.c **** 		p_pio->PIO_ABCDSR[0] &= (~ul_mask & ul_sr);
 212:../asf/sam/drivers/pio/pio.c **** 
 213:../asf/sam/drivers/pio/pio.c **** 		ul_sr = p_pio->PIO_ABCDSR[1];
 214:../asf/sam/drivers/pio/pio.c **** 		p_pio->PIO_ABCDSR[1] = (ul_mask | ul_sr);
 215:../asf/sam/drivers/pio/pio.c **** 		break;
 216:../asf/sam/drivers/pio/pio.c **** 	case PIO_PERIPH_D:
 217:../asf/sam/drivers/pio/pio.c **** 		ul_sr = p_pio->PIO_ABCDSR[0];
 218:../asf/sam/drivers/pio/pio.c **** 		p_pio->PIO_ABCDSR[0] = (ul_mask | ul_sr);
 219:../asf/sam/drivers/pio/pio.c **** 
 220:../asf/sam/drivers/pio/pio.c **** 		ul_sr = p_pio->PIO_ABCDSR[1];
 221:../asf/sam/drivers/pio/pio.c **** 		p_pio->PIO_ABCDSR[1] = (ul_mask | ul_sr);
 222:../asf/sam/drivers/pio/pio.c **** 		break;
 223:../asf/sam/drivers/pio/pio.c **** #endif
 224:../asf/sam/drivers/pio/pio.c **** 		/* Other types are invalid in this function */
 225:../asf/sam/drivers/pio/pio.c **** 	case PIO_INPUT:
 226:../asf/sam/drivers/pio/pio.c **** 	case PIO_OUTPUT_0:
 227:../asf/sam/drivers/pio/pio.c **** 	case PIO_OUTPUT_1:
 228:../asf/sam/drivers/pio/pio.c **** 	case PIO_NOT_A_PIN:
 229:../asf/sam/drivers/pio/pio.c **** 		return;
 230:../asf/sam/drivers/pio/pio.c **** 	}
 231:../asf/sam/drivers/pio/pio.c **** #elif (SAM3XA|| SAM3U)
 232:../asf/sam/drivers/pio/pio.c **** 	switch (ul_type) {
 233:../asf/sam/drivers/pio/pio.c **** 	case PIO_PERIPH_A:
 234:../asf/sam/drivers/pio/pio.c **** 		ul_sr = p_pio->PIO_ABSR;
 235:../asf/sam/drivers/pio/pio.c **** 		p_pio->PIO_ABSR &= (~ul_mask & ul_sr);
 236:../asf/sam/drivers/pio/pio.c **** 		break;
 237:../asf/sam/drivers/pio/pio.c **** 
 238:../asf/sam/drivers/pio/pio.c **** 	case PIO_PERIPH_B:
 239:../asf/sam/drivers/pio/pio.c **** 		ul_sr = p_pio->PIO_ABSR;
 240:../asf/sam/drivers/pio/pio.c **** 		p_pio->PIO_ABSR = (ul_mask | ul_sr);
 241:../asf/sam/drivers/pio/pio.c **** 		break;
 242:../asf/sam/drivers/pio/pio.c **** 
 243:../asf/sam/drivers/pio/pio.c **** 		// other types are invalid in this function
 244:../asf/sam/drivers/pio/pio.c **** 	case PIO_INPUT:
 245:../asf/sam/drivers/pio/pio.c **** 	case PIO_OUTPUT_0:
 246:../asf/sam/drivers/pio/pio.c **** 	case PIO_OUTPUT_1:
ARM GAS  /tmp/ccqzbxJl.s 			page 9


 247:../asf/sam/drivers/pio/pio.c **** 	case PIO_NOT_A_PIN:
 248:../asf/sam/drivers/pio/pio.c **** 		return;
 249:../asf/sam/drivers/pio/pio.c **** 	}
 250:../asf/sam/drivers/pio/pio.c **** #else
 251:../asf/sam/drivers/pio/pio.c **** #error "Unsupported device"
 252:../asf/sam/drivers/pio/pio.c **** #endif
 253:../asf/sam/drivers/pio/pio.c **** 
 254:../asf/sam/drivers/pio/pio.c **** 	/* Remove the pins from under the control of PIO */
 255:../asf/sam/drivers/pio/pio.c **** 	p_pio->PIO_PDR = ul_mask;
 207              		.loc 1 255 0
 208 0028 4260     		str	r2, [r0, #4]
 209 002a 7047     		bx	lr
 210              	.LVL15:
 211              	.L15:
 193:../asf/sam/drivers/pio/pio.c **** 	case PIO_PERIPH_A:
 212              		.loc 1 193 0
 213 002c B1F1205F 		cmp	r1, #671088640
 214 0030 1BD0     		beq	.L37
 215 0032 29D8     		bhi	.L19
 216 0034 B1F1005F 		cmp	r1, #536870912
 217 0038 F6D1     		bne	.L34
 217:../asf/sam/drivers/pio/pio.c **** 		p_pio->PIO_ABCDSR[0] = (ul_mask | ul_sr);
 218              		.loc 1 217 0
 219 003a 036F     		ldr	r3, [r0, #112]
 220              	.LVL16:
 218:../asf/sam/drivers/pio/pio.c **** 
 221              		.loc 1 218 0
 222 003c 1343     		orrs	r3, r3, r2
 223              	.LVL17:
 224 003e 0367     		str	r3, [r0, #112]
 220:../asf/sam/drivers/pio/pio.c **** 		p_pio->PIO_ABCDSR[1] = (ul_mask | ul_sr);
 225              		.loc 1 220 0
 226 0040 436F     		ldr	r3, [r0, #116]
 227              	.LVL18:
 221:../asf/sam/drivers/pio/pio.c **** 		break;
 228              		.loc 1 221 0
 229 0042 1343     		orrs	r3, r3, r2
 230              	.LVL19:
 231 0044 4367     		str	r3, [r0, #116]
 232              		.loc 1 255 0
 233 0046 4260     		str	r2, [r0, #4]
 234 0048 7047     		bx	lr
 235              	.L16:
 195:../asf/sam/drivers/pio/pio.c **** 		p_pio->PIO_ABCDSR[0] &= (~ul_mask & ul_sr);
 236              		.loc 1 195 0
 237 004a 016F     		ldr	r1, [r0, #112]
 238              	.LVL20:
 196:../asf/sam/drivers/pio/pio.c **** 
 239              		.loc 1 196 0
 240 004c D343     		mvns	r3, r2
 186:../asf/sam/drivers/pio/pio.c **** 	uint32_t ul_sr;
 241              		.loc 1 186 0
 242 004e 10B4     		push	{r4}
 243              		.cfi_def_cfa_offset 4
 244              		.cfi_offset 4, -4
 196:../asf/sam/drivers/pio/pio.c **** 
 245              		.loc 1 196 0
ARM GAS  /tmp/ccqzbxJl.s 			page 10


 246 0050 046F     		ldr	r4, [r0, #112]
 247 0052 2140     		ands	r1, r1, r4
 248              	.LVL21:
 249 0054 1C46     		mov	r4, r3
 250 0056 1940     		ands	r1, r1, r3
 251 0058 0167     		str	r1, [r0, #112]
 198:../asf/sam/drivers/pio/pio.c **** 		p_pio->PIO_ABCDSR[1] &= (~ul_mask & ul_sr);
 252              		.loc 1 198 0
 253 005a 436F     		ldr	r3, [r0, #116]
 254              	.LVL22:
 199:../asf/sam/drivers/pio/pio.c **** 		break;
 255              		.loc 1 199 0
 256 005c 416F     		ldr	r1, [r0, #116]
 257 005e 0B40     		ands	r3, r3, r1
 258              	.LVL23:
 259 0060 2340     		ands	r3, r3, r4
 256:../asf/sam/drivers/pio/pio.c **** }
 260              		.loc 1 256 0
 261 0062 5DF8044B 		ldr	r4, [sp], #4
 262              		.cfi_restore 4
 263              		.cfi_def_cfa_offset 0
 199:../asf/sam/drivers/pio/pio.c **** 		break;
 264              		.loc 1 199 0
 265 0066 4367     		str	r3, [r0, #116]
 255:../asf/sam/drivers/pio/pio.c **** }
 266              		.loc 1 255 0
 267 0068 4260     		str	r2, [r0, #4]
 268              	.L37:
 269              		.loc 1 256 0
 270 006a 7047     		bx	lr
 271              	.LVL24:
 272              	.L38:
 193:../asf/sam/drivers/pio/pio.c **** 	case PIO_PERIPH_A:
 273              		.loc 1 193 0
 274 006c 0029     		cmp	r1, #0
 275 006e DBD1     		bne	.L34
 276 0070 7047     		bx	lr
 277              	.L14:
 210:../asf/sam/drivers/pio/pio.c **** 		p_pio->PIO_ABCDSR[0] &= (~ul_mask & ul_sr);
 278              		.loc 1 210 0
 279 0072 036F     		ldr	r3, [r0, #112]
 280              	.LVL25:
 211:../asf/sam/drivers/pio/pio.c **** 
 281              		.loc 1 211 0
 282 0074 016F     		ldr	r1, [r0, #112]
 283              	.LVL26:
 284 0076 0B40     		ands	r3, r3, r1
 285              	.LVL27:
 286 0078 23EA0203 		bic	r3, r3, r2
 287 007c 0367     		str	r3, [r0, #112]
 213:../asf/sam/drivers/pio/pio.c **** 		p_pio->PIO_ABCDSR[1] = (ul_mask | ul_sr);
 288              		.loc 1 213 0
 289 007e 436F     		ldr	r3, [r0, #116]
 290              	.LVL28:
 214:../asf/sam/drivers/pio/pio.c **** 		break;
 291              		.loc 1 214 0
 292 0080 1343     		orrs	r3, r3, r2
ARM GAS  /tmp/ccqzbxJl.s 			page 11


 293              	.LVL29:
 294 0082 4367     		str	r3, [r0, #116]
 255:../asf/sam/drivers/pio/pio.c **** }
 295              		.loc 1 255 0
 296 0084 4260     		str	r2, [r0, #4]
 297 0086 7047     		bx	lr
 298              	.LVL30:
 299              	.L19:
 193:../asf/sam/drivers/pio/pio.c **** 	case PIO_PERIPH_A:
 300              		.loc 1 193 0
 301 0088 B1F1405F 		cmp	r1, #805306368
 302 008c EDD0     		beq	.L37
 303 008e B1F1605F 		cmp	r1, #939524096
 304 0092 EAD0     		beq	.L37
 305 0094 C8E7     		b	.L34
 306              		.cfi_endproc
 307              	.LFE147:
 308              		.size	pio_set_peripheral, .-pio_set_peripheral
 309 0096 00BF     		.section	.text.pio_set_input,"ax",%progbits
 310              		.align	1
 311              		.p2align 2,,3
 312              		.global	pio_set_input
 313              		.syntax unified
 314              		.thumb
 315              		.thumb_func
 316              		.fpu fpv5-d16
 317              		.type	pio_set_input, %function
 318              	pio_set_input:
 319              	.LFB148:
 257:../asf/sam/drivers/pio/pio.c **** 
 258:../asf/sam/drivers/pio/pio.c **** /**
 259:../asf/sam/drivers/pio/pio.c ****  * \brief Configure one or more pin(s) or a PIO controller as inputs.
 260:../asf/sam/drivers/pio/pio.c ****  * Optionally, the corresponding internal pull-up(s) and glitch filter(s) can
 261:../asf/sam/drivers/pio/pio.c ****  * be enabled.
 262:../asf/sam/drivers/pio/pio.c ****  *
 263:../asf/sam/drivers/pio/pio.c ****  * \param p_pio Pointer to a PIO instance.
 264:../asf/sam/drivers/pio/pio.c ****  * \param ul_mask Bitmask indicating which pin(s) to configure as input(s).
 265:../asf/sam/drivers/pio/pio.c ****  * \param ul_attribute PIO attribute(s).
 266:../asf/sam/drivers/pio/pio.c ****  */
 267:../asf/sam/drivers/pio/pio.c **** void pio_set_input(Pio *p_pio, const uint32_t ul_mask,
 268:../asf/sam/drivers/pio/pio.c **** 		const uint32_t ul_attribute)
 269:../asf/sam/drivers/pio/pio.c **** {
 320              		.loc 1 269 0
 321              		.cfi_startproc
 322              		@ args = 0, pretend = 0, frame = 0
 323              		@ frame_needed = 0, uses_anonymous_args = 0
 324              		@ link register save eliminated.
 325              	.LVL31:
 326              	.LBB94:
 327              	.LBB95:
  83:../asf/sam/drivers/pio/pio.c **** 		p_pio->PIO_PUER = ul_mask;
 328              		.loc 1 83 0
 329 0000 D307     		lsls	r3, r2, #31
 330              	.LBE95:
 331              	.LBE94:
 332              	.LBB98:
 333              	.LBB99:
ARM GAS  /tmp/ccqzbxJl.s 			page 12


 270:../asf/sam/drivers/pio/pio.c **** 	pio_disable_interrupt(p_pio, ul_mask);
 271:../asf/sam/drivers/pio/pio.c **** 	pio_pull_up(p_pio, ul_mask, ul_attribute & PIO_PULLUP);
 272:../asf/sam/drivers/pio/pio.c **** 
 273:../asf/sam/drivers/pio/pio.c **** 	/* Enable Input Filter if necessary */
 274:../asf/sam/drivers/pio/pio.c **** 	if (ul_attribute & (PIO_DEGLITCH | PIO_DEBOUNCE)) {
 275:../asf/sam/drivers/pio/pio.c **** 		p_pio->PIO_IFER = ul_mask;
 276:../asf/sam/drivers/pio/pio.c **** 	} else {
 277:../asf/sam/drivers/pio/pio.c **** 		p_pio->PIO_IFDR = ul_mask;
 278:../asf/sam/drivers/pio/pio.c **** 	}
 279:../asf/sam/drivers/pio/pio.c **** 
 280:../asf/sam/drivers/pio/pio.c **** #if (SAM3S || SAM3N || SAM4S || SAM4E || SAM4N || SAM4C || SAMG || SAM4CP || SAM4CM || SAMV71 || SA
 281:../asf/sam/drivers/pio/pio.c **** 	/* Enable de-glitch or de-bounce if necessary */
 282:../asf/sam/drivers/pio/pio.c **** 	if (ul_attribute & PIO_DEGLITCH) {
 283:../asf/sam/drivers/pio/pio.c **** 		p_pio->PIO_IFSCDR = ul_mask;
 284:../asf/sam/drivers/pio/pio.c **** 	} else {
 285:../asf/sam/drivers/pio/pio.c **** 		if (ul_attribute & PIO_DEBOUNCE) {
 286:../asf/sam/drivers/pio/pio.c **** 			p_pio->PIO_IFSCER = ul_mask;
 287:../asf/sam/drivers/pio/pio.c **** 		}
 288:../asf/sam/drivers/pio/pio.c **** 	}
 289:../asf/sam/drivers/pio/pio.c **** #elif (SAM3XA|| SAM3U)
 290:../asf/sam/drivers/pio/pio.c **** 	/* Enable de-glitch or de-bounce if necessary */
 291:../asf/sam/drivers/pio/pio.c **** 	if (ul_attribute & PIO_DEGLITCH) {
 292:../asf/sam/drivers/pio/pio.c **** 		p_pio->PIO_SCIFSR = ul_mask;
 293:../asf/sam/drivers/pio/pio.c **** 	} else {
 294:../asf/sam/drivers/pio/pio.c **** 		if (ul_attribute & PIO_DEBOUNCE) {
 295:../asf/sam/drivers/pio/pio.c **** 			p_pio->PIO_DIFSR = ul_mask;
 296:../asf/sam/drivers/pio/pio.c **** 		}
 297:../asf/sam/drivers/pio/pio.c **** 	}
 298:../asf/sam/drivers/pio/pio.c **** #else
 299:../asf/sam/drivers/pio/pio.c **** #error "Unsupported device"
 300:../asf/sam/drivers/pio/pio.c **** #endif
 301:../asf/sam/drivers/pio/pio.c **** 
 302:../asf/sam/drivers/pio/pio.c **** 	/* Configure pin as input */
 303:../asf/sam/drivers/pio/pio.c **** 	p_pio->PIO_ODR = ul_mask;
 304:../asf/sam/drivers/pio/pio.c **** 	p_pio->PIO_PER = ul_mask;
 305:../asf/sam/drivers/pio/pio.c **** }
 306:../asf/sam/drivers/pio/pio.c **** 
 307:../asf/sam/drivers/pio/pio.c **** /**
 308:../asf/sam/drivers/pio/pio.c ****  * \brief Configure one or more pin(s) of a PIO controller as outputs, with
 309:../asf/sam/drivers/pio/pio.c ****  * the given default value. Optionally, the multi-drive feature can be enabled
 310:../asf/sam/drivers/pio/pio.c ****  * on the pin(s).
 311:../asf/sam/drivers/pio/pio.c ****  *
 312:../asf/sam/drivers/pio/pio.c ****  * \param p_pio Pointer to a PIO instance.
 313:../asf/sam/drivers/pio/pio.c ****  * \param ul_mask Bitmask indicating which pin(s) to configure.
 314:../asf/sam/drivers/pio/pio.c ****  * \param ul_default_level Default level on the pin(s).
 315:../asf/sam/drivers/pio/pio.c ****  * \param ul_multidrive_enable Indicates if the pin(s) shall be configured as
 316:../asf/sam/drivers/pio/pio.c ****  * open-drain.
 317:../asf/sam/drivers/pio/pio.c ****  * \param ul_pull_up_enable Indicates if the pin shall have its pull-up
 318:../asf/sam/drivers/pio/pio.c ****  * activated.
 319:../asf/sam/drivers/pio/pio.c ****  */
 320:../asf/sam/drivers/pio/pio.c **** void pio_set_output(Pio *p_pio, const uint32_t ul_mask,
 321:../asf/sam/drivers/pio/pio.c **** 		const uint32_t ul_default_level,
 322:../asf/sam/drivers/pio/pio.c **** 		const uint32_t ul_multidrive_enable,
 323:../asf/sam/drivers/pio/pio.c **** 		const uint32_t ul_pull_up_enable)
 324:../asf/sam/drivers/pio/pio.c **** {
 325:../asf/sam/drivers/pio/pio.c **** 	pio_disable_interrupt(p_pio, ul_mask);
 326:../asf/sam/drivers/pio/pio.c **** 	pio_pull_up(p_pio, ul_mask, ul_pull_up_enable);
ARM GAS  /tmp/ccqzbxJl.s 			page 13


 327:../asf/sam/drivers/pio/pio.c **** 
 328:../asf/sam/drivers/pio/pio.c **** 	/* Enable multi-drive if necessary */
 329:../asf/sam/drivers/pio/pio.c **** 	if (ul_multidrive_enable) {
 330:../asf/sam/drivers/pio/pio.c **** 		p_pio->PIO_MDER = ul_mask;
 331:../asf/sam/drivers/pio/pio.c **** 	} else {
 332:../asf/sam/drivers/pio/pio.c **** 		p_pio->PIO_MDDR = ul_mask;
 333:../asf/sam/drivers/pio/pio.c **** 	}
 334:../asf/sam/drivers/pio/pio.c **** 
 335:../asf/sam/drivers/pio/pio.c **** 	/* Set default value */
 336:../asf/sam/drivers/pio/pio.c **** 	if (ul_default_level) {
 337:../asf/sam/drivers/pio/pio.c **** 		p_pio->PIO_SODR = ul_mask;
 338:../asf/sam/drivers/pio/pio.c **** 	} else {
 339:../asf/sam/drivers/pio/pio.c **** 		p_pio->PIO_CODR = ul_mask;
 340:../asf/sam/drivers/pio/pio.c **** 	}
 341:../asf/sam/drivers/pio/pio.c **** 
 342:../asf/sam/drivers/pio/pio.c **** 	/* Configure pin(s) as output(s) */
 343:../asf/sam/drivers/pio/pio.c **** 	p_pio->PIO_OER = ul_mask;
 344:../asf/sam/drivers/pio/pio.c **** 	p_pio->PIO_PER = ul_mask;
 345:../asf/sam/drivers/pio/pio.c **** }
 346:../asf/sam/drivers/pio/pio.c **** 
 347:../asf/sam/drivers/pio/pio.c **** /**
 348:../asf/sam/drivers/pio/pio.c ****  * \brief Perform complete pin(s) configuration; general attributes and PIO init
 349:../asf/sam/drivers/pio/pio.c ****  * if necessary.
 350:../asf/sam/drivers/pio/pio.c ****  *
 351:../asf/sam/drivers/pio/pio.c ****  * \param p_pio Pointer to a PIO instance.
 352:../asf/sam/drivers/pio/pio.c ****  * \param ul_type PIO type.
 353:../asf/sam/drivers/pio/pio.c ****  * \param ul_mask Bitmask of one or more pin(s) to configure.
 354:../asf/sam/drivers/pio/pio.c ****  * \param ul_attribute Pins attributes.
 355:../asf/sam/drivers/pio/pio.c ****  *
 356:../asf/sam/drivers/pio/pio.c ****  * \return Whether the pin(s) have been configured properly.
 357:../asf/sam/drivers/pio/pio.c ****  */
 358:../asf/sam/drivers/pio/pio.c **** uint32_t pio_configure(Pio *p_pio, const pio_type_t ul_type,
 359:../asf/sam/drivers/pio/pio.c **** 		const uint32_t ul_mask, const uint32_t ul_attribute)
 360:../asf/sam/drivers/pio/pio.c **** {
 361:../asf/sam/drivers/pio/pio.c **** 	/* Configure pins */
 362:../asf/sam/drivers/pio/pio.c **** 	switch (ul_type) {
 363:../asf/sam/drivers/pio/pio.c **** 	case PIO_PERIPH_A:
 364:../asf/sam/drivers/pio/pio.c **** 	case PIO_PERIPH_B:
 365:../asf/sam/drivers/pio/pio.c **** #if (SAM3S || SAM3N || SAM4S || SAM4E || SAM4N || SAM4C || SAM4CP || SAM4CM || SAMV71 || SAMV70 || 
 366:../asf/sam/drivers/pio/pio.c **** 	case PIO_PERIPH_C:
 367:../asf/sam/drivers/pio/pio.c **** 	case PIO_PERIPH_D:
 368:../asf/sam/drivers/pio/pio.c **** #endif
 369:../asf/sam/drivers/pio/pio.c **** 		pio_set_peripheral(p_pio, ul_type, ul_mask);
 370:../asf/sam/drivers/pio/pio.c **** 		pio_pull_up(p_pio, ul_mask, (ul_attribute & PIO_PULLUP));
 371:../asf/sam/drivers/pio/pio.c **** 		break;
 372:../asf/sam/drivers/pio/pio.c **** 
 373:../asf/sam/drivers/pio/pio.c **** 	case PIO_INPUT:
 374:../asf/sam/drivers/pio/pio.c **** 		pio_set_input(p_pio, ul_mask, ul_attribute);
 375:../asf/sam/drivers/pio/pio.c **** 		break;
 376:../asf/sam/drivers/pio/pio.c **** 
 377:../asf/sam/drivers/pio/pio.c **** 	case PIO_OUTPUT_0:
 378:../asf/sam/drivers/pio/pio.c **** 	case PIO_OUTPUT_1:
 379:../asf/sam/drivers/pio/pio.c **** 		pio_set_output(p_pio, ul_mask, (ul_type == PIO_OUTPUT_1),
 380:../asf/sam/drivers/pio/pio.c **** 				(ul_attribute & PIO_OPENDRAIN) ? 1 : 0,
 381:../asf/sam/drivers/pio/pio.c **** 				(ul_attribute & PIO_PULLUP) ? 1 : 0);
 382:../asf/sam/drivers/pio/pio.c **** 		break;
 383:../asf/sam/drivers/pio/pio.c **** 
ARM GAS  /tmp/ccqzbxJl.s 			page 14


 384:../asf/sam/drivers/pio/pio.c **** 	default:
 385:../asf/sam/drivers/pio/pio.c **** 		return 0;
 386:../asf/sam/drivers/pio/pio.c **** 	}
 387:../asf/sam/drivers/pio/pio.c **** 
 388:../asf/sam/drivers/pio/pio.c **** 	return 1;
 389:../asf/sam/drivers/pio/pio.c **** }
 390:../asf/sam/drivers/pio/pio.c **** 
 391:../asf/sam/drivers/pio/pio.c **** /**
 392:../asf/sam/drivers/pio/pio.c ****  * \brief Return 1 if one or more PIOs of the given Pin are configured to
 393:../asf/sam/drivers/pio/pio.c ****  * output a high level (even if they are not output).
 394:../asf/sam/drivers/pio/pio.c ****  * To get the actual value of the pin, use PIO_Get() instead.
 395:../asf/sam/drivers/pio/pio.c ****  *
 396:../asf/sam/drivers/pio/pio.c ****  * \param p_pio Pointer to a PIO instance.
 397:../asf/sam/drivers/pio/pio.c ****  * \param ul_mask Bitmask of one or more pin(s).
 398:../asf/sam/drivers/pio/pio.c ****  *
 399:../asf/sam/drivers/pio/pio.c ****  * \retval 1 At least one PIO is configured to output a high level.
 400:../asf/sam/drivers/pio/pio.c ****  * \retval 0 All PIOs are configured to output a low level.
 401:../asf/sam/drivers/pio/pio.c ****  */
 402:../asf/sam/drivers/pio/pio.c **** uint32_t pio_get_output_data_status(const Pio *p_pio,
 403:../asf/sam/drivers/pio/pio.c **** 		const uint32_t ul_mask)
 404:../asf/sam/drivers/pio/pio.c **** {
 405:../asf/sam/drivers/pio/pio.c **** 	if ((p_pio->PIO_ODSR & ul_mask) == 0) {
 406:../asf/sam/drivers/pio/pio.c **** 		return 0;
 407:../asf/sam/drivers/pio/pio.c **** 	} else {
 408:../asf/sam/drivers/pio/pio.c **** 		return 1;
 409:../asf/sam/drivers/pio/pio.c **** 	}
 410:../asf/sam/drivers/pio/pio.c **** }
 411:../asf/sam/drivers/pio/pio.c **** 
 412:../asf/sam/drivers/pio/pio.c **** /**
 413:../asf/sam/drivers/pio/pio.c ****  * \brief Configure PIO pin multi-driver.
 414:../asf/sam/drivers/pio/pio.c ****  *
 415:../asf/sam/drivers/pio/pio.c ****  * \param p_pio Pointer to a PIO instance.
 416:../asf/sam/drivers/pio/pio.c ****  * \param ul_mask Bitmask of one or more pin(s) to configure.
 417:../asf/sam/drivers/pio/pio.c ****  * \param ul_multi_driver_enable Indicates if the pin(s) multi-driver shall be
 418:../asf/sam/drivers/pio/pio.c ****  * configured.
 419:../asf/sam/drivers/pio/pio.c ****  */
 420:../asf/sam/drivers/pio/pio.c **** void pio_set_multi_driver(Pio *p_pio, const uint32_t ul_mask,
 421:../asf/sam/drivers/pio/pio.c **** 		const uint32_t ul_multi_driver_enable)
 422:../asf/sam/drivers/pio/pio.c **** {
 423:../asf/sam/drivers/pio/pio.c **** 	/* Enable the multi-driver if necessary */
 424:../asf/sam/drivers/pio/pio.c **** 	if (ul_multi_driver_enable) {
 425:../asf/sam/drivers/pio/pio.c **** 		p_pio->PIO_MDER = ul_mask;
 426:../asf/sam/drivers/pio/pio.c **** 	} else {
 427:../asf/sam/drivers/pio/pio.c **** 		p_pio->PIO_MDDR = ul_mask;
 428:../asf/sam/drivers/pio/pio.c **** 	}
 429:../asf/sam/drivers/pio/pio.c **** }
 430:../asf/sam/drivers/pio/pio.c **** 
 431:../asf/sam/drivers/pio/pio.c **** /**
 432:../asf/sam/drivers/pio/pio.c ****  * \brief Get multi-driver status.
 433:../asf/sam/drivers/pio/pio.c ****  *
 434:../asf/sam/drivers/pio/pio.c ****  * \param p_pio Pointer to a PIO instance.
 435:../asf/sam/drivers/pio/pio.c ****  *
 436:../asf/sam/drivers/pio/pio.c ****  * \return The multi-driver mask value.
 437:../asf/sam/drivers/pio/pio.c ****  */
 438:../asf/sam/drivers/pio/pio.c **** uint32_t pio_get_multi_driver_status(const Pio *p_pio)
 439:../asf/sam/drivers/pio/pio.c **** {
 440:../asf/sam/drivers/pio/pio.c **** 	return p_pio->PIO_MDSR;
ARM GAS  /tmp/ccqzbxJl.s 			page 15


 441:../asf/sam/drivers/pio/pio.c **** }
 442:../asf/sam/drivers/pio/pio.c **** 
 443:../asf/sam/drivers/pio/pio.c **** 
 444:../asf/sam/drivers/pio/pio.c **** #if (SAM3S || SAM3N || SAM4S || SAM4E || SAM4N || SAM4C || SAMG || SAM4CP || SAM4CM || SAMV71 || SA
 445:../asf/sam/drivers/pio/pio.c **** /**
 446:../asf/sam/drivers/pio/pio.c ****  * \brief Configure PIO pin internal pull-down.
 447:../asf/sam/drivers/pio/pio.c ****  *
 448:../asf/sam/drivers/pio/pio.c ****  * \param p_pio Pointer to a PIO instance.
 449:../asf/sam/drivers/pio/pio.c ****  * \param ul_mask Bitmask of one or more pin(s) to configure.
 450:../asf/sam/drivers/pio/pio.c ****  * \param ul_pull_down_enable Indicates if the pin(s) internal pull-down shall
 451:../asf/sam/drivers/pio/pio.c ****  * be configured.
 452:../asf/sam/drivers/pio/pio.c ****  */
 453:../asf/sam/drivers/pio/pio.c **** void pio_pull_down(Pio *p_pio, const uint32_t ul_mask,
 454:../asf/sam/drivers/pio/pio.c **** 		const uint32_t ul_pull_down_enable)
 455:../asf/sam/drivers/pio/pio.c **** {
 456:../asf/sam/drivers/pio/pio.c **** 	/* Enable the pull-down if necessary */
 457:../asf/sam/drivers/pio/pio.c **** 	if (ul_pull_down_enable) {
 458:../asf/sam/drivers/pio/pio.c **** 		p_pio->PIO_PPDER = ul_mask;
 459:../asf/sam/drivers/pio/pio.c **** 	} else {
 460:../asf/sam/drivers/pio/pio.c **** 		p_pio->PIO_PPDDR = ul_mask;
 461:../asf/sam/drivers/pio/pio.c **** 	}
 462:../asf/sam/drivers/pio/pio.c **** }
 463:../asf/sam/drivers/pio/pio.c **** #endif
 464:../asf/sam/drivers/pio/pio.c **** 
 465:../asf/sam/drivers/pio/pio.c **** /**
 466:../asf/sam/drivers/pio/pio.c ****  * \brief Enable PIO output write for synchronous data output.
 467:../asf/sam/drivers/pio/pio.c ****  *
 468:../asf/sam/drivers/pio/pio.c ****  * \param p_pio Pointer to a PIO instance.
 469:../asf/sam/drivers/pio/pio.c ****  * \param ul_mask Bitmask of one or more pin(s) to configure.
 470:../asf/sam/drivers/pio/pio.c ****  */
 471:../asf/sam/drivers/pio/pio.c **** void pio_enable_output_write(Pio *p_pio, const uint32_t ul_mask)
 472:../asf/sam/drivers/pio/pio.c **** {
 473:../asf/sam/drivers/pio/pio.c **** 	p_pio->PIO_OWER = ul_mask;
 474:../asf/sam/drivers/pio/pio.c **** }
 475:../asf/sam/drivers/pio/pio.c **** 
 476:../asf/sam/drivers/pio/pio.c **** /**
 477:../asf/sam/drivers/pio/pio.c ****  * \brief Disable PIO output write.
 478:../asf/sam/drivers/pio/pio.c ****  *
 479:../asf/sam/drivers/pio/pio.c ****  * \param p_pio Pointer to a PIO instance.
 480:../asf/sam/drivers/pio/pio.c ****  * \param ul_mask Bitmask of one or more pin(s) to configure.
 481:../asf/sam/drivers/pio/pio.c ****  */
 482:../asf/sam/drivers/pio/pio.c **** void pio_disable_output_write(Pio *p_pio, const uint32_t ul_mask)
 483:../asf/sam/drivers/pio/pio.c **** {
 484:../asf/sam/drivers/pio/pio.c **** 	p_pio->PIO_OWDR = ul_mask;
 485:../asf/sam/drivers/pio/pio.c **** }
 486:../asf/sam/drivers/pio/pio.c **** 
 487:../asf/sam/drivers/pio/pio.c **** /**
 488:../asf/sam/drivers/pio/pio.c ****  * \brief Read PIO output write status.
 489:../asf/sam/drivers/pio/pio.c ****  *
 490:../asf/sam/drivers/pio/pio.c ****  * \param p_pio Pointer to a PIO instance.
 491:../asf/sam/drivers/pio/pio.c ****  *
 492:../asf/sam/drivers/pio/pio.c ****  * \return The output write mask value.
 493:../asf/sam/drivers/pio/pio.c ****  */
 494:../asf/sam/drivers/pio/pio.c **** uint32_t pio_get_output_write_status(const Pio *p_pio)
 495:../asf/sam/drivers/pio/pio.c **** {
 496:../asf/sam/drivers/pio/pio.c **** 	return p_pio->PIO_OWSR;
 497:../asf/sam/drivers/pio/pio.c **** }
ARM GAS  /tmp/ccqzbxJl.s 			page 16


 498:../asf/sam/drivers/pio/pio.c **** 
 499:../asf/sam/drivers/pio/pio.c **** /**
 500:../asf/sam/drivers/pio/pio.c ****  * \brief Synchronously write on output pins.
 501:../asf/sam/drivers/pio/pio.c ****  * \note Only bits unmasked by PIO_OWSR (Output Write Status Register) are
 502:../asf/sam/drivers/pio/pio.c ****  * written.
 503:../asf/sam/drivers/pio/pio.c ****  *
 504:../asf/sam/drivers/pio/pio.c ****  * \param p_pio Pointer to a PIO instance.
 505:../asf/sam/drivers/pio/pio.c ****  * \param ul_mask Bitmask of one or more pin(s) to configure.
 506:../asf/sam/drivers/pio/pio.c ****  */
 507:../asf/sam/drivers/pio/pio.c **** void pio_sync_output_write(Pio *p_pio, const uint32_t ul_mask)
 508:../asf/sam/drivers/pio/pio.c **** {
 509:../asf/sam/drivers/pio/pio.c **** 	p_pio->PIO_ODSR = ul_mask;
 510:../asf/sam/drivers/pio/pio.c **** }
 511:../asf/sam/drivers/pio/pio.c **** 
 512:../asf/sam/drivers/pio/pio.c **** #if (SAM3S || SAM3N || SAM4S || SAM4E || SAM4N || SAM4C || SAMG || SAM4CP || SAM4CM || SAMV71 || SA
 513:../asf/sam/drivers/pio/pio.c **** /**
 514:../asf/sam/drivers/pio/pio.c ****  * \brief Configure PIO pin schmitt trigger. By default the Schmitt trigger is
 515:../asf/sam/drivers/pio/pio.c ****  * active.
 516:../asf/sam/drivers/pio/pio.c ****  * Disabling the Schmitt Trigger is requested when using the QTouch Library.
 517:../asf/sam/drivers/pio/pio.c ****  *
 518:../asf/sam/drivers/pio/pio.c ****  * \param p_pio Pointer to a PIO instance.
 519:../asf/sam/drivers/pio/pio.c ****  * \param ul_mask Bitmask of one or more pin(s) to configure.
 520:../asf/sam/drivers/pio/pio.c ****  */
 521:../asf/sam/drivers/pio/pio.c **** void pio_set_schmitt_trigger(Pio *p_pio, const uint32_t ul_mask)
 522:../asf/sam/drivers/pio/pio.c **** {
 523:../asf/sam/drivers/pio/pio.c **** 	p_pio->PIO_SCHMITT = ul_mask;
 524:../asf/sam/drivers/pio/pio.c **** }
 525:../asf/sam/drivers/pio/pio.c **** 
 526:../asf/sam/drivers/pio/pio.c **** /**
 527:../asf/sam/drivers/pio/pio.c ****  * \brief Get PIO pin schmitt trigger status.
 528:../asf/sam/drivers/pio/pio.c ****  *
 529:../asf/sam/drivers/pio/pio.c ****  * \param p_pio Pointer to a PIO instance.
 530:../asf/sam/drivers/pio/pio.c ****  *
 531:../asf/sam/drivers/pio/pio.c ****  * \return The schmitt trigger mask value.
 532:../asf/sam/drivers/pio/pio.c ****  */
 533:../asf/sam/drivers/pio/pio.c **** uint32_t pio_get_schmitt_trigger(const Pio *p_pio)
 534:../asf/sam/drivers/pio/pio.c **** {
 535:../asf/sam/drivers/pio/pio.c **** 	return p_pio->PIO_SCHMITT;
 536:../asf/sam/drivers/pio/pio.c **** }
 537:../asf/sam/drivers/pio/pio.c **** #endif
 538:../asf/sam/drivers/pio/pio.c **** 
 539:../asf/sam/drivers/pio/pio.c **** /**
 540:../asf/sam/drivers/pio/pio.c ****  * \brief Configure the given interrupt source.
 541:../asf/sam/drivers/pio/pio.c ****  * Interrupt can be configured to trigger on rising edge, falling edge,
 542:../asf/sam/drivers/pio/pio.c ****  * high level, low level or simply on level change.
 543:../asf/sam/drivers/pio/pio.c ****  *
 544:../asf/sam/drivers/pio/pio.c ****  * \param p_pio Pointer to a PIO instance.
 545:../asf/sam/drivers/pio/pio.c ****  * \param ul_mask Interrupt source bit map.
 546:../asf/sam/drivers/pio/pio.c ****  * \param ul_attr Interrupt source attributes.
 547:../asf/sam/drivers/pio/pio.c ****  */
 548:../asf/sam/drivers/pio/pio.c **** void pio_configure_interrupt(Pio *p_pio, const uint32_t ul_mask,
 549:../asf/sam/drivers/pio/pio.c **** 		const uint32_t ul_attr)
 550:../asf/sam/drivers/pio/pio.c **** {
 551:../asf/sam/drivers/pio/pio.c **** 	/* Configure additional interrupt mode registers. */
 552:../asf/sam/drivers/pio/pio.c **** 	if (ul_attr & PIO_IT_AIME) {
 553:../asf/sam/drivers/pio/pio.c **** 		/* Enable additional interrupt mode. */
 554:../asf/sam/drivers/pio/pio.c **** 		p_pio->PIO_AIMER = ul_mask;
ARM GAS  /tmp/ccqzbxJl.s 			page 17


 555:../asf/sam/drivers/pio/pio.c **** 
 556:../asf/sam/drivers/pio/pio.c **** 		/* If bit field of the selected pin is 1, set as
 557:../asf/sam/drivers/pio/pio.c **** 		   Rising Edge/High level detection event. */
 558:../asf/sam/drivers/pio/pio.c **** 		if (ul_attr & PIO_IT_RE_OR_HL) {
 559:../asf/sam/drivers/pio/pio.c **** 			/* Rising Edge or High Level */
 560:../asf/sam/drivers/pio/pio.c **** 			p_pio->PIO_REHLSR = ul_mask;
 561:../asf/sam/drivers/pio/pio.c **** 		} else {
 562:../asf/sam/drivers/pio/pio.c **** 			/* Falling Edge or Low Level */
 563:../asf/sam/drivers/pio/pio.c **** 			p_pio->PIO_FELLSR = ul_mask;
 564:../asf/sam/drivers/pio/pio.c **** 		}
 565:../asf/sam/drivers/pio/pio.c **** 
 566:../asf/sam/drivers/pio/pio.c **** 		/* If bit field of the selected pin is 1, set as
 567:../asf/sam/drivers/pio/pio.c **** 		   edge detection source. */
 568:../asf/sam/drivers/pio/pio.c **** 		if (ul_attr & PIO_IT_EDGE) {
 569:../asf/sam/drivers/pio/pio.c **** 			/* Edge select */
 570:../asf/sam/drivers/pio/pio.c **** 			p_pio->PIO_ESR = ul_mask;
 571:../asf/sam/drivers/pio/pio.c **** 		} else {
 572:../asf/sam/drivers/pio/pio.c **** 			/* Level select */
 573:../asf/sam/drivers/pio/pio.c **** 			p_pio->PIO_LSR = ul_mask;
 574:../asf/sam/drivers/pio/pio.c **** 		}
 575:../asf/sam/drivers/pio/pio.c **** 	} else {
 576:../asf/sam/drivers/pio/pio.c **** 		/* Disable additional interrupt mode. */
 577:../asf/sam/drivers/pio/pio.c **** 		p_pio->PIO_AIMDR = ul_mask;
 578:../asf/sam/drivers/pio/pio.c **** 	}
 579:../asf/sam/drivers/pio/pio.c **** }
 580:../asf/sam/drivers/pio/pio.c **** 
 581:../asf/sam/drivers/pio/pio.c **** /**
 582:../asf/sam/drivers/pio/pio.c ****  * \brief Enable the given interrupt source.
 583:../asf/sam/drivers/pio/pio.c ****  * The PIO must be configured as an NVIC interrupt source as well.
 584:../asf/sam/drivers/pio/pio.c ****  *
 585:../asf/sam/drivers/pio/pio.c ****  * \param p_pio Pointer to a PIO instance.
 586:../asf/sam/drivers/pio/pio.c ****  * \param ul_mask Interrupt sources bit map.
 587:../asf/sam/drivers/pio/pio.c ****  */
 588:../asf/sam/drivers/pio/pio.c **** void pio_enable_interrupt(Pio *p_pio, const uint32_t ul_mask)
 589:../asf/sam/drivers/pio/pio.c **** {
 590:../asf/sam/drivers/pio/pio.c **** 	p_pio->PIO_IER = ul_mask;
 591:../asf/sam/drivers/pio/pio.c **** }
 592:../asf/sam/drivers/pio/pio.c **** 
 593:../asf/sam/drivers/pio/pio.c **** /**
 594:../asf/sam/drivers/pio/pio.c ****  * \brief Disable a given interrupt source, with no added side effects.
 595:../asf/sam/drivers/pio/pio.c ****  *
 596:../asf/sam/drivers/pio/pio.c ****  * \param p_pio Pointer to a PIO instance.
 597:../asf/sam/drivers/pio/pio.c ****  * \param ul_mask Interrupt sources bit map.
 598:../asf/sam/drivers/pio/pio.c ****  */
 599:../asf/sam/drivers/pio/pio.c **** void pio_disable_interrupt(Pio *p_pio, const uint32_t ul_mask)
 600:../asf/sam/drivers/pio/pio.c **** {
 601:../asf/sam/drivers/pio/pio.c **** 	p_pio->PIO_IDR = ul_mask;
 334              		.loc 1 601 0
 335 0002 4164     		str	r1, [r0, #68]
 336              	.LVL32:
 337              	.LBE99:
 338              	.LBE98:
 339              	.LBB100:
 340              	.LBB96:
  83:../asf/sam/drivers/pio/pio.c **** 		p_pio->PIO_PUER = ul_mask;
 341              		.loc 1 83 0
 342 0004 15D5     		bpl	.L40
ARM GAS  /tmp/ccqzbxJl.s 			page 18


  84:../asf/sam/drivers/pio/pio.c **** 	} else {
 343              		.loc 1 84 0
 344 0006 4166     		str	r1, [r0, #100]
 345              	.L41:
 346              	.LVL33:
 347              	.LBE96:
 348              	.LBE100:
 274:../asf/sam/drivers/pio/pio.c **** 		p_pio->PIO_IFER = ul_mask;
 349              		.loc 1 274 0
 350 0008 12F00A0F 		tst	r2, #10
 351 000c 09D0     		beq	.L42
 282:../asf/sam/drivers/pio/pio.c **** 		p_pio->PIO_IFSCDR = ul_mask;
 352              		.loc 1 282 0
 353 000e 9307     		lsls	r3, r2, #30
 275:../asf/sam/drivers/pio/pio.c **** 	} else {
 354              		.loc 1 275 0
 355 0010 0162     		str	r1, [r0, #32]
 282:../asf/sam/drivers/pio/pio.c **** 		p_pio->PIO_IFSCDR = ul_mask;
 356              		.loc 1 282 0
 357 0012 09D4     		bmi	.L49
 358              	.L44:
 285:../asf/sam/drivers/pio/pio.c **** 			p_pio->PIO_IFSCER = ul_mask;
 359              		.loc 1 285 0
 360 0014 1307     		lsls	r3, r2, #28
 361 0016 01D5     		bpl	.L45
 286:../asf/sam/drivers/pio/pio.c **** 		}
 362              		.loc 1 286 0
 363 0018 C0F88410 		str	r1, [r0, #132]
 364              	.L45:
 303:../asf/sam/drivers/pio/pio.c **** 	p_pio->PIO_PER = ul_mask;
 365              		.loc 1 303 0
 366 001c 4161     		str	r1, [r0, #20]
 304:../asf/sam/drivers/pio/pio.c **** }
 367              		.loc 1 304 0
 368 001e 0160     		str	r1, [r0]
 369 0020 7047     		bx	lr
 370              	.L42:
 282:../asf/sam/drivers/pio/pio.c **** 		p_pio->PIO_IFSCDR = ul_mask;
 371              		.loc 1 282 0
 372 0022 9307     		lsls	r3, r2, #30
 277:../asf/sam/drivers/pio/pio.c **** 	}
 373              		.loc 1 277 0
 374 0024 4162     		str	r1, [r0, #36]
 282:../asf/sam/drivers/pio/pio.c **** 		p_pio->PIO_IFSCDR = ul_mask;
 375              		.loc 1 282 0
 376 0026 F5D5     		bpl	.L44
 377              	.L49:
 283:../asf/sam/drivers/pio/pio.c **** 	} else {
 378              		.loc 1 283 0
 379 0028 C0F88010 		str	r1, [r0, #128]
 303:../asf/sam/drivers/pio/pio.c **** 	p_pio->PIO_PER = ul_mask;
 380              		.loc 1 303 0
 381 002c 4161     		str	r1, [r0, #20]
 304:../asf/sam/drivers/pio/pio.c **** }
 382              		.loc 1 304 0
 383 002e 0160     		str	r1, [r0]
 384 0030 7047     		bx	lr
ARM GAS  /tmp/ccqzbxJl.s 			page 19


 385              	.LVL34:
 386              	.L40:
 387              	.LBB101:
 388              	.LBB97:
  86:../asf/sam/drivers/pio/pio.c **** 	}
 389              		.loc 1 86 0
 390 0032 0166     		str	r1, [r0, #96]
 391 0034 E8E7     		b	.L41
 392              	.LBE97:
 393              	.LBE101:
 394              		.cfi_endproc
 395              	.LFE148:
 396              		.size	pio_set_input, .-pio_set_input
 397 0036 00BF     		.section	.text.pio_set_output,"ax",%progbits
 398              		.align	1
 399              		.p2align 2,,3
 400              		.global	pio_set_output
 401              		.syntax unified
 402              		.thumb
 403              		.thumb_func
 404              		.fpu fpv5-d16
 405              		.type	pio_set_output, %function
 406              	pio_set_output:
 407              	.LFB149:
 324:../asf/sam/drivers/pio/pio.c **** 	pio_disable_interrupt(p_pio, ul_mask);
 408              		.loc 1 324 0
 409              		.cfi_startproc
 410              		@ args = 4, pretend = 0, frame = 0
 411              		@ frame_needed = 0, uses_anonymous_args = 0
 412              		@ link register save eliminated.
 413              	.LVL35:
 414 0000 10B4     		push	{r4}
 415              		.cfi_def_cfa_offset 4
 416              		.cfi_offset 4, -4
 324:../asf/sam/drivers/pio/pio.c **** 	pio_disable_interrupt(p_pio, ul_mask);
 417              		.loc 1 324 0
 418 0002 019C     		ldr	r4, [sp, #4]
 419              	.LBB102:
 420              	.LBB103:
 421              		.loc 1 601 0
 422 0004 4164     		str	r1, [r0, #68]
 423              	.LVL36:
 424              	.LBE103:
 425              	.LBE102:
 426              	.LBB104:
 427              	.LBB105:
  83:../asf/sam/drivers/pio/pio.c **** 		p_pio->PIO_PUER = ul_mask;
 428              		.loc 1 83 0
 429 0006 94B1     		cbz	r4, .L51
  84:../asf/sam/drivers/pio/pio.c **** 	} else {
 430              		.loc 1 84 0
 431 0008 4166     		str	r1, [r0, #100]
 432              	.L52:
 433              	.LVL37:
 434              	.LBE105:
 435              	.LBE104:
 329:../asf/sam/drivers/pio/pio.c **** 		p_pio->PIO_MDER = ul_mask;
ARM GAS  /tmp/ccqzbxJl.s 			page 20


 436              		.loc 1 329 0
 437 000a 3BB1     		cbz	r3, .L53
 330:../asf/sam/drivers/pio/pio.c **** 	} else {
 438              		.loc 1 330 0
 439 000c 0165     		str	r1, [r0, #80]
 336:../asf/sam/drivers/pio/pio.c **** 		p_pio->PIO_SODR = ul_mask;
 440              		.loc 1 336 0
 441 000e 42B9     		cbnz	r2, .L58
 442              	.L55:
 339:../asf/sam/drivers/pio/pio.c **** 	}
 443              		.loc 1 339 0
 444 0010 4163     		str	r1, [r0, #52]
 345:../asf/sam/drivers/pio/pio.c **** 
 445              		.loc 1 345 0
 446 0012 5DF8044B 		ldr	r4, [sp], #4
 447              		.cfi_remember_state
 448              		.cfi_restore 4
 449              		.cfi_def_cfa_offset 0
 450              	.LVL38:
 343:../asf/sam/drivers/pio/pio.c **** 	p_pio->PIO_PER = ul_mask;
 451              		.loc 1 343 0
 452 0016 0161     		str	r1, [r0, #16]
 344:../asf/sam/drivers/pio/pio.c **** }
 453              		.loc 1 344 0
 454 0018 0160     		str	r1, [r0]
 345:../asf/sam/drivers/pio/pio.c **** 
 455              		.loc 1 345 0
 456 001a 7047     		bx	lr
 457              	.LVL39:
 458              	.L53:
 459              		.cfi_restore_state
 332:../asf/sam/drivers/pio/pio.c **** 	}
 460              		.loc 1 332 0
 461 001c 4165     		str	r1, [r0, #84]
 336:../asf/sam/drivers/pio/pio.c **** 		p_pio->PIO_SODR = ul_mask;
 462              		.loc 1 336 0
 463 001e 002A     		cmp	r2, #0
 464 0020 F6D0     		beq	.L55
 465              	.L58:
 337:../asf/sam/drivers/pio/pio.c **** 	} else {
 466              		.loc 1 337 0
 467 0022 0163     		str	r1, [r0, #48]
 345:../asf/sam/drivers/pio/pio.c **** 
 468              		.loc 1 345 0
 469 0024 5DF8044B 		ldr	r4, [sp], #4
 470              		.cfi_remember_state
 471              		.cfi_restore 4
 472              		.cfi_def_cfa_offset 0
 473              	.LVL40:
 343:../asf/sam/drivers/pio/pio.c **** 	p_pio->PIO_PER = ul_mask;
 474              		.loc 1 343 0
 475 0028 0161     		str	r1, [r0, #16]
 344:../asf/sam/drivers/pio/pio.c **** }
 476              		.loc 1 344 0
 477 002a 0160     		str	r1, [r0]
 345:../asf/sam/drivers/pio/pio.c **** 
 478              		.loc 1 345 0
ARM GAS  /tmp/ccqzbxJl.s 			page 21


 479 002c 7047     		bx	lr
 480              	.LVL41:
 481              	.L51:
 482              		.cfi_restore_state
 483              	.LBB107:
 484              	.LBB106:
  86:../asf/sam/drivers/pio/pio.c **** 	}
 485              		.loc 1 86 0
 486 002e 0166     		str	r1, [r0, #96]
 487 0030 EBE7     		b	.L52
 488              	.LBE106:
 489              	.LBE107:
 490              		.cfi_endproc
 491              	.LFE149:
 492              		.size	pio_set_output, .-pio_set_output
 493 0032 00BF     		.section	.text.pio_configure,"ax",%progbits
 494              		.align	1
 495              		.p2align 2,,3
 496              		.global	pio_configure
 497              		.syntax unified
 498              		.thumb
 499              		.thumb_func
 500              		.fpu fpv5-d16
 501              		.type	pio_configure, %function
 502              	pio_configure:
 503              	.LFB150:
 360:../asf/sam/drivers/pio/pio.c **** 	/* Configure pins */
 504              		.loc 1 360 0
 505              		.cfi_startproc
 506              		@ args = 0, pretend = 0, frame = 0
 507              		@ frame_needed = 0, uses_anonymous_args = 0
 508              	.LVL42:
 362:../asf/sam/drivers/pio/pio.c **** 	case PIO_PERIPH_A:
 509              		.loc 1 362 0
 510 0000 B1F1005F 		cmp	r1, #536870912
 360:../asf/sam/drivers/pio/pio.c **** 	/* Configure pins */
 511              		.loc 1 360 0
 512 0004 70B5     		push	{r4, r5, r6, lr}
 513              		.cfi_def_cfa_offset 16
 514              		.cfi_offset 4, -16
 515              		.cfi_offset 5, -12
 516              		.cfi_offset 6, -8
 517              		.cfi_offset 14, -4
 362:../asf/sam/drivers/pio/pio.c **** 	case PIO_PERIPH_A:
 518              		.loc 1 362 0
 519 0006 37D0     		beq	.L61
 520 0008 2DD9     		bls	.L101
 521 000a B1F1405F 		cmp	r1, #805306368
 522 000e 19D0     		beq	.L63
 523 0010 B1F1605F 		cmp	r1, #939524096
 524 0014 16D0     		beq	.L63
 525 0016 B1F1205F 		cmp	r1, #671088640
 526 001a 02D0     		beq	.L64
 527              	.L78:
 385:../asf/sam/drivers/pio/pio.c **** 	}
 528              		.loc 1 385 0
 529 001c 0023     		movs	r3, #0
ARM GAS  /tmp/ccqzbxJl.s 			page 22


 530              	.LVL43:
 389:../asf/sam/drivers/pio/pio.c **** 
 531              		.loc 1 389 0
 532 001e 1846     		mov	r0, r3
 533              	.LVL44:
 534 0020 70BD     		pop	{r4, r5, r6, pc}
 535              	.LVL45:
 536              	.L64:
 537              	.LBB108:
 538              	.LBB109:
 539              	.LBB110:
 540              	.LBB111:
  83:../asf/sam/drivers/pio/pio.c **** 		p_pio->PIO_PUER = ul_mask;
 541              		.loc 1 83 0
 542 0022 DD07     		lsls	r5, r3, #31
 543              	.LBE111:
 544              	.LBE110:
 545              	.LBB115:
 546              	.LBB116:
 547              		.loc 1 601 0
 548 0024 4264     		str	r2, [r0, #68]
 549              	.LVL46:
 550              	.LBE116:
 551              	.LBE115:
 552              	.LBB117:
 553              	.LBB112:
  83:../asf/sam/drivers/pio/pio.c **** 		p_pio->PIO_PUER = ul_mask;
 554              		.loc 1 83 0
 555 0026 36D4     		bmi	.L102
 556              	.LVL47:
 557              	.LBE112:
 558              	.LBE117:
 274:../asf/sam/drivers/pio/pio.c **** 		p_pio->PIO_IFER = ul_mask;
 559              		.loc 1 274 0
 560 0028 13F00A0F 		tst	r3, #10
 561              	.LBB118:
 562              	.LBB113:
  86:../asf/sam/drivers/pio/pio.c **** 	}
 563              		.loc 1 86 0
 564 002c 0266     		str	r2, [r0, #96]
 565              	.LBE113:
 566              	.LBE118:
 274:../asf/sam/drivers/pio/pio.c **** 		p_pio->PIO_IFER = ul_mask;
 567              		.loc 1 274 0
 568 002e 36D0     		beq	.L68
 569              	.L105:
 282:../asf/sam/drivers/pio/pio.c **** 		p_pio->PIO_IFSCDR = ul_mask;
 570              		.loc 1 282 0
 571 0030 9C07     		lsls	r4, r3, #30
 275:../asf/sam/drivers/pio/pio.c **** 	} else {
 572              		.loc 1 275 0
 573 0032 0262     		str	r2, [r0, #32]
 282:../asf/sam/drivers/pio/pio.c **** 		p_pio->PIO_IFSCDR = ul_mask;
 574              		.loc 1 282 0
 575 0034 36D5     		bpl	.L70
 576              	.L106:
 283:../asf/sam/drivers/pio/pio.c **** 	} else {
ARM GAS  /tmp/ccqzbxJl.s 			page 23


 577              		.loc 1 283 0
 578 0036 C0F88020 		str	r2, [r0, #128]
 579              	.LVL48:
 580              	.L71:
 581              	.LBE109:
 582              	.LBE108:
 388:../asf/sam/drivers/pio/pio.c **** }
 583              		.loc 1 388 0
 584 003a 0123     		movs	r3, #1
 585              	.LVL49:
 586              	.LBB122:
 587              	.LBB120:
 303:../asf/sam/drivers/pio/pio.c **** 	p_pio->PIO_PER = ul_mask;
 588              		.loc 1 303 0
 589 003c 4261     		str	r2, [r0, #20]
 304:../asf/sam/drivers/pio/pio.c **** }
 590              		.loc 1 304 0
 591 003e 0260     		str	r2, [r0]
 592              	.LBE120:
 593              	.LBE122:
 389:../asf/sam/drivers/pio/pio.c **** 
 594              		.loc 1 389 0
 595 0040 1846     		mov	r0, r3
 596              	.LVL50:
 597 0042 70BD     		pop	{r4, r5, r6, pc}
 598              	.LVL51:
 599              	.L63:
 380:../asf/sam/drivers/pio/pio.c **** 				(ul_attribute & PIO_PULLUP) ? 1 : 0);
 600              		.loc 1 380 0
 601 0044 03F00404 		and	r4, r3, #4
 602              	.LVL52:
 603              	.LBB123:
 604              	.LBB124:
 605              	.LBB125:
 606              	.LBB126:
  83:../asf/sam/drivers/pio/pio.c **** 		p_pio->PIO_PUER = ul_mask;
 607              		.loc 1 83 0
 608 0048 DB07     		lsls	r3, r3, #31
 609              	.LVL53:
 610              	.LBE126:
 611              	.LBE125:
 612              	.LBB129:
 613              	.LBB130:
 614              		.loc 1 601 0
 615 004a 4264     		str	r2, [r0, #68]
 616              	.LBE130:
 617              	.LBE129:
 618              	.LBB131:
 619              	.LBB127:
  83:../asf/sam/drivers/pio/pio.c **** 		p_pio->PIO_PUER = ul_mask;
 620              		.loc 1 83 0
 621 004c 1ED5     		bpl	.L72
 622              	.LVL54:
  84:../asf/sam/drivers/pio/pio.c **** 	} else {
 623              		.loc 1 84 0
 624 004e 4266     		str	r2, [r0, #100]
 625              	.LBE127:
ARM GAS  /tmp/ccqzbxJl.s 			page 24


 626              	.LBE131:
 329:../asf/sam/drivers/pio/pio.c **** 		p_pio->PIO_MDER = ul_mask;
 627              		.loc 1 329 0
 628 0050 FCB1     		cbz	r4, .L74
 629              	.L104:
 330:../asf/sam/drivers/pio/pio.c **** 	} else {
 630              		.loc 1 330 0
 631 0052 0265     		str	r2, [r0, #80]
 632              	.L75:
 336:../asf/sam/drivers/pio/pio.c **** 		p_pio->PIO_SODR = ul_mask;
 633              		.loc 1 336 0
 634 0054 B1F1605F 		cmp	r1, #939524096
 635 0058 2DD0     		beq	.L103
 339:../asf/sam/drivers/pio/pio.c **** 	}
 636              		.loc 1 339 0
 637 005a 4263     		str	r2, [r0, #52]
 638              	.L77:
 639              	.LBE124:
 640              	.LBE123:
 388:../asf/sam/drivers/pio/pio.c **** }
 641              		.loc 1 388 0
 642 005c 0123     		movs	r3, #1
 643              	.LBB136:
 644              	.LBB133:
 343:../asf/sam/drivers/pio/pio.c **** 	p_pio->PIO_PER = ul_mask;
 645              		.loc 1 343 0
 646 005e 0261     		str	r2, [r0, #16]
 344:../asf/sam/drivers/pio/pio.c **** }
 647              		.loc 1 344 0
 648 0060 0260     		str	r2, [r0]
 649              	.LBE133:
 650              	.LBE136:
 389:../asf/sam/drivers/pio/pio.c **** 
 651              		.loc 1 389 0
 652 0062 1846     		mov	r0, r3
 653              	.LVL55:
 654 0064 70BD     		pop	{r4, r5, r6, pc}
 655              	.LVL56:
 656              	.L101:
 362:../asf/sam/drivers/pio/pio.c **** 	case PIO_PERIPH_A:
 657              		.loc 1 362 0
 658 0066 B1F1805F 		cmp	r1, #268435456
 659 006a 05D0     		beq	.L61
 660 006c B1F1C05F 		cmp	r1, #402653184
 661 0070 02D0     		beq	.L61
 662 0072 B1F1006F 		cmp	r1, #134217728
 663 0076 D1D1     		bne	.L78
 664              	.L61:
 665 0078 1E46     		mov	r6, r3
 666 007a 0446     		mov	r4, r0
 369:../asf/sam/drivers/pio/pio.c **** 		pio_pull_up(p_pio, ul_mask, (ul_attribute & PIO_PULLUP));
 667              		.loc 1 369 0
 668 007c FFF7FEFF 		bl	pio_set_peripheral
 669              	.LVL57:
 670              	.LBB137:
 671              	.LBB138:
  83:../asf/sam/drivers/pio/pio.c **** 		p_pio->PIO_PUER = ul_mask;
ARM GAS  /tmp/ccqzbxJl.s 			page 25


 672              		.loc 1 83 0
 673 0080 F607     		lsls	r6, r6, #31
 674              	.LVL58:
 675 0082 14D5     		bpl	.L65
 676              	.LVL59:
 677              	.LBE138:
 678              	.LBE137:
 388:../asf/sam/drivers/pio/pio.c **** }
 679              		.loc 1 388 0
 680 0084 0123     		movs	r3, #1
 681              	.LBB141:
 682              	.LBB139:
  84:../asf/sam/drivers/pio/pio.c **** 	} else {
 683              		.loc 1 84 0
 684 0086 6266     		str	r2, [r4, #100]
 685              	.LBE139:
 686              	.LBE141:
 389:../asf/sam/drivers/pio/pio.c **** 
 687              		.loc 1 389 0
 688 0088 1846     		mov	r0, r3
 689              	.LVL60:
 690 008a 70BD     		pop	{r4, r5, r6, pc}
 691              	.LVL61:
 692              	.L72:
 693              	.LBB142:
 694              	.LBB134:
 695              	.LBB132:
 696              	.LBB128:
  86:../asf/sam/drivers/pio/pio.c **** 	}
 697              		.loc 1 86 0
 698 008c 0266     		str	r2, [r0, #96]
 699              	.LVL62:
 700              	.LBE128:
 701              	.LBE132:
 329:../asf/sam/drivers/pio/pio.c **** 		p_pio->PIO_MDER = ul_mask;
 702              		.loc 1 329 0
 703 008e 002C     		cmp	r4, #0
 704 0090 DFD1     		bne	.L104
 705              	.L74:
 332:../asf/sam/drivers/pio/pio.c **** 	}
 706              		.loc 1 332 0
 707 0092 4265     		str	r2, [r0, #84]
 708 0094 DEE7     		b	.L75
 709              	.LVL63:
 710              	.L102:
 711              	.LBE134:
 712              	.LBE142:
 713              	.LBB143:
 714              	.LBB121:
 274:../asf/sam/drivers/pio/pio.c **** 		p_pio->PIO_IFER = ul_mask;
 715              		.loc 1 274 0
 716 0096 13F00A0F 		tst	r3, #10
 717              	.LBB119:
 718              	.LBB114:
  84:../asf/sam/drivers/pio/pio.c **** 	} else {
 719              		.loc 1 84 0
 720 009a 4266     		str	r2, [r0, #100]
ARM GAS  /tmp/ccqzbxJl.s 			page 26


 721              	.LVL64:
 722              	.LBE114:
 723              	.LBE119:
 274:../asf/sam/drivers/pio/pio.c **** 		p_pio->PIO_IFER = ul_mask;
 724              		.loc 1 274 0
 725 009c C8D1     		bne	.L105
 726              	.L68:
 282:../asf/sam/drivers/pio/pio.c **** 		p_pio->PIO_IFSCDR = ul_mask;
 727              		.loc 1 282 0
 728 009e 9C07     		lsls	r4, r3, #30
 277:../asf/sam/drivers/pio/pio.c **** 	}
 729              		.loc 1 277 0
 730 00a0 4262     		str	r2, [r0, #36]
 282:../asf/sam/drivers/pio/pio.c **** 		p_pio->PIO_IFSCDR = ul_mask;
 731              		.loc 1 282 0
 732 00a2 C8D4     		bmi	.L106
 733              	.L70:
 285:../asf/sam/drivers/pio/pio.c **** 			p_pio->PIO_IFSCER = ul_mask;
 734              		.loc 1 285 0
 735 00a4 1907     		lsls	r1, r3, #28
 736              	.LVL65:
 737 00a6 C8D5     		bpl	.L71
 286:../asf/sam/drivers/pio/pio.c **** 		}
 738              		.loc 1 286 0
 739 00a8 C0F88420 		str	r2, [r0, #132]
 740 00ac C5E7     		b	.L71
 741              	.LVL66:
 742              	.L65:
 743              	.LBE121:
 744              	.LBE143:
 388:../asf/sam/drivers/pio/pio.c **** }
 745              		.loc 1 388 0
 746 00ae 0123     		movs	r3, #1
 747              	.LBB144:
 748              	.LBB140:
  86:../asf/sam/drivers/pio/pio.c **** 	}
 749              		.loc 1 86 0
 750 00b0 2266     		str	r2, [r4, #96]
 751              	.LBE140:
 752              	.LBE144:
 389:../asf/sam/drivers/pio/pio.c **** 
 753              		.loc 1 389 0
 754 00b2 1846     		mov	r0, r3
 755              	.LVL67:
 756 00b4 70BD     		pop	{r4, r5, r6, pc}
 757              	.LVL68:
 758              	.L103:
 759              	.LBB145:
 760              	.LBB135:
 337:../asf/sam/drivers/pio/pio.c **** 	} else {
 761              		.loc 1 337 0
 762 00b6 0263     		str	r2, [r0, #48]
 763 00b8 D0E7     		b	.L77
 764              	.LBE135:
 765              	.LBE145:
 766              		.cfi_endproc
 767              	.LFE150:
ARM GAS  /tmp/ccqzbxJl.s 			page 27


 768              		.size	pio_configure, .-pio_configure
 769 00ba 00BF     		.section	.text.pio_get_output_data_status,"ax",%progbits
 770              		.align	1
 771              		.p2align 2,,3
 772              		.global	pio_get_output_data_status
 773              		.syntax unified
 774              		.thumb
 775              		.thumb_func
 776              		.fpu fpv5-d16
 777              		.type	pio_get_output_data_status, %function
 778              	pio_get_output_data_status:
 779              	.LFB151:
 404:../asf/sam/drivers/pio/pio.c **** 	if ((p_pio->PIO_ODSR & ul_mask) == 0) {
 780              		.loc 1 404 0
 781              		.cfi_startproc
 782              		@ args = 0, pretend = 0, frame = 0
 783              		@ frame_needed = 0, uses_anonymous_args = 0
 784              		@ link register save eliminated.
 785              	.LVL69:
 405:../asf/sam/drivers/pio/pio.c **** 		return 0;
 786              		.loc 1 405 0
 787 0000 836B     		ldr	r3, [r0, #56]
 788 0002 0B42     		tst	r3, r1
 410:../asf/sam/drivers/pio/pio.c **** 
 789              		.loc 1 410 0
 790 0004 14BF     		ite	ne
 791 0006 0120     		movne	r0, #1
 792              	.LVL70:
 793 0008 0020     		moveq	r0, #0
 794 000a 7047     		bx	lr
 795              		.cfi_endproc
 796              	.LFE151:
 797              		.size	pio_get_output_data_status, .-pio_get_output_data_status
 798              		.section	.text.pio_set_multi_driver,"ax",%progbits
 799              		.align	1
 800              		.p2align 2,,3
 801              		.global	pio_set_multi_driver
 802              		.syntax unified
 803              		.thumb
 804              		.thumb_func
 805              		.fpu fpv5-d16
 806              		.type	pio_set_multi_driver, %function
 807              	pio_set_multi_driver:
 808              	.LFB152:
 422:../asf/sam/drivers/pio/pio.c **** 	/* Enable the multi-driver if necessary */
 809              		.loc 1 422 0
 810              		.cfi_startproc
 811              		@ args = 0, pretend = 0, frame = 0
 812              		@ frame_needed = 0, uses_anonymous_args = 0
 813              		@ link register save eliminated.
 814              	.LVL71:
 424:../asf/sam/drivers/pio/pio.c **** 		p_pio->PIO_MDER = ul_mask;
 815              		.loc 1 424 0
 816 0000 0AB9     		cbnz	r2, .L111
 427:../asf/sam/drivers/pio/pio.c **** 	}
 817              		.loc 1 427 0
 818 0002 4165     		str	r1, [r0, #84]
ARM GAS  /tmp/ccqzbxJl.s 			page 28


 819 0004 7047     		bx	lr
 820              	.L111:
 425:../asf/sam/drivers/pio/pio.c **** 	} else {
 821              		.loc 1 425 0
 822 0006 0165     		str	r1, [r0, #80]
 823 0008 7047     		bx	lr
 824              		.cfi_endproc
 825              	.LFE152:
 826              		.size	pio_set_multi_driver, .-pio_set_multi_driver
 827 000a 00BF     		.section	.text.pio_get_multi_driver_status,"ax",%progbits
 828              		.align	1
 829              		.p2align 2,,3
 830              		.global	pio_get_multi_driver_status
 831              		.syntax unified
 832              		.thumb
 833              		.thumb_func
 834              		.fpu fpv5-d16
 835              		.type	pio_get_multi_driver_status, %function
 836              	pio_get_multi_driver_status:
 837              	.LFB153:
 439:../asf/sam/drivers/pio/pio.c **** 	return p_pio->PIO_MDSR;
 838              		.loc 1 439 0
 839              		.cfi_startproc
 840              		@ args = 0, pretend = 0, frame = 0
 841              		@ frame_needed = 0, uses_anonymous_args = 0
 842              		@ link register save eliminated.
 843              	.LVL72:
 440:../asf/sam/drivers/pio/pio.c **** }
 844              		.loc 1 440 0
 845 0000 806D     		ldr	r0, [r0, #88]
 846              	.LVL73:
 441:../asf/sam/drivers/pio/pio.c **** 
 847              		.loc 1 441 0
 848 0002 7047     		bx	lr
 849              		.cfi_endproc
 850              	.LFE153:
 851              		.size	pio_get_multi_driver_status, .-pio_get_multi_driver_status
 852              		.section	.text.pio_pull_down,"ax",%progbits
 853              		.align	1
 854              		.p2align 2,,3
 855              		.global	pio_pull_down
 856              		.syntax unified
 857              		.thumb
 858              		.thumb_func
 859              		.fpu fpv5-d16
 860              		.type	pio_pull_down, %function
 861              	pio_pull_down:
 862              	.LFB154:
 455:../asf/sam/drivers/pio/pio.c **** 	/* Enable the pull-down if necessary */
 863              		.loc 1 455 0
 864              		.cfi_startproc
 865              		@ args = 0, pretend = 0, frame = 0
 866              		@ frame_needed = 0, uses_anonymous_args = 0
 867              		@ link register save eliminated.
 868              	.LVL74:
 457:../asf/sam/drivers/pio/pio.c **** 		p_pio->PIO_PPDER = ul_mask;
 869              		.loc 1 457 0
ARM GAS  /tmp/ccqzbxJl.s 			page 29


 870 0000 12B9     		cbnz	r2, .L116
 460:../asf/sam/drivers/pio/pio.c **** 	}
 871              		.loc 1 460 0
 872 0002 C0F89010 		str	r1, [r0, #144]
 873 0006 7047     		bx	lr
 874              	.L116:
 458:../asf/sam/drivers/pio/pio.c **** 	} else {
 875              		.loc 1 458 0
 876 0008 C0F89410 		str	r1, [r0, #148]
 877 000c 7047     		bx	lr
 878              		.cfi_endproc
 879              	.LFE154:
 880              		.size	pio_pull_down, .-pio_pull_down
 881 000e 00BF     		.section	.text.pio_enable_output_write,"ax",%progbits
 882              		.align	1
 883              		.p2align 2,,3
 884              		.global	pio_enable_output_write
 885              		.syntax unified
 886              		.thumb
 887              		.thumb_func
 888              		.fpu fpv5-d16
 889              		.type	pio_enable_output_write, %function
 890              	pio_enable_output_write:
 891              	.LFB155:
 472:../asf/sam/drivers/pio/pio.c **** 	p_pio->PIO_OWER = ul_mask;
 892              		.loc 1 472 0
 893              		.cfi_startproc
 894              		@ args = 0, pretend = 0, frame = 0
 895              		@ frame_needed = 0, uses_anonymous_args = 0
 896              		@ link register save eliminated.
 897              	.LVL75:
 473:../asf/sam/drivers/pio/pio.c **** }
 898              		.loc 1 473 0
 899 0000 C0F8A010 		str	r1, [r0, #160]
 900 0004 7047     		bx	lr
 901              		.cfi_endproc
 902              	.LFE155:
 903              		.size	pio_enable_output_write, .-pio_enable_output_write
 904 0006 00BF     		.section	.text.pio_disable_output_write,"ax",%progbits
 905              		.align	1
 906              		.p2align 2,,3
 907              		.global	pio_disable_output_write
 908              		.syntax unified
 909              		.thumb
 910              		.thumb_func
 911              		.fpu fpv5-d16
 912              		.type	pio_disable_output_write, %function
 913              	pio_disable_output_write:
 914              	.LFB156:
 483:../asf/sam/drivers/pio/pio.c **** 	p_pio->PIO_OWDR = ul_mask;
 915              		.loc 1 483 0
 916              		.cfi_startproc
 917              		@ args = 0, pretend = 0, frame = 0
 918              		@ frame_needed = 0, uses_anonymous_args = 0
 919              		@ link register save eliminated.
 920              	.LVL76:
 484:../asf/sam/drivers/pio/pio.c **** }
ARM GAS  /tmp/ccqzbxJl.s 			page 30


 921              		.loc 1 484 0
 922 0000 C0F8A410 		str	r1, [r0, #164]
 923 0004 7047     		bx	lr
 924              		.cfi_endproc
 925              	.LFE156:
 926              		.size	pio_disable_output_write, .-pio_disable_output_write
 927 0006 00BF     		.section	.text.pio_get_output_write_status,"ax",%progbits
 928              		.align	1
 929              		.p2align 2,,3
 930              		.global	pio_get_output_write_status
 931              		.syntax unified
 932              		.thumb
 933              		.thumb_func
 934              		.fpu fpv5-d16
 935              		.type	pio_get_output_write_status, %function
 936              	pio_get_output_write_status:
 937              	.LFB157:
 495:../asf/sam/drivers/pio/pio.c **** 	return p_pio->PIO_OWSR;
 938              		.loc 1 495 0
 939              		.cfi_startproc
 940              		@ args = 0, pretend = 0, frame = 0
 941              		@ frame_needed = 0, uses_anonymous_args = 0
 942              		@ link register save eliminated.
 943              	.LVL77:
 496:../asf/sam/drivers/pio/pio.c **** }
 944              		.loc 1 496 0
 945 0000 D0F8A800 		ldr	r0, [r0, #168]
 946              	.LVL78:
 497:../asf/sam/drivers/pio/pio.c **** 
 947              		.loc 1 497 0
 948 0004 7047     		bx	lr
 949              		.cfi_endproc
 950              	.LFE157:
 951              		.size	pio_get_output_write_status, .-pio_get_output_write_status
 952 0006 00BF     		.section	.text.pio_sync_output_write,"ax",%progbits
 953              		.align	1
 954              		.p2align 2,,3
 955              		.global	pio_sync_output_write
 956              		.syntax unified
 957              		.thumb
 958              		.thumb_func
 959              		.fpu fpv5-d16
 960              		.type	pio_sync_output_write, %function
 961              	pio_sync_output_write:
 962              	.LFB158:
 508:../asf/sam/drivers/pio/pio.c **** 	p_pio->PIO_ODSR = ul_mask;
 963              		.loc 1 508 0
 964              		.cfi_startproc
 965              		@ args = 0, pretend = 0, frame = 0
 966              		@ frame_needed = 0, uses_anonymous_args = 0
 967              		@ link register save eliminated.
 968              	.LVL79:
 509:../asf/sam/drivers/pio/pio.c **** }
 969              		.loc 1 509 0
 970 0000 8163     		str	r1, [r0, #56]
 971 0002 7047     		bx	lr
 972              		.cfi_endproc
ARM GAS  /tmp/ccqzbxJl.s 			page 31


 973              	.LFE158:
 974              		.size	pio_sync_output_write, .-pio_sync_output_write
 975              		.section	.text.pio_set_schmitt_trigger,"ax",%progbits
 976              		.align	1
 977              		.p2align 2,,3
 978              		.global	pio_set_schmitt_trigger
 979              		.syntax unified
 980              		.thumb
 981              		.thumb_func
 982              		.fpu fpv5-d16
 983              		.type	pio_set_schmitt_trigger, %function
 984              	pio_set_schmitt_trigger:
 985              	.LFB159:
 522:../asf/sam/drivers/pio/pio.c **** 	p_pio->PIO_SCHMITT = ul_mask;
 986              		.loc 1 522 0
 987              		.cfi_startproc
 988              		@ args = 0, pretend = 0, frame = 0
 989              		@ frame_needed = 0, uses_anonymous_args = 0
 990              		@ link register save eliminated.
 991              	.LVL80:
 523:../asf/sam/drivers/pio/pio.c **** }
 992              		.loc 1 523 0
 993 0000 C0F80011 		str	r1, [r0, #256]
 994 0004 7047     		bx	lr
 995              		.cfi_endproc
 996              	.LFE159:
 997              		.size	pio_set_schmitt_trigger, .-pio_set_schmitt_trigger
 998 0006 00BF     		.section	.text.pio_get_schmitt_trigger,"ax",%progbits
 999              		.align	1
 1000              		.p2align 2,,3
 1001              		.global	pio_get_schmitt_trigger
 1002              		.syntax unified
 1003              		.thumb
 1004              		.thumb_func
 1005              		.fpu fpv5-d16
 1006              		.type	pio_get_schmitt_trigger, %function
 1007              	pio_get_schmitt_trigger:
 1008              	.LFB160:
 534:../asf/sam/drivers/pio/pio.c **** 	return p_pio->PIO_SCHMITT;
 1009              		.loc 1 534 0
 1010              		.cfi_startproc
 1011              		@ args = 0, pretend = 0, frame = 0
 1012              		@ frame_needed = 0, uses_anonymous_args = 0
 1013              		@ link register save eliminated.
 1014              	.LVL81:
 535:../asf/sam/drivers/pio/pio.c **** }
 1015              		.loc 1 535 0
 1016 0000 D0F80001 		ldr	r0, [r0, #256]
 1017              	.LVL82:
 536:../asf/sam/drivers/pio/pio.c **** #endif
 1018              		.loc 1 536 0
 1019 0004 7047     		bx	lr
 1020              		.cfi_endproc
 1021              	.LFE160:
 1022              		.size	pio_get_schmitt_trigger, .-pio_get_schmitt_trigger
 1023 0006 00BF     		.section	.text.pio_enable_interrupt,"ax",%progbits
 1024              		.align	1
ARM GAS  /tmp/ccqzbxJl.s 			page 32


 1025              		.p2align 2,,3
 1026              		.global	pio_enable_interrupt
 1027              		.syntax unified
 1028              		.thumb
 1029              		.thumb_func
 1030              		.fpu fpv5-d16
 1031              		.type	pio_enable_interrupt, %function
 1032              	pio_enable_interrupt:
 1033              	.LFB162:
 589:../asf/sam/drivers/pio/pio.c **** 	p_pio->PIO_IER = ul_mask;
 1034              		.loc 1 589 0
 1035              		.cfi_startproc
 1036              		@ args = 0, pretend = 0, frame = 0
 1037              		@ frame_needed = 0, uses_anonymous_args = 0
 1038              		@ link register save eliminated.
 1039              	.LVL83:
 590:../asf/sam/drivers/pio/pio.c **** }
 1040              		.loc 1 590 0
 1041 0000 0164     		str	r1, [r0, #64]
 1042 0002 7047     		bx	lr
 1043              		.cfi_endproc
 1044              	.LFE162:
 1045              		.size	pio_enable_interrupt, .-pio_enable_interrupt
 1046              		.section	.text.pio_disable_interrupt,"ax",%progbits
 1047              		.align	1
 1048              		.p2align 2,,3
 1049              		.global	pio_disable_interrupt
 1050              		.syntax unified
 1051              		.thumb
 1052              		.thumb_func
 1053              		.fpu fpv5-d16
 1054              		.type	pio_disable_interrupt, %function
 1055              	pio_disable_interrupt:
 1056              	.LFB163:
 600:../asf/sam/drivers/pio/pio.c **** 	p_pio->PIO_IDR = ul_mask;
 1057              		.loc 1 600 0
 1058              		.cfi_startproc
 1059              		@ args = 0, pretend = 0, frame = 0
 1060              		@ frame_needed = 0, uses_anonymous_args = 0
 1061              		@ link register save eliminated.
 1062              	.LVL84:
 1063              		.loc 1 601 0
 1064 0000 4164     		str	r1, [r0, #68]
 1065 0002 7047     		bx	lr
 1066              		.cfi_endproc
 1067              	.LFE163:
 1068              		.size	pio_disable_interrupt, .-pio_disable_interrupt
 1069              		.section	.text.pio_get_interrupt_status,"ax",%progbits
 1070              		.align	1
 1071              		.p2align 2,,3
 1072              		.global	pio_get_interrupt_status
 1073              		.syntax unified
 1074              		.thumb
 1075              		.thumb_func
 1076              		.fpu fpv5-d16
 1077              		.type	pio_get_interrupt_status, %function
 1078              	pio_get_interrupt_status:
ARM GAS  /tmp/ccqzbxJl.s 			page 33


 1079              	.LFB164:
 602:../asf/sam/drivers/pio/pio.c **** }
 603:../asf/sam/drivers/pio/pio.c **** 
 604:../asf/sam/drivers/pio/pio.c **** /**
 605:../asf/sam/drivers/pio/pio.c ****  * \brief Read and clear PIO interrupt status.
 606:../asf/sam/drivers/pio/pio.c ****  *
 607:../asf/sam/drivers/pio/pio.c ****  * \param p_pio Pointer to a PIO instance.
 608:../asf/sam/drivers/pio/pio.c ****  *
 609:../asf/sam/drivers/pio/pio.c ****  * \return The interrupt status value.
 610:../asf/sam/drivers/pio/pio.c ****  */
 611:../asf/sam/drivers/pio/pio.c **** uint32_t pio_get_interrupt_status(const Pio *p_pio)
 612:../asf/sam/drivers/pio/pio.c **** {
 1080              		.loc 1 612 0
 1081              		.cfi_startproc
 1082              		@ args = 0, pretend = 0, frame = 0
 1083              		@ frame_needed = 0, uses_anonymous_args = 0
 1084              		@ link register save eliminated.
 1085              	.LVL85:
 613:../asf/sam/drivers/pio/pio.c **** 	return p_pio->PIO_ISR;
 1086              		.loc 1 613 0
 1087 0000 C06C     		ldr	r0, [r0, #76]
 1088              	.LVL86:
 614:../asf/sam/drivers/pio/pio.c **** }
 1089              		.loc 1 614 0
 1090 0002 7047     		bx	lr
 1091              		.cfi_endproc
 1092              	.LFE164:
 1093              		.size	pio_get_interrupt_status, .-pio_get_interrupt_status
 1094              		.section	.text.pio_get_interrupt_mask,"ax",%progbits
 1095              		.align	1
 1096              		.p2align 2,,3
 1097              		.global	pio_get_interrupt_mask
 1098              		.syntax unified
 1099              		.thumb
 1100              		.thumb_func
 1101              		.fpu fpv5-d16
 1102              		.type	pio_get_interrupt_mask, %function
 1103              	pio_get_interrupt_mask:
 1104              	.LFB165:
 615:../asf/sam/drivers/pio/pio.c **** 
 616:../asf/sam/drivers/pio/pio.c **** /**
 617:../asf/sam/drivers/pio/pio.c ****  * \brief Read PIO interrupt mask.
 618:../asf/sam/drivers/pio/pio.c ****  *
 619:../asf/sam/drivers/pio/pio.c ****  * \param p_pio Pointer to a PIO instance.
 620:../asf/sam/drivers/pio/pio.c ****  *
 621:../asf/sam/drivers/pio/pio.c ****  * \return The interrupt mask value.
 622:../asf/sam/drivers/pio/pio.c ****  */
 623:../asf/sam/drivers/pio/pio.c **** uint32_t pio_get_interrupt_mask(const Pio *p_pio)
 624:../asf/sam/drivers/pio/pio.c **** {
 1105              		.loc 1 624 0
 1106              		.cfi_startproc
 1107              		@ args = 0, pretend = 0, frame = 0
 1108              		@ frame_needed = 0, uses_anonymous_args = 0
 1109              		@ link register save eliminated.
 1110              	.LVL87:
 625:../asf/sam/drivers/pio/pio.c **** 	return p_pio->PIO_IMR;
 1111              		.loc 1 625 0
ARM GAS  /tmp/ccqzbxJl.s 			page 34


 1112 0000 806C     		ldr	r0, [r0, #72]
 1113              	.LVL88:
 626:../asf/sam/drivers/pio/pio.c **** }
 1114              		.loc 1 626 0
 1115 0002 7047     		bx	lr
 1116              		.cfi_endproc
 1117              	.LFE165:
 1118              		.size	pio_get_interrupt_mask, .-pio_get_interrupt_mask
 1119              		.section	.text.pio_set_additional_interrupt_mode,"ax",%progbits
 1120              		.align	1
 1121              		.p2align 2,,3
 1122              		.global	pio_set_additional_interrupt_mode
 1123              		.syntax unified
 1124              		.thumb
 1125              		.thumb_func
 1126              		.fpu fpv5-d16
 1127              		.type	pio_set_additional_interrupt_mode, %function
 1128              	pio_set_additional_interrupt_mode:
 1129              	.LFB166:
 627:../asf/sam/drivers/pio/pio.c **** 
 628:../asf/sam/drivers/pio/pio.c **** /**
 629:../asf/sam/drivers/pio/pio.c ****  * \brief Set additional interrupt mode.
 630:../asf/sam/drivers/pio/pio.c ****  *
 631:../asf/sam/drivers/pio/pio.c ****  * \param p_pio Pointer to a PIO instance.
 632:../asf/sam/drivers/pio/pio.c ****  * \param ul_mask Interrupt sources bit map.
 633:../asf/sam/drivers/pio/pio.c ****  * \param ul_attribute Pin(s) attributes.
 634:../asf/sam/drivers/pio/pio.c ****  */
 635:../asf/sam/drivers/pio/pio.c **** void pio_set_additional_interrupt_mode(Pio *p_pio,
 636:../asf/sam/drivers/pio/pio.c **** 		const uint32_t ul_mask, const uint32_t ul_attribute)
 637:../asf/sam/drivers/pio/pio.c **** {
 1130              		.loc 1 637 0
 1131              		.cfi_startproc
 1132              		@ args = 0, pretend = 0, frame = 0
 1133              		@ frame_needed = 0, uses_anonymous_args = 0
 1134              		@ link register save eliminated.
 1135              	.LVL89:
 638:../asf/sam/drivers/pio/pio.c **** 	/* Enables additional interrupt mode if needed */
 639:../asf/sam/drivers/pio/pio.c **** 	if (ul_attribute & PIO_IT_AIME) {
 1136              		.loc 1 639 0
 1137 0000 D306     		lsls	r3, r2, #27
 1138 0002 0AD5     		bpl	.L128
 640:../asf/sam/drivers/pio/pio.c **** 		/* Enables additional interrupt mode */
 641:../asf/sam/drivers/pio/pio.c **** 		p_pio->PIO_AIMER = ul_mask;
 642:../asf/sam/drivers/pio/pio.c **** 
 643:../asf/sam/drivers/pio/pio.c **** 		/* Configures the Polarity of the event detection */
 644:../asf/sam/drivers/pio/pio.c **** 		/* (Rising/Falling Edge or High/Low Level) */
 645:../asf/sam/drivers/pio/pio.c **** 		if (ul_attribute & PIO_IT_RE_OR_HL) {
 1139              		.loc 1 645 0
 1140 0004 9306     		lsls	r3, r2, #26
 641:../asf/sam/drivers/pio/pio.c **** 
 1141              		.loc 1 641 0
 1142 0006 C0F8B010 		str	r1, [r0, #176]
 1143              		.loc 1 645 0
 1144 000a 09D4     		bmi	.L133
 646:../asf/sam/drivers/pio/pio.c **** 			/* Rising Edge or High Level */
 647:../asf/sam/drivers/pio/pio.c **** 			p_pio->PIO_REHLSR = ul_mask;
 648:../asf/sam/drivers/pio/pio.c **** 		} else {
ARM GAS  /tmp/ccqzbxJl.s 			page 35


 649:../asf/sam/drivers/pio/pio.c **** 			/* Falling Edge or Low Level */
 650:../asf/sam/drivers/pio/pio.c **** 			p_pio->PIO_FELLSR = ul_mask;
 651:../asf/sam/drivers/pio/pio.c **** 		}
 652:../asf/sam/drivers/pio/pio.c **** 
 653:../asf/sam/drivers/pio/pio.c **** 		/* Configures the type of event detection (Edge or Level) */
 654:../asf/sam/drivers/pio/pio.c **** 		if (ul_attribute & PIO_IT_EDGE) {
 1145              		.loc 1 654 0
 1146 000c 5306     		lsls	r3, r2, #25
 650:../asf/sam/drivers/pio/pio.c **** 		}
 1147              		.loc 1 650 0
 1148 000e C0F8D010 		str	r1, [r0, #208]
 1149              		.loc 1 654 0
 1150 0012 09D5     		bpl	.L131
 1151              	.L134:
 655:../asf/sam/drivers/pio/pio.c **** 			/* Edge select */
 656:../asf/sam/drivers/pio/pio.c **** 			p_pio->PIO_ESR = ul_mask;
 1152              		.loc 1 656 0
 1153 0014 C0F8C010 		str	r1, [r0, #192]
 1154 0018 7047     		bx	lr
 1155              	.L128:
 657:../asf/sam/drivers/pio/pio.c **** 		} else {
 658:../asf/sam/drivers/pio/pio.c **** 			/* Level select */
 659:../asf/sam/drivers/pio/pio.c **** 			p_pio->PIO_LSR = ul_mask;
 660:../asf/sam/drivers/pio/pio.c **** 		}
 661:../asf/sam/drivers/pio/pio.c **** 	} else {
 662:../asf/sam/drivers/pio/pio.c **** 		/* Disable additional interrupt mode */
 663:../asf/sam/drivers/pio/pio.c **** 		p_pio->PIO_AIMDR = ul_mask;
 1156              		.loc 1 663 0
 1157 001a C0F8B410 		str	r1, [r0, #180]
 1158 001e 7047     		bx	lr
 1159              	.L133:
 654:../asf/sam/drivers/pio/pio.c **** 			/* Edge select */
 1160              		.loc 1 654 0
 1161 0020 5306     		lsls	r3, r2, #25
 647:../asf/sam/drivers/pio/pio.c **** 		} else {
 1162              		.loc 1 647 0
 1163 0022 C0F8D410 		str	r1, [r0, #212]
 654:../asf/sam/drivers/pio/pio.c **** 			/* Edge select */
 1164              		.loc 1 654 0
 1165 0026 F5D4     		bmi	.L134
 1166              	.L131:
 659:../asf/sam/drivers/pio/pio.c **** 		}
 1167              		.loc 1 659 0
 1168 0028 C0F8C410 		str	r1, [r0, #196]
 1169 002c 7047     		bx	lr
 1170              		.cfi_endproc
 1171              	.LFE166:
 1172              		.size	pio_set_additional_interrupt_mode, .-pio_set_additional_interrupt_mode
 1173 002e 00BF     		.section	.text.pio_configure_interrupt,"ax",%progbits
 1174              		.align	1
 1175              		.p2align 2,,3
 1176              		.global	pio_configure_interrupt
 1177              		.syntax unified
 1178              		.thumb
 1179              		.thumb_func
 1180              		.fpu fpv5-d16
 1181              		.type	pio_configure_interrupt, %function
ARM GAS  /tmp/ccqzbxJl.s 			page 36


 1182              	pio_configure_interrupt:
 1183              	.LFB197:
 1184              		.cfi_startproc
 1185              		@ args = 0, pretend = 0, frame = 0
 1186              		@ frame_needed = 0, uses_anonymous_args = 0
 1187              		@ link register save eliminated.
 1188 0000 FFF7FEBF 		b	pio_set_additional_interrupt_mode
 1189              		.cfi_endproc
 1190              	.LFE197:
 1191              		.size	pio_configure_interrupt, .-pio_configure_interrupt
 1192              		.section	.text.pio_set_writeprotect,"ax",%progbits
 1193              		.align	1
 1194              		.p2align 2,,3
 1195              		.global	pio_set_writeprotect
 1196              		.syntax unified
 1197              		.thumb
 1198              		.thumb_func
 1199              		.fpu fpv5-d16
 1200              		.type	pio_set_writeprotect, %function
 1201              	pio_set_writeprotect:
 1202              	.LFB167:
 664:../asf/sam/drivers/pio/pio.c **** 	}
 665:../asf/sam/drivers/pio/pio.c **** }
 666:../asf/sam/drivers/pio/pio.c **** 
 667:../asf/sam/drivers/pio/pio.c **** #ifndef PIO_WPMR_WPKEY_PASSWD
 668:../asf/sam/drivers/pio/pio.c **** #define PIO_WPMR_WPKEY_PASSWD    PIO_WPMR_WPKEY(0x50494FU)
 669:../asf/sam/drivers/pio/pio.c **** #endif
 670:../asf/sam/drivers/pio/pio.c **** 
 671:../asf/sam/drivers/pio/pio.c **** /**
 672:../asf/sam/drivers/pio/pio.c ****  * \brief Enable or disable write protect of PIO registers.
 673:../asf/sam/drivers/pio/pio.c ****  *
 674:../asf/sam/drivers/pio/pio.c ****  * \param p_pio Pointer to a PIO instance.
 675:../asf/sam/drivers/pio/pio.c ****  * \param ul_enable 1 to enable, 0 to disable.
 676:../asf/sam/drivers/pio/pio.c ****  */
 677:../asf/sam/drivers/pio/pio.c **** void pio_set_writeprotect(Pio *p_pio, const uint32_t ul_enable)
 678:../asf/sam/drivers/pio/pio.c **** {
 1203              		.loc 1 678 0
 1204              		.cfi_startproc
 1205              		@ args = 0, pretend = 0, frame = 0
 1206              		@ frame_needed = 0, uses_anonymous_args = 0
 1207              		@ link register save eliminated.
 1208              	.LVL90:
 679:../asf/sam/drivers/pio/pio.c **** 	p_pio->PIO_WPMR = PIO_WPMR_WPKEY_PASSWD | (ul_enable & PIO_WPMR_WPEN);
 1209              		.loc 1 679 0
 1210 0000 01F00101 		and	r1, r1, #1
 1211              	.LVL91:
 1212 0004 024B     		ldr	r3, .L137
 1213 0006 0B43     		orrs	r3, r3, r1
 1214 0008 C0F8E430 		str	r3, [r0, #228]
 1215 000c 7047     		bx	lr
 1216              	.L138:
 1217 000e 00BF     		.align	2
 1218              	.L137:
 1219 0010 004F4950 		.word	1346981632
 1220              		.cfi_endproc
 1221              	.LFE167:
 1222              		.size	pio_set_writeprotect, .-pio_set_writeprotect
ARM GAS  /tmp/ccqzbxJl.s 			page 37


 1223              		.section	.text.pio_get_writeprotect_status,"ax",%progbits
 1224              		.align	1
 1225              		.p2align 2,,3
 1226              		.global	pio_get_writeprotect_status
 1227              		.syntax unified
 1228              		.thumb
 1229              		.thumb_func
 1230              		.fpu fpv5-d16
 1231              		.type	pio_get_writeprotect_status, %function
 1232              	pio_get_writeprotect_status:
 1233              	.LFB168:
 680:../asf/sam/drivers/pio/pio.c **** }
 681:../asf/sam/drivers/pio/pio.c **** 
 682:../asf/sam/drivers/pio/pio.c **** /**
 683:../asf/sam/drivers/pio/pio.c ****  * \brief Read write protect status.
 684:../asf/sam/drivers/pio/pio.c ****  *
 685:../asf/sam/drivers/pio/pio.c ****  * \param p_pio Pointer to a PIO instance.
 686:../asf/sam/drivers/pio/pio.c ****  *
 687:../asf/sam/drivers/pio/pio.c ****  * \return Return write protect status.
 688:../asf/sam/drivers/pio/pio.c ****  */
 689:../asf/sam/drivers/pio/pio.c **** uint32_t pio_get_writeprotect_status(const Pio *p_pio)
 690:../asf/sam/drivers/pio/pio.c **** {
 1234              		.loc 1 690 0
 1235              		.cfi_startproc
 1236              		@ args = 0, pretend = 0, frame = 0
 1237              		@ frame_needed = 0, uses_anonymous_args = 0
 1238              		@ link register save eliminated.
 1239              	.LVL92:
 691:../asf/sam/drivers/pio/pio.c **** 	return p_pio->PIO_WPSR;
 1240              		.loc 1 691 0
 1241 0000 D0F8E800 		ldr	r0, [r0, #232]
 1242              	.LVL93:
 692:../asf/sam/drivers/pio/pio.c **** }
 1243              		.loc 1 692 0
 1244 0004 7047     		bx	lr
 1245              		.cfi_endproc
 1246              	.LFE168:
 1247              		.size	pio_get_writeprotect_status, .-pio_get_writeprotect_status
 1248 0006 00BF     		.section	.text.pio_get_pin_value,"ax",%progbits
 1249              		.align	1
 1250              		.p2align 2,,3
 1251              		.global	pio_get_pin_value
 1252              		.syntax unified
 1253              		.thumb
 1254              		.thumb_func
 1255              		.fpu fpv5-d16
 1256              		.type	pio_get_pin_value, %function
 1257              	pio_get_pin_value:
 1258              	.LFB169:
 693:../asf/sam/drivers/pio/pio.c **** 
 694:../asf/sam/drivers/pio/pio.c **** /**
 695:../asf/sam/drivers/pio/pio.c ****  * \brief Return the value of a pin.
 696:../asf/sam/drivers/pio/pio.c ****  *
 697:../asf/sam/drivers/pio/pio.c ****  * \param ul_pin The pin number.
 698:../asf/sam/drivers/pio/pio.c ****  *
 699:../asf/sam/drivers/pio/pio.c ****  * \return The pin value.
 700:../asf/sam/drivers/pio/pio.c ****  *
ARM GAS  /tmp/ccqzbxJl.s 			page 38


 701:../asf/sam/drivers/pio/pio.c ****  * \note If pin is output: a pull-up or pull-down could hide the actual value.
 702:../asf/sam/drivers/pio/pio.c ****  *       The function \ref pio_get can be called to get the actual pin output
 703:../asf/sam/drivers/pio/pio.c ****  *       level.
 704:../asf/sam/drivers/pio/pio.c ****  * \note If pin is input: PIOx must be clocked to sample the signal.
 705:../asf/sam/drivers/pio/pio.c ****  *       See PMC driver.
 706:../asf/sam/drivers/pio/pio.c ****  */
 707:../asf/sam/drivers/pio/pio.c **** uint32_t pio_get_pin_value(uint32_t ul_pin)
 708:../asf/sam/drivers/pio/pio.c **** {
 1259              		.loc 1 708 0
 1260              		.cfi_startproc
 1261              		@ args = 0, pretend = 0, frame = 0
 1262              		@ frame_needed = 0, uses_anonymous_args = 0
 1263              		@ link register save eliminated.
 1264              	.LVL94:
 1265              	.LBB146:
 1266              	.LBB147:
 709:../asf/sam/drivers/pio/pio.c **** 	Pio *p_pio = pio_get_pin_group(ul_pin);
 710:../asf/sam/drivers/pio/pio.c **** 
 711:../asf/sam/drivers/pio/pio.c **** 	return (p_pio->PIO_PDSR >> (ul_pin & 0x1F)) & 1;
 712:../asf/sam/drivers/pio/pio.c **** }
 713:../asf/sam/drivers/pio/pio.c **** 
 714:../asf/sam/drivers/pio/pio.c **** /**
 715:../asf/sam/drivers/pio/pio.c ****  * \brief Drive a GPIO pin to 1.
 716:../asf/sam/drivers/pio/pio.c ****  *
 717:../asf/sam/drivers/pio/pio.c ****  * \param ul_pin The pin index.
 718:../asf/sam/drivers/pio/pio.c ****  *
 719:../asf/sam/drivers/pio/pio.c ****  * \note The function \ref pio_configure_pin must be called beforehand.
 720:../asf/sam/drivers/pio/pio.c ****  */
 721:../asf/sam/drivers/pio/pio.c **** void pio_set_pin_high(uint32_t ul_pin)
 722:../asf/sam/drivers/pio/pio.c **** {
 723:../asf/sam/drivers/pio/pio.c **** 	Pio *p_pio = pio_get_pin_group(ul_pin);
 724:../asf/sam/drivers/pio/pio.c **** 
 725:../asf/sam/drivers/pio/pio.c **** 	/* Value to be driven on the I/O line: 1. */
 726:../asf/sam/drivers/pio/pio.c **** 	p_pio->PIO_SODR = 1 << (ul_pin & 0x1F);
 727:../asf/sam/drivers/pio/pio.c **** }
 728:../asf/sam/drivers/pio/pio.c **** 
 729:../asf/sam/drivers/pio/pio.c **** /**
 730:../asf/sam/drivers/pio/pio.c ****  * \brief Drive a GPIO pin to 0.
 731:../asf/sam/drivers/pio/pio.c ****  *
 732:../asf/sam/drivers/pio/pio.c ****  * \param ul_pin The pin index.
 733:../asf/sam/drivers/pio/pio.c ****  *
 734:../asf/sam/drivers/pio/pio.c ****  * \note The function \ref pio_configure_pin must be called before.
 735:../asf/sam/drivers/pio/pio.c ****  */
 736:../asf/sam/drivers/pio/pio.c **** void pio_set_pin_low(uint32_t ul_pin)
 737:../asf/sam/drivers/pio/pio.c **** {
 738:../asf/sam/drivers/pio/pio.c **** 	Pio *p_pio = pio_get_pin_group(ul_pin);
 739:../asf/sam/drivers/pio/pio.c **** 
 740:../asf/sam/drivers/pio/pio.c **** 	/* Value to be driven on the I/O line: 0. */
 741:../asf/sam/drivers/pio/pio.c **** 	p_pio->PIO_CODR = 1 << (ul_pin & 0x1F);
 742:../asf/sam/drivers/pio/pio.c **** }
 743:../asf/sam/drivers/pio/pio.c **** 
 744:../asf/sam/drivers/pio/pio.c **** /**
 745:../asf/sam/drivers/pio/pio.c ****  * \brief Toggle a GPIO pin.
 746:../asf/sam/drivers/pio/pio.c ****  *
 747:../asf/sam/drivers/pio/pio.c ****  * \param ul_pin The pin index.
 748:../asf/sam/drivers/pio/pio.c ****  *
 749:../asf/sam/drivers/pio/pio.c ****  * \note The function \ref pio_configure_pin must be called before.
ARM GAS  /tmp/ccqzbxJl.s 			page 39


 750:../asf/sam/drivers/pio/pio.c ****  */
 751:../asf/sam/drivers/pio/pio.c **** void pio_toggle_pin(uint32_t ul_pin)
 752:../asf/sam/drivers/pio/pio.c **** {
 753:../asf/sam/drivers/pio/pio.c **** 	Pio *p_pio = pio_get_pin_group(ul_pin);
 754:../asf/sam/drivers/pio/pio.c **** 
 755:../asf/sam/drivers/pio/pio.c **** 	if (p_pio->PIO_ODSR & (1 << (ul_pin & 0x1F))) {
 756:../asf/sam/drivers/pio/pio.c **** 		/* Value to be driven on the I/O line: 0. */
 757:../asf/sam/drivers/pio/pio.c **** 		p_pio->PIO_CODR = 1 << (ul_pin & 0x1F);
 758:../asf/sam/drivers/pio/pio.c **** 	} else {
 759:../asf/sam/drivers/pio/pio.c **** 		/* Value to be driven on the I/O line: 1. */
 760:../asf/sam/drivers/pio/pio.c **** 		p_pio->PIO_SODR = 1 << (ul_pin & 0x1F);
 761:../asf/sam/drivers/pio/pio.c **** 	}
 762:../asf/sam/drivers/pio/pio.c **** }
 763:../asf/sam/drivers/pio/pio.c **** 
 764:../asf/sam/drivers/pio/pio.c **** /**
 765:../asf/sam/drivers/pio/pio.c ****  * \brief Perform complete pin(s) configuration; general attributes and PIO init
 766:../asf/sam/drivers/pio/pio.c ****  * if necessary.
 767:../asf/sam/drivers/pio/pio.c ****  *
 768:../asf/sam/drivers/pio/pio.c ****  * \param ul_pin The pin index.
 769:../asf/sam/drivers/pio/pio.c ****  * \param ul_flags Pins attributes.
 770:../asf/sam/drivers/pio/pio.c ****  *
 771:../asf/sam/drivers/pio/pio.c ****  * \return Whether the pin(s) have been configured properly.
 772:../asf/sam/drivers/pio/pio.c ****  */
 773:../asf/sam/drivers/pio/pio.c **** uint32_t pio_configure_pin(uint32_t ul_pin, const uint32_t ul_flags)
 774:../asf/sam/drivers/pio/pio.c **** {
 775:../asf/sam/drivers/pio/pio.c **** 	Pio *p_pio = pio_get_pin_group(ul_pin);
 776:../asf/sam/drivers/pio/pio.c **** 
 777:../asf/sam/drivers/pio/pio.c **** 	/* Configure pins */
 778:../asf/sam/drivers/pio/pio.c **** 	switch (ul_flags & PIO_TYPE_Msk) {
 779:../asf/sam/drivers/pio/pio.c **** 	case PIO_TYPE_PIO_PERIPH_A:
 780:../asf/sam/drivers/pio/pio.c **** 		pio_set_peripheral(p_pio, PIO_PERIPH_A, (1 << (ul_pin & 0x1F)));
 781:../asf/sam/drivers/pio/pio.c **** 		pio_pull_up(p_pio, (1 << (ul_pin & 0x1F)),
 782:../asf/sam/drivers/pio/pio.c **** 				(ul_flags & PIO_PULLUP));
 783:../asf/sam/drivers/pio/pio.c **** 		break;
 784:../asf/sam/drivers/pio/pio.c **** 	case PIO_TYPE_PIO_PERIPH_B:
 785:../asf/sam/drivers/pio/pio.c **** 		pio_set_peripheral(p_pio, PIO_PERIPH_B, (1 << (ul_pin & 0x1F)));
 786:../asf/sam/drivers/pio/pio.c **** 		pio_pull_up(p_pio, (1 << (ul_pin & 0x1F)),
 787:../asf/sam/drivers/pio/pio.c **** 				(ul_flags & PIO_PULLUP));
 788:../asf/sam/drivers/pio/pio.c **** 		break;
 789:../asf/sam/drivers/pio/pio.c **** #if (SAM3S || SAM3N || SAM4S || SAM4E || SAM4N || SAM4C || SAM4CP || SAM4CM || SAMV71 || SAMV70 || 
 790:../asf/sam/drivers/pio/pio.c **** 	case PIO_TYPE_PIO_PERIPH_C:
 791:../asf/sam/drivers/pio/pio.c **** 		pio_set_peripheral(p_pio, PIO_PERIPH_C, (1 << (ul_pin & 0x1F)));
 792:../asf/sam/drivers/pio/pio.c **** 		pio_pull_up(p_pio, (1 << (ul_pin & 0x1F)),
 793:../asf/sam/drivers/pio/pio.c **** 				(ul_flags & PIO_PULLUP));
 794:../asf/sam/drivers/pio/pio.c **** 		break;
 795:../asf/sam/drivers/pio/pio.c **** 	case PIO_TYPE_PIO_PERIPH_D:
 796:../asf/sam/drivers/pio/pio.c **** 		pio_set_peripheral(p_pio, PIO_PERIPH_D, (1 << (ul_pin & 0x1F)));
 797:../asf/sam/drivers/pio/pio.c **** 		pio_pull_up(p_pio, (1 << (ul_pin & 0x1F)),
 798:../asf/sam/drivers/pio/pio.c **** 				(ul_flags & PIO_PULLUP));
 799:../asf/sam/drivers/pio/pio.c **** 		break;
 800:../asf/sam/drivers/pio/pio.c **** #endif
 801:../asf/sam/drivers/pio/pio.c **** 
 802:../asf/sam/drivers/pio/pio.c **** 	case PIO_TYPE_PIO_INPUT:
 803:../asf/sam/drivers/pio/pio.c **** 		pio_set_input(p_pio, (1 << (ul_pin & 0x1F)), ul_flags);
 804:../asf/sam/drivers/pio/pio.c **** 		break;
 805:../asf/sam/drivers/pio/pio.c **** 
 806:../asf/sam/drivers/pio/pio.c **** 	case PIO_TYPE_PIO_OUTPUT_0:
ARM GAS  /tmp/ccqzbxJl.s 			page 40


 807:../asf/sam/drivers/pio/pio.c **** 	case PIO_TYPE_PIO_OUTPUT_1:
 808:../asf/sam/drivers/pio/pio.c **** 		pio_set_output(p_pio, (1 << (ul_pin & 0x1F)),
 809:../asf/sam/drivers/pio/pio.c **** 				((ul_flags & PIO_TYPE_PIO_OUTPUT_1)
 810:../asf/sam/drivers/pio/pio.c **** 				== PIO_TYPE_PIO_OUTPUT_1) ? 1 : 0,
 811:../asf/sam/drivers/pio/pio.c **** 				(ul_flags & PIO_OPENDRAIN) ? 1 : 0,
 812:../asf/sam/drivers/pio/pio.c **** 				(ul_flags & PIO_PULLUP) ? 1 : 0);
 813:../asf/sam/drivers/pio/pio.c **** 		break;
 814:../asf/sam/drivers/pio/pio.c **** 
 815:../asf/sam/drivers/pio/pio.c **** 	default:
 816:../asf/sam/drivers/pio/pio.c **** 		return 0;
 817:../asf/sam/drivers/pio/pio.c **** 	}
 818:../asf/sam/drivers/pio/pio.c **** 
 819:../asf/sam/drivers/pio/pio.c **** 	return 1;
 820:../asf/sam/drivers/pio/pio.c **** }
 821:../asf/sam/drivers/pio/pio.c **** 
 822:../asf/sam/drivers/pio/pio.c **** /**
 823:../asf/sam/drivers/pio/pio.c ****  * \brief Drive a GPIO port to 1.
 824:../asf/sam/drivers/pio/pio.c ****  *
 825:../asf/sam/drivers/pio/pio.c ****  * \param p_pio Base address of the PIO port.
 826:../asf/sam/drivers/pio/pio.c ****  * \param ul_mask Bitmask of one or more pin(s) to toggle.
 827:../asf/sam/drivers/pio/pio.c ****  */
 828:../asf/sam/drivers/pio/pio.c **** void pio_set_pin_group_high(Pio *p_pio, uint32_t ul_mask)
 829:../asf/sam/drivers/pio/pio.c **** {
 830:../asf/sam/drivers/pio/pio.c **** 	/* Value to be driven on the I/O line: 1. */
 831:../asf/sam/drivers/pio/pio.c **** 	p_pio->PIO_SODR = ul_mask;
 832:../asf/sam/drivers/pio/pio.c **** }
 833:../asf/sam/drivers/pio/pio.c **** 
 834:../asf/sam/drivers/pio/pio.c **** /**
 835:../asf/sam/drivers/pio/pio.c ****  * \brief Drive a GPIO port to 0.
 836:../asf/sam/drivers/pio/pio.c ****  *
 837:../asf/sam/drivers/pio/pio.c ****  * \param p_pio Base address of the PIO port.
 838:../asf/sam/drivers/pio/pio.c ****  * \param ul_mask Bitmask of one or more pin(s) to toggle.
 839:../asf/sam/drivers/pio/pio.c ****  */
 840:../asf/sam/drivers/pio/pio.c **** void pio_set_pin_group_low(Pio *p_pio, uint32_t ul_mask)
 841:../asf/sam/drivers/pio/pio.c **** {
 842:../asf/sam/drivers/pio/pio.c **** 	/* Value to be driven on the I/O line: 0. */
 843:../asf/sam/drivers/pio/pio.c **** 	p_pio->PIO_CODR = ul_mask;
 844:../asf/sam/drivers/pio/pio.c **** }
 845:../asf/sam/drivers/pio/pio.c **** 
 846:../asf/sam/drivers/pio/pio.c **** /**
 847:../asf/sam/drivers/pio/pio.c ****  * \brief Toggle a GPIO group.
 848:../asf/sam/drivers/pio/pio.c ****  *
 849:../asf/sam/drivers/pio/pio.c ****  * \param p_pio Pointer to a PIO instance.
 850:../asf/sam/drivers/pio/pio.c ****  * \param ul_mask Bitmask of one or more pin(s) to configure.
 851:../asf/sam/drivers/pio/pio.c ****  */
 852:../asf/sam/drivers/pio/pio.c **** void pio_toggle_pin_group(Pio *p_pio, uint32_t ul_mask)
 853:../asf/sam/drivers/pio/pio.c **** {
 854:../asf/sam/drivers/pio/pio.c **** 	if (p_pio->PIO_ODSR & ul_mask) {
 855:../asf/sam/drivers/pio/pio.c **** 		/* Value to be driven on the I/O line: 0. */
 856:../asf/sam/drivers/pio/pio.c **** 		p_pio->PIO_CODR = ul_mask;
 857:../asf/sam/drivers/pio/pio.c **** 	} else {
 858:../asf/sam/drivers/pio/pio.c **** 		/* Value to be driven on the I/O line: 1. */
 859:../asf/sam/drivers/pio/pio.c **** 		p_pio->PIO_SODR = ul_mask;
 860:../asf/sam/drivers/pio/pio.c **** 	}
 861:../asf/sam/drivers/pio/pio.c **** }
 862:../asf/sam/drivers/pio/pio.c **** 
 863:../asf/sam/drivers/pio/pio.c **** /**
ARM GAS  /tmp/ccqzbxJl.s 			page 41


 864:../asf/sam/drivers/pio/pio.c ****  * \brief Perform complete pin(s) configuration; general attributes and PIO init
 865:../asf/sam/drivers/pio/pio.c ****  * if necessary.
 866:../asf/sam/drivers/pio/pio.c ****  *
 867:../asf/sam/drivers/pio/pio.c ****  * \param p_pio Pointer to a PIO instance.
 868:../asf/sam/drivers/pio/pio.c ****  * \param ul_mask Bitmask of one or more pin(s) to configure.
 869:../asf/sam/drivers/pio/pio.c ****  * \param ul_flags Pin(s) attributes.
 870:../asf/sam/drivers/pio/pio.c ****  *
 871:../asf/sam/drivers/pio/pio.c ****  * \return Whether the pin(s) have been configured properly.
 872:../asf/sam/drivers/pio/pio.c ****  */
 873:../asf/sam/drivers/pio/pio.c **** uint32_t pio_configure_pin_group(Pio *p_pio,
 874:../asf/sam/drivers/pio/pio.c **** 		uint32_t ul_mask, const uint32_t ul_flags)
 875:../asf/sam/drivers/pio/pio.c **** {
 876:../asf/sam/drivers/pio/pio.c **** 	/* Configure pins */
 877:../asf/sam/drivers/pio/pio.c **** 	switch (ul_flags & PIO_TYPE_Msk) {
 878:../asf/sam/drivers/pio/pio.c **** 	case PIO_TYPE_PIO_PERIPH_A:
 879:../asf/sam/drivers/pio/pio.c **** 		pio_set_peripheral(p_pio, PIO_PERIPH_A, ul_mask);
 880:../asf/sam/drivers/pio/pio.c **** 		pio_pull_up(p_pio, ul_mask, (ul_flags & PIO_PULLUP));
 881:../asf/sam/drivers/pio/pio.c **** 		break;
 882:../asf/sam/drivers/pio/pio.c **** 	case PIO_TYPE_PIO_PERIPH_B:
 883:../asf/sam/drivers/pio/pio.c **** 		pio_set_peripheral(p_pio, PIO_PERIPH_B, ul_mask);
 884:../asf/sam/drivers/pio/pio.c **** 		pio_pull_up(p_pio, ul_mask, (ul_flags & PIO_PULLUP));
 885:../asf/sam/drivers/pio/pio.c **** 		break;
 886:../asf/sam/drivers/pio/pio.c **** #if (SAM3S || SAM3N || SAM4S || SAM4E || SAM4N || SAM4C || SAM4CP || SAM4CM || SAMV71 || SAMV70 || 
 887:../asf/sam/drivers/pio/pio.c **** 	case PIO_TYPE_PIO_PERIPH_C:
 888:../asf/sam/drivers/pio/pio.c **** 		pio_set_peripheral(p_pio, PIO_PERIPH_C, ul_mask);
 889:../asf/sam/drivers/pio/pio.c **** 		pio_pull_up(p_pio, ul_mask, (ul_flags & PIO_PULLUP));
 890:../asf/sam/drivers/pio/pio.c **** 		break;
 891:../asf/sam/drivers/pio/pio.c **** 	case PIO_TYPE_PIO_PERIPH_D:
 892:../asf/sam/drivers/pio/pio.c **** 		pio_set_peripheral(p_pio, PIO_PERIPH_D, ul_mask);
 893:../asf/sam/drivers/pio/pio.c **** 		pio_pull_up(p_pio, ul_mask, (ul_flags & PIO_PULLUP));
 894:../asf/sam/drivers/pio/pio.c **** 		break;
 895:../asf/sam/drivers/pio/pio.c **** #endif
 896:../asf/sam/drivers/pio/pio.c **** 
 897:../asf/sam/drivers/pio/pio.c **** 	case PIO_TYPE_PIO_INPUT:
 898:../asf/sam/drivers/pio/pio.c **** 		pio_set_input(p_pio, ul_mask, ul_flags);
 899:../asf/sam/drivers/pio/pio.c **** 		break;
 900:../asf/sam/drivers/pio/pio.c **** 
 901:../asf/sam/drivers/pio/pio.c **** 	case PIO_TYPE_PIO_OUTPUT_0:
 902:../asf/sam/drivers/pio/pio.c **** 	case PIO_TYPE_PIO_OUTPUT_1:
 903:../asf/sam/drivers/pio/pio.c **** 		pio_set_output(p_pio, ul_mask,
 904:../asf/sam/drivers/pio/pio.c **** 				((ul_flags & PIO_TYPE_PIO_OUTPUT_1)
 905:../asf/sam/drivers/pio/pio.c **** 				== PIO_TYPE_PIO_OUTPUT_1) ? 1 : 0,
 906:../asf/sam/drivers/pio/pio.c **** 				(ul_flags & PIO_OPENDRAIN) ? 1 : 0,
 907:../asf/sam/drivers/pio/pio.c **** 				(ul_flags & PIO_PULLUP) ? 1 : 0);
 908:../asf/sam/drivers/pio/pio.c **** 		break;
 909:../asf/sam/drivers/pio/pio.c **** 
 910:../asf/sam/drivers/pio/pio.c **** 	default:
 911:../asf/sam/drivers/pio/pio.c **** 		return 0;
 912:../asf/sam/drivers/pio/pio.c **** 	}
 913:../asf/sam/drivers/pio/pio.c **** 
 914:../asf/sam/drivers/pio/pio.c **** 	return 1;
 915:../asf/sam/drivers/pio/pio.c **** }
 916:../asf/sam/drivers/pio/pio.c **** 
 917:../asf/sam/drivers/pio/pio.c **** /**
 918:../asf/sam/drivers/pio/pio.c ****  * \brief Enable interrupt for a GPIO pin.
 919:../asf/sam/drivers/pio/pio.c ****  *
 920:../asf/sam/drivers/pio/pio.c ****  * \param ul_pin The pin index.
ARM GAS  /tmp/ccqzbxJl.s 			page 42


 921:../asf/sam/drivers/pio/pio.c ****  *
 922:../asf/sam/drivers/pio/pio.c ****  * \note The function \ref gpio_configure_pin must be called before.
 923:../asf/sam/drivers/pio/pio.c ****  */
 924:../asf/sam/drivers/pio/pio.c **** void pio_enable_pin_interrupt(uint32_t ul_pin)
 925:../asf/sam/drivers/pio/pio.c **** {
 926:../asf/sam/drivers/pio/pio.c **** 	Pio *p_pio = pio_get_pin_group(ul_pin);
 927:../asf/sam/drivers/pio/pio.c **** 
 928:../asf/sam/drivers/pio/pio.c **** 	p_pio->PIO_IER = 1 << (ul_pin & 0x1F);
 929:../asf/sam/drivers/pio/pio.c **** }
 930:../asf/sam/drivers/pio/pio.c **** 
 931:../asf/sam/drivers/pio/pio.c **** 
 932:../asf/sam/drivers/pio/pio.c **** /**
 933:../asf/sam/drivers/pio/pio.c ****  * \brief Disable interrupt for a GPIO pin.
 934:../asf/sam/drivers/pio/pio.c ****  *
 935:../asf/sam/drivers/pio/pio.c ****  * \param ul_pin The pin index.
 936:../asf/sam/drivers/pio/pio.c ****  *
 937:../asf/sam/drivers/pio/pio.c ****  * \note The function \ref gpio_configure_pin must be called before.
 938:../asf/sam/drivers/pio/pio.c ****  */
 939:../asf/sam/drivers/pio/pio.c **** void pio_disable_pin_interrupt(uint32_t ul_pin)
 940:../asf/sam/drivers/pio/pio.c **** {
 941:../asf/sam/drivers/pio/pio.c **** 	Pio *p_pio = pio_get_pin_group(ul_pin);
 942:../asf/sam/drivers/pio/pio.c **** 
 943:../asf/sam/drivers/pio/pio.c **** 	p_pio->PIO_IDR = 1 << (ul_pin & 0x1F);
 944:../asf/sam/drivers/pio/pio.c **** }
 945:../asf/sam/drivers/pio/pio.c **** 
 946:../asf/sam/drivers/pio/pio.c **** 
 947:../asf/sam/drivers/pio/pio.c **** /**
 948:../asf/sam/drivers/pio/pio.c ****  * \brief Return GPIO port for a GPIO pin.
 949:../asf/sam/drivers/pio/pio.c ****  *
 950:../asf/sam/drivers/pio/pio.c ****  * \param ul_pin The pin index.
 951:../asf/sam/drivers/pio/pio.c ****  *
 952:../asf/sam/drivers/pio/pio.c ****  * \return Pointer to \ref Pio struct for GPIO port.
 953:../asf/sam/drivers/pio/pio.c ****  */
 954:../asf/sam/drivers/pio/pio.c **** Pio *pio_get_pin_group(uint32_t ul_pin)
 955:../asf/sam/drivers/pio/pio.c **** {
 956:../asf/sam/drivers/pio/pio.c **** 	Pio *p_pio;
 957:../asf/sam/drivers/pio/pio.c **** 
 958:../asf/sam/drivers/pio/pio.c **** #if (SAM4C || SAM4CP)
 959:../asf/sam/drivers/pio/pio.c **** #  ifdef ID_PIOD
 960:../asf/sam/drivers/pio/pio.c **** 	if (ul_pin > PIO_PC9_IDX) {
 961:../asf/sam/drivers/pio/pio.c **** 		p_pio = PIOD;
 962:../asf/sam/drivers/pio/pio.c **** 	} else if (ul_pin > PIO_PB31_IDX) {
 963:../asf/sam/drivers/pio/pio.c **** #  else
 964:../asf/sam/drivers/pio/pio.c **** 	if  (ul_pin > PIO_PB31_IDX) {
 965:../asf/sam/drivers/pio/pio.c **** #  endif
 966:../asf/sam/drivers/pio/pio.c **** 		p_pio = PIOC;
 967:../asf/sam/drivers/pio/pio.c **** 	} else {
 968:../asf/sam/drivers/pio/pio.c **** 		p_pio = (Pio *)((uint32_t)PIOA + (PIO_DELTA * (ul_pin >> 5)));
 969:../asf/sam/drivers/pio/pio.c **** 	}
 970:../asf/sam/drivers/pio/pio.c **** #elif (SAM4CM)
 971:../asf/sam/drivers/pio/pio.c **** 	if (ul_pin > PIO_PB21_IDX) {
 972:../asf/sam/drivers/pio/pio.c **** 		p_pio = PIOC;
 973:../asf/sam/drivers/pio/pio.c **** 	} else {
 974:../asf/sam/drivers/pio/pio.c **** 		p_pio = (Pio *)((uint32_t)PIOA + (PIO_DELTA * (ul_pin >> 5)));
 975:../asf/sam/drivers/pio/pio.c **** 	}
 976:../asf/sam/drivers/pio/pio.c **** #else
 977:../asf/sam/drivers/pio/pio.c **** 	p_pio = (Pio *)((uint32_t)PIOA + (PIO_DELTA * (ul_pin >> 5)));
ARM GAS  /tmp/ccqzbxJl.s 			page 43


 1267              		.loc 1 977 0
 1268 0000 054B     		ldr	r3, .L141
 1269 0002 03EB5013 		add	r3, r3, r0, lsr #5
 1270              	.LBE147:
 1271              	.LBE146:
 711:../asf/sam/drivers/pio/pio.c **** }
 1272              		.loc 1 711 0
 1273 0006 00F01F00 		and	r0, r0, #31
 1274              	.LVL95:
 1275              	.LBB149:
 1276              	.LBB148:
 1277              		.loc 1 977 0
 1278 000a 5B02     		lsls	r3, r3, #9
 1279              	.LVL96:
 1280              	.LBE148:
 1281              	.LBE149:
 711:../asf/sam/drivers/pio/pio.c **** }
 1282              		.loc 1 711 0
 1283 000c DB6B     		ldr	r3, [r3, #60]
 1284 000e 23FA00F0 		lsr	r0, r3, r0
 712:../asf/sam/drivers/pio/pio.c **** 
 1285              		.loc 1 712 0
 1286 0012 00F00100 		and	r0, r0, #1
 1287 0016 7047     		bx	lr
 1288              	.L142:
 1289              		.align	2
 1290              	.L141:
 1291 0018 07072000 		.word	2098951
 1292              		.cfi_endproc
 1293              	.LFE169:
 1294              		.size	pio_get_pin_value, .-pio_get_pin_value
 1295              		.section	.text.pio_set_pin_high,"ax",%progbits
 1296              		.align	1
 1297              		.p2align 2,,3
 1298              		.global	pio_set_pin_high
 1299              		.syntax unified
 1300              		.thumb
 1301              		.thumb_func
 1302              		.fpu fpv5-d16
 1303              		.type	pio_set_pin_high, %function
 1304              	pio_set_pin_high:
 1305              	.LFB170:
 722:../asf/sam/drivers/pio/pio.c **** 	Pio *p_pio = pio_get_pin_group(ul_pin);
 1306              		.loc 1 722 0
 1307              		.cfi_startproc
 1308              		@ args = 0, pretend = 0, frame = 0
 1309              		@ frame_needed = 0, uses_anonymous_args = 0
 1310              		@ link register save eliminated.
 1311              	.LVL97:
 1312              	.LBB150:
 1313              	.LBB151:
 1314              		.loc 1 977 0
 1315 0000 054B     		ldr	r3, .L144
 1316              	.LBE151:
 1317              	.LBE150:
 726:../asf/sam/drivers/pio/pio.c **** }
 1318              		.loc 1 726 0
ARM GAS  /tmp/ccqzbxJl.s 			page 44


 1319 0002 0122     		movs	r2, #1
 1320              	.LBB154:
 1321              	.LBB152:
 1322              		.loc 1 977 0
 1323 0004 03EB5013 		add	r3, r3, r0, lsr #5
 1324              	.LBE152:
 1325              	.LBE154:
 726:../asf/sam/drivers/pio/pio.c **** }
 1326              		.loc 1 726 0
 1327 0008 00F01F00 		and	r0, r0, #31
 1328              	.LVL98:
 1329              	.LBB155:
 1330              	.LBB153:
 1331              		.loc 1 977 0
 1332 000c 5B02     		lsls	r3, r3, #9
 1333              	.LVL99:
 1334              	.LBE153:
 1335              	.LBE155:
 726:../asf/sam/drivers/pio/pio.c **** }
 1336              		.loc 1 726 0
 1337 000e 02FA00F0 		lsl	r0, r2, r0
 1338 0012 1863     		str	r0, [r3, #48]
 1339 0014 7047     		bx	lr
 1340              	.L145:
 1341 0016 00BF     		.align	2
 1342              	.L144:
 1343 0018 07072000 		.word	2098951
 1344              		.cfi_endproc
 1345              	.LFE170:
 1346              		.size	pio_set_pin_high, .-pio_set_pin_high
 1347              		.section	.text.pio_set_pin_low,"ax",%progbits
 1348              		.align	1
 1349              		.p2align 2,,3
 1350              		.global	pio_set_pin_low
 1351              		.syntax unified
 1352              		.thumb
 1353              		.thumb_func
 1354              		.fpu fpv5-d16
 1355              		.type	pio_set_pin_low, %function
 1356              	pio_set_pin_low:
 1357              	.LFB171:
 737:../asf/sam/drivers/pio/pio.c **** 	Pio *p_pio = pio_get_pin_group(ul_pin);
 1358              		.loc 1 737 0
 1359              		.cfi_startproc
 1360              		@ args = 0, pretend = 0, frame = 0
 1361              		@ frame_needed = 0, uses_anonymous_args = 0
 1362              		@ link register save eliminated.
 1363              	.LVL100:
 1364              	.LBB156:
 1365              	.LBB157:
 1366              		.loc 1 977 0
 1367 0000 054B     		ldr	r3, .L147
 1368              	.LBE157:
 1369              	.LBE156:
 741:../asf/sam/drivers/pio/pio.c **** }
 1370              		.loc 1 741 0
 1371 0002 0122     		movs	r2, #1
ARM GAS  /tmp/ccqzbxJl.s 			page 45


 1372              	.LBB160:
 1373              	.LBB158:
 1374              		.loc 1 977 0
 1375 0004 03EB5013 		add	r3, r3, r0, lsr #5
 1376              	.LBE158:
 1377              	.LBE160:
 741:../asf/sam/drivers/pio/pio.c **** }
 1378              		.loc 1 741 0
 1379 0008 00F01F00 		and	r0, r0, #31
 1380              	.LVL101:
 1381              	.LBB161:
 1382              	.LBB159:
 1383              		.loc 1 977 0
 1384 000c 5B02     		lsls	r3, r3, #9
 1385              	.LVL102:
 1386              	.LBE159:
 1387              	.LBE161:
 741:../asf/sam/drivers/pio/pio.c **** }
 1388              		.loc 1 741 0
 1389 000e 02FA00F0 		lsl	r0, r2, r0
 1390 0012 5863     		str	r0, [r3, #52]
 1391 0014 7047     		bx	lr
 1392              	.L148:
 1393 0016 00BF     		.align	2
 1394              	.L147:
 1395 0018 07072000 		.word	2098951
 1396              		.cfi_endproc
 1397              	.LFE171:
 1398              		.size	pio_set_pin_low, .-pio_set_pin_low
 1399              		.section	.text.pio_toggle_pin,"ax",%progbits
 1400              		.align	1
 1401              		.p2align 2,,3
 1402              		.global	pio_toggle_pin
 1403              		.syntax unified
 1404              		.thumb
 1405              		.thumb_func
 1406              		.fpu fpv5-d16
 1407              		.type	pio_toggle_pin, %function
 1408              	pio_toggle_pin:
 1409              	.LFB172:
 752:../asf/sam/drivers/pio/pio.c **** 	Pio *p_pio = pio_get_pin_group(ul_pin);
 1410              		.loc 1 752 0
 1411              		.cfi_startproc
 1412              		@ args = 0, pretend = 0, frame = 0
 1413              		@ frame_needed = 0, uses_anonymous_args = 0
 1414              		@ link register save eliminated.
 1415              	.LVL103:
 1416              	.LBB162:
 1417              	.LBB163:
 1418              		.loc 1 977 0
 1419 0000 074B     		ldr	r3, .L153
 1420              	.LBE163:
 1421              	.LBE162:
 755:../asf/sam/drivers/pio/pio.c **** 		/* Value to be driven on the I/O line: 0. */
 1422              		.loc 1 755 0
 1423 0002 0122     		movs	r2, #1
 1424              	.LBB166:
ARM GAS  /tmp/ccqzbxJl.s 			page 46


 1425              	.LBB164:
 1426              		.loc 1 977 0
 1427 0004 03EB5013 		add	r3, r3, r0, lsr #5
 1428              	.LBE164:
 1429              	.LBE166:
 755:../asf/sam/drivers/pio/pio.c **** 		/* Value to be driven on the I/O line: 0. */
 1430              		.loc 1 755 0
 1431 0008 00F01F00 		and	r0, r0, #31
 1432              	.LVL104:
 1433              	.LBB167:
 1434              	.LBB165:
 1435              		.loc 1 977 0
 1436 000c 5B02     		lsls	r3, r3, #9
 1437              	.LVL105:
 1438              	.LBE165:
 1439              	.LBE167:
 755:../asf/sam/drivers/pio/pio.c **** 		/* Value to be driven on the I/O line: 0. */
 1440              		.loc 1 755 0
 1441 000e 02FA00F0 		lsl	r0, r2, r0
 1442 0012 9A6B     		ldr	r2, [r3, #56]
 1443 0014 0242     		tst	r2, r0
 1444 0016 01D1     		bne	.L152
 760:../asf/sam/drivers/pio/pio.c **** 	}
 1445              		.loc 1 760 0
 1446 0018 1863     		str	r0, [r3, #48]
 1447 001a 7047     		bx	lr
 1448              	.L152:
 757:../asf/sam/drivers/pio/pio.c **** 	} else {
 1449              		.loc 1 757 0
 1450 001c 5863     		str	r0, [r3, #52]
 1451 001e 7047     		bx	lr
 1452              	.L154:
 1453              		.align	2
 1454              	.L153:
 1455 0020 07072000 		.word	2098951
 1456              		.cfi_endproc
 1457              	.LFE172:
 1458              		.size	pio_toggle_pin, .-pio_toggle_pin
 1459              		.section	.text.pio_configure_pin,"ax",%progbits
 1460              		.align	1
 1461              		.p2align 2,,3
 1462              		.global	pio_configure_pin
 1463              		.syntax unified
 1464              		.thumb
 1465              		.thumb_func
 1466              		.fpu fpv5-d16
 1467              		.type	pio_configure_pin, %function
 1468              	pio_configure_pin:
 1469              	.LFB173:
 774:../asf/sam/drivers/pio/pio.c **** 	Pio *p_pio = pio_get_pin_group(ul_pin);
 1470              		.loc 1 774 0
 1471              		.cfi_startproc
 1472              		@ args = 0, pretend = 0, frame = 0
 1473              		@ frame_needed = 0, uses_anonymous_args = 0
 1474              		@ link register save eliminated.
 1475              	.LVL106:
 1476              	.LBB168:
ARM GAS  /tmp/ccqzbxJl.s 			page 47


 1477              	.LBB169:
 1478              		.loc 1 977 0
 1479 0000 534B     		ldr	r3, .L199
 1480              	.LBE169:
 1481              	.LBE168:
 778:../asf/sam/drivers/pio/pio.c **** 	case PIO_TYPE_PIO_PERIPH_A:
 1482              		.loc 1 778 0
 1483 0002 01F0F042 		and	r2, r1, #2013265920
 1484              	.LBB172:
 1485              	.LBB170:
 1486              		.loc 1 977 0
 1487 0006 03EB5013 		add	r3, r3, r0, lsr #5
 1488              	.LBE170:
 1489              	.LBE172:
 778:../asf/sam/drivers/pio/pio.c **** 	case PIO_TYPE_PIO_PERIPH_A:
 1490              		.loc 1 778 0
 1491 000a B2F1005F 		cmp	r2, #536870912
 774:../asf/sam/drivers/pio/pio.c **** 	Pio *p_pio = pio_get_pin_group(ul_pin);
 1492              		.loc 1 774 0
 1493 000e 70B4     		push	{r4, r5, r6}
 1494              		.cfi_def_cfa_offset 12
 1495              		.cfi_offset 4, -12
 1496              		.cfi_offset 5, -8
 1497              		.cfi_offset 6, -4
 1498              	.LBB173:
 1499              	.LBB171:
 1500              		.loc 1 977 0
 1501 0010 4FEA4323 		lsl	r3, r3, #9
 1502              	.LVL107:
 1503              	.LBE171:
 1504              	.LBE173:
 778:../asf/sam/drivers/pio/pio.c **** 	case PIO_TYPE_PIO_PERIPH_A:
 1505              		.loc 1 778 0
 1506 0014 6DD0     		beq	.L157
 1507 0016 0BD8     		bhi	.L158
 1508 0018 B2F1805F 		cmp	r2, #268435456
 1509 001c 27D0     		beq	.L159
 1510 001e B2F1C05F 		cmp	r2, #402653184
 1511 0022 52D0     		beq	.L160
 1512 0024 B2F1006F 		cmp	r2, #134217728
 1513 0028 38D0     		beq	.L197
 1514              	.L180:
 816:../asf/sam/drivers/pio/pio.c **** 	}
 1515              		.loc 1 816 0
 1516 002a 0020     		movs	r0, #0
 1517              	.LVL108:
 820:../asf/sam/drivers/pio/pio.c **** 
 1518              		.loc 1 820 0
 1519 002c 70BC     		pop	{r4, r5, r6}
 1520              		.cfi_remember_state
 1521              		.cfi_restore 4
 1522              		.cfi_restore 5
 1523              		.cfi_restore 6
 1524              		.cfi_def_cfa_offset 0
 1525 002e 7047     		bx	lr
 1526              	.LVL109:
 1527              	.L158:
ARM GAS  /tmp/ccqzbxJl.s 			page 48


 1528              		.cfi_restore_state
 778:../asf/sam/drivers/pio/pio.c **** 	case PIO_TYPE_PIO_PERIPH_A:
 1529              		.loc 1 778 0
 1530 0030 B2F1405F 		cmp	r2, #805306368
 1531 0034 66D0     		beq	.L162
 1532 0036 B2F1605F 		cmp	r2, #939524096
 1533 003a 63D0     		beq	.L162
 1534 003c B2F1205F 		cmp	r2, #671088640
 1535 0040 F3D1     		bne	.L180
 803:../asf/sam/drivers/pio/pio.c **** 		break;
 1536              		.loc 1 803 0
 1537 0042 00F01F00 		and	r0, r0, #31
 1538              	.LVL110:
 1539 0046 0122     		movs	r2, #1
 1540              	.LBB174:
 1541              	.LBB175:
 1542              	.LBB176:
 1543              	.LBB177:
  83:../asf/sam/drivers/pio/pio.c **** 		p_pio->PIO_PUER = ul_mask;
 1544              		.loc 1 83 0
 1545 0048 CD07     		lsls	r5, r1, #31
 1546              	.LBE177:
 1547              	.LBE176:
 1548              	.LBE175:
 1549              	.LBE174:
 803:../asf/sam/drivers/pio/pio.c **** 		break;
 1550              		.loc 1 803 0
 1551 004a 02FA00F2 		lsl	r2, r2, r0
 1552              	.LVL111:
 1553              	.LBB187:
 1554              	.LBB184:
 1555              	.LBB180:
 1556              	.LBB181:
 601:../asf/sam/drivers/pio/pio.c **** }
 1557              		.loc 1 601 0
 1558 004e 5A64     		str	r2, [r3, #68]
 1559              	.LVL112:
 1560              	.LBE181:
 1561              	.LBE180:
 1562              	.LBB182:
 1563              	.LBB178:
  83:../asf/sam/drivers/pio/pio.c **** 		p_pio->PIO_PUER = ul_mask;
 1564              		.loc 1 83 0
 1565 0050 73D5     		bpl	.L168
  84:../asf/sam/drivers/pio/pio.c **** 	} else {
 1566              		.loc 1 84 0
 1567 0052 5A66     		str	r2, [r3, #100]
 1568              	.L169:
 1569              	.LVL113:
 1570              	.LBE178:
 1571              	.LBE182:
 274:../asf/sam/drivers/pio/pio.c **** 		p_pio->PIO_IFER = ul_mask;
 1572              		.loc 1 274 0
 1573 0054 11F00A0F 		tst	r1, #10
 1574 0058 6DD0     		beq	.L170
 275:../asf/sam/drivers/pio/pio.c **** 	} else {
 1575              		.loc 1 275 0
ARM GAS  /tmp/ccqzbxJl.s 			page 49


 1576 005a 1A62     		str	r2, [r3, #32]
 1577              	.L171:
 282:../asf/sam/drivers/pio/pio.c **** 		p_pio->PIO_IFSCDR = ul_mask;
 1578              		.loc 1 282 0
 1579 005c 8C07     		lsls	r4, r1, #30
 1580 005e 6ED5     		bpl	.L172
 283:../asf/sam/drivers/pio/pio.c **** 	} else {
 1581              		.loc 1 283 0
 1582 0060 C3F88020 		str	r2, [r3, #128]
 1583              	.L173:
 303:../asf/sam/drivers/pio/pio.c **** 	p_pio->PIO_PER = ul_mask;
 1584              		.loc 1 303 0
 1585 0064 5A61     		str	r2, [r3, #20]
 1586              	.LBE184:
 1587              	.LBE187:
 819:../asf/sam/drivers/pio/pio.c **** }
 1588              		.loc 1 819 0
 1589 0066 0120     		movs	r0, #1
 1590              	.LBB188:
 1591              	.LBB185:
 304:../asf/sam/drivers/pio/pio.c **** }
 1592              		.loc 1 304 0
 1593 0068 1A60     		str	r2, [r3]
 1594              	.LBE185:
 1595              	.LBE188:
 820:../asf/sam/drivers/pio/pio.c **** 
 1596              		.loc 1 820 0
 1597 006a 70BC     		pop	{r4, r5, r6}
 1598              		.cfi_remember_state
 1599              		.cfi_restore 4
 1600              		.cfi_restore 5
 1601              		.cfi_restore 6
 1602              		.cfi_def_cfa_offset 0
 1603 006c 7047     		bx	lr
 1604              	.LVL114:
 1605              	.L159:
 1606              		.cfi_restore_state
 785:../asf/sam/drivers/pio/pio.c **** 		pio_pull_up(p_pio, (1 << (ul_pin & 0x1F)),
 1607              		.loc 1 785 0
 1608 006e 00F01F02 		and	r2, r0, #31
 1609 0072 0120     		movs	r0, #1
 1610              	.LVL115:
 1611              	.LBB189:
 1612              	.LBB190:
  83:../asf/sam/drivers/pio/pio.c **** 		p_pio->PIO_PUER = ul_mask;
 1613              		.loc 1 83 0
 1614 0074 C907     		lsls	r1, r1, #31
 1615              	.LVL116:
 1616              	.LBE190:
 1617              	.LBE189:
 785:../asf/sam/drivers/pio/pio.c **** 		pio_pull_up(p_pio, (1 << (ul_pin & 0x1F)),
 1618              		.loc 1 785 0
 1619 0076 00FA02F2 		lsl	r2, r0, r2
 1620              	.LVL117:
 1621              	.LBB192:
 1622              	.LBB193:
 190:../asf/sam/drivers/pio/pio.c **** 
ARM GAS  /tmp/ccqzbxJl.s 			page 50


 1623              		.loc 1 190 0
 1624 007a 5A64     		str	r2, [r3, #68]
 202:../asf/sam/drivers/pio/pio.c **** 		p_pio->PIO_ABCDSR[0] = (ul_mask | ul_sr);
 1625              		.loc 1 202 0
 1626 007c 1C6F     		ldr	r4, [r3, #112]
 1627              	.LVL118:
 203:../asf/sam/drivers/pio/pio.c **** 
 1628              		.loc 1 203 0
 1629 007e 44EA0204 		orr	r4, r4, r2
 1630              	.LVL119:
 1631 0082 1C67     		str	r4, [r3, #112]
 205:../asf/sam/drivers/pio/pio.c **** 		p_pio->PIO_ABCDSR[1] &= (~ul_mask & ul_sr);
 1632              		.loc 1 205 0
 1633 0084 5C6F     		ldr	r4, [r3, #116]
 1634              	.LVL120:
 206:../asf/sam/drivers/pio/pio.c **** 		break;
 1635              		.loc 1 206 0
 1636 0086 5D6F     		ldr	r5, [r3, #116]
 1637 0088 04EA0504 		and	r4, r4, r5
 1638              	.LVL121:
 1639 008c 24EA0204 		bic	r4, r4, r2
 1640 0090 5C67     		str	r4, [r3, #116]
 255:../asf/sam/drivers/pio/pio.c **** }
 1641              		.loc 1 255 0
 1642 0092 5A60     		str	r2, [r3, #4]
 1643              	.LVL122:
 1644              	.LBE193:
 1645              	.LBE192:
 1646              	.LBB194:
 1647              	.LBB191:
  83:../asf/sam/drivers/pio/pio.c **** 		p_pio->PIO_PUER = ul_mask;
 1648              		.loc 1 83 0
 1649 0094 16D5     		bpl	.L167
 1650              	.LVL123:
 1651              	.L193:
 1652              	.LBE191:
 1653              	.LBE194:
 1654              	.LBB195:
 1655              	.LBB196:
  84:../asf/sam/drivers/pio/pio.c **** 	} else {
 1656              		.loc 1 84 0
 1657 0096 5A66     		str	r2, [r3, #100]
 1658              	.LBE196:
 1659              	.LBE195:
 820:../asf/sam/drivers/pio/pio.c **** 
 1660              		.loc 1 820 0
 1661 0098 70BC     		pop	{r4, r5, r6}
 1662              		.cfi_remember_state
 1663              		.cfi_restore 6
 1664              		.cfi_restore 5
 1665              		.cfi_restore 4
 1666              		.cfi_def_cfa_offset 0
 1667 009a 7047     		bx	lr
 1668              	.LVL124:
 1669              	.L197:
 1670              		.cfi_restore_state
 780:../asf/sam/drivers/pio/pio.c **** 		pio_pull_up(p_pio, (1 << (ul_pin & 0x1F)),
ARM GAS  /tmp/ccqzbxJl.s 			page 51


 1671              		.loc 1 780 0
 1672 009c 00F01F02 		and	r2, r0, #31
 1673 00a0 0120     		movs	r0, #1
 1674              	.LVL125:
 1675 00a2 00FA02F2 		lsl	r2, r0, r2
 1676              	.LVL126:
 1677              	.LBB200:
 1678              	.LBB201:
 190:../asf/sam/drivers/pio/pio.c **** 
 1679              		.loc 1 190 0
 1680 00a6 5A64     		str	r2, [r3, #68]
 196:../asf/sam/drivers/pio/pio.c **** 
 1681              		.loc 1 196 0
 1682 00a8 D643     		mvns	r6, r2
 195:../asf/sam/drivers/pio/pio.c **** 		p_pio->PIO_ABCDSR[0] &= (~ul_mask & ul_sr);
 1683              		.loc 1 195 0
 1684 00aa 1D6F     		ldr	r5, [r3, #112]
 1685              	.LVL127:
 196:../asf/sam/drivers/pio/pio.c **** 
 1686              		.loc 1 196 0
 1687 00ac 1C6F     		ldr	r4, [r3, #112]
 1688 00ae 2540     		ands	r5, r5, r4
 1689              	.LVL128:
 1690 00b0 3540     		ands	r5, r5, r6
 1691 00b2 1D67     		str	r5, [r3, #112]
 198:../asf/sam/drivers/pio/pio.c **** 		p_pio->PIO_ABCDSR[1] &= (~ul_mask & ul_sr);
 1692              		.loc 1 198 0
 1693 00b4 5C6F     		ldr	r4, [r3, #116]
 1694              	.LVL129:
 199:../asf/sam/drivers/pio/pio.c **** 		break;
 1695              		.loc 1 199 0
 1696 00b6 5D6F     		ldr	r5, [r3, #116]
 1697 00b8 2C40     		ands	r4, r4, r5
 1698              	.LVL130:
 1699 00ba 3440     		ands	r4, r4, r6
 1700 00bc 5C67     		str	r4, [r3, #116]
 1701              	.LBE201:
 1702              	.LBE200:
 1703              	.LBB203:
 1704              	.LBB204:
  83:../asf/sam/drivers/pio/pio.c **** 		p_pio->PIO_PUER = ul_mask;
 1705              		.loc 1 83 0
 1706 00be CC07     		lsls	r4, r1, #31
 1707              	.LBE204:
 1708              	.LBE203:
 1709              	.LBB206:
 1710              	.LBB202:
 255:../asf/sam/drivers/pio/pio.c **** }
 1711              		.loc 1 255 0
 1712 00c0 5A60     		str	r2, [r3, #4]
 1713              	.LVL131:
 1714              	.LBE202:
 1715              	.LBE206:
 1716              	.LBB207:
 1717              	.LBB205:
  83:../asf/sam/drivers/pio/pio.c **** 		p_pio->PIO_PUER = ul_mask;
 1718              		.loc 1 83 0
ARM GAS  /tmp/ccqzbxJl.s 			page 52


 1719 00c2 E8D4     		bmi	.L193
 1720              	.LVL132:
 1721              	.L167:
 1722              	.LBE205:
 1723              	.LBE207:
 1724              	.LBB208:
 1725              	.LBB197:
  86:../asf/sam/drivers/pio/pio.c **** 	}
 1726              		.loc 1 86 0
 1727 00c4 1A66     		str	r2, [r3, #96]
 1728              	.LBE197:
 1729              	.LBE208:
 820:../asf/sam/drivers/pio/pio.c **** 
 1730              		.loc 1 820 0
 1731 00c6 70BC     		pop	{r4, r5, r6}
 1732              		.cfi_remember_state
 1733              		.cfi_restore 4
 1734              		.cfi_restore 5
 1735              		.cfi_restore 6
 1736              		.cfi_def_cfa_offset 0
 1737 00c8 7047     		bx	lr
 1738              	.LVL133:
 1739              	.L160:
 1740              		.cfi_restore_state
 791:../asf/sam/drivers/pio/pio.c **** 		pio_pull_up(p_pio, (1 << (ul_pin & 0x1F)),
 1741              		.loc 1 791 0
 1742 00ca 00F01F02 		and	r2, r0, #31
 1743 00ce 0120     		movs	r0, #1
 1744              	.LVL134:
 1745 00d0 00FA02F2 		lsl	r2, r0, r2
 1746              	.LVL135:
 1747              	.LBB209:
 1748              	.LBB210:
 190:../asf/sam/drivers/pio/pio.c **** 
 1749              		.loc 1 190 0
 1750 00d4 5A64     		str	r2, [r3, #68]
 210:../asf/sam/drivers/pio/pio.c **** 		p_pio->PIO_ABCDSR[0] &= (~ul_mask & ul_sr);
 1751              		.loc 1 210 0
 1752 00d6 1C6F     		ldr	r4, [r3, #112]
 1753              	.LVL136:
 211:../asf/sam/drivers/pio/pio.c **** 
 1754              		.loc 1 211 0
 1755 00d8 1D6F     		ldr	r5, [r3, #112]
 1756 00da 2C40     		ands	r4, r4, r5
 1757              	.LVL137:
 1758 00dc 24EA0204 		bic	r4, r4, r2
 1759              	.LVL138:
 1760              	.L195:
 1761              	.LBE210:
 1762              	.LBE209:
 1763              	.LBB211:
 1764              	.LBB212:
 218:../asf/sam/drivers/pio/pio.c **** 
 1765              		.loc 1 218 0
 1766 00e0 1C67     		str	r4, [r3, #112]
 1767              	.LBE212:
 1768              	.LBE211:
ARM GAS  /tmp/ccqzbxJl.s 			page 53


 1769              	.LBB215:
 1770              	.LBB198:
  83:../asf/sam/drivers/pio/pio.c **** 		p_pio->PIO_PUER = ul_mask;
 1771              		.loc 1 83 0
 1772 00e2 CE07     		lsls	r6, r1, #31
 1773              	.LBE198:
 1774              	.LBE215:
 1775              	.LBB216:
 1776              	.LBB213:
 220:../asf/sam/drivers/pio/pio.c **** 		p_pio->PIO_ABCDSR[1] = (ul_mask | ul_sr);
 1777              		.loc 1 220 0
 1778 00e4 5C6F     		ldr	r4, [r3, #116]
 1779              	.LVL139:
 221:../asf/sam/drivers/pio/pio.c **** 		break;
 1780              		.loc 1 221 0
 1781 00e6 44EA0204 		orr	r4, r4, r2
 1782              	.LVL140:
 1783 00ea 5C67     		str	r4, [r3, #116]
 255:../asf/sam/drivers/pio/pio.c **** }
 1784              		.loc 1 255 0
 1785 00ec 5A60     		str	r2, [r3, #4]
 1786              	.LVL141:
 1787              	.LBE213:
 1788              	.LBE216:
 1789              	.LBB217:
 1790              	.LBB199:
  83:../asf/sam/drivers/pio/pio.c **** 		p_pio->PIO_PUER = ul_mask;
 1791              		.loc 1 83 0
 1792 00ee E9D5     		bpl	.L167
 1793 00f0 D1E7     		b	.L193
 1794              	.LVL142:
 1795              	.L157:
 1796              	.LBE199:
 1797              	.LBE217:
 796:../asf/sam/drivers/pio/pio.c **** 		pio_pull_up(p_pio, (1 << (ul_pin & 0x1F)),
 1798              		.loc 1 796 0
 1799 00f2 00F01F02 		and	r2, r0, #31
 1800 00f6 0120     		movs	r0, #1
 1801              	.LVL143:
 1802 00f8 00FA02F2 		lsl	r2, r0, r2
 1803              	.LVL144:
 1804              	.LBB218:
 1805              	.LBB214:
 190:../asf/sam/drivers/pio/pio.c **** 
 1806              		.loc 1 190 0
 1807 00fc 5A64     		str	r2, [r3, #68]
 217:../asf/sam/drivers/pio/pio.c **** 		p_pio->PIO_ABCDSR[0] = (ul_mask | ul_sr);
 1808              		.loc 1 217 0
 1809 00fe 1C6F     		ldr	r4, [r3, #112]
 1810              	.LVL145:
 218:../asf/sam/drivers/pio/pio.c **** 
 1811              		.loc 1 218 0
 1812 0100 1443     		orrs	r4, r4, r2
 1813              	.LVL146:
 1814 0102 EDE7     		b	.L195
 1815              	.LVL147:
 1816              	.L162:
ARM GAS  /tmp/ccqzbxJl.s 			page 54


 1817              	.LBE214:
 1818              	.LBE218:
 808:../asf/sam/drivers/pio/pio.c **** 				((ul_flags & PIO_TYPE_PIO_OUTPUT_1)
 1819              		.loc 1 808 0
 1820 0104 00F01F00 		and	r0, r0, #31
 1821              	.LVL148:
 1822 0108 0122     		movs	r2, #1
 809:../asf/sam/drivers/pio/pio.c **** 				== PIO_TYPE_PIO_OUTPUT_1) ? 1 : 0,
 1823              		.loc 1 809 0
 1824 010a 01F06054 		and	r4, r1, #939524096
 811:../asf/sam/drivers/pio/pio.c **** 				(ul_flags & PIO_PULLUP) ? 1 : 0);
 1825              		.loc 1 811 0
 1826 010e 01F00405 		and	r5, r1, #4
 1827              	.LVL149:
 808:../asf/sam/drivers/pio/pio.c **** 				((ul_flags & PIO_TYPE_PIO_OUTPUT_1)
 1828              		.loc 1 808 0
 1829 0112 8240     		lsls	r2, r2, r0
 1830              	.LVL150:
 1831              	.LBB219:
 1832              	.LBB220:
 1833              	.LBB221:
 1834              	.LBB222:
  83:../asf/sam/drivers/pio/pio.c **** 		p_pio->PIO_PUER = ul_mask;
 1835              		.loc 1 83 0
 1836 0114 C907     		lsls	r1, r1, #31
 1837              	.LVL151:
 1838              	.LBE222:
 1839              	.LBE221:
 1840              	.LBB225:
 1841              	.LBB226:
 601:../asf/sam/drivers/pio/pio.c **** }
 1842              		.loc 1 601 0
 1843 0116 5A64     		str	r2, [r3, #68]
 1844              	.LVL152:
 1845              	.LBE226:
 1846              	.LBE225:
 1847              	.LBB227:
 1848              	.LBB223:
  83:../asf/sam/drivers/pio/pio.c **** 		p_pio->PIO_PUER = ul_mask;
 1849              		.loc 1 83 0
 1850 0118 0BD5     		bpl	.L174
  84:../asf/sam/drivers/pio/pio.c **** 	} else {
 1851              		.loc 1 84 0
 1852 011a 5A66     		str	r2, [r3, #100]
 1853              	.L175:
 1854              	.LVL153:
 1855              	.LBE223:
 1856              	.LBE227:
 329:../asf/sam/drivers/pio/pio.c **** 		p_pio->PIO_MDER = ul_mask;
 1857              		.loc 1 329 0
 1858 011c A5B1     		cbz	r5, .L176
 330:../asf/sam/drivers/pio/pio.c **** 	} else {
 1859              		.loc 1 330 0
 1860 011e 1A65     		str	r2, [r3, #80]
 1861              	.L177:
 336:../asf/sam/drivers/pio/pio.c **** 		p_pio->PIO_SODR = ul_mask;
 1862              		.loc 1 336 0
ARM GAS  /tmp/ccqzbxJl.s 			page 55


 1863 0120 B4F1605F 		cmp	r4, #939524096
 1864 0124 12D0     		beq	.L198
 339:../asf/sam/drivers/pio/pio.c **** 	}
 1865              		.loc 1 339 0
 1866 0126 5A63     		str	r2, [r3, #52]
 1867              	.L179:
 343:../asf/sam/drivers/pio/pio.c **** 	p_pio->PIO_PER = ul_mask;
 1868              		.loc 1 343 0
 1869 0128 1A61     		str	r2, [r3, #16]
 1870              	.LBE220:
 1871              	.LBE219:
 819:../asf/sam/drivers/pio/pio.c **** }
 1872              		.loc 1 819 0
 1873 012a 0120     		movs	r0, #1
 1874              	.LBB232:
 1875              	.LBB229:
 344:../asf/sam/drivers/pio/pio.c **** }
 1876              		.loc 1 344 0
 1877 012c 1A60     		str	r2, [r3]
 1878              	.LBE229:
 1879              	.LBE232:
 820:../asf/sam/drivers/pio/pio.c **** 
 1880              		.loc 1 820 0
 1881 012e 70BC     		pop	{r4, r5, r6}
 1882              		.cfi_remember_state
 1883              		.cfi_restore 4
 1884              		.cfi_restore 5
 1885              		.cfi_restore 6
 1886              		.cfi_def_cfa_offset 0
 1887              	.LVL154:
 1888 0130 7047     		bx	lr
 1889              	.LVL155:
 1890              	.L174:
 1891              		.cfi_restore_state
 1892              	.LBB233:
 1893              	.LBB230:
 1894              	.LBB228:
 1895              	.LBB224:
  86:../asf/sam/drivers/pio/pio.c **** 	}
 1896              		.loc 1 86 0
 1897 0132 1A66     		str	r2, [r3, #96]
 1898 0134 F2E7     		b	.L175
 1899              	.LVL156:
 1900              	.L170:
 1901              	.LBE224:
 1902              	.LBE228:
 1903              	.LBE230:
 1904              	.LBE233:
 1905              	.LBB234:
 1906              	.LBB186:
 277:../asf/sam/drivers/pio/pio.c **** 	}
 1907              		.loc 1 277 0
 1908 0136 5A62     		str	r2, [r3, #36]
 1909 0138 90E7     		b	.L171
 1910              	.LVL157:
 1911              	.L168:
 1912              	.LBB183:
ARM GAS  /tmp/ccqzbxJl.s 			page 56


 1913              	.LBB179:
  86:../asf/sam/drivers/pio/pio.c **** 	}
 1914              		.loc 1 86 0
 1915 013a 1A66     		str	r2, [r3, #96]
 1916 013c 8AE7     		b	.L169
 1917              	.LVL158:
 1918              	.L172:
 1919              	.LBE179:
 1920              	.LBE183:
 285:../asf/sam/drivers/pio/pio.c **** 			p_pio->PIO_IFSCER = ul_mask;
 1921              		.loc 1 285 0
 1922 013e 0807     		lsls	r0, r1, #28
 1923 0140 90D5     		bpl	.L173
 286:../asf/sam/drivers/pio/pio.c **** 		}
 1924              		.loc 1 286 0
 1925 0142 C3F88420 		str	r2, [r3, #132]
 1926 0146 8DE7     		b	.L173
 1927              	.LVL159:
 1928              	.L176:
 1929              	.LBE186:
 1930              	.LBE234:
 1931              	.LBB235:
 1932              	.LBB231:
 332:../asf/sam/drivers/pio/pio.c **** 	}
 1933              		.loc 1 332 0
 1934 0148 5A65     		str	r2, [r3, #84]
 1935 014a E9E7     		b	.L177
 1936              	.L198:
 337:../asf/sam/drivers/pio/pio.c **** 	} else {
 1937              		.loc 1 337 0
 1938 014c 1A63     		str	r2, [r3, #48]
 1939 014e EBE7     		b	.L179
 1940              	.L200:
 1941              		.align	2
 1942              	.L199:
 1943 0150 07072000 		.word	2098951
 1944              	.LBE231:
 1945              	.LBE235:
 1946              		.cfi_endproc
 1947              	.LFE173:
 1948              		.size	pio_configure_pin, .-pio_configure_pin
 1949              		.section	.text.pio_set_pin_group_high,"ax",%progbits
 1950              		.align	1
 1951              		.p2align 2,,3
 1952              		.global	pio_set_pin_group_high
 1953              		.syntax unified
 1954              		.thumb
 1955              		.thumb_func
 1956              		.fpu fpv5-d16
 1957              		.type	pio_set_pin_group_high, %function
 1958              	pio_set_pin_group_high:
 1959              	.LFB174:
 829:../asf/sam/drivers/pio/pio.c **** 	/* Value to be driven on the I/O line: 1. */
 1960              		.loc 1 829 0
 1961              		.cfi_startproc
 1962              		@ args = 0, pretend = 0, frame = 0
 1963              		@ frame_needed = 0, uses_anonymous_args = 0
ARM GAS  /tmp/ccqzbxJl.s 			page 57


 1964              		@ link register save eliminated.
 1965              	.LVL160:
 831:../asf/sam/drivers/pio/pio.c **** }
 1966              		.loc 1 831 0
 1967 0000 0163     		str	r1, [r0, #48]
 1968 0002 7047     		bx	lr
 1969              		.cfi_endproc
 1970              	.LFE174:
 1971              		.size	pio_set_pin_group_high, .-pio_set_pin_group_high
 1972              		.section	.text.pio_set_pin_group_low,"ax",%progbits
 1973              		.align	1
 1974              		.p2align 2,,3
 1975              		.global	pio_set_pin_group_low
 1976              		.syntax unified
 1977              		.thumb
 1978              		.thumb_func
 1979              		.fpu fpv5-d16
 1980              		.type	pio_set_pin_group_low, %function
 1981              	pio_set_pin_group_low:
 1982              	.LFB175:
 841:../asf/sam/drivers/pio/pio.c **** 	/* Value to be driven on the I/O line: 0. */
 1983              		.loc 1 841 0
 1984              		.cfi_startproc
 1985              		@ args = 0, pretend = 0, frame = 0
 1986              		@ frame_needed = 0, uses_anonymous_args = 0
 1987              		@ link register save eliminated.
 1988              	.LVL161:
 843:../asf/sam/drivers/pio/pio.c **** }
 1989              		.loc 1 843 0
 1990 0000 4163     		str	r1, [r0, #52]
 1991 0002 7047     		bx	lr
 1992              		.cfi_endproc
 1993              	.LFE175:
 1994              		.size	pio_set_pin_group_low, .-pio_set_pin_group_low
 1995              		.section	.text.pio_toggle_pin_group,"ax",%progbits
 1996              		.align	1
 1997              		.p2align 2,,3
 1998              		.global	pio_toggle_pin_group
 1999              		.syntax unified
 2000              		.thumb
 2001              		.thumb_func
 2002              		.fpu fpv5-d16
 2003              		.type	pio_toggle_pin_group, %function
 2004              	pio_toggle_pin_group:
 2005              	.LFB176:
 853:../asf/sam/drivers/pio/pio.c **** 	if (p_pio->PIO_ODSR & ul_mask) {
 2006              		.loc 1 853 0
 2007              		.cfi_startproc
 2008              		@ args = 0, pretend = 0, frame = 0
 2009              		@ frame_needed = 0, uses_anonymous_args = 0
 2010              		@ link register save eliminated.
 2011              	.LVL162:
 854:../asf/sam/drivers/pio/pio.c **** 		/* Value to be driven on the I/O line: 0. */
 2012              		.loc 1 854 0
 2013 0000 836B     		ldr	r3, [r0, #56]
 2014 0002 0B42     		tst	r3, r1
 2015 0004 01D1     		bne	.L206
ARM GAS  /tmp/ccqzbxJl.s 			page 58


 859:../asf/sam/drivers/pio/pio.c **** 	}
 2016              		.loc 1 859 0
 2017 0006 0163     		str	r1, [r0, #48]
 2018 0008 7047     		bx	lr
 2019              	.L206:
 856:../asf/sam/drivers/pio/pio.c **** 	} else {
 2020              		.loc 1 856 0
 2021 000a 4163     		str	r1, [r0, #52]
 2022 000c 7047     		bx	lr
 2023              		.cfi_endproc
 2024              	.LFE176:
 2025              		.size	pio_toggle_pin_group, .-pio_toggle_pin_group
 2026 000e 00BF     		.section	.text.pio_configure_pin_group,"ax",%progbits
 2027              		.align	1
 2028              		.p2align 2,,3
 2029              		.global	pio_configure_pin_group
 2030              		.syntax unified
 2031              		.thumb
 2032              		.thumb_func
 2033              		.fpu fpv5-d16
 2034              		.type	pio_configure_pin_group, %function
 2035              	pio_configure_pin_group:
 2036              	.LFB177:
 875:../asf/sam/drivers/pio/pio.c **** 	/* Configure pins */
 2037              		.loc 1 875 0
 2038              		.cfi_startproc
 2039              		@ args = 0, pretend = 0, frame = 0
 2040              		@ frame_needed = 0, uses_anonymous_args = 0
 2041              		@ link register save eliminated.
 2042              	.LVL163:
 2043 0000 0346     		mov	r3, r0
 877:../asf/sam/drivers/pio/pio.c **** 	case PIO_TYPE_PIO_PERIPH_A:
 2044              		.loc 1 877 0
 2045 0002 02F0F040 		and	r0, r2, #2013265920
 2046              	.LVL164:
 2047 0006 B0F1005F 		cmp	r0, #536870912
 2048 000a 5AD0     		beq	.L209
 875:../asf/sam/drivers/pio/pio.c **** 	/* Configure pins */
 2049              		.loc 1 875 0
 2050 000c 30B4     		push	{r4, r5}
 2051              		.cfi_def_cfa_offset 8
 2052              		.cfi_offset 4, -8
 2053              		.cfi_offset 5, -4
 877:../asf/sam/drivers/pio/pio.c **** 	case PIO_TYPE_PIO_PERIPH_A:
 2054              		.loc 1 877 0
 2055 000e 0BD8     		bhi	.L210
 2056 0010 B0F1805F 		cmp	r0, #268435456
 2057 0014 22D0     		beq	.L211
 2058 0016 B0F1C05F 		cmp	r0, #402653184
 2059 001a 44D0     		beq	.L212
 2060 001c B0F1006F 		cmp	r0, #134217728
 2061 0020 2DD0     		beq	.L249
 2062              	.L232:
 911:../asf/sam/drivers/pio/pio.c **** 	}
 2063              		.loc 1 911 0
 2064 0022 0020     		movs	r0, #0
 915:../asf/sam/drivers/pio/pio.c **** 
ARM GAS  /tmp/ccqzbxJl.s 			page 59


 2065              		.loc 1 915 0
 2066 0024 30BC     		pop	{r4, r5}
 2067              		.cfi_remember_state
 2068              		.cfi_restore 4
 2069              		.cfi_restore 5
 2070              		.cfi_def_cfa_offset 0
 2071 0026 7047     		bx	lr
 2072              	.L210:
 2073              		.cfi_restore_state
 877:../asf/sam/drivers/pio/pio.c **** 	case PIO_TYPE_PIO_PERIPH_A:
 2074              		.loc 1 877 0
 2075 0028 B0F1405F 		cmp	r0, #805306368
 2076 002c 58D0     		beq	.L214
 2077 002e B0F1605F 		cmp	r0, #939524096
 2078 0032 55D0     		beq	.L214
 2079 0034 B0F1205F 		cmp	r0, #671088640
 2080 0038 F3D1     		bne	.L232
 2081              	.LVL165:
 2082              	.LBB236:
 2083              	.LBB237:
 2084              	.LBB238:
 2085              	.LBB239:
  83:../asf/sam/drivers/pio/pio.c **** 		p_pio->PIO_PUER = ul_mask;
 2086              		.loc 1 83 0
 2087 003a D507     		lsls	r5, r2, #31
 2088              	.LBE239:
 2089              	.LBE238:
 2090              	.LBB242:
 2091              	.LBB243:
 601:../asf/sam/drivers/pio/pio.c **** }
 2092              		.loc 1 601 0
 2093 003c 5964     		str	r1, [r3, #68]
 2094              	.LVL166:
 2095              	.LBE243:
 2096              	.LBE242:
 2097              	.LBB244:
 2098              	.LBB240:
  83:../asf/sam/drivers/pio/pio.c **** 		p_pio->PIO_PUER = ul_mask;
 2099              		.loc 1 83 0
 2100 003e 68D5     		bpl	.L220
  84:../asf/sam/drivers/pio/pio.c **** 	} else {
 2101              		.loc 1 84 0
 2102 0040 5966     		str	r1, [r3, #100]
 2103              	.L221:
 2104              	.LVL167:
 2105              	.LBE240:
 2106              	.LBE244:
 274:../asf/sam/drivers/pio/pio.c **** 		p_pio->PIO_IFER = ul_mask;
 2107              		.loc 1 274 0
 2108 0042 12F00A0F 		tst	r2, #10
 2109 0046 62D0     		beq	.L222
 275:../asf/sam/drivers/pio/pio.c **** 	} else {
 2110              		.loc 1 275 0
 2111 0048 1962     		str	r1, [r3, #32]
 2112              	.L223:
 282:../asf/sam/drivers/pio/pio.c **** 		p_pio->PIO_IFSCDR = ul_mask;
 2113              		.loc 1 282 0
ARM GAS  /tmp/ccqzbxJl.s 			page 60


 2114 004a 9407     		lsls	r4, r2, #30
 2115 004c 63D5     		bpl	.L224
 283:../asf/sam/drivers/pio/pio.c **** 	} else {
 2116              		.loc 1 283 0
 2117 004e C3F88010 		str	r1, [r3, #128]
 2118              	.L225:
 303:../asf/sam/drivers/pio/pio.c **** 	p_pio->PIO_PER = ul_mask;
 2119              		.loc 1 303 0
 2120 0052 5961     		str	r1, [r3, #20]
 2121              	.LBE237:
 2122              	.LBE236:
 914:../asf/sam/drivers/pio/pio.c **** }
 2123              		.loc 1 914 0
 2124 0054 0120     		movs	r0, #1
 2125              	.LBB248:
 2126              	.LBB246:
 304:../asf/sam/drivers/pio/pio.c **** }
 2127              		.loc 1 304 0
 2128 0056 1960     		str	r1, [r3]
 2129              	.LBE246:
 2130              	.LBE248:
 915:../asf/sam/drivers/pio/pio.c **** 
 2131              		.loc 1 915 0
 2132 0058 30BC     		pop	{r4, r5}
 2133              		.cfi_remember_state
 2134              		.cfi_restore 4
 2135              		.cfi_restore 5
 2136              		.cfi_def_cfa_offset 0
 2137 005a 7047     		bx	lr
 2138              	.LVL168:
 2139              	.L211:
 2140              		.cfi_restore_state
 2141              	.LBB249:
 2142              	.LBB250:
 190:../asf/sam/drivers/pio/pio.c **** 
 2143              		.loc 1 190 0
 2144 005c 5964     		str	r1, [r3, #68]
 202:../asf/sam/drivers/pio/pio.c **** 		p_pio->PIO_ABCDSR[0] = (ul_mask | ul_sr);
 2145              		.loc 1 202 0
 2146 005e 186F     		ldr	r0, [r3, #112]
 2147              	.LVL169:
 203:../asf/sam/drivers/pio/pio.c **** 
 2148              		.loc 1 203 0
 2149 0060 0843     		orrs	r0, r0, r1
 2150              	.LVL170:
 2151 0062 1867     		str	r0, [r3, #112]
 205:../asf/sam/drivers/pio/pio.c **** 		p_pio->PIO_ABCDSR[1] &= (~ul_mask & ul_sr);
 2152              		.loc 1 205 0
 2153 0064 586F     		ldr	r0, [r3, #116]
 2154              	.LVL171:
 206:../asf/sam/drivers/pio/pio.c **** 		break;
 2155              		.loc 1 206 0
 2156 0066 5C6F     		ldr	r4, [r3, #116]
 2157 0068 2040     		ands	r0, r0, r4
 2158              	.LVL172:
 2159              	.LBE250:
 2160              	.LBE249:
ARM GAS  /tmp/ccqzbxJl.s 			page 61


 2161              	.LBB252:
 2162              	.LBB253:
  83:../asf/sam/drivers/pio/pio.c **** 		p_pio->PIO_PUER = ul_mask;
 2163              		.loc 1 83 0
 2164 006a D407     		lsls	r4, r2, #31
 2165              	.LBE253:
 2166              	.LBE252:
 2167              	.LBB255:
 2168              	.LBB251:
 206:../asf/sam/drivers/pio/pio.c **** 		break;
 2169              		.loc 1 206 0
 2170 006c 20EA0100 		bic	r0, r0, r1
 2171 0070 5867     		str	r0, [r3, #116]
 255:../asf/sam/drivers/pio/pio.c **** }
 2172              		.loc 1 255 0
 2173 0072 5960     		str	r1, [r3, #4]
 2174              	.LVL173:
 2175              	.LBE251:
 2176              	.LBE255:
 2177              	.LBB256:
 2178              	.LBB254:
  83:../asf/sam/drivers/pio/pio.c **** 		p_pio->PIO_PUER = ul_mask;
 2179              		.loc 1 83 0
 2180 0074 13D5     		bpl	.L218
 2181              	.LVL174:
 2182              	.L247:
 2183              	.LBE254:
 2184              	.LBE256:
 914:../asf/sam/drivers/pio/pio.c **** }
 2185              		.loc 1 914 0
 2186 0076 0120     		movs	r0, #1
 2187              	.LBB257:
 2188              	.LBB258:
  84:../asf/sam/drivers/pio/pio.c **** 	} else {
 2189              		.loc 1 84 0
 2190 0078 5966     		str	r1, [r3, #100]
 2191              	.LBE258:
 2192              	.LBE257:
 915:../asf/sam/drivers/pio/pio.c **** 
 2193              		.loc 1 915 0
 2194 007a 30BC     		pop	{r4, r5}
 2195              		.cfi_remember_state
 2196              		.cfi_restore 5
 2197              		.cfi_restore 4
 2198              		.cfi_def_cfa_offset 0
 2199 007c 7047     		bx	lr
 2200              	.L249:
 2201              		.cfi_restore_state
 2202              	.LVL175:
 2203              	.LBB262:
 2204              	.LBB263:
 190:../asf/sam/drivers/pio/pio.c **** 
 2205              		.loc 1 190 0
 2206 007e 5964     		str	r1, [r3, #68]
 196:../asf/sam/drivers/pio/pio.c **** 
 2207              		.loc 1 196 0
 2208 0080 C843     		mvns	r0, r1
ARM GAS  /tmp/ccqzbxJl.s 			page 62


 195:../asf/sam/drivers/pio/pio.c **** 		p_pio->PIO_ABCDSR[0] &= (~ul_mask & ul_sr);
 2209              		.loc 1 195 0
 2210 0082 1C6F     		ldr	r4, [r3, #112]
 2211              	.LVL176:
 196:../asf/sam/drivers/pio/pio.c **** 
 2212              		.loc 1 196 0
 2213 0084 1D6F     		ldr	r5, [r3, #112]
 2214 0086 2C40     		ands	r4, r4, r5
 2215              	.LVL177:
 2216 0088 0546     		mov	r5, r0
 2217 008a 0440     		ands	r4, r4, r0
 2218 008c 1C67     		str	r4, [r3, #112]
 198:../asf/sam/drivers/pio/pio.c **** 		p_pio->PIO_ABCDSR[1] &= (~ul_mask & ul_sr);
 2219              		.loc 1 198 0
 2220 008e 586F     		ldr	r0, [r3, #116]
 2221              	.LVL178:
 199:../asf/sam/drivers/pio/pio.c **** 		break;
 2222              		.loc 1 199 0
 2223 0090 5C6F     		ldr	r4, [r3, #116]
 2224 0092 2040     		ands	r0, r0, r4
 2225              	.LVL179:
 2226 0094 2840     		ands	r0, r0, r5
 2227              	.LBE263:
 2228              	.LBE262:
 2229              	.LBB265:
 2230              	.LBB266:
  83:../asf/sam/drivers/pio/pio.c **** 		p_pio->PIO_PUER = ul_mask;
 2231              		.loc 1 83 0
 2232 0096 D507     		lsls	r5, r2, #31
 2233              	.LBE266:
 2234              	.LBE265:
 2235              	.LBB268:
 2236              	.LBB264:
 199:../asf/sam/drivers/pio/pio.c **** 		break;
 2237              		.loc 1 199 0
 2238 0098 5867     		str	r0, [r3, #116]
 255:../asf/sam/drivers/pio/pio.c **** }
 2239              		.loc 1 255 0
 2240 009a 5960     		str	r1, [r3, #4]
 2241              	.LVL180:
 2242              	.LBE264:
 2243              	.LBE268:
 2244              	.LBB269:
 2245              	.LBB267:
  83:../asf/sam/drivers/pio/pio.c **** 		p_pio->PIO_PUER = ul_mask;
 2246              		.loc 1 83 0
 2247 009c EBD4     		bmi	.L247
 2248              	.LVL181:
 2249              	.L218:
 2250              	.LBE267:
 2251              	.LBE269:
 914:../asf/sam/drivers/pio/pio.c **** }
 2252              		.loc 1 914 0
 2253 009e 0120     		movs	r0, #1
 2254              	.LBB270:
 2255              	.LBB259:
  86:../asf/sam/drivers/pio/pio.c **** 	}
ARM GAS  /tmp/ccqzbxJl.s 			page 63


 2256              		.loc 1 86 0
 2257 00a0 1966     		str	r1, [r3, #96]
 2258              	.LBE259:
 2259              	.LBE270:
 915:../asf/sam/drivers/pio/pio.c **** 
 2260              		.loc 1 915 0
 2261 00a2 30BC     		pop	{r4, r5}
 2262              		.cfi_remember_state
 2263              		.cfi_restore 4
 2264              		.cfi_restore 5
 2265              		.cfi_def_cfa_offset 0
 2266 00a4 7047     		bx	lr
 2267              	.L212:
 2268              		.cfi_restore_state
 2269              	.LVL182:
 2270              	.LBB271:
 2271              	.LBB272:
 190:../asf/sam/drivers/pio/pio.c **** 
 2272              		.loc 1 190 0
 2273 00a6 5964     		str	r1, [r3, #68]
 210:../asf/sam/drivers/pio/pio.c **** 		p_pio->PIO_ABCDSR[0] &= (~ul_mask & ul_sr);
 2274              		.loc 1 210 0
 2275 00a8 186F     		ldr	r0, [r3, #112]
 2276              	.LVL183:
 211:../asf/sam/drivers/pio/pio.c **** 
 2277              		.loc 1 211 0
 2278 00aa 1C6F     		ldr	r4, [r3, #112]
 2279 00ac 2040     		ands	r0, r0, r4
 2280              	.LVL184:
 2281 00ae 20EA0100 		bic	r0, r0, r1
 2282 00b2 1867     		str	r0, [r3, #112]
 213:../asf/sam/drivers/pio/pio.c **** 		p_pio->PIO_ABCDSR[1] = (ul_mask | ul_sr);
 2283              		.loc 1 213 0
 2284 00b4 586F     		ldr	r0, [r3, #116]
 2285              	.LVL185:
 214:../asf/sam/drivers/pio/pio.c **** 		break;
 2286              		.loc 1 214 0
 2287 00b6 0843     		orrs	r0, r0, r1
 2288              	.LVL186:
 2289 00b8 5867     		str	r0, [r3, #116]
 2290              	.LBE272:
 2291              	.LBE271:
 2292              	.LBB274:
 2293              	.LBB260:
  83:../asf/sam/drivers/pio/pio.c **** 		p_pio->PIO_PUER = ul_mask;
 2294              		.loc 1 83 0
 2295 00ba D007     		lsls	r0, r2, #31
 2296              	.LBE260:
 2297              	.LBE274:
 2298              	.LBB275:
 2299              	.LBB273:
 255:../asf/sam/drivers/pio/pio.c **** }
 2300              		.loc 1 255 0
 2301 00bc 5960     		str	r1, [r3, #4]
 2302              	.LVL187:
 2303              	.LBE273:
 2304              	.LBE275:
ARM GAS  /tmp/ccqzbxJl.s 			page 64


 2305              	.LBB276:
 2306              	.LBB261:
  83:../asf/sam/drivers/pio/pio.c **** 		p_pio->PIO_PUER = ul_mask;
 2307              		.loc 1 83 0
 2308 00be EED5     		bpl	.L218
 2309 00c0 D9E7     		b	.L247
 2310              	.LVL188:
 2311              	.L209:
 2312              		.cfi_def_cfa_offset 0
 2313              		.cfi_restore 4
 2314              		.cfi_restore 5
 2315              	.LBE261:
 2316              	.LBE276:
 2317              	.LBB277:
 2318              	.LBB278:
 190:../asf/sam/drivers/pio/pio.c **** 
 2319              		.loc 1 190 0
 2320 00c2 5964     		str	r1, [r3, #68]
 2321              	.LBE278:
 2322              	.LBE277:
 2323              	.LBB280:
 2324              	.LBB281:
  83:../asf/sam/drivers/pio/pio.c **** 		p_pio->PIO_PUER = ul_mask;
 2325              		.loc 1 83 0
 2326 00c4 D207     		lsls	r2, r2, #31
 2327              	.LVL189:
 2328              	.LBE281:
 2329              	.LBE280:
 2330              	.LBB284:
 2331              	.LBB279:
 217:../asf/sam/drivers/pio/pio.c **** 		p_pio->PIO_ABCDSR[0] = (ul_mask | ul_sr);
 2332              		.loc 1 217 0
 2333 00c6 186F     		ldr	r0, [r3, #112]
 2334              	.LVL190:
 218:../asf/sam/drivers/pio/pio.c **** 
 2335              		.loc 1 218 0
 2336 00c8 40EA0100 		orr	r0, r0, r1
 2337              	.LVL191:
 2338 00cc 1867     		str	r0, [r3, #112]
 220:../asf/sam/drivers/pio/pio.c **** 		p_pio->PIO_ABCDSR[1] = (ul_mask | ul_sr);
 2339              		.loc 1 220 0
 2340 00ce 586F     		ldr	r0, [r3, #116]
 2341              	.LVL192:
 221:../asf/sam/drivers/pio/pio.c **** 		break;
 2342              		.loc 1 221 0
 2343 00d0 40EA0100 		orr	r0, r0, r1
 2344              	.LVL193:
 2345 00d4 5867     		str	r0, [r3, #116]
 255:../asf/sam/drivers/pio/pio.c **** }
 2346              		.loc 1 255 0
 2347 00d6 5960     		str	r1, [r3, #4]
 2348              	.LVL194:
 2349              	.LBE279:
 2350              	.LBE284:
 2351              	.LBB285:
 2352              	.LBB282:
  83:../asf/sam/drivers/pio/pio.c **** 		p_pio->PIO_PUER = ul_mask;
ARM GAS  /tmp/ccqzbxJl.s 			page 65


 2353              		.loc 1 83 0
 2354 00d8 22D5     		bpl	.L219
  84:../asf/sam/drivers/pio/pio.c **** 	} else {
 2355              		.loc 1 84 0
 2356 00da 5966     		str	r1, [r3, #100]
 2357              	.LBE282:
 2358              	.LBE285:
 914:../asf/sam/drivers/pio/pio.c **** }
 2359              		.loc 1 914 0
 2360 00dc 0120     		movs	r0, #1
 2361 00de 7047     		bx	lr
 2362              	.LVL195:
 2363              	.L214:
 2364              		.cfi_def_cfa_offset 8
 2365              		.cfi_offset 4, -8
 2366              		.cfi_offset 5, -4
 904:../asf/sam/drivers/pio/pio.c **** 				== PIO_TYPE_PIO_OUTPUT_1) ? 1 : 0,
 2367              		.loc 1 904 0
 2368 00e0 02F06050 		and	r0, r2, #939524096
 906:../asf/sam/drivers/pio/pio.c **** 				(ul_flags & PIO_PULLUP) ? 1 : 0);
 2369              		.loc 1 906 0
 2370 00e4 02F00404 		and	r4, r2, #4
 2371              	.LVL196:
 2372              	.LBB286:
 2373              	.LBB287:
 2374              	.LBB288:
 2375              	.LBB289:
  83:../asf/sam/drivers/pio/pio.c **** 		p_pio->PIO_PUER = ul_mask;
 2376              		.loc 1 83 0
 2377 00e8 D207     		lsls	r2, r2, #31
 2378              	.LVL197:
 2379              	.LBE289:
 2380              	.LBE288:
 2381              	.LBB292:
 2382              	.LBB293:
 601:../asf/sam/drivers/pio/pio.c **** }
 2383              		.loc 1 601 0
 2384 00ea 5964     		str	r1, [r3, #68]
 2385              	.LBE293:
 2386              	.LBE292:
 2387              	.LBB294:
 2388              	.LBB290:
  83:../asf/sam/drivers/pio/pio.c **** 		p_pio->PIO_PUER = ul_mask;
 2389              		.loc 1 83 0
 2390 00ec 0BD5     		bpl	.L226
  84:../asf/sam/drivers/pio/pio.c **** 	} else {
 2391              		.loc 1 84 0
 2392 00ee 5966     		str	r1, [r3, #100]
 2393              	.L227:
 2394              	.LVL198:
 2395              	.LBE290:
 2396              	.LBE294:
 329:../asf/sam/drivers/pio/pio.c **** 		p_pio->PIO_MDER = ul_mask;
 2397              		.loc 1 329 0
 2398 00f0 5CB1     		cbz	r4, .L228
 330:../asf/sam/drivers/pio/pio.c **** 	} else {
 2399              		.loc 1 330 0
ARM GAS  /tmp/ccqzbxJl.s 			page 66


 2400 00f2 1965     		str	r1, [r3, #80]
 2401              	.L229:
 336:../asf/sam/drivers/pio/pio.c **** 		p_pio->PIO_SODR = ul_mask;
 2402              		.loc 1 336 0
 2403 00f4 B0F1605F 		cmp	r0, #939524096
 2404 00f8 15D0     		beq	.L250
 339:../asf/sam/drivers/pio/pio.c **** 	}
 2405              		.loc 1 339 0
 2406 00fa 5963     		str	r1, [r3, #52]
 2407              	.L231:
 343:../asf/sam/drivers/pio/pio.c **** 	p_pio->PIO_PER = ul_mask;
 2408              		.loc 1 343 0
 2409 00fc 1961     		str	r1, [r3, #16]
 2410              	.LBE287:
 2411              	.LBE286:
 914:../asf/sam/drivers/pio/pio.c **** }
 2412              		.loc 1 914 0
 2413 00fe 0120     		movs	r0, #1
 2414              	.LVL199:
 2415              	.LBB299:
 2416              	.LBB296:
 344:../asf/sam/drivers/pio/pio.c **** }
 2417              		.loc 1 344 0
 2418 0100 1960     		str	r1, [r3]
 2419              	.LBE296:
 2420              	.LBE299:
 915:../asf/sam/drivers/pio/pio.c **** 
 2421              		.loc 1 915 0
 2422 0102 30BC     		pop	{r4, r5}
 2423              		.cfi_remember_state
 2424              		.cfi_restore 4
 2425              		.cfi_restore 5
 2426              		.cfi_def_cfa_offset 0
 2427              	.LVL200:
 2428 0104 7047     		bx	lr
 2429              	.LVL201:
 2430              	.L226:
 2431              		.cfi_restore_state
 2432              	.LBB300:
 2433              	.LBB297:
 2434              	.LBB295:
 2435              	.LBB291:
  86:../asf/sam/drivers/pio/pio.c **** 	}
 2436              		.loc 1 86 0
 2437 0106 1966     		str	r1, [r3, #96]
 2438 0108 F2E7     		b	.L227
 2439              	.LVL202:
 2440              	.L228:
 2441              	.LBE291:
 2442              	.LBE295:
 332:../asf/sam/drivers/pio/pio.c **** 	}
 2443              		.loc 1 332 0
 2444 010a 5965     		str	r1, [r3, #84]
 2445 010c F2E7     		b	.L229
 2446              	.LVL203:
 2447              	.L222:
 2448              	.LBE297:
ARM GAS  /tmp/ccqzbxJl.s 			page 67


 2449              	.LBE300:
 2450              	.LBB301:
 2451              	.LBB247:
 277:../asf/sam/drivers/pio/pio.c **** 	}
 2452              		.loc 1 277 0
 2453 010e 5962     		str	r1, [r3, #36]
 2454 0110 9BE7     		b	.L223
 2455              	.LVL204:
 2456              	.L220:
 2457              	.LBB245:
 2458              	.LBB241:
  86:../asf/sam/drivers/pio/pio.c **** 	}
 2459              		.loc 1 86 0
 2460 0112 1966     		str	r1, [r3, #96]
 2461 0114 95E7     		b	.L221
 2462              	.LVL205:
 2463              	.L224:
 2464              	.LBE241:
 2465              	.LBE245:
 285:../asf/sam/drivers/pio/pio.c **** 			p_pio->PIO_IFSCER = ul_mask;
 2466              		.loc 1 285 0
 2467 0116 1007     		lsls	r0, r2, #28
 2468 0118 9BD5     		bpl	.L225
 286:../asf/sam/drivers/pio/pio.c **** 		}
 2469              		.loc 1 286 0
 2470 011a C3F88410 		str	r1, [r3, #132]
 2471 011e 98E7     		b	.L225
 2472              	.LVL206:
 2473              	.L219:
 2474              		.cfi_def_cfa_offset 0
 2475              		.cfi_restore 4
 2476              		.cfi_restore 5
 2477              	.LBE247:
 2478              	.LBE301:
 2479              	.LBB302:
 2480              	.LBB283:
  86:../asf/sam/drivers/pio/pio.c **** 	}
 2481              		.loc 1 86 0
 2482 0120 1966     		str	r1, [r3, #96]
 2483              	.LBE283:
 2484              	.LBE302:
 914:../asf/sam/drivers/pio/pio.c **** }
 2485              		.loc 1 914 0
 2486 0122 0120     		movs	r0, #1
 2487 0124 7047     		bx	lr
 2488              	.LVL207:
 2489              	.L250:
 2490              		.cfi_def_cfa_offset 8
 2491              		.cfi_offset 4, -8
 2492              		.cfi_offset 5, -4
 2493              	.LBB303:
 2494              	.LBB298:
 337:../asf/sam/drivers/pio/pio.c **** 	} else {
 2495              		.loc 1 337 0
 2496 0126 1963     		str	r1, [r3, #48]
 2497 0128 E8E7     		b	.L231
 2498              	.LBE298:
ARM GAS  /tmp/ccqzbxJl.s 			page 68


 2499              	.LBE303:
 2500              		.cfi_endproc
 2501              	.LFE177:
 2502              		.size	pio_configure_pin_group, .-pio_configure_pin_group
 2503 012a 00BF     		.section	.text.pio_enable_pin_interrupt,"ax",%progbits
 2504              		.align	1
 2505              		.p2align 2,,3
 2506              		.global	pio_enable_pin_interrupt
 2507              		.syntax unified
 2508              		.thumb
 2509              		.thumb_func
 2510              		.fpu fpv5-d16
 2511              		.type	pio_enable_pin_interrupt, %function
 2512              	pio_enable_pin_interrupt:
 2513              	.LFB178:
 925:../asf/sam/drivers/pio/pio.c **** 	Pio *p_pio = pio_get_pin_group(ul_pin);
 2514              		.loc 1 925 0
 2515              		.cfi_startproc
 2516              		@ args = 0, pretend = 0, frame = 0
 2517              		@ frame_needed = 0, uses_anonymous_args = 0
 2518              		@ link register save eliminated.
 2519              	.LVL208:
 2520              	.LBB304:
 2521              	.LBB305:
 2522              		.loc 1 977 0
 2523 0000 054B     		ldr	r3, .L252
 2524              	.LBE305:
 2525              	.LBE304:
 928:../asf/sam/drivers/pio/pio.c **** }
 2526              		.loc 1 928 0
 2527 0002 0122     		movs	r2, #1
 2528              	.LBB308:
 2529              	.LBB306:
 2530              		.loc 1 977 0
 2531 0004 03EB5013 		add	r3, r3, r0, lsr #5
 2532              	.LBE306:
 2533              	.LBE308:
 928:../asf/sam/drivers/pio/pio.c **** }
 2534              		.loc 1 928 0
 2535 0008 00F01F00 		and	r0, r0, #31
 2536              	.LVL209:
 2537              	.LBB309:
 2538              	.LBB307:
 2539              		.loc 1 977 0
 2540 000c 5B02     		lsls	r3, r3, #9
 2541              	.LVL210:
 2542              	.LBE307:
 2543              	.LBE309:
 928:../asf/sam/drivers/pio/pio.c **** }
 2544              		.loc 1 928 0
 2545 000e 02FA00F0 		lsl	r0, r2, r0
 2546 0012 1864     		str	r0, [r3, #64]
 2547 0014 7047     		bx	lr
 2548              	.L253:
 2549 0016 00BF     		.align	2
 2550              	.L252:
 2551 0018 07072000 		.word	2098951
ARM GAS  /tmp/ccqzbxJl.s 			page 69


 2552              		.cfi_endproc
 2553              	.LFE178:
 2554              		.size	pio_enable_pin_interrupt, .-pio_enable_pin_interrupt
 2555              		.section	.text.pio_disable_pin_interrupt,"ax",%progbits
 2556              		.align	1
 2557              		.p2align 2,,3
 2558              		.global	pio_disable_pin_interrupt
 2559              		.syntax unified
 2560              		.thumb
 2561              		.thumb_func
 2562              		.fpu fpv5-d16
 2563              		.type	pio_disable_pin_interrupt, %function
 2564              	pio_disable_pin_interrupt:
 2565              	.LFB179:
 940:../asf/sam/drivers/pio/pio.c **** 	Pio *p_pio = pio_get_pin_group(ul_pin);
 2566              		.loc 1 940 0
 2567              		.cfi_startproc
 2568              		@ args = 0, pretend = 0, frame = 0
 2569              		@ frame_needed = 0, uses_anonymous_args = 0
 2570              		@ link register save eliminated.
 2571              	.LVL211:
 2572              	.LBB310:
 2573              	.LBB311:
 2574              		.loc 1 977 0
 2575 0000 054B     		ldr	r3, .L255
 2576              	.LBE311:
 2577              	.LBE310:
 943:../asf/sam/drivers/pio/pio.c **** }
 2578              		.loc 1 943 0
 2579 0002 0122     		movs	r2, #1
 2580              	.LBB314:
 2581              	.LBB312:
 2582              		.loc 1 977 0
 2583 0004 03EB5013 		add	r3, r3, r0, lsr #5
 2584              	.LBE312:
 2585              	.LBE314:
 943:../asf/sam/drivers/pio/pio.c **** }
 2586              		.loc 1 943 0
 2587 0008 00F01F00 		and	r0, r0, #31
 2588              	.LVL212:
 2589              	.LBB315:
 2590              	.LBB313:
 2591              		.loc 1 977 0
 2592 000c 5B02     		lsls	r3, r3, #9
 2593              	.LVL213:
 2594              	.LBE313:
 2595              	.LBE315:
 943:../asf/sam/drivers/pio/pio.c **** }
 2596              		.loc 1 943 0
 2597 000e 02FA00F0 		lsl	r0, r2, r0
 2598 0012 5864     		str	r0, [r3, #68]
 2599 0014 7047     		bx	lr
 2600              	.L256:
 2601 0016 00BF     		.align	2
 2602              	.L255:
 2603 0018 07072000 		.word	2098951
 2604              		.cfi_endproc
ARM GAS  /tmp/ccqzbxJl.s 			page 70


 2605              	.LFE179:
 2606              		.size	pio_disable_pin_interrupt, .-pio_disable_pin_interrupt
 2607              		.section	.text.pio_get_pin_group,"ax",%progbits
 2608              		.align	1
 2609              		.p2align 2,,3
 2610              		.global	pio_get_pin_group
 2611              		.syntax unified
 2612              		.thumb
 2613              		.thumb_func
 2614              		.fpu fpv5-d16
 2615              		.type	pio_get_pin_group, %function
 2616              	pio_get_pin_group:
 2617              	.LFB180:
 955:../asf/sam/drivers/pio/pio.c **** 	Pio *p_pio;
 2618              		.loc 1 955 0
 2619              		.cfi_startproc
 2620              		@ args = 0, pretend = 0, frame = 0
 2621              		@ frame_needed = 0, uses_anonymous_args = 0
 2622              		@ link register save eliminated.
 2623              	.LVL214:
 2624              		.loc 1 977 0
 2625 0000 024B     		ldr	r3, .L258
 2626 0002 03EB5010 		add	r0, r3, r0, lsr #5
 2627              	.LVL215:
 978:../asf/sam/drivers/pio/pio.c **** #endif
 979:../asf/sam/drivers/pio/pio.c **** 	return p_pio;
 980:../asf/sam/drivers/pio/pio.c **** }
 2628              		.loc 1 980 0
 2629 0006 4002     		lsls	r0, r0, #9
 2630              	.LVL216:
 2631 0008 7047     		bx	lr
 2632              	.L259:
 2633 000a 00BF     		.align	2
 2634              	.L258:
 2635 000c 07072000 		.word	2098951
 2636              		.cfi_endproc
 2637              	.LFE180:
 2638              		.size	pio_get_pin_group, .-pio_get_pin_group
 2639              		.section	.text.pio_get_pin_group_id,"ax",%progbits
 2640              		.align	1
 2641              		.p2align 2,,3
 2642              		.global	pio_get_pin_group_id
 2643              		.syntax unified
 2644              		.thumb
 2645              		.thumb_func
 2646              		.fpu fpv5-d16
 2647              		.type	pio_get_pin_group_id, %function
 2648              	pio_get_pin_group_id:
 2649              	.LFB181:
 981:../asf/sam/drivers/pio/pio.c **** 
 982:../asf/sam/drivers/pio/pio.c **** /**
 983:../asf/sam/drivers/pio/pio.c ****  * \brief Return GPIO port peripheral ID for a GPIO pin.
 984:../asf/sam/drivers/pio/pio.c ****  *
 985:../asf/sam/drivers/pio/pio.c ****  * \param ul_pin The pin index.
 986:../asf/sam/drivers/pio/pio.c ****  *
 987:../asf/sam/drivers/pio/pio.c ****  * \return GPIO port peripheral ID.
 988:../asf/sam/drivers/pio/pio.c ****  */
ARM GAS  /tmp/ccqzbxJl.s 			page 71


 989:../asf/sam/drivers/pio/pio.c **** uint32_t pio_get_pin_group_id(uint32_t ul_pin)
 990:../asf/sam/drivers/pio/pio.c **** {
 2650              		.loc 1 990 0
 2651              		.cfi_startproc
 2652              		@ args = 0, pretend = 0, frame = 0
 2653              		@ frame_needed = 0, uses_anonymous_args = 0
 2654              		@ link register save eliminated.
 2655              	.LVL217:
 991:../asf/sam/drivers/pio/pio.c **** 	uint32_t ul_id;
 992:../asf/sam/drivers/pio/pio.c **** 
 993:../asf/sam/drivers/pio/pio.c **** #if (SAM4C || SAM4CP)
 994:../asf/sam/drivers/pio/pio.c **** #  ifdef ID_PIOD
 995:../asf/sam/drivers/pio/pio.c **** 	if (ul_pin > PIO_PC9_IDX) {
 996:../asf/sam/drivers/pio/pio.c **** 		ul_id = ID_PIOD;
 997:../asf/sam/drivers/pio/pio.c **** 	} else if (ul_pin > PIO_PB31_IDX) {
 998:../asf/sam/drivers/pio/pio.c **** #  else
 999:../asf/sam/drivers/pio/pio.c **** 	if (ul_pin > PIO_PB31_IDX) {
1000:../asf/sam/drivers/pio/pio.c **** #  endif
1001:../asf/sam/drivers/pio/pio.c **** 		ul_id = ID_PIOC;
1002:../asf/sam/drivers/pio/pio.c **** 	} else {
1003:../asf/sam/drivers/pio/pio.c **** 		ul_id = ID_PIOA + (ul_pin >> 5);
1004:../asf/sam/drivers/pio/pio.c **** 	}
1005:../asf/sam/drivers/pio/pio.c **** #elif (SAM4CM)
1006:../asf/sam/drivers/pio/pio.c **** 	if (ul_pin > PIO_PB21_IDX) {
1007:../asf/sam/drivers/pio/pio.c **** 		ul_id = ID_PIOC;
1008:../asf/sam/drivers/pio/pio.c **** 	} else {
1009:../asf/sam/drivers/pio/pio.c **** 		ul_id = ID_PIOA + (ul_pin >> 5);
1010:../asf/sam/drivers/pio/pio.c **** 	}
1011:../asf/sam/drivers/pio/pio.c **** #elif (SAMV70 || SAMV71 || SAME70 || SAMS70)
1012:../asf/sam/drivers/pio/pio.c **** 	ul_id = ID_PIOA + (ul_pin >> 5);
1013:../asf/sam/drivers/pio/pio.c **** 
1014:../asf/sam/drivers/pio/pio.c **** 	#ifdef ID_PIOD 
1015:../asf/sam/drivers/pio/pio.c **** 	if (ul_pin >= PIO_PD0_IDX) ul_id = ID_PIOD; 
 2656              		.loc 1 1015 0
 2657 0000 5F28     		cmp	r0, #95
 2658 0002 02D8     		bhi	.L261
1012:../asf/sam/drivers/pio/pio.c **** 
 2659              		.loc 1 1012 0
 2660 0004 4009     		lsrs	r0, r0, #5
 2661              	.LVL218:
 2662 0006 0A30     		adds	r0, r0, #10
 2663              	.LVL219:
 2664 0008 7047     		bx	lr
 2665              	.LVL220:
 2666              	.L261:
1016:../asf/sam/drivers/pio/pio.c **** 	#endif
1017:../asf/sam/drivers/pio/pio.c **** 	
1018:../asf/sam/drivers/pio/pio.c **** 	#ifdef ID_PIOE 
1019:../asf/sam/drivers/pio/pio.c **** 	if (ul_pin >= PIO_PE0_IDX) ul_id = ID_PIOE; 
 2667              		.loc 1 1019 0
 2668 000a 8028     		cmp	r0, #128
 2669 000c 34BF     		ite	cc
 2670 000e 1020     		movcc	r0, #16
 2671              	.LVL221:
 2672 0010 1120     		movcs	r0, #17
1020:../asf/sam/drivers/pio/pio.c **** 	#endif 
1021:../asf/sam/drivers/pio/pio.c **** #else
ARM GAS  /tmp/ccqzbxJl.s 			page 72


1022:../asf/sam/drivers/pio/pio.c **** 	ul_id = ID_PIOA + (ul_pin >> 5);
1023:../asf/sam/drivers/pio/pio.c **** #endif
1024:../asf/sam/drivers/pio/pio.c **** 	return ul_id;
1025:../asf/sam/drivers/pio/pio.c **** }
 2673              		.loc 1 1025 0
 2674 0012 7047     		bx	lr
 2675              		.cfi_endproc
 2676              	.LFE181:
 2677              		.size	pio_get_pin_group_id, .-pio_get_pin_group_id
 2678              		.section	.text.pio_get_pin_group_mask,"ax",%progbits
 2679              		.align	1
 2680              		.p2align 2,,3
 2681              		.global	pio_get_pin_group_mask
 2682              		.syntax unified
 2683              		.thumb
 2684              		.thumb_func
 2685              		.fpu fpv5-d16
 2686              		.type	pio_get_pin_group_mask, %function
 2687              	pio_get_pin_group_mask:
 2688              	.LFB182:
1026:../asf/sam/drivers/pio/pio.c **** 
1027:../asf/sam/drivers/pio/pio.c **** 
1028:../asf/sam/drivers/pio/pio.c **** /**
1029:../asf/sam/drivers/pio/pio.c ****  * \brief Return GPIO port pin mask for a GPIO pin.
1030:../asf/sam/drivers/pio/pio.c ****  *
1031:../asf/sam/drivers/pio/pio.c ****  * \param ul_pin The pin index.
1032:../asf/sam/drivers/pio/pio.c ****  *
1033:../asf/sam/drivers/pio/pio.c ****  * \return GPIO port pin mask.
1034:../asf/sam/drivers/pio/pio.c ****  */
1035:../asf/sam/drivers/pio/pio.c **** uint32_t pio_get_pin_group_mask(uint32_t ul_pin)
1036:../asf/sam/drivers/pio/pio.c **** {
 2689              		.loc 1 1036 0
 2690              		.cfi_startproc
 2691              		@ args = 0, pretend = 0, frame = 0
 2692              		@ frame_needed = 0, uses_anonymous_args = 0
 2693              		@ link register save eliminated.
 2694              	.LVL222:
1037:../asf/sam/drivers/pio/pio.c **** 	uint32_t ul_mask = 1 << (ul_pin & 0x1F);
 2695              		.loc 1 1037 0
 2696 0000 0123     		movs	r3, #1
 2697 0002 00F01F00 		and	r0, r0, #31
 2698              	.LVL223:
1038:../asf/sam/drivers/pio/pio.c **** 	return ul_mask;
1039:../asf/sam/drivers/pio/pio.c **** }
 2699              		.loc 1 1039 0
 2700 0006 03FA00F0 		lsl	r0, r3, r0
 2701              	.LVL224:
 2702 000a 7047     		bx	lr
 2703              		.cfi_endproc
 2704              	.LFE182:
 2705              		.size	pio_get_pin_group_mask, .-pio_get_pin_group_mask
 2706              		.section	.text.pio_capture_set_mode,"ax",%progbits
 2707              		.align	1
 2708              		.p2align 2,,3
 2709              		.global	pio_capture_set_mode
 2710              		.syntax unified
 2711              		.thumb
ARM GAS  /tmp/ccqzbxJl.s 			page 73


 2712              		.thumb_func
 2713              		.fpu fpv5-d16
 2714              		.type	pio_capture_set_mode, %function
 2715              	pio_capture_set_mode:
 2716              	.LFB183:
1040:../asf/sam/drivers/pio/pio.c **** 
1041:../asf/sam/drivers/pio/pio.c **** #if (SAM3S || SAM4S || SAM4E || SAMV71 || SAMV70 || SAME70 || SAMS70)
1042:../asf/sam/drivers/pio/pio.c **** /* Capture mode enable flag */
1043:../asf/sam/drivers/pio/pio.c **** uint32_t pio_capture_enable_flag;
1044:../asf/sam/drivers/pio/pio.c **** 
1045:../asf/sam/drivers/pio/pio.c **** /**
1046:../asf/sam/drivers/pio/pio.c ****  * \brief Configure PIO capture mode.
1047:../asf/sam/drivers/pio/pio.c ****  * \note PIO capture mode will be disabled automatically.
1048:../asf/sam/drivers/pio/pio.c ****  *
1049:../asf/sam/drivers/pio/pio.c ****  * \param p_pio Pointer to a PIO instance.
1050:../asf/sam/drivers/pio/pio.c ****  * \param ul_mode Bitmask of one or more modes.
1051:../asf/sam/drivers/pio/pio.c ****  */
1052:../asf/sam/drivers/pio/pio.c **** void pio_capture_set_mode(Pio *p_pio, uint32_t ul_mode)
1053:../asf/sam/drivers/pio/pio.c **** {
 2717              		.loc 1 1053 0
 2718              		.cfi_startproc
 2719              		@ args = 0, pretend = 0, frame = 0
 2720              		@ frame_needed = 0, uses_anonymous_args = 0
 2721              		@ link register save eliminated.
 2722              	.LVL225:
1054:../asf/sam/drivers/pio/pio.c **** 	ul_mode &= (~PIO_PCMR_PCEN); /* Disable PIO capture mode */
 2723              		.loc 1 1054 0
 2724 0000 21F00101 		bic	r1, r1, #1
 2725              	.LVL226:
1055:../asf/sam/drivers/pio/pio.c **** 	p_pio->PIO_PCMR = ul_mode;
 2726              		.loc 1 1055 0
 2727 0004 C0F85011 		str	r1, [r0, #336]
 2728 0008 7047     		bx	lr
 2729              		.cfi_endproc
 2730              	.LFE183:
 2731              		.size	pio_capture_set_mode, .-pio_capture_set_mode
 2732 000a 00BF     		.section	.text.pio_capture_enable,"ax",%progbits
 2733              		.align	1
 2734              		.p2align 2,,3
 2735              		.global	pio_capture_enable
 2736              		.syntax unified
 2737              		.thumb
 2738              		.thumb_func
 2739              		.fpu fpv5-d16
 2740              		.type	pio_capture_enable, %function
 2741              	pio_capture_enable:
 2742              	.LFB184:
1056:../asf/sam/drivers/pio/pio.c **** }
1057:../asf/sam/drivers/pio/pio.c **** 
1058:../asf/sam/drivers/pio/pio.c **** /**
1059:../asf/sam/drivers/pio/pio.c ****  * \brief Enable PIO capture mode.
1060:../asf/sam/drivers/pio/pio.c ****  *
1061:../asf/sam/drivers/pio/pio.c ****  * \param p_pio Pointer to a PIO instance.
1062:../asf/sam/drivers/pio/pio.c ****  */
1063:../asf/sam/drivers/pio/pio.c **** void pio_capture_enable(Pio *p_pio)
1064:../asf/sam/drivers/pio/pio.c **** {
 2743              		.loc 1 1064 0
ARM GAS  /tmp/ccqzbxJl.s 			page 74


 2744              		.cfi_startproc
 2745              		@ args = 0, pretend = 0, frame = 0
 2746              		@ frame_needed = 0, uses_anonymous_args = 0
 2747              		@ link register save eliminated.
 2748              	.LVL227:
1065:../asf/sam/drivers/pio/pio.c **** 	p_pio->PIO_PCMR |= PIO_PCMR_PCEN;
1066:../asf/sam/drivers/pio/pio.c **** 	pio_capture_enable_flag = true;
 2749              		.loc 1 1066 0
 2750 0000 0121     		movs	r1, #1
1065:../asf/sam/drivers/pio/pio.c **** 	p_pio->PIO_PCMR |= PIO_PCMR_PCEN;
 2751              		.loc 1 1065 0
 2752 0002 D0F85031 		ldr	r3, [r0, #336]
 2753              		.loc 1 1066 0
 2754 0006 034A     		ldr	r2, .L267
1065:../asf/sam/drivers/pio/pio.c **** 	p_pio->PIO_PCMR |= PIO_PCMR_PCEN;
 2755              		.loc 1 1065 0
 2756 0008 0B43     		orrs	r3, r3, r1
 2757              		.loc 1 1066 0
 2758 000a 1160     		str	r1, [r2]
1065:../asf/sam/drivers/pio/pio.c **** 	p_pio->PIO_PCMR |= PIO_PCMR_PCEN;
 2759              		.loc 1 1065 0
 2760 000c C0F85031 		str	r3, [r0, #336]
 2761 0010 7047     		bx	lr
 2762              	.L268:
 2763 0012 00BF     		.align	2
 2764              	.L267:
 2765 0014 00000000 		.word	pio_capture_enable_flag
 2766              		.cfi_endproc
 2767              	.LFE184:
 2768              		.size	pio_capture_enable, .-pio_capture_enable
 2769              		.section	.text.pio_capture_disable,"ax",%progbits
 2770              		.align	1
 2771              		.p2align 2,,3
 2772              		.global	pio_capture_disable
 2773              		.syntax unified
 2774              		.thumb
 2775              		.thumb_func
 2776              		.fpu fpv5-d16
 2777              		.type	pio_capture_disable, %function
 2778              	pio_capture_disable:
 2779              	.LFB185:
1067:../asf/sam/drivers/pio/pio.c **** }
1068:../asf/sam/drivers/pio/pio.c **** 
1069:../asf/sam/drivers/pio/pio.c **** /**
1070:../asf/sam/drivers/pio/pio.c ****  * \brief Disable PIO capture mode.
1071:../asf/sam/drivers/pio/pio.c ****  *
1072:../asf/sam/drivers/pio/pio.c ****  * \param p_pio Pointer to a PIO instance.
1073:../asf/sam/drivers/pio/pio.c ****  */
1074:../asf/sam/drivers/pio/pio.c **** void pio_capture_disable(Pio *p_pio)
1075:../asf/sam/drivers/pio/pio.c **** {
 2780              		.loc 1 1075 0
 2781              		.cfi_startproc
 2782              		@ args = 0, pretend = 0, frame = 0
 2783              		@ frame_needed = 0, uses_anonymous_args = 0
 2784              		@ link register save eliminated.
 2785              	.LVL228:
1076:../asf/sam/drivers/pio/pio.c **** 	p_pio->PIO_PCMR &= (~PIO_PCMR_PCEN);
ARM GAS  /tmp/ccqzbxJl.s 			page 75


 2786              		.loc 1 1076 0
 2787 0000 D0F85031 		ldr	r3, [r0, #336]
1077:../asf/sam/drivers/pio/pio.c **** 	pio_capture_enable_flag = false;
 2788              		.loc 1 1077 0
 2789 0004 0021     		movs	r1, #0
 2790 0006 034A     		ldr	r2, .L270
1076:../asf/sam/drivers/pio/pio.c **** 	p_pio->PIO_PCMR &= (~PIO_PCMR_PCEN);
 2791              		.loc 1 1076 0
 2792 0008 23F00103 		bic	r3, r3, #1
 2793              		.loc 1 1077 0
 2794 000c 1160     		str	r1, [r2]
1076:../asf/sam/drivers/pio/pio.c **** 	p_pio->PIO_PCMR &= (~PIO_PCMR_PCEN);
 2795              		.loc 1 1076 0
 2796 000e C0F85031 		str	r3, [r0, #336]
 2797 0012 7047     		bx	lr
 2798              	.L271:
 2799              		.align	2
 2800              	.L270:
 2801 0014 00000000 		.word	pio_capture_enable_flag
 2802              		.cfi_endproc
 2803              	.LFE185:
 2804              		.size	pio_capture_disable, .-pio_capture_disable
 2805              		.section	.text.pio_capture_read,"ax",%progbits
 2806              		.align	1
 2807              		.p2align 2,,3
 2808              		.global	pio_capture_read
 2809              		.syntax unified
 2810              		.thumb
 2811              		.thumb_func
 2812              		.fpu fpv5-d16
 2813              		.type	pio_capture_read, %function
 2814              	pio_capture_read:
 2815              	.LFB186:
1078:../asf/sam/drivers/pio/pio.c **** }
1079:../asf/sam/drivers/pio/pio.c **** 
1080:../asf/sam/drivers/pio/pio.c **** /**
1081:../asf/sam/drivers/pio/pio.c ****  * \brief Read from Capture Reception Holding Register.
1082:../asf/sam/drivers/pio/pio.c ****  * \note Data presence should be tested before any read attempt.
1083:../asf/sam/drivers/pio/pio.c ****  *
1084:../asf/sam/drivers/pio/pio.c ****  * \param p_pio Pointer to a PIO instance.
1085:../asf/sam/drivers/pio/pio.c ****  * \param pul_data Pointer to store the data.
1086:../asf/sam/drivers/pio/pio.c ****  *
1087:../asf/sam/drivers/pio/pio.c ****  * \retval 0 Success.
1088:../asf/sam/drivers/pio/pio.c ****  * \retval 1 I/O Failure, Capture data is not ready.
1089:../asf/sam/drivers/pio/pio.c ****  */
1090:../asf/sam/drivers/pio/pio.c **** uint32_t pio_capture_read(const Pio *p_pio, uint32_t *pul_data)
1091:../asf/sam/drivers/pio/pio.c **** {
 2816              		.loc 1 1091 0
 2817              		.cfi_startproc
 2818              		@ args = 0, pretend = 0, frame = 0
 2819              		@ frame_needed = 0, uses_anonymous_args = 0
 2820              		@ link register save eliminated.
 2821              	.LVL229:
1092:../asf/sam/drivers/pio/pio.c **** 	/* Check if the data is ready */
1093:../asf/sam/drivers/pio/pio.c **** 	if ((p_pio->PIO_PCISR & PIO_PCISR_DRDY) == 0) {
 2822              		.loc 1 1093 0
 2823 0000 D0F86031 		ldr	r3, [r0, #352]
ARM GAS  /tmp/ccqzbxJl.s 			page 76


 2824 0004 DB07     		lsls	r3, r3, #31
 2825 0006 04D5     		bpl	.L274
1094:../asf/sam/drivers/pio/pio.c **** 		return 1;
1095:../asf/sam/drivers/pio/pio.c **** 	}
1096:../asf/sam/drivers/pio/pio.c **** 
1097:../asf/sam/drivers/pio/pio.c **** 	/* Read data */
1098:../asf/sam/drivers/pio/pio.c **** 	*pul_data = p_pio->PIO_PCRHR;
 2826              		.loc 1 1098 0
 2827 0008 D0F86431 		ldr	r3, [r0, #356]
1099:../asf/sam/drivers/pio/pio.c **** 	return 0;
 2828              		.loc 1 1099 0
 2829 000c 0020     		movs	r0, #0
 2830              	.LVL230:
1098:../asf/sam/drivers/pio/pio.c **** 	return 0;
 2831              		.loc 1 1098 0
 2832 000e 0B60     		str	r3, [r1]
 2833              		.loc 1 1099 0
 2834 0010 7047     		bx	lr
 2835              	.LVL231:
 2836              	.L274:
1094:../asf/sam/drivers/pio/pio.c **** 		return 1;
 2837              		.loc 1 1094 0
 2838 0012 0120     		movs	r0, #1
 2839              	.LVL232:
1100:../asf/sam/drivers/pio/pio.c **** }
 2840              		.loc 1 1100 0
 2841 0014 7047     		bx	lr
 2842              		.cfi_endproc
 2843              	.LFE186:
 2844              		.size	pio_capture_read, .-pio_capture_read
 2845 0016 00BF     		.section	.text.pio_capture_enable_interrupt,"ax",%progbits
 2846              		.align	1
 2847              		.p2align 2,,3
 2848              		.global	pio_capture_enable_interrupt
 2849              		.syntax unified
 2850              		.thumb
 2851              		.thumb_func
 2852              		.fpu fpv5-d16
 2853              		.type	pio_capture_enable_interrupt, %function
 2854              	pio_capture_enable_interrupt:
 2855              	.LFB187:
1101:../asf/sam/drivers/pio/pio.c **** 
1102:../asf/sam/drivers/pio/pio.c **** /**
1103:../asf/sam/drivers/pio/pio.c ****  * \brief Enable the given interrupt source of PIO capture. The status
1104:../asf/sam/drivers/pio/pio.c ****  * register of the corresponding PIO capture controller is cleared prior
1105:../asf/sam/drivers/pio/pio.c ****  * to enabling the interrupt.
1106:../asf/sam/drivers/pio/pio.c ****  *
1107:../asf/sam/drivers/pio/pio.c ****  * \param p_pio Pointer to a PIO instance.
1108:../asf/sam/drivers/pio/pio.c ****  * \param ul_mask Interrupt sources bit map.
1109:../asf/sam/drivers/pio/pio.c ****  */
1110:../asf/sam/drivers/pio/pio.c **** void pio_capture_enable_interrupt(Pio *p_pio, const uint32_t ul_mask)
1111:../asf/sam/drivers/pio/pio.c **** {
 2856              		.loc 1 1111 0
 2857              		.cfi_startproc
 2858              		@ args = 0, pretend = 0, frame = 0
 2859              		@ frame_needed = 0, uses_anonymous_args = 0
 2860              		@ link register save eliminated.
ARM GAS  /tmp/ccqzbxJl.s 			page 77


 2861              	.LVL233:
1112:../asf/sam/drivers/pio/pio.c **** 	p_pio->PIO_PCISR;
 2862              		.loc 1 1112 0
 2863 0000 D0F86031 		ldr	r3, [r0, #352]
1113:../asf/sam/drivers/pio/pio.c **** 	p_pio->PIO_PCIER = ul_mask;
 2864              		.loc 1 1113 0
 2865 0004 C0F85411 		str	r1, [r0, #340]
 2866 0008 7047     		bx	lr
 2867              		.cfi_endproc
 2868              	.LFE187:
 2869              		.size	pio_capture_enable_interrupt, .-pio_capture_enable_interrupt
 2870              		.section	.text.pio_capture_disable_interrupt,"ax",%progbits
 2871              		.align	1
 2872              		.p2align 2,,3
 2873              		.global	pio_capture_disable_interrupt
 2874              		.syntax unified
 2875              		.thumb
 2876              		.thumb_func
 2877              		.fpu fpv5-d16
 2878              		.type	pio_capture_disable_interrupt, %function
 2879              	pio_capture_disable_interrupt:
 2880              	.LFB188:
1114:../asf/sam/drivers/pio/pio.c **** }
1115:../asf/sam/drivers/pio/pio.c **** 
1116:../asf/sam/drivers/pio/pio.c **** /**
1117:../asf/sam/drivers/pio/pio.c ****  * \brief Disable a given interrupt source of PIO capture.
1118:../asf/sam/drivers/pio/pio.c ****  *
1119:../asf/sam/drivers/pio/pio.c ****  * \param p_pio Pointer to a PIO instance.
1120:../asf/sam/drivers/pio/pio.c ****  * \param ul_mask Interrupt sources bit map.
1121:../asf/sam/drivers/pio/pio.c ****  */
1122:../asf/sam/drivers/pio/pio.c **** void pio_capture_disable_interrupt(Pio *p_pio, const uint32_t ul_mask)
1123:../asf/sam/drivers/pio/pio.c **** {
 2881              		.loc 1 1123 0
 2882              		.cfi_startproc
 2883              		@ args = 0, pretend = 0, frame = 0
 2884              		@ frame_needed = 0, uses_anonymous_args = 0
 2885              		@ link register save eliminated.
 2886              	.LVL234:
1124:../asf/sam/drivers/pio/pio.c **** 	p_pio->PIO_PCIDR = ul_mask;
 2887              		.loc 1 1124 0
 2888 0000 C0F85811 		str	r1, [r0, #344]
 2889 0004 7047     		bx	lr
 2890              		.cfi_endproc
 2891              	.LFE188:
 2892              		.size	pio_capture_disable_interrupt, .-pio_capture_disable_interrupt
 2893 0006 00BF     		.section	.text.pio_capture_get_interrupt_status,"ax",%progbits
 2894              		.align	1
 2895              		.p2align 2,,3
 2896              		.global	pio_capture_get_interrupt_status
 2897              		.syntax unified
 2898              		.thumb
 2899              		.thumb_func
 2900              		.fpu fpv5-d16
 2901              		.type	pio_capture_get_interrupt_status, %function
 2902              	pio_capture_get_interrupt_status:
 2903              	.LFB189:
1125:../asf/sam/drivers/pio/pio.c **** }
ARM GAS  /tmp/ccqzbxJl.s 			page 78


1126:../asf/sam/drivers/pio/pio.c **** 
1127:../asf/sam/drivers/pio/pio.c **** /**
1128:../asf/sam/drivers/pio/pio.c ****  * \brief Read PIO interrupt status of PIO capture.
1129:../asf/sam/drivers/pio/pio.c ****  *
1130:../asf/sam/drivers/pio/pio.c ****  * \param p_pio Pointer to a PIO instance.
1131:../asf/sam/drivers/pio/pio.c ****  *
1132:../asf/sam/drivers/pio/pio.c ****  * \return The interrupt status mask value.
1133:../asf/sam/drivers/pio/pio.c ****  */
1134:../asf/sam/drivers/pio/pio.c **** uint32_t pio_capture_get_interrupt_status(const Pio *p_pio)
1135:../asf/sam/drivers/pio/pio.c **** {
 2904              		.loc 1 1135 0
 2905              		.cfi_startproc
 2906              		@ args = 0, pretend = 0, frame = 0
 2907              		@ frame_needed = 0, uses_anonymous_args = 0
 2908              		@ link register save eliminated.
 2909              	.LVL235:
1136:../asf/sam/drivers/pio/pio.c **** 	return p_pio->PIO_PCISR;
 2910              		.loc 1 1136 0
 2911 0000 D0F86001 		ldr	r0, [r0, #352]
 2912              	.LVL236:
1137:../asf/sam/drivers/pio/pio.c **** }
 2913              		.loc 1 1137 0
 2914 0004 7047     		bx	lr
 2915              		.cfi_endproc
 2916              	.LFE189:
 2917              		.size	pio_capture_get_interrupt_status, .-pio_capture_get_interrupt_status
 2918 0006 00BF     		.section	.text.pio_capture_get_interrupt_mask,"ax",%progbits
 2919              		.align	1
 2920              		.p2align 2,,3
 2921              		.global	pio_capture_get_interrupt_mask
 2922              		.syntax unified
 2923              		.thumb
 2924              		.thumb_func
 2925              		.fpu fpv5-d16
 2926              		.type	pio_capture_get_interrupt_mask, %function
 2927              	pio_capture_get_interrupt_mask:
 2928              	.LFB190:
1138:../asf/sam/drivers/pio/pio.c **** 
1139:../asf/sam/drivers/pio/pio.c **** /**
1140:../asf/sam/drivers/pio/pio.c ****  * \brief Read PIO interrupt mask of PIO capture.
1141:../asf/sam/drivers/pio/pio.c ****  *
1142:../asf/sam/drivers/pio/pio.c ****  * \param p_pio Pointer to a PIO instance.
1143:../asf/sam/drivers/pio/pio.c ****  *
1144:../asf/sam/drivers/pio/pio.c ****  * \return The interrupt mask value.
1145:../asf/sam/drivers/pio/pio.c ****  */
1146:../asf/sam/drivers/pio/pio.c **** uint32_t pio_capture_get_interrupt_mask(const Pio *p_pio)
1147:../asf/sam/drivers/pio/pio.c **** {
 2929              		.loc 1 1147 0
 2930              		.cfi_startproc
 2931              		@ args = 0, pretend = 0, frame = 0
 2932              		@ frame_needed = 0, uses_anonymous_args = 0
 2933              		@ link register save eliminated.
 2934              	.LVL237:
1148:../asf/sam/drivers/pio/pio.c **** 	return p_pio->PIO_PCIMR;
 2935              		.loc 1 1148 0
 2936 0000 D0F85C01 		ldr	r0, [r0, #348]
 2937              	.LVL238:
ARM GAS  /tmp/ccqzbxJl.s 			page 79


1149:../asf/sam/drivers/pio/pio.c **** }
 2938              		.loc 1 1149 0
 2939 0004 7047     		bx	lr
 2940              		.cfi_endproc
 2941              	.LFE190:
 2942              		.size	pio_capture_get_interrupt_mask, .-pio_capture_get_interrupt_mask
 2943 0006 00BF     		.section	.text.pio_set_io_drive,"ax",%progbits
 2944              		.align	1
 2945              		.p2align 2,,3
 2946              		.global	pio_set_io_drive
 2947              		.syntax unified
 2948              		.thumb
 2949              		.thumb_func
 2950              		.fpu fpv5-d16
 2951              		.type	pio_set_io_drive, %function
 2952              	pio_set_io_drive:
 2953              	.LFB191:
1150:../asf/sam/drivers/pio/pio.c **** #if !(SAMV71 || SAMV70 || SAME70 || SAMS70)
1151:../asf/sam/drivers/pio/pio.c **** /**
1152:../asf/sam/drivers/pio/pio.c ****  * \brief Get PDC registers base address.
1153:../asf/sam/drivers/pio/pio.c ****  *
1154:../asf/sam/drivers/pio/pio.c ****  * \param p_pio Pointer to an PIO peripheral.
1155:../asf/sam/drivers/pio/pio.c ****  *
1156:../asf/sam/drivers/pio/pio.c ****  * \return PIOA PDC register base address.
1157:../asf/sam/drivers/pio/pio.c ****  */
1158:../asf/sam/drivers/pio/pio.c **** Pdc *pio_capture_get_pdc_base(const Pio *p_pio)
1159:../asf/sam/drivers/pio/pio.c **** {
1160:../asf/sam/drivers/pio/pio.c **** 	UNUSED(p_pio); /* Stop warning */
1161:../asf/sam/drivers/pio/pio.c **** 	return PDC_PIOA;
1162:../asf/sam/drivers/pio/pio.c **** }
1163:../asf/sam/drivers/pio/pio.c **** #endif
1164:../asf/sam/drivers/pio/pio.c **** #endif
1165:../asf/sam/drivers/pio/pio.c **** 
1166:../asf/sam/drivers/pio/pio.c **** #if (SAM4C || SAM4CP || SAM4CM || SAMG55 || SAMV71 || SAMV70 || SAME70 || SAMS70)
1167:../asf/sam/drivers/pio/pio.c **** /**
1168:../asf/sam/drivers/pio/pio.c ****  * \brief Set PIO IO drive.
1169:../asf/sam/drivers/pio/pio.c ****  *
1170:../asf/sam/drivers/pio/pio.c ****  * \param p_pio Pointer to an PIO peripheral.
1171:../asf/sam/drivers/pio/pio.c ****  * \param ul_line Line index (0..31).
1172:../asf/sam/drivers/pio/pio.c ****  * \param mode IO drive mode.
1173:../asf/sam/drivers/pio/pio.c ****  */
1174:../asf/sam/drivers/pio/pio.c **** void pio_set_io_drive(Pio *p_pio, uint32_t ul_line,
1175:../asf/sam/drivers/pio/pio.c **** 		enum pio_io_drive_mode mode)
1176:../asf/sam/drivers/pio/pio.c **** {
 2954              		.loc 1 1176 0
 2955              		.cfi_startproc
 2956              		@ args = 0, pretend = 0, frame = 0
 2957              		@ frame_needed = 0, uses_anonymous_args = 0
 2958              		@ link register save eliminated.
 2959              	.LVL239:
 2960 0000 10B4     		push	{r4}
 2961              		.cfi_def_cfa_offset 4
 2962              		.cfi_offset 4, -4
1177:../asf/sam/drivers/pio/pio.c **** 	p_pio->PIO_DRIVER &= ~(1 << ul_line);
 2963              		.loc 1 1177 0
 2964 0002 0124     		movs	r4, #1
 2965 0004 D0F81831 		ldr	r3, [r0, #280]
ARM GAS  /tmp/ccqzbxJl.s 			page 80


1178:../asf/sam/drivers/pio/pio.c **** 	p_pio->PIO_DRIVER |= mode << ul_line;
 2966              		.loc 1 1178 0
 2967 0008 8A40     		lsls	r2, r2, r1
 2968              	.LVL240:
1177:../asf/sam/drivers/pio/pio.c **** 	p_pio->PIO_DRIVER &= ~(1 << ul_line);
 2969              		.loc 1 1177 0
 2970 000a 8C40     		lsls	r4, r4, r1
 2971 000c 23EA0403 		bic	r3, r3, r4
1179:../asf/sam/drivers/pio/pio.c **** }
 2972              		.loc 1 1179 0
 2973 0010 5DF8044B 		ldr	r4, [sp], #4
 2974              		.cfi_restore 4
 2975              		.cfi_def_cfa_offset 0
1177:../asf/sam/drivers/pio/pio.c **** 	p_pio->PIO_DRIVER &= ~(1 << ul_line);
 2976              		.loc 1 1177 0
 2977 0014 C0F81831 		str	r3, [r0, #280]
1178:../asf/sam/drivers/pio/pio.c **** 	p_pio->PIO_DRIVER |= mode << ul_line;
 2978              		.loc 1 1178 0
 2979 0018 D0F81831 		ldr	r3, [r0, #280]
 2980 001c 1A43     		orrs	r2, r2, r3
 2981 001e C0F81821 		str	r2, [r0, #280]
 2982              		.loc 1 1179 0
 2983 0022 7047     		bx	lr
 2984              		.cfi_endproc
 2985              	.LFE191:
 2986              		.size	pio_set_io_drive, .-pio_set_io_drive
 2987              		.comm	pio_capture_enable_flag,4,4
 2988              		.section	.bss.cpu_irq_critical_section_counter,"aw",%nobits
 2989              		.align	2
 2990              		.type	cpu_irq_critical_section_counter, %object
 2991              		.size	cpu_irq_critical_section_counter, 4
 2992              	cpu_irq_critical_section_counter:
 2993 0000 00000000 		.space	4
 2994              		.section	.bss.cpu_irq_prev_interrupt_state,"aw",%nobits
 2995              		.type	cpu_irq_prev_interrupt_state, %object
 2996              		.size	cpu_irq_prev_interrupt_state, 1
 2997              	cpu_irq_prev_interrupt_state:
 2998 0000 00       		.space	1
 2999              		.text
 3000              	.Letext0:
 3001              		.file 2 "/usr/include/newlib/machine/_default_types.h"
 3002              		.file 3 "/usr/include/newlib/sys/_stdint.h"
 3003              		.file 4 "/home/torbjorn/eclipse-workspace/CoreNG/asf/thirdparty/CMSIS/Include/core_cm7.h"
 3004              		.file 5 "/home/torbjorn/eclipse-workspace/CoreNG/variants/same70/system_same70.h"
 3005              		.file 6 "/home/torbjorn/eclipse-workspace/CoreNG/asf/sam/utils/cmsis/same70/include/component/pio.
 3006              		.file 7 "/usr/include/newlib/sys/lock.h"
 3007              		.file 8 "/usr/include/newlib/sys/_types.h"
 3008              		.file 9 "/usr/lib/gcc/arm-none-eabi/6.3.1/include/stddef.h"
 3009              		.file 10 "/usr/include/newlib/sys/reent.h"
 3010              		.file 11 "/usr/include/newlib/stdlib.h"
 3011              		.file 12 "/home/torbjorn/eclipse-workspace/CoreNG/asf/common/utils/interrupt/interrupt_sam_nvic.h"
 3012              		.file 13 "../asf/sam/drivers/pio/pio.h"