ARM GAS  /tmp/ccTYR2Ee.s 			page 1


   1              		.cpu cortex-m7
   2              		.eabi_attribute 28, 1
   3              		.eabi_attribute 20, 1
   4              		.eabi_attribute 21, 1
   5              		.eabi_attribute 23, 3
   6              		.eabi_attribute 24, 1
   7              		.eabi_attribute 25, 1
   8              		.eabi_attribute 26, 1
   9              		.eabi_attribute 30, 2
  10              		.eabi_attribute 34, 1
  11              		.eabi_attribute 18, 4
  12              		.file	"pmc.c"
  13              		.text
  14              	.Ltext0:
  15              		.cfi_sections	.debug_frame
  16              		.section	.text.pmc_mck_set_prescaler,"ax",%progbits
  17              		.align	1
  18              		.p2align 2,,3
  19              		.global	pmc_mck_set_prescaler
  20              		.syntax unified
  21              		.thumb
  22              		.thumb_func
  23              		.fpu fpv5-d16
  24              		.type	pmc_mck_set_prescaler, %function
  25              	pmc_mck_set_prescaler:
  26              	.LFB142:
  27              		.file 1 "../asf/sam/drivers/pmc/pmc.c"
   1:../asf/sam/drivers/pmc/pmc.c **** /**
   2:../asf/sam/drivers/pmc/pmc.c ****  * \file
   3:../asf/sam/drivers/pmc/pmc.c ****  *
   4:../asf/sam/drivers/pmc/pmc.c ****  * \brief Power Management Controller (PMC) driver for SAM.
   5:../asf/sam/drivers/pmc/pmc.c ****  *
   6:../asf/sam/drivers/pmc/pmc.c ****  * Copyright (c) 2011-2016 Atmel Corporation. All rights reserved.
   7:../asf/sam/drivers/pmc/pmc.c ****  *
   8:../asf/sam/drivers/pmc/pmc.c ****  * \asf_license_start
   9:../asf/sam/drivers/pmc/pmc.c ****  *
  10:../asf/sam/drivers/pmc/pmc.c ****  * \page License
  11:../asf/sam/drivers/pmc/pmc.c ****  *
  12:../asf/sam/drivers/pmc/pmc.c ****  * Redistribution and use in source and binary forms, with or without
  13:../asf/sam/drivers/pmc/pmc.c ****  * modification, are permitted provided that the following conditions are met:
  14:../asf/sam/drivers/pmc/pmc.c ****  *
  15:../asf/sam/drivers/pmc/pmc.c ****  * 1. Redistributions of source code must retain the above copyright notice,
  16:../asf/sam/drivers/pmc/pmc.c ****  *    this list of conditions and the following disclaimer.
  17:../asf/sam/drivers/pmc/pmc.c ****  *
  18:../asf/sam/drivers/pmc/pmc.c ****  * 2. Redistributions in binary form must reproduce the above copyright notice,
  19:../asf/sam/drivers/pmc/pmc.c ****  *    this list of conditions and the following disclaimer in the documentation
  20:../asf/sam/drivers/pmc/pmc.c ****  *    and/or other materials provided with the distribution.
  21:../asf/sam/drivers/pmc/pmc.c ****  *
  22:../asf/sam/drivers/pmc/pmc.c ****  * 3. The name of Atmel may not be used to endorse or promote products derived
  23:../asf/sam/drivers/pmc/pmc.c ****  *    from this software without specific prior written permission.
  24:../asf/sam/drivers/pmc/pmc.c ****  *
  25:../asf/sam/drivers/pmc/pmc.c ****  * 4. This software may only be redistributed and used in connection with an
  26:../asf/sam/drivers/pmc/pmc.c ****  *    Atmel microcontroller product.
  27:../asf/sam/drivers/pmc/pmc.c ****  *
  28:../asf/sam/drivers/pmc/pmc.c ****  * THIS SOFTWARE IS PROVIDED BY ATMEL "AS IS" AND ANY EXPRESS OR IMPLIED
  29:../asf/sam/drivers/pmc/pmc.c ****  * WARRANTIES, INCLUDING, BUT NOT LIMITED TO, THE IMPLIED WARRANTIES OF
  30:../asf/sam/drivers/pmc/pmc.c ****  * MERCHANTABILITY, FITNESS FOR A PARTICULAR PURPOSE AND NON-INFRINGEMENT ARE
ARM GAS  /tmp/ccTYR2Ee.s 			page 2


  31:../asf/sam/drivers/pmc/pmc.c ****  * EXPRESSLY AND SPECIFICALLY DISCLAIMED. IN NO EVENT SHALL ATMEL BE LIABLE FOR
  32:../asf/sam/drivers/pmc/pmc.c ****  * ANY DIRECT, INDIRECT, INCIDENTAL, SPECIAL, EXEMPLARY, OR CONSEQUENTIAL
  33:../asf/sam/drivers/pmc/pmc.c ****  * DAMAGES (INCLUDING, BUT NOT LIMITED TO, PROCUREMENT OF SUBSTITUTE GOODS
  34:../asf/sam/drivers/pmc/pmc.c ****  * OR SERVICES; LOSS OF USE, DATA, OR PROFITS; OR BUSINESS INTERRUPTION)
  35:../asf/sam/drivers/pmc/pmc.c ****  * HOWEVER CAUSED AND ON ANY THEORY OF LIABILITY, WHETHER IN CONTRACT,
  36:../asf/sam/drivers/pmc/pmc.c ****  * STRICT LIABILITY, OR TORT (INCLUDING NEGLIGENCE OR OTHERWISE) ARISING IN
  37:../asf/sam/drivers/pmc/pmc.c ****  * ANY WAY OUT OF THE USE OF THIS SOFTWARE, EVEN IF ADVISED OF THE
  38:../asf/sam/drivers/pmc/pmc.c ****  * POSSIBILITY OF SUCH DAMAGE.
  39:../asf/sam/drivers/pmc/pmc.c ****  *
  40:../asf/sam/drivers/pmc/pmc.c ****  * \asf_license_stop
  41:../asf/sam/drivers/pmc/pmc.c ****  *
  42:../asf/sam/drivers/pmc/pmc.c ****  */
  43:../asf/sam/drivers/pmc/pmc.c **** /*
  44:../asf/sam/drivers/pmc/pmc.c ****  * Support and FAQ: visit <a href="http://www.atmel.com/design-support/">Atmel Support</a>
  45:../asf/sam/drivers/pmc/pmc.c ****  */
  46:../asf/sam/drivers/pmc/pmc.c **** 
  47:../asf/sam/drivers/pmc/pmc.c **** #include "pmc.h"
  48:../asf/sam/drivers/pmc/pmc.c **** 
  49:../asf/sam/drivers/pmc/pmc.c **** #if (SAM3N)
  50:../asf/sam/drivers/pmc/pmc.c **** # define MAX_PERIPH_ID    31
  51:../asf/sam/drivers/pmc/pmc.c **** #elif (SAM3XA)
  52:../asf/sam/drivers/pmc/pmc.c **** # define MAX_PERIPH_ID    44
  53:../asf/sam/drivers/pmc/pmc.c **** #elif (SAM3U)
  54:../asf/sam/drivers/pmc/pmc.c **** # define MAX_PERIPH_ID    29
  55:../asf/sam/drivers/pmc/pmc.c **** #elif (SAM3S || SAM4S)
  56:../asf/sam/drivers/pmc/pmc.c **** # define MAX_PERIPH_ID    34
  57:../asf/sam/drivers/pmc/pmc.c **** #elif (SAM4E)
  58:../asf/sam/drivers/pmc/pmc.c **** # define MAX_PERIPH_ID    47
  59:../asf/sam/drivers/pmc/pmc.c **** #elif (SAMV71)
  60:../asf/sam/drivers/pmc/pmc.c **** # define MAX_PERIPH_ID    63
  61:../asf/sam/drivers/pmc/pmc.c **** #elif (SAMV70)
  62:../asf/sam/drivers/pmc/pmc.c **** # define MAX_PERIPH_ID    63
  63:../asf/sam/drivers/pmc/pmc.c **** #elif (SAME70)
  64:../asf/sam/drivers/pmc/pmc.c **** # define MAX_PERIPH_ID    63
  65:../asf/sam/drivers/pmc/pmc.c **** #elif (SAMS70)
  66:../asf/sam/drivers/pmc/pmc.c **** # define MAX_PERIPH_ID    63
  67:../asf/sam/drivers/pmc/pmc.c **** #elif (SAM4N)
  68:../asf/sam/drivers/pmc/pmc.c **** # define MAX_PERIPH_ID    31
  69:../asf/sam/drivers/pmc/pmc.c **** #elif (SAM4C || SAM4CM || SAM4CP)
  70:../asf/sam/drivers/pmc/pmc.c **** # define MAX_PERIPH_ID    43
  71:../asf/sam/drivers/pmc/pmc.c **** #elif (SAMG51)
  72:../asf/sam/drivers/pmc/pmc.c **** # define MAX_PERIPH_ID    47
  73:../asf/sam/drivers/pmc/pmc.c **** #elif (SAMG53)
  74:../asf/sam/drivers/pmc/pmc.c **** # define MAX_PERIPH_ID    47
  75:../asf/sam/drivers/pmc/pmc.c **** #elif (SAMG54)
  76:../asf/sam/drivers/pmc/pmc.c **** # define MAX_PERIPH_ID    47
  77:../asf/sam/drivers/pmc/pmc.c **** #elif (SAMG55)
  78:../asf/sam/drivers/pmc/pmc.c **** # define MAX_PERIPH_ID    50
  79:../asf/sam/drivers/pmc/pmc.c **** #endif
  80:../asf/sam/drivers/pmc/pmc.c **** 
  81:../asf/sam/drivers/pmc/pmc.c **** /// @cond 0
  82:../asf/sam/drivers/pmc/pmc.c **** /**INDENT-OFF**/
  83:../asf/sam/drivers/pmc/pmc.c **** #ifdef __cplusplus
  84:../asf/sam/drivers/pmc/pmc.c **** extern "C" {
  85:../asf/sam/drivers/pmc/pmc.c **** #endif
  86:../asf/sam/drivers/pmc/pmc.c **** /**INDENT-ON**/
  87:../asf/sam/drivers/pmc/pmc.c **** /// @endcond
ARM GAS  /tmp/ccTYR2Ee.s 			page 3


  88:../asf/sam/drivers/pmc/pmc.c **** 
  89:../asf/sam/drivers/pmc/pmc.c **** /**
  90:../asf/sam/drivers/pmc/pmc.c ****  * \defgroup sam_drivers_pmc_group Power Management Controller (PMC)
  91:../asf/sam/drivers/pmc/pmc.c ****  *
  92:../asf/sam/drivers/pmc/pmc.c ****  * \par Purpose
  93:../asf/sam/drivers/pmc/pmc.c ****  *
  94:../asf/sam/drivers/pmc/pmc.c ****  * The Power Management Controller (PMC) optimizes power consumption by
  95:../asf/sam/drivers/pmc/pmc.c ****  * controlling all system and user peripheral clocks. The PMC enables/disables
  96:../asf/sam/drivers/pmc/pmc.c ****  * the clock inputs to many of the peripherals and the Cortex-M Processor.
  97:../asf/sam/drivers/pmc/pmc.c ****  *
  98:../asf/sam/drivers/pmc/pmc.c ****  * @{
  99:../asf/sam/drivers/pmc/pmc.c ****  */
 100:../asf/sam/drivers/pmc/pmc.c **** 
 101:../asf/sam/drivers/pmc/pmc.c **** /**
 102:../asf/sam/drivers/pmc/pmc.c ****  * \brief Set the prescaler of the MCK.
 103:../asf/sam/drivers/pmc/pmc.c ****  *
 104:../asf/sam/drivers/pmc/pmc.c ****  * \param ul_pres Prescaler value.
 105:../asf/sam/drivers/pmc/pmc.c ****  */
 106:../asf/sam/drivers/pmc/pmc.c **** void pmc_mck_set_prescaler(uint32_t ul_pres)
 107:../asf/sam/drivers/pmc/pmc.c **** {
  28              		.loc 1 107 0
  29              		.cfi_startproc
  30              		@ args = 0, pretend = 0, frame = 0
  31              		@ frame_needed = 0, uses_anonymous_args = 0
  32              		@ link register save eliminated.
  33              	.LVL0:
 108:../asf/sam/drivers/pmc/pmc.c **** 	PMC->PMC_MCKR =
 109:../asf/sam/drivers/pmc/pmc.c **** 			(PMC->PMC_MCKR & (~PMC_MCKR_PRES_Msk)) | ul_pres;
  34              		.loc 1 109 0
  35 0000 0549     		ldr	r1, .L6
  36 0002 0B6B     		ldr	r3, [r1, #48]
 110:../asf/sam/drivers/pmc/pmc.c **** 	while (!(PMC->PMC_SR & PMC_SR_MCKRDY));
  37              		.loc 1 110 0
  38 0004 0A46     		mov	r2, r1
 109:../asf/sam/drivers/pmc/pmc.c **** 	while (!(PMC->PMC_SR & PMC_SR_MCKRDY));
  39              		.loc 1 109 0
  40 0006 23F07003 		bic	r3, r3, #112
  41 000a 1843     		orrs	r0, r0, r3
  42              	.LVL1:
 108:../asf/sam/drivers/pmc/pmc.c **** 	PMC->PMC_MCKR =
  43              		.loc 1 108 0
  44 000c 0863     		str	r0, [r1, #48]
  45              	.L2:
  46              		.loc 1 110 0 discriminator 1
  47 000e 936E     		ldr	r3, [r2, #104]
  48 0010 1B07     		lsls	r3, r3, #28
  49 0012 FCD5     		bpl	.L2
 111:../asf/sam/drivers/pmc/pmc.c **** }
  50              		.loc 1 111 0
  51 0014 7047     		bx	lr
  52              	.L7:
  53 0016 00BF     		.align	2
  54              	.L6:
  55 0018 00060E40 		.word	1074660864
  56              		.cfi_endproc
  57              	.LFE142:
  58              		.size	pmc_mck_set_prescaler, .-pmc_mck_set_prescaler
ARM GAS  /tmp/ccTYR2Ee.s 			page 4


  59              		.section	.text.pmc_mck_set_division,"ax",%progbits
  60              		.align	1
  61              		.p2align 2,,3
  62              		.global	pmc_mck_set_division
  63              		.syntax unified
  64              		.thumb
  65              		.thumb_func
  66              		.fpu fpv5-d16
  67              		.type	pmc_mck_set_division, %function
  68              	pmc_mck_set_division:
  69              	.LFB143:
 112:../asf/sam/drivers/pmc/pmc.c **** 
 113:../asf/sam/drivers/pmc/pmc.c **** #if SAMV71 || SAMV70 || SAME70 || SAMS70
 114:../asf/sam/drivers/pmc/pmc.c **** /**
 115:../asf/sam/drivers/pmc/pmc.c ****  * \brief Set the division of the MCK.
 116:../asf/sam/drivers/pmc/pmc.c ****  *
 117:../asf/sam/drivers/pmc/pmc.c ****  * \param ul_div Division value.
 118:../asf/sam/drivers/pmc/pmc.c ****  */
 119:../asf/sam/drivers/pmc/pmc.c **** void pmc_mck_set_division(uint32_t ul_div)
 120:../asf/sam/drivers/pmc/pmc.c **** {
  70              		.loc 1 120 0
  71              		.cfi_startproc
  72              		@ args = 0, pretend = 0, frame = 0
  73              		@ frame_needed = 0, uses_anonymous_args = 0
  74              		@ link register save eliminated.
  75              	.LVL2:
  76 0000 0238     		subs	r0, r0, #2
  77              	.LVL3:
  78 0002 0228     		cmp	r0, #2
  79 0004 0DD8     		bhi	.L11
  80 0006 084B     		ldr	r3, .L14
  81 0008 53F82000 		ldr	r0, [r3, r0, lsl #2]
  82              	.LVL4:
  83              	.L9:
 121:../asf/sam/drivers/pmc/pmc.c **** 	switch (ul_div) {
 122:../asf/sam/drivers/pmc/pmc.c **** 		case 1:
 123:../asf/sam/drivers/pmc/pmc.c **** 			ul_div = PMC_MCKR_MDIV_EQ_PCK;
 124:../asf/sam/drivers/pmc/pmc.c **** 			break;
 125:../asf/sam/drivers/pmc/pmc.c **** 		case 2:
 126:../asf/sam/drivers/pmc/pmc.c **** 			ul_div = PMC_MCKR_MDIV_PCK_DIV2;
 127:../asf/sam/drivers/pmc/pmc.c **** 			break;
 128:../asf/sam/drivers/pmc/pmc.c **** 		case 3:
 129:../asf/sam/drivers/pmc/pmc.c **** 			ul_div = PMC_MCKR_MDIV_PCK_DIV3;
 130:../asf/sam/drivers/pmc/pmc.c **** 			break;
 131:../asf/sam/drivers/pmc/pmc.c **** 		case 4:
 132:../asf/sam/drivers/pmc/pmc.c **** 			ul_div = PMC_MCKR_MDIV_PCK_DIV4;
 133:../asf/sam/drivers/pmc/pmc.c **** 			break;
 134:../asf/sam/drivers/pmc/pmc.c **** 		default:
 135:../asf/sam/drivers/pmc/pmc.c **** 			ul_div = PMC_MCKR_MDIV_EQ_PCK;
 136:../asf/sam/drivers/pmc/pmc.c **** 			break;
 137:../asf/sam/drivers/pmc/pmc.c **** 	}
 138:../asf/sam/drivers/pmc/pmc.c **** 	PMC->PMC_MCKR =
 139:../asf/sam/drivers/pmc/pmc.c **** 			(PMC->PMC_MCKR & (~PMC_MCKR_MDIV_Msk)) | ul_div;
  84              		.loc 1 139 0
  85 000c 0749     		ldr	r1, .L14+4
  86 000e 0B6B     		ldr	r3, [r1, #48]
 140:../asf/sam/drivers/pmc/pmc.c **** 	while (!(PMC->PMC_SR & PMC_SR_MCKRDY));
ARM GAS  /tmp/ccTYR2Ee.s 			page 5


  87              		.loc 1 140 0
  88 0010 0A46     		mov	r2, r1
 139:../asf/sam/drivers/pmc/pmc.c **** 	while (!(PMC->PMC_SR & PMC_SR_MCKRDY));
  89              		.loc 1 139 0
  90 0012 23F44073 		bic	r3, r3, #768
  91 0016 0343     		orrs	r3, r3, r0
 138:../asf/sam/drivers/pmc/pmc.c **** 			(PMC->PMC_MCKR & (~PMC_MCKR_MDIV_Msk)) | ul_div;
  92              		.loc 1 138 0
  93 0018 0B63     		str	r3, [r1, #48]
  94              	.L10:
  95              		.loc 1 140 0 discriminator 1
  96 001a 936E     		ldr	r3, [r2, #104]
  97 001c 1B07     		lsls	r3, r3, #28
  98 001e FCD5     		bpl	.L10
 141:../asf/sam/drivers/pmc/pmc.c **** }
  99              		.loc 1 141 0
 100 0020 7047     		bx	lr
 101              	.LVL5:
 102              	.L11:
 120:../asf/sam/drivers/pmc/pmc.c **** 	switch (ul_div) {
 103              		.loc 1 120 0
 104 0022 0020     		movs	r0, #0
 105 0024 F2E7     		b	.L9
 106              	.L15:
 107 0026 00BF     		.align	2
 108              	.L14:
 109 0028 00000000 		.word	.LANCHOR0
 110 002c 00060E40 		.word	1074660864
 111              		.cfi_endproc
 112              	.LFE143:
 113              		.size	pmc_mck_set_division, .-pmc_mck_set_division
 114              		.section	.text.pmc_mck_set_source,"ax",%progbits
 115              		.align	1
 116              		.p2align 2,,3
 117              		.global	pmc_mck_set_source
 118              		.syntax unified
 119              		.thumb
 120              		.thumb_func
 121              		.fpu fpv5-d16
 122              		.type	pmc_mck_set_source, %function
 123              	pmc_mck_set_source:
 124              	.LFB144:
 142:../asf/sam/drivers/pmc/pmc.c **** #endif
 143:../asf/sam/drivers/pmc/pmc.c **** 
 144:../asf/sam/drivers/pmc/pmc.c **** /**
 145:../asf/sam/drivers/pmc/pmc.c ****  * \brief Set the source of the MCK.
 146:../asf/sam/drivers/pmc/pmc.c ****  *
 147:../asf/sam/drivers/pmc/pmc.c ****  * \param ul_source Source selection value.
 148:../asf/sam/drivers/pmc/pmc.c ****  */
 149:../asf/sam/drivers/pmc/pmc.c **** void pmc_mck_set_source(uint32_t ul_source)
 150:../asf/sam/drivers/pmc/pmc.c **** {
 125              		.loc 1 150 0
 126              		.cfi_startproc
 127              		@ args = 0, pretend = 0, frame = 0
 128              		@ frame_needed = 0, uses_anonymous_args = 0
 129              		@ link register save eliminated.
 130              	.LVL6:
ARM GAS  /tmp/ccTYR2Ee.s 			page 6


 151:../asf/sam/drivers/pmc/pmc.c **** 	PMC->PMC_MCKR =
 152:../asf/sam/drivers/pmc/pmc.c **** 			(PMC->PMC_MCKR & (~PMC_MCKR_CSS_Msk)) | ul_source;
 131              		.loc 1 152 0
 132 0000 0549     		ldr	r1, .L20
 133 0002 0B6B     		ldr	r3, [r1, #48]
 153:../asf/sam/drivers/pmc/pmc.c **** 	while (!(PMC->PMC_SR & PMC_SR_MCKRDY));
 134              		.loc 1 153 0
 135 0004 0A46     		mov	r2, r1
 152:../asf/sam/drivers/pmc/pmc.c **** 	while (!(PMC->PMC_SR & PMC_SR_MCKRDY));
 136              		.loc 1 152 0
 137 0006 23F00303 		bic	r3, r3, #3
 138 000a 1843     		orrs	r0, r0, r3
 139              	.LVL7:
 151:../asf/sam/drivers/pmc/pmc.c **** 	PMC->PMC_MCKR =
 140              		.loc 1 151 0
 141 000c 0863     		str	r0, [r1, #48]
 142              	.L17:
 143              		.loc 1 153 0 discriminator 1
 144 000e 936E     		ldr	r3, [r2, #104]
 145 0010 1B07     		lsls	r3, r3, #28
 146 0012 FCD5     		bpl	.L17
 154:../asf/sam/drivers/pmc/pmc.c **** }
 147              		.loc 1 154 0
 148 0014 7047     		bx	lr
 149              	.L21:
 150 0016 00BF     		.align	2
 151              	.L20:
 152 0018 00060E40 		.word	1074660864
 153              		.cfi_endproc
 154              	.LFE144:
 155              		.size	pmc_mck_set_source, .-pmc_mck_set_source
 156              		.section	.text.pmc_switch_mck_to_sclk,"ax",%progbits
 157              		.align	1
 158              		.p2align 2,,3
 159              		.global	pmc_switch_mck_to_sclk
 160              		.syntax unified
 161              		.thumb
 162              		.thumb_func
 163              		.fpu fpv5-d16
 164              		.type	pmc_switch_mck_to_sclk, %function
 165              	pmc_switch_mck_to_sclk:
 166              	.LFB145:
 155:../asf/sam/drivers/pmc/pmc.c **** 
 156:../asf/sam/drivers/pmc/pmc.c **** /**
 157:../asf/sam/drivers/pmc/pmc.c ****  * \brief Switch master clock source selection to slow clock.
 158:../asf/sam/drivers/pmc/pmc.c ****  *
 159:../asf/sam/drivers/pmc/pmc.c ****  * \param ul_pres Processor clock prescaler.
 160:../asf/sam/drivers/pmc/pmc.c ****  *
 161:../asf/sam/drivers/pmc/pmc.c ****  * \retval 0 Success.
 162:../asf/sam/drivers/pmc/pmc.c ****  * \retval 1 Timeout error.
 163:../asf/sam/drivers/pmc/pmc.c ****  */
 164:../asf/sam/drivers/pmc/pmc.c **** uint32_t pmc_switch_mck_to_sclk(uint32_t ul_pres)
 165:../asf/sam/drivers/pmc/pmc.c **** {
 167              		.loc 1 165 0
 168              		.cfi_startproc
 169              		@ args = 0, pretend = 0, frame = 0
 170              		@ frame_needed = 0, uses_anonymous_args = 0
ARM GAS  /tmp/ccTYR2Ee.s 			page 7


 171              		@ link register save eliminated.
 172              	.LVL8:
 166:../asf/sam/drivers/pmc/pmc.c **** 	uint32_t ul_timeout;
 167:../asf/sam/drivers/pmc/pmc.c **** 
 168:../asf/sam/drivers/pmc/pmc.c **** 	PMC->PMC_MCKR = (PMC->PMC_MCKR & (~PMC_MCKR_CSS_Msk)) |
 173              		.loc 1 168 0
 174 0000 1249     		ldr	r1, .L38
 175 0002 0B6B     		ldr	r3, [r1, #48]
 176 0004 23F00303 		bic	r3, r3, #3
 177 0008 0B63     		str	r3, [r1, #48]
 178              	.LVL9:
 169:../asf/sam/drivers/pmc/pmc.c **** 			PMC_MCKR_CSS_SLOW_CLK;
 170:../asf/sam/drivers/pmc/pmc.c **** 	for (ul_timeout = PMC_TIMEOUT; !(PMC->PMC_SR & PMC_SR_MCKRDY);
 179              		.loc 1 170 0
 180 000a 8B6E     		ldr	r3, [r1, #104]
 181 000c 1B07     		lsls	r3, r3, #28
 182 000e 07D4     		bmi	.L24
 183 0010 4FF48053 		mov	r3, #4096
 184 0014 01E0     		b	.L25
 185              	.LVL10:
 186              	.L27:
 171:../asf/sam/drivers/pmc/pmc.c **** 			--ul_timeout) {
 172:../asf/sam/drivers/pmc/pmc.c **** 		if (ul_timeout == 0) {
 187              		.loc 1 172 0
 188 0016 013B     		subs	r3, r3, #1
 189              	.LVL11:
 190 0018 15D0     		beq	.L29
 191              	.LVL12:
 192              	.L25:
 170:../asf/sam/drivers/pmc/pmc.c **** 			--ul_timeout) {
 193              		.loc 1 170 0
 194 001a 8A6E     		ldr	r2, [r1, #104]
 195 001c 1207     		lsls	r2, r2, #28
 196 001e FAD5     		bpl	.L27
 197              	.LVL13:
 198              	.L24:
 173:../asf/sam/drivers/pmc/pmc.c **** 			return 1;
 174:../asf/sam/drivers/pmc/pmc.c **** 		}
 175:../asf/sam/drivers/pmc/pmc.c **** 	}
 176:../asf/sam/drivers/pmc/pmc.c **** 
 177:../asf/sam/drivers/pmc/pmc.c **** 	PMC->PMC_MCKR = (PMC->PMC_MCKR & (~PMC_MCKR_PRES_Msk)) | ul_pres;
 199              		.loc 1 177 0
 200 0020 0A49     		ldr	r1, .L38
 201 0022 0B6B     		ldr	r3, [r1, #48]
 202 0024 23F07003 		bic	r3, r3, #112
 203 0028 1843     		orrs	r0, r0, r3
 204              	.LVL14:
 205 002a 0863     		str	r0, [r1, #48]
 206              	.LVL15:
 178:../asf/sam/drivers/pmc/pmc.c **** 	for (ul_timeout = PMC_TIMEOUT; !(PMC->PMC_SR & PMC_SR_MCKRDY);
 207              		.loc 1 178 0
 208 002c 8B6E     		ldr	r3, [r1, #104]
 209 002e 1807     		lsls	r0, r3, #28
 210 0030 07D4     		bmi	.L37
 211 0032 4FF48053 		mov	r3, #4096
 212 0036 01E0     		b	.L30
 213              	.LVL16:
ARM GAS  /tmp/ccTYR2Ee.s 			page 8


 214              	.L31:
 179:../asf/sam/drivers/pmc/pmc.c **** 			--ul_timeout) {
 180:../asf/sam/drivers/pmc/pmc.c **** 		if (ul_timeout == 0) {
 215              		.loc 1 180 0
 216 0038 013B     		subs	r3, r3, #1
 217              	.LVL17:
 218 003a 04D0     		beq	.L29
 219              	.LVL18:
 220              	.L30:
 178:../asf/sam/drivers/pmc/pmc.c **** 	for (ul_timeout = PMC_TIMEOUT; !(PMC->PMC_SR & PMC_SR_MCKRDY);
 221              		.loc 1 178 0
 222 003c 8A6E     		ldr	r2, [r1, #104]
 223 003e 1207     		lsls	r2, r2, #28
 224 0040 FAD5     		bpl	.L31
 225              	.LVL19:
 226              	.L37:
 181:../asf/sam/drivers/pmc/pmc.c **** 			return 1;
 182:../asf/sam/drivers/pmc/pmc.c **** 		}
 183:../asf/sam/drivers/pmc/pmc.c **** 	}
 184:../asf/sam/drivers/pmc/pmc.c **** 
 185:../asf/sam/drivers/pmc/pmc.c **** 	return 0;
 227              		.loc 1 185 0
 228 0042 0020     		movs	r0, #0
 186:../asf/sam/drivers/pmc/pmc.c **** }
 229              		.loc 1 186 0
 230 0044 7047     		bx	lr
 231              	.L29:
 173:../asf/sam/drivers/pmc/pmc.c **** 		}
 232              		.loc 1 173 0
 233 0046 0120     		movs	r0, #1
 234 0048 7047     		bx	lr
 235              	.L39:
 236 004a 00BF     		.align	2
 237              	.L38:
 238 004c 00060E40 		.word	1074660864
 239              		.cfi_endproc
 240              	.LFE145:
 241              		.size	pmc_switch_mck_to_sclk, .-pmc_switch_mck_to_sclk
 242              		.section	.text.pmc_switch_mck_to_mainck,"ax",%progbits
 243              		.align	1
 244              		.p2align 2,,3
 245              		.global	pmc_switch_mck_to_mainck
 246              		.syntax unified
 247              		.thumb
 248              		.thumb_func
 249              		.fpu fpv5-d16
 250              		.type	pmc_switch_mck_to_mainck, %function
 251              	pmc_switch_mck_to_mainck:
 252              	.LFB146:
 187:../asf/sam/drivers/pmc/pmc.c **** 
 188:../asf/sam/drivers/pmc/pmc.c **** /**
 189:../asf/sam/drivers/pmc/pmc.c ****  * \brief Switch master clock source selection to main clock.
 190:../asf/sam/drivers/pmc/pmc.c ****  *
 191:../asf/sam/drivers/pmc/pmc.c ****  * \param ul_pres Processor clock prescaler.
 192:../asf/sam/drivers/pmc/pmc.c ****  *
 193:../asf/sam/drivers/pmc/pmc.c ****  * \retval 0 Success.
 194:../asf/sam/drivers/pmc/pmc.c ****  * \retval 1 Timeout error.
ARM GAS  /tmp/ccTYR2Ee.s 			page 9


 195:../asf/sam/drivers/pmc/pmc.c ****  */
 196:../asf/sam/drivers/pmc/pmc.c **** uint32_t pmc_switch_mck_to_mainck(uint32_t ul_pres)
 197:../asf/sam/drivers/pmc/pmc.c **** {
 253              		.loc 1 197 0
 254              		.cfi_startproc
 255              		@ args = 0, pretend = 0, frame = 0
 256              		@ frame_needed = 0, uses_anonymous_args = 0
 257              		@ link register save eliminated.
 258              	.LVL20:
 198:../asf/sam/drivers/pmc/pmc.c **** 	uint32_t ul_timeout;
 199:../asf/sam/drivers/pmc/pmc.c **** 
 200:../asf/sam/drivers/pmc/pmc.c **** 	PMC->PMC_MCKR = (PMC->PMC_MCKR & (~PMC_MCKR_CSS_Msk)) |
 259              		.loc 1 200 0
 260 0000 1349     		ldr	r1, .L56
 261 0002 0B6B     		ldr	r3, [r1, #48]
 262 0004 23F00303 		bic	r3, r3, #3
 263 0008 43F00103 		orr	r3, r3, #1
 264 000c 0B63     		str	r3, [r1, #48]
 265              	.LVL21:
 201:../asf/sam/drivers/pmc/pmc.c **** 			PMC_MCKR_CSS_MAIN_CLK;
 202:../asf/sam/drivers/pmc/pmc.c **** 	for (ul_timeout = PMC_TIMEOUT; !(PMC->PMC_SR & PMC_SR_MCKRDY);
 266              		.loc 1 202 0
 267 000e 8B6E     		ldr	r3, [r1, #104]
 268 0010 1B07     		lsls	r3, r3, #28
 269 0012 07D4     		bmi	.L42
 270 0014 4FF48053 		mov	r3, #4096
 271 0018 01E0     		b	.L43
 272              	.LVL22:
 273              	.L45:
 203:../asf/sam/drivers/pmc/pmc.c **** 			--ul_timeout) {
 204:../asf/sam/drivers/pmc/pmc.c **** 		if (ul_timeout == 0) {
 274              		.loc 1 204 0
 275 001a 013B     		subs	r3, r3, #1
 276              	.LVL23:
 277 001c 15D0     		beq	.L47
 278              	.LVL24:
 279              	.L43:
 202:../asf/sam/drivers/pmc/pmc.c **** 			--ul_timeout) {
 280              		.loc 1 202 0
 281 001e 8A6E     		ldr	r2, [r1, #104]
 282 0020 1207     		lsls	r2, r2, #28
 283 0022 FAD5     		bpl	.L45
 284              	.LVL25:
 285              	.L42:
 205:../asf/sam/drivers/pmc/pmc.c **** 			return 1;
 206:../asf/sam/drivers/pmc/pmc.c **** 		}
 207:../asf/sam/drivers/pmc/pmc.c **** 	}
 208:../asf/sam/drivers/pmc/pmc.c **** 
 209:../asf/sam/drivers/pmc/pmc.c **** 	PMC->PMC_MCKR = (PMC->PMC_MCKR & (~PMC_MCKR_PRES_Msk)) | ul_pres;
 286              		.loc 1 209 0
 287 0024 0A49     		ldr	r1, .L56
 288 0026 0B6B     		ldr	r3, [r1, #48]
 289 0028 23F07003 		bic	r3, r3, #112
 290 002c 1843     		orrs	r0, r0, r3
 291              	.LVL26:
 292 002e 0863     		str	r0, [r1, #48]
 293              	.LVL27:
ARM GAS  /tmp/ccTYR2Ee.s 			page 10


 210:../asf/sam/drivers/pmc/pmc.c **** 	for (ul_timeout = PMC_TIMEOUT; !(PMC->PMC_SR & PMC_SR_MCKRDY);
 294              		.loc 1 210 0
 295 0030 8B6E     		ldr	r3, [r1, #104]
 296 0032 1807     		lsls	r0, r3, #28
 297 0034 07D4     		bmi	.L55
 298 0036 4FF48053 		mov	r3, #4096
 299 003a 01E0     		b	.L48
 300              	.LVL28:
 301              	.L49:
 211:../asf/sam/drivers/pmc/pmc.c **** 			--ul_timeout) {
 212:../asf/sam/drivers/pmc/pmc.c **** 		if (ul_timeout == 0) {
 302              		.loc 1 212 0
 303 003c 013B     		subs	r3, r3, #1
 304              	.LVL29:
 305 003e 04D0     		beq	.L47
 306              	.LVL30:
 307              	.L48:
 210:../asf/sam/drivers/pmc/pmc.c **** 	for (ul_timeout = PMC_TIMEOUT; !(PMC->PMC_SR & PMC_SR_MCKRDY);
 308              		.loc 1 210 0
 309 0040 8A6E     		ldr	r2, [r1, #104]
 310 0042 1207     		lsls	r2, r2, #28
 311 0044 FAD5     		bpl	.L49
 312              	.LVL31:
 313              	.L55:
 213:../asf/sam/drivers/pmc/pmc.c **** 			return 1;
 214:../asf/sam/drivers/pmc/pmc.c **** 		}
 215:../asf/sam/drivers/pmc/pmc.c **** 	}
 216:../asf/sam/drivers/pmc/pmc.c **** 
 217:../asf/sam/drivers/pmc/pmc.c **** 	return 0;
 314              		.loc 1 217 0
 315 0046 0020     		movs	r0, #0
 218:../asf/sam/drivers/pmc/pmc.c **** }
 316              		.loc 1 218 0
 317 0048 7047     		bx	lr
 318              	.L47:
 205:../asf/sam/drivers/pmc/pmc.c **** 		}
 319              		.loc 1 205 0
 320 004a 0120     		movs	r0, #1
 321 004c 7047     		bx	lr
 322              	.L57:
 323 004e 00BF     		.align	2
 324              	.L56:
 325 0050 00060E40 		.word	1074660864
 326              		.cfi_endproc
 327              	.LFE146:
 328              		.size	pmc_switch_mck_to_mainck, .-pmc_switch_mck_to_mainck
 329              		.section	.text.pmc_switch_mck_to_pllack,"ax",%progbits
 330              		.align	1
 331              		.p2align 2,,3
 332              		.global	pmc_switch_mck_to_pllack
 333              		.syntax unified
 334              		.thumb
 335              		.thumb_func
 336              		.fpu fpv5-d16
 337              		.type	pmc_switch_mck_to_pllack, %function
 338              	pmc_switch_mck_to_pllack:
 339              	.LFB147:
ARM GAS  /tmp/ccTYR2Ee.s 			page 11


 219:../asf/sam/drivers/pmc/pmc.c **** 
 220:../asf/sam/drivers/pmc/pmc.c **** /**
 221:../asf/sam/drivers/pmc/pmc.c ****  * \brief Switch master clock source selection to PLLA clock.
 222:../asf/sam/drivers/pmc/pmc.c ****  *
 223:../asf/sam/drivers/pmc/pmc.c ****  * \param ul_pres Processor clock prescaler.
 224:../asf/sam/drivers/pmc/pmc.c ****  *
 225:../asf/sam/drivers/pmc/pmc.c ****  * \retval 0 Success.
 226:../asf/sam/drivers/pmc/pmc.c ****  * \retval 1 Timeout error.
 227:../asf/sam/drivers/pmc/pmc.c ****  */
 228:../asf/sam/drivers/pmc/pmc.c **** uint32_t pmc_switch_mck_to_pllack(uint32_t ul_pres)
 229:../asf/sam/drivers/pmc/pmc.c **** {
 340              		.loc 1 229 0
 341              		.cfi_startproc
 342              		@ args = 0, pretend = 0, frame = 0
 343              		@ frame_needed = 0, uses_anonymous_args = 0
 344              		@ link register save eliminated.
 345              	.LVL32:
 230:../asf/sam/drivers/pmc/pmc.c **** 	uint32_t ul_timeout;
 231:../asf/sam/drivers/pmc/pmc.c **** 
 232:../asf/sam/drivers/pmc/pmc.c **** 	PMC->PMC_MCKR = (PMC->PMC_MCKR & (~PMC_MCKR_PRES_Msk)) | ul_pres;
 346              		.loc 1 232 0
 347 0000 1349     		ldr	r1, .L74
 348 0002 0B6B     		ldr	r3, [r1, #48]
 349 0004 23F07003 		bic	r3, r3, #112
 350 0008 1843     		orrs	r0, r0, r3
 351              	.LVL33:
 352 000a 0863     		str	r0, [r1, #48]
 353              	.LVL34:
 233:../asf/sam/drivers/pmc/pmc.c **** 	for (ul_timeout = PMC_TIMEOUT; !(PMC->PMC_SR & PMC_SR_MCKRDY);
 354              		.loc 1 233 0
 355 000c 8B6E     		ldr	r3, [r1, #104]
 356 000e 1807     		lsls	r0, r3, #28
 357 0010 07D4     		bmi	.L60
 358 0012 4FF48053 		mov	r3, #4096
 359 0016 01E0     		b	.L61
 360              	.LVL35:
 361              	.L63:
 234:../asf/sam/drivers/pmc/pmc.c **** 			--ul_timeout) {
 235:../asf/sam/drivers/pmc/pmc.c **** 		if (ul_timeout == 0) {
 362              		.loc 1 235 0
 363 0018 013B     		subs	r3, r3, #1
 364              	.LVL36:
 365 001a 16D0     		beq	.L65
 366              	.LVL37:
 367              	.L61:
 233:../asf/sam/drivers/pmc/pmc.c **** 	for (ul_timeout = PMC_TIMEOUT; !(PMC->PMC_SR & PMC_SR_MCKRDY);
 368              		.loc 1 233 0
 369 001c 8A6E     		ldr	r2, [r1, #104]
 370 001e 1207     		lsls	r2, r2, #28
 371 0020 FAD5     		bpl	.L63
 372              	.LVL38:
 373              	.L60:
 236:../asf/sam/drivers/pmc/pmc.c **** 			return 1;
 237:../asf/sam/drivers/pmc/pmc.c **** 		}
 238:../asf/sam/drivers/pmc/pmc.c **** 	}
 239:../asf/sam/drivers/pmc/pmc.c **** 
 240:../asf/sam/drivers/pmc/pmc.c **** 	PMC->PMC_MCKR = (PMC->PMC_MCKR & (~PMC_MCKR_CSS_Msk)) |
ARM GAS  /tmp/ccTYR2Ee.s 			page 12


 374              		.loc 1 240 0
 375 0022 0B49     		ldr	r1, .L74
 376 0024 0B6B     		ldr	r3, [r1, #48]
 377 0026 23F00303 		bic	r3, r3, #3
 378 002a 43F00203 		orr	r3, r3, #2
 379 002e 0B63     		str	r3, [r1, #48]
 380              	.LVL39:
 241:../asf/sam/drivers/pmc/pmc.c **** 			PMC_MCKR_CSS_PLLA_CLK;
 242:../asf/sam/drivers/pmc/pmc.c **** 
 243:../asf/sam/drivers/pmc/pmc.c **** 	for (ul_timeout = PMC_TIMEOUT; !(PMC->PMC_SR & PMC_SR_MCKRDY);
 381              		.loc 1 243 0
 382 0030 8B6E     		ldr	r3, [r1, #104]
 383 0032 1807     		lsls	r0, r3, #28
 384 0034 07D4     		bmi	.L73
 385 0036 4FF48053 		mov	r3, #4096
 386 003a 01E0     		b	.L66
 387              	.LVL40:
 388              	.L67:
 244:../asf/sam/drivers/pmc/pmc.c **** 			--ul_timeout) {
 245:../asf/sam/drivers/pmc/pmc.c **** 		if (ul_timeout == 0) {
 389              		.loc 1 245 0
 390 003c 013B     		subs	r3, r3, #1
 391              	.LVL41:
 392 003e 04D0     		beq	.L65
 393              	.LVL42:
 394              	.L66:
 243:../asf/sam/drivers/pmc/pmc.c **** 			--ul_timeout) {
 395              		.loc 1 243 0
 396 0040 8A6E     		ldr	r2, [r1, #104]
 397 0042 1207     		lsls	r2, r2, #28
 398 0044 FAD5     		bpl	.L67
 399              	.LVL43:
 400              	.L73:
 246:../asf/sam/drivers/pmc/pmc.c **** 			return 1;
 247:../asf/sam/drivers/pmc/pmc.c **** 		}
 248:../asf/sam/drivers/pmc/pmc.c **** 	}
 249:../asf/sam/drivers/pmc/pmc.c **** 
 250:../asf/sam/drivers/pmc/pmc.c **** 	return 0;
 401              		.loc 1 250 0
 402 0046 0020     		movs	r0, #0
 251:../asf/sam/drivers/pmc/pmc.c **** }
 403              		.loc 1 251 0
 404 0048 7047     		bx	lr
 405              	.L65:
 236:../asf/sam/drivers/pmc/pmc.c **** 		}
 406              		.loc 1 236 0
 407 004a 0120     		movs	r0, #1
 408 004c 7047     		bx	lr
 409              	.L75:
 410 004e 00BF     		.align	2
 411              	.L74:
 412 0050 00060E40 		.word	1074660864
 413              		.cfi_endproc
 414              	.LFE147:
 415              		.size	pmc_switch_mck_to_pllack, .-pmc_switch_mck_to_pllack
 416              		.section	.text.pmc_switch_mck_to_upllck,"ax",%progbits
 417              		.align	1
ARM GAS  /tmp/ccTYR2Ee.s 			page 13


 418              		.p2align 2,,3
 419              		.global	pmc_switch_mck_to_upllck
 420              		.syntax unified
 421              		.thumb
 422              		.thumb_func
 423              		.fpu fpv5-d16
 424              		.type	pmc_switch_mck_to_upllck, %function
 425              	pmc_switch_mck_to_upllck:
 426              	.LFB148:
 252:../asf/sam/drivers/pmc/pmc.c **** 
 253:../asf/sam/drivers/pmc/pmc.c **** #if (SAM3S || SAM4S || SAM4C || SAM4CM || SAM4CP || SAMG55)
 254:../asf/sam/drivers/pmc/pmc.c **** /**
 255:../asf/sam/drivers/pmc/pmc.c ****  * \brief Switch master clock source selection to PLLB clock.
 256:../asf/sam/drivers/pmc/pmc.c ****  *
 257:../asf/sam/drivers/pmc/pmc.c ****  * \param ul_pres Processor clock prescaler.
 258:../asf/sam/drivers/pmc/pmc.c ****  *
 259:../asf/sam/drivers/pmc/pmc.c ****  * \retval 0 Success.
 260:../asf/sam/drivers/pmc/pmc.c ****  * \retval 1 Timeout error.
 261:../asf/sam/drivers/pmc/pmc.c ****  */
 262:../asf/sam/drivers/pmc/pmc.c **** uint32_t pmc_switch_mck_to_pllbck(uint32_t ul_pres)
 263:../asf/sam/drivers/pmc/pmc.c **** {
 264:../asf/sam/drivers/pmc/pmc.c **** 	uint32_t ul_timeout;
 265:../asf/sam/drivers/pmc/pmc.c **** 
 266:../asf/sam/drivers/pmc/pmc.c **** 	PMC->PMC_MCKR = (PMC->PMC_MCKR & (~PMC_MCKR_PRES_Msk)) | ul_pres;
 267:../asf/sam/drivers/pmc/pmc.c **** 	for (ul_timeout = PMC_TIMEOUT; !(PMC->PMC_SR & PMC_SR_MCKRDY);
 268:../asf/sam/drivers/pmc/pmc.c **** 			--ul_timeout) {
 269:../asf/sam/drivers/pmc/pmc.c **** 		if (ul_timeout == 0) {
 270:../asf/sam/drivers/pmc/pmc.c **** 			return 1;
 271:../asf/sam/drivers/pmc/pmc.c **** 		}
 272:../asf/sam/drivers/pmc/pmc.c **** 	}
 273:../asf/sam/drivers/pmc/pmc.c **** 
 274:../asf/sam/drivers/pmc/pmc.c **** 	PMC->PMC_MCKR = (PMC->PMC_MCKR & (~PMC_MCKR_CSS_Msk)) |
 275:../asf/sam/drivers/pmc/pmc.c **** 			PMC_MCKR_CSS_PLLB_CLK;
 276:../asf/sam/drivers/pmc/pmc.c **** 	for (ul_timeout = PMC_TIMEOUT; !(PMC->PMC_SR & PMC_SR_MCKRDY);
 277:../asf/sam/drivers/pmc/pmc.c **** 			--ul_timeout) {
 278:../asf/sam/drivers/pmc/pmc.c **** 		if (ul_timeout == 0) {
 279:../asf/sam/drivers/pmc/pmc.c **** 			return 1;
 280:../asf/sam/drivers/pmc/pmc.c **** 		}
 281:../asf/sam/drivers/pmc/pmc.c **** 	}
 282:../asf/sam/drivers/pmc/pmc.c **** 
 283:../asf/sam/drivers/pmc/pmc.c **** 	return 0;
 284:../asf/sam/drivers/pmc/pmc.c **** }
 285:../asf/sam/drivers/pmc/pmc.c **** #endif
 286:../asf/sam/drivers/pmc/pmc.c **** 
 287:../asf/sam/drivers/pmc/pmc.c **** #if (SAM3XA || SAM3U || SAMV71 || SAMV70 || SAME70 || SAMS70)
 288:../asf/sam/drivers/pmc/pmc.c **** /**
 289:../asf/sam/drivers/pmc/pmc.c ****  * \brief Switch master clock source selection to UPLL clock.
 290:../asf/sam/drivers/pmc/pmc.c ****  *
 291:../asf/sam/drivers/pmc/pmc.c ****  * \param ul_pres Processor clock prescaler.
 292:../asf/sam/drivers/pmc/pmc.c ****  *
 293:../asf/sam/drivers/pmc/pmc.c ****  * \retval 0 Success.
 294:../asf/sam/drivers/pmc/pmc.c ****  * \retval 1 Timeout error.
 295:../asf/sam/drivers/pmc/pmc.c ****  */
 296:../asf/sam/drivers/pmc/pmc.c **** uint32_t pmc_switch_mck_to_upllck(uint32_t ul_pres)
 297:../asf/sam/drivers/pmc/pmc.c **** {
 427              		.loc 1 297 0
 428              		.cfi_startproc
ARM GAS  /tmp/ccTYR2Ee.s 			page 14


 429              		@ args = 0, pretend = 0, frame = 0
 430              		@ frame_needed = 0, uses_anonymous_args = 0
 431              		@ link register save eliminated.
 432              	.LVL44:
 298:../asf/sam/drivers/pmc/pmc.c **** 	uint32_t ul_timeout;
 299:../asf/sam/drivers/pmc/pmc.c **** 
 300:../asf/sam/drivers/pmc/pmc.c **** 	PMC->PMC_MCKR = (PMC->PMC_MCKR & (~PMC_MCKR_PRES_Msk)) | ul_pres;
 433              		.loc 1 300 0
 434 0000 1249     		ldr	r1, .L92
 435 0002 0B6B     		ldr	r3, [r1, #48]
 436 0004 23F07003 		bic	r3, r3, #112
 437 0008 1843     		orrs	r0, r0, r3
 438              	.LVL45:
 439 000a 0863     		str	r0, [r1, #48]
 440              	.LVL46:
 301:../asf/sam/drivers/pmc/pmc.c **** 	for (ul_timeout = PMC_TIMEOUT; !(PMC->PMC_SR & PMC_SR_MCKRDY);
 441              		.loc 1 301 0
 442 000c 8B6E     		ldr	r3, [r1, #104]
 443 000e 1807     		lsls	r0, r3, #28
 444 0010 07D4     		bmi	.L78
 445 0012 4FF48053 		mov	r3, #4096
 446 0016 01E0     		b	.L79
 447              	.LVL47:
 448              	.L81:
 302:../asf/sam/drivers/pmc/pmc.c **** 			--ul_timeout) {
 303:../asf/sam/drivers/pmc/pmc.c **** 		if (ul_timeout == 0) {
 449              		.loc 1 303 0
 450 0018 013B     		subs	r3, r3, #1
 451              	.LVL48:
 452 001a 14D0     		beq	.L83
 453              	.LVL49:
 454              	.L79:
 301:../asf/sam/drivers/pmc/pmc.c **** 	for (ul_timeout = PMC_TIMEOUT; !(PMC->PMC_SR & PMC_SR_MCKRDY);
 455              		.loc 1 301 0
 456 001c 8A6E     		ldr	r2, [r1, #104]
 457 001e 1207     		lsls	r2, r2, #28
 458 0020 FAD5     		bpl	.L81
 459              	.LVL50:
 460              	.L78:
 304:../asf/sam/drivers/pmc/pmc.c **** 			return 1;
 305:../asf/sam/drivers/pmc/pmc.c **** 		}
 306:../asf/sam/drivers/pmc/pmc.c **** 	}
 307:../asf/sam/drivers/pmc/pmc.c **** 
 308:../asf/sam/drivers/pmc/pmc.c **** 	PMC->PMC_MCKR = (PMC->PMC_MCKR & (~PMC_MCKR_CSS_Msk)) |
 461              		.loc 1 308 0
 462 0022 0A49     		ldr	r1, .L92
 463 0024 0B6B     		ldr	r3, [r1, #48]
 464 0026 43F00303 		orr	r3, r3, #3
 465 002a 0B63     		str	r3, [r1, #48]
 466              	.LVL51:
 309:../asf/sam/drivers/pmc/pmc.c **** 			PMC_MCKR_CSS_UPLL_CLK;
 310:../asf/sam/drivers/pmc/pmc.c **** 	for (ul_timeout = PMC_TIMEOUT; !(PMC->PMC_SR & PMC_SR_MCKRDY);
 467              		.loc 1 310 0
 468 002c 8B6E     		ldr	r3, [r1, #104]
 469 002e 1807     		lsls	r0, r3, #28
 470 0030 07D4     		bmi	.L91
 471 0032 4FF48053 		mov	r3, #4096
ARM GAS  /tmp/ccTYR2Ee.s 			page 15


 472 0036 01E0     		b	.L84
 473              	.LVL52:
 474              	.L85:
 311:../asf/sam/drivers/pmc/pmc.c **** 			--ul_timeout) {
 312:../asf/sam/drivers/pmc/pmc.c **** 		if (ul_timeout == 0) {
 475              		.loc 1 312 0
 476 0038 013B     		subs	r3, r3, #1
 477              	.LVL53:
 478 003a 04D0     		beq	.L83
 479              	.LVL54:
 480              	.L84:
 310:../asf/sam/drivers/pmc/pmc.c **** 			--ul_timeout) {
 481              		.loc 1 310 0
 482 003c 8A6E     		ldr	r2, [r1, #104]
 483 003e 1207     		lsls	r2, r2, #28
 484 0040 FAD5     		bpl	.L85
 485              	.LVL55:
 486              	.L91:
 313:../asf/sam/drivers/pmc/pmc.c **** 			return 1;
 314:../asf/sam/drivers/pmc/pmc.c **** 		}
 315:../asf/sam/drivers/pmc/pmc.c **** 	}
 316:../asf/sam/drivers/pmc/pmc.c **** 
 317:../asf/sam/drivers/pmc/pmc.c **** 	return 0;
 487              		.loc 1 317 0
 488 0042 0020     		movs	r0, #0
 318:../asf/sam/drivers/pmc/pmc.c **** }
 489              		.loc 1 318 0
 490 0044 7047     		bx	lr
 491              	.L83:
 304:../asf/sam/drivers/pmc/pmc.c **** 		}
 492              		.loc 1 304 0
 493 0046 0120     		movs	r0, #1
 494 0048 7047     		bx	lr
 495              	.L93:
 496 004a 00BF     		.align	2
 497              	.L92:
 498 004c 00060E40 		.word	1074660864
 499              		.cfi_endproc
 500              	.LFE148:
 501              		.size	pmc_switch_mck_to_upllck, .-pmc_switch_mck_to_upllck
 502              		.section	.text.pmc_switch_sclk_to_32kxtal,"ax",%progbits
 503              		.align	1
 504              		.p2align 2,,3
 505              		.global	pmc_switch_sclk_to_32kxtal
 506              		.syntax unified
 507              		.thumb
 508              		.thumb_func
 509              		.fpu fpv5-d16
 510              		.type	pmc_switch_sclk_to_32kxtal, %function
 511              	pmc_switch_sclk_to_32kxtal:
 512              	.LFB149:
 319:../asf/sam/drivers/pmc/pmc.c **** #endif
 320:../asf/sam/drivers/pmc/pmc.c **** 
 321:../asf/sam/drivers/pmc/pmc.c **** /**
 322:../asf/sam/drivers/pmc/pmc.c ****  * \brief Switch slow clock source selection to external 32k (Xtal or Bypass).
 323:../asf/sam/drivers/pmc/pmc.c ****  *
 324:../asf/sam/drivers/pmc/pmc.c ****  * \note Switching SCLK back to 32krc is only possible by shutting down the
ARM GAS  /tmp/ccTYR2Ee.s 			page 16


 325:../asf/sam/drivers/pmc/pmc.c ****  *       VDDIO power supply.
 326:../asf/sam/drivers/pmc/pmc.c ****  *
 327:../asf/sam/drivers/pmc/pmc.c ****  * \param ul_bypass 0 for Xtal, 1 for bypass.
 328:../asf/sam/drivers/pmc/pmc.c ****  */
 329:../asf/sam/drivers/pmc/pmc.c **** void pmc_switch_sclk_to_32kxtal(uint32_t ul_bypass)
 330:../asf/sam/drivers/pmc/pmc.c **** {
 513              		.loc 1 330 0
 514              		.cfi_startproc
 515              		@ args = 0, pretend = 0, frame = 0
 516              		@ frame_needed = 0, uses_anonymous_args = 0
 517              		@ link register save eliminated.
 518              	.LVL56:
 331:../asf/sam/drivers/pmc/pmc.c **** 	/* Set Bypass mode if required */
 332:../asf/sam/drivers/pmc/pmc.c **** 	if (ul_bypass == 1) {
 519              		.loc 1 332 0
 520 0000 0128     		cmp	r0, #1
 521 0002 04D1     		bne	.L95
 333:../asf/sam/drivers/pmc/pmc.c **** 		SUPC->SUPC_MR |= SUPC_MR_KEY_PASSWD |
 522              		.loc 1 333 0
 523 0004 044A     		ldr	r2, .L96
 524 0006 054B     		ldr	r3, .L96+4
 525 0008 9168     		ldr	r1, [r2, #8]
 526 000a 0B43     		orrs	r3, r3, r1
 527 000c 9360     		str	r3, [r2, #8]
 528              	.L95:
 334:../asf/sam/drivers/pmc/pmc.c **** 			SUPC_MR_OSCBYPASS;
 335:../asf/sam/drivers/pmc/pmc.c **** 	}
 336:../asf/sam/drivers/pmc/pmc.c **** 
 337:../asf/sam/drivers/pmc/pmc.c **** 	SUPC->SUPC_CR = SUPC_CR_KEY_PASSWD | SUPC_CR_XTALSEL;
 529              		.loc 1 337 0
 530 000e 024B     		ldr	r3, .L96
 531 0010 034A     		ldr	r2, .L96+8
 532 0012 1A60     		str	r2, [r3]
 533 0014 7047     		bx	lr
 534              	.L97:
 535 0016 00BF     		.align	2
 536              	.L96:
 537 0018 10180E40 		.word	1074665488
 538 001c 000010A5 		.word	-1525678080
 539 0020 080000A5 		.word	-1526726648
 540              		.cfi_endproc
 541              	.LFE149:
 542              		.size	pmc_switch_sclk_to_32kxtal, .-pmc_switch_sclk_to_32kxtal
 543              		.section	.text.pmc_osc_is_ready_32kxtal,"ax",%progbits
 544              		.align	1
 545              		.p2align 2,,3
 546              		.global	pmc_osc_is_ready_32kxtal
 547              		.syntax unified
 548              		.thumb
 549              		.thumb_func
 550              		.fpu fpv5-d16
 551              		.type	pmc_osc_is_ready_32kxtal, %function
 552              	pmc_osc_is_ready_32kxtal:
 553              	.LFB150:
 338:../asf/sam/drivers/pmc/pmc.c **** }
 339:../asf/sam/drivers/pmc/pmc.c **** 
 340:../asf/sam/drivers/pmc/pmc.c **** /**
ARM GAS  /tmp/ccTYR2Ee.s 			page 17


 341:../asf/sam/drivers/pmc/pmc.c ****  * \brief Check if the external 32k Xtal is ready.
 342:../asf/sam/drivers/pmc/pmc.c ****  *
 343:../asf/sam/drivers/pmc/pmc.c ****  * \retval 1 External 32k Xtal is ready.
 344:../asf/sam/drivers/pmc/pmc.c ****  * \retval 0 External 32k Xtal is not ready.
 345:../asf/sam/drivers/pmc/pmc.c ****  */
 346:../asf/sam/drivers/pmc/pmc.c **** uint32_t pmc_osc_is_ready_32kxtal(void)
 347:../asf/sam/drivers/pmc/pmc.c **** {
 554              		.loc 1 347 0
 555              		.cfi_startproc
 556              		@ args = 0, pretend = 0, frame = 0
 557              		@ frame_needed = 0, uses_anonymous_args = 0
 558              		@ link register save eliminated.
 348:../asf/sam/drivers/pmc/pmc.c **** 	return ((SUPC->SUPC_SR & SUPC_SR_OSCSEL)
 559              		.loc 1 348 0
 560 0000 054B     		ldr	r3, .L101
 561 0002 5869     		ldr	r0, [r3, #20]
 349:../asf/sam/drivers/pmc/pmc.c **** 			&& (PMC->PMC_SR & PMC_SR_OSCSELS));
 562              		.loc 1 349 0
 563 0004 10F08000 		ands	r0, r0, #128
 564 0008 05D0     		beq	.L99
 565              		.loc 1 349 0 is_stmt 0 discriminator 1
 566 000a A3F59053 		sub	r3, r3, #4608
 567 000e 103B     		subs	r3, r3, #16
 568 0010 986E     		ldr	r0, [r3, #104]
 569 0012 C0F3C010 		ubfx	r0, r0, #7, #1
 570              	.L99:
 350:../asf/sam/drivers/pmc/pmc.c **** }
 571              		.loc 1 350 0 is_stmt 1 discriminator 6
 572 0016 7047     		bx	lr
 573              	.L102:
 574              		.align	2
 575              	.L101:
 576 0018 10180E40 		.word	1074665488
 577              		.cfi_endproc
 578              	.LFE150:
 579              		.size	pmc_osc_is_ready_32kxtal, .-pmc_osc_is_ready_32kxtal
 580              		.section	.text.pmc_switch_mainck_to_fastrc,"ax",%progbits
 581              		.align	1
 582              		.p2align 2,,3
 583              		.global	pmc_switch_mainck_to_fastrc
 584              		.syntax unified
 585              		.thumb
 586              		.thumb_func
 587              		.fpu fpv5-d16
 588              		.type	pmc_switch_mainck_to_fastrc, %function
 589              	pmc_switch_mainck_to_fastrc:
 590              	.LFB151:
 351:../asf/sam/drivers/pmc/pmc.c **** 
 352:../asf/sam/drivers/pmc/pmc.c **** /**
 353:../asf/sam/drivers/pmc/pmc.c ****  * \brief Switch main clock source selection to internal fast RC.
 354:../asf/sam/drivers/pmc/pmc.c ****  *
 355:../asf/sam/drivers/pmc/pmc.c ****  * \param ul_moscrcf Fast RC oscillator(4/8/12Mhz).
 356:../asf/sam/drivers/pmc/pmc.c ****  *
 357:../asf/sam/drivers/pmc/pmc.c ****  * \retval 0 Success.
 358:../asf/sam/drivers/pmc/pmc.c ****  * \retval 1 Timeout error.
 359:../asf/sam/drivers/pmc/pmc.c ****  * \retval 2 Invalid frequency.
 360:../asf/sam/drivers/pmc/pmc.c ****  */
ARM GAS  /tmp/ccTYR2Ee.s 			page 18


 361:../asf/sam/drivers/pmc/pmc.c **** void pmc_switch_mainck_to_fastrc(uint32_t ul_moscrcf)
 362:../asf/sam/drivers/pmc/pmc.c **** {
 591              		.loc 1 362 0
 592              		.cfi_startproc
 593              		@ args = 0, pretend = 0, frame = 0
 594              		@ frame_needed = 0, uses_anonymous_args = 0
 595              		@ link register save eliminated.
 596              	.LVL57:
 363:../asf/sam/drivers/pmc/pmc.c **** 	/* Enable Fast RC oscillator but DO NOT switch to RC now */
 364:../asf/sam/drivers/pmc/pmc.c **** 	PMC->CKGR_MOR |= (CKGR_MOR_KEY_PASSWD | CKGR_MOR_MOSCRCEN);
 597              		.loc 1 364 0
 598 0000 0E4A     		ldr	r2, .L111
 362:../asf/sam/drivers/pmc/pmc.c **** 	/* Enable Fast RC oscillator but DO NOT switch to RC now */
 599              		.loc 1 362 0
 600 0002 10B4     		push	{r4}
 601              		.cfi_def_cfa_offset 4
 602              		.cfi_offset 4, -4
 603              		.loc 1 364 0
 604 0004 136A     		ldr	r3, [r2, #32]
 365:../asf/sam/drivers/pmc/pmc.c **** 
 366:../asf/sam/drivers/pmc/pmc.c **** 	/* Wait the Fast RC to stabilize */
 367:../asf/sam/drivers/pmc/pmc.c **** 	while (!(PMC->PMC_SR & PMC_SR_MOSCRCS));
 605              		.loc 1 367 0
 606 0006 1146     		mov	r1, r2
 364:../asf/sam/drivers/pmc/pmc.c **** 
 607              		.loc 1 364 0
 608 0008 0D4C     		ldr	r4, .L111+4
 609 000a 1C43     		orrs	r4, r4, r3
 610 000c 1462     		str	r4, [r2, #32]
 611              	.L104:
 612              		.loc 1 367 0 discriminator 1
 613 000e 8B6E     		ldr	r3, [r1, #104]
 614 0010 9A03     		lsls	r2, r3, #14
 615 0012 FCD5     		bpl	.L104
 368:../asf/sam/drivers/pmc/pmc.c **** 
 369:../asf/sam/drivers/pmc/pmc.c **** 	/* Change Fast RC oscillator frequency */
 370:../asf/sam/drivers/pmc/pmc.c **** 	PMC->CKGR_MOR = (PMC->CKGR_MOR & ~CKGR_MOR_MOSCRCF_Msk) |
 616              		.loc 1 370 0
 617 0014 0C6A     		ldr	r4, [r1, #32]
 618 0016 0B4B     		ldr	r3, .L111+8
 371:../asf/sam/drivers/pmc/pmc.c **** 			CKGR_MOR_KEY_PASSWD | ul_moscrcf;
 372:../asf/sam/drivers/pmc/pmc.c **** 
 373:../asf/sam/drivers/pmc/pmc.c **** 	/* Wait the Fast RC to stabilize */
 374:../asf/sam/drivers/pmc/pmc.c **** 	while (!(PMC->PMC_SR & PMC_SR_MOSCRCS));
 619              		.loc 1 374 0
 620 0018 084A     		ldr	r2, .L111
 370:../asf/sam/drivers/pmc/pmc.c **** 			CKGR_MOR_KEY_PASSWD | ul_moscrcf;
 621              		.loc 1 370 0
 622 001a 2340     		ands	r3, r3, r4
 371:../asf/sam/drivers/pmc/pmc.c **** 			CKGR_MOR_KEY_PASSWD | ul_moscrcf;
 623              		.loc 1 371 0
 624 001c 43F45C13 		orr	r3, r3, #3604480
 625 0020 1843     		orrs	r0, r0, r3
 626              	.LVL58:
 370:../asf/sam/drivers/pmc/pmc.c **** 			CKGR_MOR_KEY_PASSWD | ul_moscrcf;
 627              		.loc 1 370 0
 628 0022 0862     		str	r0, [r1, #32]
ARM GAS  /tmp/ccTYR2Ee.s 			page 19


 629              	.L105:
 630              		.loc 1 374 0 discriminator 1
 631 0024 936E     		ldr	r3, [r2, #104]
 632 0026 9B03     		lsls	r3, r3, #14
 633 0028 FCD5     		bpl	.L105
 375:../asf/sam/drivers/pmc/pmc.c **** 
 376:../asf/sam/drivers/pmc/pmc.c **** 	/* Switch to Fast RC */
 377:../asf/sam/drivers/pmc/pmc.c **** 	PMC->CKGR_MOR = (PMC->CKGR_MOR & ~CKGR_MOR_MOSCSEL) |
 634              		.loc 1 377 0
 635 002a 116A     		ldr	r1, [r2, #32]
 636 002c 064B     		ldr	r3, .L111+12
 378:../asf/sam/drivers/pmc/pmc.c **** 			CKGR_MOR_KEY_PASSWD;
 379:../asf/sam/drivers/pmc/pmc.c **** }
 637              		.loc 1 379 0
 638 002e 5DF8044B 		ldr	r4, [sp], #4
 639              		.cfi_restore 4
 640              		.cfi_def_cfa_offset 0
 377:../asf/sam/drivers/pmc/pmc.c **** 			CKGR_MOR_KEY_PASSWD;
 641              		.loc 1 377 0
 642 0032 0B40     		ands	r3, r3, r1
 643 0034 43F45C13 		orr	r3, r3, #3604480
 644 0038 1362     		str	r3, [r2, #32]
 645              		.loc 1 379 0
 646 003a 7047     		bx	lr
 647              	.L112:
 648              		.align	2
 649              	.L111:
 650 003c 00060E40 		.word	1074660864
 651 0040 08003700 		.word	3604488
 652 0044 8FFFC8FF 		.word	-3604593
 653 0048 FFFFC8FE 		.word	-20381697
 654              		.cfi_endproc
 655              	.LFE151:
 656              		.size	pmc_switch_mainck_to_fastrc, .-pmc_switch_mainck_to_fastrc
 657              		.section	.text.pmc_osc_enable_fastrc,"ax",%progbits
 658              		.align	1
 659              		.p2align 2,,3
 660              		.global	pmc_osc_enable_fastrc
 661              		.syntax unified
 662              		.thumb
 663              		.thumb_func
 664              		.fpu fpv5-d16
 665              		.type	pmc_osc_enable_fastrc, %function
 666              	pmc_osc_enable_fastrc:
 667              	.LFB152:
 380:../asf/sam/drivers/pmc/pmc.c **** 
 381:../asf/sam/drivers/pmc/pmc.c **** /**
 382:../asf/sam/drivers/pmc/pmc.c ****  * \brief Enable fast RC oscillator.
 383:../asf/sam/drivers/pmc/pmc.c ****  *
 384:../asf/sam/drivers/pmc/pmc.c ****  * \param ul_rc Fast RC oscillator(4/8/12Mhz).
 385:../asf/sam/drivers/pmc/pmc.c ****  */
 386:../asf/sam/drivers/pmc/pmc.c **** void pmc_osc_enable_fastrc(uint32_t ul_rc)
 387:../asf/sam/drivers/pmc/pmc.c **** {
 668              		.loc 1 387 0
 669              		.cfi_startproc
 670              		@ args = 0, pretend = 0, frame = 0
 671              		@ frame_needed = 0, uses_anonymous_args = 0
ARM GAS  /tmp/ccTYR2Ee.s 			page 20


 672              		@ link register save eliminated.
 673              	.LVL59:
 388:../asf/sam/drivers/pmc/pmc.c **** 	/* Enable Fast RC oscillator but DO NOT switch to RC */
 389:../asf/sam/drivers/pmc/pmc.c **** 	PMC->CKGR_MOR |= (CKGR_MOR_KEY_PASSWD | CKGR_MOR_MOSCRCEN);
 674              		.loc 1 389 0
 675 0000 0B49     		ldr	r1, .L121
 387:../asf/sam/drivers/pmc/pmc.c **** 	/* Enable Fast RC oscillator but DO NOT switch to RC */
 676              		.loc 1 387 0
 677 0002 10B4     		push	{r4}
 678              		.cfi_def_cfa_offset 4
 679              		.cfi_offset 4, -4
 680              		.loc 1 389 0
 681 0004 0B6A     		ldr	r3, [r1, #32]
 390:../asf/sam/drivers/pmc/pmc.c **** 	/* Wait the Fast RC to stabilize */
 391:../asf/sam/drivers/pmc/pmc.c **** 	while (!(PMC->PMC_SR & PMC_SR_MOSCRCS));
 682              		.loc 1 391 0
 683 0006 0A46     		mov	r2, r1
 389:../asf/sam/drivers/pmc/pmc.c **** 	/* Wait the Fast RC to stabilize */
 684              		.loc 1 389 0
 685 0008 0A4C     		ldr	r4, .L121+4
 686 000a 1C43     		orrs	r4, r4, r3
 687 000c 0C62     		str	r4, [r1, #32]
 688              	.L114:
 689              		.loc 1 391 0 discriminator 1
 690 000e 936E     		ldr	r3, [r2, #104]
 691 0010 9903     		lsls	r1, r3, #14
 692 0012 FCD5     		bpl	.L114
 392:../asf/sam/drivers/pmc/pmc.c **** 
 393:../asf/sam/drivers/pmc/pmc.c **** 	/* Change Fast RC oscillator frequency */
 394:../asf/sam/drivers/pmc/pmc.c **** 	PMC->CKGR_MOR = (PMC->CKGR_MOR & ~CKGR_MOR_MOSCRCF_Msk) |
 693              		.loc 1 394 0
 694 0014 146A     		ldr	r4, [r2, #32]
 695 0016 084B     		ldr	r3, .L121+8
 395:../asf/sam/drivers/pmc/pmc.c **** 			CKGR_MOR_KEY_PASSWD | ul_rc;
 396:../asf/sam/drivers/pmc/pmc.c **** 	/* Wait the Fast RC to stabilize */
 397:../asf/sam/drivers/pmc/pmc.c **** 	while (!(PMC->PMC_SR & PMC_SR_MOSCRCS));
 696              		.loc 1 397 0
 697 0018 0549     		ldr	r1, .L121
 394:../asf/sam/drivers/pmc/pmc.c **** 			CKGR_MOR_KEY_PASSWD | ul_rc;
 698              		.loc 1 394 0
 699 001a 2340     		ands	r3, r3, r4
 395:../asf/sam/drivers/pmc/pmc.c **** 			CKGR_MOR_KEY_PASSWD | ul_rc;
 700              		.loc 1 395 0
 701 001c 43F45C13 		orr	r3, r3, #3604480
 702 0020 1843     		orrs	r0, r0, r3
 703              	.LVL60:
 394:../asf/sam/drivers/pmc/pmc.c **** 			CKGR_MOR_KEY_PASSWD | ul_rc;
 704              		.loc 1 394 0
 705 0022 1062     		str	r0, [r2, #32]
 706              	.L115:
 707              		.loc 1 397 0 discriminator 1
 708 0024 8B6E     		ldr	r3, [r1, #104]
 709 0026 9B03     		lsls	r3, r3, #14
 710 0028 FCD5     		bpl	.L115
 398:../asf/sam/drivers/pmc/pmc.c **** }
 711              		.loc 1 398 0
 712 002a 5DF8044B 		ldr	r4, [sp], #4
ARM GAS  /tmp/ccTYR2Ee.s 			page 21


 713              		.cfi_restore 4
 714              		.cfi_def_cfa_offset 0
 715 002e 7047     		bx	lr
 716              	.L122:
 717              		.align	2
 718              	.L121:
 719 0030 00060E40 		.word	1074660864
 720 0034 08003700 		.word	3604488
 721 0038 8FFFC8FF 		.word	-3604593
 722              		.cfi_endproc
 723              	.LFE152:
 724              		.size	pmc_osc_enable_fastrc, .-pmc_osc_enable_fastrc
 725              		.section	.text.pmc_osc_disable_fastrc,"ax",%progbits
 726              		.align	1
 727              		.p2align 2,,3
 728              		.global	pmc_osc_disable_fastrc
 729              		.syntax unified
 730              		.thumb
 731              		.thumb_func
 732              		.fpu fpv5-d16
 733              		.type	pmc_osc_disable_fastrc, %function
 734              	pmc_osc_disable_fastrc:
 735              	.LFB153:
 399:../asf/sam/drivers/pmc/pmc.c **** 
 400:../asf/sam/drivers/pmc/pmc.c **** /**
 401:../asf/sam/drivers/pmc/pmc.c ****  * \brief Disable the internal fast RC.
 402:../asf/sam/drivers/pmc/pmc.c ****  */
 403:../asf/sam/drivers/pmc/pmc.c **** void pmc_osc_disable_fastrc(void)
 404:../asf/sam/drivers/pmc/pmc.c **** {
 736              		.loc 1 404 0
 737              		.cfi_startproc
 738              		@ args = 0, pretend = 0, frame = 0
 739              		@ frame_needed = 0, uses_anonymous_args = 0
 740              		@ link register save eliminated.
 405:../asf/sam/drivers/pmc/pmc.c **** 	/* Disable Fast RC oscillator */
 406:../asf/sam/drivers/pmc/pmc.c **** 	PMC->CKGR_MOR = (PMC->CKGR_MOR & ~CKGR_MOR_MOSCRCEN &
 741              		.loc 1 406 0
 742 0000 034A     		ldr	r2, .L124
 407:../asf/sam/drivers/pmc/pmc.c **** 					~CKGR_MOR_MOSCRCF_Msk)
 408:../asf/sam/drivers/pmc/pmc.c **** 				| CKGR_MOR_KEY_PASSWD;
 743              		.loc 1 408 0
 744 0002 044B     		ldr	r3, .L124+4
 406:../asf/sam/drivers/pmc/pmc.c **** 					~CKGR_MOR_MOSCRCF_Msk)
 745              		.loc 1 406 0
 746 0004 116A     		ldr	r1, [r2, #32]
 747              		.loc 1 408 0
 748 0006 0B40     		ands	r3, r3, r1
 749 0008 43F45C13 		orr	r3, r3, #3604480
 406:../asf/sam/drivers/pmc/pmc.c **** 					~CKGR_MOR_MOSCRCF_Msk)
 750              		.loc 1 406 0
 751 000c 1362     		str	r3, [r2, #32]
 752 000e 7047     		bx	lr
 753              	.L125:
 754              		.align	2
 755              	.L124:
 756 0010 00060E40 		.word	1074660864
 757 0014 87FFC8FF 		.word	-3604601
ARM GAS  /tmp/ccTYR2Ee.s 			page 22


 758              		.cfi_endproc
 759              	.LFE153:
 760              		.size	pmc_osc_disable_fastrc, .-pmc_osc_disable_fastrc
 761              		.section	.text.pmc_osc_is_ready_fastrc,"ax",%progbits
 762              		.align	1
 763              		.p2align 2,,3
 764              		.global	pmc_osc_is_ready_fastrc
 765              		.syntax unified
 766              		.thumb
 767              		.thumb_func
 768              		.fpu fpv5-d16
 769              		.type	pmc_osc_is_ready_fastrc, %function
 770              	pmc_osc_is_ready_fastrc:
 771              	.LFB154:
 409:../asf/sam/drivers/pmc/pmc.c **** }
 410:../asf/sam/drivers/pmc/pmc.c **** 
 411:../asf/sam/drivers/pmc/pmc.c **** /**
 412:../asf/sam/drivers/pmc/pmc.c ****  * \brief Check if the main fastrc is ready.
 413:../asf/sam/drivers/pmc/pmc.c ****  *
 414:../asf/sam/drivers/pmc/pmc.c ****  * \retval 0 Xtal is not ready, otherwise ready.
 415:../asf/sam/drivers/pmc/pmc.c ****  */
 416:../asf/sam/drivers/pmc/pmc.c **** uint32_t pmc_osc_is_ready_fastrc(void)
 417:../asf/sam/drivers/pmc/pmc.c **** {
 772              		.loc 1 417 0
 773              		.cfi_startproc
 774              		@ args = 0, pretend = 0, frame = 0
 775              		@ frame_needed = 0, uses_anonymous_args = 0
 776              		@ link register save eliminated.
 418:../asf/sam/drivers/pmc/pmc.c **** 	return (PMC->PMC_SR & PMC_SR_MOSCRCS);
 777              		.loc 1 418 0
 778 0000 024B     		ldr	r3, .L127
 779 0002 986E     		ldr	r0, [r3, #104]
 419:../asf/sam/drivers/pmc/pmc.c **** }
 780              		.loc 1 419 0
 781 0004 00F40030 		and	r0, r0, #131072
 782 0008 7047     		bx	lr
 783              	.L128:
 784 000a 00BF     		.align	2
 785              	.L127:
 786 000c 00060E40 		.word	1074660864
 787              		.cfi_endproc
 788              	.LFE154:
 789              		.size	pmc_osc_is_ready_fastrc, .-pmc_osc_is_ready_fastrc
 790              		.section	.text.pmc_osc_enable_main_xtal,"ax",%progbits
 791              		.align	1
 792              		.p2align 2,,3
 793              		.global	pmc_osc_enable_main_xtal
 794              		.syntax unified
 795              		.thumb
 796              		.thumb_func
 797              		.fpu fpv5-d16
 798              		.type	pmc_osc_enable_main_xtal, %function
 799              	pmc_osc_enable_main_xtal:
 800              	.LFB155:
 420:../asf/sam/drivers/pmc/pmc.c **** 
 421:../asf/sam/drivers/pmc/pmc.c **** /**
 422:../asf/sam/drivers/pmc/pmc.c ****  * \brief Enable main XTAL oscillator.
ARM GAS  /tmp/ccTYR2Ee.s 			page 23


 423:../asf/sam/drivers/pmc/pmc.c ****  *
 424:../asf/sam/drivers/pmc/pmc.c ****  * \param ul_xtal_startup_time Xtal start-up time, in number of slow clocks.
 425:../asf/sam/drivers/pmc/pmc.c ****  */
 426:../asf/sam/drivers/pmc/pmc.c **** void pmc_osc_enable_main_xtal(uint32_t ul_xtal_startup_time)
 427:../asf/sam/drivers/pmc/pmc.c **** {
 801              		.loc 1 427 0
 802              		.cfi_startproc
 803              		@ args = 0, pretend = 0, frame = 0
 804              		@ frame_needed = 0, uses_anonymous_args = 0
 805              		@ link register save eliminated.
 806              	.LVL61:
 428:../asf/sam/drivers/pmc/pmc.c **** 	uint32_t mor = PMC->CKGR_MOR;
 807              		.loc 1 428 0
 808 0000 084B     		ldr	r3, .L134
 429:../asf/sam/drivers/pmc/pmc.c **** 	mor &= ~(CKGR_MOR_MOSCXTBY|CKGR_MOR_MOSCXTEN);
 430:../asf/sam/drivers/pmc/pmc.c **** 	mor |= CKGR_MOR_KEY_PASSWD | CKGR_MOR_MOSCXTEN |
 431:../asf/sam/drivers/pmc/pmc.c **** 			CKGR_MOR_MOSCXTST(ul_xtal_startup_time);
 809              		.loc 1 431 0
 810 0002 0002     		lsls	r0, r0, #8
 811              	.LVL62:
 812 0004 0849     		ldr	r1, .L134+4
 813 0006 80B2     		uxth	r0, r0
 432:../asf/sam/drivers/pmc/pmc.c **** 	PMC->CKGR_MOR = mor;
 433:../asf/sam/drivers/pmc/pmc.c **** 	/* Wait the main Xtal to stabilize */
 434:../asf/sam/drivers/pmc/pmc.c **** 	while (!(PMC->PMC_SR & PMC_SR_MOSCXTS));
 814              		.loc 1 434 0
 815 0008 1A46     		mov	r2, r3
 427:../asf/sam/drivers/pmc/pmc.c **** 	uint32_t mor = PMC->CKGR_MOR;
 816              		.loc 1 427 0
 817 000a 10B4     		push	{r4}
 818              		.cfi_def_cfa_offset 4
 819              		.cfi_offset 4, -4
 428:../asf/sam/drivers/pmc/pmc.c **** 	mor &= ~(CKGR_MOR_MOSCXTBY|CKGR_MOR_MOSCXTEN);
 820              		.loc 1 428 0
 821 000c 1C6A     		ldr	r4, [r3, #32]
 822              	.LVL63:
 429:../asf/sam/drivers/pmc/pmc.c **** 	mor |= CKGR_MOR_KEY_PASSWD | CKGR_MOR_MOSCXTEN |
 823              		.loc 1 429 0
 824 000e 24F00304 		bic	r4, r4, #3
 825              	.LVL64:
 826 0012 2143     		orrs	r1, r1, r4
 430:../asf/sam/drivers/pmc/pmc.c **** 			CKGR_MOR_MOSCXTST(ul_xtal_startup_time);
 827              		.loc 1 430 0
 828 0014 0843     		orrs	r0, r0, r1
 829              	.LVL65:
 432:../asf/sam/drivers/pmc/pmc.c **** 	/* Wait the main Xtal to stabilize */
 830              		.loc 1 432 0
 831 0016 1862     		str	r0, [r3, #32]
 832              	.L130:
 833              		.loc 1 434 0 discriminator 1
 834 0018 936E     		ldr	r3, [r2, #104]
 835 001a DB07     		lsls	r3, r3, #31
 836 001c FCD5     		bpl	.L130
 435:../asf/sam/drivers/pmc/pmc.c **** }
 837              		.loc 1 435 0
 838 001e 5DF8044B 		ldr	r4, [sp], #4
 839              		.cfi_restore 4
ARM GAS  /tmp/ccTYR2Ee.s 			page 24


 840              		.cfi_def_cfa_offset 0
 841 0022 7047     		bx	lr
 842              	.L135:
 843              		.align	2
 844              	.L134:
 845 0024 00060E40 		.word	1074660864
 846 0028 01003700 		.word	3604481
 847              		.cfi_endproc
 848              	.LFE155:
 849              		.size	pmc_osc_enable_main_xtal, .-pmc_osc_enable_main_xtal
 850              		.section	.text.pmc_osc_bypass_main_xtal,"ax",%progbits
 851              		.align	1
 852              		.p2align 2,,3
 853              		.global	pmc_osc_bypass_main_xtal
 854              		.syntax unified
 855              		.thumb
 856              		.thumb_func
 857              		.fpu fpv5-d16
 858              		.type	pmc_osc_bypass_main_xtal, %function
 859              	pmc_osc_bypass_main_xtal:
 860              	.LFB156:
 436:../asf/sam/drivers/pmc/pmc.c **** 
 437:../asf/sam/drivers/pmc/pmc.c **** /**
 438:../asf/sam/drivers/pmc/pmc.c ****  * \brief Bypass main XTAL.
 439:../asf/sam/drivers/pmc/pmc.c ****  */
 440:../asf/sam/drivers/pmc/pmc.c **** void pmc_osc_bypass_main_xtal(void)
 441:../asf/sam/drivers/pmc/pmc.c **** {
 861              		.loc 1 441 0
 862              		.cfi_startproc
 863              		@ args = 0, pretend = 0, frame = 0
 864              		@ frame_needed = 0, uses_anonymous_args = 0
 865              		@ link register save eliminated.
 442:../asf/sam/drivers/pmc/pmc.c **** 	uint32_t mor = PMC->CKGR_MOR;
 866              		.loc 1 442 0
 867 0000 0349     		ldr	r1, .L137
 443:../asf/sam/drivers/pmc/pmc.c **** 	mor &= ~(CKGR_MOR_MOSCXTBY|CKGR_MOR_MOSCXTEN);
 444:../asf/sam/drivers/pmc/pmc.c **** 	mor |= CKGR_MOR_KEY_PASSWD | CKGR_MOR_MOSCXTBY;
 868              		.loc 1 444 0
 869 0002 044B     		ldr	r3, .L137+4
 442:../asf/sam/drivers/pmc/pmc.c **** 	uint32_t mor = PMC->CKGR_MOR;
 870              		.loc 1 442 0
 871 0004 0A6A     		ldr	r2, [r1, #32]
 872              	.LVL66:
 443:../asf/sam/drivers/pmc/pmc.c **** 	mor &= ~(CKGR_MOR_MOSCXTBY|CKGR_MOR_MOSCXTEN);
 873              		.loc 1 443 0
 874 0006 22F00302 		bic	r2, r2, #3
 875              	.LVL67:
 876              		.loc 1 444 0
 877 000a 1343     		orrs	r3, r3, r2
 878              	.LVL68:
 445:../asf/sam/drivers/pmc/pmc.c **** 	/* Enable Crystal oscillator but DO NOT switch now. Keep MOSCSEL to 0 */
 446:../asf/sam/drivers/pmc/pmc.c **** 	PMC->CKGR_MOR = mor;
 879              		.loc 1 446 0
 880 000c 0B62     		str	r3, [r1, #32]
 881 000e 7047     		bx	lr
 882              	.L138:
 883              		.align	2
ARM GAS  /tmp/ccTYR2Ee.s 			page 25


 884              	.L137:
 885 0010 00060E40 		.word	1074660864
 886 0014 02003700 		.word	3604482
 887              		.cfi_endproc
 888              	.LFE156:
 889              		.size	pmc_osc_bypass_main_xtal, .-pmc_osc_bypass_main_xtal
 890              		.section	.text.pmc_osc_disable_main_xtal,"ax",%progbits
 891              		.align	1
 892              		.p2align 2,,3
 893              		.global	pmc_osc_disable_main_xtal
 894              		.syntax unified
 895              		.thumb
 896              		.thumb_func
 897              		.fpu fpv5-d16
 898              		.type	pmc_osc_disable_main_xtal, %function
 899              	pmc_osc_disable_main_xtal:
 900              	.LFB157:
 447:../asf/sam/drivers/pmc/pmc.c **** 	/* The MOSCXTS in PMC_SR is automatically set */
 448:../asf/sam/drivers/pmc/pmc.c **** }
 449:../asf/sam/drivers/pmc/pmc.c **** 
 450:../asf/sam/drivers/pmc/pmc.c **** /**
 451:../asf/sam/drivers/pmc/pmc.c ****  * \brief Disable the main Xtal.
 452:../asf/sam/drivers/pmc/pmc.c ****  */
 453:../asf/sam/drivers/pmc/pmc.c **** void pmc_osc_disable_main_xtal(void)
 454:../asf/sam/drivers/pmc/pmc.c **** {
 901              		.loc 1 454 0
 902              		.cfi_startproc
 903              		@ args = 0, pretend = 0, frame = 0
 904              		@ frame_needed = 0, uses_anonymous_args = 0
 905              		@ link register save eliminated.
 455:../asf/sam/drivers/pmc/pmc.c **** 	uint32_t mor = PMC->CKGR_MOR;
 906              		.loc 1 455 0
 907 0000 034A     		ldr	r2, .L140
 908 0002 136A     		ldr	r3, [r2, #32]
 909              	.LVL69:
 456:../asf/sam/drivers/pmc/pmc.c **** 	mor &= ~(CKGR_MOR_MOSCXTBY|CKGR_MOR_MOSCXTEN);
 910              		.loc 1 456 0
 911 0004 23F00303 		bic	r3, r3, #3
 912              	.LVL70:
 457:../asf/sam/drivers/pmc/pmc.c **** 	PMC->CKGR_MOR = CKGR_MOR_KEY_PASSWD | mor;
 913              		.loc 1 457 0
 914 0008 43F45C13 		orr	r3, r3, #3604480
 915              	.LVL71:
 916 000c 1362     		str	r3, [r2, #32]
 917 000e 7047     		bx	lr
 918              	.L141:
 919              		.align	2
 920              	.L140:
 921 0010 00060E40 		.word	1074660864
 922              		.cfi_endproc
 923              	.LFE157:
 924              		.size	pmc_osc_disable_main_xtal, .-pmc_osc_disable_main_xtal
 925              		.section	.text.pmc_osc_is_bypassed_main_xtal,"ax",%progbits
 926              		.align	1
 927              		.p2align 2,,3
 928              		.global	pmc_osc_is_bypassed_main_xtal
 929              		.syntax unified
ARM GAS  /tmp/ccTYR2Ee.s 			page 26


 930              		.thumb
 931              		.thumb_func
 932              		.fpu fpv5-d16
 933              		.type	pmc_osc_is_bypassed_main_xtal, %function
 934              	pmc_osc_is_bypassed_main_xtal:
 935              	.LFB158:
 458:../asf/sam/drivers/pmc/pmc.c **** }
 459:../asf/sam/drivers/pmc/pmc.c **** 
 460:../asf/sam/drivers/pmc/pmc.c **** /**
 461:../asf/sam/drivers/pmc/pmc.c ****  * \brief Check if the main crystal is bypassed.
 462:../asf/sam/drivers/pmc/pmc.c ****  *
 463:../asf/sam/drivers/pmc/pmc.c ****  * \retval 0 Xtal is bypassed, otherwise not.
 464:../asf/sam/drivers/pmc/pmc.c ****  */
 465:../asf/sam/drivers/pmc/pmc.c **** uint32_t pmc_osc_is_bypassed_main_xtal(void)
 466:../asf/sam/drivers/pmc/pmc.c **** {
 936              		.loc 1 466 0
 937              		.cfi_startproc
 938              		@ args = 0, pretend = 0, frame = 0
 939              		@ frame_needed = 0, uses_anonymous_args = 0
 940              		@ link register save eliminated.
 467:../asf/sam/drivers/pmc/pmc.c **** 	return (PMC->CKGR_MOR & CKGR_MOR_MOSCXTBY);
 941              		.loc 1 467 0
 942 0000 024B     		ldr	r3, .L143
 943 0002 186A     		ldr	r0, [r3, #32]
 468:../asf/sam/drivers/pmc/pmc.c **** }
 944              		.loc 1 468 0
 945 0004 00F00200 		and	r0, r0, #2
 946 0008 7047     		bx	lr
 947              	.L144:
 948 000a 00BF     		.align	2
 949              	.L143:
 950 000c 00060E40 		.word	1074660864
 951              		.cfi_endproc
 952              	.LFE158:
 953              		.size	pmc_osc_is_bypassed_main_xtal, .-pmc_osc_is_bypassed_main_xtal
 954              		.section	.text.pmc_osc_is_ready_main_xtal,"ax",%progbits
 955              		.align	1
 956              		.p2align 2,,3
 957              		.global	pmc_osc_is_ready_main_xtal
 958              		.syntax unified
 959              		.thumb
 960              		.thumb_func
 961              		.fpu fpv5-d16
 962              		.type	pmc_osc_is_ready_main_xtal, %function
 963              	pmc_osc_is_ready_main_xtal:
 964              	.LFB159:
 469:../asf/sam/drivers/pmc/pmc.c **** 
 470:../asf/sam/drivers/pmc/pmc.c **** /**
 471:../asf/sam/drivers/pmc/pmc.c ****  * \brief Check if the main crystal is ready.
 472:../asf/sam/drivers/pmc/pmc.c ****  *
 473:../asf/sam/drivers/pmc/pmc.c ****  * \note If main crystal is bypassed, it's always ready.
 474:../asf/sam/drivers/pmc/pmc.c ****  *
 475:../asf/sam/drivers/pmc/pmc.c ****  * \retval 0 main crystal is not ready, otherwise ready.
 476:../asf/sam/drivers/pmc/pmc.c ****  */
 477:../asf/sam/drivers/pmc/pmc.c **** uint32_t pmc_osc_is_ready_main_xtal(void)
 478:../asf/sam/drivers/pmc/pmc.c **** {
 965              		.loc 1 478 0
ARM GAS  /tmp/ccTYR2Ee.s 			page 27


 966              		.cfi_startproc
 967              		@ args = 0, pretend = 0, frame = 0
 968              		@ frame_needed = 0, uses_anonymous_args = 0
 969              		@ link register save eliminated.
 479:../asf/sam/drivers/pmc/pmc.c **** 	return (PMC->PMC_SR & PMC_SR_MOSCXTS);
 970              		.loc 1 479 0
 971 0000 024B     		ldr	r3, .L146
 972 0002 986E     		ldr	r0, [r3, #104]
 480:../asf/sam/drivers/pmc/pmc.c **** }
 973              		.loc 1 480 0
 974 0004 00F00100 		and	r0, r0, #1
 975 0008 7047     		bx	lr
 976              	.L147:
 977 000a 00BF     		.align	2
 978              	.L146:
 979 000c 00060E40 		.word	1074660864
 980              		.cfi_endproc
 981              	.LFE159:
 982              		.size	pmc_osc_is_ready_main_xtal, .-pmc_osc_is_ready_main_xtal
 983              		.section	.text.pmc_switch_mainck_to_xtal,"ax",%progbits
 984              		.align	1
 985              		.p2align 2,,3
 986              		.global	pmc_switch_mainck_to_xtal
 987              		.syntax unified
 988              		.thumb
 989              		.thumb_func
 990              		.fpu fpv5-d16
 991              		.type	pmc_switch_mainck_to_xtal, %function
 992              	pmc_switch_mainck_to_xtal:
 993              	.LFB160:
 481:../asf/sam/drivers/pmc/pmc.c **** 
 482:../asf/sam/drivers/pmc/pmc.c **** /**
 483:../asf/sam/drivers/pmc/pmc.c ****  * \brief Switch main clock source selection to external Xtal/Bypass.
 484:../asf/sam/drivers/pmc/pmc.c ****  *
 485:../asf/sam/drivers/pmc/pmc.c ****  * \note The function may switch MCK to SCLK if MCK source is MAINCK to avoid
 486:../asf/sam/drivers/pmc/pmc.c ****  *       any system crash.
 487:../asf/sam/drivers/pmc/pmc.c ****  *
 488:../asf/sam/drivers/pmc/pmc.c ****  * \note If used in Xtal mode, the Xtal is automatically enabled.
 489:../asf/sam/drivers/pmc/pmc.c ****  *
 490:../asf/sam/drivers/pmc/pmc.c ****  * \param ul_bypass 0 for Xtal, 1 for bypass.
 491:../asf/sam/drivers/pmc/pmc.c ****  *
 492:../asf/sam/drivers/pmc/pmc.c ****  * \retval 0 Success.
 493:../asf/sam/drivers/pmc/pmc.c ****  * \retval 1 Timeout error.
 494:../asf/sam/drivers/pmc/pmc.c ****  */
 495:../asf/sam/drivers/pmc/pmc.c **** void pmc_switch_mainck_to_xtal(uint32_t ul_bypass,
 496:../asf/sam/drivers/pmc/pmc.c **** 		uint32_t ul_xtal_startup_time)
 497:../asf/sam/drivers/pmc/pmc.c **** {
 994              		.loc 1 497 0
 995              		.cfi_startproc
 996              		@ args = 0, pretend = 0, frame = 0
 997              		@ frame_needed = 0, uses_anonymous_args = 0
 998              		@ link register save eliminated.
 999              	.LVL72:
 498:../asf/sam/drivers/pmc/pmc.c **** 	/* Enable Main Xtal oscillator */
 499:../asf/sam/drivers/pmc/pmc.c **** 	if (ul_bypass) {
 1000              		.loc 1 499 0
 1001 0000 A0B9     		cbnz	r0, .L157
ARM GAS  /tmp/ccTYR2Ee.s 			page 28


 500:../asf/sam/drivers/pmc/pmc.c **** 		PMC->CKGR_MOR = (PMC->CKGR_MOR & ~CKGR_MOR_MOSCXTEN) |
 501:../asf/sam/drivers/pmc/pmc.c **** 				CKGR_MOR_KEY_PASSWD | CKGR_MOR_MOSCXTBY |
 502:../asf/sam/drivers/pmc/pmc.c **** 				CKGR_MOR_MOSCSEL;
 503:../asf/sam/drivers/pmc/pmc.c **** 	} else {
 504:../asf/sam/drivers/pmc/pmc.c **** 		PMC->CKGR_MOR = (PMC->CKGR_MOR & ~CKGR_MOR_MOSCXTBY) |
 1002              		.loc 1 504 0
 1003 0002 0E4B     		ldr	r3, .L158
 505:../asf/sam/drivers/pmc/pmc.c **** 				CKGR_MOR_KEY_PASSWD | CKGR_MOR_MOSCXTEN |
 506:../asf/sam/drivers/pmc/pmc.c **** 				CKGR_MOR_MOSCXTST(ul_xtal_startup_time);
 1004              		.loc 1 506 0
 1005 0004 0902     		lsls	r1, r1, #8
 1006              	.LVL73:
 505:../asf/sam/drivers/pmc/pmc.c **** 				CKGR_MOR_KEY_PASSWD | CKGR_MOR_MOSCXTEN |
 1007              		.loc 1 505 0
 1008 0006 0E48     		ldr	r0, .L158+4
 1009              	.LVL74:
 1010              		.loc 1 506 0
 1011 0008 89B2     		uxth	r1, r1
 507:../asf/sam/drivers/pmc/pmc.c **** 		/* Wait the Xtal to stabilize */
 508:../asf/sam/drivers/pmc/pmc.c **** 		while (!(PMC->PMC_SR & PMC_SR_MOSCXTS));
 1012              		.loc 1 508 0
 1013 000a 1A46     		mov	r2, r3
 497:../asf/sam/drivers/pmc/pmc.c **** 	/* Enable Main Xtal oscillator */
 1014              		.loc 1 497 0
 1015 000c 30B4     		push	{r4, r5}
 1016              		.cfi_def_cfa_offset 8
 1017              		.cfi_offset 4, -8
 1018              		.cfi_offset 5, -4
 504:../asf/sam/drivers/pmc/pmc.c **** 				CKGR_MOR_KEY_PASSWD | CKGR_MOR_MOSCXTEN |
 1019              		.loc 1 504 0
 1020 000e 1D6A     		ldr	r5, [r3, #32]
 505:../asf/sam/drivers/pmc/pmc.c **** 				CKGR_MOR_MOSCXTST(ul_xtal_startup_time);
 1021              		.loc 1 505 0
 1022 0010 0C4C     		ldr	r4, .L158+8
 1023 0012 2C40     		ands	r4, r4, r5
 1024 0014 2043     		orrs	r0, r0, r4
 1025 0016 0143     		orrs	r1, r1, r0
 504:../asf/sam/drivers/pmc/pmc.c **** 				CKGR_MOR_KEY_PASSWD | CKGR_MOR_MOSCXTEN |
 1026              		.loc 1 504 0
 1027 0018 1962     		str	r1, [r3, #32]
 1028              	.L151:
 1029              		.loc 1 508 0 discriminator 1
 1030 001a 936E     		ldr	r3, [r2, #104]
 1031 001c DB07     		lsls	r3, r3, #31
 1032 001e FCD5     		bpl	.L151
 509:../asf/sam/drivers/pmc/pmc.c **** 
 510:../asf/sam/drivers/pmc/pmc.c **** 		PMC->CKGR_MOR |= CKGR_MOR_KEY_PASSWD | CKGR_MOR_MOSCSEL;
 1033              		.loc 1 510 0
 1034 0020 116A     		ldr	r1, [r2, #32]
 1035 0022 094B     		ldr	r3, .L158+12
 1036 0024 0B43     		orrs	r3, r3, r1
 511:../asf/sam/drivers/pmc/pmc.c **** 	}
 512:../asf/sam/drivers/pmc/pmc.c **** }
 1037              		.loc 1 512 0
 1038 0026 30BC     		pop	{r4, r5}
 1039              		.cfi_restore 5
 1040              		.cfi_restore 4
ARM GAS  /tmp/ccTYR2Ee.s 			page 29


 1041              		.cfi_def_cfa_offset 0
 510:../asf/sam/drivers/pmc/pmc.c **** 	}
 1042              		.loc 1 510 0
 1043 0028 1362     		str	r3, [r2, #32]
 1044              		.loc 1 512 0
 1045 002a 7047     		bx	lr
 1046              	.LVL75:
 1047              	.L157:
 500:../asf/sam/drivers/pmc/pmc.c **** 				CKGR_MOR_KEY_PASSWD | CKGR_MOR_MOSCXTBY |
 1048              		.loc 1 500 0
 1049 002c 0349     		ldr	r1, .L158
 1050              	.LVL76:
 501:../asf/sam/drivers/pmc/pmc.c **** 				CKGR_MOR_MOSCSEL;
 1051              		.loc 1 501 0
 1052 002e 074A     		ldr	r2, .L158+16
 500:../asf/sam/drivers/pmc/pmc.c **** 				CKGR_MOR_KEY_PASSWD | CKGR_MOR_MOSCXTBY |
 1053              		.loc 1 500 0
 1054 0030 086A     		ldr	r0, [r1, #32]
 1055              	.LVL77:
 501:../asf/sam/drivers/pmc/pmc.c **** 				CKGR_MOR_MOSCSEL;
 1056              		.loc 1 501 0
 1057 0032 074B     		ldr	r3, .L158+20
 1058 0034 0240     		ands	r2, r2, r0
 1059 0036 1343     		orrs	r3, r3, r2
 500:../asf/sam/drivers/pmc/pmc.c **** 				CKGR_MOR_KEY_PASSWD | CKGR_MOR_MOSCXTBY |
 1060              		.loc 1 500 0
 1061 0038 0B62     		str	r3, [r1, #32]
 1062 003a 7047     		bx	lr
 1063              	.L159:
 1064              		.align	2
 1065              	.L158:
 1066 003c 00060E40 		.word	1074660864
 1067 0040 01003700 		.word	3604481
 1068 0044 FCFFC8FF 		.word	-3604484
 1069 0048 00003701 		.word	20381696
 1070 004c FCFFC8FE 		.word	-20381700
 1071 0050 02003701 		.word	20381698
 1072              		.cfi_endproc
 1073              	.LFE160:
 1074              		.size	pmc_switch_mainck_to_xtal, .-pmc_switch_mainck_to_xtal
 1075              		.section	.text.pmc_osc_disable_xtal,"ax",%progbits
 1076              		.align	1
 1077              		.p2align 2,,3
 1078              		.global	pmc_osc_disable_xtal
 1079              		.syntax unified
 1080              		.thumb
 1081              		.thumb_func
 1082              		.fpu fpv5-d16
 1083              		.type	pmc_osc_disable_xtal, %function
 1084              	pmc_osc_disable_xtal:
 1085              	.LFB161:
 513:../asf/sam/drivers/pmc/pmc.c **** 
 514:../asf/sam/drivers/pmc/pmc.c **** /**
 515:../asf/sam/drivers/pmc/pmc.c ****  * \brief Disable the external Xtal.
 516:../asf/sam/drivers/pmc/pmc.c ****  *
 517:../asf/sam/drivers/pmc/pmc.c ****  * \param ul_bypass 0 for Xtal, 1 for bypass.
 518:../asf/sam/drivers/pmc/pmc.c ****  */
ARM GAS  /tmp/ccTYR2Ee.s 			page 30


 519:../asf/sam/drivers/pmc/pmc.c **** void pmc_osc_disable_xtal(uint32_t ul_bypass)
 520:../asf/sam/drivers/pmc/pmc.c **** {
 1086              		.loc 1 520 0
 1087              		.cfi_startproc
 1088              		@ args = 0, pretend = 0, frame = 0
 1089              		@ frame_needed = 0, uses_anonymous_args = 0
 1090              		@ link register save eliminated.
 1091              	.LVL78:
 521:../asf/sam/drivers/pmc/pmc.c **** 	/* Disable xtal oscillator */
 522:../asf/sam/drivers/pmc/pmc.c **** 	if (ul_bypass) {
 523:../asf/sam/drivers/pmc/pmc.c **** 		PMC->CKGR_MOR = (PMC->CKGR_MOR & ~CKGR_MOR_MOSCXTBY) |
 1092              		.loc 1 523 0
 1093 0000 074A     		ldr	r2, .L164
 522:../asf/sam/drivers/pmc/pmc.c **** 		PMC->CKGR_MOR = (PMC->CKGR_MOR & ~CKGR_MOR_MOSCXTBY) |
 1094              		.loc 1 522 0
 1095 0002 30B9     		cbnz	r0, .L163
 524:../asf/sam/drivers/pmc/pmc.c **** 				CKGR_MOR_KEY_PASSWD;
 525:../asf/sam/drivers/pmc/pmc.c **** 	} else {
 526:../asf/sam/drivers/pmc/pmc.c **** 		PMC->CKGR_MOR = (PMC->CKGR_MOR & ~CKGR_MOR_MOSCXTEN) |
 1096              		.loc 1 526 0
 1097 0004 116A     		ldr	r1, [r2, #32]
 1098 0006 074B     		ldr	r3, .L164+4
 1099 0008 0B40     		ands	r3, r3, r1
 1100 000a 43F45C13 		orr	r3, r3, #3604480
 1101 000e 1362     		str	r3, [r2, #32]
 1102 0010 7047     		bx	lr
 1103              	.L163:
 523:../asf/sam/drivers/pmc/pmc.c **** 				CKGR_MOR_KEY_PASSWD;
 1104              		.loc 1 523 0
 1105 0012 116A     		ldr	r1, [r2, #32]
 1106 0014 044B     		ldr	r3, .L164+8
 1107 0016 0B40     		ands	r3, r3, r1
 1108 0018 43F45C13 		orr	r3, r3, #3604480
 1109 001c 1362     		str	r3, [r2, #32]
 1110 001e 7047     		bx	lr
 1111              	.L165:
 1112              		.align	2
 1113              	.L164:
 1114 0020 00060E40 		.word	1074660864
 1115 0024 FEFFC8FF 		.word	-3604482
 1116 0028 FDFFC8FF 		.word	-3604483
 1117              		.cfi_endproc
 1118              	.LFE161:
 1119              		.size	pmc_osc_disable_xtal, .-pmc_osc_disable_xtal
 1120              		.section	.text.pmc_osc_is_ready_mainck,"ax",%progbits
 1121              		.align	1
 1122              		.p2align 2,,3
 1123              		.global	pmc_osc_is_ready_mainck
 1124              		.syntax unified
 1125              		.thumb
 1126              		.thumb_func
 1127              		.fpu fpv5-d16
 1128              		.type	pmc_osc_is_ready_mainck, %function
 1129              	pmc_osc_is_ready_mainck:
 1130              	.LFB162:
 527:../asf/sam/drivers/pmc/pmc.c **** 				CKGR_MOR_KEY_PASSWD;
 528:../asf/sam/drivers/pmc/pmc.c **** 	}
ARM GAS  /tmp/ccTYR2Ee.s 			page 31


 529:../asf/sam/drivers/pmc/pmc.c **** }
 530:../asf/sam/drivers/pmc/pmc.c **** 
 531:../asf/sam/drivers/pmc/pmc.c **** /**
 532:../asf/sam/drivers/pmc/pmc.c ****  * \brief Check if the MAINCK is ready. Depending on MOSCEL, MAINCK can be one
 533:../asf/sam/drivers/pmc/pmc.c ****  * of Xtal, bypass or internal RC.
 534:../asf/sam/drivers/pmc/pmc.c ****  *
 535:../asf/sam/drivers/pmc/pmc.c ****  * \retval 1 Xtal is ready.
 536:../asf/sam/drivers/pmc/pmc.c ****  * \retval 0 Xtal is not ready.
 537:../asf/sam/drivers/pmc/pmc.c ****  */
 538:../asf/sam/drivers/pmc/pmc.c **** uint32_t pmc_osc_is_ready_mainck(void)
 539:../asf/sam/drivers/pmc/pmc.c **** {
 1131              		.loc 1 539 0
 1132              		.cfi_startproc
 1133              		@ args = 0, pretend = 0, frame = 0
 1134              		@ frame_needed = 0, uses_anonymous_args = 0
 1135              		@ link register save eliminated.
 540:../asf/sam/drivers/pmc/pmc.c **** 	return PMC->PMC_SR & PMC_SR_MOSCSELS;
 1136              		.loc 1 540 0
 1137 0000 024B     		ldr	r3, .L167
 1138 0002 986E     		ldr	r0, [r3, #104]
 541:../asf/sam/drivers/pmc/pmc.c **** }
 1139              		.loc 1 541 0
 1140 0004 00F48030 		and	r0, r0, #65536
 1141 0008 7047     		bx	lr
 1142              	.L168:
 1143 000a 00BF     		.align	2
 1144              	.L167:
 1145 000c 00060E40 		.word	1074660864
 1146              		.cfi_endproc
 1147              	.LFE162:
 1148              		.size	pmc_osc_is_ready_mainck, .-pmc_osc_is_ready_mainck
 1149              		.section	.text.pmc_mainck_osc_select,"ax",%progbits
 1150              		.align	1
 1151              		.p2align 2,,3
 1152              		.global	pmc_mainck_osc_select
 1153              		.syntax unified
 1154              		.thumb
 1155              		.thumb_func
 1156              		.fpu fpv5-d16
 1157              		.type	pmc_mainck_osc_select, %function
 1158              	pmc_mainck_osc_select:
 1159              	.LFB163:
 542:../asf/sam/drivers/pmc/pmc.c **** 
 543:../asf/sam/drivers/pmc/pmc.c **** /**
 544:../asf/sam/drivers/pmc/pmc.c ****  * \brief Select Main Crystal or internal RC as main clock source.
 545:../asf/sam/drivers/pmc/pmc.c ****  *
 546:../asf/sam/drivers/pmc/pmc.c ****  * \note This function will not enable/disable RC or Main Crystal.
 547:../asf/sam/drivers/pmc/pmc.c ****  *
 548:../asf/sam/drivers/pmc/pmc.c ****  * \param ul_xtal_rc 0 internal RC is selected, otherwise Main Crystal.
 549:../asf/sam/drivers/pmc/pmc.c ****  */
 550:../asf/sam/drivers/pmc/pmc.c **** void pmc_mainck_osc_select(uint32_t ul_xtal_rc)
 551:../asf/sam/drivers/pmc/pmc.c **** {
 1160              		.loc 1 551 0
 1161              		.cfi_startproc
 1162              		@ args = 0, pretend = 0, frame = 0
 1163              		@ frame_needed = 0, uses_anonymous_args = 0
 1164              		@ link register save eliminated.
ARM GAS  /tmp/ccTYR2Ee.s 			page 32


 1165              	.LVL79:
 552:../asf/sam/drivers/pmc/pmc.c **** 	uint32_t mor = PMC->CKGR_MOR;
 1166              		.loc 1 552 0
 1167 0000 084B     		ldr	r3, .L173
 1168 0002 1B6A     		ldr	r3, [r3, #32]
 1169              	.LVL80:
 553:../asf/sam/drivers/pmc/pmc.c **** 	if (ul_xtal_rc) {
 1170              		.loc 1 553 0
 1171 0004 30B9     		cbnz	r0, .L172
 554:../asf/sam/drivers/pmc/pmc.c **** 		mor |=  CKGR_MOR_MOSCSEL;
 555:../asf/sam/drivers/pmc/pmc.c **** 	} else {
 556:../asf/sam/drivers/pmc/pmc.c **** 		mor &= ~CKGR_MOR_MOSCSEL;
 1172              		.loc 1 556 0
 1173 0006 23F08073 		bic	r3, r3, #16777216
 1174              	.LVL81:
 557:../asf/sam/drivers/pmc/pmc.c **** 	}
 558:../asf/sam/drivers/pmc/pmc.c **** 	PMC->CKGR_MOR = CKGR_MOR_KEY_PASSWD | mor;
 1175              		.loc 1 558 0
 1176 000a 064A     		ldr	r2, .L173
 1177 000c 43F45C13 		orr	r3, r3, #3604480
 1178              	.LVL82:
 1179 0010 1362     		str	r3, [r2, #32]
 1180 0012 7047     		bx	lr
 1181              	.LVL83:
 1182              	.L172:
 554:../asf/sam/drivers/pmc/pmc.c **** 		mor |=  CKGR_MOR_MOSCSEL;
 1183              		.loc 1 554 0
 1184 0014 43F08073 		orr	r3, r3, #16777216
 1185              	.LVL84:
 1186              		.loc 1 558 0
 1187 0018 024A     		ldr	r2, .L173
 1188 001a 43F45C13 		orr	r3, r3, #3604480
 1189              	.LVL85:
 1190 001e 1362     		str	r3, [r2, #32]
 1191 0020 7047     		bx	lr
 1192              	.L174:
 1193 0022 00BF     		.align	2
 1194              	.L173:
 1195 0024 00060E40 		.word	1074660864
 1196              		.cfi_endproc
 1197              	.LFE163:
 1198              		.size	pmc_mainck_osc_select, .-pmc_mainck_osc_select
 1199              		.section	.text.pmc_enable_pllack,"ax",%progbits
 1200              		.align	1
 1201              		.p2align 2,,3
 1202              		.global	pmc_enable_pllack
 1203              		.syntax unified
 1204              		.thumb
 1205              		.thumb_func
 1206              		.fpu fpv5-d16
 1207              		.type	pmc_enable_pllack, %function
 1208              	pmc_enable_pllack:
 1209              	.LFB164:
 559:../asf/sam/drivers/pmc/pmc.c **** }
 560:../asf/sam/drivers/pmc/pmc.c **** 
 561:../asf/sam/drivers/pmc/pmc.c **** /**
 562:../asf/sam/drivers/pmc/pmc.c ****  * \brief Enable PLLA clock.
ARM GAS  /tmp/ccTYR2Ee.s 			page 33


 563:../asf/sam/drivers/pmc/pmc.c ****  *
 564:../asf/sam/drivers/pmc/pmc.c ****  * \param mula PLLA multiplier.
 565:../asf/sam/drivers/pmc/pmc.c ****  * \param pllacount PLLA counter.
 566:../asf/sam/drivers/pmc/pmc.c ****  * \param diva Divider.
 567:../asf/sam/drivers/pmc/pmc.c ****  */
 568:../asf/sam/drivers/pmc/pmc.c **** void pmc_enable_pllack(uint32_t mula, uint32_t pllacount, uint32_t diva)
 569:../asf/sam/drivers/pmc/pmc.c **** {
 1210              		.loc 1 569 0
 1211              		.cfi_startproc
 1212              		@ args = 0, pretend = 0, frame = 0
 1213              		@ frame_needed = 0, uses_anonymous_args = 0
 1214              		@ link register save eliminated.
 1215              	.LVL86:
 570:../asf/sam/drivers/pmc/pmc.c **** 	/* first disable the PLL to unlock the lock */
 571:../asf/sam/drivers/pmc/pmc.c **** 	pmc_disable_pllack();
 572:../asf/sam/drivers/pmc/pmc.c **** 
 573:../asf/sam/drivers/pmc/pmc.c **** #if (SAM4C || SAM4CM || SAM4CP || SAMG)
 574:../asf/sam/drivers/pmc/pmc.c **** 	PMC->CKGR_PLLAR = CKGR_PLLAR_PLLAEN(diva) |
 575:../asf/sam/drivers/pmc/pmc.c **** 			CKGR_PLLAR_PLLACOUNT(pllacount) | CKGR_PLLAR_MULA(mula);
 576:../asf/sam/drivers/pmc/pmc.c **** #else
 577:../asf/sam/drivers/pmc/pmc.c **** 	PMC->CKGR_PLLAR = CKGR_PLLAR_ONE | CKGR_PLLAR_DIVA(diva) |
 578:../asf/sam/drivers/pmc/pmc.c **** 			CKGR_PLLAR_PLLACOUNT(pllacount) | CKGR_PLLAR_MULA(mula);
 1216              		.loc 1 578 0
 1217 0000 0B4B     		ldr	r3, .L180
 1218 0002 0902     		lsls	r1, r1, #8
 1219              	.LVL87:
 1220 0004 03EA0040 		and	r0, r3, r0, lsl #16
 1221              	.LVL88:
 1222              	.LBB28:
 1223              	.LBB29:
 579:../asf/sam/drivers/pmc/pmc.c **** #endif
 580:../asf/sam/drivers/pmc/pmc.c **** 	while ((PMC->PMC_SR & PMC_SR_LOCKA) == 0);
 581:../asf/sam/drivers/pmc/pmc.c **** }
 582:../asf/sam/drivers/pmc/pmc.c **** 
 583:../asf/sam/drivers/pmc/pmc.c **** /**
 584:../asf/sam/drivers/pmc/pmc.c ****  * \brief Disable PLLA clock.
 585:../asf/sam/drivers/pmc/pmc.c ****  */
 586:../asf/sam/drivers/pmc/pmc.c **** void pmc_disable_pllack(void)
 587:../asf/sam/drivers/pmc/pmc.c **** {
 588:../asf/sam/drivers/pmc/pmc.c **** #if (SAM4C || SAM4CM || SAM4CP || SAMG)
 589:../asf/sam/drivers/pmc/pmc.c **** 	PMC->CKGR_PLLAR = CKGR_PLLAR_MULA(0);
 590:../asf/sam/drivers/pmc/pmc.c **** #else
 591:../asf/sam/drivers/pmc/pmc.c **** 	PMC->CKGR_PLLAR = CKGR_PLLAR_ONE | CKGR_PLLAR_MULA(0);
 1224              		.loc 1 591 0
 1225 0008 4FF00053 		mov	r3, #536870912
 1226              	.LBE29:
 1227              	.LBE28:
 578:../asf/sam/drivers/pmc/pmc.c **** #endif
 1228              		.loc 1 578 0
 1229 000c 01F47C51 		and	r1, r1, #16128
 569:../asf/sam/drivers/pmc/pmc.c **** 	/* first disable the PLL to unlock the lock */
 1230              		.loc 1 569 0
 1231 0010 70B4     		push	{r4, r5, r6}
 1232              		.cfi_def_cfa_offset 12
 1233              		.cfi_offset 4, -12
 1234              		.cfi_offset 5, -8
 1235              		.cfi_offset 6, -4
ARM GAS  /tmp/ccTYR2Ee.s 			page 34


 577:../asf/sam/drivers/pmc/pmc.c **** 			CKGR_PLLAR_PLLACOUNT(pllacount) | CKGR_PLLAR_MULA(mula);
 1236              		.loc 1 577 0
 1237 0012 D6B2     		uxtb	r6, r2
 578:../asf/sam/drivers/pmc/pmc.c **** #endif
 1238              		.loc 1 578 0
 1239 0014 40EA0302 		orr	r2, r0, r3
 1240              	.LVL89:
 1241              	.LBB32:
 1242              	.LBB30:
 1243              		.loc 1 591 0
 1244 0018 064D     		ldr	r5, .L180+4
 1245              	.LBE30:
 1246              	.LBE32:
 578:../asf/sam/drivers/pmc/pmc.c **** #endif
 1247              		.loc 1 578 0
 1248 001a 3243     		orrs	r2, r2, r6
 580:../asf/sam/drivers/pmc/pmc.c **** }
 1249              		.loc 1 580 0
 1250 001c 2C46     		mov	r4, r5
 1251              	.LBB33:
 1252              	.LBB31:
 1253              		.loc 1 591 0
 1254 001e AB62     		str	r3, [r5, #40]
 1255              	.LBE31:
 1256              	.LBE33:
 578:../asf/sam/drivers/pmc/pmc.c **** #endif
 1257              		.loc 1 578 0
 1258 0020 0A43     		orrs	r2, r2, r1
 577:../asf/sam/drivers/pmc/pmc.c **** 			CKGR_PLLAR_PLLACOUNT(pllacount) | CKGR_PLLAR_MULA(mula);
 1259              		.loc 1 577 0
 1260 0022 AA62     		str	r2, [r5, #40]
 1261              	.L176:
 580:../asf/sam/drivers/pmc/pmc.c **** }
 1262              		.loc 1 580 0 discriminator 1
 1263 0024 A36E     		ldr	r3, [r4, #104]
 1264 0026 9B07     		lsls	r3, r3, #30
 1265 0028 FCD5     		bpl	.L176
 581:../asf/sam/drivers/pmc/pmc.c **** 
 1266              		.loc 1 581 0
 1267 002a 70BC     		pop	{r4, r5, r6}
 1268              		.cfi_restore 6
 1269              		.cfi_restore 5
 1270              		.cfi_restore 4
 1271              		.cfi_def_cfa_offset 0
 1272 002c 7047     		bx	lr
 1273              	.L181:
 1274 002e 00BF     		.align	2
 1275              	.L180:
 1276 0030 0000FF07 		.word	134152192
 1277 0034 00060E40 		.word	1074660864
 1278              		.cfi_endproc
 1279              	.LFE164:
 1280              		.size	pmc_enable_pllack, .-pmc_enable_pllack
 1281              		.section	.text.pmc_disable_pllack,"ax",%progbits
 1282              		.align	1
 1283              		.p2align 2,,3
 1284              		.global	pmc_disable_pllack
ARM GAS  /tmp/ccTYR2Ee.s 			page 35


 1285              		.syntax unified
 1286              		.thumb
 1287              		.thumb_func
 1288              		.fpu fpv5-d16
 1289              		.type	pmc_disable_pllack, %function
 1290              	pmc_disable_pllack:
 1291              	.LFB165:
 587:../asf/sam/drivers/pmc/pmc.c **** #if (SAM4C || SAM4CM || SAM4CP || SAMG)
 1292              		.loc 1 587 0
 1293              		.cfi_startproc
 1294              		@ args = 0, pretend = 0, frame = 0
 1295              		@ frame_needed = 0, uses_anonymous_args = 0
 1296              		@ link register save eliminated.
 1297              		.loc 1 591 0
 1298 0000 024B     		ldr	r3, .L183
 1299 0002 4FF00052 		mov	r2, #536870912
 1300 0006 9A62     		str	r2, [r3, #40]
 1301 0008 7047     		bx	lr
 1302              	.L184:
 1303 000a 00BF     		.align	2
 1304              	.L183:
 1305 000c 00060E40 		.word	1074660864
 1306              		.cfi_endproc
 1307              	.LFE165:
 1308              		.size	pmc_disable_pllack, .-pmc_disable_pllack
 1309              		.section	.text.pmc_is_locked_pllack,"ax",%progbits
 1310              		.align	1
 1311              		.p2align 2,,3
 1312              		.global	pmc_is_locked_pllack
 1313              		.syntax unified
 1314              		.thumb
 1315              		.thumb_func
 1316              		.fpu fpv5-d16
 1317              		.type	pmc_is_locked_pllack, %function
 1318              	pmc_is_locked_pllack:
 1319              	.LFB166:
 592:../asf/sam/drivers/pmc/pmc.c **** #endif
 593:../asf/sam/drivers/pmc/pmc.c **** }
 594:../asf/sam/drivers/pmc/pmc.c **** 
 595:../asf/sam/drivers/pmc/pmc.c **** /**
 596:../asf/sam/drivers/pmc/pmc.c ****  * \brief Is PLLA locked?
 597:../asf/sam/drivers/pmc/pmc.c ****  *
 598:../asf/sam/drivers/pmc/pmc.c ****  * \retval 0 Not locked.
 599:../asf/sam/drivers/pmc/pmc.c ****  * \retval 1 Locked.
 600:../asf/sam/drivers/pmc/pmc.c ****  */
 601:../asf/sam/drivers/pmc/pmc.c **** uint32_t pmc_is_locked_pllack(void)
 602:../asf/sam/drivers/pmc/pmc.c **** {
 1320              		.loc 1 602 0
 1321              		.cfi_startproc
 1322              		@ args = 0, pretend = 0, frame = 0
 1323              		@ frame_needed = 0, uses_anonymous_args = 0
 1324              		@ link register save eliminated.
 603:../asf/sam/drivers/pmc/pmc.c **** 	return (PMC->PMC_SR & PMC_SR_LOCKA);
 1325              		.loc 1 603 0
 1326 0000 024B     		ldr	r3, .L186
 1327 0002 986E     		ldr	r0, [r3, #104]
 604:../asf/sam/drivers/pmc/pmc.c **** }
ARM GAS  /tmp/ccTYR2Ee.s 			page 36


 1328              		.loc 1 604 0
 1329 0004 00F00200 		and	r0, r0, #2
 1330 0008 7047     		bx	lr
 1331              	.L187:
 1332 000a 00BF     		.align	2
 1333              	.L186:
 1334 000c 00060E40 		.word	1074660864
 1335              		.cfi_endproc
 1336              	.LFE166:
 1337              		.size	pmc_is_locked_pllack, .-pmc_is_locked_pllack
 1338              		.section	.text.pmc_enable_upll_clock,"ax",%progbits
 1339              		.align	1
 1340              		.p2align 2,,3
 1341              		.global	pmc_enable_upll_clock
 1342              		.syntax unified
 1343              		.thumb
 1344              		.thumb_func
 1345              		.fpu fpv5-d16
 1346              		.type	pmc_enable_upll_clock, %function
 1347              	pmc_enable_upll_clock:
 1348              	.LFB167:
 605:../asf/sam/drivers/pmc/pmc.c **** 
 606:../asf/sam/drivers/pmc/pmc.c **** #if (SAM3S || SAM4S || SAM4C || SAM4CM || SAM4CP || SAMG55)
 607:../asf/sam/drivers/pmc/pmc.c **** /**
 608:../asf/sam/drivers/pmc/pmc.c ****  * \brief Enable PLLB clock.
 609:../asf/sam/drivers/pmc/pmc.c ****  *
 610:../asf/sam/drivers/pmc/pmc.c ****  * \param mulb PLLB multiplier.
 611:../asf/sam/drivers/pmc/pmc.c ****  * \param pllbcount PLLB counter.
 612:../asf/sam/drivers/pmc/pmc.c ****  * \param divb Divider.
 613:../asf/sam/drivers/pmc/pmc.c ****  */
 614:../asf/sam/drivers/pmc/pmc.c **** void pmc_enable_pllbck(uint32_t mulb, uint32_t pllbcount, uint32_t divb)
 615:../asf/sam/drivers/pmc/pmc.c **** {
 616:../asf/sam/drivers/pmc/pmc.c **** 	/* first disable the PLL to unlock the lock */
 617:../asf/sam/drivers/pmc/pmc.c **** 	pmc_disable_pllbck();
 618:../asf/sam/drivers/pmc/pmc.c **** 
 619:../asf/sam/drivers/pmc/pmc.c **** #if SAMG55
 620:../asf/sam/drivers/pmc/pmc.c **** 	PMC->CKGR_PLLAR = CKGR_PLLAR_PLLAEN(divb) |
 621:../asf/sam/drivers/pmc/pmc.c **** 		CKGR_PLLAR_PLLACOUNT(pllbcount) | CKGR_PLLAR_MULA(mulb);
 622:../asf/sam/drivers/pmc/pmc.c **** #else
 623:../asf/sam/drivers/pmc/pmc.c **** 	PMC->CKGR_PLLBR =
 624:../asf/sam/drivers/pmc/pmc.c **** 			CKGR_PLLBR_DIVB(divb) | CKGR_PLLBR_PLLBCOUNT(pllbcount)
 625:../asf/sam/drivers/pmc/pmc.c **** 			| CKGR_PLLBR_MULB(mulb);
 626:../asf/sam/drivers/pmc/pmc.c **** #endif
 627:../asf/sam/drivers/pmc/pmc.c **** 	while ((PMC->PMC_SR & PMC_SR_LOCKB) == 0);
 628:../asf/sam/drivers/pmc/pmc.c **** }
 629:../asf/sam/drivers/pmc/pmc.c **** 
 630:../asf/sam/drivers/pmc/pmc.c **** /**
 631:../asf/sam/drivers/pmc/pmc.c ****  * \brief Disable PLLB clock.
 632:../asf/sam/drivers/pmc/pmc.c ****  */
 633:../asf/sam/drivers/pmc/pmc.c **** void pmc_disable_pllbck(void)
 634:../asf/sam/drivers/pmc/pmc.c **** {
 635:../asf/sam/drivers/pmc/pmc.c **** 	PMC->CKGR_PLLBR = CKGR_PLLBR_MULB(0);
 636:../asf/sam/drivers/pmc/pmc.c **** }
 637:../asf/sam/drivers/pmc/pmc.c **** 
 638:../asf/sam/drivers/pmc/pmc.c **** /**
 639:../asf/sam/drivers/pmc/pmc.c ****  * \brief Is PLLB locked?
 640:../asf/sam/drivers/pmc/pmc.c ****  *
ARM GAS  /tmp/ccTYR2Ee.s 			page 37


 641:../asf/sam/drivers/pmc/pmc.c ****  * \retval 0 Not locked.
 642:../asf/sam/drivers/pmc/pmc.c ****  * \retval 1 Locked.
 643:../asf/sam/drivers/pmc/pmc.c ****  */
 644:../asf/sam/drivers/pmc/pmc.c **** uint32_t pmc_is_locked_pllbck(void)
 645:../asf/sam/drivers/pmc/pmc.c **** {
 646:../asf/sam/drivers/pmc/pmc.c **** 	return (PMC->PMC_SR & PMC_SR_LOCKB);
 647:../asf/sam/drivers/pmc/pmc.c **** }
 648:../asf/sam/drivers/pmc/pmc.c **** #endif
 649:../asf/sam/drivers/pmc/pmc.c **** 
 650:../asf/sam/drivers/pmc/pmc.c **** #if (SAM3XA || SAM3U || SAMV71 || SAMV70 || SAME70 || SAMS70)
 651:../asf/sam/drivers/pmc/pmc.c **** /**
 652:../asf/sam/drivers/pmc/pmc.c ****  * \brief Enable UPLL clock.
 653:../asf/sam/drivers/pmc/pmc.c ****  */
 654:../asf/sam/drivers/pmc/pmc.c **** void pmc_enable_upll_clock(void)
 655:../asf/sam/drivers/pmc/pmc.c **** {
 1349              		.loc 1 655 0
 1350              		.cfi_startproc
 1351              		@ args = 0, pretend = 0, frame = 0
 1352              		@ frame_needed = 0, uses_anonymous_args = 0
 1353              		@ link register save eliminated.
 656:../asf/sam/drivers/pmc/pmc.c **** 	PMC->CKGR_UCKR = CKGR_UCKR_UPLLCOUNT(3) | CKGR_UCKR_UPLLEN;
 1354              		.loc 1 656 0
 1355 0000 044B     		ldr	r3, .L192
 1356 0002 4FF44411 		mov	r1, #3211264
 657:../asf/sam/drivers/pmc/pmc.c **** 
 658:../asf/sam/drivers/pmc/pmc.c **** 	/* Wait UTMI PLL Lock Status */
 659:../asf/sam/drivers/pmc/pmc.c **** 	while (!(PMC->PMC_SR & PMC_SR_LOCKU));
 1357              		.loc 1 659 0
 1358 0006 1A46     		mov	r2, r3
 656:../asf/sam/drivers/pmc/pmc.c **** 	PMC->CKGR_UCKR = CKGR_UCKR_UPLLCOUNT(3) | CKGR_UCKR_UPLLEN;
 1359              		.loc 1 656 0
 1360 0008 D961     		str	r1, [r3, #28]
 1361              	.L189:
 1362              		.loc 1 659 0 discriminator 1
 1363 000a 936E     		ldr	r3, [r2, #104]
 1364 000c 5B06     		lsls	r3, r3, #25
 1365 000e FCD5     		bpl	.L189
 660:../asf/sam/drivers/pmc/pmc.c **** }
 1366              		.loc 1 660 0
 1367 0010 7047     		bx	lr
 1368              	.L193:
 1369 0012 00BF     		.align	2
 1370              	.L192:
 1371 0014 00060E40 		.word	1074660864
 1372              		.cfi_endproc
 1373              	.LFE167:
 1374              		.size	pmc_enable_upll_clock, .-pmc_enable_upll_clock
 1375              		.section	.text.pmc_disable_upll_clock,"ax",%progbits
 1376              		.align	1
 1377              		.p2align 2,,3
 1378              		.global	pmc_disable_upll_clock
 1379              		.syntax unified
 1380              		.thumb
 1381              		.thumb_func
 1382              		.fpu fpv5-d16
 1383              		.type	pmc_disable_upll_clock, %function
 1384              	pmc_disable_upll_clock:
ARM GAS  /tmp/ccTYR2Ee.s 			page 38


 1385              	.LFB168:
 661:../asf/sam/drivers/pmc/pmc.c **** 
 662:../asf/sam/drivers/pmc/pmc.c **** /**
 663:../asf/sam/drivers/pmc/pmc.c ****  * \brief Disable UPLL clock.
 664:../asf/sam/drivers/pmc/pmc.c ****  */
 665:../asf/sam/drivers/pmc/pmc.c **** void pmc_disable_upll_clock(void)
 666:../asf/sam/drivers/pmc/pmc.c **** {
 1386              		.loc 1 666 0
 1387              		.cfi_startproc
 1388              		@ args = 0, pretend = 0, frame = 0
 1389              		@ frame_needed = 0, uses_anonymous_args = 0
 1390              		@ link register save eliminated.
 667:../asf/sam/drivers/pmc/pmc.c **** 	PMC->CKGR_UCKR &= ~CKGR_UCKR_UPLLEN;
 1391              		.loc 1 667 0
 1392 0000 024A     		ldr	r2, .L195
 1393 0002 D369     		ldr	r3, [r2, #28]
 1394 0004 23F48033 		bic	r3, r3, #65536
 1395 0008 D361     		str	r3, [r2, #28]
 1396 000a 7047     		bx	lr
 1397              	.L196:
 1398              		.align	2
 1399              	.L195:
 1400 000c 00060E40 		.word	1074660864
 1401              		.cfi_endproc
 1402              	.LFE168:
 1403              		.size	pmc_disable_upll_clock, .-pmc_disable_upll_clock
 1404              		.section	.text.pmc_is_locked_upll,"ax",%progbits
 1405              		.align	1
 1406              		.p2align 2,,3
 1407              		.global	pmc_is_locked_upll
 1408              		.syntax unified
 1409              		.thumb
 1410              		.thumb_func
 1411              		.fpu fpv5-d16
 1412              		.type	pmc_is_locked_upll, %function
 1413              	pmc_is_locked_upll:
 1414              	.LFB169:
 668:../asf/sam/drivers/pmc/pmc.c **** }
 669:../asf/sam/drivers/pmc/pmc.c **** 
 670:../asf/sam/drivers/pmc/pmc.c **** /**
 671:../asf/sam/drivers/pmc/pmc.c ****  * \brief Is UPLL locked?
 672:../asf/sam/drivers/pmc/pmc.c ****  *
 673:../asf/sam/drivers/pmc/pmc.c ****  * \retval 0 Not locked.
 674:../asf/sam/drivers/pmc/pmc.c ****  * \retval 1 Locked.
 675:../asf/sam/drivers/pmc/pmc.c ****  */
 676:../asf/sam/drivers/pmc/pmc.c **** uint32_t pmc_is_locked_upll(void)
 677:../asf/sam/drivers/pmc/pmc.c **** {
 1415              		.loc 1 677 0
 1416              		.cfi_startproc
 1417              		@ args = 0, pretend = 0, frame = 0
 1418              		@ frame_needed = 0, uses_anonymous_args = 0
 1419              		@ link register save eliminated.
 678:../asf/sam/drivers/pmc/pmc.c **** 	return (PMC->PMC_SR & PMC_SR_LOCKU);
 1420              		.loc 1 678 0
 1421 0000 024B     		ldr	r3, .L198
 1422 0002 986E     		ldr	r0, [r3, #104]
 679:../asf/sam/drivers/pmc/pmc.c **** }
ARM GAS  /tmp/ccTYR2Ee.s 			page 39


 1423              		.loc 1 679 0
 1424 0004 00F04000 		and	r0, r0, #64
 1425 0008 7047     		bx	lr
 1426              	.L199:
 1427 000a 00BF     		.align	2
 1428              	.L198:
 1429 000c 00060E40 		.word	1074660864
 1430              		.cfi_endproc
 1431              	.LFE169:
 1432              		.size	pmc_is_locked_upll, .-pmc_is_locked_upll
 1433              		.section	.text.pmc_enable_periph_clk,"ax",%progbits
 1434              		.align	1
 1435              		.p2align 2,,3
 1436              		.global	pmc_enable_periph_clk
 1437              		.syntax unified
 1438              		.thumb
 1439              		.thumb_func
 1440              		.fpu fpv5-d16
 1441              		.type	pmc_enable_periph_clk, %function
 1442              	pmc_enable_periph_clk:
 1443              	.LFB170:
 680:../asf/sam/drivers/pmc/pmc.c **** #endif
 681:../asf/sam/drivers/pmc/pmc.c **** 
 682:../asf/sam/drivers/pmc/pmc.c **** /**
 683:../asf/sam/drivers/pmc/pmc.c ****  * \brief Enable the specified peripheral clock.
 684:../asf/sam/drivers/pmc/pmc.c ****  *
 685:../asf/sam/drivers/pmc/pmc.c ****  * \note The ID must NOT be shifted (i.e., 1 << ID_xxx).
 686:../asf/sam/drivers/pmc/pmc.c ****  *
 687:../asf/sam/drivers/pmc/pmc.c ****  * \param ul_id Peripheral ID (ID_xxx).
 688:../asf/sam/drivers/pmc/pmc.c ****  *
 689:../asf/sam/drivers/pmc/pmc.c ****  * \retval 0 Success.
 690:../asf/sam/drivers/pmc/pmc.c ****  * \retval 1 Invalid parameter.
 691:../asf/sam/drivers/pmc/pmc.c ****  */
 692:../asf/sam/drivers/pmc/pmc.c **** uint32_t pmc_enable_periph_clk(uint32_t ul_id)
 693:../asf/sam/drivers/pmc/pmc.c **** {
 1444              		.loc 1 693 0
 1445              		.cfi_startproc
 1446              		@ args = 0, pretend = 0, frame = 0
 1447              		@ frame_needed = 0, uses_anonymous_args = 0
 1448              		@ link register save eliminated.
 1449              	.LVL90:
 694:../asf/sam/drivers/pmc/pmc.c **** 	if (ul_id > MAX_PERIPH_ID) {
 1450              		.loc 1 694 0
 1451 0000 3F28     		cmp	r0, #63
 1452 0002 1AD8     		bhi	.L203
 695:../asf/sam/drivers/pmc/pmc.c **** 		return 1;
 696:../asf/sam/drivers/pmc/pmc.c **** 	}
 697:../asf/sam/drivers/pmc/pmc.c **** 
 698:../asf/sam/drivers/pmc/pmc.c **** 	if (ul_id < 32) {
 1453              		.loc 1 698 0
 1454 0004 1F28     		cmp	r0, #31
 1455 0006 0AD8     		bhi	.L202
 699:../asf/sam/drivers/pmc/pmc.c **** 		if ((PMC->PMC_PCSR0 & (1u << ul_id)) != (1u << ul_id)) {
 1456              		.loc 1 699 0
 1457 0008 0123     		movs	r3, #1
 1458 000a 0E4A     		ldr	r2, .L206
 1459 000c 03FA00F0 		lsl	r0, r3, r0
ARM GAS  /tmp/ccTYR2Ee.s 			page 40


 1460              	.LVL91:
 1461 0010 9169     		ldr	r1, [r2, #24]
 1462 0012 30EA0103 		bics	r3, r0, r1
 1463 0016 12D0     		beq	.L205
 700:../asf/sam/drivers/pmc/pmc.c **** 			PMC->PMC_PCER0 = 1 << ul_id;
 1464              		.loc 1 700 0
 1465 0018 1061     		str	r0, [r2, #16]
 701:../asf/sam/drivers/pmc/pmc.c **** 		}
 702:../asf/sam/drivers/pmc/pmc.c **** #if (SAM3S || SAM3XA || SAM4S || SAM4E || SAM4C || SAM4CM || SAM4CP || SAMG55 || SAMV71 || SAMV70 |
 703:../asf/sam/drivers/pmc/pmc.c **** 	} else {
 704:../asf/sam/drivers/pmc/pmc.c **** 		ul_id -= 32;
 705:../asf/sam/drivers/pmc/pmc.c **** 		if ((PMC->PMC_PCSR1 & (1u << ul_id)) != (1u << ul_id)) {
 706:../asf/sam/drivers/pmc/pmc.c **** 			PMC->PMC_PCER1 = 1 << ul_id;
 707:../asf/sam/drivers/pmc/pmc.c **** 		}
 708:../asf/sam/drivers/pmc/pmc.c **** #endif
 709:../asf/sam/drivers/pmc/pmc.c **** 	}
 710:../asf/sam/drivers/pmc/pmc.c **** 
 711:../asf/sam/drivers/pmc/pmc.c **** 	return 0;
 1466              		.loc 1 711 0
 1467 001a 0020     		movs	r0, #0
 1468 001c 7047     		bx	lr
 1469              	.LVL92:
 1470              	.L202:
 705:../asf/sam/drivers/pmc/pmc.c **** 			PMC->PMC_PCER1 = 1 << ul_id;
 1471              		.loc 1 705 0
 1472 001e 0123     		movs	r3, #1
 704:../asf/sam/drivers/pmc/pmc.c **** 		if ((PMC->PMC_PCSR1 & (1u << ul_id)) != (1u << ul_id)) {
 1473              		.loc 1 704 0
 1474 0020 2038     		subs	r0, r0, #32
 1475              	.LVL93:
 705:../asf/sam/drivers/pmc/pmc.c **** 			PMC->PMC_PCER1 = 1 << ul_id;
 1476              		.loc 1 705 0
 1477 0022 084A     		ldr	r2, .L206
 1478 0024 03FA00F0 		lsl	r0, r3, r0
 1479              	.LVL94:
 1480 0028 D2F80831 		ldr	r3, [r2, #264]
 1481 002c 30EA0303 		bics	r3, r0, r3
 1482 0030 05D0     		beq	.L205
 706:../asf/sam/drivers/pmc/pmc.c **** 		}
 1483              		.loc 1 706 0
 1484 0032 C2F80001 		str	r0, [r2, #256]
 1485              		.loc 1 711 0
 1486 0036 0020     		movs	r0, #0
 1487 0038 7047     		bx	lr
 1488              	.LVL95:
 1489              	.L203:
 695:../asf/sam/drivers/pmc/pmc.c **** 	}
 1490              		.loc 1 695 0
 1491 003a 0120     		movs	r0, #1
 1492              	.LVL96:
 1493 003c 7047     		bx	lr
 1494              	.LVL97:
 1495              	.L205:
 1496              		.loc 1 711 0
 1497 003e 0020     		movs	r0, #0
 712:../asf/sam/drivers/pmc/pmc.c **** }
 1498              		.loc 1 712 0
ARM GAS  /tmp/ccTYR2Ee.s 			page 41


 1499 0040 7047     		bx	lr
 1500              	.L207:
 1501 0042 00BF     		.align	2
 1502              	.L206:
 1503 0044 00060E40 		.word	1074660864
 1504              		.cfi_endproc
 1505              	.LFE170:
 1506              		.size	pmc_enable_periph_clk, .-pmc_enable_periph_clk
 1507              		.section	.text.pmc_disable_periph_clk,"ax",%progbits
 1508              		.align	1
 1509              		.p2align 2,,3
 1510              		.global	pmc_disable_periph_clk
 1511              		.syntax unified
 1512              		.thumb
 1513              		.thumb_func
 1514              		.fpu fpv5-d16
 1515              		.type	pmc_disable_periph_clk, %function
 1516              	pmc_disable_periph_clk:
 1517              	.LFB171:
 713:../asf/sam/drivers/pmc/pmc.c **** 
 714:../asf/sam/drivers/pmc/pmc.c **** /**
 715:../asf/sam/drivers/pmc/pmc.c ****  * \brief Disable the specified peripheral clock.
 716:../asf/sam/drivers/pmc/pmc.c ****  *
 717:../asf/sam/drivers/pmc/pmc.c ****  * \note The ID must NOT be shifted (i.e., 1 << ID_xxx).
 718:../asf/sam/drivers/pmc/pmc.c ****  *
 719:../asf/sam/drivers/pmc/pmc.c ****  * \param ul_id Peripheral ID (ID_xxx).
 720:../asf/sam/drivers/pmc/pmc.c ****  *
 721:../asf/sam/drivers/pmc/pmc.c ****  * \retval 0 Success.
 722:../asf/sam/drivers/pmc/pmc.c ****  * \retval 1 Invalid parameter.
 723:../asf/sam/drivers/pmc/pmc.c ****  */
 724:../asf/sam/drivers/pmc/pmc.c **** uint32_t pmc_disable_periph_clk(uint32_t ul_id)
 725:../asf/sam/drivers/pmc/pmc.c **** {
 1518              		.loc 1 725 0
 1519              		.cfi_startproc
 1520              		@ args = 0, pretend = 0, frame = 0
 1521              		@ frame_needed = 0, uses_anonymous_args = 0
 1522              		@ link register save eliminated.
 1523              	.LVL98:
 726:../asf/sam/drivers/pmc/pmc.c **** 	if (ul_id > MAX_PERIPH_ID) {
 1524              		.loc 1 726 0
 1525 0000 3F28     		cmp	r0, #63
 1526 0002 19D8     		bhi	.L211
 727:../asf/sam/drivers/pmc/pmc.c **** 		return 1;
 728:../asf/sam/drivers/pmc/pmc.c **** 	}
 729:../asf/sam/drivers/pmc/pmc.c **** 
 730:../asf/sam/drivers/pmc/pmc.c **** 	if (ul_id < 32) {
 1527              		.loc 1 730 0
 1528 0004 1F28     		cmp	r0, #31
 1529 0006 09D8     		bhi	.L210
 731:../asf/sam/drivers/pmc/pmc.c **** 		if ((PMC->PMC_PCSR0 & (1u << ul_id)) == (1u << ul_id)) {
 1530              		.loc 1 731 0
 1531 0008 0123     		movs	r3, #1
 1532 000a 0E4A     		ldr	r2, .L215
 1533 000c 03FA00F0 		lsl	r0, r3, r0
 1534              	.LVL99:
 1535 0010 9169     		ldr	r1, [r2, #24]
 1536 0012 30EA0103 		bics	r3, r0, r1
ARM GAS  /tmp/ccTYR2Ee.s 			page 42


 1537 0016 11D0     		beq	.L214
 1538              	.LVL100:
 1539              	.L213:
 732:../asf/sam/drivers/pmc/pmc.c **** 			PMC->PMC_PCDR0 = 1 << ul_id;
 733:../asf/sam/drivers/pmc/pmc.c **** 		}
 734:../asf/sam/drivers/pmc/pmc.c **** #if (SAM3S || SAM3XA || SAM4S || SAM4E || SAM4C || SAM4CM || SAM4CP || SAMG55 || SAMV71 \
 735:../asf/sam/drivers/pmc/pmc.c **** 		|| SAMV70 || SAME70 || SAMS70)
 736:../asf/sam/drivers/pmc/pmc.c **** 	} else {
 737:../asf/sam/drivers/pmc/pmc.c **** 		ul_id -= 32;
 738:../asf/sam/drivers/pmc/pmc.c **** 		if ((PMC->PMC_PCSR1 & (1u << ul_id)) == (1u << ul_id)) {
 739:../asf/sam/drivers/pmc/pmc.c **** 			PMC->PMC_PCDR1 = 1 << ul_id;
 740:../asf/sam/drivers/pmc/pmc.c **** 		}
 741:../asf/sam/drivers/pmc/pmc.c **** #endif
 742:../asf/sam/drivers/pmc/pmc.c **** 	}
 743:../asf/sam/drivers/pmc/pmc.c **** 	return 0;
 1540              		.loc 1 743 0
 1541 0018 0020     		movs	r0, #0
 744:../asf/sam/drivers/pmc/pmc.c **** }
 1542              		.loc 1 744 0
 1543 001a 7047     		bx	lr
 1544              	.LVL101:
 1545              	.L210:
 738:../asf/sam/drivers/pmc/pmc.c **** 			PMC->PMC_PCDR1 = 1 << ul_id;
 1546              		.loc 1 738 0
 1547 001c 0123     		movs	r3, #1
 737:../asf/sam/drivers/pmc/pmc.c **** 		if ((PMC->PMC_PCSR1 & (1u << ul_id)) == (1u << ul_id)) {
 1548              		.loc 1 737 0
 1549 001e 2038     		subs	r0, r0, #32
 1550              	.LVL102:
 738:../asf/sam/drivers/pmc/pmc.c **** 			PMC->PMC_PCDR1 = 1 << ul_id;
 1551              		.loc 1 738 0
 1552 0020 084A     		ldr	r2, .L215
 1553 0022 03FA00F0 		lsl	r0, r3, r0
 1554              	.LVL103:
 1555 0026 D2F80831 		ldr	r3, [r2, #264]
 1556 002a 30EA0303 		bics	r3, r0, r3
 1557 002e F3D1     		bne	.L213
 739:../asf/sam/drivers/pmc/pmc.c **** 		}
 1558              		.loc 1 739 0
 1559 0030 C2F80401 		str	r0, [r2, #260]
 743:../asf/sam/drivers/pmc/pmc.c **** }
 1560              		.loc 1 743 0
 1561 0034 0020     		movs	r0, #0
 1562 0036 7047     		bx	lr
 1563              	.LVL104:
 1564              	.L211:
 727:../asf/sam/drivers/pmc/pmc.c **** 	}
 1565              		.loc 1 727 0
 1566 0038 0120     		movs	r0, #1
 1567              	.LVL105:
 1568 003a 7047     		bx	lr
 1569              	.L214:
 732:../asf/sam/drivers/pmc/pmc.c **** 		}
 1570              		.loc 1 732 0
 1571 003c 5061     		str	r0, [r2, #20]
 743:../asf/sam/drivers/pmc/pmc.c **** }
 1572              		.loc 1 743 0
ARM GAS  /tmp/ccTYR2Ee.s 			page 43


 1573 003e 0020     		movs	r0, #0
 1574 0040 7047     		bx	lr
 1575              	.L216:
 1576 0042 00BF     		.align	2
 1577              	.L215:
 1578 0044 00060E40 		.word	1074660864
 1579              		.cfi_endproc
 1580              	.LFE171:
 1581              		.size	pmc_disable_periph_clk, .-pmc_disable_periph_clk
 1582              		.section	.text.pmc_enable_all_periph_clk,"ax",%progbits
 1583              		.align	1
 1584              		.p2align 2,,3
 1585              		.global	pmc_enable_all_periph_clk
 1586              		.syntax unified
 1587              		.thumb
 1588              		.thumb_func
 1589              		.fpu fpv5-d16
 1590              		.type	pmc_enable_all_periph_clk, %function
 1591              	pmc_enable_all_periph_clk:
 1592              	.LFB172:
 745:../asf/sam/drivers/pmc/pmc.c **** 
 746:../asf/sam/drivers/pmc/pmc.c **** /**
 747:../asf/sam/drivers/pmc/pmc.c ****  * \brief Enable all peripheral clocks.
 748:../asf/sam/drivers/pmc/pmc.c ****  */
 749:../asf/sam/drivers/pmc/pmc.c **** void pmc_enable_all_periph_clk(void)
 750:../asf/sam/drivers/pmc/pmc.c **** {
 1593              		.loc 1 750 0
 1594              		.cfi_startproc
 1595              		@ args = 0, pretend = 0, frame = 0
 1596              		@ frame_needed = 0, uses_anonymous_args = 0
 1597              		@ link register save eliminated.
 751:../asf/sam/drivers/pmc/pmc.c **** 	PMC->PMC_PCER0 = PMC_MASK_STATUS0;
 1598              		.loc 1 751 0
 1599 0000 094B     		ldr	r3, .L222
 1600 0002 6FF00301 		mvn	r1, #3
 752:../asf/sam/drivers/pmc/pmc.c **** 	while ((PMC->PMC_PCSR0 & PMC_MASK_STATUS0) != PMC_MASK_STATUS0);
 1601              		.loc 1 752 0
 1602 0006 1A46     		mov	r2, r3
 751:../asf/sam/drivers/pmc/pmc.c **** 	PMC->PMC_PCER0 = PMC_MASK_STATUS0;
 1603              		.loc 1 751 0
 1604 0008 1961     		str	r1, [r3, #16]
 1605              	.L218:
 1606              		.loc 1 752 0 discriminator 1
 1607 000a 9369     		ldr	r3, [r2, #24]
 1608 000c 23F00303 		bic	r3, r3, #3
 1609 0010 0433     		adds	r3, r3, #4
 1610 0012 FAD1     		bne	.L218
 753:../asf/sam/drivers/pmc/pmc.c **** 
 754:../asf/sam/drivers/pmc/pmc.c **** #if (SAM3S || SAM3XA || SAM4S || SAM4E || SAM4C || SAM4CM || SAM4CP || SAMV71  \
 755:../asf/sam/drivers/pmc/pmc.c **** 		|| SAMV70 || SAME70 || SAMS70)
 756:../asf/sam/drivers/pmc/pmc.c **** 	PMC->PMC_PCER1 = PMC_MASK_STATUS1;
 1611              		.loc 1 756 0
 1612 0014 4FF0FF33 		mov	r3, #-1
 757:../asf/sam/drivers/pmc/pmc.c **** 	while ((PMC->PMC_PCSR1 & PMC_MASK_STATUS1) != PMC_MASK_STATUS1);
 1613              		.loc 1 757 0
 1614 0018 0349     		ldr	r1, .L222
 756:../asf/sam/drivers/pmc/pmc.c **** 	while ((PMC->PMC_PCSR1 & PMC_MASK_STATUS1) != PMC_MASK_STATUS1);
ARM GAS  /tmp/ccTYR2Ee.s 			page 44


 1615              		.loc 1 756 0
 1616 001a C2F80031 		str	r3, [r2, #256]
 1617              	.L219:
 1618              		.loc 1 757 0 discriminator 1
 1619 001e D1F80831 		ldr	r3, [r1, #264]
 1620 0022 0133     		adds	r3, r3, #1
 1621 0024 FBD1     		bne	.L219
 758:../asf/sam/drivers/pmc/pmc.c **** #endif
 759:../asf/sam/drivers/pmc/pmc.c **** }
 1622              		.loc 1 759 0
 1623 0026 7047     		bx	lr
 1624              	.L223:
 1625              		.align	2
 1626              	.L222:
 1627 0028 00060E40 		.word	1074660864
 1628              		.cfi_endproc
 1629              	.LFE172:
 1630              		.size	pmc_enable_all_periph_clk, .-pmc_enable_all_periph_clk
 1631              		.section	.text.pmc_disable_all_periph_clk,"ax",%progbits
 1632              		.align	1
 1633              		.p2align 2,,3
 1634              		.global	pmc_disable_all_periph_clk
 1635              		.syntax unified
 1636              		.thumb
 1637              		.thumb_func
 1638              		.fpu fpv5-d16
 1639              		.type	pmc_disable_all_periph_clk, %function
 1640              	pmc_disable_all_periph_clk:
 1641              	.LFB173:
 760:../asf/sam/drivers/pmc/pmc.c **** 
 761:../asf/sam/drivers/pmc/pmc.c **** /**
 762:../asf/sam/drivers/pmc/pmc.c ****  * \brief Disable all peripheral clocks.
 763:../asf/sam/drivers/pmc/pmc.c ****  */
 764:../asf/sam/drivers/pmc/pmc.c **** void pmc_disable_all_periph_clk(void)
 765:../asf/sam/drivers/pmc/pmc.c **** {
 1642              		.loc 1 765 0
 1643              		.cfi_startproc
 1644              		@ args = 0, pretend = 0, frame = 0
 1645              		@ frame_needed = 0, uses_anonymous_args = 0
 1646              		@ link register save eliminated.
 766:../asf/sam/drivers/pmc/pmc.c **** 	PMC->PMC_PCDR0 = PMC_MASK_STATUS0;
 1647              		.loc 1 766 0
 1648 0000 094B     		ldr	r3, .L229
 1649 0002 6FF00301 		mvn	r1, #3
 767:../asf/sam/drivers/pmc/pmc.c **** 	while ((PMC->PMC_PCSR0 & PMC_MASK_STATUS0) != 0);
 1650              		.loc 1 767 0
 1651 0006 1A46     		mov	r2, r3
 766:../asf/sam/drivers/pmc/pmc.c **** 	PMC->PMC_PCDR0 = PMC_MASK_STATUS0;
 1652              		.loc 1 766 0
 1653 0008 5961     		str	r1, [r3, #20]
 1654              	.L225:
 1655              		.loc 1 767 0 discriminator 1
 1656 000a 9369     		ldr	r3, [r2, #24]
 1657 000c 33F00303 		bics	r3, r3, #3
 1658 0010 FBD1     		bne	.L225
 768:../asf/sam/drivers/pmc/pmc.c **** 
 769:../asf/sam/drivers/pmc/pmc.c **** #if (SAM3S || SAM3XA || SAM4S || SAM4E || SAM4C || SAM4CM || SAM4CP || SAMV71 \
ARM GAS  /tmp/ccTYR2Ee.s 			page 45


 770:../asf/sam/drivers/pmc/pmc.c **** 		|| SAMV70 || SAME70 || SAMS70)
 771:../asf/sam/drivers/pmc/pmc.c **** 	PMC->PMC_PCDR1 = PMC_MASK_STATUS1;
 1659              		.loc 1 771 0
 1660 0012 4FF0FF33 		mov	r3, #-1
 772:../asf/sam/drivers/pmc/pmc.c **** 	while ((PMC->PMC_PCSR1 & PMC_MASK_STATUS1) != 0);
 1661              		.loc 1 772 0
 1662 0016 0449     		ldr	r1, .L229
 771:../asf/sam/drivers/pmc/pmc.c **** 	while ((PMC->PMC_PCSR1 & PMC_MASK_STATUS1) != 0);
 1663              		.loc 1 771 0
 1664 0018 C2F80431 		str	r3, [r2, #260]
 1665              	.L226:
 1666              		.loc 1 772 0 discriminator 1
 1667 001c D1F80831 		ldr	r3, [r1, #264]
 1668 0020 002B     		cmp	r3, #0
 1669 0022 FBD1     		bne	.L226
 773:../asf/sam/drivers/pmc/pmc.c **** #endif
 774:../asf/sam/drivers/pmc/pmc.c **** }
 1670              		.loc 1 774 0
 1671 0024 7047     		bx	lr
 1672              	.L230:
 1673 0026 00BF     		.align	2
 1674              	.L229:
 1675 0028 00060E40 		.word	1074660864
 1676              		.cfi_endproc
 1677              	.LFE173:
 1678              		.size	pmc_disable_all_periph_clk, .-pmc_disable_all_periph_clk
 1679              		.section	.text.pmc_is_periph_clk_enabled,"ax",%progbits
 1680              		.align	1
 1681              		.p2align 2,,3
 1682              		.global	pmc_is_periph_clk_enabled
 1683              		.syntax unified
 1684              		.thumb
 1685              		.thumb_func
 1686              		.fpu fpv5-d16
 1687              		.type	pmc_is_periph_clk_enabled, %function
 1688              	pmc_is_periph_clk_enabled:
 1689              	.LFB174:
 775:../asf/sam/drivers/pmc/pmc.c **** 
 776:../asf/sam/drivers/pmc/pmc.c **** /**
 777:../asf/sam/drivers/pmc/pmc.c ****  * \brief Check if the specified peripheral clock is enabled.
 778:../asf/sam/drivers/pmc/pmc.c ****  *
 779:../asf/sam/drivers/pmc/pmc.c ****  * \note The ID must NOT be shifted (i.e., 1 << ID_xxx).
 780:../asf/sam/drivers/pmc/pmc.c ****  *
 781:../asf/sam/drivers/pmc/pmc.c ****  * \param ul_id Peripheral ID (ID_xxx).
 782:../asf/sam/drivers/pmc/pmc.c ****  *
 783:../asf/sam/drivers/pmc/pmc.c ****  * \retval 0 Peripheral clock is disabled or unknown.
 784:../asf/sam/drivers/pmc/pmc.c ****  * \retval 1 Peripheral clock is enabled.
 785:../asf/sam/drivers/pmc/pmc.c ****  */
 786:../asf/sam/drivers/pmc/pmc.c **** uint32_t pmc_is_periph_clk_enabled(uint32_t ul_id)
 787:../asf/sam/drivers/pmc/pmc.c **** {
 1690              		.loc 1 787 0
 1691              		.cfi_startproc
 1692              		@ args = 0, pretend = 0, frame = 0
 1693              		@ frame_needed = 0, uses_anonymous_args = 0
 1694              		@ link register save eliminated.
 1695              	.LVL106:
 788:../asf/sam/drivers/pmc/pmc.c **** 	if (ul_id > MAX_PERIPH_ID) {
ARM GAS  /tmp/ccTYR2Ee.s 			page 46


 1696              		.loc 1 788 0
 1697 0000 3F28     		cmp	r0, #63
 1698 0002 17D8     		bhi	.L234
 789:../asf/sam/drivers/pmc/pmc.c **** 		return 0;
 790:../asf/sam/drivers/pmc/pmc.c **** 	}
 791:../asf/sam/drivers/pmc/pmc.c **** 
 792:../asf/sam/drivers/pmc/pmc.c **** #if (SAM3S || SAM3XA || SAM4S || SAM4E || SAM4C || SAM4CM || SAM4CP || SAMV71 \
 793:../asf/sam/drivers/pmc/pmc.c **** 		|| SAMV70 || SAME70 || SAMS70)
 794:../asf/sam/drivers/pmc/pmc.c **** 	if (ul_id < 32) {
 1699              		.loc 1 794 0
 1700 0004 1F28     		cmp	r0, #31
 1701 0006 09D8     		bhi	.L233
 795:../asf/sam/drivers/pmc/pmc.c **** #endif
 796:../asf/sam/drivers/pmc/pmc.c **** 		if ((PMC->PMC_PCSR0 & (1u << ul_id))) {
 1702              		.loc 1 796 0
 1703 0008 0123     		movs	r3, #1
 1704 000a 0B4A     		ldr	r2, .L235
 1705 000c 03FA00F0 		lsl	r0, r3, r0
 1706              	.LVL107:
 1707 0010 9269     		ldr	r2, [r2, #24]
 1708 0012 1042     		tst	r0, r2
 1709 0014 14BF     		ite	ne
 1710 0016 1846     		movne	r0, r3
 1711 0018 0020     		moveq	r0, #0
 1712 001a 7047     		bx	lr
 1713              	.LVL108:
 1714              	.L233:
 797:../asf/sam/drivers/pmc/pmc.c **** 			return 1;
 798:../asf/sam/drivers/pmc/pmc.c **** 		} else {
 799:../asf/sam/drivers/pmc/pmc.c **** 			return 0;
 800:../asf/sam/drivers/pmc/pmc.c **** 		}
 801:../asf/sam/drivers/pmc/pmc.c **** #if (SAM3S || SAM3XA || SAM4S || SAM4E || SAM4C || SAM4CM || SAM4CP || SAMV71 \
 802:../asf/sam/drivers/pmc/pmc.c **** 		|| SAMV70 || SAME70 || SAMS70)
 803:../asf/sam/drivers/pmc/pmc.c **** 	} else {
 804:../asf/sam/drivers/pmc/pmc.c **** 		ul_id -= 32;
 805:../asf/sam/drivers/pmc/pmc.c **** 		if ((PMC->PMC_PCSR1 & (1u << ul_id))) {
 1715              		.loc 1 805 0
 1716 001c 0123     		movs	r3, #1
 1717 001e 064A     		ldr	r2, .L235
 804:../asf/sam/drivers/pmc/pmc.c **** 		if ((PMC->PMC_PCSR1 & (1u << ul_id))) {
 1718              		.loc 1 804 0
 1719 0020 2038     		subs	r0, r0, #32
 1720              	.LVL109:
 1721              		.loc 1 805 0
 1722 0022 03FA00F0 		lsl	r0, r3, r0
 1723              	.LVL110:
 1724 0026 D2F80831 		ldr	r3, [r2, #264]
 1725 002a 1842     		tst	r0, r3
 1726 002c 14BF     		ite	ne
 1727 002e 0120     		movne	r0, #1
 1728 0030 0020     		moveq	r0, #0
 1729 0032 7047     		bx	lr
 1730              	.LVL111:
 1731              	.L234:
 789:../asf/sam/drivers/pmc/pmc.c **** 	}
 1732              		.loc 1 789 0
 1733 0034 0020     		movs	r0, #0
ARM GAS  /tmp/ccTYR2Ee.s 			page 47


 1734              	.LVL112:
 806:../asf/sam/drivers/pmc/pmc.c **** 			return 1;
 807:../asf/sam/drivers/pmc/pmc.c **** 		} else {
 808:../asf/sam/drivers/pmc/pmc.c **** 			return 0;
 809:../asf/sam/drivers/pmc/pmc.c **** 		}
 810:../asf/sam/drivers/pmc/pmc.c **** 	}
 811:../asf/sam/drivers/pmc/pmc.c **** #endif
 812:../asf/sam/drivers/pmc/pmc.c **** }
 1735              		.loc 1 812 0
 1736 0036 7047     		bx	lr
 1737              	.L236:
 1738              		.align	2
 1739              	.L235:
 1740 0038 00060E40 		.word	1074660864
 1741              		.cfi_endproc
 1742              	.LFE174:
 1743              		.size	pmc_is_periph_clk_enabled, .-pmc_is_periph_clk_enabled
 1744              		.section	.text.pmc_pck_set_prescaler,"ax",%progbits
 1745              		.align	1
 1746              		.p2align 2,,3
 1747              		.global	pmc_pck_set_prescaler
 1748              		.syntax unified
 1749              		.thumb
 1750              		.thumb_func
 1751              		.fpu fpv5-d16
 1752              		.type	pmc_pck_set_prescaler, %function
 1753              	pmc_pck_set_prescaler:
 1754              	.LFB175:
 813:../asf/sam/drivers/pmc/pmc.c **** 
 814:../asf/sam/drivers/pmc/pmc.c **** /**
 815:../asf/sam/drivers/pmc/pmc.c ****  * \brief Set the prescaler for the specified programmable clock.
 816:../asf/sam/drivers/pmc/pmc.c ****  *
 817:../asf/sam/drivers/pmc/pmc.c ****  * \param ul_id Peripheral ID.
 818:../asf/sam/drivers/pmc/pmc.c ****  * \param ul_pres Prescaler value.
 819:../asf/sam/drivers/pmc/pmc.c ****  */
 820:../asf/sam/drivers/pmc/pmc.c **** void pmc_pck_set_prescaler(uint32_t ul_id, uint32_t ul_pres)
 821:../asf/sam/drivers/pmc/pmc.c **** {
 1755              		.loc 1 821 0
 1756              		.cfi_startproc
 1757              		@ args = 0, pretend = 0, frame = 0
 1758              		@ frame_needed = 0, uses_anonymous_args = 0
 1759              		@ link register save eliminated.
 1760              	.LVL113:
 1761 0000 0B4B     		ldr	r3, .L247
 1762 0002 4FF48072 		mov	r2, #256
 1763 0006 10B4     		push	{r4}
 1764              		.cfi_def_cfa_offset 4
 1765              		.cfi_offset 4, -4
 1766 0008 03EB8004 		add	r4, r3, r0, lsl #2
 1767 000c 02FA00F0 		lsl	r0, r2, r0
 1768              	.LVL114:
 822:../asf/sam/drivers/pmc/pmc.c **** 	PMC->PMC_PCK[ul_id] =
 823:../asf/sam/drivers/pmc/pmc.c **** 			(PMC->PMC_PCK[ul_id] & ~PMC_PCK_PRES_Msk) | ul_pres;
 1769              		.loc 1 823 0
 1770 0010 226C     		ldr	r2, [r4, #64]
 1771 0012 22F47F62 		bic	r2, r2, #4080
 1772 0016 1143     		orrs	r1, r1, r2
ARM GAS  /tmp/ccTYR2Ee.s 			page 48


 1773              	.LVL115:
 822:../asf/sam/drivers/pmc/pmc.c **** 	PMC->PMC_PCK[ul_id] =
 1774              		.loc 1 822 0
 1775 0018 2164     		str	r1, [r4, #64]
 824:../asf/sam/drivers/pmc/pmc.c **** 	while ((PMC->PMC_SCER & (PMC_SCER_PCK0 << ul_id))
 1776              		.loc 1 824 0
 1777 001a 02E0     		b	.L239
 1778              	.L246:
 825:../asf/sam/drivers/pmc/pmc.c **** 			&& !(PMC->PMC_SR & (PMC_SR_PCKRDY0 << ul_id)));
 1779              		.loc 1 825 0
 1780 001c 9A6E     		ldr	r2, [r3, #104]
 1781 001e 0242     		tst	r2, r0
 1782 0020 02D1     		bne	.L237
 1783              	.L239:
 824:../asf/sam/drivers/pmc/pmc.c **** 	while ((PMC->PMC_SCER & (PMC_SCER_PCK0 << ul_id))
 1784              		.loc 1 824 0
 1785 0022 1A68     		ldr	r2, [r3]
 1786 0024 0242     		tst	r2, r0
 1787 0026 F9D1     		bne	.L246
 1788              	.L237:
 826:../asf/sam/drivers/pmc/pmc.c **** }
 1789              		.loc 1 826 0
 1790 0028 5DF8044B 		ldr	r4, [sp], #4
 1791              		.cfi_restore 4
 1792              		.cfi_def_cfa_offset 0
 1793 002c 7047     		bx	lr
 1794              	.L248:
 1795 002e 00BF     		.align	2
 1796              	.L247:
 1797 0030 00060E40 		.word	1074660864
 1798              		.cfi_endproc
 1799              	.LFE175:
 1800              		.size	pmc_pck_set_prescaler, .-pmc_pck_set_prescaler
 1801              		.section	.text.pmc_pck_set_source,"ax",%progbits
 1802              		.align	1
 1803              		.p2align 2,,3
 1804              		.global	pmc_pck_set_source
 1805              		.syntax unified
 1806              		.thumb
 1807              		.thumb_func
 1808              		.fpu fpv5-d16
 1809              		.type	pmc_pck_set_source, %function
 1810              	pmc_pck_set_source:
 1811              	.LFB176:
 827:../asf/sam/drivers/pmc/pmc.c **** 
 828:../asf/sam/drivers/pmc/pmc.c **** /**
 829:../asf/sam/drivers/pmc/pmc.c ****  * \brief Set the source oscillator for the specified programmable clock.
 830:../asf/sam/drivers/pmc/pmc.c ****  *
 831:../asf/sam/drivers/pmc/pmc.c ****  * \param ul_id Peripheral ID.
 832:../asf/sam/drivers/pmc/pmc.c ****  * \param ul_source Source selection value.
 833:../asf/sam/drivers/pmc/pmc.c ****  */
 834:../asf/sam/drivers/pmc/pmc.c **** void pmc_pck_set_source(uint32_t ul_id, uint32_t ul_source)
 835:../asf/sam/drivers/pmc/pmc.c **** {
 1812              		.loc 1 835 0
 1813              		.cfi_startproc
 1814              		@ args = 0, pretend = 0, frame = 0
 1815              		@ frame_needed = 0, uses_anonymous_args = 0
ARM GAS  /tmp/ccTYR2Ee.s 			page 49


 1816              		@ link register save eliminated.
 1817              	.LVL116:
 1818 0000 0B4B     		ldr	r3, .L259
 1819 0002 4FF48072 		mov	r2, #256
 1820 0006 10B4     		push	{r4}
 1821              		.cfi_def_cfa_offset 4
 1822              		.cfi_offset 4, -4
 1823 0008 03EB8004 		add	r4, r3, r0, lsl #2
 1824 000c 02FA00F0 		lsl	r0, r2, r0
 1825              	.LVL117:
 836:../asf/sam/drivers/pmc/pmc.c **** 	PMC->PMC_PCK[ul_id] =
 837:../asf/sam/drivers/pmc/pmc.c **** 			(PMC->PMC_PCK[ul_id] & ~PMC_PCK_CSS_Msk) | ul_source;
 1826              		.loc 1 837 0
 1827 0010 226C     		ldr	r2, [r4, #64]
 1828 0012 22F00702 		bic	r2, r2, #7
 1829 0016 1143     		orrs	r1, r1, r2
 1830              	.LVL118:
 836:../asf/sam/drivers/pmc/pmc.c **** 	PMC->PMC_PCK[ul_id] =
 1831              		.loc 1 836 0
 1832 0018 2164     		str	r1, [r4, #64]
 838:../asf/sam/drivers/pmc/pmc.c **** 	while ((PMC->PMC_SCER & (PMC_SCER_PCK0 << ul_id))
 1833              		.loc 1 838 0
 1834 001a 02E0     		b	.L251
 1835              	.L258:
 839:../asf/sam/drivers/pmc/pmc.c **** 			&& !(PMC->PMC_SR & (PMC_SR_PCKRDY0 << ul_id)));
 1836              		.loc 1 839 0
 1837 001c 9A6E     		ldr	r2, [r3, #104]
 1838 001e 0242     		tst	r2, r0
 1839 0020 02D1     		bne	.L249
 1840              	.L251:
 838:../asf/sam/drivers/pmc/pmc.c **** 	while ((PMC->PMC_SCER & (PMC_SCER_PCK0 << ul_id))
 1841              		.loc 1 838 0
 1842 0022 1A68     		ldr	r2, [r3]
 1843 0024 0242     		tst	r2, r0
 1844 0026 F9D1     		bne	.L258
 1845              	.L249:
 840:../asf/sam/drivers/pmc/pmc.c **** }
 1846              		.loc 1 840 0
 1847 0028 5DF8044B 		ldr	r4, [sp], #4
 1848              		.cfi_restore 4
 1849              		.cfi_def_cfa_offset 0
 1850 002c 7047     		bx	lr
 1851              	.L260:
 1852 002e 00BF     		.align	2
 1853              	.L259:
 1854 0030 00060E40 		.word	1074660864
 1855              		.cfi_endproc
 1856              	.LFE176:
 1857              		.size	pmc_pck_set_source, .-pmc_pck_set_source
 1858              		.section	.text.pmc_switch_pck_to_sclk,"ax",%progbits
 1859              		.align	1
 1860              		.p2align 2,,3
 1861              		.global	pmc_switch_pck_to_sclk
 1862              		.syntax unified
 1863              		.thumb
 1864              		.thumb_func
 1865              		.fpu fpv5-d16
ARM GAS  /tmp/ccTYR2Ee.s 			page 50


 1866              		.type	pmc_switch_pck_to_sclk, %function
 1867              	pmc_switch_pck_to_sclk:
 1868              	.LFB177:
 841:../asf/sam/drivers/pmc/pmc.c **** 
 842:../asf/sam/drivers/pmc/pmc.c **** /**
 843:../asf/sam/drivers/pmc/pmc.c ****  * \brief Switch programmable clock source selection to slow clock.
 844:../asf/sam/drivers/pmc/pmc.c ****  *
 845:../asf/sam/drivers/pmc/pmc.c ****  * \param ul_id Id of the programmable clock.
 846:../asf/sam/drivers/pmc/pmc.c ****  * \param ul_pres Programmable clock prescaler.
 847:../asf/sam/drivers/pmc/pmc.c ****  *
 848:../asf/sam/drivers/pmc/pmc.c ****  * \retval 0 Success.
 849:../asf/sam/drivers/pmc/pmc.c ****  * \retval 1 Timeout error.
 850:../asf/sam/drivers/pmc/pmc.c ****  */
 851:../asf/sam/drivers/pmc/pmc.c **** uint32_t pmc_switch_pck_to_sclk(uint32_t ul_id, uint32_t ul_pres)
 852:../asf/sam/drivers/pmc/pmc.c **** {
 1869              		.loc 1 852 0
 1870              		.cfi_startproc
 1871              		@ args = 0, pretend = 0, frame = 0
 1872              		@ frame_needed = 0, uses_anonymous_args = 0
 1873              		@ link register save eliminated.
 1874              	.LVL119:
 1875 0000 10B4     		push	{r4}
 1876              		.cfi_def_cfa_offset 4
 1877              		.cfi_offset 4, -4
 853:../asf/sam/drivers/pmc/pmc.c **** 	uint32_t ul_timeout;
 854:../asf/sam/drivers/pmc/pmc.c **** 
 855:../asf/sam/drivers/pmc/pmc.c **** 	PMC->PMC_PCK[ul_id] = PMC_PCK_CSS_SLOW_CLK | ul_pres;
 1878              		.loc 1 855 0
 1879 0002 0E4B     		ldr	r3, .L272
 856:../asf/sam/drivers/pmc/pmc.c **** 	for (ul_timeout = PMC_TIMEOUT;
 857:../asf/sam/drivers/pmc/pmc.c **** 	!(PMC->PMC_SR & (PMC_SR_PCKRDY0 << ul_id)); --ul_timeout) {
 1880              		.loc 1 857 0
 1881 0004 4FF48072 		mov	r2, #256
 855:../asf/sam/drivers/pmc/pmc.c **** 	for (ul_timeout = PMC_TIMEOUT;
 1882              		.loc 1 855 0
 1883 0008 00F11004 		add	r4, r0, #16
 1884              		.loc 1 857 0
 1885 000c 02FA00F0 		lsl	r0, r2, r0
 1886              	.LVL120:
 855:../asf/sam/drivers/pmc/pmc.c **** 	for (ul_timeout = PMC_TIMEOUT;
 1887              		.loc 1 855 0
 1888 0010 43F82410 		str	r1, [r3, r4, lsl #2]
 1889              	.LVL121:
 1890              		.loc 1 857 0
 1891 0014 9A6E     		ldr	r2, [r3, #104]
 856:../asf/sam/drivers/pmc/pmc.c **** 	for (ul_timeout = PMC_TIMEOUT;
 1892              		.loc 1 856 0
 1893 0016 0242     		tst	r2, r0
 1894 0018 08D1     		bne	.L269
 1895              		.loc 1 857 0 discriminator 1
 1896 001a 1946     		mov	r1, r3
 1897              	.LVL122:
 856:../asf/sam/drivers/pmc/pmc.c **** 	for (ul_timeout = PMC_TIMEOUT;
 1898              		.loc 1 856 0 discriminator 1
 1899 001c 4FF48053 		mov	r3, #4096
 1900 0020 01E0     		b	.L264
 1901              	.LVL123:
ARM GAS  /tmp/ccTYR2Ee.s 			page 51


 1902              	.L265:
 858:../asf/sam/drivers/pmc/pmc.c **** 		if (ul_timeout == 0) {
 1903              		.loc 1 858 0
 1904 0022 013B     		subs	r3, r3, #1
 1905              	.LVL124:
 1906 0024 06D0     		beq	.L271
 1907              	.LVL125:
 1908              	.L264:
 857:../asf/sam/drivers/pmc/pmc.c **** 		if (ul_timeout == 0) {
 1909              		.loc 1 857 0 discriminator 1
 1910 0026 8A6E     		ldr	r2, [r1, #104]
 856:../asf/sam/drivers/pmc/pmc.c **** 	!(PMC->PMC_SR & (PMC_SR_PCKRDY0 << ul_id)); --ul_timeout) {
 1911              		.loc 1 856 0 discriminator 1
 1912 0028 0242     		tst	r2, r0
 1913 002a FAD0     		beq	.L265
 1914              	.LVL126:
 1915              	.L269:
 859:../asf/sam/drivers/pmc/pmc.c **** 			return 1;
 860:../asf/sam/drivers/pmc/pmc.c **** 		}
 861:../asf/sam/drivers/pmc/pmc.c **** 	}
 862:../asf/sam/drivers/pmc/pmc.c **** 
 863:../asf/sam/drivers/pmc/pmc.c **** 	return 0;
 1916              		.loc 1 863 0
 1917 002c 0020     		movs	r0, #0
 864:../asf/sam/drivers/pmc/pmc.c **** }
 1918              		.loc 1 864 0
 1919 002e 5DF8044B 		ldr	r4, [sp], #4
 1920              		.cfi_remember_state
 1921              		.cfi_restore 4
 1922              		.cfi_def_cfa_offset 0
 1923              	.LVL127:
 1924 0032 7047     		bx	lr
 1925              	.LVL128:
 1926              	.L271:
 1927              		.cfi_restore_state
 859:../asf/sam/drivers/pmc/pmc.c **** 			return 1;
 1928              		.loc 1 859 0
 1929 0034 0120     		movs	r0, #1
 1930              		.loc 1 864 0
 1931 0036 5DF8044B 		ldr	r4, [sp], #4
 1932              		.cfi_restore 4
 1933              		.cfi_def_cfa_offset 0
 1934              	.LVL129:
 1935 003a 7047     		bx	lr
 1936              	.L273:
 1937              		.align	2
 1938              	.L272:
 1939 003c 00060E40 		.word	1074660864
 1940              		.cfi_endproc
 1941              	.LFE177:
 1942              		.size	pmc_switch_pck_to_sclk, .-pmc_switch_pck_to_sclk
 1943              		.section	.text.pmc_switch_pck_to_mainck,"ax",%progbits
 1944              		.align	1
 1945              		.p2align 2,,3
 1946              		.global	pmc_switch_pck_to_mainck
 1947              		.syntax unified
 1948              		.thumb
ARM GAS  /tmp/ccTYR2Ee.s 			page 52


 1949              		.thumb_func
 1950              		.fpu fpv5-d16
 1951              		.type	pmc_switch_pck_to_mainck, %function
 1952              	pmc_switch_pck_to_mainck:
 1953              	.LFB178:
 865:../asf/sam/drivers/pmc/pmc.c **** 
 866:../asf/sam/drivers/pmc/pmc.c **** /**
 867:../asf/sam/drivers/pmc/pmc.c ****  * \brief Switch programmable clock source selection to main clock.
 868:../asf/sam/drivers/pmc/pmc.c ****  *
 869:../asf/sam/drivers/pmc/pmc.c ****  * \param ul_id Id of the programmable clock.
 870:../asf/sam/drivers/pmc/pmc.c ****  * \param ul_pres Programmable clock prescaler.
 871:../asf/sam/drivers/pmc/pmc.c ****  *
 872:../asf/sam/drivers/pmc/pmc.c ****  * \retval 0 Success.
 873:../asf/sam/drivers/pmc/pmc.c ****  * \retval 1 Timeout error.
 874:../asf/sam/drivers/pmc/pmc.c ****  */
 875:../asf/sam/drivers/pmc/pmc.c **** uint32_t pmc_switch_pck_to_mainck(uint32_t ul_id, uint32_t ul_pres)
 876:../asf/sam/drivers/pmc/pmc.c **** {
 1954              		.loc 1 876 0
 1955              		.cfi_startproc
 1956              		@ args = 0, pretend = 0, frame = 0
 1957              		@ frame_needed = 0, uses_anonymous_args = 0
 1958              		@ link register save eliminated.
 1959              	.LVL130:
 1960 0000 10B4     		push	{r4}
 1961              		.cfi_def_cfa_offset 4
 1962              		.cfi_offset 4, -4
 877:../asf/sam/drivers/pmc/pmc.c **** 	uint32_t ul_timeout;
 878:../asf/sam/drivers/pmc/pmc.c **** 
 879:../asf/sam/drivers/pmc/pmc.c **** 	PMC->PMC_PCK[ul_id] = PMC_PCK_CSS_MAIN_CLK | ul_pres;
 880:../asf/sam/drivers/pmc/pmc.c **** 	for (ul_timeout = PMC_TIMEOUT;
 881:../asf/sam/drivers/pmc/pmc.c **** 	!(PMC->PMC_SR & (PMC_SR_PCKRDY0 << ul_id)); --ul_timeout) {
 1963              		.loc 1 881 0
 1964 0002 4FF48073 		mov	r3, #256
 879:../asf/sam/drivers/pmc/pmc.c **** 	for (ul_timeout = PMC_TIMEOUT;
 1965              		.loc 1 879 0
 1966 0006 41F00104 		orr	r4, r1, #1
 1967 000a 00F11002 		add	r2, r0, #16
 1968 000e 0C49     		ldr	r1, .L285
 1969              	.LVL131:
 1970              		.loc 1 881 0
 1971 0010 03FA00F0 		lsl	r0, r3, r0
 1972              	.LVL132:
 879:../asf/sam/drivers/pmc/pmc.c **** 	for (ul_timeout = PMC_TIMEOUT;
 1973              		.loc 1 879 0
 1974 0014 41F82240 		str	r4, [r1, r2, lsl #2]
 1975              	.LVL133:
 1976              		.loc 1 881 0
 1977 0018 8B6E     		ldr	r3, [r1, #104]
 880:../asf/sam/drivers/pmc/pmc.c **** 	!(PMC->PMC_SR & (PMC_SR_PCKRDY0 << ul_id)); --ul_timeout) {
 1978              		.loc 1 880 0
 1979 001a 0342     		tst	r3, r0
 1980 001c 07D1     		bne	.L282
 880:../asf/sam/drivers/pmc/pmc.c **** 	!(PMC->PMC_SR & (PMC_SR_PCKRDY0 << ul_id)); --ul_timeout) {
 1981              		.loc 1 880 0 is_stmt 0 discriminator 1
 1982 001e 4FF48053 		mov	r3, #4096
 1983 0022 01E0     		b	.L277
 1984              	.LVL134:
ARM GAS  /tmp/ccTYR2Ee.s 			page 53


 1985              	.L278:
 882:../asf/sam/drivers/pmc/pmc.c **** 		if (ul_timeout == 0) {
 1986              		.loc 1 882 0 is_stmt 1
 1987 0024 013B     		subs	r3, r3, #1
 1988              	.LVL135:
 1989 0026 06D0     		beq	.L284
 1990              	.LVL136:
 1991              	.L277:
 881:../asf/sam/drivers/pmc/pmc.c **** 		if (ul_timeout == 0) {
 1992              		.loc 1 881 0 discriminator 1
 1993 0028 8A6E     		ldr	r2, [r1, #104]
 880:../asf/sam/drivers/pmc/pmc.c **** 	!(PMC->PMC_SR & (PMC_SR_PCKRDY0 << ul_id)); --ul_timeout) {
 1994              		.loc 1 880 0 discriminator 1
 1995 002a 0242     		tst	r2, r0
 1996 002c FAD0     		beq	.L278
 1997              	.LVL137:
 1998              	.L282:
 883:../asf/sam/drivers/pmc/pmc.c **** 			return 1;
 884:../asf/sam/drivers/pmc/pmc.c **** 		}
 885:../asf/sam/drivers/pmc/pmc.c **** 	}
 886:../asf/sam/drivers/pmc/pmc.c **** 
 887:../asf/sam/drivers/pmc/pmc.c **** 	return 0;
 1999              		.loc 1 887 0
 2000 002e 0020     		movs	r0, #0
 888:../asf/sam/drivers/pmc/pmc.c **** }
 2001              		.loc 1 888 0
 2002 0030 5DF8044B 		ldr	r4, [sp], #4
 2003              		.cfi_remember_state
 2004              		.cfi_restore 4
 2005              		.cfi_def_cfa_offset 0
 2006 0034 7047     		bx	lr
 2007              	.LVL138:
 2008              	.L284:
 2009              		.cfi_restore_state
 883:../asf/sam/drivers/pmc/pmc.c **** 			return 1;
 2010              		.loc 1 883 0
 2011 0036 0120     		movs	r0, #1
 2012              		.loc 1 888 0
 2013 0038 5DF8044B 		ldr	r4, [sp], #4
 2014              		.cfi_restore 4
 2015              		.cfi_def_cfa_offset 0
 2016 003c 7047     		bx	lr
 2017              	.L286:
 2018 003e 00BF     		.align	2
 2019              	.L285:
 2020 0040 00060E40 		.word	1074660864
 2021              		.cfi_endproc
 2022              	.LFE178:
 2023              		.size	pmc_switch_pck_to_mainck, .-pmc_switch_pck_to_mainck
 2024              		.section	.text.pmc_switch_pck_to_pllack,"ax",%progbits
 2025              		.align	1
 2026              		.p2align 2,,3
 2027              		.global	pmc_switch_pck_to_pllack
 2028              		.syntax unified
 2029              		.thumb
 2030              		.thumb_func
 2031              		.fpu fpv5-d16
ARM GAS  /tmp/ccTYR2Ee.s 			page 54


 2032              		.type	pmc_switch_pck_to_pllack, %function
 2033              	pmc_switch_pck_to_pllack:
 2034              	.LFB179:
 889:../asf/sam/drivers/pmc/pmc.c **** 
 890:../asf/sam/drivers/pmc/pmc.c **** /**
 891:../asf/sam/drivers/pmc/pmc.c ****  * \brief Switch programmable clock source selection to PLLA clock.
 892:../asf/sam/drivers/pmc/pmc.c ****  *
 893:../asf/sam/drivers/pmc/pmc.c ****  * \param ul_id Id of the programmable clock.
 894:../asf/sam/drivers/pmc/pmc.c ****  * \param ul_pres Programmable clock prescaler.
 895:../asf/sam/drivers/pmc/pmc.c ****  *
 896:../asf/sam/drivers/pmc/pmc.c ****  * \retval 0 Success.
 897:../asf/sam/drivers/pmc/pmc.c ****  * \retval 1 Timeout error.
 898:../asf/sam/drivers/pmc/pmc.c ****  */
 899:../asf/sam/drivers/pmc/pmc.c **** uint32_t pmc_switch_pck_to_pllack(uint32_t ul_id, uint32_t ul_pres)
 900:../asf/sam/drivers/pmc/pmc.c **** {
 2035              		.loc 1 900 0
 2036              		.cfi_startproc
 2037              		@ args = 0, pretend = 0, frame = 0
 2038              		@ frame_needed = 0, uses_anonymous_args = 0
 2039              		@ link register save eliminated.
 2040              	.LVL139:
 2041 0000 10B4     		push	{r4}
 2042              		.cfi_def_cfa_offset 4
 2043              		.cfi_offset 4, -4
 901:../asf/sam/drivers/pmc/pmc.c **** 	uint32_t ul_timeout;
 902:../asf/sam/drivers/pmc/pmc.c **** 
 903:../asf/sam/drivers/pmc/pmc.c **** 	PMC->PMC_PCK[ul_id] = PMC_PCK_CSS_PLLA_CLK | ul_pres;
 904:../asf/sam/drivers/pmc/pmc.c **** 	for (ul_timeout = PMC_TIMEOUT;
 905:../asf/sam/drivers/pmc/pmc.c **** 	!(PMC->PMC_SR & (PMC_SR_PCKRDY0 << ul_id)); --ul_timeout) {
 2044              		.loc 1 905 0
 2045 0002 4FF48073 		mov	r3, #256
 903:../asf/sam/drivers/pmc/pmc.c **** 	for (ul_timeout = PMC_TIMEOUT;
 2046              		.loc 1 903 0
 2047 0006 41F00204 		orr	r4, r1, #2
 2048 000a 00F11002 		add	r2, r0, #16
 2049 000e 0C49     		ldr	r1, .L298
 2050              	.LVL140:
 2051              		.loc 1 905 0
 2052 0010 03FA00F0 		lsl	r0, r3, r0
 2053              	.LVL141:
 903:../asf/sam/drivers/pmc/pmc.c **** 	for (ul_timeout = PMC_TIMEOUT;
 2054              		.loc 1 903 0
 2055 0014 41F82240 		str	r4, [r1, r2, lsl #2]
 2056              	.LVL142:
 2057              		.loc 1 905 0
 2058 0018 8B6E     		ldr	r3, [r1, #104]
 904:../asf/sam/drivers/pmc/pmc.c **** 	!(PMC->PMC_SR & (PMC_SR_PCKRDY0 << ul_id)); --ul_timeout) {
 2059              		.loc 1 904 0
 2060 001a 0342     		tst	r3, r0
 2061 001c 07D1     		bne	.L295
 904:../asf/sam/drivers/pmc/pmc.c **** 	!(PMC->PMC_SR & (PMC_SR_PCKRDY0 << ul_id)); --ul_timeout) {
 2062              		.loc 1 904 0 is_stmt 0 discriminator 1
 2063 001e 4FF48053 		mov	r3, #4096
 2064 0022 01E0     		b	.L290
 2065              	.LVL143:
 2066              	.L291:
 906:../asf/sam/drivers/pmc/pmc.c **** 		if (ul_timeout == 0) {
ARM GAS  /tmp/ccTYR2Ee.s 			page 55


 2067              		.loc 1 906 0 is_stmt 1
 2068 0024 013B     		subs	r3, r3, #1
 2069              	.LVL144:
 2070 0026 06D0     		beq	.L297
 2071              	.LVL145:
 2072              	.L290:
 905:../asf/sam/drivers/pmc/pmc.c **** 		if (ul_timeout == 0) {
 2073              		.loc 1 905 0 discriminator 1
 2074 0028 8A6E     		ldr	r2, [r1, #104]
 904:../asf/sam/drivers/pmc/pmc.c **** 	!(PMC->PMC_SR & (PMC_SR_PCKRDY0 << ul_id)); --ul_timeout) {
 2075              		.loc 1 904 0 discriminator 1
 2076 002a 0242     		tst	r2, r0
 2077 002c FAD0     		beq	.L291
 2078              	.LVL146:
 2079              	.L295:
 907:../asf/sam/drivers/pmc/pmc.c **** 			return 1;
 908:../asf/sam/drivers/pmc/pmc.c **** 		}
 909:../asf/sam/drivers/pmc/pmc.c **** 	}
 910:../asf/sam/drivers/pmc/pmc.c **** 
 911:../asf/sam/drivers/pmc/pmc.c **** 	return 0;
 2080              		.loc 1 911 0
 2081 002e 0020     		movs	r0, #0
 912:../asf/sam/drivers/pmc/pmc.c **** }
 2082              		.loc 1 912 0
 2083 0030 5DF8044B 		ldr	r4, [sp], #4
 2084              		.cfi_remember_state
 2085              		.cfi_restore 4
 2086              		.cfi_def_cfa_offset 0
 2087 0034 7047     		bx	lr
 2088              	.LVL147:
 2089              	.L297:
 2090              		.cfi_restore_state
 907:../asf/sam/drivers/pmc/pmc.c **** 			return 1;
 2091              		.loc 1 907 0
 2092 0036 0120     		movs	r0, #1
 2093              		.loc 1 912 0
 2094 0038 5DF8044B 		ldr	r4, [sp], #4
 2095              		.cfi_restore 4
 2096              		.cfi_def_cfa_offset 0
 2097 003c 7047     		bx	lr
 2098              	.L299:
 2099 003e 00BF     		.align	2
 2100              	.L298:
 2101 0040 00060E40 		.word	1074660864
 2102              		.cfi_endproc
 2103              	.LFE179:
 2104              		.size	pmc_switch_pck_to_pllack, .-pmc_switch_pck_to_pllack
 2105              		.section	.text.pmc_switch_pck_to_upllck,"ax",%progbits
 2106              		.align	1
 2107              		.p2align 2,,3
 2108              		.global	pmc_switch_pck_to_upllck
 2109              		.syntax unified
 2110              		.thumb
 2111              		.thumb_func
 2112              		.fpu fpv5-d16
 2113              		.type	pmc_switch_pck_to_upllck, %function
 2114              	pmc_switch_pck_to_upllck:
ARM GAS  /tmp/ccTYR2Ee.s 			page 56


 2115              	.LFB180:
 913:../asf/sam/drivers/pmc/pmc.c **** 
 914:../asf/sam/drivers/pmc/pmc.c **** #if (SAM3S || SAM4S || SAM4C || SAM4CM || SAM4CP || SAMG55)
 915:../asf/sam/drivers/pmc/pmc.c **** /**
 916:../asf/sam/drivers/pmc/pmc.c ****  * \brief Switch programmable clock source selection to PLLB clock.
 917:../asf/sam/drivers/pmc/pmc.c ****  *
 918:../asf/sam/drivers/pmc/pmc.c ****  * \param ul_id Id of the programmable clock.
 919:../asf/sam/drivers/pmc/pmc.c ****  * \param ul_pres Programmable clock prescaler.
 920:../asf/sam/drivers/pmc/pmc.c ****  *
 921:../asf/sam/drivers/pmc/pmc.c ****  * \retval 0 Success.
 922:../asf/sam/drivers/pmc/pmc.c ****  * \retval 1 Timeout error.
 923:../asf/sam/drivers/pmc/pmc.c ****  */
 924:../asf/sam/drivers/pmc/pmc.c **** uint32_t pmc_switch_pck_to_pllbck(uint32_t ul_id, uint32_t ul_pres)
 925:../asf/sam/drivers/pmc/pmc.c **** {
 926:../asf/sam/drivers/pmc/pmc.c **** 	uint32_t ul_timeout;
 927:../asf/sam/drivers/pmc/pmc.c **** 
 928:../asf/sam/drivers/pmc/pmc.c **** 	PMC->PMC_PCK[ul_id] = PMC_PCK_CSS_PLLB_CLK | ul_pres;
 929:../asf/sam/drivers/pmc/pmc.c **** 	for (ul_timeout = PMC_TIMEOUT;
 930:../asf/sam/drivers/pmc/pmc.c **** 			!(PMC->PMC_SR & (PMC_SR_PCKRDY0 << ul_id));
 931:../asf/sam/drivers/pmc/pmc.c **** 			--ul_timeout) {
 932:../asf/sam/drivers/pmc/pmc.c **** 		if (ul_timeout == 0) {
 933:../asf/sam/drivers/pmc/pmc.c **** 			return 1;
 934:../asf/sam/drivers/pmc/pmc.c **** 		}
 935:../asf/sam/drivers/pmc/pmc.c **** 	}
 936:../asf/sam/drivers/pmc/pmc.c **** 
 937:../asf/sam/drivers/pmc/pmc.c **** 	return 0;
 938:../asf/sam/drivers/pmc/pmc.c **** }
 939:../asf/sam/drivers/pmc/pmc.c **** #endif
 940:../asf/sam/drivers/pmc/pmc.c **** 
 941:../asf/sam/drivers/pmc/pmc.c **** #if (SAM3XA || SAM3U || SAMV71 || SAMV70 || SAME70 || SAMS70)
 942:../asf/sam/drivers/pmc/pmc.c **** /**
 943:../asf/sam/drivers/pmc/pmc.c ****  * \brief Switch programmable clock source selection to UPLL clock.
 944:../asf/sam/drivers/pmc/pmc.c ****  *
 945:../asf/sam/drivers/pmc/pmc.c ****  * \param ul_id Id of the programmable clock.
 946:../asf/sam/drivers/pmc/pmc.c ****  * \param ul_pres Programmable clock prescaler.
 947:../asf/sam/drivers/pmc/pmc.c ****  *
 948:../asf/sam/drivers/pmc/pmc.c ****  * \retval 0 Success.
 949:../asf/sam/drivers/pmc/pmc.c ****  * \retval 1 Timeout error.
 950:../asf/sam/drivers/pmc/pmc.c ****  */
 951:../asf/sam/drivers/pmc/pmc.c **** uint32_t pmc_switch_pck_to_upllck(uint32_t ul_id, uint32_t ul_pres)
 952:../asf/sam/drivers/pmc/pmc.c **** {
 2116              		.loc 1 952 0
 2117              		.cfi_startproc
 2118              		@ args = 0, pretend = 0, frame = 0
 2119              		@ frame_needed = 0, uses_anonymous_args = 0
 2120              		@ link register save eliminated.
 2121              	.LVL148:
 2122 0000 10B4     		push	{r4}
 2123              		.cfi_def_cfa_offset 4
 2124              		.cfi_offset 4, -4
 953:../asf/sam/drivers/pmc/pmc.c **** 	uint32_t ul_timeout;
 954:../asf/sam/drivers/pmc/pmc.c **** 
 955:../asf/sam/drivers/pmc/pmc.c **** 	PMC->PMC_PCK[ul_id] = PMC_PCK_CSS_UPLL_CLK | ul_pres;
 956:../asf/sam/drivers/pmc/pmc.c **** 	for (ul_timeout = PMC_TIMEOUT;
 957:../asf/sam/drivers/pmc/pmc.c **** 			!(PMC->PMC_SR & (PMC_SR_PCKRDY0 << ul_id));
 2125              		.loc 1 957 0
 2126 0002 4FF48073 		mov	r3, #256
ARM GAS  /tmp/ccTYR2Ee.s 			page 57


 955:../asf/sam/drivers/pmc/pmc.c **** 	for (ul_timeout = PMC_TIMEOUT;
 2127              		.loc 1 955 0
 2128 0006 41F00304 		orr	r4, r1, #3
 2129 000a 00F11002 		add	r2, r0, #16
 2130 000e 0C49     		ldr	r1, .L311
 2131              	.LVL149:
 2132              		.loc 1 957 0
 2133 0010 03FA00F0 		lsl	r0, r3, r0
 2134              	.LVL150:
 955:../asf/sam/drivers/pmc/pmc.c **** 	for (ul_timeout = PMC_TIMEOUT;
 2135              		.loc 1 955 0
 2136 0014 41F82240 		str	r4, [r1, r2, lsl #2]
 2137              	.LVL151:
 2138              		.loc 1 957 0
 2139 0018 8B6E     		ldr	r3, [r1, #104]
 956:../asf/sam/drivers/pmc/pmc.c **** 			!(PMC->PMC_SR & (PMC_SR_PCKRDY0 << ul_id));
 2140              		.loc 1 956 0
 2141 001a 0342     		tst	r3, r0
 2142 001c 07D1     		bne	.L308
 2143 001e 4FF48053 		mov	r3, #4096
 2144 0022 01E0     		b	.L303
 2145              	.LVL152:
 2146              	.L304:
 958:../asf/sam/drivers/pmc/pmc.c **** 			--ul_timeout) {
 959:../asf/sam/drivers/pmc/pmc.c **** 		if (ul_timeout == 0) {
 2147              		.loc 1 959 0
 2148 0024 013B     		subs	r3, r3, #1
 2149              	.LVL153:
 2150 0026 06D0     		beq	.L310
 2151              	.LVL154:
 2152              	.L303:
 957:../asf/sam/drivers/pmc/pmc.c **** 			--ul_timeout) {
 2153              		.loc 1 957 0
 2154 0028 8A6E     		ldr	r2, [r1, #104]
 956:../asf/sam/drivers/pmc/pmc.c **** 			!(PMC->PMC_SR & (PMC_SR_PCKRDY0 << ul_id));
 2155              		.loc 1 956 0
 2156 002a 0242     		tst	r2, r0
 2157 002c FAD0     		beq	.L304
 2158              	.LVL155:
 2159              	.L308:
 960:../asf/sam/drivers/pmc/pmc.c **** 			return 1;
 961:../asf/sam/drivers/pmc/pmc.c **** 		}
 962:../asf/sam/drivers/pmc/pmc.c **** 	}
 963:../asf/sam/drivers/pmc/pmc.c **** 
 964:../asf/sam/drivers/pmc/pmc.c **** 	return 0;
 2160              		.loc 1 964 0
 2161 002e 0020     		movs	r0, #0
 965:../asf/sam/drivers/pmc/pmc.c **** }
 2162              		.loc 1 965 0
 2163 0030 5DF8044B 		ldr	r4, [sp], #4
 2164              		.cfi_remember_state
 2165              		.cfi_restore 4
 2166              		.cfi_def_cfa_offset 0
 2167 0034 7047     		bx	lr
 2168              	.LVL156:
 2169              	.L310:
 2170              		.cfi_restore_state
ARM GAS  /tmp/ccTYR2Ee.s 			page 58


 960:../asf/sam/drivers/pmc/pmc.c **** 			return 1;
 2171              		.loc 1 960 0
 2172 0036 0120     		movs	r0, #1
 2173              		.loc 1 965 0
 2174 0038 5DF8044B 		ldr	r4, [sp], #4
 2175              		.cfi_restore 4
 2176              		.cfi_def_cfa_offset 0
 2177 003c 7047     		bx	lr
 2178              	.L312:
 2179 003e 00BF     		.align	2
 2180              	.L311:
 2181 0040 00060E40 		.word	1074660864
 2182              		.cfi_endproc
 2183              	.LFE180:
 2184              		.size	pmc_switch_pck_to_upllck, .-pmc_switch_pck_to_upllck
 2185              		.section	.text.pmc_switch_pck_to_mck,"ax",%progbits
 2186              		.align	1
 2187              		.p2align 2,,3
 2188              		.global	pmc_switch_pck_to_mck
 2189              		.syntax unified
 2190              		.thumb
 2191              		.thumb_func
 2192              		.fpu fpv5-d16
 2193              		.type	pmc_switch_pck_to_mck, %function
 2194              	pmc_switch_pck_to_mck:
 2195              	.LFB181:
 966:../asf/sam/drivers/pmc/pmc.c **** #endif
 967:../asf/sam/drivers/pmc/pmc.c **** 
 968:../asf/sam/drivers/pmc/pmc.c **** /**
 969:../asf/sam/drivers/pmc/pmc.c ****  * \brief Switch programmable clock source selection to mck.
 970:../asf/sam/drivers/pmc/pmc.c ****  *
 971:../asf/sam/drivers/pmc/pmc.c ****  * \param ul_id Id of the programmable clock.
 972:../asf/sam/drivers/pmc/pmc.c ****  * \param ul_pres Programmable clock prescaler.
 973:../asf/sam/drivers/pmc/pmc.c ****  *
 974:../asf/sam/drivers/pmc/pmc.c ****  * \retval 0 Success.
 975:../asf/sam/drivers/pmc/pmc.c ****  * \retval 1 Timeout error.
 976:../asf/sam/drivers/pmc/pmc.c ****  */
 977:../asf/sam/drivers/pmc/pmc.c **** uint32_t pmc_switch_pck_to_mck(uint32_t ul_id, uint32_t ul_pres)
 978:../asf/sam/drivers/pmc/pmc.c **** {
 2196              		.loc 1 978 0
 2197              		.cfi_startproc
 2198              		@ args = 0, pretend = 0, frame = 0
 2199              		@ frame_needed = 0, uses_anonymous_args = 0
 2200              		@ link register save eliminated.
 2201              	.LVL157:
 2202 0000 10B4     		push	{r4}
 2203              		.cfi_def_cfa_offset 4
 2204              		.cfi_offset 4, -4
 979:../asf/sam/drivers/pmc/pmc.c **** 	uint32_t ul_timeout;
 980:../asf/sam/drivers/pmc/pmc.c **** 
 981:../asf/sam/drivers/pmc/pmc.c **** 	PMC->PMC_PCK[ul_id] = PMC_PCK_CSS_MCK | ul_pres;
 982:../asf/sam/drivers/pmc/pmc.c **** 	for (ul_timeout = PMC_TIMEOUT;
 983:../asf/sam/drivers/pmc/pmc.c **** 	!(PMC->PMC_SR & (PMC_SR_PCKRDY0 << ul_id)); --ul_timeout) {
 2205              		.loc 1 983 0
 2206 0002 4FF48073 		mov	r3, #256
 981:../asf/sam/drivers/pmc/pmc.c **** 	for (ul_timeout = PMC_TIMEOUT;
 2207              		.loc 1 981 0
ARM GAS  /tmp/ccTYR2Ee.s 			page 59


 2208 0006 41F00404 		orr	r4, r1, #4
 2209 000a 00F11002 		add	r2, r0, #16
 2210 000e 0C49     		ldr	r1, .L324
 2211              	.LVL158:
 2212              		.loc 1 983 0
 2213 0010 03FA00F0 		lsl	r0, r3, r0
 2214              	.LVL159:
 981:../asf/sam/drivers/pmc/pmc.c **** 	for (ul_timeout = PMC_TIMEOUT;
 2215              		.loc 1 981 0
 2216 0014 41F82240 		str	r4, [r1, r2, lsl #2]
 2217              	.LVL160:
 2218              		.loc 1 983 0
 2219 0018 8B6E     		ldr	r3, [r1, #104]
 982:../asf/sam/drivers/pmc/pmc.c **** 	!(PMC->PMC_SR & (PMC_SR_PCKRDY0 << ul_id)); --ul_timeout) {
 2220              		.loc 1 982 0
 2221 001a 0342     		tst	r3, r0
 2222 001c 07D1     		bne	.L321
 982:../asf/sam/drivers/pmc/pmc.c **** 	!(PMC->PMC_SR & (PMC_SR_PCKRDY0 << ul_id)); --ul_timeout) {
 2223              		.loc 1 982 0 is_stmt 0 discriminator 1
 2224 001e 4FF48053 		mov	r3, #4096
 2225 0022 01E0     		b	.L316
 2226              	.LVL161:
 2227              	.L317:
 984:../asf/sam/drivers/pmc/pmc.c **** 		if (ul_timeout == 0) {
 2228              		.loc 1 984 0 is_stmt 1
 2229 0024 013B     		subs	r3, r3, #1
 2230              	.LVL162:
 2231 0026 06D0     		beq	.L323
 2232              	.LVL163:
 2233              	.L316:
 983:../asf/sam/drivers/pmc/pmc.c **** 		if (ul_timeout == 0) {
 2234              		.loc 1 983 0 discriminator 1
 2235 0028 8A6E     		ldr	r2, [r1, #104]
 982:../asf/sam/drivers/pmc/pmc.c **** 	!(PMC->PMC_SR & (PMC_SR_PCKRDY0 << ul_id)); --ul_timeout) {
 2236              		.loc 1 982 0 discriminator 1
 2237 002a 0242     		tst	r2, r0
 2238 002c FAD0     		beq	.L317
 2239              	.LVL164:
 2240              	.L321:
 985:../asf/sam/drivers/pmc/pmc.c **** 			return 1;
 986:../asf/sam/drivers/pmc/pmc.c **** 		}
 987:../asf/sam/drivers/pmc/pmc.c **** 	}
 988:../asf/sam/drivers/pmc/pmc.c **** 
 989:../asf/sam/drivers/pmc/pmc.c **** 	return 0;
 2241              		.loc 1 989 0
 2242 002e 0020     		movs	r0, #0
 990:../asf/sam/drivers/pmc/pmc.c **** }
 2243              		.loc 1 990 0
 2244 0030 5DF8044B 		ldr	r4, [sp], #4
 2245              		.cfi_remember_state
 2246              		.cfi_restore 4
 2247              		.cfi_def_cfa_offset 0
 2248 0034 7047     		bx	lr
 2249              	.LVL165:
 2250              	.L323:
 2251              		.cfi_restore_state
 985:../asf/sam/drivers/pmc/pmc.c **** 			return 1;
ARM GAS  /tmp/ccTYR2Ee.s 			page 60


 2252              		.loc 1 985 0
 2253 0036 0120     		movs	r0, #1
 2254              		.loc 1 990 0
 2255 0038 5DF8044B 		ldr	r4, [sp], #4
 2256              		.cfi_restore 4
 2257              		.cfi_def_cfa_offset 0
 2258 003c 7047     		bx	lr
 2259              	.L325:
 2260 003e 00BF     		.align	2
 2261              	.L324:
 2262 0040 00060E40 		.word	1074660864
 2263              		.cfi_endproc
 2264              	.LFE181:
 2265              		.size	pmc_switch_pck_to_mck, .-pmc_switch_pck_to_mck
 2266              		.section	.text.pmc_enable_pck,"ax",%progbits
 2267              		.align	1
 2268              		.p2align 2,,3
 2269              		.global	pmc_enable_pck
 2270              		.syntax unified
 2271              		.thumb
 2272              		.thumb_func
 2273              		.fpu fpv5-d16
 2274              		.type	pmc_enable_pck, %function
 2275              	pmc_enable_pck:
 2276              	.LFB182:
 991:../asf/sam/drivers/pmc/pmc.c **** 
 992:../asf/sam/drivers/pmc/pmc.c **** /**
 993:../asf/sam/drivers/pmc/pmc.c ****  * \brief Enable the specified programmable clock.
 994:../asf/sam/drivers/pmc/pmc.c ****  *
 995:../asf/sam/drivers/pmc/pmc.c ****  * \param ul_id Id of the programmable clock.
 996:../asf/sam/drivers/pmc/pmc.c ****  */
 997:../asf/sam/drivers/pmc/pmc.c **** void pmc_enable_pck(uint32_t ul_id)
 998:../asf/sam/drivers/pmc/pmc.c **** {
 2277              		.loc 1 998 0
 2278              		.cfi_startproc
 2279              		@ args = 0, pretend = 0, frame = 0
 2280              		@ frame_needed = 0, uses_anonymous_args = 0
 2281              		@ link register save eliminated.
 2282              	.LVL166:
 999:../asf/sam/drivers/pmc/pmc.c **** 	PMC->PMC_SCER = PMC_SCER_PCK0 << ul_id;
 2283              		.loc 1 999 0
 2284 0000 4FF48073 		mov	r3, #256
 2285 0004 024A     		ldr	r2, .L327
 2286 0006 03FA00F0 		lsl	r0, r3, r0
 2287              	.LVL167:
 2288 000a 1060     		str	r0, [r2]
 2289 000c 7047     		bx	lr
 2290              	.L328:
 2291 000e 00BF     		.align	2
 2292              	.L327:
 2293 0010 00060E40 		.word	1074660864
 2294              		.cfi_endproc
 2295              	.LFE182:
 2296              		.size	pmc_enable_pck, .-pmc_enable_pck
 2297              		.section	.text.pmc_disable_pck,"ax",%progbits
 2298              		.align	1
 2299              		.p2align 2,,3
ARM GAS  /tmp/ccTYR2Ee.s 			page 61


 2300              		.global	pmc_disable_pck
 2301              		.syntax unified
 2302              		.thumb
 2303              		.thumb_func
 2304              		.fpu fpv5-d16
 2305              		.type	pmc_disable_pck, %function
 2306              	pmc_disable_pck:
 2307              	.LFB183:
1000:../asf/sam/drivers/pmc/pmc.c **** }
1001:../asf/sam/drivers/pmc/pmc.c **** 
1002:../asf/sam/drivers/pmc/pmc.c **** /**
1003:../asf/sam/drivers/pmc/pmc.c ****  * \brief Disable the specified programmable clock.
1004:../asf/sam/drivers/pmc/pmc.c ****  *
1005:../asf/sam/drivers/pmc/pmc.c ****  * \param ul_id Id of the programmable clock.
1006:../asf/sam/drivers/pmc/pmc.c ****  */
1007:../asf/sam/drivers/pmc/pmc.c **** void pmc_disable_pck(uint32_t ul_id)
1008:../asf/sam/drivers/pmc/pmc.c **** {
 2308              		.loc 1 1008 0
 2309              		.cfi_startproc
 2310              		@ args = 0, pretend = 0, frame = 0
 2311              		@ frame_needed = 0, uses_anonymous_args = 0
 2312              		@ link register save eliminated.
 2313              	.LVL168:
1009:../asf/sam/drivers/pmc/pmc.c **** 	PMC->PMC_SCDR = PMC_SCER_PCK0 << ul_id;
 2314              		.loc 1 1009 0
 2315 0000 4FF48073 		mov	r3, #256
 2316 0004 024A     		ldr	r2, .L330
 2317 0006 03FA00F0 		lsl	r0, r3, r0
 2318              	.LVL169:
 2319 000a 5060     		str	r0, [r2, #4]
 2320 000c 7047     		bx	lr
 2321              	.L331:
 2322 000e 00BF     		.align	2
 2323              	.L330:
 2324 0010 00060E40 		.word	1074660864
 2325              		.cfi_endproc
 2326              	.LFE183:
 2327              		.size	pmc_disable_pck, .-pmc_disable_pck
 2328              		.section	.text.pmc_enable_all_pck,"ax",%progbits
 2329              		.align	1
 2330              		.p2align 2,,3
 2331              		.global	pmc_enable_all_pck
 2332              		.syntax unified
 2333              		.thumb
 2334              		.thumb_func
 2335              		.fpu fpv5-d16
 2336              		.type	pmc_enable_all_pck, %function
 2337              	pmc_enable_all_pck:
 2338              	.LFB184:
1010:../asf/sam/drivers/pmc/pmc.c **** }
1011:../asf/sam/drivers/pmc/pmc.c **** 
1012:../asf/sam/drivers/pmc/pmc.c **** /**
1013:../asf/sam/drivers/pmc/pmc.c ****  * \brief Enable all programmable clocks.
1014:../asf/sam/drivers/pmc/pmc.c ****  */
1015:../asf/sam/drivers/pmc/pmc.c **** void pmc_enable_all_pck(void)
1016:../asf/sam/drivers/pmc/pmc.c **** {
 2339              		.loc 1 1016 0
ARM GAS  /tmp/ccTYR2Ee.s 			page 62


 2340              		.cfi_startproc
 2341              		@ args = 0, pretend = 0, frame = 0
 2342              		@ frame_needed = 0, uses_anonymous_args = 0
 2343              		@ link register save eliminated.
1017:../asf/sam/drivers/pmc/pmc.c **** 	PMC->PMC_SCER = PMC_SCER_PCK0 | PMC_SCER_PCK1 | PMC_SCER_PCK2;
 2344              		.loc 1 1017 0
 2345 0000 024B     		ldr	r3, .L333
 2346 0002 4FF4E062 		mov	r2, #1792
 2347 0006 1A60     		str	r2, [r3]
 2348 0008 7047     		bx	lr
 2349              	.L334:
 2350 000a 00BF     		.align	2
 2351              	.L333:
 2352 000c 00060E40 		.word	1074660864
 2353              		.cfi_endproc
 2354              	.LFE184:
 2355              		.size	pmc_enable_all_pck, .-pmc_enable_all_pck
 2356              		.section	.text.pmc_disable_all_pck,"ax",%progbits
 2357              		.align	1
 2358              		.p2align 2,,3
 2359              		.global	pmc_disable_all_pck
 2360              		.syntax unified
 2361              		.thumb
 2362              		.thumb_func
 2363              		.fpu fpv5-d16
 2364              		.type	pmc_disable_all_pck, %function
 2365              	pmc_disable_all_pck:
 2366              	.LFB185:
1018:../asf/sam/drivers/pmc/pmc.c **** }
1019:../asf/sam/drivers/pmc/pmc.c **** 
1020:../asf/sam/drivers/pmc/pmc.c **** /**
1021:../asf/sam/drivers/pmc/pmc.c ****  * \brief Disable all programmable clocks.
1022:../asf/sam/drivers/pmc/pmc.c ****  */
1023:../asf/sam/drivers/pmc/pmc.c **** void pmc_disable_all_pck(void)
1024:../asf/sam/drivers/pmc/pmc.c **** {
 2367              		.loc 1 1024 0
 2368              		.cfi_startproc
 2369              		@ args = 0, pretend = 0, frame = 0
 2370              		@ frame_needed = 0, uses_anonymous_args = 0
 2371              		@ link register save eliminated.
1025:../asf/sam/drivers/pmc/pmc.c **** 	PMC->PMC_SCDR = PMC_SCDR_PCK0 | PMC_SCDR_PCK1 | PMC_SCDR_PCK2;
 2372              		.loc 1 1025 0
 2373 0000 024B     		ldr	r3, .L336
 2374 0002 4FF4E062 		mov	r2, #1792
 2375 0006 5A60     		str	r2, [r3, #4]
 2376 0008 7047     		bx	lr
 2377              	.L337:
 2378 000a 00BF     		.align	2
 2379              	.L336:
 2380 000c 00060E40 		.word	1074660864
 2381              		.cfi_endproc
 2382              	.LFE185:
 2383              		.size	pmc_disable_all_pck, .-pmc_disable_all_pck
 2384              		.section	.text.pmc_is_pck_enabled,"ax",%progbits
 2385              		.align	1
 2386              		.p2align 2,,3
 2387              		.global	pmc_is_pck_enabled
ARM GAS  /tmp/ccTYR2Ee.s 			page 63


 2388              		.syntax unified
 2389              		.thumb
 2390              		.thumb_func
 2391              		.fpu fpv5-d16
 2392              		.type	pmc_is_pck_enabled, %function
 2393              	pmc_is_pck_enabled:
 2394              	.LFB186:
1026:../asf/sam/drivers/pmc/pmc.c **** }
1027:../asf/sam/drivers/pmc/pmc.c **** 
1028:../asf/sam/drivers/pmc/pmc.c **** /**
1029:../asf/sam/drivers/pmc/pmc.c ****  * \brief Check if the specified programmable clock is enabled.
1030:../asf/sam/drivers/pmc/pmc.c ****  *
1031:../asf/sam/drivers/pmc/pmc.c ****  * \param ul_id Id of the programmable clock.
1032:../asf/sam/drivers/pmc/pmc.c ****  *
1033:../asf/sam/drivers/pmc/pmc.c ****  * \retval 0 Programmable clock is disabled or unknown.
1034:../asf/sam/drivers/pmc/pmc.c ****  * \retval 1 Programmable clock is enabled.
1035:../asf/sam/drivers/pmc/pmc.c ****  */
1036:../asf/sam/drivers/pmc/pmc.c **** uint32_t pmc_is_pck_enabled(uint32_t ul_id)
1037:../asf/sam/drivers/pmc/pmc.c **** {
 2395              		.loc 1 1037 0
 2396              		.cfi_startproc
 2397              		@ args = 0, pretend = 0, frame = 0
 2398              		@ frame_needed = 0, uses_anonymous_args = 0
 2399              		@ link register save eliminated.
 2400              	.LVL170:
1038:../asf/sam/drivers/pmc/pmc.c **** 	if (ul_id > 2) {
 2401              		.loc 1 1038 0
 2402 0000 0228     		cmp	r0, #2
 2403 0002 07D8     		bhi	.L340
1039:../asf/sam/drivers/pmc/pmc.c **** 		return 0;
1040:../asf/sam/drivers/pmc/pmc.c **** 	}
1041:../asf/sam/drivers/pmc/pmc.c **** 
1042:../asf/sam/drivers/pmc/pmc.c **** 	return (PMC->PMC_SCSR & (PMC_SCSR_PCK0 << ul_id));
 2404              		.loc 1 1042 0
 2405 0004 4FF48073 		mov	r3, #256
 2406 0008 034A     		ldr	r2, .L341
 2407 000a 03FA00F0 		lsl	r0, r3, r0
 2408              	.LVL171:
 2409 000e 9268     		ldr	r2, [r2, #8]
 2410 0010 1040     		ands	r0, r0, r2
 2411 0012 7047     		bx	lr
 2412              	.LVL172:
 2413              	.L340:
1039:../asf/sam/drivers/pmc/pmc.c **** 		return 0;
 2414              		.loc 1 1039 0
 2415 0014 0020     		movs	r0, #0
 2416              	.LVL173:
1043:../asf/sam/drivers/pmc/pmc.c **** }
 2417              		.loc 1 1043 0
 2418 0016 7047     		bx	lr
 2419              	.L342:
 2420              		.align	2
 2421              	.L341:
 2422 0018 00060E40 		.word	1074660864
 2423              		.cfi_endproc
 2424              	.LFE186:
 2425              		.size	pmc_is_pck_enabled, .-pmc_is_pck_enabled
ARM GAS  /tmp/ccTYR2Ee.s 			page 64


 2426              		.section	.text.pmc_switch_udpck_to_pllack,"ax",%progbits
 2427              		.align	1
 2428              		.p2align 2,,3
 2429              		.global	pmc_switch_udpck_to_pllack
 2430              		.syntax unified
 2431              		.thumb
 2432              		.thumb_func
 2433              		.fpu fpv5-d16
 2434              		.type	pmc_switch_udpck_to_pllack, %function
 2435              	pmc_switch_udpck_to_pllack:
 2436              	.LFB187:
1044:../asf/sam/drivers/pmc/pmc.c **** 
1045:../asf/sam/drivers/pmc/pmc.c **** #if (SAM4C || SAM4CM || SAM4CP)
1046:../asf/sam/drivers/pmc/pmc.c **** /**
1047:../asf/sam/drivers/pmc/pmc.c ****  * \brief Enable Coprocessor Clocks.
1048:../asf/sam/drivers/pmc/pmc.c ****  */
1049:../asf/sam/drivers/pmc/pmc.c **** void pmc_enable_cpck(void)
1050:../asf/sam/drivers/pmc/pmc.c **** {
1051:../asf/sam/drivers/pmc/pmc.c **** 	PMC->PMC_SCER = PMC_SCER_CPCK | PMC_SCER_CPKEY_PASSWD;
1052:../asf/sam/drivers/pmc/pmc.c **** }
1053:../asf/sam/drivers/pmc/pmc.c **** 
1054:../asf/sam/drivers/pmc/pmc.c **** /**
1055:../asf/sam/drivers/pmc/pmc.c ****  * \brief Disable Coprocessor Clocks.
1056:../asf/sam/drivers/pmc/pmc.c ****  */
1057:../asf/sam/drivers/pmc/pmc.c **** void pmc_disable_cpck(void)
1058:../asf/sam/drivers/pmc/pmc.c **** {
1059:../asf/sam/drivers/pmc/pmc.c **** 	PMC->PMC_SCDR = PMC_SCDR_CPCK | PMC_SCDR_CPKEY_PASSWD;
1060:../asf/sam/drivers/pmc/pmc.c **** }
1061:../asf/sam/drivers/pmc/pmc.c **** 
1062:../asf/sam/drivers/pmc/pmc.c **** /**
1063:../asf/sam/drivers/pmc/pmc.c ****  * \brief Check if the Coprocessor Clocks is enabled.
1064:../asf/sam/drivers/pmc/pmc.c ****  *
1065:../asf/sam/drivers/pmc/pmc.c ****  * \retval 0 Coprocessor Clocks is disabled.
1066:../asf/sam/drivers/pmc/pmc.c ****  * \retval 1 Coprocessor Clocks is enabled.
1067:../asf/sam/drivers/pmc/pmc.c ****  */
1068:../asf/sam/drivers/pmc/pmc.c **** bool pmc_is_cpck_enabled(void)
1069:../asf/sam/drivers/pmc/pmc.c **** {
1070:../asf/sam/drivers/pmc/pmc.c **** 	if(PMC->PMC_SCSR & PMC_SCSR_CPCK) {
1071:../asf/sam/drivers/pmc/pmc.c **** 		return 1;
1072:../asf/sam/drivers/pmc/pmc.c **** 	} else {
1073:../asf/sam/drivers/pmc/pmc.c **** 		return 0;
1074:../asf/sam/drivers/pmc/pmc.c **** 	}
1075:../asf/sam/drivers/pmc/pmc.c **** }
1076:../asf/sam/drivers/pmc/pmc.c **** 
1077:../asf/sam/drivers/pmc/pmc.c **** /**
1078:../asf/sam/drivers/pmc/pmc.c ****  * \brief Enable Coprocessor Bus Master Clocks.
1079:../asf/sam/drivers/pmc/pmc.c ****  */
1080:../asf/sam/drivers/pmc/pmc.c **** void pmc_enable_cpbmck(void)
1081:../asf/sam/drivers/pmc/pmc.c **** {
1082:../asf/sam/drivers/pmc/pmc.c **** 	PMC->PMC_SCER = PMC_SCER_CPBMCK | PMC_SCER_CPKEY_PASSWD;
1083:../asf/sam/drivers/pmc/pmc.c **** }
1084:../asf/sam/drivers/pmc/pmc.c **** 
1085:../asf/sam/drivers/pmc/pmc.c **** /**
1086:../asf/sam/drivers/pmc/pmc.c ****  * \brief Disable Coprocessor Bus Master Clocks.
1087:../asf/sam/drivers/pmc/pmc.c ****  */
1088:../asf/sam/drivers/pmc/pmc.c **** void pmc_disable_cpbmck(void)
1089:../asf/sam/drivers/pmc/pmc.c **** {
ARM GAS  /tmp/ccTYR2Ee.s 			page 65


1090:../asf/sam/drivers/pmc/pmc.c **** 	PMC->PMC_SCDR = PMC_SCDR_CPBMCK | PMC_SCDR_CPKEY_PASSWD;
1091:../asf/sam/drivers/pmc/pmc.c **** }
1092:../asf/sam/drivers/pmc/pmc.c **** 
1093:../asf/sam/drivers/pmc/pmc.c **** /**
1094:../asf/sam/drivers/pmc/pmc.c ****  * \brief Check if the Coprocessor Bus Master Clocks is enabled.
1095:../asf/sam/drivers/pmc/pmc.c ****  *
1096:../asf/sam/drivers/pmc/pmc.c ****  * \retval 0 Coprocessor Bus Master Clocks is disabled.
1097:../asf/sam/drivers/pmc/pmc.c ****  * \retval 1 Coprocessor Bus Master Clocks is enabled.
1098:../asf/sam/drivers/pmc/pmc.c ****  */
1099:../asf/sam/drivers/pmc/pmc.c **** bool pmc_is_cpbmck_enabled(void)
1100:../asf/sam/drivers/pmc/pmc.c **** {
1101:../asf/sam/drivers/pmc/pmc.c **** 	if(PMC->PMC_SCSR & PMC_SCSR_CPBMCK) {
1102:../asf/sam/drivers/pmc/pmc.c **** 		return 1;
1103:../asf/sam/drivers/pmc/pmc.c **** 	} else {
1104:../asf/sam/drivers/pmc/pmc.c **** 		return 0;
1105:../asf/sam/drivers/pmc/pmc.c **** 	}
1106:../asf/sam/drivers/pmc/pmc.c **** }
1107:../asf/sam/drivers/pmc/pmc.c **** 
1108:../asf/sam/drivers/pmc/pmc.c **** /**
1109:../asf/sam/drivers/pmc/pmc.c ****  * \brief Set the prescaler for the Coprocessor Master Clock.
1110:../asf/sam/drivers/pmc/pmc.c ****  *
1111:../asf/sam/drivers/pmc/pmc.c ****  * \param ul_pres Prescaler value.
1112:../asf/sam/drivers/pmc/pmc.c ****  */
1113:../asf/sam/drivers/pmc/pmc.c **** void pmc_cpck_set_prescaler(uint32_t ul_pres)
1114:../asf/sam/drivers/pmc/pmc.c **** {
1115:../asf/sam/drivers/pmc/pmc.c **** 	PMC->PMC_MCKR =
1116:../asf/sam/drivers/pmc/pmc.c **** 			(PMC->PMC_MCKR & (~PMC_MCKR_CPPRES_Msk)) | PMC_MCKR_CPPRES(ul_pres);
1117:../asf/sam/drivers/pmc/pmc.c **** }
1118:../asf/sam/drivers/pmc/pmc.c **** 
1119:../asf/sam/drivers/pmc/pmc.c **** /**
1120:../asf/sam/drivers/pmc/pmc.c ****  * \brief Set the source for the Coprocessor Master Clock.
1121:../asf/sam/drivers/pmc/pmc.c ****  *
1122:../asf/sam/drivers/pmc/pmc.c ****  * \param ul_source Source selection value.
1123:../asf/sam/drivers/pmc/pmc.c ****  */
1124:../asf/sam/drivers/pmc/pmc.c **** void pmc_cpck_set_source(uint32_t ul_source)
1125:../asf/sam/drivers/pmc/pmc.c **** {
1126:../asf/sam/drivers/pmc/pmc.c **** 	PMC->PMC_MCKR =
1127:../asf/sam/drivers/pmc/pmc.c **** 			(PMC->PMC_MCKR & (~PMC_MCKR_CPCSS_Msk)) | ul_source;
1128:../asf/sam/drivers/pmc/pmc.c **** }
1129:../asf/sam/drivers/pmc/pmc.c **** #endif
1130:../asf/sam/drivers/pmc/pmc.c **** 
1131:../asf/sam/drivers/pmc/pmc.c **** #if (SAM3S || SAM3XA || SAM4S || SAM4E || SAMG55 || SAMV71 || SAMV70 || SAME70 || SAMS70)
1132:../asf/sam/drivers/pmc/pmc.c **** /**
1133:../asf/sam/drivers/pmc/pmc.c ****  * \brief Switch UDP (USB) clock source selection to PLLA clock.
1134:../asf/sam/drivers/pmc/pmc.c ****  *
1135:../asf/sam/drivers/pmc/pmc.c ****  * \param ul_usbdiv Clock divisor.
1136:../asf/sam/drivers/pmc/pmc.c ****  */
1137:../asf/sam/drivers/pmc/pmc.c **** void pmc_switch_udpck_to_pllack(uint32_t ul_usbdiv)
1138:../asf/sam/drivers/pmc/pmc.c **** {
 2437              		.loc 1 1138 0
 2438              		.cfi_startproc
 2439              		@ args = 0, pretend = 0, frame = 0
 2440              		@ frame_needed = 0, uses_anonymous_args = 0
 2441              		@ link register save eliminated.
 2442              	.LVL174:
1139:../asf/sam/drivers/pmc/pmc.c **** 	PMC->PMC_USB = PMC_USB_USBDIV(ul_usbdiv);
 2443              		.loc 1 1139 0
ARM GAS  /tmp/ccTYR2Ee.s 			page 66


 2444 0000 0002     		lsls	r0, r0, #8
 2445              	.LVL175:
 2446 0002 024B     		ldr	r3, .L344
 2447 0004 00F47060 		and	r0, r0, #3840
 2448 0008 9863     		str	r0, [r3, #56]
 2449 000a 7047     		bx	lr
 2450              	.L345:
 2451              		.align	2
 2452              	.L344:
 2453 000c 00060E40 		.word	1074660864
 2454              		.cfi_endproc
 2455              	.LFE187:
 2456              		.size	pmc_switch_udpck_to_pllack, .-pmc_switch_udpck_to_pllack
 2457              		.section	.text.pmc_switch_udpck_to_upllck,"ax",%progbits
 2458              		.align	1
 2459              		.p2align 2,,3
 2460              		.global	pmc_switch_udpck_to_upllck
 2461              		.syntax unified
 2462              		.thumb
 2463              		.thumb_func
 2464              		.fpu fpv5-d16
 2465              		.type	pmc_switch_udpck_to_upllck, %function
 2466              	pmc_switch_udpck_to_upllck:
 2467              	.LFB188:
1140:../asf/sam/drivers/pmc/pmc.c **** }
1141:../asf/sam/drivers/pmc/pmc.c **** #endif
1142:../asf/sam/drivers/pmc/pmc.c **** 
1143:../asf/sam/drivers/pmc/pmc.c **** #if (SAM3S || SAM4S || SAMG55)
1144:../asf/sam/drivers/pmc/pmc.c **** /**
1145:../asf/sam/drivers/pmc/pmc.c ****  * \brief Switch UDP (USB) clock source selection to PLLB clock.
1146:../asf/sam/drivers/pmc/pmc.c ****  *
1147:../asf/sam/drivers/pmc/pmc.c ****  * \param ul_usbdiv Clock divisor.
1148:../asf/sam/drivers/pmc/pmc.c ****  */
1149:../asf/sam/drivers/pmc/pmc.c **** void pmc_switch_udpck_to_pllbck(uint32_t ul_usbdiv)
1150:../asf/sam/drivers/pmc/pmc.c **** {
1151:../asf/sam/drivers/pmc/pmc.c **** 	PMC->PMC_USB = PMC_USB_USBDIV(ul_usbdiv) | PMC_USB_USBS;
1152:../asf/sam/drivers/pmc/pmc.c **** }
1153:../asf/sam/drivers/pmc/pmc.c **** #endif
1154:../asf/sam/drivers/pmc/pmc.c **** 
1155:../asf/sam/drivers/pmc/pmc.c **** #if (SAM3XA || SAMV71 || SAMV70 || SAME70 || SAMS70)
1156:../asf/sam/drivers/pmc/pmc.c **** /**
1157:../asf/sam/drivers/pmc/pmc.c ****  * \brief Switch UDP (USB) clock source selection to UPLL clock.
1158:../asf/sam/drivers/pmc/pmc.c ****  *
1159:../asf/sam/drivers/pmc/pmc.c ****  * \param ul_usbdiv Clock divisor.
1160:../asf/sam/drivers/pmc/pmc.c ****  */
1161:../asf/sam/drivers/pmc/pmc.c **** void pmc_switch_udpck_to_upllck(uint32_t ul_usbdiv)
1162:../asf/sam/drivers/pmc/pmc.c **** {
 2468              		.loc 1 1162 0
 2469              		.cfi_startproc
 2470              		@ args = 0, pretend = 0, frame = 0
 2471              		@ frame_needed = 0, uses_anonymous_args = 0
 2472              		@ link register save eliminated.
 2473              	.LVL176:
1163:../asf/sam/drivers/pmc/pmc.c **** 	PMC->PMC_USB = PMC_USB_USBS | PMC_USB_USBDIV(ul_usbdiv);
 2474              		.loc 1 1163 0
 2475 0000 0002     		lsls	r0, r0, #8
 2476              	.LVL177:
ARM GAS  /tmp/ccTYR2Ee.s 			page 67


 2477 0002 034B     		ldr	r3, .L347
 2478 0004 00F47060 		and	r0, r0, #3840
 2479 0008 40F00100 		orr	r0, r0, #1
 2480 000c 9863     		str	r0, [r3, #56]
 2481 000e 7047     		bx	lr
 2482              	.L348:
 2483              		.align	2
 2484              	.L347:
 2485 0010 00060E40 		.word	1074660864
 2486              		.cfi_endproc
 2487              	.LFE188:
 2488              		.size	pmc_switch_udpck_to_upllck, .-pmc_switch_udpck_to_upllck
 2489              		.section	.text.pmc_enable_udpck,"ax",%progbits
 2490              		.align	1
 2491              		.p2align 2,,3
 2492              		.global	pmc_enable_udpck
 2493              		.syntax unified
 2494              		.thumb
 2495              		.thumb_func
 2496              		.fpu fpv5-d16
 2497              		.type	pmc_enable_udpck, %function
 2498              	pmc_enable_udpck:
 2499              	.LFB189:
1164:../asf/sam/drivers/pmc/pmc.c **** }
1165:../asf/sam/drivers/pmc/pmc.c **** #endif
1166:../asf/sam/drivers/pmc/pmc.c **** 
1167:../asf/sam/drivers/pmc/pmc.c **** #if (SAM3S || SAM3XA || SAM4S || SAM4E || SAMG55 || SAMV71 || SAMV70 || SAME70 || SAMS70)
1168:../asf/sam/drivers/pmc/pmc.c **** /**
1169:../asf/sam/drivers/pmc/pmc.c ****  * \brief Enable UDP (USB) clock.
1170:../asf/sam/drivers/pmc/pmc.c ****  */
1171:../asf/sam/drivers/pmc/pmc.c **** void pmc_enable_udpck(void)
1172:../asf/sam/drivers/pmc/pmc.c **** {
 2500              		.loc 1 1172 0
 2501              		.cfi_startproc
 2502              		@ args = 0, pretend = 0, frame = 0
 2503              		@ frame_needed = 0, uses_anonymous_args = 0
 2504              		@ link register save eliminated.
1173:../asf/sam/drivers/pmc/pmc.c **** #if (SAM3S || SAM4S || SAM4E || SAMG55)
1174:../asf/sam/drivers/pmc/pmc.c **** 	PMC->PMC_SCER = PMC_SCER_UDP;
1175:../asf/sam/drivers/pmc/pmc.c **** #elif (SAMV71 || SAMV70 || SAME70 || SAMS70)
1176:../asf/sam/drivers/pmc/pmc.c **** 	PMC->PMC_SCER = PMC_SCER_USBCLK;
 2505              		.loc 1 1176 0
 2506 0000 014B     		ldr	r3, .L350
 2507 0002 2022     		movs	r2, #32
 2508 0004 1A60     		str	r2, [r3]
 2509 0006 7047     		bx	lr
 2510              	.L351:
 2511              		.align	2
 2512              	.L350:
 2513 0008 00060E40 		.word	1074660864
 2514              		.cfi_endproc
 2515              	.LFE189:
 2516              		.size	pmc_enable_udpck, .-pmc_enable_udpck
 2517              		.section	.text.pmc_disable_udpck,"ax",%progbits
 2518              		.align	1
 2519              		.p2align 2,,3
 2520              		.global	pmc_disable_udpck
ARM GAS  /tmp/ccTYR2Ee.s 			page 68


 2521              		.syntax unified
 2522              		.thumb
 2523              		.thumb_func
 2524              		.fpu fpv5-d16
 2525              		.type	pmc_disable_udpck, %function
 2526              	pmc_disable_udpck:
 2527              	.LFB190:
1177:../asf/sam/drivers/pmc/pmc.c **** #else
1178:../asf/sam/drivers/pmc/pmc.c **** 	PMC->PMC_SCER = PMC_SCER_UOTGCLK;
1179:../asf/sam/drivers/pmc/pmc.c **** # endif
1180:../asf/sam/drivers/pmc/pmc.c **** }
1181:../asf/sam/drivers/pmc/pmc.c **** 
1182:../asf/sam/drivers/pmc/pmc.c **** /**
1183:../asf/sam/drivers/pmc/pmc.c ****  * \brief Disable UDP (USB) clock.
1184:../asf/sam/drivers/pmc/pmc.c ****  */
1185:../asf/sam/drivers/pmc/pmc.c **** void pmc_disable_udpck(void)
1186:../asf/sam/drivers/pmc/pmc.c **** {
 2528              		.loc 1 1186 0
 2529              		.cfi_startproc
 2530              		@ args = 0, pretend = 0, frame = 0
 2531              		@ frame_needed = 0, uses_anonymous_args = 0
 2532              		@ link register save eliminated.
1187:../asf/sam/drivers/pmc/pmc.c **** #if (SAM3S || SAM4S || SAM4E || SAMG55)
1188:../asf/sam/drivers/pmc/pmc.c **** 	PMC->PMC_SCDR = PMC_SCDR_UDP;
1189:../asf/sam/drivers/pmc/pmc.c **** #elif (SAMV71 || SAMV70 || SAME70 || SAMS70)
1190:../asf/sam/drivers/pmc/pmc.c **** 	PMC->PMC_SCDR = PMC_SCDR_USBCLK;
 2533              		.loc 1 1190 0
 2534 0000 014B     		ldr	r3, .L353
 2535 0002 2022     		movs	r2, #32
 2536 0004 5A60     		str	r2, [r3, #4]
 2537 0006 7047     		bx	lr
 2538              	.L354:
 2539              		.align	2
 2540              	.L353:
 2541 0008 00060E40 		.word	1074660864
 2542              		.cfi_endproc
 2543              	.LFE190:
 2544              		.size	pmc_disable_udpck, .-pmc_disable_udpck
 2545              		.section	.text.pmc_enable_interrupt,"ax",%progbits
 2546              		.align	1
 2547              		.p2align 2,,3
 2548              		.global	pmc_enable_interrupt
 2549              		.syntax unified
 2550              		.thumb
 2551              		.thumb_func
 2552              		.fpu fpv5-d16
 2553              		.type	pmc_enable_interrupt, %function
 2554              	pmc_enable_interrupt:
 2555              	.LFB191:
1191:../asf/sam/drivers/pmc/pmc.c **** #else
1192:../asf/sam/drivers/pmc/pmc.c **** 	PMC->PMC_SCDR = PMC_SCDR_UOTGCLK;
1193:../asf/sam/drivers/pmc/pmc.c **** # endif
1194:../asf/sam/drivers/pmc/pmc.c **** }
1195:../asf/sam/drivers/pmc/pmc.c **** #endif
1196:../asf/sam/drivers/pmc/pmc.c **** 
1197:../asf/sam/drivers/pmc/pmc.c **** #if SAMG55
1198:../asf/sam/drivers/pmc/pmc.c **** /**
ARM GAS  /tmp/ccTYR2Ee.s 			page 69


1199:../asf/sam/drivers/pmc/pmc.c ****  * \brief Switch UHP (USB) clock source selection to PLLA clock.
1200:../asf/sam/drivers/pmc/pmc.c ****  *
1201:../asf/sam/drivers/pmc/pmc.c ****  * \param ul_usbdiv Clock divisor.
1202:../asf/sam/drivers/pmc/pmc.c ****  */
1203:../asf/sam/drivers/pmc/pmc.c **** void pmc_switch_uhpck_to_pllack(uint32_t ul_usbdiv)
1204:../asf/sam/drivers/pmc/pmc.c **** {
1205:../asf/sam/drivers/pmc/pmc.c **** 	PMC->PMC_USB = PMC_USB_USBDIV(ul_usbdiv);
1206:../asf/sam/drivers/pmc/pmc.c **** }
1207:../asf/sam/drivers/pmc/pmc.c **** 
1208:../asf/sam/drivers/pmc/pmc.c **** /**
1209:../asf/sam/drivers/pmc/pmc.c ****  * \brief Switch UHP (USB) clock source selection to PLLB clock.
1210:../asf/sam/drivers/pmc/pmc.c ****  *
1211:../asf/sam/drivers/pmc/pmc.c ****  * \param ul_usbdiv Clock divisor.
1212:../asf/sam/drivers/pmc/pmc.c ****  */
1213:../asf/sam/drivers/pmc/pmc.c **** void pmc_switch_uhpck_to_pllbck(uint32_t ul_usbdiv)
1214:../asf/sam/drivers/pmc/pmc.c **** {
1215:../asf/sam/drivers/pmc/pmc.c **** 	PMC->PMC_USB = PMC_USB_USBDIV(ul_usbdiv) | PMC_USB_USBS;
1216:../asf/sam/drivers/pmc/pmc.c **** }
1217:../asf/sam/drivers/pmc/pmc.c **** 
1218:../asf/sam/drivers/pmc/pmc.c **** /**
1219:../asf/sam/drivers/pmc/pmc.c ****  * \brief Enable UHP (USB) clock.
1220:../asf/sam/drivers/pmc/pmc.c ****  */
1221:../asf/sam/drivers/pmc/pmc.c **** void pmc_enable_uhpck(void)
1222:../asf/sam/drivers/pmc/pmc.c **** {
1223:../asf/sam/drivers/pmc/pmc.c **** 	PMC->PMC_SCER = PMC_SCER_UHP;
1224:../asf/sam/drivers/pmc/pmc.c **** }
1225:../asf/sam/drivers/pmc/pmc.c **** #endif
1226:../asf/sam/drivers/pmc/pmc.c **** 
1227:../asf/sam/drivers/pmc/pmc.c **** /**
1228:../asf/sam/drivers/pmc/pmc.c ****  * \brief Enable PMC interrupts.
1229:../asf/sam/drivers/pmc/pmc.c ****  *
1230:../asf/sam/drivers/pmc/pmc.c ****  * \param ul_sources Interrupt sources bit map.
1231:../asf/sam/drivers/pmc/pmc.c ****  */
1232:../asf/sam/drivers/pmc/pmc.c **** void pmc_enable_interrupt(uint32_t ul_sources)
1233:../asf/sam/drivers/pmc/pmc.c **** {
 2556              		.loc 1 1233 0
 2557              		.cfi_startproc
 2558              		@ args = 0, pretend = 0, frame = 0
 2559              		@ frame_needed = 0, uses_anonymous_args = 0
 2560              		@ link register save eliminated.
 2561              	.LVL178:
1234:../asf/sam/drivers/pmc/pmc.c **** 	PMC->PMC_IER = ul_sources;
 2562              		.loc 1 1234 0
 2563 0000 014B     		ldr	r3, .L356
 2564 0002 1866     		str	r0, [r3, #96]
 2565 0004 7047     		bx	lr
 2566              	.L357:
 2567 0006 00BF     		.align	2
 2568              	.L356:
 2569 0008 00060E40 		.word	1074660864
 2570              		.cfi_endproc
 2571              	.LFE191:
 2572              		.size	pmc_enable_interrupt, .-pmc_enable_interrupt
 2573              		.section	.text.pmc_disable_interrupt,"ax",%progbits
 2574              		.align	1
 2575              		.p2align 2,,3
 2576              		.global	pmc_disable_interrupt
ARM GAS  /tmp/ccTYR2Ee.s 			page 70


 2577              		.syntax unified
 2578              		.thumb
 2579              		.thumb_func
 2580              		.fpu fpv5-d16
 2581              		.type	pmc_disable_interrupt, %function
 2582              	pmc_disable_interrupt:
 2583              	.LFB192:
1235:../asf/sam/drivers/pmc/pmc.c **** }
1236:../asf/sam/drivers/pmc/pmc.c **** 
1237:../asf/sam/drivers/pmc/pmc.c **** /**
1238:../asf/sam/drivers/pmc/pmc.c ****  * \brief Disable PMC interrupts.
1239:../asf/sam/drivers/pmc/pmc.c ****  *
1240:../asf/sam/drivers/pmc/pmc.c ****  * \param ul_sources Interrupt sources bit map.
1241:../asf/sam/drivers/pmc/pmc.c ****  */
1242:../asf/sam/drivers/pmc/pmc.c **** void pmc_disable_interrupt(uint32_t ul_sources)
1243:../asf/sam/drivers/pmc/pmc.c **** {
 2584              		.loc 1 1243 0
 2585              		.cfi_startproc
 2586              		@ args = 0, pretend = 0, frame = 0
 2587              		@ frame_needed = 0, uses_anonymous_args = 0
 2588              		@ link register save eliminated.
 2589              	.LVL179:
1244:../asf/sam/drivers/pmc/pmc.c **** 	PMC->PMC_IDR = ul_sources;
 2590              		.loc 1 1244 0
 2591 0000 014B     		ldr	r3, .L359
 2592 0002 5866     		str	r0, [r3, #100]
 2593 0004 7047     		bx	lr
 2594              	.L360:
 2595 0006 00BF     		.align	2
 2596              	.L359:
 2597 0008 00060E40 		.word	1074660864
 2598              		.cfi_endproc
 2599              	.LFE192:
 2600              		.size	pmc_disable_interrupt, .-pmc_disable_interrupt
 2601              		.section	.text.pmc_get_interrupt_mask,"ax",%progbits
 2602              		.align	1
 2603              		.p2align 2,,3
 2604              		.global	pmc_get_interrupt_mask
 2605              		.syntax unified
 2606              		.thumb
 2607              		.thumb_func
 2608              		.fpu fpv5-d16
 2609              		.type	pmc_get_interrupt_mask, %function
 2610              	pmc_get_interrupt_mask:
 2611              	.LFB193:
1245:../asf/sam/drivers/pmc/pmc.c **** }
1246:../asf/sam/drivers/pmc/pmc.c **** 
1247:../asf/sam/drivers/pmc/pmc.c **** /**
1248:../asf/sam/drivers/pmc/pmc.c ****  * \brief Get PMC interrupt mask.
1249:../asf/sam/drivers/pmc/pmc.c ****  *
1250:../asf/sam/drivers/pmc/pmc.c ****  * \return The interrupt mask value.
1251:../asf/sam/drivers/pmc/pmc.c ****  */
1252:../asf/sam/drivers/pmc/pmc.c **** uint32_t pmc_get_interrupt_mask(void)
1253:../asf/sam/drivers/pmc/pmc.c **** {
 2612              		.loc 1 1253 0
 2613              		.cfi_startproc
 2614              		@ args = 0, pretend = 0, frame = 0
ARM GAS  /tmp/ccTYR2Ee.s 			page 71


 2615              		@ frame_needed = 0, uses_anonymous_args = 0
 2616              		@ link register save eliminated.
1254:../asf/sam/drivers/pmc/pmc.c **** 	return PMC->PMC_IMR;
 2617              		.loc 1 1254 0
 2618 0000 014B     		ldr	r3, .L362
 2619 0002 D86E     		ldr	r0, [r3, #108]
1255:../asf/sam/drivers/pmc/pmc.c **** }
 2620              		.loc 1 1255 0
 2621 0004 7047     		bx	lr
 2622              	.L363:
 2623 0006 00BF     		.align	2
 2624              	.L362:
 2625 0008 00060E40 		.word	1074660864
 2626              		.cfi_endproc
 2627              	.LFE193:
 2628              		.size	pmc_get_interrupt_mask, .-pmc_get_interrupt_mask
 2629              		.section	.text.pmc_get_status,"ax",%progbits
 2630              		.align	1
 2631              		.p2align 2,,3
 2632              		.global	pmc_get_status
 2633              		.syntax unified
 2634              		.thumb
 2635              		.thumb_func
 2636              		.fpu fpv5-d16
 2637              		.type	pmc_get_status, %function
 2638              	pmc_get_status:
 2639              	.LFB194:
1256:../asf/sam/drivers/pmc/pmc.c **** 
1257:../asf/sam/drivers/pmc/pmc.c **** /**
1258:../asf/sam/drivers/pmc/pmc.c ****  * \brief Get current status.
1259:../asf/sam/drivers/pmc/pmc.c ****  *
1260:../asf/sam/drivers/pmc/pmc.c ****  * \return The current PMC status.
1261:../asf/sam/drivers/pmc/pmc.c ****  */
1262:../asf/sam/drivers/pmc/pmc.c **** uint32_t pmc_get_status(void)
1263:../asf/sam/drivers/pmc/pmc.c **** {
 2640              		.loc 1 1263 0
 2641              		.cfi_startproc
 2642              		@ args = 0, pretend = 0, frame = 0
 2643              		@ frame_needed = 0, uses_anonymous_args = 0
 2644              		@ link register save eliminated.
1264:../asf/sam/drivers/pmc/pmc.c **** 	return PMC->PMC_SR;
 2645              		.loc 1 1264 0
 2646 0000 014B     		ldr	r3, .L365
 2647 0002 986E     		ldr	r0, [r3, #104]
1265:../asf/sam/drivers/pmc/pmc.c **** }
 2648              		.loc 1 1265 0
 2649 0004 7047     		bx	lr
 2650              	.L366:
 2651 0006 00BF     		.align	2
 2652              	.L365:
 2653 0008 00060E40 		.word	1074660864
 2654              		.cfi_endproc
 2655              	.LFE194:
 2656              		.size	pmc_get_status, .-pmc_get_status
 2657              		.section	.text.pmc_set_fast_startup_input,"ax",%progbits
 2658              		.align	1
 2659              		.p2align 2,,3
ARM GAS  /tmp/ccTYR2Ee.s 			page 72


 2660              		.global	pmc_set_fast_startup_input
 2661              		.syntax unified
 2662              		.thumb
 2663              		.thumb_func
 2664              		.fpu fpv5-d16
 2665              		.type	pmc_set_fast_startup_input, %function
 2666              	pmc_set_fast_startup_input:
 2667              	.LFB195:
1266:../asf/sam/drivers/pmc/pmc.c **** 
1267:../asf/sam/drivers/pmc/pmc.c **** /**
1268:../asf/sam/drivers/pmc/pmc.c ****  * \brief Set the wake-up inputs for fast startup mode registers
1269:../asf/sam/drivers/pmc/pmc.c ****  *        (event generation).
1270:../asf/sam/drivers/pmc/pmc.c ****  *
1271:../asf/sam/drivers/pmc/pmc.c ****  * \param ul_inputs Wake up inputs to enable.
1272:../asf/sam/drivers/pmc/pmc.c ****  */
1273:../asf/sam/drivers/pmc/pmc.c **** void pmc_set_fast_startup_input(uint32_t ul_inputs)
1274:../asf/sam/drivers/pmc/pmc.c **** {
 2668              		.loc 1 1274 0
 2669              		.cfi_startproc
 2670              		@ args = 0, pretend = 0, frame = 0
 2671              		@ frame_needed = 0, uses_anonymous_args = 0
 2672              		@ link register save eliminated.
 2673              	.LVL180:
1275:../asf/sam/drivers/pmc/pmc.c **** 	ul_inputs &= PMC_FAST_STARTUP_Msk;
1276:../asf/sam/drivers/pmc/pmc.c **** 	PMC->PMC_FSMR |= ul_inputs;
 2674              		.loc 1 1276 0
 2675 0000 034B     		ldr	r3, .L368
1275:../asf/sam/drivers/pmc/pmc.c **** 	ul_inputs &= PMC_FAST_STARTUP_Msk;
 2676              		.loc 1 1275 0
 2677 0002 C0F31200 		ubfx	r0, r0, #0, #19
 2678              	.LVL181:
 2679              		.loc 1 1276 0
 2680 0006 1A6F     		ldr	r2, [r3, #112]
 2681 0008 1043     		orrs	r0, r0, r2
 2682 000a 1867     		str	r0, [r3, #112]
 2683 000c 7047     		bx	lr
 2684              	.L369:
 2685 000e 00BF     		.align	2
 2686              	.L368:
 2687 0010 00060E40 		.word	1074660864
 2688              		.cfi_endproc
 2689              	.LFE195:
 2690              		.size	pmc_set_fast_startup_input, .-pmc_set_fast_startup_input
 2691              		.section	.text.pmc_clr_fast_startup_input,"ax",%progbits
 2692              		.align	1
 2693              		.p2align 2,,3
 2694              		.global	pmc_clr_fast_startup_input
 2695              		.syntax unified
 2696              		.thumb
 2697              		.thumb_func
 2698              		.fpu fpv5-d16
 2699              		.type	pmc_clr_fast_startup_input, %function
 2700              	pmc_clr_fast_startup_input:
 2701              	.LFB196:
1277:../asf/sam/drivers/pmc/pmc.c **** }
1278:../asf/sam/drivers/pmc/pmc.c **** 
1279:../asf/sam/drivers/pmc/pmc.c **** /**
ARM GAS  /tmp/ccTYR2Ee.s 			page 73


1280:../asf/sam/drivers/pmc/pmc.c ****  * \brief Clear the wake-up inputs for fast startup mode registers
1281:../asf/sam/drivers/pmc/pmc.c ****  *        (remove event generation).
1282:../asf/sam/drivers/pmc/pmc.c ****  *
1283:../asf/sam/drivers/pmc/pmc.c ****  * \param ul_inputs Wake up inputs to disable.
1284:../asf/sam/drivers/pmc/pmc.c ****  */
1285:../asf/sam/drivers/pmc/pmc.c **** void pmc_clr_fast_startup_input(uint32_t ul_inputs)
1286:../asf/sam/drivers/pmc/pmc.c **** {
 2702              		.loc 1 1286 0
 2703              		.cfi_startproc
 2704              		@ args = 0, pretend = 0, frame = 0
 2705              		@ frame_needed = 0, uses_anonymous_args = 0
 2706              		@ link register save eliminated.
 2707              	.LVL182:
1287:../asf/sam/drivers/pmc/pmc.c **** 	ul_inputs &= PMC_FAST_STARTUP_Msk;
1288:../asf/sam/drivers/pmc/pmc.c **** 	PMC->PMC_FSMR &= ~ul_inputs;
 2708              		.loc 1 1288 0
 2709 0000 034A     		ldr	r2, .L371
1287:../asf/sam/drivers/pmc/pmc.c **** 	ul_inputs &= PMC_FAST_STARTUP_Msk;
 2710              		.loc 1 1287 0
 2711 0002 C0F31200 		ubfx	r0, r0, #0, #19
 2712              	.LVL183:
 2713              		.loc 1 1288 0
 2714 0006 136F     		ldr	r3, [r2, #112]
 2715 0008 23EA0000 		bic	r0, r3, r0
 2716 000c 1067     		str	r0, [r2, #112]
 2717 000e 7047     		bx	lr
 2718              	.L372:
 2719              		.align	2
 2720              	.L371:
 2721 0010 00060E40 		.word	1074660864
 2722              		.cfi_endproc
 2723              	.LFE196:
 2724              		.size	pmc_clr_fast_startup_input, .-pmc_clr_fast_startup_input
 2725              		.section	.text.pmc_enable_sleepmode,"ax",%progbits
 2726              		.align	1
 2727              		.p2align 2,,3
 2728              		.global	pmc_enable_sleepmode
 2729              		.syntax unified
 2730              		.thumb
 2731              		.thumb_func
 2732              		.fpu fpv5-d16
 2733              		.type	pmc_enable_sleepmode, %function
 2734              	pmc_enable_sleepmode:
 2735              	.LFB197:
1289:../asf/sam/drivers/pmc/pmc.c **** }
1290:../asf/sam/drivers/pmc/pmc.c **** 
1291:../asf/sam/drivers/pmc/pmc.c **** #if (SAM4C || SAM4CM || SAM4CP)
1292:../asf/sam/drivers/pmc/pmc.c **** /**
1293:../asf/sam/drivers/pmc/pmc.c ****  * \brief Set the wake-up inputs of coprocessor for fast startup mode registers
1294:../asf/sam/drivers/pmc/pmc.c ****  *        (event generation).
1295:../asf/sam/drivers/pmc/pmc.c ****  *
1296:../asf/sam/drivers/pmc/pmc.c ****  * \param ul_inputs Wake up inputs to enable.
1297:../asf/sam/drivers/pmc/pmc.c ****  */
1298:../asf/sam/drivers/pmc/pmc.c **** void pmc_cp_set_fast_startup_input(uint32_t ul_inputs)
1299:../asf/sam/drivers/pmc/pmc.c **** {
1300:../asf/sam/drivers/pmc/pmc.c **** 	ul_inputs &= PMC_FAST_STARTUP_Msk;
1301:../asf/sam/drivers/pmc/pmc.c **** 	PMC->PMC_CPFSMR |= ul_inputs;
ARM GAS  /tmp/ccTYR2Ee.s 			page 74


1302:../asf/sam/drivers/pmc/pmc.c **** }
1303:../asf/sam/drivers/pmc/pmc.c **** 
1304:../asf/sam/drivers/pmc/pmc.c **** /**
1305:../asf/sam/drivers/pmc/pmc.c ****  * \brief Clear the wake-up inputs of coprocessor for fast startup mode registers
1306:../asf/sam/drivers/pmc/pmc.c ****  *        (remove event generation).
1307:../asf/sam/drivers/pmc/pmc.c ****  *
1308:../asf/sam/drivers/pmc/pmc.c ****  * \param ul_inputs Wake up inputs to disable.
1309:../asf/sam/drivers/pmc/pmc.c ****  */
1310:../asf/sam/drivers/pmc/pmc.c **** void pmc_cp_clr_fast_startup_input(uint32_t ul_inputs)
1311:../asf/sam/drivers/pmc/pmc.c **** {
1312:../asf/sam/drivers/pmc/pmc.c **** 	ul_inputs &= PMC_FAST_STARTUP_Msk;
1313:../asf/sam/drivers/pmc/pmc.c **** 	PMC->PMC_CPFSMR &= ~ul_inputs;
1314:../asf/sam/drivers/pmc/pmc.c **** }
1315:../asf/sam/drivers/pmc/pmc.c **** #endif
1316:../asf/sam/drivers/pmc/pmc.c **** 
1317:../asf/sam/drivers/pmc/pmc.c **** /**
1318:../asf/sam/drivers/pmc/pmc.c ****  * \brief Enable Sleep Mode.
1319:../asf/sam/drivers/pmc/pmc.c ****  * Enter condition: (WFE or WFI) + (SLEEPDEEP bit = 0) + (LPM bit = 0)
1320:../asf/sam/drivers/pmc/pmc.c ****  *
1321:../asf/sam/drivers/pmc/pmc.c ****  * \param uc_type 0 for wait for interrupt, 1 for wait for event.
1322:../asf/sam/drivers/pmc/pmc.c ****  * \note For SAM4S, SAM4C, SAM4CM, SAM4CP, SAMV71 and SAM4E series,
1323:../asf/sam/drivers/pmc/pmc.c ****  * since only WFI is effective, uc_type = 1 will be treated as uc_type = 0.
1324:../asf/sam/drivers/pmc/pmc.c ****  */
1325:../asf/sam/drivers/pmc/pmc.c **** void pmc_enable_sleepmode(uint8_t uc_type)
1326:../asf/sam/drivers/pmc/pmc.c **** {
 2736              		.loc 1 1326 0
 2737              		.cfi_startproc
 2738              		@ args = 0, pretend = 0, frame = 0
 2739              		@ frame_needed = 0, uses_anonymous_args = 0
 2740              		@ link register save eliminated.
 2741              	.LVL184:
1327:../asf/sam/drivers/pmc/pmc.c **** #if !(SAM4S || SAM4E || SAM4N || SAM4C || SAM4CM || SAM4CP || SAMV71 || SAMV70 || SAME70 || SAMS70)
1328:../asf/sam/drivers/pmc/pmc.c **** 	PMC->PMC_FSMR &= (uint32_t) ~ PMC_FSMR_LPM; // Enter Sleep mode
1329:../asf/sam/drivers/pmc/pmc.c **** #endif
1330:../asf/sam/drivers/pmc/pmc.c **** 	SCB->SCR &= (uint32_t) ~ SCB_SCR_SLEEPDEEP_Msk; // Deep sleep
 2742              		.loc 1 1330 0
 2743 0000 044A     		ldr	r2, .L374
 2744 0002 1369     		ldr	r3, [r2, #16]
 2745 0004 23F00403 		bic	r3, r3, #4
 2746 0008 1361     		str	r3, [r2, #16]
 2747              	.LBB34:
 2748              	.LBB35:
 2749              		.file 2 "/home/torbjorn/eclipse-workspace/CoreNG/asf/thirdparty/CMSIS/Include/core_cmInstr.h"
   1:/home/torbjorn/eclipse-workspace/CoreNG/asf/thirdparty/CMSIS/Include/core_cmInstr.h **** /**************************************************************************//**
   2:/home/torbjorn/eclipse-workspace/CoreNG/asf/thirdparty/CMSIS/Include/core_cmInstr.h ****  * @file     core_cmInstr.h
   3:/home/torbjorn/eclipse-workspace/CoreNG/asf/thirdparty/CMSIS/Include/core_cmInstr.h ****  * @brief    CMSIS Cortex-M Core Instruction Access Header File
   4:/home/torbjorn/eclipse-workspace/CoreNG/asf/thirdparty/CMSIS/Include/core_cmInstr.h ****  * @version  V4.00
   5:/home/torbjorn/eclipse-workspace/CoreNG/asf/thirdparty/CMSIS/Include/core_cmInstr.h ****  * @date     28. August 2014
   6:/home/torbjorn/eclipse-workspace/CoreNG/asf/thirdparty/CMSIS/Include/core_cmInstr.h ****  *
   7:/home/torbjorn/eclipse-workspace/CoreNG/asf/thirdparty/CMSIS/Include/core_cmInstr.h ****  * @note
   8:/home/torbjorn/eclipse-workspace/CoreNG/asf/thirdparty/CMSIS/Include/core_cmInstr.h ****  *
   9:/home/torbjorn/eclipse-workspace/CoreNG/asf/thirdparty/CMSIS/Include/core_cmInstr.h ****  ******************************************************************************/
  10:/home/torbjorn/eclipse-workspace/CoreNG/asf/thirdparty/CMSIS/Include/core_cmInstr.h **** /* Copyright (c) 2009 - 2014 ARM LIMITED
  11:/home/torbjorn/eclipse-workspace/CoreNG/asf/thirdparty/CMSIS/Include/core_cmInstr.h **** 
  12:/home/torbjorn/eclipse-workspace/CoreNG/asf/thirdparty/CMSIS/Include/core_cmInstr.h ****    All rights reserved.
  13:/home/torbjorn/eclipse-workspace/CoreNG/asf/thirdparty/CMSIS/Include/core_cmInstr.h ****    Redistribution and use in source and binary forms, with or without
  14:/home/torbjorn/eclipse-workspace/CoreNG/asf/thirdparty/CMSIS/Include/core_cmInstr.h ****    modification, are permitted provided that the following conditions are met:
ARM GAS  /tmp/ccTYR2Ee.s 			page 75


  15:/home/torbjorn/eclipse-workspace/CoreNG/asf/thirdparty/CMSIS/Include/core_cmInstr.h ****    - Redistributions of source code must retain the above copyright
  16:/home/torbjorn/eclipse-workspace/CoreNG/asf/thirdparty/CMSIS/Include/core_cmInstr.h ****      notice, this list of conditions and the following disclaimer.
  17:/home/torbjorn/eclipse-workspace/CoreNG/asf/thirdparty/CMSIS/Include/core_cmInstr.h ****    - Redistributions in binary form must reproduce the above copyright
  18:/home/torbjorn/eclipse-workspace/CoreNG/asf/thirdparty/CMSIS/Include/core_cmInstr.h ****      notice, this list of conditions and the following disclaimer in the
  19:/home/torbjorn/eclipse-workspace/CoreNG/asf/thirdparty/CMSIS/Include/core_cmInstr.h ****      documentation and/or other materials provided with the distribution.
  20:/home/torbjorn/eclipse-workspace/CoreNG/asf/thirdparty/CMSIS/Include/core_cmInstr.h ****    - Neither the name of ARM nor the names of its contributors may be used
  21:/home/torbjorn/eclipse-workspace/CoreNG/asf/thirdparty/CMSIS/Include/core_cmInstr.h ****      to endorse or promote products derived from this software without
  22:/home/torbjorn/eclipse-workspace/CoreNG/asf/thirdparty/CMSIS/Include/core_cmInstr.h ****      specific prior written permission.
  23:/home/torbjorn/eclipse-workspace/CoreNG/asf/thirdparty/CMSIS/Include/core_cmInstr.h ****    *
  24:/home/torbjorn/eclipse-workspace/CoreNG/asf/thirdparty/CMSIS/Include/core_cmInstr.h ****    THIS SOFTWARE IS PROVIDED BY THE COPYRIGHT HOLDERS AND CONTRIBUTORS "AS IS"
  25:/home/torbjorn/eclipse-workspace/CoreNG/asf/thirdparty/CMSIS/Include/core_cmInstr.h ****    AND ANY EXPRESS OR IMPLIED WARRANTIES, INCLUDING, BUT NOT LIMITED TO, THE
  26:/home/torbjorn/eclipse-workspace/CoreNG/asf/thirdparty/CMSIS/Include/core_cmInstr.h ****    IMPLIED WARRANTIES OF MERCHANTABILITY AND FITNESS FOR A PARTICULAR PURPOSE
  27:/home/torbjorn/eclipse-workspace/CoreNG/asf/thirdparty/CMSIS/Include/core_cmInstr.h ****    ARE DISCLAIMED. IN NO EVENT SHALL COPYRIGHT HOLDERS AND CONTRIBUTORS BE
  28:/home/torbjorn/eclipse-workspace/CoreNG/asf/thirdparty/CMSIS/Include/core_cmInstr.h ****    LIABLE FOR ANY DIRECT, INDIRECT, INCIDENTAL, SPECIAL, EXEMPLARY, OR
  29:/home/torbjorn/eclipse-workspace/CoreNG/asf/thirdparty/CMSIS/Include/core_cmInstr.h ****    CONSEQUENTIAL DAMAGES (INCLUDING, BUT NOT LIMITED TO, PROCUREMENT OF
  30:/home/torbjorn/eclipse-workspace/CoreNG/asf/thirdparty/CMSIS/Include/core_cmInstr.h ****    SUBSTITUTE GOODS OR SERVICES; LOSS OF USE, DATA, OR PROFITS; OR BUSINESS
  31:/home/torbjorn/eclipse-workspace/CoreNG/asf/thirdparty/CMSIS/Include/core_cmInstr.h ****    INTERRUPTION) HOWEVER CAUSED AND ON ANY THEORY OF LIABILITY, WHETHER IN
  32:/home/torbjorn/eclipse-workspace/CoreNG/asf/thirdparty/CMSIS/Include/core_cmInstr.h ****    CONTRACT, STRICT LIABILITY, OR TORT (INCLUDING NEGLIGENCE OR OTHERWISE)
  33:/home/torbjorn/eclipse-workspace/CoreNG/asf/thirdparty/CMSIS/Include/core_cmInstr.h ****    ARISING IN ANY WAY OUT OF THE USE OF THIS SOFTWARE, EVEN IF ADVISED OF THE
  34:/home/torbjorn/eclipse-workspace/CoreNG/asf/thirdparty/CMSIS/Include/core_cmInstr.h ****    POSSIBILITY OF SUCH DAMAGE.
  35:/home/torbjorn/eclipse-workspace/CoreNG/asf/thirdparty/CMSIS/Include/core_cmInstr.h ****    ---------------------------------------------------------------------------*/
  36:/home/torbjorn/eclipse-workspace/CoreNG/asf/thirdparty/CMSIS/Include/core_cmInstr.h **** 
  37:/home/torbjorn/eclipse-workspace/CoreNG/asf/thirdparty/CMSIS/Include/core_cmInstr.h **** 
  38:/home/torbjorn/eclipse-workspace/CoreNG/asf/thirdparty/CMSIS/Include/core_cmInstr.h **** #ifndef __CORE_CMINSTR_H
  39:/home/torbjorn/eclipse-workspace/CoreNG/asf/thirdparty/CMSIS/Include/core_cmInstr.h **** #define __CORE_CMINSTR_H
  40:/home/torbjorn/eclipse-workspace/CoreNG/asf/thirdparty/CMSIS/Include/core_cmInstr.h **** 
  41:/home/torbjorn/eclipse-workspace/CoreNG/asf/thirdparty/CMSIS/Include/core_cmInstr.h **** 
  42:/home/torbjorn/eclipse-workspace/CoreNG/asf/thirdparty/CMSIS/Include/core_cmInstr.h **** /* ##########################  Core Instruction Access  ######################### */
  43:/home/torbjorn/eclipse-workspace/CoreNG/asf/thirdparty/CMSIS/Include/core_cmInstr.h **** /** \defgroup CMSIS_Core_InstructionInterface CMSIS Core Instruction Interface
  44:/home/torbjorn/eclipse-workspace/CoreNG/asf/thirdparty/CMSIS/Include/core_cmInstr.h ****   Access to dedicated instructions
  45:/home/torbjorn/eclipse-workspace/CoreNG/asf/thirdparty/CMSIS/Include/core_cmInstr.h ****   @{
  46:/home/torbjorn/eclipse-workspace/CoreNG/asf/thirdparty/CMSIS/Include/core_cmInstr.h **** */
  47:/home/torbjorn/eclipse-workspace/CoreNG/asf/thirdparty/CMSIS/Include/core_cmInstr.h **** 
  48:/home/torbjorn/eclipse-workspace/CoreNG/asf/thirdparty/CMSIS/Include/core_cmInstr.h **** #if   defined ( __CC_ARM ) /*------------------RealView Compiler -----------------*/
  49:/home/torbjorn/eclipse-workspace/CoreNG/asf/thirdparty/CMSIS/Include/core_cmInstr.h **** /* ARM armcc specific functions */
  50:/home/torbjorn/eclipse-workspace/CoreNG/asf/thirdparty/CMSIS/Include/core_cmInstr.h **** 
  51:/home/torbjorn/eclipse-workspace/CoreNG/asf/thirdparty/CMSIS/Include/core_cmInstr.h **** #if (__ARMCC_VERSION < 400677)
  52:/home/torbjorn/eclipse-workspace/CoreNG/asf/thirdparty/CMSIS/Include/core_cmInstr.h ****   #error "Please use ARM Compiler Toolchain V4.0.677 or later!"
  53:/home/torbjorn/eclipse-workspace/CoreNG/asf/thirdparty/CMSIS/Include/core_cmInstr.h **** #endif
  54:/home/torbjorn/eclipse-workspace/CoreNG/asf/thirdparty/CMSIS/Include/core_cmInstr.h **** 
  55:/home/torbjorn/eclipse-workspace/CoreNG/asf/thirdparty/CMSIS/Include/core_cmInstr.h **** 
  56:/home/torbjorn/eclipse-workspace/CoreNG/asf/thirdparty/CMSIS/Include/core_cmInstr.h **** /** \brief  No Operation
  57:/home/torbjorn/eclipse-workspace/CoreNG/asf/thirdparty/CMSIS/Include/core_cmInstr.h **** 
  58:/home/torbjorn/eclipse-workspace/CoreNG/asf/thirdparty/CMSIS/Include/core_cmInstr.h ****     No Operation does nothing. This instruction can be used for code alignment purposes.
  59:/home/torbjorn/eclipse-workspace/CoreNG/asf/thirdparty/CMSIS/Include/core_cmInstr.h ****  */
  60:/home/torbjorn/eclipse-workspace/CoreNG/asf/thirdparty/CMSIS/Include/core_cmInstr.h **** #define __NOP                             __nop
  61:/home/torbjorn/eclipse-workspace/CoreNG/asf/thirdparty/CMSIS/Include/core_cmInstr.h **** 
  62:/home/torbjorn/eclipse-workspace/CoreNG/asf/thirdparty/CMSIS/Include/core_cmInstr.h **** 
  63:/home/torbjorn/eclipse-workspace/CoreNG/asf/thirdparty/CMSIS/Include/core_cmInstr.h **** /** \brief  Wait For Interrupt
  64:/home/torbjorn/eclipse-workspace/CoreNG/asf/thirdparty/CMSIS/Include/core_cmInstr.h **** 
  65:/home/torbjorn/eclipse-workspace/CoreNG/asf/thirdparty/CMSIS/Include/core_cmInstr.h ****     Wait For Interrupt is a hint instruction that suspends execution
  66:/home/torbjorn/eclipse-workspace/CoreNG/asf/thirdparty/CMSIS/Include/core_cmInstr.h ****     until one of a number of events occurs.
  67:/home/torbjorn/eclipse-workspace/CoreNG/asf/thirdparty/CMSIS/Include/core_cmInstr.h ****  */
  68:/home/torbjorn/eclipse-workspace/CoreNG/asf/thirdparty/CMSIS/Include/core_cmInstr.h **** #define __WFI                             __wfi
  69:/home/torbjorn/eclipse-workspace/CoreNG/asf/thirdparty/CMSIS/Include/core_cmInstr.h **** 
  70:/home/torbjorn/eclipse-workspace/CoreNG/asf/thirdparty/CMSIS/Include/core_cmInstr.h **** 
  71:/home/torbjorn/eclipse-workspace/CoreNG/asf/thirdparty/CMSIS/Include/core_cmInstr.h **** /** \brief  Wait For Event
ARM GAS  /tmp/ccTYR2Ee.s 			page 76


  72:/home/torbjorn/eclipse-workspace/CoreNG/asf/thirdparty/CMSIS/Include/core_cmInstr.h **** 
  73:/home/torbjorn/eclipse-workspace/CoreNG/asf/thirdparty/CMSIS/Include/core_cmInstr.h ****     Wait For Event is a hint instruction that permits the processor to enter
  74:/home/torbjorn/eclipse-workspace/CoreNG/asf/thirdparty/CMSIS/Include/core_cmInstr.h ****     a low-power state until one of a number of events occurs.
  75:/home/torbjorn/eclipse-workspace/CoreNG/asf/thirdparty/CMSIS/Include/core_cmInstr.h ****  */
  76:/home/torbjorn/eclipse-workspace/CoreNG/asf/thirdparty/CMSIS/Include/core_cmInstr.h **** #define __WFE                             __wfe
  77:/home/torbjorn/eclipse-workspace/CoreNG/asf/thirdparty/CMSIS/Include/core_cmInstr.h **** 
  78:/home/torbjorn/eclipse-workspace/CoreNG/asf/thirdparty/CMSIS/Include/core_cmInstr.h **** 
  79:/home/torbjorn/eclipse-workspace/CoreNG/asf/thirdparty/CMSIS/Include/core_cmInstr.h **** /** \brief  Send Event
  80:/home/torbjorn/eclipse-workspace/CoreNG/asf/thirdparty/CMSIS/Include/core_cmInstr.h **** 
  81:/home/torbjorn/eclipse-workspace/CoreNG/asf/thirdparty/CMSIS/Include/core_cmInstr.h ****     Send Event is a hint instruction. It causes an event to be signaled to the CPU.
  82:/home/torbjorn/eclipse-workspace/CoreNG/asf/thirdparty/CMSIS/Include/core_cmInstr.h ****  */
  83:/home/torbjorn/eclipse-workspace/CoreNG/asf/thirdparty/CMSIS/Include/core_cmInstr.h **** #define __SEV                             __sev
  84:/home/torbjorn/eclipse-workspace/CoreNG/asf/thirdparty/CMSIS/Include/core_cmInstr.h **** 
  85:/home/torbjorn/eclipse-workspace/CoreNG/asf/thirdparty/CMSIS/Include/core_cmInstr.h **** 
  86:/home/torbjorn/eclipse-workspace/CoreNG/asf/thirdparty/CMSIS/Include/core_cmInstr.h **** /** \brief  Instruction Synchronization Barrier
  87:/home/torbjorn/eclipse-workspace/CoreNG/asf/thirdparty/CMSIS/Include/core_cmInstr.h **** 
  88:/home/torbjorn/eclipse-workspace/CoreNG/asf/thirdparty/CMSIS/Include/core_cmInstr.h ****     Instruction Synchronization Barrier flushes the pipeline in the processor,
  89:/home/torbjorn/eclipse-workspace/CoreNG/asf/thirdparty/CMSIS/Include/core_cmInstr.h ****     so that all instructions following the ISB are fetched from cache or
  90:/home/torbjorn/eclipse-workspace/CoreNG/asf/thirdparty/CMSIS/Include/core_cmInstr.h ****     memory, after the instruction has been completed.
  91:/home/torbjorn/eclipse-workspace/CoreNG/asf/thirdparty/CMSIS/Include/core_cmInstr.h ****  */
  92:/home/torbjorn/eclipse-workspace/CoreNG/asf/thirdparty/CMSIS/Include/core_cmInstr.h **** #define __ISB()                           __isb(0xF)
  93:/home/torbjorn/eclipse-workspace/CoreNG/asf/thirdparty/CMSIS/Include/core_cmInstr.h **** 
  94:/home/torbjorn/eclipse-workspace/CoreNG/asf/thirdparty/CMSIS/Include/core_cmInstr.h **** 
  95:/home/torbjorn/eclipse-workspace/CoreNG/asf/thirdparty/CMSIS/Include/core_cmInstr.h **** /** \brief  Data Synchronization Barrier
  96:/home/torbjorn/eclipse-workspace/CoreNG/asf/thirdparty/CMSIS/Include/core_cmInstr.h **** 
  97:/home/torbjorn/eclipse-workspace/CoreNG/asf/thirdparty/CMSIS/Include/core_cmInstr.h ****     This function acts as a special kind of Data Memory Barrier.
  98:/home/torbjorn/eclipse-workspace/CoreNG/asf/thirdparty/CMSIS/Include/core_cmInstr.h ****     It completes when all explicit memory accesses before this instruction complete.
  99:/home/torbjorn/eclipse-workspace/CoreNG/asf/thirdparty/CMSIS/Include/core_cmInstr.h ****  */
 100:/home/torbjorn/eclipse-workspace/CoreNG/asf/thirdparty/CMSIS/Include/core_cmInstr.h **** #define __DSB()                           __dsb(0xF)
 101:/home/torbjorn/eclipse-workspace/CoreNG/asf/thirdparty/CMSIS/Include/core_cmInstr.h **** 
 102:/home/torbjorn/eclipse-workspace/CoreNG/asf/thirdparty/CMSIS/Include/core_cmInstr.h **** 
 103:/home/torbjorn/eclipse-workspace/CoreNG/asf/thirdparty/CMSIS/Include/core_cmInstr.h **** /** \brief  Data Memory Barrier
 104:/home/torbjorn/eclipse-workspace/CoreNG/asf/thirdparty/CMSIS/Include/core_cmInstr.h **** 
 105:/home/torbjorn/eclipse-workspace/CoreNG/asf/thirdparty/CMSIS/Include/core_cmInstr.h ****     This function ensures the apparent order of the explicit memory operations before
 106:/home/torbjorn/eclipse-workspace/CoreNG/asf/thirdparty/CMSIS/Include/core_cmInstr.h ****     and after the instruction, without ensuring their completion.
 107:/home/torbjorn/eclipse-workspace/CoreNG/asf/thirdparty/CMSIS/Include/core_cmInstr.h ****  */
 108:/home/torbjorn/eclipse-workspace/CoreNG/asf/thirdparty/CMSIS/Include/core_cmInstr.h **** #define __DMB()                           __dmb(0xF)
 109:/home/torbjorn/eclipse-workspace/CoreNG/asf/thirdparty/CMSIS/Include/core_cmInstr.h **** 
 110:/home/torbjorn/eclipse-workspace/CoreNG/asf/thirdparty/CMSIS/Include/core_cmInstr.h **** 
 111:/home/torbjorn/eclipse-workspace/CoreNG/asf/thirdparty/CMSIS/Include/core_cmInstr.h **** /** \brief  Reverse byte order (32 bit)
 112:/home/torbjorn/eclipse-workspace/CoreNG/asf/thirdparty/CMSIS/Include/core_cmInstr.h **** 
 113:/home/torbjorn/eclipse-workspace/CoreNG/asf/thirdparty/CMSIS/Include/core_cmInstr.h ****     This function reverses the byte order in integer value.
 114:/home/torbjorn/eclipse-workspace/CoreNG/asf/thirdparty/CMSIS/Include/core_cmInstr.h **** 
 115:/home/torbjorn/eclipse-workspace/CoreNG/asf/thirdparty/CMSIS/Include/core_cmInstr.h ****     \param [in]    value  Value to reverse
 116:/home/torbjorn/eclipse-workspace/CoreNG/asf/thirdparty/CMSIS/Include/core_cmInstr.h ****     \return               Reversed value
 117:/home/torbjorn/eclipse-workspace/CoreNG/asf/thirdparty/CMSIS/Include/core_cmInstr.h ****  */
 118:/home/torbjorn/eclipse-workspace/CoreNG/asf/thirdparty/CMSIS/Include/core_cmInstr.h **** #define __REV                             __rev
 119:/home/torbjorn/eclipse-workspace/CoreNG/asf/thirdparty/CMSIS/Include/core_cmInstr.h **** 
 120:/home/torbjorn/eclipse-workspace/CoreNG/asf/thirdparty/CMSIS/Include/core_cmInstr.h **** 
 121:/home/torbjorn/eclipse-workspace/CoreNG/asf/thirdparty/CMSIS/Include/core_cmInstr.h **** /** \brief  Reverse byte order (16 bit)
 122:/home/torbjorn/eclipse-workspace/CoreNG/asf/thirdparty/CMSIS/Include/core_cmInstr.h **** 
 123:/home/torbjorn/eclipse-workspace/CoreNG/asf/thirdparty/CMSIS/Include/core_cmInstr.h ****     This function reverses the byte order in two unsigned short values.
 124:/home/torbjorn/eclipse-workspace/CoreNG/asf/thirdparty/CMSIS/Include/core_cmInstr.h **** 
 125:/home/torbjorn/eclipse-workspace/CoreNG/asf/thirdparty/CMSIS/Include/core_cmInstr.h ****     \param [in]    value  Value to reverse
 126:/home/torbjorn/eclipse-workspace/CoreNG/asf/thirdparty/CMSIS/Include/core_cmInstr.h ****     \return               Reversed value
 127:/home/torbjorn/eclipse-workspace/CoreNG/asf/thirdparty/CMSIS/Include/core_cmInstr.h ****  */
 128:/home/torbjorn/eclipse-workspace/CoreNG/asf/thirdparty/CMSIS/Include/core_cmInstr.h **** #ifndef __NO_EMBEDDED_ASM
ARM GAS  /tmp/ccTYR2Ee.s 			page 77


 129:/home/torbjorn/eclipse-workspace/CoreNG/asf/thirdparty/CMSIS/Include/core_cmInstr.h **** __attribute__((section(".rev16_text"))) __STATIC_INLINE __ASM uint32_t __REV16(uint32_t value)
 130:/home/torbjorn/eclipse-workspace/CoreNG/asf/thirdparty/CMSIS/Include/core_cmInstr.h **** {
 131:/home/torbjorn/eclipse-workspace/CoreNG/asf/thirdparty/CMSIS/Include/core_cmInstr.h ****   rev16 r0, r0
 132:/home/torbjorn/eclipse-workspace/CoreNG/asf/thirdparty/CMSIS/Include/core_cmInstr.h ****   bx lr
 133:/home/torbjorn/eclipse-workspace/CoreNG/asf/thirdparty/CMSIS/Include/core_cmInstr.h **** }
 134:/home/torbjorn/eclipse-workspace/CoreNG/asf/thirdparty/CMSIS/Include/core_cmInstr.h **** #endif
 135:/home/torbjorn/eclipse-workspace/CoreNG/asf/thirdparty/CMSIS/Include/core_cmInstr.h **** 
 136:/home/torbjorn/eclipse-workspace/CoreNG/asf/thirdparty/CMSIS/Include/core_cmInstr.h **** /** \brief  Reverse byte order in signed short value
 137:/home/torbjorn/eclipse-workspace/CoreNG/asf/thirdparty/CMSIS/Include/core_cmInstr.h **** 
 138:/home/torbjorn/eclipse-workspace/CoreNG/asf/thirdparty/CMSIS/Include/core_cmInstr.h ****     This function reverses the byte order in a signed short value with sign extension to integer.
 139:/home/torbjorn/eclipse-workspace/CoreNG/asf/thirdparty/CMSIS/Include/core_cmInstr.h **** 
 140:/home/torbjorn/eclipse-workspace/CoreNG/asf/thirdparty/CMSIS/Include/core_cmInstr.h ****     \param [in]    value  Value to reverse
 141:/home/torbjorn/eclipse-workspace/CoreNG/asf/thirdparty/CMSIS/Include/core_cmInstr.h ****     \return               Reversed value
 142:/home/torbjorn/eclipse-workspace/CoreNG/asf/thirdparty/CMSIS/Include/core_cmInstr.h ****  */
 143:/home/torbjorn/eclipse-workspace/CoreNG/asf/thirdparty/CMSIS/Include/core_cmInstr.h **** #ifndef __NO_EMBEDDED_ASM
 144:/home/torbjorn/eclipse-workspace/CoreNG/asf/thirdparty/CMSIS/Include/core_cmInstr.h **** __attribute__((section(".revsh_text"))) __STATIC_INLINE __ASM int32_t __REVSH(int32_t value)
 145:/home/torbjorn/eclipse-workspace/CoreNG/asf/thirdparty/CMSIS/Include/core_cmInstr.h **** {
 146:/home/torbjorn/eclipse-workspace/CoreNG/asf/thirdparty/CMSIS/Include/core_cmInstr.h ****   revsh r0, r0
 147:/home/torbjorn/eclipse-workspace/CoreNG/asf/thirdparty/CMSIS/Include/core_cmInstr.h ****   bx lr
 148:/home/torbjorn/eclipse-workspace/CoreNG/asf/thirdparty/CMSIS/Include/core_cmInstr.h **** }
 149:/home/torbjorn/eclipse-workspace/CoreNG/asf/thirdparty/CMSIS/Include/core_cmInstr.h **** #endif
 150:/home/torbjorn/eclipse-workspace/CoreNG/asf/thirdparty/CMSIS/Include/core_cmInstr.h **** 
 151:/home/torbjorn/eclipse-workspace/CoreNG/asf/thirdparty/CMSIS/Include/core_cmInstr.h **** 
 152:/home/torbjorn/eclipse-workspace/CoreNG/asf/thirdparty/CMSIS/Include/core_cmInstr.h **** /** \brief  Rotate Right in unsigned value (32 bit)
 153:/home/torbjorn/eclipse-workspace/CoreNG/asf/thirdparty/CMSIS/Include/core_cmInstr.h **** 
 154:/home/torbjorn/eclipse-workspace/CoreNG/asf/thirdparty/CMSIS/Include/core_cmInstr.h ****     This function Rotate Right (immediate) provides the value of the contents of a register rotated
 155:/home/torbjorn/eclipse-workspace/CoreNG/asf/thirdparty/CMSIS/Include/core_cmInstr.h **** 
 156:/home/torbjorn/eclipse-workspace/CoreNG/asf/thirdparty/CMSIS/Include/core_cmInstr.h ****     \param [in]    value  Value to rotate
 157:/home/torbjorn/eclipse-workspace/CoreNG/asf/thirdparty/CMSIS/Include/core_cmInstr.h ****     \param [in]    value  Number of Bits to rotate
 158:/home/torbjorn/eclipse-workspace/CoreNG/asf/thirdparty/CMSIS/Include/core_cmInstr.h ****     \return               Rotated value
 159:/home/torbjorn/eclipse-workspace/CoreNG/asf/thirdparty/CMSIS/Include/core_cmInstr.h ****  */
 160:/home/torbjorn/eclipse-workspace/CoreNG/asf/thirdparty/CMSIS/Include/core_cmInstr.h **** #define __ROR                             __ror
 161:/home/torbjorn/eclipse-workspace/CoreNG/asf/thirdparty/CMSIS/Include/core_cmInstr.h **** 
 162:/home/torbjorn/eclipse-workspace/CoreNG/asf/thirdparty/CMSIS/Include/core_cmInstr.h **** 
 163:/home/torbjorn/eclipse-workspace/CoreNG/asf/thirdparty/CMSIS/Include/core_cmInstr.h **** /** \brief  Breakpoint
 164:/home/torbjorn/eclipse-workspace/CoreNG/asf/thirdparty/CMSIS/Include/core_cmInstr.h **** 
 165:/home/torbjorn/eclipse-workspace/CoreNG/asf/thirdparty/CMSIS/Include/core_cmInstr.h ****     This function causes the processor to enter Debug state.
 166:/home/torbjorn/eclipse-workspace/CoreNG/asf/thirdparty/CMSIS/Include/core_cmInstr.h ****     Debug tools can use this to investigate system state when the instruction at a particular addre
 167:/home/torbjorn/eclipse-workspace/CoreNG/asf/thirdparty/CMSIS/Include/core_cmInstr.h **** 
 168:/home/torbjorn/eclipse-workspace/CoreNG/asf/thirdparty/CMSIS/Include/core_cmInstr.h ****     \param [in]    value  is ignored by the processor.
 169:/home/torbjorn/eclipse-workspace/CoreNG/asf/thirdparty/CMSIS/Include/core_cmInstr.h ****                    If required, a debugger can use it to store additional information about the bre
 170:/home/torbjorn/eclipse-workspace/CoreNG/asf/thirdparty/CMSIS/Include/core_cmInstr.h ****  */
 171:/home/torbjorn/eclipse-workspace/CoreNG/asf/thirdparty/CMSIS/Include/core_cmInstr.h **** #define __BKPT(value)                       __breakpoint(value)
 172:/home/torbjorn/eclipse-workspace/CoreNG/asf/thirdparty/CMSIS/Include/core_cmInstr.h **** 
 173:/home/torbjorn/eclipse-workspace/CoreNG/asf/thirdparty/CMSIS/Include/core_cmInstr.h **** 
 174:/home/torbjorn/eclipse-workspace/CoreNG/asf/thirdparty/CMSIS/Include/core_cmInstr.h **** #if       (__CORTEX_M >= 0x03) || (__CORTEX_SC >= 300)
 175:/home/torbjorn/eclipse-workspace/CoreNG/asf/thirdparty/CMSIS/Include/core_cmInstr.h **** 
 176:/home/torbjorn/eclipse-workspace/CoreNG/asf/thirdparty/CMSIS/Include/core_cmInstr.h **** /** \brief  Reverse bit order of value
 177:/home/torbjorn/eclipse-workspace/CoreNG/asf/thirdparty/CMSIS/Include/core_cmInstr.h **** 
 178:/home/torbjorn/eclipse-workspace/CoreNG/asf/thirdparty/CMSIS/Include/core_cmInstr.h ****     This function reverses the bit order of the given value.
 179:/home/torbjorn/eclipse-workspace/CoreNG/asf/thirdparty/CMSIS/Include/core_cmInstr.h **** 
 180:/home/torbjorn/eclipse-workspace/CoreNG/asf/thirdparty/CMSIS/Include/core_cmInstr.h ****     \param [in]    value  Value to reverse
 181:/home/torbjorn/eclipse-workspace/CoreNG/asf/thirdparty/CMSIS/Include/core_cmInstr.h ****     \return               Reversed value
 182:/home/torbjorn/eclipse-workspace/CoreNG/asf/thirdparty/CMSIS/Include/core_cmInstr.h ****  */
 183:/home/torbjorn/eclipse-workspace/CoreNG/asf/thirdparty/CMSIS/Include/core_cmInstr.h **** #define __RBIT                            __rbit
 184:/home/torbjorn/eclipse-workspace/CoreNG/asf/thirdparty/CMSIS/Include/core_cmInstr.h **** 
 185:/home/torbjorn/eclipse-workspace/CoreNG/asf/thirdparty/CMSIS/Include/core_cmInstr.h **** 
ARM GAS  /tmp/ccTYR2Ee.s 			page 78


 186:/home/torbjorn/eclipse-workspace/CoreNG/asf/thirdparty/CMSIS/Include/core_cmInstr.h **** /** \brief  LDR Exclusive (8 bit)
 187:/home/torbjorn/eclipse-workspace/CoreNG/asf/thirdparty/CMSIS/Include/core_cmInstr.h **** 
 188:/home/torbjorn/eclipse-workspace/CoreNG/asf/thirdparty/CMSIS/Include/core_cmInstr.h ****     This function executes a exclusive LDR instruction for 8 bit value.
 189:/home/torbjorn/eclipse-workspace/CoreNG/asf/thirdparty/CMSIS/Include/core_cmInstr.h **** 
 190:/home/torbjorn/eclipse-workspace/CoreNG/asf/thirdparty/CMSIS/Include/core_cmInstr.h ****     \param [in]    ptr  Pointer to data
 191:/home/torbjorn/eclipse-workspace/CoreNG/asf/thirdparty/CMSIS/Include/core_cmInstr.h ****     \return             value of type uint8_t at (*ptr)
 192:/home/torbjorn/eclipse-workspace/CoreNG/asf/thirdparty/CMSIS/Include/core_cmInstr.h ****  */
 193:/home/torbjorn/eclipse-workspace/CoreNG/asf/thirdparty/CMSIS/Include/core_cmInstr.h **** #define __LDREXB(ptr)                     ((uint8_t ) __ldrex(ptr))
 194:/home/torbjorn/eclipse-workspace/CoreNG/asf/thirdparty/CMSIS/Include/core_cmInstr.h **** 
 195:/home/torbjorn/eclipse-workspace/CoreNG/asf/thirdparty/CMSIS/Include/core_cmInstr.h **** 
 196:/home/torbjorn/eclipse-workspace/CoreNG/asf/thirdparty/CMSIS/Include/core_cmInstr.h **** /** \brief  LDR Exclusive (16 bit)
 197:/home/torbjorn/eclipse-workspace/CoreNG/asf/thirdparty/CMSIS/Include/core_cmInstr.h **** 
 198:/home/torbjorn/eclipse-workspace/CoreNG/asf/thirdparty/CMSIS/Include/core_cmInstr.h ****     This function executes a exclusive LDR instruction for 16 bit values.
 199:/home/torbjorn/eclipse-workspace/CoreNG/asf/thirdparty/CMSIS/Include/core_cmInstr.h **** 
 200:/home/torbjorn/eclipse-workspace/CoreNG/asf/thirdparty/CMSIS/Include/core_cmInstr.h ****     \param [in]    ptr  Pointer to data
 201:/home/torbjorn/eclipse-workspace/CoreNG/asf/thirdparty/CMSIS/Include/core_cmInstr.h ****     \return        value of type uint16_t at (*ptr)
 202:/home/torbjorn/eclipse-workspace/CoreNG/asf/thirdparty/CMSIS/Include/core_cmInstr.h ****  */
 203:/home/torbjorn/eclipse-workspace/CoreNG/asf/thirdparty/CMSIS/Include/core_cmInstr.h **** #define __LDREXH(ptr)                     ((uint16_t) __ldrex(ptr))
 204:/home/torbjorn/eclipse-workspace/CoreNG/asf/thirdparty/CMSIS/Include/core_cmInstr.h **** 
 205:/home/torbjorn/eclipse-workspace/CoreNG/asf/thirdparty/CMSIS/Include/core_cmInstr.h **** 
 206:/home/torbjorn/eclipse-workspace/CoreNG/asf/thirdparty/CMSIS/Include/core_cmInstr.h **** /** \brief  LDR Exclusive (32 bit)
 207:/home/torbjorn/eclipse-workspace/CoreNG/asf/thirdparty/CMSIS/Include/core_cmInstr.h **** 
 208:/home/torbjorn/eclipse-workspace/CoreNG/asf/thirdparty/CMSIS/Include/core_cmInstr.h ****     This function executes a exclusive LDR instruction for 32 bit values.
 209:/home/torbjorn/eclipse-workspace/CoreNG/asf/thirdparty/CMSIS/Include/core_cmInstr.h **** 
 210:/home/torbjorn/eclipse-workspace/CoreNG/asf/thirdparty/CMSIS/Include/core_cmInstr.h ****     \param [in]    ptr  Pointer to data
 211:/home/torbjorn/eclipse-workspace/CoreNG/asf/thirdparty/CMSIS/Include/core_cmInstr.h ****     \return        value of type uint32_t at (*ptr)
 212:/home/torbjorn/eclipse-workspace/CoreNG/asf/thirdparty/CMSIS/Include/core_cmInstr.h ****  */
 213:/home/torbjorn/eclipse-workspace/CoreNG/asf/thirdparty/CMSIS/Include/core_cmInstr.h **** #define __LDREXW(ptr)                     ((uint32_t ) __ldrex(ptr))
 214:/home/torbjorn/eclipse-workspace/CoreNG/asf/thirdparty/CMSIS/Include/core_cmInstr.h **** 
 215:/home/torbjorn/eclipse-workspace/CoreNG/asf/thirdparty/CMSIS/Include/core_cmInstr.h **** 
 216:/home/torbjorn/eclipse-workspace/CoreNG/asf/thirdparty/CMSIS/Include/core_cmInstr.h **** /** \brief  STR Exclusive (8 bit)
 217:/home/torbjorn/eclipse-workspace/CoreNG/asf/thirdparty/CMSIS/Include/core_cmInstr.h **** 
 218:/home/torbjorn/eclipse-workspace/CoreNG/asf/thirdparty/CMSIS/Include/core_cmInstr.h ****     This function executes a exclusive STR instruction for 8 bit values.
 219:/home/torbjorn/eclipse-workspace/CoreNG/asf/thirdparty/CMSIS/Include/core_cmInstr.h **** 
 220:/home/torbjorn/eclipse-workspace/CoreNG/asf/thirdparty/CMSIS/Include/core_cmInstr.h ****     \param [in]  value  Value to store
 221:/home/torbjorn/eclipse-workspace/CoreNG/asf/thirdparty/CMSIS/Include/core_cmInstr.h ****     \param [in]    ptr  Pointer to location
 222:/home/torbjorn/eclipse-workspace/CoreNG/asf/thirdparty/CMSIS/Include/core_cmInstr.h ****     \return          0  Function succeeded
 223:/home/torbjorn/eclipse-workspace/CoreNG/asf/thirdparty/CMSIS/Include/core_cmInstr.h ****     \return          1  Function failed
 224:/home/torbjorn/eclipse-workspace/CoreNG/asf/thirdparty/CMSIS/Include/core_cmInstr.h ****  */
 225:/home/torbjorn/eclipse-workspace/CoreNG/asf/thirdparty/CMSIS/Include/core_cmInstr.h **** #define __STREXB(value, ptr)              __strex(value, ptr)
 226:/home/torbjorn/eclipse-workspace/CoreNG/asf/thirdparty/CMSIS/Include/core_cmInstr.h **** 
 227:/home/torbjorn/eclipse-workspace/CoreNG/asf/thirdparty/CMSIS/Include/core_cmInstr.h **** 
 228:/home/torbjorn/eclipse-workspace/CoreNG/asf/thirdparty/CMSIS/Include/core_cmInstr.h **** /** \brief  STR Exclusive (16 bit)
 229:/home/torbjorn/eclipse-workspace/CoreNG/asf/thirdparty/CMSIS/Include/core_cmInstr.h **** 
 230:/home/torbjorn/eclipse-workspace/CoreNG/asf/thirdparty/CMSIS/Include/core_cmInstr.h ****     This function executes a exclusive STR instruction for 16 bit values.
 231:/home/torbjorn/eclipse-workspace/CoreNG/asf/thirdparty/CMSIS/Include/core_cmInstr.h **** 
 232:/home/torbjorn/eclipse-workspace/CoreNG/asf/thirdparty/CMSIS/Include/core_cmInstr.h ****     \param [in]  value  Value to store
 233:/home/torbjorn/eclipse-workspace/CoreNG/asf/thirdparty/CMSIS/Include/core_cmInstr.h ****     \param [in]    ptr  Pointer to location
 234:/home/torbjorn/eclipse-workspace/CoreNG/asf/thirdparty/CMSIS/Include/core_cmInstr.h ****     \return          0  Function succeeded
 235:/home/torbjorn/eclipse-workspace/CoreNG/asf/thirdparty/CMSIS/Include/core_cmInstr.h ****     \return          1  Function failed
 236:/home/torbjorn/eclipse-workspace/CoreNG/asf/thirdparty/CMSIS/Include/core_cmInstr.h ****  */
 237:/home/torbjorn/eclipse-workspace/CoreNG/asf/thirdparty/CMSIS/Include/core_cmInstr.h **** #define __STREXH(value, ptr)              __strex(value, ptr)
 238:/home/torbjorn/eclipse-workspace/CoreNG/asf/thirdparty/CMSIS/Include/core_cmInstr.h **** 
 239:/home/torbjorn/eclipse-workspace/CoreNG/asf/thirdparty/CMSIS/Include/core_cmInstr.h **** 
 240:/home/torbjorn/eclipse-workspace/CoreNG/asf/thirdparty/CMSIS/Include/core_cmInstr.h **** /** \brief  STR Exclusive (32 bit)
 241:/home/torbjorn/eclipse-workspace/CoreNG/asf/thirdparty/CMSIS/Include/core_cmInstr.h **** 
 242:/home/torbjorn/eclipse-workspace/CoreNG/asf/thirdparty/CMSIS/Include/core_cmInstr.h ****     This function executes a exclusive STR instruction for 32 bit values.
ARM GAS  /tmp/ccTYR2Ee.s 			page 79


 243:/home/torbjorn/eclipse-workspace/CoreNG/asf/thirdparty/CMSIS/Include/core_cmInstr.h **** 
 244:/home/torbjorn/eclipse-workspace/CoreNG/asf/thirdparty/CMSIS/Include/core_cmInstr.h ****     \param [in]  value  Value to store
 245:/home/torbjorn/eclipse-workspace/CoreNG/asf/thirdparty/CMSIS/Include/core_cmInstr.h ****     \param [in]    ptr  Pointer to location
 246:/home/torbjorn/eclipse-workspace/CoreNG/asf/thirdparty/CMSIS/Include/core_cmInstr.h ****     \return          0  Function succeeded
 247:/home/torbjorn/eclipse-workspace/CoreNG/asf/thirdparty/CMSIS/Include/core_cmInstr.h ****     \return          1  Function failed
 248:/home/torbjorn/eclipse-workspace/CoreNG/asf/thirdparty/CMSIS/Include/core_cmInstr.h ****  */
 249:/home/torbjorn/eclipse-workspace/CoreNG/asf/thirdparty/CMSIS/Include/core_cmInstr.h **** #define __STREXW(value, ptr)              __strex(value, ptr)
 250:/home/torbjorn/eclipse-workspace/CoreNG/asf/thirdparty/CMSIS/Include/core_cmInstr.h **** 
 251:/home/torbjorn/eclipse-workspace/CoreNG/asf/thirdparty/CMSIS/Include/core_cmInstr.h **** 
 252:/home/torbjorn/eclipse-workspace/CoreNG/asf/thirdparty/CMSIS/Include/core_cmInstr.h **** /** \brief  Remove the exclusive lock
 253:/home/torbjorn/eclipse-workspace/CoreNG/asf/thirdparty/CMSIS/Include/core_cmInstr.h **** 
 254:/home/torbjorn/eclipse-workspace/CoreNG/asf/thirdparty/CMSIS/Include/core_cmInstr.h ****     This function removes the exclusive lock which is created by LDREX.
 255:/home/torbjorn/eclipse-workspace/CoreNG/asf/thirdparty/CMSIS/Include/core_cmInstr.h **** 
 256:/home/torbjorn/eclipse-workspace/CoreNG/asf/thirdparty/CMSIS/Include/core_cmInstr.h ****  */
 257:/home/torbjorn/eclipse-workspace/CoreNG/asf/thirdparty/CMSIS/Include/core_cmInstr.h **** #define __CLREX                           __clrex
 258:/home/torbjorn/eclipse-workspace/CoreNG/asf/thirdparty/CMSIS/Include/core_cmInstr.h **** 
 259:/home/torbjorn/eclipse-workspace/CoreNG/asf/thirdparty/CMSIS/Include/core_cmInstr.h **** 
 260:/home/torbjorn/eclipse-workspace/CoreNG/asf/thirdparty/CMSIS/Include/core_cmInstr.h **** /** \brief  Signed Saturate
 261:/home/torbjorn/eclipse-workspace/CoreNG/asf/thirdparty/CMSIS/Include/core_cmInstr.h **** 
 262:/home/torbjorn/eclipse-workspace/CoreNG/asf/thirdparty/CMSIS/Include/core_cmInstr.h ****     This function saturates a signed value.
 263:/home/torbjorn/eclipse-workspace/CoreNG/asf/thirdparty/CMSIS/Include/core_cmInstr.h **** 
 264:/home/torbjorn/eclipse-workspace/CoreNG/asf/thirdparty/CMSIS/Include/core_cmInstr.h ****     \param [in]  value  Value to be saturated
 265:/home/torbjorn/eclipse-workspace/CoreNG/asf/thirdparty/CMSIS/Include/core_cmInstr.h ****     \param [in]    sat  Bit position to saturate to (1..32)
 266:/home/torbjorn/eclipse-workspace/CoreNG/asf/thirdparty/CMSIS/Include/core_cmInstr.h ****     \return             Saturated value
 267:/home/torbjorn/eclipse-workspace/CoreNG/asf/thirdparty/CMSIS/Include/core_cmInstr.h ****  */
 268:/home/torbjorn/eclipse-workspace/CoreNG/asf/thirdparty/CMSIS/Include/core_cmInstr.h **** #define __SSAT                            __ssat
 269:/home/torbjorn/eclipse-workspace/CoreNG/asf/thirdparty/CMSIS/Include/core_cmInstr.h **** 
 270:/home/torbjorn/eclipse-workspace/CoreNG/asf/thirdparty/CMSIS/Include/core_cmInstr.h **** 
 271:/home/torbjorn/eclipse-workspace/CoreNG/asf/thirdparty/CMSIS/Include/core_cmInstr.h **** /** \brief  Unsigned Saturate
 272:/home/torbjorn/eclipse-workspace/CoreNG/asf/thirdparty/CMSIS/Include/core_cmInstr.h **** 
 273:/home/torbjorn/eclipse-workspace/CoreNG/asf/thirdparty/CMSIS/Include/core_cmInstr.h ****     This function saturates an unsigned value.
 274:/home/torbjorn/eclipse-workspace/CoreNG/asf/thirdparty/CMSIS/Include/core_cmInstr.h **** 
 275:/home/torbjorn/eclipse-workspace/CoreNG/asf/thirdparty/CMSIS/Include/core_cmInstr.h ****     \param [in]  value  Value to be saturated
 276:/home/torbjorn/eclipse-workspace/CoreNG/asf/thirdparty/CMSIS/Include/core_cmInstr.h ****     \param [in]    sat  Bit position to saturate to (0..31)
 277:/home/torbjorn/eclipse-workspace/CoreNG/asf/thirdparty/CMSIS/Include/core_cmInstr.h ****     \return             Saturated value
 278:/home/torbjorn/eclipse-workspace/CoreNG/asf/thirdparty/CMSIS/Include/core_cmInstr.h ****  */
 279:/home/torbjorn/eclipse-workspace/CoreNG/asf/thirdparty/CMSIS/Include/core_cmInstr.h **** #define __USAT                            __usat
 280:/home/torbjorn/eclipse-workspace/CoreNG/asf/thirdparty/CMSIS/Include/core_cmInstr.h **** 
 281:/home/torbjorn/eclipse-workspace/CoreNG/asf/thirdparty/CMSIS/Include/core_cmInstr.h **** 
 282:/home/torbjorn/eclipse-workspace/CoreNG/asf/thirdparty/CMSIS/Include/core_cmInstr.h **** /** \brief  Count leading zeros
 283:/home/torbjorn/eclipse-workspace/CoreNG/asf/thirdparty/CMSIS/Include/core_cmInstr.h **** 
 284:/home/torbjorn/eclipse-workspace/CoreNG/asf/thirdparty/CMSIS/Include/core_cmInstr.h ****     This function counts the number of leading zeros of a data value.
 285:/home/torbjorn/eclipse-workspace/CoreNG/asf/thirdparty/CMSIS/Include/core_cmInstr.h **** 
 286:/home/torbjorn/eclipse-workspace/CoreNG/asf/thirdparty/CMSIS/Include/core_cmInstr.h ****     \param [in]  value  Value to count the leading zeros
 287:/home/torbjorn/eclipse-workspace/CoreNG/asf/thirdparty/CMSIS/Include/core_cmInstr.h ****     \return             number of leading zeros in value
 288:/home/torbjorn/eclipse-workspace/CoreNG/asf/thirdparty/CMSIS/Include/core_cmInstr.h ****  */
 289:/home/torbjorn/eclipse-workspace/CoreNG/asf/thirdparty/CMSIS/Include/core_cmInstr.h **** #define __CLZ                             __clz
 290:/home/torbjorn/eclipse-workspace/CoreNG/asf/thirdparty/CMSIS/Include/core_cmInstr.h **** 
 291:/home/torbjorn/eclipse-workspace/CoreNG/asf/thirdparty/CMSIS/Include/core_cmInstr.h **** 
 292:/home/torbjorn/eclipse-workspace/CoreNG/asf/thirdparty/CMSIS/Include/core_cmInstr.h **** /** \brief  Rotate Right with Extend (32 bit)
 293:/home/torbjorn/eclipse-workspace/CoreNG/asf/thirdparty/CMSIS/Include/core_cmInstr.h **** 
 294:/home/torbjorn/eclipse-workspace/CoreNG/asf/thirdparty/CMSIS/Include/core_cmInstr.h ****     This function moves each bit of a bitstring right by one bit. The carry input is shifted in at 
 295:/home/torbjorn/eclipse-workspace/CoreNG/asf/thirdparty/CMSIS/Include/core_cmInstr.h **** 
 296:/home/torbjorn/eclipse-workspace/CoreNG/asf/thirdparty/CMSIS/Include/core_cmInstr.h ****     \param [in]    value  Value to rotate
 297:/home/torbjorn/eclipse-workspace/CoreNG/asf/thirdparty/CMSIS/Include/core_cmInstr.h ****     \return               Rotated value
 298:/home/torbjorn/eclipse-workspace/CoreNG/asf/thirdparty/CMSIS/Include/core_cmInstr.h ****  */
 299:/home/torbjorn/eclipse-workspace/CoreNG/asf/thirdparty/CMSIS/Include/core_cmInstr.h **** #ifndef __NO_EMBEDDED_ASM
ARM GAS  /tmp/ccTYR2Ee.s 			page 80


 300:/home/torbjorn/eclipse-workspace/CoreNG/asf/thirdparty/CMSIS/Include/core_cmInstr.h **** __attribute__((section(".rrx_text"))) __STATIC_INLINE __ASM uint32_t __RRX(uint32_t value)
 301:/home/torbjorn/eclipse-workspace/CoreNG/asf/thirdparty/CMSIS/Include/core_cmInstr.h **** {
 302:/home/torbjorn/eclipse-workspace/CoreNG/asf/thirdparty/CMSIS/Include/core_cmInstr.h ****   rrx r0, r0
 303:/home/torbjorn/eclipse-workspace/CoreNG/asf/thirdparty/CMSIS/Include/core_cmInstr.h ****   bx lr
 304:/home/torbjorn/eclipse-workspace/CoreNG/asf/thirdparty/CMSIS/Include/core_cmInstr.h **** }
 305:/home/torbjorn/eclipse-workspace/CoreNG/asf/thirdparty/CMSIS/Include/core_cmInstr.h **** #endif
 306:/home/torbjorn/eclipse-workspace/CoreNG/asf/thirdparty/CMSIS/Include/core_cmInstr.h **** 
 307:/home/torbjorn/eclipse-workspace/CoreNG/asf/thirdparty/CMSIS/Include/core_cmInstr.h **** 
 308:/home/torbjorn/eclipse-workspace/CoreNG/asf/thirdparty/CMSIS/Include/core_cmInstr.h **** /** \brief  LDRT Unprivileged (8 bit)
 309:/home/torbjorn/eclipse-workspace/CoreNG/asf/thirdparty/CMSIS/Include/core_cmInstr.h **** 
 310:/home/torbjorn/eclipse-workspace/CoreNG/asf/thirdparty/CMSIS/Include/core_cmInstr.h ****     This function executes a Unprivileged LDRT instruction for 8 bit value.
 311:/home/torbjorn/eclipse-workspace/CoreNG/asf/thirdparty/CMSIS/Include/core_cmInstr.h **** 
 312:/home/torbjorn/eclipse-workspace/CoreNG/asf/thirdparty/CMSIS/Include/core_cmInstr.h ****     \param [in]    ptr  Pointer to data
 313:/home/torbjorn/eclipse-workspace/CoreNG/asf/thirdparty/CMSIS/Include/core_cmInstr.h ****     \return             value of type uint8_t at (*ptr)
 314:/home/torbjorn/eclipse-workspace/CoreNG/asf/thirdparty/CMSIS/Include/core_cmInstr.h ****  */
 315:/home/torbjorn/eclipse-workspace/CoreNG/asf/thirdparty/CMSIS/Include/core_cmInstr.h **** #define __LDRBT(ptr)                      ((uint8_t )  __ldrt(ptr))
 316:/home/torbjorn/eclipse-workspace/CoreNG/asf/thirdparty/CMSIS/Include/core_cmInstr.h **** 
 317:/home/torbjorn/eclipse-workspace/CoreNG/asf/thirdparty/CMSIS/Include/core_cmInstr.h **** 
 318:/home/torbjorn/eclipse-workspace/CoreNG/asf/thirdparty/CMSIS/Include/core_cmInstr.h **** /** \brief  LDRT Unprivileged (16 bit)
 319:/home/torbjorn/eclipse-workspace/CoreNG/asf/thirdparty/CMSIS/Include/core_cmInstr.h **** 
 320:/home/torbjorn/eclipse-workspace/CoreNG/asf/thirdparty/CMSIS/Include/core_cmInstr.h ****     This function executes a Unprivileged LDRT instruction for 16 bit values.
 321:/home/torbjorn/eclipse-workspace/CoreNG/asf/thirdparty/CMSIS/Include/core_cmInstr.h **** 
 322:/home/torbjorn/eclipse-workspace/CoreNG/asf/thirdparty/CMSIS/Include/core_cmInstr.h ****     \param [in]    ptr  Pointer to data
 323:/home/torbjorn/eclipse-workspace/CoreNG/asf/thirdparty/CMSIS/Include/core_cmInstr.h ****     \return        value of type uint16_t at (*ptr)
 324:/home/torbjorn/eclipse-workspace/CoreNG/asf/thirdparty/CMSIS/Include/core_cmInstr.h ****  */
 325:/home/torbjorn/eclipse-workspace/CoreNG/asf/thirdparty/CMSIS/Include/core_cmInstr.h **** #define __LDRHT(ptr)                      ((uint16_t)  __ldrt(ptr))
 326:/home/torbjorn/eclipse-workspace/CoreNG/asf/thirdparty/CMSIS/Include/core_cmInstr.h **** 
 327:/home/torbjorn/eclipse-workspace/CoreNG/asf/thirdparty/CMSIS/Include/core_cmInstr.h **** 
 328:/home/torbjorn/eclipse-workspace/CoreNG/asf/thirdparty/CMSIS/Include/core_cmInstr.h **** /** \brief  LDRT Unprivileged (32 bit)
 329:/home/torbjorn/eclipse-workspace/CoreNG/asf/thirdparty/CMSIS/Include/core_cmInstr.h **** 
 330:/home/torbjorn/eclipse-workspace/CoreNG/asf/thirdparty/CMSIS/Include/core_cmInstr.h ****     This function executes a Unprivileged LDRT instruction for 32 bit values.
 331:/home/torbjorn/eclipse-workspace/CoreNG/asf/thirdparty/CMSIS/Include/core_cmInstr.h **** 
 332:/home/torbjorn/eclipse-workspace/CoreNG/asf/thirdparty/CMSIS/Include/core_cmInstr.h ****     \param [in]    ptr  Pointer to data
 333:/home/torbjorn/eclipse-workspace/CoreNG/asf/thirdparty/CMSIS/Include/core_cmInstr.h ****     \return        value of type uint32_t at (*ptr)
 334:/home/torbjorn/eclipse-workspace/CoreNG/asf/thirdparty/CMSIS/Include/core_cmInstr.h ****  */
 335:/home/torbjorn/eclipse-workspace/CoreNG/asf/thirdparty/CMSIS/Include/core_cmInstr.h **** #define __LDRT(ptr)                       ((uint32_t ) __ldrt(ptr))
 336:/home/torbjorn/eclipse-workspace/CoreNG/asf/thirdparty/CMSIS/Include/core_cmInstr.h **** 
 337:/home/torbjorn/eclipse-workspace/CoreNG/asf/thirdparty/CMSIS/Include/core_cmInstr.h **** 
 338:/home/torbjorn/eclipse-workspace/CoreNG/asf/thirdparty/CMSIS/Include/core_cmInstr.h **** /** \brief  STRT Unprivileged (8 bit)
 339:/home/torbjorn/eclipse-workspace/CoreNG/asf/thirdparty/CMSIS/Include/core_cmInstr.h **** 
 340:/home/torbjorn/eclipse-workspace/CoreNG/asf/thirdparty/CMSIS/Include/core_cmInstr.h ****     This function executes a Unprivileged STRT instruction for 8 bit values.
 341:/home/torbjorn/eclipse-workspace/CoreNG/asf/thirdparty/CMSIS/Include/core_cmInstr.h **** 
 342:/home/torbjorn/eclipse-workspace/CoreNG/asf/thirdparty/CMSIS/Include/core_cmInstr.h ****     \param [in]  value  Value to store
 343:/home/torbjorn/eclipse-workspace/CoreNG/asf/thirdparty/CMSIS/Include/core_cmInstr.h ****     \param [in]    ptr  Pointer to location
 344:/home/torbjorn/eclipse-workspace/CoreNG/asf/thirdparty/CMSIS/Include/core_cmInstr.h ****  */
 345:/home/torbjorn/eclipse-workspace/CoreNG/asf/thirdparty/CMSIS/Include/core_cmInstr.h **** #define __STRBT(value, ptr)               __strt(value, ptr)
 346:/home/torbjorn/eclipse-workspace/CoreNG/asf/thirdparty/CMSIS/Include/core_cmInstr.h **** 
 347:/home/torbjorn/eclipse-workspace/CoreNG/asf/thirdparty/CMSIS/Include/core_cmInstr.h **** 
 348:/home/torbjorn/eclipse-workspace/CoreNG/asf/thirdparty/CMSIS/Include/core_cmInstr.h **** /** \brief  STRT Unprivileged (16 bit)
 349:/home/torbjorn/eclipse-workspace/CoreNG/asf/thirdparty/CMSIS/Include/core_cmInstr.h **** 
 350:/home/torbjorn/eclipse-workspace/CoreNG/asf/thirdparty/CMSIS/Include/core_cmInstr.h ****     This function executes a Unprivileged STRT instruction for 16 bit values.
 351:/home/torbjorn/eclipse-workspace/CoreNG/asf/thirdparty/CMSIS/Include/core_cmInstr.h **** 
 352:/home/torbjorn/eclipse-workspace/CoreNG/asf/thirdparty/CMSIS/Include/core_cmInstr.h ****     \param [in]  value  Value to store
 353:/home/torbjorn/eclipse-workspace/CoreNG/asf/thirdparty/CMSIS/Include/core_cmInstr.h ****     \param [in]    ptr  Pointer to location
 354:/home/torbjorn/eclipse-workspace/CoreNG/asf/thirdparty/CMSIS/Include/core_cmInstr.h ****  */
 355:/home/torbjorn/eclipse-workspace/CoreNG/asf/thirdparty/CMSIS/Include/core_cmInstr.h **** #define __STRHT(value, ptr)               __strt(value, ptr)
 356:/home/torbjorn/eclipse-workspace/CoreNG/asf/thirdparty/CMSIS/Include/core_cmInstr.h **** 
ARM GAS  /tmp/ccTYR2Ee.s 			page 81


 357:/home/torbjorn/eclipse-workspace/CoreNG/asf/thirdparty/CMSIS/Include/core_cmInstr.h **** 
 358:/home/torbjorn/eclipse-workspace/CoreNG/asf/thirdparty/CMSIS/Include/core_cmInstr.h **** /** \brief  STRT Unprivileged (32 bit)
 359:/home/torbjorn/eclipse-workspace/CoreNG/asf/thirdparty/CMSIS/Include/core_cmInstr.h **** 
 360:/home/torbjorn/eclipse-workspace/CoreNG/asf/thirdparty/CMSIS/Include/core_cmInstr.h ****     This function executes a Unprivileged STRT instruction for 32 bit values.
 361:/home/torbjorn/eclipse-workspace/CoreNG/asf/thirdparty/CMSIS/Include/core_cmInstr.h **** 
 362:/home/torbjorn/eclipse-workspace/CoreNG/asf/thirdparty/CMSIS/Include/core_cmInstr.h ****     \param [in]  value  Value to store
 363:/home/torbjorn/eclipse-workspace/CoreNG/asf/thirdparty/CMSIS/Include/core_cmInstr.h ****     \param [in]    ptr  Pointer to location
 364:/home/torbjorn/eclipse-workspace/CoreNG/asf/thirdparty/CMSIS/Include/core_cmInstr.h ****  */
 365:/home/torbjorn/eclipse-workspace/CoreNG/asf/thirdparty/CMSIS/Include/core_cmInstr.h **** #define __STRT(value, ptr)                __strt(value, ptr)
 366:/home/torbjorn/eclipse-workspace/CoreNG/asf/thirdparty/CMSIS/Include/core_cmInstr.h **** 
 367:/home/torbjorn/eclipse-workspace/CoreNG/asf/thirdparty/CMSIS/Include/core_cmInstr.h **** #endif /* (__CORTEX_M >= 0x03) || (__CORTEX_SC >= 300) */
 368:/home/torbjorn/eclipse-workspace/CoreNG/asf/thirdparty/CMSIS/Include/core_cmInstr.h **** 
 369:/home/torbjorn/eclipse-workspace/CoreNG/asf/thirdparty/CMSIS/Include/core_cmInstr.h **** 
 370:/home/torbjorn/eclipse-workspace/CoreNG/asf/thirdparty/CMSIS/Include/core_cmInstr.h **** #elif defined ( __GNUC__ ) /*------------------ GNU Compiler ---------------------*/
 371:/home/torbjorn/eclipse-workspace/CoreNG/asf/thirdparty/CMSIS/Include/core_cmInstr.h **** /* GNU gcc specific functions */
 372:/home/torbjorn/eclipse-workspace/CoreNG/asf/thirdparty/CMSIS/Include/core_cmInstr.h **** 
 373:/home/torbjorn/eclipse-workspace/CoreNG/asf/thirdparty/CMSIS/Include/core_cmInstr.h **** /* Define macros for porting to both thumb1 and thumb2.
 374:/home/torbjorn/eclipse-workspace/CoreNG/asf/thirdparty/CMSIS/Include/core_cmInstr.h ****  * For thumb1, use low register (r0-r7), specified by constrant "l"
 375:/home/torbjorn/eclipse-workspace/CoreNG/asf/thirdparty/CMSIS/Include/core_cmInstr.h ****  * Otherwise, use general registers, specified by constrant "r" */
 376:/home/torbjorn/eclipse-workspace/CoreNG/asf/thirdparty/CMSIS/Include/core_cmInstr.h **** #if defined (__thumb__) && !defined (__thumb2__)
 377:/home/torbjorn/eclipse-workspace/CoreNG/asf/thirdparty/CMSIS/Include/core_cmInstr.h **** #define __CMSIS_GCC_OUT_REG(r) "=l" (r)
 378:/home/torbjorn/eclipse-workspace/CoreNG/asf/thirdparty/CMSIS/Include/core_cmInstr.h **** #define __CMSIS_GCC_USE_REG(r) "l" (r)
 379:/home/torbjorn/eclipse-workspace/CoreNG/asf/thirdparty/CMSIS/Include/core_cmInstr.h **** #else
 380:/home/torbjorn/eclipse-workspace/CoreNG/asf/thirdparty/CMSIS/Include/core_cmInstr.h **** #define __CMSIS_GCC_OUT_REG(r) "=r" (r)
 381:/home/torbjorn/eclipse-workspace/CoreNG/asf/thirdparty/CMSIS/Include/core_cmInstr.h **** #define __CMSIS_GCC_USE_REG(r) "r" (r)
 382:/home/torbjorn/eclipse-workspace/CoreNG/asf/thirdparty/CMSIS/Include/core_cmInstr.h **** #endif
 383:/home/torbjorn/eclipse-workspace/CoreNG/asf/thirdparty/CMSIS/Include/core_cmInstr.h **** 
 384:/home/torbjorn/eclipse-workspace/CoreNG/asf/thirdparty/CMSIS/Include/core_cmInstr.h **** /** \brief  No Operation
 385:/home/torbjorn/eclipse-workspace/CoreNG/asf/thirdparty/CMSIS/Include/core_cmInstr.h **** 
 386:/home/torbjorn/eclipse-workspace/CoreNG/asf/thirdparty/CMSIS/Include/core_cmInstr.h ****     No Operation does nothing. This instruction can be used for code alignment purposes.
 387:/home/torbjorn/eclipse-workspace/CoreNG/asf/thirdparty/CMSIS/Include/core_cmInstr.h ****  */
 388:/home/torbjorn/eclipse-workspace/CoreNG/asf/thirdparty/CMSIS/Include/core_cmInstr.h **** __attribute__( ( always_inline ) ) __STATIC_INLINE void __NOP(void)
 389:/home/torbjorn/eclipse-workspace/CoreNG/asf/thirdparty/CMSIS/Include/core_cmInstr.h **** {
 390:/home/torbjorn/eclipse-workspace/CoreNG/asf/thirdparty/CMSIS/Include/core_cmInstr.h ****   __ASM volatile ("nop");
 391:/home/torbjorn/eclipse-workspace/CoreNG/asf/thirdparty/CMSIS/Include/core_cmInstr.h **** }
 392:/home/torbjorn/eclipse-workspace/CoreNG/asf/thirdparty/CMSIS/Include/core_cmInstr.h **** 
 393:/home/torbjorn/eclipse-workspace/CoreNG/asf/thirdparty/CMSIS/Include/core_cmInstr.h **** 
 394:/home/torbjorn/eclipse-workspace/CoreNG/asf/thirdparty/CMSIS/Include/core_cmInstr.h **** /** \brief  Wait For Interrupt
 395:/home/torbjorn/eclipse-workspace/CoreNG/asf/thirdparty/CMSIS/Include/core_cmInstr.h **** 
 396:/home/torbjorn/eclipse-workspace/CoreNG/asf/thirdparty/CMSIS/Include/core_cmInstr.h ****     Wait For Interrupt is a hint instruction that suspends execution
 397:/home/torbjorn/eclipse-workspace/CoreNG/asf/thirdparty/CMSIS/Include/core_cmInstr.h ****     until one of a number of events occurs.
 398:/home/torbjorn/eclipse-workspace/CoreNG/asf/thirdparty/CMSIS/Include/core_cmInstr.h ****  */
 399:/home/torbjorn/eclipse-workspace/CoreNG/asf/thirdparty/CMSIS/Include/core_cmInstr.h **** __attribute__( ( always_inline ) ) __STATIC_INLINE void __WFI(void)
 400:/home/torbjorn/eclipse-workspace/CoreNG/asf/thirdparty/CMSIS/Include/core_cmInstr.h **** {
 401:/home/torbjorn/eclipse-workspace/CoreNG/asf/thirdparty/CMSIS/Include/core_cmInstr.h ****   __ASM volatile ("wfi");
 402:/home/torbjorn/eclipse-workspace/CoreNG/asf/thirdparty/CMSIS/Include/core_cmInstr.h **** }
 403:/home/torbjorn/eclipse-workspace/CoreNG/asf/thirdparty/CMSIS/Include/core_cmInstr.h **** 
 404:/home/torbjorn/eclipse-workspace/CoreNG/asf/thirdparty/CMSIS/Include/core_cmInstr.h **** 
 405:/home/torbjorn/eclipse-workspace/CoreNG/asf/thirdparty/CMSIS/Include/core_cmInstr.h **** /** \brief  Wait For Event
 406:/home/torbjorn/eclipse-workspace/CoreNG/asf/thirdparty/CMSIS/Include/core_cmInstr.h **** 
 407:/home/torbjorn/eclipse-workspace/CoreNG/asf/thirdparty/CMSIS/Include/core_cmInstr.h ****     Wait For Event is a hint instruction that permits the processor to enter
 408:/home/torbjorn/eclipse-workspace/CoreNG/asf/thirdparty/CMSIS/Include/core_cmInstr.h ****     a low-power state until one of a number of events occurs.
 409:/home/torbjorn/eclipse-workspace/CoreNG/asf/thirdparty/CMSIS/Include/core_cmInstr.h ****  */
 410:/home/torbjorn/eclipse-workspace/CoreNG/asf/thirdparty/CMSIS/Include/core_cmInstr.h **** __attribute__( ( always_inline ) ) __STATIC_INLINE void __WFE(void)
 411:/home/torbjorn/eclipse-workspace/CoreNG/asf/thirdparty/CMSIS/Include/core_cmInstr.h **** {
 412:/home/torbjorn/eclipse-workspace/CoreNG/asf/thirdparty/CMSIS/Include/core_cmInstr.h ****   __ASM volatile ("wfe");
 413:/home/torbjorn/eclipse-workspace/CoreNG/asf/thirdparty/CMSIS/Include/core_cmInstr.h **** }
ARM GAS  /tmp/ccTYR2Ee.s 			page 82


 414:/home/torbjorn/eclipse-workspace/CoreNG/asf/thirdparty/CMSIS/Include/core_cmInstr.h **** 
 415:/home/torbjorn/eclipse-workspace/CoreNG/asf/thirdparty/CMSIS/Include/core_cmInstr.h **** 
 416:/home/torbjorn/eclipse-workspace/CoreNG/asf/thirdparty/CMSIS/Include/core_cmInstr.h **** /** \brief  Send Event
 417:/home/torbjorn/eclipse-workspace/CoreNG/asf/thirdparty/CMSIS/Include/core_cmInstr.h **** 
 418:/home/torbjorn/eclipse-workspace/CoreNG/asf/thirdparty/CMSIS/Include/core_cmInstr.h ****     Send Event is a hint instruction. It causes an event to be signaled to the CPU.
 419:/home/torbjorn/eclipse-workspace/CoreNG/asf/thirdparty/CMSIS/Include/core_cmInstr.h ****  */
 420:/home/torbjorn/eclipse-workspace/CoreNG/asf/thirdparty/CMSIS/Include/core_cmInstr.h **** __attribute__( ( always_inline ) ) __STATIC_INLINE void __SEV(void)
 421:/home/torbjorn/eclipse-workspace/CoreNG/asf/thirdparty/CMSIS/Include/core_cmInstr.h **** {
