ARM GAS  /tmp/ccW7XyQ0.s 			page 1


   1              		.cpu cortex-m7
   2              		.eabi_attribute 28, 1
   3              		.eabi_attribute 20, 1
   4              		.eabi_attribute 21, 1
   5              		.eabi_attribute 23, 3
   6              		.eabi_attribute 24, 1
   7              		.eabi_attribute 25, 1
   8              		.eabi_attribute 26, 1
   9              		.eabi_attribute 30, 2
  10              		.eabi_attribute 34, 1
  11              		.eabi_attribute 18, 4
  12              		.file	"RingBuffer.cpp"
  13              		.text
  14              	.Ltext0:
  15              		.cfi_sections	.debug_frame
  16              		.section	.text._ZN10RingBufferC2Ev,"ax",%progbits
  17              		.align	1
  18              		.p2align 2,,3
  19              		.global	_ZN10RingBufferC2Ev
  20              		.syntax unified
  21              		.thumb
  22              		.thumb_func
  23              		.fpu fpv5-d16
  24              		.type	_ZN10RingBufferC2Ev, %function
  25              	_ZN10RingBufferC2Ev:
  26              	.LFB3:
  27              		.file 1 "../cores/arduino/RingBuffer.cpp"
   1:../cores/arduino/RingBuffer.cpp **** /*
   2:../cores/arduino/RingBuffer.cpp ****   Copyright (c) 2011 Arduino.  All right reserved.
   3:../cores/arduino/RingBuffer.cpp **** 
   4:../cores/arduino/RingBuffer.cpp ****   This library is free software; you can redistribute it and/or
   5:../cores/arduino/RingBuffer.cpp ****   modify it under the terms of the GNU Lesser General Public
   6:../cores/arduino/RingBuffer.cpp ****   License as published by the Free Software Foundation; either
   7:../cores/arduino/RingBuffer.cpp ****   version 2.1 of the License, or (at your option) any later version.
   8:../cores/arduino/RingBuffer.cpp **** 
   9:../cores/arduino/RingBuffer.cpp ****   This library is distributed in the hope that it will be useful,
  10:../cores/arduino/RingBuffer.cpp ****   but WITHOUT ANY WARRANTY; without even the implied warranty of
  11:../cores/arduino/RingBuffer.cpp ****   MERCHANTABILITY or FITNESS FOR A PARTICULAR PURPOSE. 
  12:../cores/arduino/RingBuffer.cpp ****   See the GNU Lesser General Public License for more details.
  13:../cores/arduino/RingBuffer.cpp **** 
  14:../cores/arduino/RingBuffer.cpp ****   You should have received a copy of the GNU Lesser General Public
  15:../cores/arduino/RingBuffer.cpp ****   License along with this library; if not, write to the Free Software
  16:../cores/arduino/RingBuffer.cpp ****   Foundation, Inc., 51 Franklin St, Fifth Floor, Boston, MA  02110-1301  USA
  17:../cores/arduino/RingBuffer.cpp **** */
  18:../cores/arduino/RingBuffer.cpp **** 
  19:../cores/arduino/RingBuffer.cpp **** #include "RingBuffer.h"
  20:../cores/arduino/RingBuffer.cpp **** #include <string.h>
  21:../cores/arduino/RingBuffer.cpp **** 
  22:../cores/arduino/RingBuffer.cpp **** RingBuffer::RingBuffer( void )
  28              		.loc 1 22 0
  29              		.cfi_startproc
  30              		@ args = 0, pretend = 0, frame = 0
  31              		@ frame_needed = 0, uses_anonymous_args = 0
  32              	.LVL0:
  33 0000 10B5     		push	{r4, lr}
  34              		.cfi_def_cfa_offset 8
  35              		.cfi_offset 4, -8
ARM GAS  /tmp/ccW7XyQ0.s 			page 2


  36              		.cfi_offset 14, -4
  37              	.LBB6:
  23:../cores/arduino/RingBuffer.cpp **** {
  24:../cores/arduino/RingBuffer.cpp ****     memset((void *)_aucBuffer, 0, SERIAL_BUFFER_SIZE) ;
  38              		.loc 1 24 0
  39 0002 4FF40072 		mov	r2, #512
  40 0006 0021     		movs	r1, #0
  41              	.LBE6:
  22:../cores/arduino/RingBuffer.cpp **** {
  42              		.loc 1 22 0
  43 0008 0446     		mov	r4, r0
  44              	.LBB7:
  45              		.loc 1 24 0
  46 000a FFF7FEFF 		bl	memset
  47              	.LVL1:
  25:../cores/arduino/RingBuffer.cpp ****     _iHead=0 ;
  48              		.loc 1 25 0
  49 000e 0023     		movs	r3, #0
  50              	.LBE7:
  26:../cores/arduino/RingBuffer.cpp ****     _iTail=0 ;
  27:../cores/arduino/RingBuffer.cpp **** }
  51              		.loc 1 27 0
  52 0010 2046     		mov	r0, r4
  53              	.LBB8:
  25:../cores/arduino/RingBuffer.cpp ****     _iHead=0 ;
  54              		.loc 1 25 0
  55 0012 C4F80032 		str	r3, [r4, #512]
  26:../cores/arduino/RingBuffer.cpp ****     _iTail=0 ;
  56              		.loc 1 26 0
  57 0016 C4F80432 		str	r3, [r4, #516]
  58              	.LBE8:
  59              		.loc 1 27 0
  60 001a 10BD     		pop	{r4, pc}
  61              		.cfi_endproc
  62              	.LFE3:
  63              		.size	_ZN10RingBufferC2Ev, .-_ZN10RingBufferC2Ev
  64              		.global	_ZN10RingBufferC1Ev
  65              		.thumb_set _ZN10RingBufferC1Ev,_ZN10RingBufferC2Ev
  66              		.section	.text._ZN10RingBuffer10storeBlockEPKhj,"ax",%progbits
  67              		.align	1
  68              		.p2align 2,,3
  69              		.global	_ZN10RingBuffer10storeBlockEPKhj
  70              		.syntax unified
  71              		.thumb
  72              		.thumb_func
  73              		.fpu fpv5-d16
  74              		.type	_ZN10RingBuffer10storeBlockEPKhj, %function
  75              	_ZN10RingBuffer10storeBlockEPKhj:
  76              	.LFB5:
  28:../cores/arduino/RingBuffer.cpp **** 
  29:../cores/arduino/RingBuffer.cpp **** // Store a block of data. Returns the number of bytes actually stored, which may be less than the n
  30:../cores/arduino/RingBuffer.cpp **** size_t RingBuffer::storeBlock(const uint8_t *data, size_t len)
  31:../cores/arduino/RingBuffer.cpp **** {
  77              		.loc 1 31 0
  78              		.cfi_startproc
  79              		@ args = 0, pretend = 0, frame = 0
  80              		@ frame_needed = 0, uses_anonymous_args = 0
ARM GAS  /tmp/ccW7XyQ0.s 			page 3


  81              	.LVL2:
  82 0000 2DE9F041 		push	{r4, r5, r6, r7, r8, lr}
  83              		.cfi_def_cfa_offset 24
  84              		.cfi_offset 4, -24
  85              		.cfi_offset 5, -20
  86              		.cfi_offset 6, -16
  87              		.cfi_offset 7, -12
  88              		.cfi_offset 8, -8
  89              		.cfi_offset 14, -4
  90              	.LBB9:
  91              	.LBB10:
  92              		.file 2 "../cores/arduino/RingBuffer.h"
   1:../cores/arduino/RingBuffer.h **** /*
   2:../cores/arduino/RingBuffer.h ****   Copyright (c) 2011 Arduino.  All right reserved.
   3:../cores/arduino/RingBuffer.h **** 
   4:../cores/arduino/RingBuffer.h ****   This library is free software; you can redistribute it and/or
   5:../cores/arduino/RingBuffer.h ****   modify it under the terms of the GNU Lesser General Public
   6:../cores/arduino/RingBuffer.h ****   License as published by the Free Software Foundation; either
   7:../cores/arduino/RingBuffer.h ****   version 2.1 of the License, or (at your option) any later version.
   8:../cores/arduino/RingBuffer.h **** 
   9:../cores/arduino/RingBuffer.h ****   This library is distributed in the hope that it will be useful,
  10:../cores/arduino/RingBuffer.h ****   but WITHOUT ANY WARRANTY; without even the implied warranty of
  11:../cores/arduino/RingBuffer.h ****   MERCHANTABILITY or FITNESS FOR A PARTICULAR PURPOSE. 
  12:../cores/arduino/RingBuffer.h ****   See the GNU Lesser General Public License for more details.
  13:../cores/arduino/RingBuffer.h **** 
  14:../cores/arduino/RingBuffer.h ****   You should have received a copy of the GNU Lesser General Public
  15:../cores/arduino/RingBuffer.h ****   License along with this library; if not, write to the Free Software
  16:../cores/arduino/RingBuffer.h ****   Foundation, Inc., 51 Franklin St, Fifth Floor, Boston, MA  02110-1301  USA
  17:../cores/arduino/RingBuffer.h **** */
  18:../cores/arduino/RingBuffer.h **** 
  19:../cores/arduino/RingBuffer.h **** #ifndef _RING_BUFFER_
  20:../cores/arduino/RingBuffer.h **** #define _RING_BUFFER_
  21:../cores/arduino/RingBuffer.h **** 
  22:../cores/arduino/RingBuffer.h **** #include <cstdint>
  23:../cores/arduino/RingBuffer.h **** #include <cstddef>
  24:../cores/arduino/RingBuffer.h **** 
  25:../cores/arduino/RingBuffer.h **** // Define constants and variables for buffering incoming serial data.  We're
  26:../cores/arduino/RingBuffer.h **** // using a ring buffer, in which head is the index of the location
  27:../cores/arduino/RingBuffer.h **** // to which to write the next incoming character and tail is the index of the
  28:../cores/arduino/RingBuffer.h **** // location from which to read.
  29:../cores/arduino/RingBuffer.h **** const size_t SERIAL_BUFFER_SIZE = 512;
  30:../cores/arduino/RingBuffer.h **** 
  31:../cores/arduino/RingBuffer.h **** class RingBuffer
  32:../cores/arduino/RingBuffer.h **** {
  33:../cores/arduino/RingBuffer.h ****   public:
  34:../cores/arduino/RingBuffer.h ****     volatile uint8_t _aucBuffer[SERIAL_BUFFER_SIZE];
  35:../cores/arduino/RingBuffer.h ****     volatile size_t _iHead;
  36:../cores/arduino/RingBuffer.h ****     volatile size_t _iTail;
  37:../cores/arduino/RingBuffer.h **** 
  38:../cores/arduino/RingBuffer.h ****   public:
  39:../cores/arduino/RingBuffer.h ****     RingBuffer();
  40:../cores/arduino/RingBuffer.h ****     void store_char(uint8_t c);
  41:../cores/arduino/RingBuffer.h ****     size_t storeBlock(const uint8_t *data, size_t len);
  42:../cores/arduino/RingBuffer.h ****     size_t roomLeft() const;
  43:../cores/arduino/RingBuffer.h **** };
  44:../cores/arduino/RingBuffer.h **** 
  45:../cores/arduino/RingBuffer.h **** inline void RingBuffer::store_char(uint8_t c)
ARM GAS  /tmp/ccW7XyQ0.s 			page 4


  46:../cores/arduino/RingBuffer.h **** {
  47:../cores/arduino/RingBuffer.h ****   size_t i = (_iHead + 1) % SERIAL_BUFFER_SIZE;
  48:../cores/arduino/RingBuffer.h **** 
  49:../cores/arduino/RingBuffer.h ****   // if we should be storing the received character into the location
  50:../cores/arduino/RingBuffer.h ****   // just before the tail (meaning that the head would advance to the
  51:../cores/arduino/RingBuffer.h ****   // current location of the tail), we're about to overflow the buffer
  52:../cores/arduino/RingBuffer.h ****   // and so we don't write the character or advance the head.
  53:../cores/arduino/RingBuffer.h ****   if (i != _iTail)
  54:../cores/arduino/RingBuffer.h ****   {
  55:../cores/arduino/RingBuffer.h ****     _aucBuffer[_iHead] = c;
  56:../cores/arduino/RingBuffer.h ****     _iHead = i;
  57:../cores/arduino/RingBuffer.h ****   }
  58:../cores/arduino/RingBuffer.h ****   else
  59:../cores/arduino/RingBuffer.h ****   {
  60:../cores/arduino/RingBuffer.h **** 	  _aucBuffer[(_iHead - 1) % SERIAL_BUFFER_SIZE] = 0x7F;		// replace the previous character by DEL 
  61:../cores/arduino/RingBuffer.h ****   }
  62:../cores/arduino/RingBuffer.h **** }
  63:../cores/arduino/RingBuffer.h **** 
  64:../cores/arduino/RingBuffer.h **** inline size_t RingBuffer::roomLeft() const
  65:../cores/arduino/RingBuffer.h **** {
  66:../cores/arduino/RingBuffer.h **** 	return (_iTail + (SERIAL_BUFFER_SIZE - 1) - _iHead) % SERIAL_BUFFER_SIZE;
  93              		.loc 2 66 0
  94 0004 D0F80442 		ldr	r4, [r0, #516]
  95 0008 D0F80052 		ldr	r5, [r0, #512]
  96              	.LVL3:
  97 000c 04F2FF14 		addw	r4, r4, #511
  98 0010 641B     		subs	r4, r4, r5
  99 0012 C4F30804 		ubfx	r4, r4, #0, #9
 100 0016 9442     		cmp	r4, r2
 101 0018 28BF     		it	cs
 102 001a 1446     		movcs	r4, r2
 103              	.LVL4:
 104              	.LBE10:
 105              	.LBE9:
 106              	.LBB11:
  32:../cores/arduino/RingBuffer.cpp **** 	const size_t room = roomLeft();
  33:../cores/arduino/RingBuffer.cpp **** 	if (room < len)
  34:../cores/arduino/RingBuffer.cpp **** 	{
  35:../cores/arduino/RingBuffer.cpp **** 		len = room;
  36:../cores/arduino/RingBuffer.cpp **** 	}
  37:../cores/arduino/RingBuffer.cpp **** 	if (len != 0)
 107              		.loc 1 37 0
 108 001c 8CB1     		cbz	r4, .L3
 109              	.LBB12:
  38:../cores/arduino/RingBuffer.cpp **** 	{
  39:../cores/arduino/RingBuffer.cpp **** 		const size_t roomToEnd = SERIAL_BUFFER_SIZE - _iHead;
 110              		.loc 1 39 0
 111 001e D0F80062 		ldr	r6, [r0, #512]
 112 0022 0546     		mov	r5, r0
 113 0024 C6F50076 		rsb	r6, r6, #512
 114              	.LVL5:
  40:../cores/arduino/RingBuffer.cpp **** 		if (roomToEnd <= len)
 115              		.loc 1 40 0
 116 0028 A642     		cmp	r6, r4
 117 002a 0DD9     		bls	.L11
  41:../cores/arduino/RingBuffer.cpp **** 		{
  42:../cores/arduino/RingBuffer.cpp **** 			memcpy((void*)(_aucBuffer + _iHead), data, roomToEnd);
ARM GAS  /tmp/ccW7XyQ0.s 			page 5


  43:../cores/arduino/RingBuffer.cpp **** 			memcpy((void*)_aucBuffer, data + roomToEnd, len - roomToEnd);
  44:../cores/arduino/RingBuffer.cpp **** 			_iHead = len - roomToEnd;
  45:../cores/arduino/RingBuffer.cpp **** 		}
  46:../cores/arduino/RingBuffer.cpp **** 		else
  47:../cores/arduino/RingBuffer.cpp **** 		{
  48:../cores/arduino/RingBuffer.cpp **** 			memcpy((void*)(_aucBuffer + _iHead), data, len);
 118              		.loc 1 48 0
 119 002c D0F80002 		ldr	r0, [r0, #512]
 120              	.LVL6:
 121 0030 2246     		mov	r2, r4
 122 0032 2844     		add	r0, r0, r5
 123 0034 FFF7FEFF 		bl	memcpy
 124              	.LVL7:
  49:../cores/arduino/RingBuffer.cpp **** 			_iHead += len;
 125              		.loc 1 49 0
 126 0038 D5F80032 		ldr	r3, [r5, #512]
 127 003c 2344     		add	r3, r3, r4
 128 003e C5F80032 		str	r3, [r5, #512]
 129              	.LVL8:
 130              	.L3:
 131              	.LBE12:
 132              	.LBE11:
  50:../cores/arduino/RingBuffer.cpp **** 		}
  51:../cores/arduino/RingBuffer.cpp **** 	}
  52:../cores/arduino/RingBuffer.cpp **** 	return len;
  53:../cores/arduino/RingBuffer.cpp **** }
 133              		.loc 1 53 0
 134 0042 2046     		mov	r0, r4
 135 0044 BDE8F081 		pop	{r4, r5, r6, r7, r8, pc}
 136              	.LVL9:
 137              	.L11:
 138              	.LBB14:
 139              	.LBB13:
  42:../cores/arduino/RingBuffer.cpp **** 			memcpy((void*)_aucBuffer, data + roomToEnd, len - roomToEnd);
 140              		.loc 1 42 0
 141 0048 D0F80002 		ldr	r0, [r0, #512]
 142              	.LVL10:
 143 004c 0F46     		mov	r7, r1
  43:../cores/arduino/RingBuffer.cpp **** 			_iHead = len - roomToEnd;
 144              		.loc 1 43 0
 145 004e A4EB0608 		sub	r8, r4, r6
  42:../cores/arduino/RingBuffer.cpp **** 			memcpy((void*)_aucBuffer, data + roomToEnd, len - roomToEnd);
 146              		.loc 1 42 0
 147 0052 3246     		mov	r2, r6
 148 0054 2844     		add	r0, r0, r5
 149 0056 FFF7FEFF 		bl	memcpy
 150              	.LVL11:
  43:../cores/arduino/RingBuffer.cpp **** 			_iHead = len - roomToEnd;
 151              		.loc 1 43 0
 152 005a B919     		adds	r1, r7, r6
 153 005c 4246     		mov	r2, r8
 154 005e 2846     		mov	r0, r5
 155 0060 FFF7FEFF 		bl	memcpy
 156              	.LVL12:
  44:../cores/arduino/RingBuffer.cpp **** 		}
 157              		.loc 1 44 0
 158 0064 C5F80082 		str	r8, [r5, #512]
ARM GAS  /tmp/ccW7XyQ0.s 			page 6


 159              	.LBE13:
 160              	.LBE14:
 161              		.loc 1 53 0
 162 0068 2046     		mov	r0, r4
 163 006a BDE8F081 		pop	{r4, r5, r6, r7, r8, pc}
 164              		.cfi_endproc
 165              	.LFE5:
 166              		.size	_ZN10RingBuffer10storeBlockEPKhj, .-_ZN10RingBuffer10storeBlockEPKhj
 167 006e 00BF     		.text
 168              	.Letext0:
 169              		.file 3 "/usr/include/newlib/c++/6.3.1/cstdint"
 170              		.file 4 "/usr/include/newlib/c++/6.3.1/cstddef"
 171              		.file 5 "/usr/include/newlib/c++/6.3.1/arm-none-eabi/thumb/v7e-m/fpv5/hard/bits/c++config.h"
 172              		.file 6 "/usr/include/newlib/machine/_default_types.h"
 173              		.file 7 "/usr/include/newlib/sys/_stdint.h"
 174              		.file 8 "/usr/include/newlib/stdint.h"
 175              		.file 9 "/usr/lib/gcc/arm-none-eabi/6.3.1/include/stddef.h"
 176              		.file 10 "/usr/include/newlib/sys/lock.h"
 177              		.file 11 "/usr/include/newlib/sys/_types.h"
 178              		.file 12 "/usr/include/newlib/sys/reent.h"
 179              		.file 13 "<built-in>"