ARM GAS  /tmp/ccXVTxD7.s 			page 1


   1              		.cpu cortex-m7
   2              		.eabi_attribute 28, 1
   3              		.eabi_attribute 20, 1
   4              		.eabi_attribute 21, 1
   5              		.eabi_attribute 23, 3
   6              		.eabi_attribute 24, 1
   7              		.eabi_attribute 25, 1
   8              		.eabi_attribute 26, 1
   9              		.eabi_attribute 30, 2
  10              		.eabi_attribute 34, 1
  11              		.eabi_attribute 18, 4
  12              		.file	"rstc.c"
  13              		.text
  14              	.Ltext0:
  15              		.cfi_sections	.debug_frame
  16              		.section	.text.rstc_set_external_reset,"ax",%progbits
  17              		.align	1
  18              		.p2align 2,,3
  19              		.global	rstc_set_external_reset
  20              		.syntax unified
  21              		.thumb
  22              		.thumb_func
  23              		.fpu fpv5-d16
  24              		.type	rstc_set_external_reset, %function
  25              	rstc_set_external_reset:
  26              	.LFB142:
  27              		.file 1 "../asf/sam/drivers/rstc/rstc.c"
   1:../asf/sam/drivers/rstc/rstc.c **** /**
   2:../asf/sam/drivers/rstc/rstc.c ****  * \file
   3:../asf/sam/drivers/rstc/rstc.c ****  *
   4:../asf/sam/drivers/rstc/rstc.c ****  * \brief SAM Reset Controller (RSTC) driver.
   5:../asf/sam/drivers/rstc/rstc.c ****  *
   6:../asf/sam/drivers/rstc/rstc.c ****  * Copyright (c) 2011-2015 Atmel Corporation. All rights reserved.
   7:../asf/sam/drivers/rstc/rstc.c ****  *
   8:../asf/sam/drivers/rstc/rstc.c ****  * \asf_license_start
   9:../asf/sam/drivers/rstc/rstc.c ****  *
  10:../asf/sam/drivers/rstc/rstc.c ****  * \page License
  11:../asf/sam/drivers/rstc/rstc.c ****  *
  12:../asf/sam/drivers/rstc/rstc.c ****  * Redistribution and use in source and binary forms, with or without
  13:../asf/sam/drivers/rstc/rstc.c ****  * modification, are permitted provided that the following conditions are met:
  14:../asf/sam/drivers/rstc/rstc.c ****  *
  15:../asf/sam/drivers/rstc/rstc.c ****  * 1. Redistributions of source code must retain the above copyright notice,
  16:../asf/sam/drivers/rstc/rstc.c ****  *    this list of conditions and the following disclaimer.
  17:../asf/sam/drivers/rstc/rstc.c ****  *
  18:../asf/sam/drivers/rstc/rstc.c ****  * 2. Redistributions in binary form must reproduce the above copyright notice,
  19:../asf/sam/drivers/rstc/rstc.c ****  *    this list of conditions and the following disclaimer in the documentation
  20:../asf/sam/drivers/rstc/rstc.c ****  *    and/or other materials provided with the distribution.
  21:../asf/sam/drivers/rstc/rstc.c ****  *
  22:../asf/sam/drivers/rstc/rstc.c ****  * 3. The name of Atmel may not be used to endorse or promote products derived
  23:../asf/sam/drivers/rstc/rstc.c ****  *    from this software without specific prior written permission.
  24:../asf/sam/drivers/rstc/rstc.c ****  *
  25:../asf/sam/drivers/rstc/rstc.c ****  * 4. This software may only be redistributed and used in connection with an
  26:../asf/sam/drivers/rstc/rstc.c ****  *    Atmel microcontroller product.
  27:../asf/sam/drivers/rstc/rstc.c ****  *
  28:../asf/sam/drivers/rstc/rstc.c ****  * THIS SOFTWARE IS PROVIDED BY ATMEL "AS IS" AND ANY EXPRESS OR IMPLIED
  29:../asf/sam/drivers/rstc/rstc.c ****  * WARRANTIES, INCLUDING, BUT NOT LIMITED TO, THE IMPLIED WARRANTIES OF
  30:../asf/sam/drivers/rstc/rstc.c ****  * MERCHANTABILITY, FITNESS FOR A PARTICULAR PURPOSE AND NON-INFRINGEMENT ARE
ARM GAS  /tmp/ccXVTxD7.s 			page 2


  31:../asf/sam/drivers/rstc/rstc.c ****  * EXPRESSLY AND SPECIFICALLY DISCLAIMED. IN NO EVENT SHALL ATMEL BE LIABLE FOR
  32:../asf/sam/drivers/rstc/rstc.c ****  * ANY DIRECT, INDIRECT, INCIDENTAL, SPECIAL, EXEMPLARY, OR CONSEQUENTIAL
  33:../asf/sam/drivers/rstc/rstc.c ****  * DAMAGES (INCLUDING, BUT NOT LIMITED TO, PROCUREMENT OF SUBSTITUTE GOODS
  34:../asf/sam/drivers/rstc/rstc.c ****  * OR SERVICES; LOSS OF USE, DATA, OR PROFITS; OR BUSINESS INTERRUPTION)
  35:../asf/sam/drivers/rstc/rstc.c ****  * HOWEVER CAUSED AND ON ANY THEORY OF LIABILITY, WHETHER IN CONTRACT,
  36:../asf/sam/drivers/rstc/rstc.c ****  * STRICT LIABILITY, OR TORT (INCLUDING NEGLIGENCE OR OTHERWISE) ARISING IN
  37:../asf/sam/drivers/rstc/rstc.c ****  * ANY WAY OUT OF THE USE OF THIS SOFTWARE, EVEN IF ADVISED OF THE
  38:../asf/sam/drivers/rstc/rstc.c ****  * POSSIBILITY OF SUCH DAMAGE.
  39:../asf/sam/drivers/rstc/rstc.c ****  *
  40:../asf/sam/drivers/rstc/rstc.c ****  * \asf_license_stop
  41:../asf/sam/drivers/rstc/rstc.c ****  *
  42:../asf/sam/drivers/rstc/rstc.c ****  */
  43:../asf/sam/drivers/rstc/rstc.c **** /*
  44:../asf/sam/drivers/rstc/rstc.c ****  * Support and FAQ: visit <a href="http://www.atmel.com/design-support/">Atmel Support</a>
  45:../asf/sam/drivers/rstc/rstc.c ****  */
  46:../asf/sam/drivers/rstc/rstc.c ****  
  47:../asf/sam/drivers/rstc/rstc.c **** #include "rstc.h"
  48:../asf/sam/drivers/rstc/rstc.c **** 
  49:../asf/sam/drivers/rstc/rstc.c **** /// @cond
  50:../asf/sam/drivers/rstc/rstc.c **** /**INDENT-OFF**/
  51:../asf/sam/drivers/rstc/rstc.c **** #ifdef __cplusplus
  52:../asf/sam/drivers/rstc/rstc.c **** extern "C" {
  53:../asf/sam/drivers/rstc/rstc.c **** #endif
  54:../asf/sam/drivers/rstc/rstc.c **** /**INDENT-ON**/
  55:../asf/sam/drivers/rstc/rstc.c **** /// @endcond
  56:../asf/sam/drivers/rstc/rstc.c **** 
  57:../asf/sam/drivers/rstc/rstc.c **** #define RSTC_KEY  0xA5000000
  58:../asf/sam/drivers/rstc/rstc.c **** 
  59:../asf/sam/drivers/rstc/rstc.c **** /**
  60:../asf/sam/drivers/rstc/rstc.c ****  * \brief Set the external reset length.
  61:../asf/sam/drivers/rstc/rstc.c ****  *
  62:../asf/sam/drivers/rstc/rstc.c ****  * \param[in,out] p_rstc Module hardware register base address pointer
  63:../asf/sam/drivers/rstc/rstc.c ****  * \param[in] ul_length The length of external reset
  64:../asf/sam/drivers/rstc/rstc.c ****  */
  65:../asf/sam/drivers/rstc/rstc.c **** void rstc_set_external_reset(
  66:../asf/sam/drivers/rstc/rstc.c **** 		Rstc *p_rstc,
  67:../asf/sam/drivers/rstc/rstc.c **** 		const uint32_t ul_length)
  68:../asf/sam/drivers/rstc/rstc.c **** {
  28              		.loc 1 68 0
  29              		.cfi_startproc
  30              		@ args = 0, pretend = 0, frame = 0
  31              		@ frame_needed = 0, uses_anonymous_args = 0
  32              		@ link register save eliminated.
  33              	.LVL0:
  69:../asf/sam/drivers/rstc/rstc.c **** 	/* Validate the parameters. */
  70:../asf/sam/drivers/rstc/rstc.c **** 	Assert(p_rstc);
  71:../asf/sam/drivers/rstc/rstc.c **** 	
  72:../asf/sam/drivers/rstc/rstc.c **** 	uint32_t mode = p_rstc->RSTC_MR;
  73:../asf/sam/drivers/rstc/rstc.c **** 
  74:../asf/sam/drivers/rstc/rstc.c **** 	mode &= ~(RSTC_MR_ERSTL_Msk | RSTC_MR_KEY_Msk);
  75:../asf/sam/drivers/rstc/rstc.c **** 	mode |= (RSTC_MR_ERSTL(ul_length) | RSTC_KEY);
  34              		.loc 1 75 0
  35 0000 0902     		lsls	r1, r1, #8
  36              	.LVL1:
  72:../asf/sam/drivers/rstc/rstc.c **** 
  37              		.loc 1 72 0
  38 0002 8268     		ldr	r2, [r0, #8]
ARM GAS  /tmp/ccXVTxD7.s 			page 3


  39              	.LVL2:
  74:../asf/sam/drivers/rstc/rstc.c **** 	mode |= (RSTC_MR_ERSTL(ul_length) | RSTC_KEY);
  40              		.loc 1 74 0
  41 0004 044B     		ldr	r3, .L2
  42              		.loc 1 75 0
  43 0006 01F47061 		and	r1, r1, #3840
  74:../asf/sam/drivers/rstc/rstc.c **** 	mode |= (RSTC_MR_ERSTL(ul_length) | RSTC_KEY);
  44              		.loc 1 74 0
  45 000a 1340     		ands	r3, r3, r2
  46              	.LVL3:
  47              		.loc 1 75 0
  48 000c 41F02541 		orr	r1, r1, #-1526726656
  49 0010 1943     		orrs	r1, r1, r3
  50              	.LVL4:
  76:../asf/sam/drivers/rstc/rstc.c **** 
  77:../asf/sam/drivers/rstc/rstc.c **** 	p_rstc->RSTC_MR = mode;
  51              		.loc 1 77 0
  52 0012 8160     		str	r1, [r0, #8]
  53 0014 7047     		bx	lr
  54              	.L3:
  55 0016 00BF     		.align	2
  56              	.L2:
  57 0018 FFF0FF00 		.word	16773375
  58              		.cfi_endproc
  59              	.LFE142:
  60              		.size	rstc_set_external_reset, .-rstc_set_external_reset
  61              		.section	.text.rstc_enable_user_reset,"ax",%progbits
  62              		.align	1
  63              		.p2align 2,,3
  64              		.global	rstc_enable_user_reset
  65              		.syntax unified
  66              		.thumb
  67              		.thumb_func
  68              		.fpu fpv5-d16
  69              		.type	rstc_enable_user_reset, %function
  70              	rstc_enable_user_reset:
  71              	.LFB143:
  78:../asf/sam/drivers/rstc/rstc.c **** }
  79:../asf/sam/drivers/rstc/rstc.c **** 
  80:../asf/sam/drivers/rstc/rstc.c **** /**
  81:../asf/sam/drivers/rstc/rstc.c ****  * \brief Enable User Reset.
  82:../asf/sam/drivers/rstc/rstc.c ****  *
  83:../asf/sam/drivers/rstc/rstc.c ****  * \param[in,out] p_rstc Module hardware register base address pointer
  84:../asf/sam/drivers/rstc/rstc.c ****  */
  85:../asf/sam/drivers/rstc/rstc.c **** void rstc_enable_user_reset(
  86:../asf/sam/drivers/rstc/rstc.c **** 		Rstc *p_rstc)
  87:../asf/sam/drivers/rstc/rstc.c **** {
  72              		.loc 1 87 0
  73              		.cfi_startproc
  74              		@ args = 0, pretend = 0, frame = 0
  75              		@ frame_needed = 0, uses_anonymous_args = 0
  76              		@ link register save eliminated.
  77              	.LVL5:
  88:../asf/sam/drivers/rstc/rstc.c **** 	/* Validate the parameters. */
  89:../asf/sam/drivers/rstc/rstc.c **** 	Assert(p_rstc);
  90:../asf/sam/drivers/rstc/rstc.c **** 	
  91:../asf/sam/drivers/rstc/rstc.c **** 	uint32_t mode = p_rstc->RSTC_MR;
ARM GAS  /tmp/ccXVTxD7.s 			page 4


  78              		.loc 1 91 0
  79 0000 8268     		ldr	r2, [r0, #8]
  80              	.LVL6:
  92:../asf/sam/drivers/rstc/rstc.c **** 
  93:../asf/sam/drivers/rstc/rstc.c **** 	mode &= ~RSTC_MR_KEY_Msk;
  94:../asf/sam/drivers/rstc/rstc.c **** 	mode |= (RSTC_MR_URSTEN | RSTC_KEY);
  81              		.loc 1 94 0
  82 0002 034B     		ldr	r3, .L5
  93:../asf/sam/drivers/rstc/rstc.c **** 	mode |= (RSTC_MR_URSTEN | RSTC_KEY);
  83              		.loc 1 93 0
  84 0004 22F07F42 		bic	r2, r2, #-16777216
  85              	.LVL7:
  86              		.loc 1 94 0
  87 0008 1343     		orrs	r3, r3, r2
  88              	.LVL8:
  95:../asf/sam/drivers/rstc/rstc.c **** 
  96:../asf/sam/drivers/rstc/rstc.c **** 	p_rstc->RSTC_MR = mode;
  89              		.loc 1 96 0
  90 000a 8360     		str	r3, [r0, #8]
  91 000c 7047     		bx	lr
  92              	.L6:
  93 000e 00BF     		.align	2
  94              	.L5:
  95 0010 010000A5 		.word	-1526726655
  96              		.cfi_endproc
  97              	.LFE143:
  98              		.size	rstc_enable_user_reset, .-rstc_enable_user_reset
  99              		.section	.text.rstc_disable_user_reset,"ax",%progbits
 100              		.align	1
 101              		.p2align 2,,3
 102              		.global	rstc_disable_user_reset
 103              		.syntax unified
 104              		.thumb
 105              		.thumb_func
 106              		.fpu fpv5-d16
 107              		.type	rstc_disable_user_reset, %function
 108              	rstc_disable_user_reset:
 109              	.LFB144:
  97:../asf/sam/drivers/rstc/rstc.c **** }
  98:../asf/sam/drivers/rstc/rstc.c **** 
  99:../asf/sam/drivers/rstc/rstc.c **** /**
 100:../asf/sam/drivers/rstc/rstc.c ****  * \brief Disable User Reset.
 101:../asf/sam/drivers/rstc/rstc.c ****  *
 102:../asf/sam/drivers/rstc/rstc.c ****  * \param[in,out] p_rstc Module hardware register base address pointer
 103:../asf/sam/drivers/rstc/rstc.c ****  */
 104:../asf/sam/drivers/rstc/rstc.c **** void rstc_disable_user_reset(
 105:../asf/sam/drivers/rstc/rstc.c **** 		Rstc *p_rstc)
 106:../asf/sam/drivers/rstc/rstc.c **** {
 110              		.loc 1 106 0
 111              		.cfi_startproc
 112              		@ args = 0, pretend = 0, frame = 0
 113              		@ frame_needed = 0, uses_anonymous_args = 0
 114              		@ link register save eliminated.
 115              	.LVL9:
 107:../asf/sam/drivers/rstc/rstc.c **** 	/* Validate the parameters. */
 108:../asf/sam/drivers/rstc/rstc.c **** 	Assert(p_rstc);
 109:../asf/sam/drivers/rstc/rstc.c **** 	
ARM GAS  /tmp/ccXVTxD7.s 			page 5


 110:../asf/sam/drivers/rstc/rstc.c **** 	uint32_t mode = p_rstc->RSTC_MR;
 116              		.loc 1 110 0
 117 0000 8268     		ldr	r2, [r0, #8]
 118              	.LVL10:
 111:../asf/sam/drivers/rstc/rstc.c **** 
 112:../asf/sam/drivers/rstc/rstc.c **** 	mode &= ~(RSTC_MR_URSTEN | RSTC_MR_KEY_Msk);
 119              		.loc 1 112 0
 120 0002 034B     		ldr	r3, .L8
 121 0004 1340     		ands	r3, r3, r2
 122              	.LVL11:
 113:../asf/sam/drivers/rstc/rstc.c **** 	mode |= RSTC_KEY;
 123              		.loc 1 113 0
 124 0006 43F02543 		orr	r3, r3, #-1526726656
 125              	.LVL12:
 114:../asf/sam/drivers/rstc/rstc.c **** 
 115:../asf/sam/drivers/rstc/rstc.c **** 	p_rstc->RSTC_MR = mode;
 126              		.loc 1 115 0
 127 000a 8360     		str	r3, [r0, #8]
 128 000c 7047     		bx	lr
 129              	.L9:
 130 000e 00BF     		.align	2
 131              	.L8:
 132 0010 FEFFFF00 		.word	16777214
 133              		.cfi_endproc
 134              	.LFE144:
 135              		.size	rstc_disable_user_reset, .-rstc_disable_user_reset
 136              		.section	.text.rstc_enable_user_reset_interrupt,"ax",%progbits
 137              		.align	1
 138              		.p2align 2,,3
 139              		.global	rstc_enable_user_reset_interrupt
 140              		.syntax unified
 141              		.thumb
 142              		.thumb_func
 143              		.fpu fpv5-d16
 144              		.type	rstc_enable_user_reset_interrupt, %function
 145              	rstc_enable_user_reset_interrupt:
 146              	.LFB145:
 116:../asf/sam/drivers/rstc/rstc.c **** }
 117:../asf/sam/drivers/rstc/rstc.c **** 
 118:../asf/sam/drivers/rstc/rstc.c **** /**
 119:../asf/sam/drivers/rstc/rstc.c ****  * \brief Enable the User Reset interrupt.
 120:../asf/sam/drivers/rstc/rstc.c ****  *
 121:../asf/sam/drivers/rstc/rstc.c ****  * \param[in,out] p_rstc Module hardware register base address pointer
 122:../asf/sam/drivers/rstc/rstc.c ****  */
 123:../asf/sam/drivers/rstc/rstc.c **** void rstc_enable_user_reset_interrupt(
 124:../asf/sam/drivers/rstc/rstc.c **** 		Rstc *p_rstc)
 125:../asf/sam/drivers/rstc/rstc.c **** {
 147              		.loc 1 125 0
 148              		.cfi_startproc
 149              		@ args = 0, pretend = 0, frame = 0
 150              		@ frame_needed = 0, uses_anonymous_args = 0
 151              		@ link register save eliminated.
 152              	.LVL13:
 126:../asf/sam/drivers/rstc/rstc.c **** 	/* Validate the parameters. */
 127:../asf/sam/drivers/rstc/rstc.c **** 	Assert(p_rstc);
 128:../asf/sam/drivers/rstc/rstc.c **** 	
 129:../asf/sam/drivers/rstc/rstc.c **** 	uint32_t mode = p_rstc->RSTC_MR;
ARM GAS  /tmp/ccXVTxD7.s 			page 6


 153              		.loc 1 129 0
 154 0000 8268     		ldr	r2, [r0, #8]
 155              	.LVL14:
 130:../asf/sam/drivers/rstc/rstc.c **** 
 131:../asf/sam/drivers/rstc/rstc.c **** 	mode &= ~RSTC_MR_KEY_Msk;
 132:../asf/sam/drivers/rstc/rstc.c **** 	mode |= (RSTC_MR_URSTIEN | RSTC_KEY);
 156              		.loc 1 132 0
 157 0002 034B     		ldr	r3, .L11
 131:../asf/sam/drivers/rstc/rstc.c **** 	mode |= (RSTC_MR_URSTIEN | RSTC_KEY);
 158              		.loc 1 131 0
 159 0004 22F07F42 		bic	r2, r2, #-16777216
 160              	.LVL15:
 161              		.loc 1 132 0
 162 0008 1343     		orrs	r3, r3, r2
 163              	.LVL16:
 133:../asf/sam/drivers/rstc/rstc.c **** 
 134:../asf/sam/drivers/rstc/rstc.c **** 	p_rstc->RSTC_MR = mode;
 164              		.loc 1 134 0
 165 000a 8360     		str	r3, [r0, #8]
 166 000c 7047     		bx	lr
 167              	.L12:
 168 000e 00BF     		.align	2
 169              	.L11:
 170 0010 100000A5 		.word	-1526726640
 171              		.cfi_endproc
 172              	.LFE145:
 173              		.size	rstc_enable_user_reset_interrupt, .-rstc_enable_user_reset_interrupt
 174              		.section	.text.rstc_disable_user_reset_interrupt,"ax",%progbits
 175              		.align	1
 176              		.p2align 2,,3
 177              		.global	rstc_disable_user_reset_interrupt
 178              		.syntax unified
 179              		.thumb
 180              		.thumb_func
 181              		.fpu fpv5-d16
 182              		.type	rstc_disable_user_reset_interrupt, %function
 183              	rstc_disable_user_reset_interrupt:
 184              	.LFB146:
 135:../asf/sam/drivers/rstc/rstc.c **** }
 136:../asf/sam/drivers/rstc/rstc.c **** 
 137:../asf/sam/drivers/rstc/rstc.c **** /**
 138:../asf/sam/drivers/rstc/rstc.c ****  * \brief Disable the User Reset interrupt.
 139:../asf/sam/drivers/rstc/rstc.c ****  *
 140:../asf/sam/drivers/rstc/rstc.c ****  * \param[in,out] p_rstc Module hardware register base address pointer
 141:../asf/sam/drivers/rstc/rstc.c ****  */
 142:../asf/sam/drivers/rstc/rstc.c **** void rstc_disable_user_reset_interrupt(
 143:../asf/sam/drivers/rstc/rstc.c **** 		Rstc *p_rstc)
 144:../asf/sam/drivers/rstc/rstc.c **** {
 185              		.loc 1 144 0
 186              		.cfi_startproc
 187              		@ args = 0, pretend = 0, frame = 0
 188              		@ frame_needed = 0, uses_anonymous_args = 0
 189              		@ link register save eliminated.
 190              	.LVL17:
 145:../asf/sam/drivers/rstc/rstc.c **** 	/* Validate the parameters. */
 146:../asf/sam/drivers/rstc/rstc.c **** 	Assert(p_rstc);
 147:../asf/sam/drivers/rstc/rstc.c **** 	
ARM GAS  /tmp/ccXVTxD7.s 			page 7


 148:../asf/sam/drivers/rstc/rstc.c **** 	uint32_t mode = p_rstc->RSTC_MR;
 191              		.loc 1 148 0
 192 0000 8268     		ldr	r2, [r0, #8]
 193              	.LVL18:
 149:../asf/sam/drivers/rstc/rstc.c **** 
 150:../asf/sam/drivers/rstc/rstc.c **** 	mode &= ~(RSTC_MR_URSTIEN | RSTC_MR_KEY_Msk);
 194              		.loc 1 150 0
 195 0002 034B     		ldr	r3, .L14
 196 0004 1340     		ands	r3, r3, r2
 197              	.LVL19:
 151:../asf/sam/drivers/rstc/rstc.c **** 	mode |= RSTC_KEY;
 198              		.loc 1 151 0
 199 0006 43F02543 		orr	r3, r3, #-1526726656
 200              	.LVL20:
 152:../asf/sam/drivers/rstc/rstc.c **** 
 153:../asf/sam/drivers/rstc/rstc.c **** 	p_rstc->RSTC_MR = mode;
 201              		.loc 1 153 0
 202 000a 8360     		str	r3, [r0, #8]
 203 000c 7047     		bx	lr
 204              	.L15:
 205 000e 00BF     		.align	2
 206              	.L14:
 207 0010 EFFFFF00 		.word	16777199
 208              		.cfi_endproc
 209              	.LFE146:
 210              		.size	rstc_disable_user_reset_interrupt, .-rstc_disable_user_reset_interrupt
 211              		.section	.text.rstc_start_software_reset,"ax",%progbits
 212              		.align	1
 213              		.p2align 2,,3
 214              		.global	rstc_start_software_reset
 215              		.syntax unified
 216              		.thumb
 217              		.thumb_func
 218              		.fpu fpv5-d16
 219              		.type	rstc_start_software_reset, %function
 220              	rstc_start_software_reset:
 221              	.LFB147:
 154:../asf/sam/drivers/rstc/rstc.c **** }
 155:../asf/sam/drivers/rstc/rstc.c **** 
 156:../asf/sam/drivers/rstc/rstc.c **** /**
 157:../asf/sam/drivers/rstc/rstc.c ****  * \brief Perform a Software Reset.
 158:../asf/sam/drivers/rstc/rstc.c ****  *
 159:../asf/sam/drivers/rstc/rstc.c ****  * \param[out] p_rstc Module hardware register base address pointer
 160:../asf/sam/drivers/rstc/rstc.c ****  */
 161:../asf/sam/drivers/rstc/rstc.c **** void rstc_start_software_reset(
 162:../asf/sam/drivers/rstc/rstc.c **** 		Rstc *p_rstc)
 163:../asf/sam/drivers/rstc/rstc.c **** {
 222              		.loc 1 163 0
 223              		.cfi_startproc
 224              		@ args = 0, pretend = 0, frame = 0
 225              		@ frame_needed = 0, uses_anonymous_args = 0
 226              		@ link register save eliminated.
 227              	.LVL21:
 164:../asf/sam/drivers/rstc/rstc.c **** #if (SAMV71 || SAMV70 || SAMS70 || SAME70)
 165:../asf/sam/drivers/rstc/rstc.c **** 	p_rstc->RSTC_CR = RSTC_KEY | RSTC_CR_PROCRST;
 228              		.loc 1 165 0
 229 0000 014B     		ldr	r3, .L17
ARM GAS  /tmp/ccXVTxD7.s 			page 8


 230 0002 0360     		str	r3, [r0]
 231 0004 7047     		bx	lr
 232              	.L18:
 233 0006 00BF     		.align	2
 234              	.L17:
 235 0008 010000A5 		.word	-1526726655
 236              		.cfi_endproc
 237              	.LFE147:
 238              		.size	rstc_start_software_reset, .-rstc_start_software_reset
 239              		.section	.text.rstc_reset_extern,"ax",%progbits
 240              		.align	1
 241              		.p2align 2,,3
 242              		.global	rstc_reset_extern
 243              		.syntax unified
 244              		.thumb
 245              		.thumb_func
 246              		.fpu fpv5-d16
 247              		.type	rstc_reset_extern, %function
 248              	rstc_reset_extern:
 249              	.LFB148:
 166:../asf/sam/drivers/rstc/rstc.c **** #else
 167:../asf/sam/drivers/rstc/rstc.c **** 	p_rstc->RSTC_CR = RSTC_KEY | RSTC_CR_PROCRST | RSTC_CR_PERRST;
 168:../asf/sam/drivers/rstc/rstc.c **** #endif
 169:../asf/sam/drivers/rstc/rstc.c **** }
 170:../asf/sam/drivers/rstc/rstc.c **** 
 171:../asf/sam/drivers/rstc/rstc.c **** /**
 172:../asf/sam/drivers/rstc/rstc.c ****  * \brief Asserts the NRST pin for external resets.
 173:../asf/sam/drivers/rstc/rstc.c ****  *
 174:../asf/sam/drivers/rstc/rstc.c ****  * \param[out] p_rstc Module hardware register base address pointer
 175:../asf/sam/drivers/rstc/rstc.c ****  */
 176:../asf/sam/drivers/rstc/rstc.c **** void rstc_reset_extern(
 177:../asf/sam/drivers/rstc/rstc.c **** 		Rstc *p_rstc)
 178:../asf/sam/drivers/rstc/rstc.c **** {
 250              		.loc 1 178 0
 251              		.cfi_startproc
 252              		@ args = 0, pretend = 0, frame = 0
 253              		@ frame_needed = 0, uses_anonymous_args = 0
 254              		@ link register save eliminated.
 255              	.LVL22:
 179:../asf/sam/drivers/rstc/rstc.c **** 	p_rstc->RSTC_CR = RSTC_KEY | RSTC_CR_EXTRST;
 256              		.loc 1 179 0
 257 0000 014B     		ldr	r3, .L20
 258 0002 0360     		str	r3, [r0]
 259 0004 7047     		bx	lr
 260              	.L21:
 261 0006 00BF     		.align	2
 262              	.L20:
 263 0008 080000A5 		.word	-1526726648
 264              		.cfi_endproc
 265              	.LFE148:
 266              		.size	rstc_reset_extern, .-rstc_reset_extern
 267              		.section	.text.rstc_get_status,"ax",%progbits
 268              		.align	1
 269              		.p2align 2,,3
 270              		.global	rstc_get_status
 271              		.syntax unified
 272              		.thumb
ARM GAS  /tmp/ccXVTxD7.s 			page 9


 273              		.thumb_func
 274              		.fpu fpv5-d16
 275              		.type	rstc_get_status, %function
 276              	rstc_get_status:
 277              	.LFB149:
 180:../asf/sam/drivers/rstc/rstc.c **** }
 181:../asf/sam/drivers/rstc/rstc.c **** 
 182:../asf/sam/drivers/rstc/rstc.c **** /**
 183:../asf/sam/drivers/rstc/rstc.c ****  * \brief Get the RSTC status.
 184:../asf/sam/drivers/rstc/rstc.c ****  *
 185:../asf/sam/drivers/rstc/rstc.c ****  * \param[in] p_rstc Module hardware register base address pointer
 186:../asf/sam/drivers/rstc/rstc.c ****  *
 187:../asf/sam/drivers/rstc/rstc.c ****  * \return RSTC status.
 188:../asf/sam/drivers/rstc/rstc.c ****  */
 189:../asf/sam/drivers/rstc/rstc.c **** uint32_t rstc_get_status(
 190:../asf/sam/drivers/rstc/rstc.c **** 		Rstc *p_rstc)
 191:../asf/sam/drivers/rstc/rstc.c **** {
 278              		.loc 1 191 0
 279              		.cfi_startproc
 280              		@ args = 0, pretend = 0, frame = 0
 281              		@ frame_needed = 0, uses_anonymous_args = 0
 282              		@ link register save eliminated.
 283              	.LVL23:
 192:../asf/sam/drivers/rstc/rstc.c **** 	return p_rstc->RSTC_SR;
 284              		.loc 1 192 0
 285 0000 4068     		ldr	r0, [r0, #4]
 286              	.LVL24:
 193:../asf/sam/drivers/rstc/rstc.c **** }
 287              		.loc 1 193 0
 288 0002 7047     		bx	lr
 289              		.cfi_endproc
 290              	.LFE149:
 291              		.size	rstc_get_status, .-rstc_get_status
 292              		.section	.text.rstc_get_reset_cause,"ax",%progbits
 293              		.align	1
 294              		.p2align 2,,3
 295              		.global	rstc_get_reset_cause
 296              		.syntax unified
 297              		.thumb
 298              		.thumb_func
 299              		.fpu fpv5-d16
 300              		.type	rstc_get_reset_cause, %function
 301              	rstc_get_reset_cause:
 302              	.LFB150:
 194:../asf/sam/drivers/rstc/rstc.c **** 
 195:../asf/sam/drivers/rstc/rstc.c **** /**
 196:../asf/sam/drivers/rstc/rstc.c ****  * \brief Get the reset cause.
 197:../asf/sam/drivers/rstc/rstc.c ****  *
 198:../asf/sam/drivers/rstc/rstc.c ****  * \param[in] p_rstc Module hardware register base address pointer
 199:../asf/sam/drivers/rstc/rstc.c ****  *
 200:../asf/sam/drivers/rstc/rstc.c ****  * \return The last reset cause.
 201:../asf/sam/drivers/rstc/rstc.c ****  */
 202:../asf/sam/drivers/rstc/rstc.c **** uint32_t rstc_get_reset_cause(
 203:../asf/sam/drivers/rstc/rstc.c **** 		Rstc *p_rstc)
 204:../asf/sam/drivers/rstc/rstc.c **** {
 303              		.loc 1 204 0
 304              		.cfi_startproc
ARM GAS  /tmp/ccXVTxD7.s 			page 10


 305              		@ args = 0, pretend = 0, frame = 0
 306              		@ frame_needed = 0, uses_anonymous_args = 0
 307              		@ link register save eliminated.
 308              	.LVL25:
 205:../asf/sam/drivers/rstc/rstc.c **** 	return (p_rstc->RSTC_SR & RSTC_SR_RSTTYP_Msk);
 309              		.loc 1 205 0
 310 0000 4068     		ldr	r0, [r0, #4]
 311              	.LVL26:
 206:../asf/sam/drivers/rstc/rstc.c **** }
 312              		.loc 1 206 0
 313 0002 00F4E060 		and	r0, r0, #1792
 314 0006 7047     		bx	lr
 315              		.cfi_endproc
 316              	.LFE150:
 317              		.size	rstc_get_reset_cause, .-rstc_get_reset_cause
 318              		.section	.bss.cpu_irq_critical_section_counter,"aw",%nobits
 319              		.align	2
 320              		.type	cpu_irq_critical_section_counter, %object
 321              		.size	cpu_irq_critical_section_counter, 4
 322              	cpu_irq_critical_section_counter:
 323 0000 00000000 		.space	4
 324              		.section	.bss.cpu_irq_prev_interrupt_state,"aw",%nobits
 325              		.type	cpu_irq_prev_interrupt_state, %object
 326              		.size	cpu_irq_prev_interrupt_state, 1
 327              	cpu_irq_prev_interrupt_state:
 328 0000 00       		.space	1
 329              		.text
 330              	.Letext0:
 331              		.file 2 "/usr/include/newlib/machine/_default_types.h"
 332              		.file 3 "/usr/include/newlib/sys/_stdint.h"
 333              		.file 4 "/home/torbjorn/eclipse-workspace/CoreNG/asf/thirdparty/CMSIS/Include/core_cm7.h"
 334              		.file 5 "/home/torbjorn/eclipse-workspace/CoreNG/variants/same70/system_same70.h"
 335              		.file 6 "/home/torbjorn/eclipse-workspace/CoreNG/asf/sam/utils/cmsis/same70/include/component/rstc
 336              		.file 7 "/usr/include/newlib/sys/lock.h"
 337              		.file 8 "/usr/include/newlib/sys/_types.h"
 338              		.file 9 "/usr/lib/gcc/arm-none-eabi/6.3.1/include/stddef.h"
 339              		.file 10 "/usr/include/newlib/sys/reent.h"
 340              		.file 11 "/usr/include/newlib/stdlib.h"
 341              		.file 12 "/home/torbjorn/eclipse-workspace/CoreNG/asf/common/utils/interrupt/interrupt_sam_nvic.h"