ARM GAS  /tmp/ccmZuGH1.s 			page 1


   1              		.cpu cortex-m7
   2              		.eabi_attribute 28, 1
   3              		.eabi_attribute 20, 1
   4              		.eabi_attribute 21, 1
   5              		.eabi_attribute 23, 3
   6              		.eabi_attribute 24, 1
   7              		.eabi_attribute 25, 1
   8              		.eabi_attribute 26, 1
   9              		.eabi_attribute 30, 2
  10              		.eabi_attribute 34, 1
  11              		.eabi_attribute 18, 4
  12              		.file	"rtc.c"
  13              		.text
  14              	.Ltext0:
  15              		.cfi_sections	.debug_frame
  16              		.section	.text.rtc_set_hour_mode,"ax",%progbits
  17              		.align	1
  18              		.p2align 2,,3
  19              		.global	rtc_set_hour_mode
  20              		.syntax unified
  21              		.thumb
  22              		.thumb_func
  23              		.fpu fpv5-d16
  24              		.type	rtc_set_hour_mode, %function
  25              	rtc_set_hour_mode:
  26              	.LFB142:
  27              		.file 1 "../asf/sam/drivers/rtc/rtc.c"
   1:../asf/sam/drivers/rtc/rtc.c **** /**
   2:../asf/sam/drivers/rtc/rtc.c ****  * \file
   3:../asf/sam/drivers/rtc/rtc.c ****  *
   4:../asf/sam/drivers/rtc/rtc.c ****  * \brief Real-Time Clock (RTC) driver for SAM.
   5:../asf/sam/drivers/rtc/rtc.c ****  *
   6:../asf/sam/drivers/rtc/rtc.c ****  * Copyright (c) 2011-2016 Atmel Corporation. All rights reserved.
   7:../asf/sam/drivers/rtc/rtc.c ****  *
   8:../asf/sam/drivers/rtc/rtc.c ****  * \asf_license_start
   9:../asf/sam/drivers/rtc/rtc.c ****  *
  10:../asf/sam/drivers/rtc/rtc.c ****  * \page License
  11:../asf/sam/drivers/rtc/rtc.c ****  *
  12:../asf/sam/drivers/rtc/rtc.c ****  * Redistribution and use in source and binary forms, with or without
  13:../asf/sam/drivers/rtc/rtc.c ****  * modification, are permitted provided that the following conditions are met:
  14:../asf/sam/drivers/rtc/rtc.c ****  *
  15:../asf/sam/drivers/rtc/rtc.c ****  * 1. Redistributions of source code must retain the above copyright notice,
  16:../asf/sam/drivers/rtc/rtc.c ****  *    this list of conditions and the following disclaimer.
  17:../asf/sam/drivers/rtc/rtc.c ****  *
  18:../asf/sam/drivers/rtc/rtc.c ****  * 2. Redistributions in binary form must reproduce the above copyright notice,
  19:../asf/sam/drivers/rtc/rtc.c ****  *    this list of conditions and the following disclaimer in the documentation
  20:../asf/sam/drivers/rtc/rtc.c ****  *    and/or other materials provided with the distribution.
  21:../asf/sam/drivers/rtc/rtc.c ****  *
  22:../asf/sam/drivers/rtc/rtc.c ****  * 3. The name of Atmel may not be used to endorse or promote products derived
  23:../asf/sam/drivers/rtc/rtc.c ****  *    from this software without specific prior written permission.
  24:../asf/sam/drivers/rtc/rtc.c ****  *
  25:../asf/sam/drivers/rtc/rtc.c ****  * 4. This software may only be redistributed and used in connection with an
  26:../asf/sam/drivers/rtc/rtc.c ****  *    Atmel microcontroller product.
  27:../asf/sam/drivers/rtc/rtc.c ****  *
  28:../asf/sam/drivers/rtc/rtc.c ****  * THIS SOFTWARE IS PROVIDED BY ATMEL "AS IS" AND ANY EXPRESS OR IMPLIED
  29:../asf/sam/drivers/rtc/rtc.c ****  * WARRANTIES, INCLUDING, BUT NOT LIMITED TO, THE IMPLIED WARRANTIES OF
  30:../asf/sam/drivers/rtc/rtc.c ****  * MERCHANTABILITY, FITNESS FOR A PARTICULAR PURPOSE AND NON-INFRINGEMENT ARE
ARM GAS  /tmp/ccmZuGH1.s 			page 2


  31:../asf/sam/drivers/rtc/rtc.c ****  * EXPRESSLY AND SPECIFICALLY DISCLAIMED. IN NO EVENT SHALL ATMEL BE LIABLE FOR
  32:../asf/sam/drivers/rtc/rtc.c ****  * ANY DIRECT, INDIRECT, INCIDENTAL, SPECIAL, EXEMPLARY, OR CONSEQUENTIAL
  33:../asf/sam/drivers/rtc/rtc.c ****  * DAMAGES (INCLUDING, BUT NOT LIMITED TO, PROCUREMENT OF SUBSTITUTE GOODS
  34:../asf/sam/drivers/rtc/rtc.c ****  * OR SERVICES; LOSS OF USE, DATA, OR PROFITS; OR BUSINESS INTERRUPTION)
  35:../asf/sam/drivers/rtc/rtc.c ****  * HOWEVER CAUSED AND ON ANY THEORY OF LIABILITY, WHETHER IN CONTRACT,
  36:../asf/sam/drivers/rtc/rtc.c ****  * STRICT LIABILITY, OR TORT (INCLUDING NEGLIGENCE OR OTHERWISE) ARISING IN
  37:../asf/sam/drivers/rtc/rtc.c ****  * ANY WAY OUT OF THE USE OF THIS SOFTWARE, EVEN IF ADVISED OF THE
  38:../asf/sam/drivers/rtc/rtc.c ****  * POSSIBILITY OF SUCH DAMAGE.
  39:../asf/sam/drivers/rtc/rtc.c ****  *
  40:../asf/sam/drivers/rtc/rtc.c ****  * \asf_license_stop
  41:../asf/sam/drivers/rtc/rtc.c ****  *
  42:../asf/sam/drivers/rtc/rtc.c ****  */
  43:../asf/sam/drivers/rtc/rtc.c **** /*
  44:../asf/sam/drivers/rtc/rtc.c ****  * Support and FAQ: visit <a href="http://www.atmel.com/design-support/">Atmel Support</a>
  45:../asf/sam/drivers/rtc/rtc.c ****  */
  46:../asf/sam/drivers/rtc/rtc.c **** 
  47:../asf/sam/drivers/rtc/rtc.c **** #include "rtc.h"
  48:../asf/sam/drivers/rtc/rtc.c **** 
  49:../asf/sam/drivers/rtc/rtc.c **** /// @cond 0
  50:../asf/sam/drivers/rtc/rtc.c **** /**INDENT-OFF**/
  51:../asf/sam/drivers/rtc/rtc.c **** #ifdef __cplusplus
  52:../asf/sam/drivers/rtc/rtc.c **** extern "C" {
  53:../asf/sam/drivers/rtc/rtc.c **** #endif
  54:../asf/sam/drivers/rtc/rtc.c **** /**INDENT-ON**/
  55:../asf/sam/drivers/rtc/rtc.c **** /// @endcond
  56:../asf/sam/drivers/rtc/rtc.c **** 
  57:../asf/sam/drivers/rtc/rtc.c **** /**
  58:../asf/sam/drivers/rtc/rtc.c ****  * \defgroup sam_drivers_rtc_group Real-Time Clock (RTC)
  59:../asf/sam/drivers/rtc/rtc.c ****  *
  60:../asf/sam/drivers/rtc/rtc.c ****  * See \ref sam_rtc_quickstart.
  61:../asf/sam/drivers/rtc/rtc.c ****  *
  62:../asf/sam/drivers/rtc/rtc.c ****  * The RTC provides a full binary-coded decimal (BCD) clock that includes
  63:../asf/sam/drivers/rtc/rtc.c ****  * century (19/20), year (with leap years), month, date, day, hour, minute
  64:../asf/sam/drivers/rtc/rtc.c ****  * and second.
  65:../asf/sam/drivers/rtc/rtc.c ****  *
  66:../asf/sam/drivers/rtc/rtc.c ****  * @{
  67:../asf/sam/drivers/rtc/rtc.c ****  */
  68:../asf/sam/drivers/rtc/rtc.c **** 
  69:../asf/sam/drivers/rtc/rtc.c **** /* RTC Write Protect Key "RTC" in ASCII */
  70:../asf/sam/drivers/rtc/rtc.c **** #define RTC_WP_KEY     (0x525443)
  71:../asf/sam/drivers/rtc/rtc.c **** 
  72:../asf/sam/drivers/rtc/rtc.c **** /* The BCD code shift value */
  73:../asf/sam/drivers/rtc/rtc.c **** #define BCD_SHIFT      4
  74:../asf/sam/drivers/rtc/rtc.c **** 
  75:../asf/sam/drivers/rtc/rtc.c **** /* The BCD code mask value */
  76:../asf/sam/drivers/rtc/rtc.c **** #define BCD_MASK       0xfu
  77:../asf/sam/drivers/rtc/rtc.c **** 
  78:../asf/sam/drivers/rtc/rtc.c **** /* The BCD mul/div factor value */
  79:../asf/sam/drivers/rtc/rtc.c **** #define BCD_FACTOR     10
  80:../asf/sam/drivers/rtc/rtc.c **** 
  81:../asf/sam/drivers/rtc/rtc.c **** /**
  82:../asf/sam/drivers/rtc/rtc.c ****  * \brief Set the RTC hour mode.
  83:../asf/sam/drivers/rtc/rtc.c ****  *
  84:../asf/sam/drivers/rtc/rtc.c ****  * \param p_rtc Pointer to an RTC instance.
  85:../asf/sam/drivers/rtc/rtc.c ****  * \param ul_mode 1 for 12-hour mode, 0 for 24-hour mode.
  86:../asf/sam/drivers/rtc/rtc.c ****  */
  87:../asf/sam/drivers/rtc/rtc.c **** void rtc_set_hour_mode(Rtc *p_rtc, uint32_t ul_mode)
ARM GAS  /tmp/ccmZuGH1.s 			page 3


  88:../asf/sam/drivers/rtc/rtc.c **** {
  28              		.loc 1 88 0
  29              		.cfi_startproc
  30              		@ args = 0, pretend = 0, frame = 0
  31              		@ frame_needed = 0, uses_anonymous_args = 0
  32              		@ link register save eliminated.
  33              	.LVL0:
  89:../asf/sam/drivers/rtc/rtc.c **** 	if (ul_mode) {
  90:../asf/sam/drivers/rtc/rtc.c **** 		p_rtc->RTC_MR |= RTC_MR_HRMOD;
  34              		.loc 1 90 0
  35 0000 4368     		ldr	r3, [r0, #4]
  89:../asf/sam/drivers/rtc/rtc.c **** 	if (ul_mode) {
  36              		.loc 1 89 0
  37 0002 19B9     		cbnz	r1, .L5
  91:../asf/sam/drivers/rtc/rtc.c **** 	} else {
  92:../asf/sam/drivers/rtc/rtc.c **** 		p_rtc->RTC_MR &= (~RTC_MR_HRMOD);
  38              		.loc 1 92 0
  39 0004 23F00103 		bic	r3, r3, #1
  40 0008 4360     		str	r3, [r0, #4]
  41 000a 7047     		bx	lr
  42              	.L5:
  90:../asf/sam/drivers/rtc/rtc.c **** 	} else {
  43              		.loc 1 90 0
  44 000c 43F00103 		orr	r3, r3, #1
  45 0010 4360     		str	r3, [r0, #4]
  46 0012 7047     		bx	lr
  47              		.cfi_endproc
  48              	.LFE142:
  49              		.size	rtc_set_hour_mode, .-rtc_set_hour_mode
  50              		.section	.text.rtc_get_hour_mode,"ax",%progbits
  51              		.align	1
  52              		.p2align 2,,3
  53              		.global	rtc_get_hour_mode
  54              		.syntax unified
  55              		.thumb
  56              		.thumb_func
  57              		.fpu fpv5-d16
  58              		.type	rtc_get_hour_mode, %function
  59              	rtc_get_hour_mode:
  60              	.LFB143:
  93:../asf/sam/drivers/rtc/rtc.c **** 	}
  94:../asf/sam/drivers/rtc/rtc.c **** }
  95:../asf/sam/drivers/rtc/rtc.c **** 
  96:../asf/sam/drivers/rtc/rtc.c **** /**
  97:../asf/sam/drivers/rtc/rtc.c ****  * \brief Get the RTC hour mode.
  98:../asf/sam/drivers/rtc/rtc.c ****  *
  99:../asf/sam/drivers/rtc/rtc.c ****  * \param p_rtc Pointer to an RTC instance.
 100:../asf/sam/drivers/rtc/rtc.c ****  *
 101:../asf/sam/drivers/rtc/rtc.c ****  * \return 1 for 12-hour mode, 0 for 24-hour mode.
 102:../asf/sam/drivers/rtc/rtc.c ****  */
 103:../asf/sam/drivers/rtc/rtc.c **** uint32_t rtc_get_hour_mode(Rtc *p_rtc)
 104:../asf/sam/drivers/rtc/rtc.c **** {
  61              		.loc 1 104 0
  62              		.cfi_startproc
  63              		@ args = 0, pretend = 0, frame = 0
  64              		@ frame_needed = 0, uses_anonymous_args = 0
  65              		@ link register save eliminated.
ARM GAS  /tmp/ccmZuGH1.s 			page 4


  66              	.LVL1:
 105:../asf/sam/drivers/rtc/rtc.c **** 	uint32_t ul_temp = p_rtc->RTC_MR;
  67              		.loc 1 105 0
  68 0000 4068     		ldr	r0, [r0, #4]
  69              	.LVL2:
 106:../asf/sam/drivers/rtc/rtc.c **** 
 107:../asf/sam/drivers/rtc/rtc.c **** 	if (ul_temp & RTC_MR_HRMOD) {
 108:../asf/sam/drivers/rtc/rtc.c **** 		return 1;
 109:../asf/sam/drivers/rtc/rtc.c **** 	} else {
 110:../asf/sam/drivers/rtc/rtc.c **** 		return 0;
 111:../asf/sam/drivers/rtc/rtc.c **** 	}
 112:../asf/sam/drivers/rtc/rtc.c **** }
  70              		.loc 1 112 0
  71 0002 00F00100 		and	r0, r0, #1
  72              	.LVL3:
  73 0006 7047     		bx	lr
  74              		.cfi_endproc
  75              	.LFE143:
  76              		.size	rtc_get_hour_mode, .-rtc_get_hour_mode
  77              		.section	.text.rtc_enable_interrupt,"ax",%progbits
  78              		.align	1
  79              		.p2align 2,,3
  80              		.global	rtc_enable_interrupt
  81              		.syntax unified
  82              		.thumb
  83              		.thumb_func
  84              		.fpu fpv5-d16
  85              		.type	rtc_enable_interrupt, %function
  86              	rtc_enable_interrupt:
  87              	.LFB144:
 113:../asf/sam/drivers/rtc/rtc.c **** 
 114:../asf/sam/drivers/rtc/rtc.c **** /**
 115:../asf/sam/drivers/rtc/rtc.c ****  * \brief Enable RTC interrupts.
 116:../asf/sam/drivers/rtc/rtc.c ****  *
 117:../asf/sam/drivers/rtc/rtc.c ****  * \param p_rtc Pointer to an RTC instance.
 118:../asf/sam/drivers/rtc/rtc.c ****  * \param ul_sources Interrupts to be enabled.
 119:../asf/sam/drivers/rtc/rtc.c ****  */
 120:../asf/sam/drivers/rtc/rtc.c **** void rtc_enable_interrupt(Rtc *p_rtc, uint32_t ul_sources)
 121:../asf/sam/drivers/rtc/rtc.c **** {
  88              		.loc 1 121 0
  89              		.cfi_startproc
  90              		@ args = 0, pretend = 0, frame = 0
  91              		@ frame_needed = 0, uses_anonymous_args = 0
  92              		@ link register save eliminated.
  93              	.LVL4:
 122:../asf/sam/drivers/rtc/rtc.c **** 	p_rtc->RTC_IER = ul_sources;
  94              		.loc 1 122 0
  95 0000 0162     		str	r1, [r0, #32]
  96 0002 7047     		bx	lr
  97              		.cfi_endproc
  98              	.LFE144:
  99              		.size	rtc_enable_interrupt, .-rtc_enable_interrupt
 100              		.section	.text.rtc_disable_interrupt,"ax",%progbits
 101              		.align	1
 102              		.p2align 2,,3
 103              		.global	rtc_disable_interrupt
 104              		.syntax unified
ARM GAS  /tmp/ccmZuGH1.s 			page 5


 105              		.thumb
 106              		.thumb_func
 107              		.fpu fpv5-d16
 108              		.type	rtc_disable_interrupt, %function
 109              	rtc_disable_interrupt:
 110              	.LFB145:
 123:../asf/sam/drivers/rtc/rtc.c **** }
 124:../asf/sam/drivers/rtc/rtc.c **** 
 125:../asf/sam/drivers/rtc/rtc.c **** /**
 126:../asf/sam/drivers/rtc/rtc.c ****  * \brief Disable RTC interrupts.
 127:../asf/sam/drivers/rtc/rtc.c ****  *
 128:../asf/sam/drivers/rtc/rtc.c ****  * \param p_rtc Pointer to an RTC instance.
 129:../asf/sam/drivers/rtc/rtc.c ****  * \param ul_sources Interrupts to be disabled.
 130:../asf/sam/drivers/rtc/rtc.c ****  */
 131:../asf/sam/drivers/rtc/rtc.c **** void rtc_disable_interrupt(Rtc *p_rtc, uint32_t ul_sources)
 132:../asf/sam/drivers/rtc/rtc.c **** {
 111              		.loc 1 132 0
 112              		.cfi_startproc
 113              		@ args = 0, pretend = 0, frame = 0
 114              		@ frame_needed = 0, uses_anonymous_args = 0
 115              		@ link register save eliminated.
 116              	.LVL5:
 133:../asf/sam/drivers/rtc/rtc.c **** 	p_rtc->RTC_IDR = ul_sources;
 117              		.loc 1 133 0
 118 0000 4162     		str	r1, [r0, #36]
 119 0002 7047     		bx	lr
 120              		.cfi_endproc
 121              	.LFE145:
 122              		.size	rtc_disable_interrupt, .-rtc_disable_interrupt
 123              		.section	.text.rtc_get_interrupt_mask,"ax",%progbits
 124              		.align	1
 125              		.p2align 2,,3
 126              		.global	rtc_get_interrupt_mask
 127              		.syntax unified
 128              		.thumb
 129              		.thumb_func
 130              		.fpu fpv5-d16
 131              		.type	rtc_get_interrupt_mask, %function
 132              	rtc_get_interrupt_mask:
 133              	.LFB146:
 134:../asf/sam/drivers/rtc/rtc.c **** }
 135:../asf/sam/drivers/rtc/rtc.c **** 
 136:../asf/sam/drivers/rtc/rtc.c **** /**
 137:../asf/sam/drivers/rtc/rtc.c ****  * \brief Read RTC interrupt mask.
 138:../asf/sam/drivers/rtc/rtc.c ****  *
 139:../asf/sam/drivers/rtc/rtc.c ****  * \param p_rtc Pointer to an RTC instance.
 140:../asf/sam/drivers/rtc/rtc.c ****  *
 141:../asf/sam/drivers/rtc/rtc.c ****  * \return The interrupt mask value.
 142:../asf/sam/drivers/rtc/rtc.c ****  */
 143:../asf/sam/drivers/rtc/rtc.c **** uint32_t rtc_get_interrupt_mask(Rtc *p_rtc)
 144:../asf/sam/drivers/rtc/rtc.c **** {
 134              		.loc 1 144 0
 135              		.cfi_startproc
 136              		@ args = 0, pretend = 0, frame = 0
 137              		@ frame_needed = 0, uses_anonymous_args = 0
 138              		@ link register save eliminated.
 139              	.LVL6:
ARM GAS  /tmp/ccmZuGH1.s 			page 6


 145:../asf/sam/drivers/rtc/rtc.c **** 	return p_rtc->RTC_IMR;
 140              		.loc 1 145 0
 141 0000 806A     		ldr	r0, [r0, #40]
 142              	.LVL7:
 146:../asf/sam/drivers/rtc/rtc.c **** }
 143              		.loc 1 146 0
 144 0002 7047     		bx	lr
 145              		.cfi_endproc
 146              	.LFE146:
 147              		.size	rtc_get_interrupt_mask, .-rtc_get_interrupt_mask
 148              		.section	.text.rtc_get_time,"ax",%progbits
 149              		.align	1
 150              		.p2align 2,,3
 151              		.global	rtc_get_time
 152              		.syntax unified
 153              		.thumb
 154              		.thumb_func
 155              		.fpu fpv5-d16
 156              		.type	rtc_get_time, %function
 157              	rtc_get_time:
 158              	.LFB147:
 147:../asf/sam/drivers/rtc/rtc.c **** 
 148:../asf/sam/drivers/rtc/rtc.c **** /**
 149:../asf/sam/drivers/rtc/rtc.c ****  * \brief Get the RTC time value.
 150:../asf/sam/drivers/rtc/rtc.c ****  *
 151:../asf/sam/drivers/rtc/rtc.c ****  * \param p_rtc Pointer to an RTC instance.
 152:../asf/sam/drivers/rtc/rtc.c ****  * \param pul_hour Current hour, 24-hour mode.
 153:../asf/sam/drivers/rtc/rtc.c ****  * \param pul_minute Current minute.
 154:../asf/sam/drivers/rtc/rtc.c ****  * \param pul_second Current second.
 155:../asf/sam/drivers/rtc/rtc.c ****  */
 156:../asf/sam/drivers/rtc/rtc.c **** void rtc_get_time(Rtc *p_rtc, uint32_t *pul_hour, uint32_t *pul_minute,
 157:../asf/sam/drivers/rtc/rtc.c **** 		uint32_t *pul_second)
 158:../asf/sam/drivers/rtc/rtc.c **** {
 159              		.loc 1 158 0
 160              		.cfi_startproc
 161              		@ args = 0, pretend = 0, frame = 0
 162              		@ frame_needed = 0, uses_anonymous_args = 0
 163              		@ link register save eliminated.
 164              	.LVL8:
 165 0000 30B4     		push	{r4, r5}
 166              		.cfi_def_cfa_offset 8
 167              		.cfi_offset 4, -8
 168              		.cfi_offset 5, -4
 159:../asf/sam/drivers/rtc/rtc.c **** 	uint32_t ul_time;
 160:../asf/sam/drivers/rtc/rtc.c **** 	uint32_t ul_temp;
 161:../asf/sam/drivers/rtc/rtc.c **** 
 162:../asf/sam/drivers/rtc/rtc.c **** 	/* Get the current RTC time (multiple reads are necessary to insure a stable value). */
 163:../asf/sam/drivers/rtc/rtc.c **** 	ul_time = p_rtc->RTC_TIMR;
 169              		.loc 1 163 0
 170 0002 8568     		ldr	r5, [r0, #8]
 171              	.LVL9:
 164:../asf/sam/drivers/rtc/rtc.c **** 	while (ul_time != p_rtc->RTC_TIMR) {
 172              		.loc 1 164 0
 173 0004 8468     		ldr	r4, [r0, #8]
 174 0006 A542     		cmp	r5, r4
 175 0008 03D0     		beq	.L11
 176              	.L23:
ARM GAS  /tmp/ccmZuGH1.s 			page 7


 165:../asf/sam/drivers/rtc/rtc.c **** 		ul_time = p_rtc->RTC_TIMR;
 177              		.loc 1 165 0
 178 000a 8568     		ldr	r5, [r0, #8]
 179              	.LVL10:
 164:../asf/sam/drivers/rtc/rtc.c **** 	while (ul_time != p_rtc->RTC_TIMR) {
 180              		.loc 1 164 0
 181 000c 8468     		ldr	r4, [r0, #8]
 182 000e AC42     		cmp	r4, r5
 183 0010 FBD1     		bne	.L23
 184              	.LVL11:
 185              	.L11:
 166:../asf/sam/drivers/rtc/rtc.c **** 	}
 167:../asf/sam/drivers/rtc/rtc.c **** 
 168:../asf/sam/drivers/rtc/rtc.c **** 	/* Hour */
 169:../asf/sam/drivers/rtc/rtc.c **** 	if (pul_hour) {
 186              		.loc 1 169 0
 187 0012 59B1     		cbz	r1, .L14
 188              	.LVL12:
 170:../asf/sam/drivers/rtc/rtc.c **** 		ul_temp = (ul_time & RTC_TIMR_HOUR_Msk) >> RTC_TIMR_HOUR_Pos;
 171:../asf/sam/drivers/rtc/rtc.c **** 		*pul_hour = (ul_temp >> BCD_SHIFT) * BCD_FACTOR + (ul_temp & BCD_MASK);
 189              		.loc 1 171 0
 190 0014 C4F30155 		ubfx	r5, r4, #20, #2
 191 0018 C4F30340 		ubfx	r0, r4, #16, #4
 192              	.LVL13:
 193 001c 05EB8505 		add	r5, r5, r5, lsl #2
 194 0020 00EB4500 		add	r0, r0, r5, lsl #1
 172:../asf/sam/drivers/rtc/rtc.c **** 
 173:../asf/sam/drivers/rtc/rtc.c **** 		if ((ul_time & RTC_TIMR_AMPM) == RTC_TIMR_AMPM) {
 195              		.loc 1 173 0
 196 0024 6502     		lsls	r5, r4, #9
 174:../asf/sam/drivers/rtc/rtc.c **** 			*pul_hour += 12;
 197              		.loc 1 174 0
 198 0026 48BF     		it	mi
 199 0028 0C30     		addmi	r0, r0, #12
 200 002a 0860     		str	r0, [r1]
 201              	.LVL14:
 202              	.L14:
 175:../asf/sam/drivers/rtc/rtc.c **** 		}
 176:../asf/sam/drivers/rtc/rtc.c **** 	}
 177:../asf/sam/drivers/rtc/rtc.c **** 
 178:../asf/sam/drivers/rtc/rtc.c **** 	/* Minute */
 179:../asf/sam/drivers/rtc/rtc.c **** 	if (pul_minute) {
 203              		.loc 1 179 0
 204 002c 42B1     		cbz	r2, .L17
 205              	.LVL15:
 180:../asf/sam/drivers/rtc/rtc.c **** 		ul_temp = (ul_time & RTC_TIMR_MIN_Msk) >> RTC_TIMR_MIN_Pos;
 181:../asf/sam/drivers/rtc/rtc.c **** 		*pul_minute = (ul_temp >> BCD_SHIFT) * BCD_FACTOR +  (ul_temp & BCD_MASK);
 206              		.loc 1 181 0
 207 002e C4F30231 		ubfx	r1, r4, #12, #3
 208              	.LVL16:
 209 0032 C4F30320 		ubfx	r0, r4, #8, #4
 210 0036 01EB8101 		add	r1, r1, r1, lsl #2
 211 003a 00EB4101 		add	r1, r0, r1, lsl #1
 212 003e 1160     		str	r1, [r2]
 213              	.LVL17:
 214              	.L17:
 182:../asf/sam/drivers/rtc/rtc.c **** 	}
ARM GAS  /tmp/ccmZuGH1.s 			page 8


 183:../asf/sam/drivers/rtc/rtc.c **** 
 184:../asf/sam/drivers/rtc/rtc.c **** 	/* Second */
 185:../asf/sam/drivers/rtc/rtc.c **** 	if (pul_second) {
 215              		.loc 1 185 0
 216 0040 43B1     		cbz	r3, .L10
 217              	.LVL18:
 186:../asf/sam/drivers/rtc/rtc.c **** 		ul_temp = (ul_time & RTC_TIMR_SEC_Msk) >> RTC_TIMR_SEC_Pos;
 187:../asf/sam/drivers/rtc/rtc.c **** 		*pul_second = (ul_temp >> BCD_SHIFT) * BCD_FACTOR + (ul_temp & BCD_MASK);
 218              		.loc 1 187 0
 219 0042 C4F30212 		ubfx	r2, r4, #4, #3
 220              	.LVL19:
 221 0046 04F00F04 		and	r4, r4, #15
 222              	.LVL20:
 223 004a 02EB8202 		add	r2, r2, r2, lsl #2
 224 004e 04EB4204 		add	r4, r4, r2, lsl #1
 225 0052 1C60     		str	r4, [r3]
 226              	.L10:
 188:../asf/sam/drivers/rtc/rtc.c **** 	}
 189:../asf/sam/drivers/rtc/rtc.c **** }
 227              		.loc 1 189 0
 228 0054 30BC     		pop	{r4, r5}
 229              		.cfi_restore 5
 230              		.cfi_restore 4
 231              		.cfi_def_cfa_offset 0
 232 0056 7047     		bx	lr
 233              		.cfi_endproc
 234              	.LFE147:
 235              		.size	rtc_get_time, .-rtc_get_time
 236              		.section	.text.rtc_set_time,"ax",%progbits
 237              		.align	1
 238              		.p2align 2,,3
 239              		.global	rtc_set_time
 240              		.syntax unified
 241              		.thumb
 242              		.thumb_func
 243              		.fpu fpv5-d16
 244              		.type	rtc_set_time, %function
 245              	rtc_set_time:
 246              	.LFB148:
 190:../asf/sam/drivers/rtc/rtc.c **** 
 191:../asf/sam/drivers/rtc/rtc.c **** /**
 192:../asf/sam/drivers/rtc/rtc.c ****  * \brief Set the RTC time value.
 193:../asf/sam/drivers/rtc/rtc.c ****  *
 194:../asf/sam/drivers/rtc/rtc.c ****  * \param p_rtc Pointer to an RTC instance.
 195:../asf/sam/drivers/rtc/rtc.c ****  * \param ul_hour Current hour, 24-hour mode.
 196:../asf/sam/drivers/rtc/rtc.c ****  * \param ul_minute Current minute.
 197:../asf/sam/drivers/rtc/rtc.c ****  * \param ul_second Current second.
 198:../asf/sam/drivers/rtc/rtc.c ****  *
 199:../asf/sam/drivers/rtc/rtc.c ****  * \return 0 for OK, else invalid setting.
 200:../asf/sam/drivers/rtc/rtc.c ****  */
 201:../asf/sam/drivers/rtc/rtc.c **** uint32_t rtc_set_time(Rtc *p_rtc, uint32_t ul_hour, uint32_t ul_minute,
 202:../asf/sam/drivers/rtc/rtc.c **** 		uint32_t ul_second)
 203:../asf/sam/drivers/rtc/rtc.c **** {
 247              		.loc 1 203 0
 248              		.cfi_startproc
 249              		@ args = 0, pretend = 0, frame = 0
 250              		@ frame_needed = 0, uses_anonymous_args = 0
ARM GAS  /tmp/ccmZuGH1.s 			page 9


 251              	.LVL21:
 204:../asf/sam/drivers/rtc/rtc.c **** 	uint32_t ul_time = 0;
 205:../asf/sam/drivers/rtc/rtc.c **** 
 206:../asf/sam/drivers/rtc/rtc.c **** 	/* If 12-hour mode, set AMPM bit */
 207:../asf/sam/drivers/rtc/rtc.c **** 	if ((p_rtc->RTC_MR & RTC_MR_HRMOD) == RTC_MR_HRMOD) {
 208:../asf/sam/drivers/rtc/rtc.c **** 		if (ul_hour > 12) {
 252              		.loc 1 208 0
 253 0000 0C29     		cmp	r1, #12
 203:../asf/sam/drivers/rtc/rtc.c **** 	uint32_t ul_time = 0;
 254              		.loc 1 203 0
 255 0002 F0B5     		push	{r4, r5, r6, r7, lr}
 256              		.cfi_def_cfa_offset 20
 257              		.cfi_offset 4, -20
 258              		.cfi_offset 5, -16
 259              		.cfi_offset 6, -12
 260              		.cfi_offset 7, -8
 261              		.cfi_offset 14, -4
 207:../asf/sam/drivers/rtc/rtc.c **** 		if (ul_hour > 12) {
 262              		.loc 1 207 0
 263 0004 4468     		ldr	r4, [r0, #4]
 264              		.loc 1 208 0
 265 0006 3BD9     		bls	.L33
 266 0008 E407     		lsls	r4, r4, #31
 267 000a 39D5     		bpl	.L33
 209:../asf/sam/drivers/rtc/rtc.c **** 			ul_hour -= 12;
 268              		.loc 1 209 0
 269 000c 0C39     		subs	r1, r1, #12
 270              	.LVL22:
 210:../asf/sam/drivers/rtc/rtc.c **** 			ul_time |= RTC_TIMR_AMPM;
 271              		.loc 1 210 0
 272 000e 4FF48007 		mov	r7, #4194304
 273              	.LVL23:
 274              	.L30:
 211:../asf/sam/drivers/rtc/rtc.c **** 		}
 212:../asf/sam/drivers/rtc/rtc.c **** 	}
 213:../asf/sam/drivers/rtc/rtc.c **** 
 214:../asf/sam/drivers/rtc/rtc.c **** 	/* Hour */
 215:../asf/sam/drivers/rtc/rtc.c **** 	ul_time |= ((ul_hour / BCD_FACTOR) << (RTC_TIMR_HOUR_Pos + BCD_SHIFT)) |
 216:../asf/sam/drivers/rtc/rtc.c **** 			((ul_hour % BCD_FACTOR) << RTC_TIMR_HOUR_Pos);
 217:../asf/sam/drivers/rtc/rtc.c **** 
 218:../asf/sam/drivers/rtc/rtc.c **** 	/* Minute */
 219:../asf/sam/drivers/rtc/rtc.c **** 	ul_time |= ((ul_minute / BCD_FACTOR) << (RTC_TIMR_MIN_Pos + BCD_SHIFT)) |
 220:../asf/sam/drivers/rtc/rtc.c **** 			((ul_minute % BCD_FACTOR) << RTC_TIMR_MIN_Pos);
 221:../asf/sam/drivers/rtc/rtc.c **** 
 222:../asf/sam/drivers/rtc/rtc.c **** 	/* Second */
 223:../asf/sam/drivers/rtc/rtc.c **** 	ul_time |= ((ul_second / BCD_FACTOR) << (RTC_TIMR_SEC_Pos + BCD_SHIFT)) |
 275              		.loc 1 223 0
 276 0012 1C4C     		ldr	r4, .L45
 277 0014 A4FB0356 		umull	r5, r6, r4, r3
 219:../asf/sam/drivers/rtc/rtc.c **** 			((ul_minute % BCD_FACTOR) << RTC_TIMR_MIN_Pos);
 278              		.loc 1 219 0
 279 0018 A4FB02E5 		umull	lr, r5, r4, r2
 280              		.loc 1 223 0
 281 001c F608     		lsrs	r6, r6, #3
 215:../asf/sam/drivers/rtc/rtc.c **** 			((ul_hour % BCD_FACTOR) << RTC_TIMR_HOUR_Pos);
 282              		.loc 1 215 0
 283 001e A4FB01E4 		umull	lr, r4, r4, r1
ARM GAS  /tmp/ccmZuGH1.s 			page 10


 219:../asf/sam/drivers/rtc/rtc.c **** 			((ul_minute % BCD_FACTOR) << RTC_TIMR_MIN_Pos);
 284              		.loc 1 219 0
 285 0022 ED08     		lsrs	r5, r5, #3
 224:../asf/sam/drivers/rtc/rtc.c **** 			((ul_second % BCD_FACTOR) << RTC_TIMR_SEC_Pos);
 286              		.loc 1 224 0
 287 0024 06EB860E 		add	lr, r6, r6, lsl #2
 215:../asf/sam/drivers/rtc/rtc.c **** 			((ul_hour % BCD_FACTOR) << RTC_TIMR_HOUR_Pos);
 288              		.loc 1 215 0
 289 0028 E408     		lsrs	r4, r4, #3
 290              		.loc 1 224 0
 291 002a A3EB4E03 		sub	r3, r3, lr, lsl #1
 292              	.LVL24:
 220:../asf/sam/drivers/rtc/rtc.c **** 
 293              		.loc 1 220 0
 294 002e 05EB850E 		add	lr, r5, r5, lsl #2
 295 0032 43EA0613 		orr	r3, r3, r6, lsl #4
 296 0036 A2EB4E06 		sub	r6, r2, lr, lsl #1
 297 003a 43EA0532 		orr	r2, r3, r5, lsl #12
 298              	.LVL25:
 216:../asf/sam/drivers/rtc/rtc.c **** 
 299              		.loc 1 216 0
 300 003e 04EB8403 		add	r3, r4, r4, lsl #2
 301 0042 42EA0622 		orr	r2, r2, r6, lsl #8
 302 0046 A1EB4303 		sub	r3, r1, r3, lsl #1
 303 004a 42EA0701 		orr	r1, r2, r7
 304              	.LVL26:
 305 004e 41EA0451 		orr	r1, r1, r4, lsl #20
 223:../asf/sam/drivers/rtc/rtc.c **** 			((ul_second % BCD_FACTOR) << RTC_TIMR_SEC_Pos);
 306              		.loc 1 223 0
 307 0052 41EA0341 		orr	r1, r1, r3, lsl #16
 308              	.LVL27:
 309              	.L31:
 225:../asf/sam/drivers/rtc/rtc.c **** 
 226:../asf/sam/drivers/rtc/rtc.c **** 	/* Update time register. Check the spec for the flow. */
 227:../asf/sam/drivers/rtc/rtc.c **** 	while ((p_rtc->RTC_SR & RTC_SR_SEC) != RTC_SR_SEC);
 310              		.loc 1 227 0 discriminator 1
 311 0056 8369     		ldr	r3, [r0, #24]
 312 0058 5A07     		lsls	r2, r3, #29
 313 005a FCD5     		bpl	.L31
 228:../asf/sam/drivers/rtc/rtc.c **** 	p_rtc->RTC_CR |= RTC_CR_UPDTIM;
 314              		.loc 1 228 0
 315 005c 0368     		ldr	r3, [r0]
 316 005e 43F00103 		orr	r3, r3, #1
 317 0062 0360     		str	r3, [r0]
 318              	.L32:
 229:../asf/sam/drivers/rtc/rtc.c **** 	while ((p_rtc->RTC_SR & RTC_SR_ACKUPD) != RTC_SR_ACKUPD);
 319              		.loc 1 229 0 discriminator 1
 320 0064 8369     		ldr	r3, [r0, #24]
 321 0066 DB07     		lsls	r3, r3, #31
 322 0068 FCD5     		bpl	.L32
 230:../asf/sam/drivers/rtc/rtc.c **** 	p_rtc->RTC_SCCR = RTC_SCCR_ACKCLR;
 323              		.loc 1 230 0
 324 006a 0123     		movs	r3, #1
 325 006c C361     		str	r3, [r0, #28]
 231:../asf/sam/drivers/rtc/rtc.c **** 	p_rtc->RTC_TIMR = ul_time;
 326              		.loc 1 231 0
 327 006e 8160     		str	r1, [r0, #8]
ARM GAS  /tmp/ccmZuGH1.s 			page 11


 232:../asf/sam/drivers/rtc/rtc.c **** 	p_rtc->RTC_CR &= (~RTC_CR_UPDTIM);
 328              		.loc 1 232 0
 329 0070 0368     		ldr	r3, [r0]
 330 0072 23F00103 		bic	r3, r3, #1
 331 0076 0360     		str	r3, [r0]
 233:../asf/sam/drivers/rtc/rtc.c **** 
 234:../asf/sam/drivers/rtc/rtc.c **** 	return (p_rtc->RTC_VER & RTC_VER_NVTIM);
 332              		.loc 1 234 0
 333 0078 C06A     		ldr	r0, [r0, #44]
 334              	.LVL28:
 235:../asf/sam/drivers/rtc/rtc.c **** }
 335              		.loc 1 235 0
 336 007a 00F00100 		and	r0, r0, #1
 337 007e F0BD     		pop	{r4, r5, r6, r7, pc}
 338              	.LVL29:
 339              	.L33:
 204:../asf/sam/drivers/rtc/rtc.c **** 
 340              		.loc 1 204 0
 341 0080 0027     		movs	r7, #0
 342 0082 C6E7     		b	.L30
 343              	.L46:
 344              		.align	2
 345              	.L45:
 346 0084 CDCCCCCC 		.word	-858993459
 347              		.cfi_endproc
 348              	.LFE148:
 349              		.size	rtc_set_time, .-rtc_set_time
 350              		.section	.text.rtc_set_time_alarm,"ax",%progbits
 351              		.align	1
 352              		.p2align 2,,3
 353              		.global	rtc_set_time_alarm
 354              		.syntax unified
 355              		.thumb
 356              		.thumb_func
 357              		.fpu fpv5-d16
 358              		.type	rtc_set_time_alarm, %function
 359              	rtc_set_time_alarm:
 360              	.LFB149:
 236:../asf/sam/drivers/rtc/rtc.c **** 
 237:../asf/sam/drivers/rtc/rtc.c **** /**
 238:../asf/sam/drivers/rtc/rtc.c ****  * \brief Set the RTC alarm time value.
 239:../asf/sam/drivers/rtc/rtc.c ****  *
 240:../asf/sam/drivers/rtc/rtc.c ****  * \param p_rtc Pointer to an RTC instance.
 241:../asf/sam/drivers/rtc/rtc.c ****  * \param ul_hour_flag 1 for setting, 0 for not setting.
 242:../asf/sam/drivers/rtc/rtc.c ****  * \param ul_hour Alarm hour value, 24-hour mode.
 243:../asf/sam/drivers/rtc/rtc.c ****  * \param ul_minute_flag 1 for setting, 0 for not setting.
 244:../asf/sam/drivers/rtc/rtc.c ****  * \param ul_minute Alarm minute value.
 245:../asf/sam/drivers/rtc/rtc.c ****  * \param ul_second_flag 1 for setting, 0 for not setting.
 246:../asf/sam/drivers/rtc/rtc.c ****  * \param ul_second Alarm second value.
 247:../asf/sam/drivers/rtc/rtc.c ****  *
 248:../asf/sam/drivers/rtc/rtc.c ****  * \return 0 for OK, else invalid setting.
 249:../asf/sam/drivers/rtc/rtc.c ****  */
 250:../asf/sam/drivers/rtc/rtc.c **** uint32_t rtc_set_time_alarm(Rtc *p_rtc,
 251:../asf/sam/drivers/rtc/rtc.c **** 		uint32_t ul_hour_flag, uint32_t ul_hour,
 252:../asf/sam/drivers/rtc/rtc.c **** 		uint32_t ul_minute_flag, uint32_t ul_minute,
 253:../asf/sam/drivers/rtc/rtc.c **** 		uint32_t ul_second_flag, uint32_t ul_second)
 254:../asf/sam/drivers/rtc/rtc.c **** {
ARM GAS  /tmp/ccmZuGH1.s 			page 12


 361              		.loc 1 254 0
 362              		.cfi_startproc
 363              		@ args = 12, pretend = 0, frame = 0
 364              		@ frame_needed = 0, uses_anonymous_args = 0
 365              	.LVL30:
 366 0000 F0B5     		push	{r4, r5, r6, r7, lr}
 367              		.cfi_def_cfa_offset 20
 368              		.cfi_offset 4, -20
 369              		.cfi_offset 5, -16
 370              		.cfi_offset 6, -12
 371              		.cfi_offset 7, -8
 372              		.cfi_offset 14, -4
 373              		.loc 1 254 0
 374 0002 05AC     		add	r4, sp, #20
 375              	.LVL31:
 376 0004 70CC     		ldm	r4, {r4, r5, r6}
 377              	.LVL32:
 255:../asf/sam/drivers/rtc/rtc.c **** 	uint32_t ul_alarm = 0;
 256:../asf/sam/drivers/rtc/rtc.c **** 
 257:../asf/sam/drivers/rtc/rtc.c **** 	/* Hour alarm setting */
 258:../asf/sam/drivers/rtc/rtc.c **** 	if (ul_hour_flag) {
 378              		.loc 1 258 0
 379 0006 A1B1     		cbz	r1, .L48
 259:../asf/sam/drivers/rtc/rtc.c **** 		/* If 12-hour mode, set AMPM bit */
 260:../asf/sam/drivers/rtc/rtc.c **** 		if ((p_rtc->RTC_MR & RTC_MR_HRMOD) == RTC_MR_HRMOD) {
 261:../asf/sam/drivers/rtc/rtc.c **** 			if (ul_hour > 12) {
 380              		.loc 1 261 0
 381 0008 0C2A     		cmp	r2, #12
 260:../asf/sam/drivers/rtc/rtc.c **** 			if (ul_hour > 12) {
 382              		.loc 1 260 0
 383 000a 4168     		ldr	r1, [r0, #4]
 384              	.LVL33:
 385              		.loc 1 261 0
 386 000c 37D9     		bls	.L52
 387 000e C907     		lsls	r1, r1, #31
 388 0010 35D5     		bpl	.L52
 262:../asf/sam/drivers/rtc/rtc.c **** 				ul_hour -= 12;
 389              		.loc 1 262 0
 390 0012 0C3A     		subs	r2, r2, #12
 391              	.LVL34:
 263:../asf/sam/drivers/rtc/rtc.c **** 				ul_alarm |= RTC_TIMR_AMPM;
 392              		.loc 1 263 0
 393 0014 4FF4800E 		mov	lr, #4194304
 394              	.LVL35:
 395              	.L49:
 264:../asf/sam/drivers/rtc/rtc.c **** 			}
 265:../asf/sam/drivers/rtc/rtc.c **** 		}
 266:../asf/sam/drivers/rtc/rtc.c **** 
 267:../asf/sam/drivers/rtc/rtc.c **** 		ul_alarm |= ((ul_hour / BCD_FACTOR) << (RTC_TIMR_HOUR_Pos + BCD_SHIFT)) |
 396              		.loc 1 267 0
 397 0018 1A4F     		ldr	r7, .L69
 398 001a A7FB0217 		umull	r1, r7, r7, r2
 399 001e FF08     		lsrs	r7, r7, #3
 268:../asf/sam/drivers/rtc/rtc.c **** 				((ul_hour % BCD_FACTOR) << RTC_TIMR_HOUR_Pos);
 400              		.loc 1 268 0
 401 0020 07EB8701 		add	r1, r7, r7, lsl #2
 402 0024 A2EB4102 		sub	r2, r2, r1, lsl #1
ARM GAS  /tmp/ccmZuGH1.s 			page 13


 403              	.LVL36:
 404 0028 1104     		lsls	r1, r2, #16
 267:../asf/sam/drivers/rtc/rtc.c **** 				((ul_hour % BCD_FACTOR) << RTC_TIMR_HOUR_Pos);
 405              		.loc 1 267 0
 406 002a 41EA0751 		orr	r1, r1, r7, lsl #20
 407 002e 41EA0E01 		orr	r1, r1, lr
 408              	.LVL37:
 409              	.L48:
 269:../asf/sam/drivers/rtc/rtc.c **** 	}
 270:../asf/sam/drivers/rtc/rtc.c **** 
 271:../asf/sam/drivers/rtc/rtc.c **** 	/* Minute alarm setting */
 272:../asf/sam/drivers/rtc/rtc.c **** 	if (ul_minute_flag) {
 410              		.loc 1 272 0
 411 0032 5BB1     		cbz	r3, .L50
 273:../asf/sam/drivers/rtc/rtc.c **** 		ul_alarm |= ((ul_minute / BCD_FACTOR) << (RTC_TIMR_MIN_Pos + BCD_SHIFT)) |
 412              		.loc 1 273 0
 413 0034 134B     		ldr	r3, .L69
 414              	.LVL38:
 415 0036 A3FB0423 		umull	r2, r3, r3, r4
 416 003a DB08     		lsrs	r3, r3, #3
 274:../asf/sam/drivers/rtc/rtc.c **** 				((ul_minute % BCD_FACTOR) << RTC_TIMR_MIN_Pos);
 417              		.loc 1 274 0
 418 003c 03EB8302 		add	r2, r3, r3, lsl #2
 419 0040 A4EB4204 		sub	r4, r4, r2, lsl #1
 420 0044 2402     		lsls	r4, r4, #8
 273:../asf/sam/drivers/rtc/rtc.c **** 		ul_alarm |= ((ul_minute / BCD_FACTOR) << (RTC_TIMR_MIN_Pos + BCD_SHIFT)) |
 421              		.loc 1 273 0
 422 0046 44EA0334 		orr	r4, r4, r3, lsl #12
 423 004a 2143     		orrs	r1, r1, r4
 424              	.LVL39:
 425              	.L50:
 275:../asf/sam/drivers/rtc/rtc.c **** 	}
 276:../asf/sam/drivers/rtc/rtc.c **** 
 277:../asf/sam/drivers/rtc/rtc.c **** 	/* Second alarm setting */
 278:../asf/sam/drivers/rtc/rtc.c **** 	if (ul_second_flag) {
 426              		.loc 1 278 0
 427 004c 55B1     		cbz	r5, .L51
 279:../asf/sam/drivers/rtc/rtc.c **** 		ul_alarm |= ((ul_second / BCD_FACTOR) << (RTC_TIMR_SEC_Pos + BCD_SHIFT)) |
 428              		.loc 1 279 0
 429 004e 0D4B     		ldr	r3, .L69
 430 0050 A3FB0623 		umull	r2, r3, r3, r6
 431 0054 DB08     		lsrs	r3, r3, #3
 280:../asf/sam/drivers/rtc/rtc.c **** 				((ul_second % BCD_FACTOR) << RTC_TIMR_SEC_Pos);
 432              		.loc 1 280 0
 433 0056 03EB8302 		add	r2, r3, r3, lsl #2
 434 005a A6EB4206 		sub	r6, r6, r2, lsl #1
 279:../asf/sam/drivers/rtc/rtc.c **** 		ul_alarm |= ((ul_second / BCD_FACTOR) << (RTC_TIMR_SEC_Pos + BCD_SHIFT)) |
 435              		.loc 1 279 0
 436 005e 46EA0313 		orr	r3, r6, r3, lsl #4
 437 0062 1943     		orrs	r1, r1, r3
 438              	.LVL40:
 439              	.L51:
 281:../asf/sam/drivers/rtc/rtc.c **** 	}
 282:../asf/sam/drivers/rtc/rtc.c **** 
 283:../asf/sam/drivers/rtc/rtc.c **** 	p_rtc->RTC_TIMALR &= ~(RTC_TIMALR_SECEN | RTC_TIMALR_MINEN | RTC_TIMALR_HOUREN);
 440              		.loc 1 283 0
 441 0064 0469     		ldr	r4, [r0, #16]
ARM GAS  /tmp/ccmZuGH1.s 			page 14


 442 0066 084A     		ldr	r2, .L69+4
 284:../asf/sam/drivers/rtc/rtc.c **** 	p_rtc->RTC_TIMALR = ul_alarm;
 285:../asf/sam/drivers/rtc/rtc.c **** 	p_rtc->RTC_TIMALR |= (RTC_TIMALR_SECEN | RTC_TIMALR_MINEN | RTC_TIMALR_HOUREN);
 443              		.loc 1 285 0
 444 0068 084B     		ldr	r3, .L69+8
 283:../asf/sam/drivers/rtc/rtc.c **** 	p_rtc->RTC_TIMALR = ul_alarm;
 445              		.loc 1 283 0
 446 006a 2240     		ands	r2, r2, r4
 447 006c 0261     		str	r2, [r0, #16]
 284:../asf/sam/drivers/rtc/rtc.c **** 	p_rtc->RTC_TIMALR = ul_alarm;
 448              		.loc 1 284 0
 449 006e 0161     		str	r1, [r0, #16]
 450              		.loc 1 285 0
 451 0070 0269     		ldr	r2, [r0, #16]
 452 0072 1343     		orrs	r3, r3, r2
 453 0074 0361     		str	r3, [r0, #16]
 286:../asf/sam/drivers/rtc/rtc.c **** 
 287:../asf/sam/drivers/rtc/rtc.c **** 	return (p_rtc->RTC_VER & RTC_VER_NVTIMALR);
 454              		.loc 1 287 0
 455 0076 C06A     		ldr	r0, [r0, #44]
 456              	.LVL41:
 288:../asf/sam/drivers/rtc/rtc.c **** }
 457              		.loc 1 288 0
 458 0078 00F00400 		and	r0, r0, #4
 459 007c F0BD     		pop	{r4, r5, r6, r7, pc}
 460              	.LVL42:
 461              	.L52:
 255:../asf/sam/drivers/rtc/rtc.c **** 
 462              		.loc 1 255 0
 463 007e 4FF0000E 		mov	lr, #0
 464 0082 C9E7     		b	.L49
 465              	.L70:
 466              		.align	2
 467              	.L69:
 468 0084 CDCCCCCC 		.word	-858993459
 469 0088 7F7F7FFF 		.word	-8421505
 470 008c 80808000 		.word	8421504
 471              		.cfi_endproc
 472              	.LFE149:
 473              		.size	rtc_set_time_alarm, .-rtc_set_time_alarm
 474              		.section	.text.rtc_get_date,"ax",%progbits
 475              		.align	1
 476              		.p2align 2,,3
 477              		.global	rtc_get_date
 478              		.syntax unified
 479              		.thumb
 480              		.thumb_func
 481              		.fpu fpv5-d16
 482              		.type	rtc_get_date, %function
 483              	rtc_get_date:
 484              	.LFB150:
 289:../asf/sam/drivers/rtc/rtc.c **** 
 290:../asf/sam/drivers/rtc/rtc.c **** /**
 291:../asf/sam/drivers/rtc/rtc.c ****  * \brief Get the RTC date value.
 292:../asf/sam/drivers/rtc/rtc.c ****  *
 293:../asf/sam/drivers/rtc/rtc.c ****  * \param p_rtc Pointer to an RTC instance.
 294:../asf/sam/drivers/rtc/rtc.c ****  * \param pul_year Current year.
ARM GAS  /tmp/ccmZuGH1.s 			page 15


 295:../asf/sam/drivers/rtc/rtc.c ****  * \param pul_month Current month.
 296:../asf/sam/drivers/rtc/rtc.c ****  * \param pul_day Current day.
 297:../asf/sam/drivers/rtc/rtc.c ****  * \param pul_week Current day in current week.
 298:../asf/sam/drivers/rtc/rtc.c ****  */
 299:../asf/sam/drivers/rtc/rtc.c **** void rtc_get_date(Rtc *p_rtc, uint32_t *pul_year, uint32_t *pul_month,
 300:../asf/sam/drivers/rtc/rtc.c **** 		uint32_t *pul_day, uint32_t *pul_week)
 301:../asf/sam/drivers/rtc/rtc.c **** {
 485              		.loc 1 301 0
 486              		.cfi_startproc
 487              		@ args = 4, pretend = 0, frame = 0
 488              		@ frame_needed = 0, uses_anonymous_args = 0
 489              	.LVL43:
 490 0000 F0B5     		push	{r4, r5, r6, r7, lr}
 491              		.cfi_def_cfa_offset 20
 492              		.cfi_offset 4, -20
 493              		.cfi_offset 5, -16
 494              		.cfi_offset 6, -12
 495              		.cfi_offset 7, -8
 496              		.cfi_offset 14, -4
 302:../asf/sam/drivers/rtc/rtc.c **** 	uint32_t ul_date;
 303:../asf/sam/drivers/rtc/rtc.c **** 	uint32_t ul_cent;
 304:../asf/sam/drivers/rtc/rtc.c **** 	uint32_t ul_temp;
 305:../asf/sam/drivers/rtc/rtc.c **** 
 306:../asf/sam/drivers/rtc/rtc.c **** 	/* Get the current date (multiple reads are necessary to insure a stable value). */
 307:../asf/sam/drivers/rtc/rtc.c **** 	ul_date = p_rtc->RTC_CALR;
 497              		.loc 1 307 0
 498 0002 C568     		ldr	r5, [r0, #12]
 499              	.LVL44:
 308:../asf/sam/drivers/rtc/rtc.c **** 	while (ul_date != p_rtc->RTC_CALR) {
 500              		.loc 1 308 0
 501 0004 C468     		ldr	r4, [r0, #12]
 301:../asf/sam/drivers/rtc/rtc.c **** 	uint32_t ul_date;
 502              		.loc 1 301 0
 503 0006 059E     		ldr	r6, [sp, #20]
 504              		.loc 1 308 0
 505 0008 A542     		cmp	r5, r4
 506 000a 03D0     		beq	.L72
 507              	.L86:
 309:../asf/sam/drivers/rtc/rtc.c **** 		ul_date = p_rtc->RTC_CALR;
 508              		.loc 1 309 0
 509 000c C568     		ldr	r5, [r0, #12]
 510              	.LVL45:
 308:../asf/sam/drivers/rtc/rtc.c **** 	while (ul_date != p_rtc->RTC_CALR) {
 511              		.loc 1 308 0
 512 000e C468     		ldr	r4, [r0, #12]
 513 0010 AC42     		cmp	r4, r5
 514 0012 FBD1     		bne	.L86
 515              	.LVL46:
 516              	.L72:
 310:../asf/sam/drivers/rtc/rtc.c **** 	}
 311:../asf/sam/drivers/rtc/rtc.c **** 
 312:../asf/sam/drivers/rtc/rtc.c **** 	/* Retrieve year */
 313:../asf/sam/drivers/rtc/rtc.c **** 	if (pul_year) {
 517              		.loc 1 313 0
 518 0014 A1B1     		cbz	r1, .L74
 519              	.LVL47:
 314:../asf/sam/drivers/rtc/rtc.c **** 		ul_temp = (ul_date & RTC_CALR_CENT_Msk) >> RTC_CALR_CENT_Pos;
ARM GAS  /tmp/ccmZuGH1.s 			page 16


 315:../asf/sam/drivers/rtc/rtc.c **** 		ul_cent = (ul_temp >> BCD_SHIFT) * BCD_FACTOR + (ul_temp & BCD_MASK);
 316:../asf/sam/drivers/rtc/rtc.c **** 		ul_temp = (ul_date & RTC_CALR_YEAR_Msk) >> RTC_CALR_YEAR_Pos;
 317:../asf/sam/drivers/rtc/rtc.c **** 		*pul_year = (ul_cent * BCD_FACTOR * BCD_FACTOR) +
 318:../asf/sam/drivers/rtc/rtc.c **** 				(ul_temp >> BCD_SHIFT) * BCD_FACTOR + (ul_temp & BCD_MASK);
 520              		.loc 1 318 0
 521 0016 C4F30337 		ubfx	r7, r4, #12, #4
 315:../asf/sam/drivers/rtc/rtc.c **** 		ul_temp = (ul_date & RTC_CALR_YEAR_Msk) >> RTC_CALR_YEAR_Pos;
 522              		.loc 1 315 0
 523 001a C4F30215 		ubfx	r5, r4, #4, #3
 524              		.loc 1 318 0
 525 001e C4F3032E 		ubfx	lr, r4, #8, #4
 315:../asf/sam/drivers/rtc/rtc.c **** 		ul_temp = (ul_date & RTC_CALR_YEAR_Msk) >> RTC_CALR_YEAR_Pos;
 526              		.loc 1 315 0
 527 0022 04F00F00 		and	r0, r4, #15
 528              	.LVL48:
 529              		.loc 1 318 0
 530 0026 07EB8707 		add	r7, r7, r7, lsl #2
 315:../asf/sam/drivers/rtc/rtc.c **** 		ul_temp = (ul_date & RTC_CALR_YEAR_Msk) >> RTC_CALR_YEAR_Pos;
 531              		.loc 1 315 0
 532 002a 05EB8505 		add	r5, r5, r5, lsl #2
 533              		.loc 1 318 0
 534 002e 0EEB4707 		add	r7, lr, r7, lsl #1
 317:../asf/sam/drivers/rtc/rtc.c **** 				(ul_temp >> BCD_SHIFT) * BCD_FACTOR + (ul_temp & BCD_MASK);
 535              		.loc 1 317 0
 536 0032 4FF0640E 		mov	lr, #100
 315:../asf/sam/drivers/rtc/rtc.c **** 		ul_temp = (ul_date & RTC_CALR_YEAR_Msk) >> RTC_CALR_YEAR_Pos;
 537              		.loc 1 315 0
 538 0036 00EB4500 		add	r0, r0, r5, lsl #1
 539              		.loc 1 318 0
 540 003a 0EFB0070 		mla	r0, lr, r0, r7
 317:../asf/sam/drivers/rtc/rtc.c **** 				(ul_temp >> BCD_SHIFT) * BCD_FACTOR + (ul_temp & BCD_MASK);
 541              		.loc 1 317 0
 542 003e 0860     		str	r0, [r1]
 543              	.LVL49:
 544              	.L74:
 319:../asf/sam/drivers/rtc/rtc.c **** 	}
 320:../asf/sam/drivers/rtc/rtc.c **** 
 321:../asf/sam/drivers/rtc/rtc.c **** 	/* Retrieve month */
 322:../asf/sam/drivers/rtc/rtc.c **** 	if (pul_month) {
 545              		.loc 1 322 0
 546 0040 42B1     		cbz	r2, .L75
 547              	.LVL50:
 323:../asf/sam/drivers/rtc/rtc.c **** 		ul_temp = (ul_date & RTC_CALR_MONTH_Msk) >> RTC_CALR_MONTH_Pos;
 324:../asf/sam/drivers/rtc/rtc.c **** 		*pul_month = (ul_temp >> BCD_SHIFT) * BCD_FACTOR + (ul_temp & BCD_MASK);
 548              		.loc 1 324 0
 549 0042 C4F30055 		ubfx	r5, r4, #20, #1
 550 0046 C4F30341 		ubfx	r1, r4, #16, #4
 551              	.LVL51:
 552 004a A800     		lsls	r0, r5, #2
 553 004c 2844     		add	r0, r0, r5
 554 004e 01EB4001 		add	r1, r1, r0, lsl #1
 555 0052 1160     		str	r1, [r2]
 556              	.LVL52:
 557              	.L75:
 325:../asf/sam/drivers/rtc/rtc.c **** 	}
 326:../asf/sam/drivers/rtc/rtc.c **** 
 327:../asf/sam/drivers/rtc/rtc.c **** 	/* Retrieve day */
ARM GAS  /tmp/ccmZuGH1.s 			page 17


 328:../asf/sam/drivers/rtc/rtc.c **** 	if (pul_day) {
 558              		.loc 1 328 0
 559 0054 43B1     		cbz	r3, .L76
 560              	.LVL53:
 329:../asf/sam/drivers/rtc/rtc.c **** 		ul_temp = (ul_date & RTC_CALR_DATE_Msk) >> RTC_CALR_DATE_Pos;
 330:../asf/sam/drivers/rtc/rtc.c **** 		*pul_day = (ul_temp >> BCD_SHIFT) * BCD_FACTOR + (ul_temp & BCD_MASK);
 561              		.loc 1 330 0
 562 0056 C4F30172 		ubfx	r2, r4, #28, #2
 563              	.LVL54:
 564 005a C4F30361 		ubfx	r1, r4, #24, #4
 565 005e 02EB8202 		add	r2, r2, r2, lsl #2
 566 0062 01EB4202 		add	r2, r1, r2, lsl #1
 567 0066 1A60     		str	r2, [r3]
 568              	.LVL55:
 569              	.L76:
 331:../asf/sam/drivers/rtc/rtc.c **** 	}
 332:../asf/sam/drivers/rtc/rtc.c **** 
 333:../asf/sam/drivers/rtc/rtc.c **** 	/* Retrieve week */
 334:../asf/sam/drivers/rtc/rtc.c **** 	if (pul_week) {
 570              		.loc 1 334 0
 571 0068 16B1     		cbz	r6, .L71
 335:../asf/sam/drivers/rtc/rtc.c **** 		*pul_week = ((ul_date & RTC_CALR_DAY_Msk) >> RTC_CALR_DAY_Pos);
 572              		.loc 1 335 0
 573 006a C4F34254 		ubfx	r4, r4, #21, #3
 574 006e 3460     		str	r4, [r6]
 575              	.L71:
 576 0070 F0BD     		pop	{r4, r5, r6, r7, pc}
 577              		.cfi_endproc
 578              	.LFE150:
 579              		.size	rtc_get_date, .-rtc_get_date
 580 0072 00BF     		.section	.text.rtc_set_date,"ax",%progbits
 581              		.align	1
 582              		.p2align 2,,3
 583              		.global	rtc_set_date
 584              		.syntax unified
 585              		.thumb
 586              		.thumb_func
 587              		.fpu fpv5-d16
 588              		.type	rtc_set_date, %function
 589              	rtc_set_date:
 590              	.LFB151:
 336:../asf/sam/drivers/rtc/rtc.c **** 	}
 337:../asf/sam/drivers/rtc/rtc.c **** }
 338:../asf/sam/drivers/rtc/rtc.c **** 
 339:../asf/sam/drivers/rtc/rtc.c **** /**
 340:../asf/sam/drivers/rtc/rtc.c ****  * \brief Set the RTC date.
 341:../asf/sam/drivers/rtc/rtc.c ****  *
 342:../asf/sam/drivers/rtc/rtc.c ****  * \param p_rtc Pointer to an RTC instance.
 343:../asf/sam/drivers/rtc/rtc.c ****  * \param ul_year Current year.
 344:../asf/sam/drivers/rtc/rtc.c ****  * \param ul_month Current month.
 345:../asf/sam/drivers/rtc/rtc.c ****  * \param ul_day Current day.
 346:../asf/sam/drivers/rtc/rtc.c ****  * \param ul_week Current day in current week.
 347:../asf/sam/drivers/rtc/rtc.c ****  *
 348:../asf/sam/drivers/rtc/rtc.c ****  * \return 0 for OK, else invalid setting.
 349:../asf/sam/drivers/rtc/rtc.c ****  */
 350:../asf/sam/drivers/rtc/rtc.c **** uint32_t rtc_set_date(Rtc *p_rtc, uint32_t ul_year, uint32_t ul_month,
 351:../asf/sam/drivers/rtc/rtc.c **** 		uint32_t ul_day, uint32_t ul_week)
ARM GAS  /tmp/ccmZuGH1.s 			page 18


 352:../asf/sam/drivers/rtc/rtc.c **** {
 591              		.loc 1 352 0
 592              		.cfi_startproc
 593              		@ args = 4, pretend = 0, frame = 0
 594              		@ frame_needed = 0, uses_anonymous_args = 0
 595              	.LVL56:
 596 0000 2DE9F041 		push	{r4, r5, r6, r7, r8, lr}
 597              		.cfi_def_cfa_offset 24
 598              		.cfi_offset 4, -24
 599              		.cfi_offset 5, -20
 600              		.cfi_offset 6, -16
 601              		.cfi_offset 7, -12
 602              		.cfi_offset 8, -8
 603              		.cfi_offset 14, -4
 353:../asf/sam/drivers/rtc/rtc.c **** 	uint32_t ul_date = 0;
 354:../asf/sam/drivers/rtc/rtc.c **** 
 355:../asf/sam/drivers/rtc/rtc.c **** 	/* Cent */
 356:../asf/sam/drivers/rtc/rtc.c **** 	ul_date |= ((ul_year / BCD_FACTOR / BCD_FACTOR / BCD_FACTOR) <<
 357:../asf/sam/drivers/rtc/rtc.c **** 			(RTC_CALR_CENT_Pos + BCD_SHIFT) |
 358:../asf/sam/drivers/rtc/rtc.c **** 			((ul_year / BCD_FACTOR / BCD_FACTOR) % BCD_FACTOR) <<  RTC_CALR_CENT_Pos);
 359:../asf/sam/drivers/rtc/rtc.c **** 
 360:../asf/sam/drivers/rtc/rtc.c **** 	/* Year */
 361:../asf/sam/drivers/rtc/rtc.c **** 	ul_date |= (((ul_year / BCD_FACTOR) % BCD_FACTOR) <<
 362:../asf/sam/drivers/rtc/rtc.c **** 			(RTC_CALR_YEAR_Pos + BCD_SHIFT)) |
 363:../asf/sam/drivers/rtc/rtc.c **** 			((ul_year % BCD_FACTOR) << RTC_CALR_YEAR_Pos);
 364:../asf/sam/drivers/rtc/rtc.c **** 
 365:../asf/sam/drivers/rtc/rtc.c **** 	/* Month */
 366:../asf/sam/drivers/rtc/rtc.c **** 	ul_date |= ((ul_month / BCD_FACTOR) << (RTC_CALR_MONTH_Pos + BCD_SHIFT)) |
 367:../asf/sam/drivers/rtc/rtc.c **** 			((ul_month % BCD_FACTOR) << RTC_CALR_MONTH_Pos);
 368:../asf/sam/drivers/rtc/rtc.c **** 
 369:../asf/sam/drivers/rtc/rtc.c **** 	/* Week */
 370:../asf/sam/drivers/rtc/rtc.c **** 	ul_date |= (ul_week << RTC_CALR_DAY_Pos);
 371:../asf/sam/drivers/rtc/rtc.c **** 
 372:../asf/sam/drivers/rtc/rtc.c **** 	/* Day */
 373:../asf/sam/drivers/rtc/rtc.c **** 	ul_date |= ((ul_day / BCD_FACTOR) << (RTC_CALR_DATE_Pos + BCD_SHIFT)) |
 604              		.loc 1 373 0
 605 0004 2A4D     		ldr	r5, .L101
 358:../asf/sam/drivers/rtc/rtc.c **** 
 606              		.loc 1 358 0
 607 0006 2B4E     		ldr	r6, .L101+4
 608              		.loc 1 373 0
 609 0008 A5FB0347 		umull	r4, r7, r5, r3
 352:../asf/sam/drivers/rtc/rtc.c **** 	uint32_t ul_date = 0;
 610              		.loc 1 352 0
 611 000c 069C     		ldr	r4, [sp, #24]
 612              	.LVL57:
 358:../asf/sam/drivers/rtc/rtc.c **** 
 613              		.loc 1 358 0
 614 000e A6FB01E6 		umull	lr, r6, r6, r1
 615              		.loc 1 373 0
 616 0012 FF08     		lsrs	r7, r7, #3
 366:../asf/sam/drivers/rtc/rtc.c **** 			((ul_month % BCD_FACTOR) << RTC_CALR_MONTH_Pos);
 617              		.loc 1 366 0
 618 0014 A5FB028E 		umull	r8, lr, r5, r2
 370:../asf/sam/drivers/rtc/rtc.c **** 
 619              		.loc 1 370 0
 620 0018 6405     		lsls	r4, r4, #21
ARM GAS  /tmp/ccmZuGH1.s 			page 19


 621              	.LVL58:
 374:../asf/sam/drivers/rtc/rtc.c **** 			((ul_day % BCD_FACTOR) << RTC_CALR_DATE_Pos);
 622              		.loc 1 374 0
 623 001a 07EB870C 		add	ip, r7, r7, lsl #2
 373:../asf/sam/drivers/rtc/rtc.c **** 			((ul_day % BCD_FACTOR) << RTC_CALR_DATE_Pos);
 624              		.loc 1 373 0
 625 001e 44EA0774 		orr	r4, r4, r7, lsl #28
 366:../asf/sam/drivers/rtc/rtc.c **** 			((ul_month % BCD_FACTOR) << RTC_CALR_MONTH_Pos);
 626              		.loc 1 366 0
 627 0022 4FEADE0E 		lsr	lr, lr, #3
 628              		.loc 1 374 0
 629 0026 A3EB4C03 		sub	r3, r3, ip, lsl #1
 630              	.LVL59:
 358:../asf/sam/drivers/rtc/rtc.c **** 
 631              		.loc 1 358 0
 632 002a 7609     		lsrs	r6, r6, #5
 367:../asf/sam/drivers/rtc/rtc.c **** 
 633              		.loc 1 367 0
 634 002c 0EEB8E0C 		add	ip, lr, lr, lsl #2
 373:../asf/sam/drivers/rtc/rtc.c **** 			((ul_day % BCD_FACTOR) << RTC_CALR_DATE_Pos);
 635              		.loc 1 373 0
 636 0030 44EA0363 		orr	r3, r4, r3, lsl #24
 356:../asf/sam/drivers/rtc/rtc.c **** 			(RTC_CALR_CENT_Pos + BCD_SHIFT) |
 637              		.loc 1 356 0
 638 0034 204C     		ldr	r4, .L101+8
 358:../asf/sam/drivers/rtc/rtc.c **** 
 639              		.loc 1 358 0
 640 0036 A5FB0687 		umull	r8, r7, r5, r6
 367:../asf/sam/drivers/rtc/rtc.c **** 
 641              		.loc 1 367 0
 642 003a A2EB4C02 		sub	r2, r2, ip, lsl #1
 643              	.LVL60:
 373:../asf/sam/drivers/rtc/rtc.c **** 			((ul_day % BCD_FACTOR) << RTC_CALR_DATE_Pos);
 644              		.loc 1 373 0
 645 003e 43EA0E53 		orr	r3, r3, lr, lsl #20
 356:../asf/sam/drivers/rtc/rtc.c **** 			(RTC_CALR_CENT_Pos + BCD_SHIFT) |
 646              		.loc 1 356 0
 647 0042 A4FB014E 		umull	r4, lr, r4, r1
 363:../asf/sam/drivers/rtc/rtc.c **** 
 648              		.loc 1 363 0
 649 0046 A5FB01C4 		umull	ip, r4, r5, r1
 358:../asf/sam/drivers/rtc/rtc.c **** 
 650              		.loc 1 358 0
 651 004a FF08     		lsrs	r7, r7, #3
 373:../asf/sam/drivers/rtc/rtc.c **** 			((ul_day % BCD_FACTOR) << RTC_CALR_DATE_Pos);
 652              		.loc 1 373 0
 653 004c 43EA0242 		orr	r2, r3, r2, lsl #16
 363:../asf/sam/drivers/rtc/rtc.c **** 
 654              		.loc 1 363 0
 655 0050 E408     		lsrs	r4, r4, #3
 356:../asf/sam/drivers/rtc/rtc.c **** 			(RTC_CALR_CENT_Pos + BCD_SHIFT) |
 656              		.loc 1 356 0
 657 0052 4FEA9E13 		lsr	r3, lr, #6
 358:../asf/sam/drivers/rtc/rtc.c **** 
 658              		.loc 1 358 0
 659 0056 07EB8707 		add	r7, r7, r7, lsl #2
 361:../asf/sam/drivers/rtc/rtc.c **** 			(RTC_CALR_YEAR_Pos + BCD_SHIFT)) |
ARM GAS  /tmp/ccmZuGH1.s 			page 20


 660              		.loc 1 361 0
 661 005a A5FB04E5 		umull	lr, r5, r5, r4
 373:../asf/sam/drivers/rtc/rtc.c **** 			((ul_day % BCD_FACTOR) << RTC_CALR_DATE_Pos);
 662              		.loc 1 373 0
 663 005e 42EA0312 		orr	r2, r2, r3, lsl #4
 358:../asf/sam/drivers/rtc/rtc.c **** 
 664              		.loc 1 358 0
 665 0062 A6EB4707 		sub	r7, r6, r7, lsl #1
 361:../asf/sam/drivers/rtc/rtc.c **** 			(RTC_CALR_YEAR_Pos + BCD_SHIFT)) |
 666              		.loc 1 361 0
 667 0066 ED08     		lsrs	r5, r5, #3
 363:../asf/sam/drivers/rtc/rtc.c **** 
 668              		.loc 1 363 0
 669 0068 04EB8403 		add	r3, r4, r4, lsl #2
 373:../asf/sam/drivers/rtc/rtc.c **** 			((ul_day % BCD_FACTOR) << RTC_CALR_DATE_Pos);
 670              		.loc 1 373 0
 671 006c 3A43     		orrs	r2, r2, r7
 361:../asf/sam/drivers/rtc/rtc.c **** 			(RTC_CALR_YEAR_Pos + BCD_SHIFT)) |
 672              		.loc 1 361 0
 673 006e 05EB8505 		add	r5, r5, r5, lsl #2
 363:../asf/sam/drivers/rtc/rtc.c **** 
 674              		.loc 1 363 0
 675 0072 A1EB4301 		sub	r1, r1, r3, lsl #1
 676              	.LVL61:
 361:../asf/sam/drivers/rtc/rtc.c **** 			(RTC_CALR_YEAR_Pos + BCD_SHIFT)) |
 677              		.loc 1 361 0
 678 0076 A4EB4505 		sub	r5, r4, r5, lsl #1
 373:../asf/sam/drivers/rtc/rtc.c **** 			((ul_day % BCD_FACTOR) << RTC_CALR_DATE_Pos);
 679              		.loc 1 373 0
 680 007a 42EA0122 		orr	r2, r2, r1, lsl #8
 681 007e 42EA0532 		orr	r2, r2, r5, lsl #12
 682              	.LVL62:
 683              	.L94:
 375:../asf/sam/drivers/rtc/rtc.c **** 
 376:../asf/sam/drivers/rtc/rtc.c **** 	/* Update calendar register. Check the spec for the flow. */
 377:../asf/sam/drivers/rtc/rtc.c **** 	while ((p_rtc->RTC_SR & RTC_SR_SEC) != RTC_SR_SEC);
 684              		.loc 1 377 0 discriminator 1
 685 0082 8369     		ldr	r3, [r0, #24]
 686 0084 5907     		lsls	r1, r3, #29
 687 0086 FCD5     		bpl	.L94
 378:../asf/sam/drivers/rtc/rtc.c **** 	p_rtc->RTC_CR |= RTC_CR_UPDCAL;
 688              		.loc 1 378 0
 689 0088 0368     		ldr	r3, [r0]
 690 008a 43F00203 		orr	r3, r3, #2
 691 008e 0360     		str	r3, [r0]
 692              	.L95:
 379:../asf/sam/drivers/rtc/rtc.c **** 	while ((p_rtc->RTC_SR & RTC_SR_ACKUPD) != RTC_SR_ACKUPD);
 693              		.loc 1 379 0 discriminator 1
 694 0090 8369     		ldr	r3, [r0, #24]
 695 0092 DB07     		lsls	r3, r3, #31
 696 0094 FCD5     		bpl	.L95
 380:../asf/sam/drivers/rtc/rtc.c **** 	p_rtc->RTC_SCCR = RTC_SCCR_ACKCLR;
 697              		.loc 1 380 0
 698 0096 0123     		movs	r3, #1
 699 0098 C361     		str	r3, [r0, #28]
 381:../asf/sam/drivers/rtc/rtc.c **** 	p_rtc->RTC_CALR = ul_date;
 700              		.loc 1 381 0
ARM GAS  /tmp/ccmZuGH1.s 			page 21


 701 009a C260     		str	r2, [r0, #12]
 382:../asf/sam/drivers/rtc/rtc.c **** 	p_rtc->RTC_CR &= (~RTC_CR_UPDCAL);
 702              		.loc 1 382 0
 703 009c 0368     		ldr	r3, [r0]
 704 009e 23F00203 		bic	r3, r3, #2
 705 00a2 0360     		str	r3, [r0]
 383:../asf/sam/drivers/rtc/rtc.c **** 
 384:../asf/sam/drivers/rtc/rtc.c **** 	return (p_rtc->RTC_VER & RTC_VER_NVCAL);
 706              		.loc 1 384 0
 707 00a4 C06A     		ldr	r0, [r0, #44]
 708              	.LVL63:
 385:../asf/sam/drivers/rtc/rtc.c **** }
 709              		.loc 1 385 0
 710 00a6 00F00200 		and	r0, r0, #2
 711 00aa BDE8F081 		pop	{r4, r5, r6, r7, r8, pc}
 712              	.LVL64:
 713              	.L102:
 714 00ae 00BF     		.align	2
 715              	.L101:
 716 00b0 CDCCCCCC 		.word	-858993459
 717 00b4 1F85EB51 		.word	1374389535
 718 00b8 D34D6210 		.word	274877907
 719              		.cfi_endproc
 720              	.LFE151:
 721              		.size	rtc_set_date, .-rtc_set_date
 722              		.section	.text.rtc_set_date_alarm,"ax",%progbits
 723              		.align	1
 724              		.p2align 2,,3
 725              		.global	rtc_set_date_alarm
 726              		.syntax unified
 727              		.thumb
 728              		.thumb_func
 729              		.fpu fpv5-d16
 730              		.type	rtc_set_date_alarm, %function
 731              	rtc_set_date_alarm:
 732              	.LFB152:
 386:../asf/sam/drivers/rtc/rtc.c **** 
 387:../asf/sam/drivers/rtc/rtc.c **** /**
 388:../asf/sam/drivers/rtc/rtc.c ****  * \brief Set the RTC alarm date value.
 389:../asf/sam/drivers/rtc/rtc.c ****  *
 390:../asf/sam/drivers/rtc/rtc.c ****  * \param p_rtc Pointer to an RTC instance.
 391:../asf/sam/drivers/rtc/rtc.c ****  * \param ul_month_flag 1 for setting, 0 for not setting.
 392:../asf/sam/drivers/rtc/rtc.c ****  * \param ul_month Alarm month value.
 393:../asf/sam/drivers/rtc/rtc.c ****  * \param ul_day_flag 1 for setting, 0 for not setting.
 394:../asf/sam/drivers/rtc/rtc.c ****  * \param ul_day Alarm day value.
 395:../asf/sam/drivers/rtc/rtc.c ****  *
 396:../asf/sam/drivers/rtc/rtc.c ****  * \return 0 for OK, else invalid setting.
 397:../asf/sam/drivers/rtc/rtc.c ****  */
 398:../asf/sam/drivers/rtc/rtc.c **** uint32_t rtc_set_date_alarm(Rtc *p_rtc,
 399:../asf/sam/drivers/rtc/rtc.c **** 		uint32_t ul_month_flag, uint32_t ul_month,
 400:../asf/sam/drivers/rtc/rtc.c **** 		uint32_t ul_day_flag, uint32_t ul_day)
 401:../asf/sam/drivers/rtc/rtc.c **** {
 733              		.loc 1 401 0
 734              		.cfi_startproc
 735              		@ args = 4, pretend = 0, frame = 0
 736              		@ frame_needed = 0, uses_anonymous_args = 0
 737              		@ link register save eliminated.
ARM GAS  /tmp/ccmZuGH1.s 			page 22


 738              	.LVL65:
 739 0000 30B4     		push	{r4, r5}
 740              		.cfi_def_cfa_offset 8
 741              		.cfi_offset 4, -8
 742              		.cfi_offset 5, -4
 743              		.loc 1 401 0
 744 0002 029C     		ldr	r4, [sp, #8]
 402:../asf/sam/drivers/rtc/rtc.c **** 	uint32_t ul_alarm = 0;
 403:../asf/sam/drivers/rtc/rtc.c **** 
 404:../asf/sam/drivers/rtc/rtc.c **** 	/* Month alarm setting */
 405:../asf/sam/drivers/rtc/rtc.c **** 	if (ul_month_flag) {
 745              		.loc 1 405 0
 746 0004 51B1     		cbz	r1, .L104
 406:../asf/sam/drivers/rtc/rtc.c **** 		ul_alarm |= ((ul_month / BCD_FACTOR) << (RTC_CALR_MONTH_Pos + BCD_SHIFT)) |
 747              		.loc 1 406 0
 748 0006 1349     		ldr	r1, .L113
 749              	.LVL66:
 750 0008 A1FB0251 		umull	r5, r1, r1, r2
 751 000c C908     		lsrs	r1, r1, #3
 407:../asf/sam/drivers/rtc/rtc.c **** 				((ul_month % BCD_FACTOR) << RTC_CALR_MONTH_Pos);
 752              		.loc 1 407 0
 753 000e 01EB8105 		add	r5, r1, r1, lsl #2
 754 0012 A2EB4502 		sub	r2, r2, r5, lsl #1
 755              	.LVL67:
 756 0016 1204     		lsls	r2, r2, #16
 406:../asf/sam/drivers/rtc/rtc.c **** 		ul_alarm |= ((ul_month / BCD_FACTOR) << (RTC_CALR_MONTH_Pos + BCD_SHIFT)) |
 757              		.loc 1 406 0
 758 0018 42EA0151 		orr	r1, r2, r1, lsl #20
 759              	.LVL68:
 760              	.L104:
 408:../asf/sam/drivers/rtc/rtc.c **** 	}
 409:../asf/sam/drivers/rtc/rtc.c **** 
 410:../asf/sam/drivers/rtc/rtc.c **** 	/* Day alarm setting */
 411:../asf/sam/drivers/rtc/rtc.c **** 	if (ul_day_flag) {
 761              		.loc 1 411 0
 762 001c 5BB1     		cbz	r3, .L105
 412:../asf/sam/drivers/rtc/rtc.c **** 		ul_alarm |= ((ul_day / BCD_FACTOR) << (RTC_CALR_DATE_Pos + BCD_SHIFT)) |
 763              		.loc 1 412 0
 764 001e 0D4A     		ldr	r2, .L113
 765 0020 A2FB0432 		umull	r3, r2, r2, r4
 766              	.LVL69:
 767 0024 D208     		lsrs	r2, r2, #3
 413:../asf/sam/drivers/rtc/rtc.c **** 				((ul_day % BCD_FACTOR) << RTC_CALR_DATE_Pos);
 768              		.loc 1 413 0
 769 0026 02EB8203 		add	r3, r2, r2, lsl #2
 770 002a A4EB4303 		sub	r3, r4, r3, lsl #1
 771 002e 1B06     		lsls	r3, r3, #24
 412:../asf/sam/drivers/rtc/rtc.c **** 		ul_alarm |= ((ul_day / BCD_FACTOR) << (RTC_CALR_DATE_Pos + BCD_SHIFT)) |
 772              		.loc 1 412 0
 773 0030 43EA0273 		orr	r3, r3, r2, lsl #28
 774 0034 1943     		orrs	r1, r1, r3
 775              	.LVL70:
 776              	.L105:
 414:../asf/sam/drivers/rtc/rtc.c **** 	}
 415:../asf/sam/drivers/rtc/rtc.c **** 
 416:../asf/sam/drivers/rtc/rtc.c **** 	/* Set alarm */
 417:../asf/sam/drivers/rtc/rtc.c **** 	p_rtc->RTC_CALALR &= ~(RTC_CALALR_MTHEN | RTC_CALALR_DATEEN);
ARM GAS  /tmp/ccmZuGH1.s 			page 23


 777              		.loc 1 417 0
 778 0036 4469     		ldr	r4, [r0, #20]
 779 0038 074A     		ldr	r2, .L113+4
 418:../asf/sam/drivers/rtc/rtc.c **** 	p_rtc->RTC_CALALR = ul_alarm;
 419:../asf/sam/drivers/rtc/rtc.c **** 	p_rtc->RTC_CALALR |= (RTC_CALALR_MTHEN | RTC_CALALR_DATEEN);
 780              		.loc 1 419 0
 781 003a 084B     		ldr	r3, .L113+8
 417:../asf/sam/drivers/rtc/rtc.c **** 	p_rtc->RTC_CALALR = ul_alarm;
 782              		.loc 1 417 0
 783 003c 2240     		ands	r2, r2, r4
 784 003e 4261     		str	r2, [r0, #20]
 418:../asf/sam/drivers/rtc/rtc.c **** 	p_rtc->RTC_CALALR = ul_alarm;
 785              		.loc 1 418 0
 786 0040 4161     		str	r1, [r0, #20]
 787              		.loc 1 419 0
 788 0042 4269     		ldr	r2, [r0, #20]
 789 0044 1343     		orrs	r3, r3, r2
 790 0046 4361     		str	r3, [r0, #20]
 420:../asf/sam/drivers/rtc/rtc.c **** 
 421:../asf/sam/drivers/rtc/rtc.c **** 	return (p_rtc->RTC_VER & RTC_VER_NVCALALR);
 791              		.loc 1 421 0
 792 0048 C06A     		ldr	r0, [r0, #44]
 793              	.LVL71:
 422:../asf/sam/drivers/rtc/rtc.c **** }
 794              		.loc 1 422 0
 795 004a 30BC     		pop	{r4, r5}
 796              		.cfi_restore 5
 797              		.cfi_restore 4
 798              		.cfi_def_cfa_offset 0
 799              	.LVL72:
 800 004c 00F00800 		and	r0, r0, #8
 801 0050 7047     		bx	lr
 802              	.L114:
 803 0052 00BF     		.align	2
 804              	.L113:
 805 0054 CDCCCCCC 		.word	-858993459
 806 0058 FFFF7F7F 		.word	2139095039
 807 005c 00008080 		.word	-2139095040
 808              		.cfi_endproc
 809              	.LFE152:
 810              		.size	rtc_set_date_alarm, .-rtc_set_date_alarm
 811              		.section	.text.rtc_clear_time_alarm,"ax",%progbits
 812              		.align	1
 813              		.p2align 2,,3
 814              		.global	rtc_clear_time_alarm
 815              		.syntax unified
 816              		.thumb
 817              		.thumb_func
 818              		.fpu fpv5-d16
 819              		.type	rtc_clear_time_alarm, %function
 820              	rtc_clear_time_alarm:
 821              	.LFB153:
 423:../asf/sam/drivers/rtc/rtc.c **** 
 424:../asf/sam/drivers/rtc/rtc.c **** /**
 425:../asf/sam/drivers/rtc/rtc.c ****  * \brief Clear the RTC time alarm setting.
 426:../asf/sam/drivers/rtc/rtc.c ****  *
 427:../asf/sam/drivers/rtc/rtc.c ****  * \param p_rtc Pointer to an RTC instance.
ARM GAS  /tmp/ccmZuGH1.s 			page 24


 428:../asf/sam/drivers/rtc/rtc.c ****  */
 429:../asf/sam/drivers/rtc/rtc.c **** void rtc_clear_time_alarm(Rtc *p_rtc)
 430:../asf/sam/drivers/rtc/rtc.c **** {
 822              		.loc 1 430 0
 823              		.cfi_startproc
 824              		@ args = 0, pretend = 0, frame = 0
 825              		@ frame_needed = 0, uses_anonymous_args = 0
 826              		@ link register save eliminated.
 827              	.LVL73:
 431:../asf/sam/drivers/rtc/rtc.c **** 	p_rtc->RTC_TIMALR = 0;
 828              		.loc 1 431 0
 829 0000 0023     		movs	r3, #0
 830 0002 0361     		str	r3, [r0, #16]
 831 0004 7047     		bx	lr
 832              		.cfi_endproc
 833              	.LFE153:
 834              		.size	rtc_clear_time_alarm, .-rtc_clear_time_alarm
 835 0006 00BF     		.section	.text.rtc_clear_date_alarm,"ax",%progbits
 836              		.align	1
 837              		.p2align 2,,3
 838              		.global	rtc_clear_date_alarm
 839              		.syntax unified
 840              		.thumb
 841              		.thumb_func
 842              		.fpu fpv5-d16
 843              		.type	rtc_clear_date_alarm, %function
 844              	rtc_clear_date_alarm:
 845              	.LFB154:
 432:../asf/sam/drivers/rtc/rtc.c **** }
 433:../asf/sam/drivers/rtc/rtc.c **** 
 434:../asf/sam/drivers/rtc/rtc.c **** /**
 435:../asf/sam/drivers/rtc/rtc.c ****  * \brief Clear the RTC date alarm setting.
 436:../asf/sam/drivers/rtc/rtc.c ****  *
 437:../asf/sam/drivers/rtc/rtc.c ****  * \param p_rtc Pointer to an RTC instance.
 438:../asf/sam/drivers/rtc/rtc.c ****  */
 439:../asf/sam/drivers/rtc/rtc.c **** void rtc_clear_date_alarm(Rtc *p_rtc)
 440:../asf/sam/drivers/rtc/rtc.c **** {
 846              		.loc 1 440 0
 847              		.cfi_startproc
 848              		@ args = 0, pretend = 0, frame = 0
 849              		@ frame_needed = 0, uses_anonymous_args = 0
 850              		@ link register save eliminated.
 851              	.LVL74:
 441:../asf/sam/drivers/rtc/rtc.c **** 	/* Need a valid value without enabling */
 442:../asf/sam/drivers/rtc/rtc.c **** 	p_rtc->RTC_CALALR = RTC_CALALR_MONTH(0x01) | RTC_CALALR_DATE(0x01);
 852              		.loc 1 442 0
 853 0000 014B     		ldr	r3, .L117
 854 0002 4361     		str	r3, [r0, #20]
 855 0004 7047     		bx	lr
 856              	.L118:
 857 0006 00BF     		.align	2
 858              	.L117:
 859 0008 00000101 		.word	16842752
 860              		.cfi_endproc
 861              	.LFE154:
 862              		.size	rtc_clear_date_alarm, .-rtc_clear_date_alarm
 863              		.section	.text.rtc_get_status,"ax",%progbits
ARM GAS  /tmp/ccmZuGH1.s 			page 25


 864              		.align	1
 865              		.p2align 2,,3
 866              		.global	rtc_get_status
 867              		.syntax unified
 868              		.thumb
 869              		.thumb_func
 870              		.fpu fpv5-d16
 871              		.type	rtc_get_status, %function
 872              	rtc_get_status:
 873              	.LFB155:
 443:../asf/sam/drivers/rtc/rtc.c **** }
 444:../asf/sam/drivers/rtc/rtc.c **** 
 445:../asf/sam/drivers/rtc/rtc.c **** /**
 446:../asf/sam/drivers/rtc/rtc.c ****  * \brief Get the RTC status.
 447:../asf/sam/drivers/rtc/rtc.c ****  *
 448:../asf/sam/drivers/rtc/rtc.c ****  * \param p_rtc Pointer to an RTC instance.
 449:../asf/sam/drivers/rtc/rtc.c ****  *
 450:../asf/sam/drivers/rtc/rtc.c ****  * \return Status of the RTC.
 451:../asf/sam/drivers/rtc/rtc.c ****  */
 452:../asf/sam/drivers/rtc/rtc.c **** uint32_t rtc_get_status(Rtc *p_rtc)
 453:../asf/sam/drivers/rtc/rtc.c **** {
 874              		.loc 1 453 0
 875              		.cfi_startproc
 876              		@ args = 0, pretend = 0, frame = 0
 877              		@ frame_needed = 0, uses_anonymous_args = 0
 878              		@ link register save eliminated.
 879              	.LVL75:
 454:../asf/sam/drivers/rtc/rtc.c **** 	return (p_rtc->RTC_SR);
 880              		.loc 1 454 0
 881 0000 8069     		ldr	r0, [r0, #24]
 882              	.LVL76:
 455:../asf/sam/drivers/rtc/rtc.c **** }
 883              		.loc 1 455 0
 884 0002 7047     		bx	lr
 885              		.cfi_endproc
 886              	.LFE155:
 887              		.size	rtc_get_status, .-rtc_get_status
 888              		.section	.text.rtc_clear_status,"ax",%progbits
 889              		.align	1
 890              		.p2align 2,,3
 891              		.global	rtc_clear_status
 892              		.syntax unified
 893              		.thumb
 894              		.thumb_func
 895              		.fpu fpv5-d16
 896              		.type	rtc_clear_status, %function
 897              	rtc_clear_status:
 898              	.LFB156:
 456:../asf/sam/drivers/rtc/rtc.c **** 
 457:../asf/sam/drivers/rtc/rtc.c **** /**
 458:../asf/sam/drivers/rtc/rtc.c ****  * \brief Set the RTC SCCR to clear status bits.
 459:../asf/sam/drivers/rtc/rtc.c ****  *
 460:../asf/sam/drivers/rtc/rtc.c ****  * \param p_rtc Pointer to an RTC instance.
 461:../asf/sam/drivers/rtc/rtc.c ****  * \param ul_clear Some flag bits which will be cleared.
 462:../asf/sam/drivers/rtc/rtc.c ****  */
 463:../asf/sam/drivers/rtc/rtc.c **** void rtc_clear_status(Rtc *p_rtc, uint32_t ul_clear)
 464:../asf/sam/drivers/rtc/rtc.c **** {
ARM GAS  /tmp/ccmZuGH1.s 			page 26


 899              		.loc 1 464 0
 900              		.cfi_startproc
 901              		@ args = 0, pretend = 0, frame = 0
 902              		@ frame_needed = 0, uses_anonymous_args = 0
 903              		@ link register save eliminated.
 904              	.LVL77:
 465:../asf/sam/drivers/rtc/rtc.c **** 	p_rtc->RTC_SCCR = ul_clear;
 905              		.loc 1 465 0
 906 0000 C161     		str	r1, [r0, #28]
 907 0002 7047     		bx	lr
 908              		.cfi_endproc
 909              	.LFE156:
 910              		.size	rtc_clear_status, .-rtc_clear_status
 911              		.section	.text.rtc_get_valid_entry,"ax",%progbits
 912              		.align	1
 913              		.p2align 2,,3
 914              		.global	rtc_get_valid_entry
 915              		.syntax unified
 916              		.thumb
 917              		.thumb_func
 918              		.fpu fpv5-d16
 919              		.type	rtc_get_valid_entry, %function
 920              	rtc_get_valid_entry:
 921              	.LFB157:
 466:../asf/sam/drivers/rtc/rtc.c **** }
 467:../asf/sam/drivers/rtc/rtc.c **** 
 468:../asf/sam/drivers/rtc/rtc.c **** /**
 469:../asf/sam/drivers/rtc/rtc.c ****  * \brief Get the RTC valid entry.
 470:../asf/sam/drivers/rtc/rtc.c ****  *
 471:../asf/sam/drivers/rtc/rtc.c ****  * \param p_rtc Pointer to an RTC instance.
 472:../asf/sam/drivers/rtc/rtc.c ****  *
 473:../asf/sam/drivers/rtc/rtc.c ****  * \return 0 for no invalid data, else has contained invalid data.
 474:../asf/sam/drivers/rtc/rtc.c ****  */
 475:../asf/sam/drivers/rtc/rtc.c **** uint32_t rtc_get_valid_entry(Rtc *p_rtc)
 476:../asf/sam/drivers/rtc/rtc.c **** {
 922              		.loc 1 476 0
 923              		.cfi_startproc
 924              		@ args = 0, pretend = 0, frame = 0
 925              		@ frame_needed = 0, uses_anonymous_args = 0
 926              		@ link register save eliminated.
 927              	.LVL78:
 477:../asf/sam/drivers/rtc/rtc.c **** 	return (p_rtc->RTC_VER);
 928              		.loc 1 477 0
 929 0000 C06A     		ldr	r0, [r0, #44]
 930              	.LVL79:
 478:../asf/sam/drivers/rtc/rtc.c **** }
 931              		.loc 1 478 0
 932 0002 7047     		bx	lr
 933              		.cfi_endproc
 934              	.LFE157:
 935              		.size	rtc_get_valid_entry, .-rtc_get_valid_entry
 936              		.section	.text.rtc_set_time_event,"ax",%progbits
 937              		.align	1
 938              		.p2align 2,,3
 939              		.global	rtc_set_time_event
 940              		.syntax unified
 941              		.thumb
ARM GAS  /tmp/ccmZuGH1.s 			page 27


 942              		.thumb_func
 943              		.fpu fpv5-d16
 944              		.type	rtc_set_time_event, %function
 945              	rtc_set_time_event:
 946              	.LFB158:
 479:../asf/sam/drivers/rtc/rtc.c **** 
 480:../asf/sam/drivers/rtc/rtc.c **** /**
 481:../asf/sam/drivers/rtc/rtc.c ****  * \brief Set the RTC time event selection.
 482:../asf/sam/drivers/rtc/rtc.c ****  *
 483:../asf/sam/drivers/rtc/rtc.c ****  * \param p_rtc Pointer to an RTC instance.
 484:../asf/sam/drivers/rtc/rtc.c ****  * \param ul_selection Time event selection to be enabled.
 485:../asf/sam/drivers/rtc/rtc.c ****  */
 486:../asf/sam/drivers/rtc/rtc.c **** void rtc_set_time_event(Rtc *p_rtc, uint32_t ul_selection)
 487:../asf/sam/drivers/rtc/rtc.c **** {
 947              		.loc 1 487 0
 948              		.cfi_startproc
 949              		@ args = 0, pretend = 0, frame = 0
 950              		@ frame_needed = 0, uses_anonymous_args = 0
 951              		@ link register save eliminated.
 952              	.LVL80:
 488:../asf/sam/drivers/rtc/rtc.c **** 	p_rtc->RTC_CR &= ~RTC_CR_TIMEVSEL_Msk;
 953              		.loc 1 488 0
 954 0000 0368     		ldr	r3, [r0]
 489:../asf/sam/drivers/rtc/rtc.c **** 	p_rtc->RTC_CR |= (ul_selection << RTC_CR_TIMEVSEL_Pos) & RTC_CR_TIMEVSEL_Msk;
 955              		.loc 1 489 0
 956 0002 0902     		lsls	r1, r1, #8
 957              	.LVL81:
 488:../asf/sam/drivers/rtc/rtc.c **** 	p_rtc->RTC_CR &= ~RTC_CR_TIMEVSEL_Msk;
 958              		.loc 1 488 0
 959 0004 23F44073 		bic	r3, r3, #768
 960              		.loc 1 489 0
 961 0008 01F44071 		and	r1, r1, #768
 488:../asf/sam/drivers/rtc/rtc.c **** 	p_rtc->RTC_CR &= ~RTC_CR_TIMEVSEL_Msk;
 962              		.loc 1 488 0
 963 000c 0360     		str	r3, [r0]
 964              		.loc 1 489 0
 965 000e 0368     		ldr	r3, [r0]
 966 0010 1943     		orrs	r1, r1, r3
 967 0012 0160     		str	r1, [r0]
 968 0014 7047     		bx	lr
 969              		.cfi_endproc
 970              	.LFE158:
 971              		.size	rtc_set_time_event, .-rtc_set_time_event
 972 0016 00BF     		.section	.text.rtc_set_calendar_event,"ax",%progbits
 973              		.align	1
 974              		.p2align 2,,3
 975              		.global	rtc_set_calendar_event
 976              		.syntax unified
 977              		.thumb
 978              		.thumb_func
 979              		.fpu fpv5-d16
 980              		.type	rtc_set_calendar_event, %function
 981              	rtc_set_calendar_event:
 982              	.LFB159:
 490:../asf/sam/drivers/rtc/rtc.c **** }
 491:../asf/sam/drivers/rtc/rtc.c **** 
 492:../asf/sam/drivers/rtc/rtc.c **** /**
ARM GAS  /tmp/ccmZuGH1.s 			page 28


 493:../asf/sam/drivers/rtc/rtc.c ****  * \brief Set the RTC calendar event selection.
 494:../asf/sam/drivers/rtc/rtc.c ****  *
 495:../asf/sam/drivers/rtc/rtc.c ****  * \param p_rtc Pointer to an RTC instance.
 496:../asf/sam/drivers/rtc/rtc.c ****  * \param ul_selection Calendar event selection to be enabled..
 497:../asf/sam/drivers/rtc/rtc.c ****  */
 498:../asf/sam/drivers/rtc/rtc.c **** void rtc_set_calendar_event(Rtc *p_rtc, uint32_t ul_selection)
 499:../asf/sam/drivers/rtc/rtc.c **** {
 983              		.loc 1 499 0
 984              		.cfi_startproc
 985              		@ args = 0, pretend = 0, frame = 0
 986              		@ frame_needed = 0, uses_anonymous_args = 0
 987              		@ link register save eliminated.
 988              	.LVL82:
 500:../asf/sam/drivers/rtc/rtc.c **** 	p_rtc->RTC_CR &= ~RTC_CR_CALEVSEL_Msk;
 989              		.loc 1 500 0
 990 0000 0368     		ldr	r3, [r0]
 501:../asf/sam/drivers/rtc/rtc.c **** 	p_rtc->RTC_CR |= (ul_selection << RTC_CR_CALEVSEL_Pos) & RTC_CR_CALEVSEL_Msk;
 991              		.loc 1 501 0
 992 0002 0904     		lsls	r1, r1, #16
 993              	.LVL83:
 500:../asf/sam/drivers/rtc/rtc.c **** 	p_rtc->RTC_CR &= ~RTC_CR_CALEVSEL_Msk;
 994              		.loc 1 500 0
 995 0004 23F44033 		bic	r3, r3, #196608
 996              		.loc 1 501 0
 997 0008 01F44031 		and	r1, r1, #196608
 500:../asf/sam/drivers/rtc/rtc.c **** 	p_rtc->RTC_CR &= ~RTC_CR_CALEVSEL_Msk;
 998              		.loc 1 500 0
 999 000c 0360     		str	r3, [r0]
 1000              		.loc 1 501 0
 1001 000e 0368     		ldr	r3, [r0]
 1002 0010 1943     		orrs	r1, r1, r3
 1003 0012 0160     		str	r1, [r0]
 1004 0014 7047     		bx	lr
 1005              		.cfi_endproc
 1006              	.LFE159:
 1007              		.size	rtc_set_calendar_event, .-rtc_set_calendar_event
 1008 0016 00BF     		.section	.text.rtc_set_waveform,"ax",%progbits
 1009              		.align	1
 1010              		.p2align 2,,3
 1011              		.global	rtc_set_waveform
 1012              		.syntax unified
 1013              		.thumb
 1014              		.thumb_func
 1015              		.fpu fpv5-d16
 1016              		.type	rtc_set_waveform, %function
 1017              	rtc_set_waveform:
 1018              	.LFB160:
 502:../asf/sam/drivers/rtc/rtc.c **** }
 503:../asf/sam/drivers/rtc/rtc.c **** 
 504:../asf/sam/drivers/rtc/rtc.c **** #if ((SAM3S8) || (SAM3SD8) || (SAM4S) || (SAM4N) || (SAM4C) || (SAMG) || (SAM4CP) || (SAM4CM) || de
 505:../asf/sam/drivers/rtc/rtc.c **** /**
 506:../asf/sam/drivers/rtc/rtc.c ****  * \brief Set the RTC calendar mode.
 507:../asf/sam/drivers/rtc/rtc.c ****  *
 508:../asf/sam/drivers/rtc/rtc.c ****  * \note This function is only available on SAM3S8/3SD8/4S/4N/4C/G devices.
 509:../asf/sam/drivers/rtc/rtc.c ****  *
 510:../asf/sam/drivers/rtc/rtc.c ****  * \param p_rtc Pointer to an RTC instance.
 511:../asf/sam/drivers/rtc/rtc.c ****  * \param ul_mode 1 for Persian mode,0 for Gregorian mode.
ARM GAS  /tmp/ccmZuGH1.s 			page 29


 512:../asf/sam/drivers/rtc/rtc.c ****  */
 513:../asf/sam/drivers/rtc/rtc.c **** void rtc_set_calendar_mode(Rtc *p_rtc, uint32_t ul_mode)
 514:../asf/sam/drivers/rtc/rtc.c **** {
 515:../asf/sam/drivers/rtc/rtc.c **** 	if (ul_mode) {
 516:../asf/sam/drivers/rtc/rtc.c **** 		p_rtc->RTC_MR |= RTC_MR_PERSIAN;
 517:../asf/sam/drivers/rtc/rtc.c **** 	} else {
 518:../asf/sam/drivers/rtc/rtc.c **** 		p_rtc->RTC_MR &= (~RTC_MR_PERSIAN);
 519:../asf/sam/drivers/rtc/rtc.c **** 	}
 520:../asf/sam/drivers/rtc/rtc.c **** }
 521:../asf/sam/drivers/rtc/rtc.c **** 
 522:../asf/sam/drivers/rtc/rtc.c **** /**
 523:../asf/sam/drivers/rtc/rtc.c ****  * \brief Get the RTC calendar mode.
 524:../asf/sam/drivers/rtc/rtc.c ****  *
 525:../asf/sam/drivers/rtc/rtc.c ****  * \note This function is only available on SAM3S8/3SD8/4S/4N/4C/G devices.
 526:../asf/sam/drivers/rtc/rtc.c ****  *
 527:../asf/sam/drivers/rtc/rtc.c ****  * \param p_rtc Pointer to an RTC instance.
 528:../asf/sam/drivers/rtc/rtc.c ****  *
 529:../asf/sam/drivers/rtc/rtc.c ****  * \return 1 for Persian calendar, 0 for Gregorian calendar.
 530:../asf/sam/drivers/rtc/rtc.c ****  */
 531:../asf/sam/drivers/rtc/rtc.c **** uint32_t rtc_get_calendar_mode(Rtc *p_rtc)
 532:../asf/sam/drivers/rtc/rtc.c **** {
 533:../asf/sam/drivers/rtc/rtc.c **** 	uint32_t ul_temp = p_rtc->RTC_MR;
 534:../asf/sam/drivers/rtc/rtc.c **** 
 535:../asf/sam/drivers/rtc/rtc.c **** 	if (ul_temp & RTC_MR_PERSIAN) {
 536:../asf/sam/drivers/rtc/rtc.c **** 		return 1;
 537:../asf/sam/drivers/rtc/rtc.c **** 	} else {
 538:../asf/sam/drivers/rtc/rtc.c **** 		return 0;
 539:../asf/sam/drivers/rtc/rtc.c **** 	}
 540:../asf/sam/drivers/rtc/rtc.c **** }
 541:../asf/sam/drivers/rtc/rtc.c **** 
 542:../asf/sam/drivers/rtc/rtc.c **** /**
 543:../asf/sam/drivers/rtc/rtc.c ****  * \brief Set the RTC calibration.
 544:../asf/sam/drivers/rtc/rtc.c ****  *
 545:../asf/sam/drivers/rtc/rtc.c ****  * \note This function is only available on SAM3S8/3SD8/4S/4N/4C/G devices.
 546:../asf/sam/drivers/rtc/rtc.c ****  *
 547:../asf/sam/drivers/rtc/rtc.c ****  * \param p_rtc Pointer to an RTC instance.
 548:../asf/sam/drivers/rtc/rtc.c ****  * \param ul_direction_ppm Positive/negative correction.
 549:../asf/sam/drivers/rtc/rtc.c ****  * \param ul_correction Correction value.
 550:../asf/sam/drivers/rtc/rtc.c ****  * \param ul_range_ppm Low/high range correction.
 551:../asf/sam/drivers/rtc/rtc.c ****  */
 552:../asf/sam/drivers/rtc/rtc.c **** void rtc_set_calibration(Rtc *p_rtc, uint32_t ul_direction_ppm,
 553:../asf/sam/drivers/rtc/rtc.c **** 		uint32_t ul_correction, uint32_t ul_range_ppm)
 554:../asf/sam/drivers/rtc/rtc.c **** {
 555:../asf/sam/drivers/rtc/rtc.c **** 	uint32_t ul_temp;
 556:../asf/sam/drivers/rtc/rtc.c **** 
 557:../asf/sam/drivers/rtc/rtc.c **** 	ul_temp = p_rtc->RTC_MR;
 558:../asf/sam/drivers/rtc/rtc.c **** 
 559:../asf/sam/drivers/rtc/rtc.c **** 	if (ul_direction_ppm) {
 560:../asf/sam/drivers/rtc/rtc.c **** 		ul_temp |= RTC_MR_NEGPPM;
 561:../asf/sam/drivers/rtc/rtc.c **** 	} else {
 562:../asf/sam/drivers/rtc/rtc.c **** 		ul_temp &= (~RTC_MR_NEGPPM);
 563:../asf/sam/drivers/rtc/rtc.c **** 	}
 564:../asf/sam/drivers/rtc/rtc.c **** 
 565:../asf/sam/drivers/rtc/rtc.c **** 	ul_temp &= (~RTC_MR_CORRECTION_Msk);
 566:../asf/sam/drivers/rtc/rtc.c **** 	ul_temp |= RTC_MR_CORRECTION(ul_correction);
 567:../asf/sam/drivers/rtc/rtc.c **** 
 568:../asf/sam/drivers/rtc/rtc.c **** 	if (ul_range_ppm) {
ARM GAS  /tmp/ccmZuGH1.s 			page 30


 569:../asf/sam/drivers/rtc/rtc.c **** 		ul_temp |= RTC_MR_HIGHPPM;
 570:../asf/sam/drivers/rtc/rtc.c **** 	} else {
 571:../asf/sam/drivers/rtc/rtc.c **** 		ul_temp &= (~RTC_MR_HIGHPPM);
 572:../asf/sam/drivers/rtc/rtc.c **** 	}
 573:../asf/sam/drivers/rtc/rtc.c **** 
 574:../asf/sam/drivers/rtc/rtc.c **** 	p_rtc->RTC_MR = ul_temp;
 575:../asf/sam/drivers/rtc/rtc.c **** }
 576:../asf/sam/drivers/rtc/rtc.c **** #endif
 577:../asf/sam/drivers/rtc/rtc.c **** 
 578:../asf/sam/drivers/rtc/rtc.c **** #if ((SAM3S8) || (SAM3SD8) || (SAM4S) || (SAM4C) || (SAMG) || (SAM4CP) || (SAM4CM) || SAMV71 || SAM
 579:../asf/sam/drivers/rtc/rtc.c **** /**
 580:../asf/sam/drivers/rtc/rtc.c ****  * \brief Set the RTC output waveform.
 581:../asf/sam/drivers/rtc/rtc.c ****  *
 582:../asf/sam/drivers/rtc/rtc.c ****  * \note This function is only available on SAM3S8/3SD8/4S/4C/G/V/S/E devices.
 583:../asf/sam/drivers/rtc/rtc.c ****  *
 584:../asf/sam/drivers/rtc/rtc.c ****  * \param p_rtc Pointer to an RTC instance.
 585:../asf/sam/drivers/rtc/rtc.c ****  * \param ul_channel Output channel selection.
 586:../asf/sam/drivers/rtc/rtc.c ****  * \param ul_value Output source selection value.
 587:../asf/sam/drivers/rtc/rtc.c ****  */
 588:../asf/sam/drivers/rtc/rtc.c **** void rtc_set_waveform(Rtc *p_rtc, uint32_t ul_channel, uint32_t ul_value)
 589:../asf/sam/drivers/rtc/rtc.c **** {
 1019              		.loc 1 589 0
 1020              		.cfi_startproc
 1021              		@ args = 0, pretend = 0, frame = 0
 1022              		@ frame_needed = 0, uses_anonymous_args = 0
 1023              		@ link register save eliminated.
 1024              	.LVL84:
 590:../asf/sam/drivers/rtc/rtc.c **** 	if (ul_channel == 0) {
 1025              		.loc 1 590 0
 1026 0000 81B9     		cbnz	r1, .L125
 591:../asf/sam/drivers/rtc/rtc.c **** 		switch (ul_value) {
 1027              		.loc 1 591 0
 1028 0002 072A     		cmp	r2, #7
 1029 0004 0DD8     		bhi	.L124
 1030 0006 DFE802F0 		tbb	[pc, r2]
 1031              	.L128:
 1032 000a 23       		.byte	(.L127-.L128)/2
 1033 000b 2A       		.byte	(.L129-.L128)/2
 1034 000c 33       		.byte	(.L130-.L128)/2
 1035 000d 3C       		.byte	(.L131-.L128)/2
 1036 000e 45       		.byte	(.L132-.L128)/2
 1037 000f 4E       		.byte	(.L133-.L128)/2
 1038 0010 57       		.byte	(.L134-.L128)/2
 1039 0011 60       		.byte	(.L135-.L128)/2
 1040              		.p2align 1
 1041              	.L144:
 592:../asf/sam/drivers/rtc/rtc.c **** 		case 0:
 593:../asf/sam/drivers/rtc/rtc.c **** 			p_rtc->RTC_MR &= ~RTC_MR_OUT0_Msk;
 594:../asf/sam/drivers/rtc/rtc.c **** 			p_rtc->RTC_MR |= RTC_MR_OUT0_NO_WAVE;
 595:../asf/sam/drivers/rtc/rtc.c **** 			break;
 596:../asf/sam/drivers/rtc/rtc.c **** 
 597:../asf/sam/drivers/rtc/rtc.c **** 		case 1:
 598:../asf/sam/drivers/rtc/rtc.c **** 			p_rtc->RTC_MR &= ~RTC_MR_OUT0_Msk;
 599:../asf/sam/drivers/rtc/rtc.c **** 			p_rtc->RTC_MR |= RTC_MR_OUT0_FREQ1HZ;
 600:../asf/sam/drivers/rtc/rtc.c **** 			break;
 601:../asf/sam/drivers/rtc/rtc.c **** 
 602:../asf/sam/drivers/rtc/rtc.c **** 		case 2:
ARM GAS  /tmp/ccmZuGH1.s 			page 31


 603:../asf/sam/drivers/rtc/rtc.c **** 			p_rtc->RTC_MR &= ~RTC_MR_OUT0_Msk;
 604:../asf/sam/drivers/rtc/rtc.c **** 			p_rtc->RTC_MR |= RTC_MR_OUT0_FREQ32HZ;
 605:../asf/sam/drivers/rtc/rtc.c **** 			break;
 606:../asf/sam/drivers/rtc/rtc.c **** 
 607:../asf/sam/drivers/rtc/rtc.c **** 		case 3:
 608:../asf/sam/drivers/rtc/rtc.c **** 			p_rtc->RTC_MR &= ~RTC_MR_OUT0_Msk;
 609:../asf/sam/drivers/rtc/rtc.c **** 			p_rtc->RTC_MR |= RTC_MR_OUT0_FREQ64HZ;
 610:../asf/sam/drivers/rtc/rtc.c **** 			break;
 611:../asf/sam/drivers/rtc/rtc.c **** 
 612:../asf/sam/drivers/rtc/rtc.c **** 		case 4:
 613:../asf/sam/drivers/rtc/rtc.c **** 			p_rtc->RTC_MR &= ~RTC_MR_OUT0_Msk;
 614:../asf/sam/drivers/rtc/rtc.c **** 			p_rtc->RTC_MR |= RTC_MR_OUT0_FREQ512HZ;
 615:../asf/sam/drivers/rtc/rtc.c **** 			break;
 616:../asf/sam/drivers/rtc/rtc.c **** 
 617:../asf/sam/drivers/rtc/rtc.c **** #if (!SAMG)
 618:../asf/sam/drivers/rtc/rtc.c **** 		case 5:
 619:../asf/sam/drivers/rtc/rtc.c **** 			p_rtc->RTC_MR &= ~RTC_MR_OUT0_Msk;
 620:../asf/sam/drivers/rtc/rtc.c **** 			p_rtc->RTC_MR |= RTC_MR_OUT0_ALARM_TOGGLE;
 621:../asf/sam/drivers/rtc/rtc.c **** 			break;
 622:../asf/sam/drivers/rtc/rtc.c **** #endif
 623:../asf/sam/drivers/rtc/rtc.c **** 
 624:../asf/sam/drivers/rtc/rtc.c **** 		case 6:
 625:../asf/sam/drivers/rtc/rtc.c **** 			p_rtc->RTC_MR &= ~RTC_MR_OUT0_Msk;
 626:../asf/sam/drivers/rtc/rtc.c **** 			p_rtc->RTC_MR |= RTC_MR_OUT0_ALARM_FLAG;
 627:../asf/sam/drivers/rtc/rtc.c **** 			break;
 628:../asf/sam/drivers/rtc/rtc.c **** 
 629:../asf/sam/drivers/rtc/rtc.c **** #if (!SAMG)
 630:../asf/sam/drivers/rtc/rtc.c **** 		case 7:
 631:../asf/sam/drivers/rtc/rtc.c **** 			p_rtc->RTC_MR &= ~RTC_MR_OUT0_Msk;
 632:../asf/sam/drivers/rtc/rtc.c **** 			p_rtc->RTC_MR |= RTC_MR_OUT0_PROG_PULSE;
 633:../asf/sam/drivers/rtc/rtc.c **** 			break;
 634:../asf/sam/drivers/rtc/rtc.c **** #endif
 635:../asf/sam/drivers/rtc/rtc.c **** 
 636:../asf/sam/drivers/rtc/rtc.c **** 		default:
 637:../asf/sam/drivers/rtc/rtc.c **** 			break;
 638:../asf/sam/drivers/rtc/rtc.c **** 		}
 639:../asf/sam/drivers/rtc/rtc.c **** 	} else {
 640:../asf/sam/drivers/rtc/rtc.c **** 	#if (!SAM4C && !SAM4CP && !SAM4CM)
 641:../asf/sam/drivers/rtc/rtc.c **** 		switch (ul_value) {
 642:../asf/sam/drivers/rtc/rtc.c **** 		case 0:
 643:../asf/sam/drivers/rtc/rtc.c **** 			p_rtc->RTC_MR &= ~RTC_MR_OUT1_Msk;
 644:../asf/sam/drivers/rtc/rtc.c **** 			p_rtc->RTC_MR |= RTC_MR_OUT1_NO_WAVE;
 645:../asf/sam/drivers/rtc/rtc.c **** 			break;
 646:../asf/sam/drivers/rtc/rtc.c **** 
 647:../asf/sam/drivers/rtc/rtc.c **** 		case 1:
 648:../asf/sam/drivers/rtc/rtc.c **** 			p_rtc->RTC_MR &= ~RTC_MR_OUT1_Msk;
 649:../asf/sam/drivers/rtc/rtc.c **** 			p_rtc->RTC_MR |= RTC_MR_OUT1_FREQ1HZ;
 650:../asf/sam/drivers/rtc/rtc.c **** 			break;
 651:../asf/sam/drivers/rtc/rtc.c **** 
 652:../asf/sam/drivers/rtc/rtc.c **** 		case 2:
 653:../asf/sam/drivers/rtc/rtc.c **** 			p_rtc->RTC_MR &= ~RTC_MR_OUT1_Msk;
 654:../asf/sam/drivers/rtc/rtc.c **** 			p_rtc->RTC_MR |= RTC_MR_OUT1_FREQ32HZ;
 655:../asf/sam/drivers/rtc/rtc.c **** 			break;
 656:../asf/sam/drivers/rtc/rtc.c **** 
 657:../asf/sam/drivers/rtc/rtc.c **** 		case 3:
 658:../asf/sam/drivers/rtc/rtc.c **** 			p_rtc->RTC_MR &= ~RTC_MR_OUT1_Msk;
 659:../asf/sam/drivers/rtc/rtc.c **** 			p_rtc->RTC_MR |= RTC_MR_OUT1_FREQ64HZ;
ARM GAS  /tmp/ccmZuGH1.s 			page 32


 660:../asf/sam/drivers/rtc/rtc.c **** 			break;
 661:../asf/sam/drivers/rtc/rtc.c **** 
 662:../asf/sam/drivers/rtc/rtc.c **** 		case 4:
 663:../asf/sam/drivers/rtc/rtc.c **** 			p_rtc->RTC_MR &= ~RTC_MR_OUT1_Msk;
 664:../asf/sam/drivers/rtc/rtc.c **** 			p_rtc->RTC_MR |= RTC_MR_OUT1_FREQ512HZ;
 665:../asf/sam/drivers/rtc/rtc.c **** 			break;
 666:../asf/sam/drivers/rtc/rtc.c **** 
 667:../asf/sam/drivers/rtc/rtc.c **** #if (!SAMG)
 668:../asf/sam/drivers/rtc/rtc.c **** 		case 5:
 669:../asf/sam/drivers/rtc/rtc.c **** 			p_rtc->RTC_MR &= ~RTC_MR_OUT1_Msk;
 670:../asf/sam/drivers/rtc/rtc.c **** 			p_rtc->RTC_MR |= RTC_MR_OUT1_ALARM_TOGGLE;
 671:../asf/sam/drivers/rtc/rtc.c **** 			break;
 672:../asf/sam/drivers/rtc/rtc.c **** #endif
 673:../asf/sam/drivers/rtc/rtc.c **** 
 674:../asf/sam/drivers/rtc/rtc.c **** 		case 6:
 675:../asf/sam/drivers/rtc/rtc.c **** 			p_rtc->RTC_MR &= ~RTC_MR_OUT1_Msk;
 676:../asf/sam/drivers/rtc/rtc.c **** 			p_rtc->RTC_MR |= RTC_MR_OUT1_ALARM_FLAG;
 677:../asf/sam/drivers/rtc/rtc.c **** 			break;
 678:../asf/sam/drivers/rtc/rtc.c **** 
 679:../asf/sam/drivers/rtc/rtc.c **** #if (!SAMG)
 680:../asf/sam/drivers/rtc/rtc.c **** 		case 7:
 681:../asf/sam/drivers/rtc/rtc.c **** 			p_rtc->RTC_MR &= ~RTC_MR_OUT1_Msk;
 1042              		.loc 1 681 0
 1043 0012 4368     		ldr	r3, [r0, #4]
 1044 0014 23F4E003 		bic	r3, r3, #7340032
 1045 0018 4360     		str	r3, [r0, #4]
 682:../asf/sam/drivers/rtc/rtc.c **** 			p_rtc->RTC_MR |= RTC_MR_OUT1_PROG_PULSE;
 1046              		.loc 1 682 0
 1047 001a 4368     		ldr	r3, [r0, #4]
 1048 001c 43F4E003 		orr	r3, r3, #7340032
 1049 0020 4360     		str	r3, [r0, #4]
 1050              	.L124:
 1051 0022 7047     		bx	lr
 1052              	.L125:
 641:../asf/sam/drivers/rtc/rtc.c **** 		case 0:
 1053              		.loc 1 641 0
 1054 0024 072A     		cmp	r2, #7
 1055 0026 FCD8     		bhi	.L124
 1056 0028 01A3     		adr	r3, .L137
 1057 002a 53F822F0 		ldr	pc, [r3, r2, lsl #2]
 1058 002e 00BF     		.p2align 2
 1059              	.L137:
 1060 0030 DD000000 		.word	.L136+1
 1061 0034 EB000000 		.word	.L138+1
 1062 0038 FD000000 		.word	.L139+1
 1063 003c 0F010000 		.word	.L140+1
 1064 0040 21010000 		.word	.L141+1
 1065 0044 33010000 		.word	.L142+1
 1066 0048 45010000 		.word	.L143+1
 1067 004c 13000000 		.word	.L144+1
 1068              		.p2align 1
 1069              	.L127:
 593:../asf/sam/drivers/rtc/rtc.c **** 			p_rtc->RTC_MR |= RTC_MR_OUT0_NO_WAVE;
 1070              		.loc 1 593 0
 1071 0050 4368     		ldr	r3, [r0, #4]
 1072 0052 23F4E023 		bic	r3, r3, #458752
 1073 0056 4360     		str	r3, [r0, #4]
ARM GAS  /tmp/ccmZuGH1.s 			page 33


 594:../asf/sam/drivers/rtc/rtc.c **** 			break;
 1074              		.loc 1 594 0
 1075 0058 4368     		ldr	r3, [r0, #4]
 1076 005a 4360     		str	r3, [r0, #4]
 595:../asf/sam/drivers/rtc/rtc.c **** 
 1077              		.loc 1 595 0
 1078 005c 7047     		bx	lr
 1079              	.L129:
 598:../asf/sam/drivers/rtc/rtc.c **** 			p_rtc->RTC_MR |= RTC_MR_OUT0_FREQ1HZ;
 1080              		.loc 1 598 0
 1081 005e 4368     		ldr	r3, [r0, #4]
 1082 0060 23F4E023 		bic	r3, r3, #458752
 1083 0064 4360     		str	r3, [r0, #4]
 599:../asf/sam/drivers/rtc/rtc.c **** 			break;
 1084              		.loc 1 599 0
 1085 0066 4368     		ldr	r3, [r0, #4]
 1086 0068 43F48033 		orr	r3, r3, #65536
 1087 006c 4360     		str	r3, [r0, #4]
 600:../asf/sam/drivers/rtc/rtc.c **** 
 1088              		.loc 1 600 0
 1089 006e 7047     		bx	lr
 1090              	.L130:
 603:../asf/sam/drivers/rtc/rtc.c **** 			p_rtc->RTC_MR |= RTC_MR_OUT0_FREQ32HZ;
 1091              		.loc 1 603 0
 1092 0070 4368     		ldr	r3, [r0, #4]
 1093 0072 23F4E023 		bic	r3, r3, #458752
 1094 0076 4360     		str	r3, [r0, #4]
 604:../asf/sam/drivers/rtc/rtc.c **** 			break;
 1095              		.loc 1 604 0
 1096 0078 4368     		ldr	r3, [r0, #4]
 1097 007a 43F40033 		orr	r3, r3, #131072
 1098 007e 4360     		str	r3, [r0, #4]
 605:../asf/sam/drivers/rtc/rtc.c **** 
 1099              		.loc 1 605 0
 1100 0080 7047     		bx	lr
 1101              	.L131:
 608:../asf/sam/drivers/rtc/rtc.c **** 			p_rtc->RTC_MR |= RTC_MR_OUT0_FREQ64HZ;
 1102              		.loc 1 608 0
 1103 0082 4368     		ldr	r3, [r0, #4]
 1104 0084 23F4E023 		bic	r3, r3, #458752
 1105 0088 4360     		str	r3, [r0, #4]
 609:../asf/sam/drivers/rtc/rtc.c **** 			break;
 1106              		.loc 1 609 0
 1107 008a 4368     		ldr	r3, [r0, #4]
 1108 008c 43F44033 		orr	r3, r3, #196608
 1109 0090 4360     		str	r3, [r0, #4]
 610:../asf/sam/drivers/rtc/rtc.c **** 
 1110              		.loc 1 610 0
 1111 0092 7047     		bx	lr
 1112              	.L132:
 613:../asf/sam/drivers/rtc/rtc.c **** 			p_rtc->RTC_MR |= RTC_MR_OUT0_FREQ512HZ;
 1113              		.loc 1 613 0
 1114 0094 4368     		ldr	r3, [r0, #4]
 1115 0096 23F4E023 		bic	r3, r3, #458752
 1116 009a 4360     		str	r3, [r0, #4]
 614:../asf/sam/drivers/rtc/rtc.c **** 			break;
 1117              		.loc 1 614 0
ARM GAS  /tmp/ccmZuGH1.s 			page 34


 1118 009c 4368     		ldr	r3, [r0, #4]
 1119 009e 43F48023 		orr	r3, r3, #262144
 1120 00a2 4360     		str	r3, [r0, #4]
 615:../asf/sam/drivers/rtc/rtc.c **** 
 1121              		.loc 1 615 0
 1122 00a4 7047     		bx	lr
 1123              	.L133:
 619:../asf/sam/drivers/rtc/rtc.c **** 			p_rtc->RTC_MR |= RTC_MR_OUT0_ALARM_TOGGLE;
 1124              		.loc 1 619 0
 1125 00a6 4368     		ldr	r3, [r0, #4]
 1126 00a8 23F4E023 		bic	r3, r3, #458752
 1127 00ac 4360     		str	r3, [r0, #4]
 620:../asf/sam/drivers/rtc/rtc.c **** 			break;
 1128              		.loc 1 620 0
 1129 00ae 4368     		ldr	r3, [r0, #4]
 1130 00b0 43F4A023 		orr	r3, r3, #327680
 1131 00b4 4360     		str	r3, [r0, #4]
 621:../asf/sam/drivers/rtc/rtc.c **** #endif
 1132              		.loc 1 621 0
 1133 00b6 7047     		bx	lr
 1134              	.L134:
 625:../asf/sam/drivers/rtc/rtc.c **** 			p_rtc->RTC_MR |= RTC_MR_OUT0_ALARM_FLAG;
 1135              		.loc 1 625 0
 1136 00b8 4368     		ldr	r3, [r0, #4]
 1137 00ba 23F4E023 		bic	r3, r3, #458752
 1138 00be 4360     		str	r3, [r0, #4]
 626:../asf/sam/drivers/rtc/rtc.c **** 			break;
 1139              		.loc 1 626 0
 1140 00c0 4368     		ldr	r3, [r0, #4]
 1141 00c2 43F4C023 		orr	r3, r3, #393216
 1142 00c6 4360     		str	r3, [r0, #4]
 627:../asf/sam/drivers/rtc/rtc.c **** 
 1143              		.loc 1 627 0
 1144 00c8 7047     		bx	lr
 1145              	.L135:
 631:../asf/sam/drivers/rtc/rtc.c **** 			p_rtc->RTC_MR |= RTC_MR_OUT0_PROG_PULSE;
 1146              		.loc 1 631 0
 1147 00ca 4368     		ldr	r3, [r0, #4]
 1148 00cc 23F4E023 		bic	r3, r3, #458752
 1149 00d0 4360     		str	r3, [r0, #4]
 632:../asf/sam/drivers/rtc/rtc.c **** 			break;
 1150              		.loc 1 632 0
 1151 00d2 4368     		ldr	r3, [r0, #4]
 1152 00d4 43F4E023 		orr	r3, r3, #458752
 1153 00d8 4360     		str	r3, [r0, #4]
 633:../asf/sam/drivers/rtc/rtc.c **** #endif
 1154              		.loc 1 633 0
 1155 00da 7047     		bx	lr
 1156              	.L136:
 643:../asf/sam/drivers/rtc/rtc.c **** 			p_rtc->RTC_MR |= RTC_MR_OUT1_NO_WAVE;
 1157              		.loc 1 643 0
 1158 00dc 4368     		ldr	r3, [r0, #4]
 1159 00de 23F4E003 		bic	r3, r3, #7340032
 1160 00e2 4360     		str	r3, [r0, #4]
 644:../asf/sam/drivers/rtc/rtc.c **** 			break;
 1161              		.loc 1 644 0
 1162 00e4 4368     		ldr	r3, [r0, #4]
ARM GAS  /tmp/ccmZuGH1.s 			page 35


 1163 00e6 4360     		str	r3, [r0, #4]
 645:../asf/sam/drivers/rtc/rtc.c **** 
 1164              		.loc 1 645 0
 1165 00e8 7047     		bx	lr
 1166              	.L138:
 648:../asf/sam/drivers/rtc/rtc.c **** 			p_rtc->RTC_MR |= RTC_MR_OUT1_FREQ1HZ;
 1167              		.loc 1 648 0
 1168 00ea 4368     		ldr	r3, [r0, #4]
 1169 00ec 23F4E003 		bic	r3, r3, #7340032
 1170 00f0 4360     		str	r3, [r0, #4]
 649:../asf/sam/drivers/rtc/rtc.c **** 			break;
 1171              		.loc 1 649 0
 1172 00f2 4368     		ldr	r3, [r0, #4]
 1173 00f4 43F48013 		orr	r3, r3, #1048576
 1174 00f8 4360     		str	r3, [r0, #4]
 650:../asf/sam/drivers/rtc/rtc.c **** 
 1175              		.loc 1 650 0
 1176 00fa 7047     		bx	lr
 1177              	.L139:
 653:../asf/sam/drivers/rtc/rtc.c **** 			p_rtc->RTC_MR |= RTC_MR_OUT1_FREQ32HZ;
 1178              		.loc 1 653 0
 1179 00fc 4368     		ldr	r3, [r0, #4]
 1180 00fe 23F4E003 		bic	r3, r3, #7340032
 1181 0102 4360     		str	r3, [r0, #4]
 654:../asf/sam/drivers/rtc/rtc.c **** 			break;
 1182              		.loc 1 654 0
 1183 0104 4368     		ldr	r3, [r0, #4]
 1184 0106 43F40013 		orr	r3, r3, #2097152
 1185 010a 4360     		str	r3, [r0, #4]
 655:../asf/sam/drivers/rtc/rtc.c **** 
 1186              		.loc 1 655 0
 1187 010c 7047     		bx	lr
 1188              	.L140:
 658:../asf/sam/drivers/rtc/rtc.c **** 			p_rtc->RTC_MR |= RTC_MR_OUT1_FREQ64HZ;
 1189              		.loc 1 658 0
 1190 010e 4368     		ldr	r3, [r0, #4]
 1191 0110 23F4E003 		bic	r3, r3, #7340032
 1192 0114 4360     		str	r3, [r0, #4]
 659:../asf/sam/drivers/rtc/rtc.c **** 			break;
 1193              		.loc 1 659 0
 1194 0116 4368     		ldr	r3, [r0, #4]
 1195 0118 43F44013 		orr	r3, r3, #3145728
 1196 011c 4360     		str	r3, [r0, #4]
 660:../asf/sam/drivers/rtc/rtc.c **** 
 1197              		.loc 1 660 0
 1198 011e 7047     		bx	lr
 1199              	.L141:
 663:../asf/sam/drivers/rtc/rtc.c **** 			p_rtc->RTC_MR |= RTC_MR_OUT1_FREQ512HZ;
 1200              		.loc 1 663 0
 1201 0120 4368     		ldr	r3, [r0, #4]
 1202 0122 23F4E003 		bic	r3, r3, #7340032
 1203 0126 4360     		str	r3, [r0, #4]
 664:../asf/sam/drivers/rtc/rtc.c **** 			break;
 1204              		.loc 1 664 0
 1205 0128 4368     		ldr	r3, [r0, #4]
 1206 012a 43F48003 		orr	r3, r3, #4194304
 1207 012e 4360     		str	r3, [r0, #4]
ARM GAS  /tmp/ccmZuGH1.s 			page 36


 665:../asf/sam/drivers/rtc/rtc.c **** 
 1208              		.loc 1 665 0
 1209 0130 7047     		bx	lr
 1210              	.L142:
 669:../asf/sam/drivers/rtc/rtc.c **** 			p_rtc->RTC_MR |= RTC_MR_OUT1_ALARM_TOGGLE;
 1211              		.loc 1 669 0
 1212 0132 4368     		ldr	r3, [r0, #4]
 1213 0134 23F4E003 		bic	r3, r3, #7340032
 1214 0138 4360     		str	r3, [r0, #4]
 670:../asf/sam/drivers/rtc/rtc.c **** 			break;
 1215              		.loc 1 670 0
 1216 013a 4368     		ldr	r3, [r0, #4]
 1217 013c 43F4A003 		orr	r3, r3, #5242880
 1218 0140 4360     		str	r3, [r0, #4]
 671:../asf/sam/drivers/rtc/rtc.c **** #endif
 1219              		.loc 1 671 0
 1220 0142 7047     		bx	lr
 1221              	.L143:
 675:../asf/sam/drivers/rtc/rtc.c **** 			p_rtc->RTC_MR |= RTC_MR_OUT1_ALARM_FLAG;
 1222              		.loc 1 675 0
 1223 0144 4368     		ldr	r3, [r0, #4]
 1224 0146 23F4E003 		bic	r3, r3, #7340032
 1225 014a 4360     		str	r3, [r0, #4]
 676:../asf/sam/drivers/rtc/rtc.c **** 			break;
 1226              		.loc 1 676 0
 1227 014c 4368     		ldr	r3, [r0, #4]
 1228 014e 43F4C003 		orr	r3, r3, #6291456
 1229 0152 4360     		str	r3, [r0, #4]
 677:../asf/sam/drivers/rtc/rtc.c **** 
 1230              		.loc 1 677 0
 1231 0154 7047     		bx	lr
 1232              		.cfi_endproc
 1233              	.LFE160:
 1234              		.size	rtc_set_waveform, .-rtc_set_waveform
 1235 0156 00BF     		.section	.text.rtc_set_pulse_parameter,"ax",%progbits
 1236              		.align	1
 1237              		.p2align 2,,3
 1238              		.global	rtc_set_pulse_parameter
 1239              		.syntax unified
 1240              		.thumb
 1241              		.thumb_func
 1242              		.fpu fpv5-d16
 1243              		.type	rtc_set_pulse_parameter, %function
 1244              	rtc_set_pulse_parameter:
 1245              	.LFB161:
 683:../asf/sam/drivers/rtc/rtc.c **** 			break;
 684:../asf/sam/drivers/rtc/rtc.c **** #endif
 685:../asf/sam/drivers/rtc/rtc.c **** 
 686:../asf/sam/drivers/rtc/rtc.c **** 		default:
 687:../asf/sam/drivers/rtc/rtc.c **** 			break;
 688:../asf/sam/drivers/rtc/rtc.c **** 		}
 689:../asf/sam/drivers/rtc/rtc.c **** 	#endif
 690:../asf/sam/drivers/rtc/rtc.c **** 	}
 691:../asf/sam/drivers/rtc/rtc.c **** }
 692:../asf/sam/drivers/rtc/rtc.c **** 
 693:../asf/sam/drivers/rtc/rtc.c **** #if ((SAM3S8) || (SAM3SD8) || (SAM4S) || (SAM4C) || SAMV71 || SAMV70 || SAME70 || SAMS70 || defined
 694:../asf/sam/drivers/rtc/rtc.c **** /**
ARM GAS  /tmp/ccmZuGH1.s 			page 37


 695:../asf/sam/drivers/rtc/rtc.c ****  * \brief Set the pulse output waveform parameters.
 696:../asf/sam/drivers/rtc/rtc.c ****  *
 697:../asf/sam/drivers/rtc/rtc.c ****  * \note This function is only available on SAM3S8/3SD8/4S/4C/V/S/E devices.
 698:../asf/sam/drivers/rtc/rtc.c ****  *
 699:../asf/sam/drivers/rtc/rtc.c ****  * \param p_rtc Pointer to an RTC instance.
 700:../asf/sam/drivers/rtc/rtc.c ****  * \param ul_time_high High duration of the output pulse.
 701:../asf/sam/drivers/rtc/rtc.c ****  * \param ul_period Period of the output pulse.
 702:../asf/sam/drivers/rtc/rtc.c ****  */
 703:../asf/sam/drivers/rtc/rtc.c **** void rtc_set_pulse_parameter(Rtc *p_rtc, uint32_t ul_time_high,
 704:../asf/sam/drivers/rtc/rtc.c **** 		uint32_t ul_period)
 705:../asf/sam/drivers/rtc/rtc.c **** {
 1246              		.loc 1 705 0
 1247              		.cfi_startproc
 1248              		@ args = 0, pretend = 0, frame = 0
 1249              		@ frame_needed = 0, uses_anonymous_args = 0
 1250              		@ link register save eliminated.
 1251              	.LVL85:
 706:../asf/sam/drivers/rtc/rtc.c **** 	uint32_t ul_temp;
 707:../asf/sam/drivers/rtc/rtc.c **** 
 708:../asf/sam/drivers/rtc/rtc.c **** 	ul_temp = p_rtc->RTC_MR;
 709:../asf/sam/drivers/rtc/rtc.c **** 
 710:../asf/sam/drivers/rtc/rtc.c **** 	ul_temp |= (RTC_MR_THIGH_Msk & ((ul_time_high) << RTC_MR_THIGH_Pos));
 1252              		.loc 1 710 0
 1253 0000 0906     		lsls	r1, r1, #24
 1254              	.LVL86:
 708:../asf/sam/drivers/rtc/rtc.c **** 
 1255              		.loc 1 708 0
 1256 0002 4368     		ldr	r3, [r0, #4]
 1257              	.LVL87:
 711:../asf/sam/drivers/rtc/rtc.c **** 	ul_temp |= (RTC_MR_TPERIOD_Msk & ((ul_period) << RTC_MR_TPERIOD_Pos));
 1258              		.loc 1 711 0
 1259 0004 1207     		lsls	r2, r2, #28
 1260              	.LVL88:
 710:../asf/sam/drivers/rtc/rtc.c **** 	ul_temp |= (RTC_MR_TPERIOD_Msk & ((ul_period) << RTC_MR_TPERIOD_Pos));
 1261              		.loc 1 710 0
 1262 0006 01F0E061 		and	r1, r1, #117440512
 1263              		.loc 1 711 0
 1264 000a 02F04052 		and	r2, r2, #805306368
 710:../asf/sam/drivers/rtc/rtc.c **** 	ul_temp |= (RTC_MR_TPERIOD_Msk & ((ul_period) << RTC_MR_TPERIOD_Pos));
 1265              		.loc 1 710 0
 1266 000e 1943     		orrs	r1, r1, r3
 1267              	.LVL89:
 1268              		.loc 1 711 0
 1269 0010 0A43     		orrs	r2, r2, r1
 1270              	.LVL90:
 712:../asf/sam/drivers/rtc/rtc.c **** 
 713:../asf/sam/drivers/rtc/rtc.c **** 	p_rtc->RTC_MR = ul_temp;
 1271              		.loc 1 713 0
 1272 0012 4260     		str	r2, [r0, #4]
 1273 0014 7047     		bx	lr
 1274              		.cfi_endproc
 1275              	.LFE161:
 1276              		.size	rtc_set_pulse_parameter, .-rtc_set_pulse_parameter
 1277 0016 00BF     		.section	.bss.cpu_irq_critical_section_counter,"aw",%nobits
 1278              		.align	2
 1279              		.type	cpu_irq_critical_section_counter, %object
 1280              		.size	cpu_irq_critical_section_counter, 4
ARM GAS  /tmp/ccmZuGH1.s 			page 38


 1281              	cpu_irq_critical_section_counter:
 1282 0000 00000000 		.space	4
 1283              		.section	.bss.cpu_irq_prev_interrupt_state,"aw",%nobits
 1284              		.type	cpu_irq_prev_interrupt_state, %object
 1285              		.size	cpu_irq_prev_interrupt_state, 1
 1286              	cpu_irq_prev_interrupt_state:
 1287 0000 00       		.space	1
 1288              		.text
 1289              	.Letext0:
 1290              		.file 2 "/usr/include/newlib/machine/_default_types.h"
 1291              		.file 3 "/usr/include/newlib/sys/_stdint.h"
 1292              		.file 4 "/home/torbjorn/eclipse-workspace/CoreNG/asf/thirdparty/CMSIS/Include/core_cm7.h"
 1293              		.file 5 "/home/torbjorn/eclipse-workspace/CoreNG/variants/same70/system_same70.h"
 1294              		.file 6 "/home/torbjorn/eclipse-workspace/CoreNG/asf/sam/utils/cmsis/same70/include/component/rtc.
 1295              		.file 7 "/usr/include/newlib/sys/lock.h"
 1296              		.file 8 "/usr/include/newlib/sys/_types.h"
 1297              		.file 9 "/usr/lib/gcc/arm-none-eabi/6.3.1/include/stddef.h"
 1298              		.file 10 "/usr/include/newlib/sys/reent.h"
 1299              		.file 11 "/usr/include/newlib/stdlib.h"
 1300              		.file 12 "/home/torbjorn/eclipse-workspace/CoreNG/asf/common/utils/interrupt/interrupt_sam_nvic.h"