ARM GAS  /tmp/ccbxFcRO.s 			page 1


   1              		.cpu cortex-m7
   2              		.eabi_attribute 28, 1
   3              		.eabi_attribute 20, 1
   4              		.eabi_attribute 21, 1
   5              		.eabi_attribute 23, 3
   6              		.eabi_attribute 24, 1
   7              		.eabi_attribute 25, 1
   8              		.eabi_attribute 26, 1
   9              		.eabi_attribute 30, 2
  10              		.eabi_attribute 34, 1
  11              		.eabi_attribute 18, 4
  12              		.file	"sd_mmc_spi.c"
  13              		.text
  14              	.Ltext0:
  15              		.cfi_sections	.debug_frame
  16              		.section	.text.sd_mmc_spi_start_write_block,"ax",%progbits
  17              		.align	1
  18              		.p2align 2,,3
  19              		.syntax unified
  20              		.thumb
  21              		.thumb_func
  22              		.fpu fpv5-d16
  23              		.type	sd_mmc_spi_start_write_block, %function
  24              	sd_mmc_spi_start_write_block:
  25              	.LFB237:
  26              		.file 1 "../libraries/Storage/sd_mmc_spi.c"
   1:../libraries/Storage/sd_mmc_spi.c **** /**
   2:../libraries/Storage/sd_mmc_spi.c ****  * \file
   3:../libraries/Storage/sd_mmc_spi.c ****  *
   4:../libraries/Storage/sd_mmc_spi.c ****  * \brief Common SPI interface for SD/MMC stack
   5:../libraries/Storage/sd_mmc_spi.c ****  *
   6:../libraries/Storage/sd_mmc_spi.c ****  * Copyright (c) 2012-2015 Atmel Corporation. All rights reserved.
   7:../libraries/Storage/sd_mmc_spi.c ****  *
   8:../libraries/Storage/sd_mmc_spi.c ****  * \asf_license_start
   9:../libraries/Storage/sd_mmc_spi.c ****  *
  10:../libraries/Storage/sd_mmc_spi.c ****  * \page License
  11:../libraries/Storage/sd_mmc_spi.c ****  *
  12:../libraries/Storage/sd_mmc_spi.c ****  * Redistribution and use in source and binary forms, with or without
  13:../libraries/Storage/sd_mmc_spi.c ****  * modification, are permitted provided that the following conditions are met:
  14:../libraries/Storage/sd_mmc_spi.c ****  *
  15:../libraries/Storage/sd_mmc_spi.c ****  * 1. Redistributions of source code must retain the above copyright notice,
  16:../libraries/Storage/sd_mmc_spi.c ****  *    this list of conditions and the following disclaimer.
  17:../libraries/Storage/sd_mmc_spi.c ****  *
  18:../libraries/Storage/sd_mmc_spi.c ****  * 2. Redistributions in binary form must reproduce the above copyright notice,
  19:../libraries/Storage/sd_mmc_spi.c ****  *    this list of conditions and the following disclaimer in the documentation
  20:../libraries/Storage/sd_mmc_spi.c ****  *    and/or other materials provided with the distribution.
  21:../libraries/Storage/sd_mmc_spi.c ****  *
  22:../libraries/Storage/sd_mmc_spi.c ****  * 3. The name of Atmel may not be used to endorse or promote products derived
  23:../libraries/Storage/sd_mmc_spi.c ****  *    from this software without specific prior written permission.
  24:../libraries/Storage/sd_mmc_spi.c ****  *
  25:../libraries/Storage/sd_mmc_spi.c ****  * 4. This software may only be redistributed and used in connection with an
  26:../libraries/Storage/sd_mmc_spi.c ****  *    Atmel microcontroller product.
  27:../libraries/Storage/sd_mmc_spi.c ****  *
  28:../libraries/Storage/sd_mmc_spi.c ****  * THIS SOFTWARE IS PROVIDED BY ATMEL "AS IS" AND ANY EXPRESS OR IMPLIED
  29:../libraries/Storage/sd_mmc_spi.c ****  * WARRANTIES, INCLUDING, BUT NOT LIMITED TO, THE IMPLIED WARRANTIES OF
  30:../libraries/Storage/sd_mmc_spi.c ****  * MERCHANTABILITY, FITNESS FOR A PARTICULAR PURPOSE AND NON-INFRINGEMENT ARE
  31:../libraries/Storage/sd_mmc_spi.c ****  * EXPRESSLY AND SPECIFICALLY DISCLAIMED. IN NO EVENT SHALL ATMEL BE LIABLE FOR
ARM GAS  /tmp/ccbxFcRO.s 			page 2


  32:../libraries/Storage/sd_mmc_spi.c ****  * ANY DIRECT, INDIRECT, INCIDENTAL, SPECIAL, EXEMPLARY, OR CONSEQUENTIAL
  33:../libraries/Storage/sd_mmc_spi.c ****  * DAMAGES (INCLUDING, BUT NOT LIMITED TO, PROCUREMENT OF SUBSTITUTE GOODS
  34:../libraries/Storage/sd_mmc_spi.c ****  * OR SERVICES; LOSS OF USE, DATA, OR PROFITS; OR BUSINESS INTERRUPTION)
  35:../libraries/Storage/sd_mmc_spi.c ****  * HOWEVER CAUSED AND ON ANY THEORY OF LIABILITY, WHETHER IN CONTRACT,
  36:../libraries/Storage/sd_mmc_spi.c ****  * STRICT LIABILITY, OR TORT (INCLUDING NEGLIGENCE OR OTHERWISE) ARISING IN
  37:../libraries/Storage/sd_mmc_spi.c ****  * ANY WAY OUT OF THE USE OF THIS SOFTWARE, EVEN IF ADVISED OF THE
  38:../libraries/Storage/sd_mmc_spi.c ****  * POSSIBILITY OF SUCH DAMAGE.
  39:../libraries/Storage/sd_mmc_spi.c ****  *
  40:../libraries/Storage/sd_mmc_spi.c ****  * \asf_license_stop
  41:../libraries/Storage/sd_mmc_spi.c ****  *
  42:../libraries/Storage/sd_mmc_spi.c ****  */
  43:../libraries/Storage/sd_mmc_spi.c **** /*
  44:../libraries/Storage/sd_mmc_spi.c ****  * Support and FAQ: visit <a href="http://www.atmel.com/design-support/">Atmel Support</a>
  45:../libraries/Storage/sd_mmc_spi.c ****  */
  46:../libraries/Storage/sd_mmc_spi.c **** #include <compiler.h>
  47:../libraries/Storage/sd_mmc_spi.c **** #include <status_codes.h>
  48:../libraries/Storage/sd_mmc_spi.c **** #include <board.h>
  49:../libraries/Storage/sd_mmc_spi.c **** #include <string.h>
  50:../libraries/Storage/sd_mmc_spi.c **** #include "Core.h"
  51:../libraries/Storage/sd_mmc_spi.c **** #include "conf_board.h"
  52:../libraries/Storage/sd_mmc_spi.c **** #include "conf_sd_mmc.h"
  53:../libraries/Storage/sd_mmc_spi.c **** #include "sd_mmc_protocol.h"
  54:../libraries/Storage/sd_mmc_spi.c **** #include "sd_mmc_spi.h"
  55:../libraries/Storage/sd_mmc_spi.c **** #include "sd_mmc.h"
  56:../libraries/Storage/sd_mmc_spi.c **** 
  57:../libraries/Storage/sd_mmc_spi.c **** #if SD_MMC_SPI_MEM_CNT != 0
  58:../libraries/Storage/sd_mmc_spi.c **** 
  59:../libraries/Storage/sd_mmc_spi.c **** /**
  60:../libraries/Storage/sd_mmc_spi.c ****  * \ingroup sd_mmc_stack_spi
  61:../libraries/Storage/sd_mmc_spi.c ****  * \defgroup sd_mmc_stack_spi_internal Common SPI interface for SD/MMC stack
  62:../libraries/Storage/sd_mmc_spi.c ****  * implementation
  63:../libraries/Storage/sd_mmc_spi.c ****  *
  64:../libraries/Storage/sd_mmc_spi.c ****  * @{
  65:../libraries/Storage/sd_mmc_spi.c ****  */
  66:../libraries/Storage/sd_mmc_spi.c **** 
  67:../libraries/Storage/sd_mmc_spi.c **** #include "../SharedSpi/SharedSpi.h"
  68:../libraries/Storage/sd_mmc_spi.c **** 
  69:../libraries/Storage/sd_mmc_spi.c **** // Enable debug information for SD/MMC SPI module
  70:../libraries/Storage/sd_mmc_spi.c **** #ifdef SD_MMC_SPI_DEBUG
  71:../libraries/Storage/sd_mmc_spi.c **** extern void debugPrintf(const char* fmt, ...);
  72:../libraries/Storage/sd_mmc_spi.c **** #define sd_mmc_spi_debug(...)      debugPrintf(__VA_ARGS__)
  73:../libraries/Storage/sd_mmc_spi.c **** #else
  74:../libraries/Storage/sd_mmc_spi.c **** #define sd_mmc_spi_debug(...)
  75:../libraries/Storage/sd_mmc_spi.c **** #endif
  76:../libraries/Storage/sd_mmc_spi.c **** 
  77:../libraries/Storage/sd_mmc_spi.c **** //! Internal global error status
  78:../libraries/Storage/sd_mmc_spi.c **** static sd_mmc_spi_errno_t sd_mmc_spi_err;
  79:../libraries/Storage/sd_mmc_spi.c **** 
  80:../libraries/Storage/sd_mmc_spi.c **** //! Slot array of SPI structures
  81:../libraries/Storage/sd_mmc_spi.c **** static struct sspi_device sd_mmc_spi_devices[SD_MMC_SPI_MEM_CNT];
  82:../libraries/Storage/sd_mmc_spi.c **** 
  83:../libraries/Storage/sd_mmc_spi.c **** //! 32 bits response of the last command
  84:../libraries/Storage/sd_mmc_spi.c **** static uint32_t sd_mmc_spi_response_32;
  85:../libraries/Storage/sd_mmc_spi.c **** //! Current position (byte) of the transfer started by mci_adtc_start()
  86:../libraries/Storage/sd_mmc_spi.c **** static uint32_t sd_mmc_spi_transfert_pos;
  87:../libraries/Storage/sd_mmc_spi.c **** //! Size block requested by last mci_adtc_start()
  88:../libraries/Storage/sd_mmc_spi.c **** static uint16_t sd_mmc_spi_block_size;
ARM GAS  /tmp/ccbxFcRO.s 			page 3


  89:../libraries/Storage/sd_mmc_spi.c **** //! Total number of block requested by last mci_adtc_start()
  90:../libraries/Storage/sd_mmc_spi.c **** static uint16_t sd_mmc_spi_nb_block;
  91:../libraries/Storage/sd_mmc_spi.c **** 
  92:../libraries/Storage/sd_mmc_spi.c **** static uint8_t sd_mmc_spi_crc7(uint8_t * buf, uint8_t size);
  93:../libraries/Storage/sd_mmc_spi.c **** static bool sd_mmc_spi_wait_busy(void);
  94:../libraries/Storage/sd_mmc_spi.c **** static bool sd_mmc_spi_start_read_block(void);
  95:../libraries/Storage/sd_mmc_spi.c **** static void sd_mmc_spi_stop_read_block(void);
  96:../libraries/Storage/sd_mmc_spi.c **** static void sd_mmc_spi_start_write_block(void);
  97:../libraries/Storage/sd_mmc_spi.c **** static bool sd_mmc_spi_stop_write_block(void);
  98:../libraries/Storage/sd_mmc_spi.c **** static bool sd_mmc_spi_stop_multiwrite_block(void);
  99:../libraries/Storage/sd_mmc_spi.c **** 
 100:../libraries/Storage/sd_mmc_spi.c **** /**
 101:../libraries/Storage/sd_mmc_spi.c ****  * \brief Calculates the CRC7
 102:../libraries/Storage/sd_mmc_spi.c ****  *
 103:../libraries/Storage/sd_mmc_spi.c ****  * \param buf     Buffer data to compute
 104:../libraries/Storage/sd_mmc_spi.c ****  * \param size    Size of buffer data
 105:../libraries/Storage/sd_mmc_spi.c ****  *
 106:../libraries/Storage/sd_mmc_spi.c ****  * \return CRC7 computed
 107:../libraries/Storage/sd_mmc_spi.c ****  */
 108:../libraries/Storage/sd_mmc_spi.c **** static uint8_t sd_mmc_spi_crc7(uint8_t * buf, uint8_t size)
 109:../libraries/Storage/sd_mmc_spi.c **** {
 110:../libraries/Storage/sd_mmc_spi.c **** 	uint8_t crc, value, i;
 111:../libraries/Storage/sd_mmc_spi.c **** 
 112:../libraries/Storage/sd_mmc_spi.c **** 	crc = 0;
 113:../libraries/Storage/sd_mmc_spi.c **** 	while (size--) {
 114:../libraries/Storage/sd_mmc_spi.c **** 		value = *buf++;
 115:../libraries/Storage/sd_mmc_spi.c **** 		for (i = 0; i < 8; i++) {
 116:../libraries/Storage/sd_mmc_spi.c **** 			crc <<= 1;
 117:../libraries/Storage/sd_mmc_spi.c **** 			if ((value & 0x80) ^ (crc & 0x80)) {
 118:../libraries/Storage/sd_mmc_spi.c **** 				crc ^= 0x09;
 119:../libraries/Storage/sd_mmc_spi.c **** 			}
 120:../libraries/Storage/sd_mmc_spi.c **** 			value <<= 1;
 121:../libraries/Storage/sd_mmc_spi.c **** 		}
 122:../libraries/Storage/sd_mmc_spi.c **** 	}
 123:../libraries/Storage/sd_mmc_spi.c **** 	crc = (crc << 1) | 1;
 124:../libraries/Storage/sd_mmc_spi.c **** 	return crc;
 125:../libraries/Storage/sd_mmc_spi.c **** }
 126:../libraries/Storage/sd_mmc_spi.c **** 
 127:../libraries/Storage/sd_mmc_spi.c **** /**
 128:../libraries/Storage/sd_mmc_spi.c ****  * \brief Wait the end of busy on DAT0 line
 129:../libraries/Storage/sd_mmc_spi.c ****  *
 130:../libraries/Storage/sd_mmc_spi.c ****  * \return true if success, otherwise false
 131:../libraries/Storage/sd_mmc_spi.c ****  */
 132:../libraries/Storage/sd_mmc_spi.c **** static bool sd_mmc_spi_wait_busy(void)
 133:../libraries/Storage/sd_mmc_spi.c **** {
 134:../libraries/Storage/sd_mmc_spi.c **** 	uint8_t line = 0xFF;
 135:../libraries/Storage/sd_mmc_spi.c **** 
 136:../libraries/Storage/sd_mmc_spi.c **** 	/* Delay before check busy
 137:../libraries/Storage/sd_mmc_spi.c **** 	 * Nbr timing minimum = 8 cylces
 138:../libraries/Storage/sd_mmc_spi.c **** 	 */
 139:../libraries/Storage/sd_mmc_spi.c **** 	sspi_read_packet(&line, 1);
 140:../libraries/Storage/sd_mmc_spi.c **** 
 141:../libraries/Storage/sd_mmc_spi.c **** 	/* Wait end of busy signal
 142:../libraries/Storage/sd_mmc_spi.c **** 	 * Nec timing: 0 to unlimited
 143:../libraries/Storage/sd_mmc_spi.c **** 	 * However a timeout is used.
 144:../libraries/Storage/sd_mmc_spi.c **** 	 * 200 000 * 8 cycles
 145:../libraries/Storage/sd_mmc_spi.c **** 	 */
ARM GAS  /tmp/ccbxFcRO.s 			page 4


 146:../libraries/Storage/sd_mmc_spi.c **** 	uint32_t nec_timeout = 200000;
 147:../libraries/Storage/sd_mmc_spi.c **** 	sspi_read_packet(&line, 1);
 148:../libraries/Storage/sd_mmc_spi.c **** 	do {
 149:../libraries/Storage/sd_mmc_spi.c **** 		sspi_read_packet(&line, 1);
 150:../libraries/Storage/sd_mmc_spi.c **** 		if (!(nec_timeout--)) {
 151:../libraries/Storage/sd_mmc_spi.c **** 			return false;
 152:../libraries/Storage/sd_mmc_spi.c **** 		}
 153:../libraries/Storage/sd_mmc_spi.c **** 	} while (line != 0xFF);
 154:../libraries/Storage/sd_mmc_spi.c **** 	return true;
 155:../libraries/Storage/sd_mmc_spi.c **** }
 156:../libraries/Storage/sd_mmc_spi.c **** 
 157:../libraries/Storage/sd_mmc_spi.c **** /**
 158:../libraries/Storage/sd_mmc_spi.c ****  * \brief Sends the correct TOKEN on the line to start a read block transfer
 159:../libraries/Storage/sd_mmc_spi.c ****  *
 160:../libraries/Storage/sd_mmc_spi.c ****  * \return true if success, otherwise false
 161:../libraries/Storage/sd_mmc_spi.c ****  *         with a update of \ref sd_mmc_spi_err.
 162:../libraries/Storage/sd_mmc_spi.c ****  */
 163:../libraries/Storage/sd_mmc_spi.c **** static bool sd_mmc_spi_start_read_block(void)
 164:../libraries/Storage/sd_mmc_spi.c **** {
 165:../libraries/Storage/sd_mmc_spi.c **** 	uint32_t i;
 166:../libraries/Storage/sd_mmc_spi.c **** 	uint8_t token;
 167:../libraries/Storage/sd_mmc_spi.c **** 
 168:../libraries/Storage/sd_mmc_spi.c **** 	Assert(!(sd_mmc_spi_transfert_pos % sd_mmc_spi_block_size));
 169:../libraries/Storage/sd_mmc_spi.c **** 
 170:../libraries/Storage/sd_mmc_spi.c **** 	/* Wait for start data token:
 171:../libraries/Storage/sd_mmc_spi.c **** 	 * The read timeout is the Nac timing.
 172:../libraries/Storage/sd_mmc_spi.c **** 	 * Nac must be computed trough CSD values,
 173:../libraries/Storage/sd_mmc_spi.c **** 	 * or it is 100ms for SDHC / SDXC
 174:../libraries/Storage/sd_mmc_spi.c **** 	 * Compute the maximum timeout:
 175:../libraries/Storage/sd_mmc_spi.c **** 	 * Frequency maximum = 25MHz
 176:../libraries/Storage/sd_mmc_spi.c **** 	 * 1 byte = 8 cycles
 177:../libraries/Storage/sd_mmc_spi.c **** 	 * 100ms = 312500 x sd_mmc_spi_drv_read_packet() maximum
 178:../libraries/Storage/sd_mmc_spi.c **** 	 */
 179:../libraries/Storage/sd_mmc_spi.c **** 	token = 0;
 180:../libraries/Storage/sd_mmc_spi.c **** 	i = 500000;
 181:../libraries/Storage/sd_mmc_spi.c **** 	do {
 182:../libraries/Storage/sd_mmc_spi.c **** 		if (i-- == 0) {
 183:../libraries/Storage/sd_mmc_spi.c **** 			sd_mmc_spi_err = SD_MMC_SPI_ERR_READ_TIMEOUT;
 184:../libraries/Storage/sd_mmc_spi.c **** 			sd_mmc_spi_debug("%s: Read blocks timeout\n\r", __func__);
 185:../libraries/Storage/sd_mmc_spi.c **** 			return false;
 186:../libraries/Storage/sd_mmc_spi.c **** 		}
 187:../libraries/Storage/sd_mmc_spi.c **** 		sspi_read_packet(&token, 1);
 188:../libraries/Storage/sd_mmc_spi.c **** 		if (SPI_TOKEN_DATA_ERROR_VALID(token)) {
 189:../libraries/Storage/sd_mmc_spi.c **** 			Assert(SPI_TOKEN_DATA_ERROR_ERRORS & token);
 190:../libraries/Storage/sd_mmc_spi.c **** 			if (token & (SPI_TOKEN_DATA_ERROR_ERROR
 191:../libraries/Storage/sd_mmc_spi.c **** 					| SPI_TOKEN_DATA_ERROR_ECC_ERROR
 192:../libraries/Storage/sd_mmc_spi.c **** 					| SPI_TOKEN_DATA_ERROR_CC_ERROR)) {
 193:../libraries/Storage/sd_mmc_spi.c **** 				sd_mmc_spi_debug("%s: CRC data error token\n\r", __func__);
 194:../libraries/Storage/sd_mmc_spi.c **** 				sd_mmc_spi_err = SD_MMC_SPI_ERR_READ_CRC;
 195:../libraries/Storage/sd_mmc_spi.c **** 			} else {
 196:../libraries/Storage/sd_mmc_spi.c **** 				sd_mmc_spi_debug("%s: Out of range data error token\n\r", __func__);
 197:../libraries/Storage/sd_mmc_spi.c **** 				sd_mmc_spi_err = SD_MMC_SPI_ERR_OUT_OF_RANGE;
 198:../libraries/Storage/sd_mmc_spi.c **** 			}
 199:../libraries/Storage/sd_mmc_spi.c **** 			return false;
 200:../libraries/Storage/sd_mmc_spi.c **** 		}
 201:../libraries/Storage/sd_mmc_spi.c **** 	} while (token != SPI_TOKEN_SINGLE_MULTI_READ);
 202:../libraries/Storage/sd_mmc_spi.c **** 
ARM GAS  /tmp/ccbxFcRO.s 			page 5


 203:../libraries/Storage/sd_mmc_spi.c **** 	return true;
 204:../libraries/Storage/sd_mmc_spi.c **** }
 205:../libraries/Storage/sd_mmc_spi.c **** 
 206:../libraries/Storage/sd_mmc_spi.c **** /**
 207:../libraries/Storage/sd_mmc_spi.c ****  * \brief Executed the end of a read block transfer
 208:../libraries/Storage/sd_mmc_spi.c ****  */
 209:../libraries/Storage/sd_mmc_spi.c **** static void sd_mmc_spi_stop_read_block(void)
 210:../libraries/Storage/sd_mmc_spi.c **** {
 211:../libraries/Storage/sd_mmc_spi.c **** 	uint8_t crc[2];
 212:../libraries/Storage/sd_mmc_spi.c **** 	// Read 16-bit CRC (not cheked)
 213:../libraries/Storage/sd_mmc_spi.c **** 	sspi_read_packet(crc, 2);
 214:../libraries/Storage/sd_mmc_spi.c **** }
 215:../libraries/Storage/sd_mmc_spi.c **** 
 216:../libraries/Storage/sd_mmc_spi.c **** /**
 217:../libraries/Storage/sd_mmc_spi.c ****  * \brief Sends the correct TOKEN on the line to start a write block transfer
 218:../libraries/Storage/sd_mmc_spi.c ****  */
 219:../libraries/Storage/sd_mmc_spi.c **** static void sd_mmc_spi_start_write_block(void)
 220:../libraries/Storage/sd_mmc_spi.c **** {
  27              		.loc 1 220 0
  28              		.cfi_startproc
  29              		@ args = 0, pretend = 0, frame = 8
  30              		@ frame_needed = 0, uses_anonymous_args = 0
  31 0000 00B5     		push	{lr}
  32              		.cfi_def_cfa_offset 4
  33              		.cfi_offset 14, -4
  34 0002 83B0     		sub	sp, sp, #12
  35              		.cfi_def_cfa_offset 16
 221:../libraries/Storage/sd_mmc_spi.c **** 	uint8_t dummy = 0xFF;
  36              		.loc 1 221 0
  37 0004 FF23     		movs	r3, #255
  38              	.LBB64:
  39              	.LBB65:
  40              		.file 2 "../libraries/Storage/../SharedSpi/SharedSpi.h"
   1:../libraries/Storage/../SharedSpi/SharedSpi.h **** // ASF 3.27.0
   2:../libraries/Storage/../SharedSpi/SharedSpi.h **** 
   3:../libraries/Storage/../SharedSpi/SharedSpi.h **** // Note:
   4:../libraries/Storage/../SharedSpi/SharedSpi.h **** // ASF 3.31 includes spi_master.c, .h in folder common/services/spi/sam_spi.
   5:../libraries/Storage/../SharedSpi/SharedSpi.h **** // Unfortunately, that version assumes that only he "official" SPI CS pins are used.
   6:../libraries/Storage/../SharedSpi/SharedSpi.h **** // So instead we use this version, which allows any pin to be used for CS.
   7:../libraries/Storage/../SharedSpi/SharedSpi.h **** 
   8:../libraries/Storage/../SharedSpi/SharedSpi.h **** /**
   9:../libraries/Storage/../SharedSpi/SharedSpi.h ****  * \file
  10:../libraries/Storage/../SharedSpi/SharedSpi.h ****  *
  11:../libraries/Storage/../SharedSpi/SharedSpi.h ****  * \brief Shared SPI bus services for Duet and other Atmel SAM-based controller electronics
  12:../libraries/Storage/../SharedSpi/SharedSpi.h ****  *
  13:../libraries/Storage/../SharedSpi/SharedSpi.h ****  * This module provides access to the SPI bus used to access peripheral devices in RepRapFirmware, 
  14:../libraries/Storage/../SharedSpi/SharedSpi.h ****  * Depending on the board, we may use either the main SPI channel or one of the USARTs in SPI mode.
  15:../libraries/Storage/../SharedSpi/SharedSpi.h ****  *
  16:../libraries/Storage/../SharedSpi/SharedSpi.h ****  */
  17:../libraries/Storage/../SharedSpi/SharedSpi.h **** 
  18:../libraries/Storage/../SharedSpi/SharedSpi.h **** #ifndef _GSPI_MASTER_H_
  19:../libraries/Storage/../SharedSpi/SharedSpi.h **** #define _GSPI_MASTER_H_
  20:../libraries/Storage/../SharedSpi/SharedSpi.h **** 
  21:../libraries/Storage/../SharedSpi/SharedSpi.h **** #include "compiler.h"
  22:../libraries/Storage/../SharedSpi/SharedSpi.h **** #include "spi/spi.h"
  23:../libraries/Storage/../SharedSpi/SharedSpi.h **** 
  24:../libraries/Storage/../SharedSpi/SharedSpi.h **** #if defined(USE_SAM3X_DMAC)
ARM GAS  /tmp/ccbxFcRO.s 			page 6


  25:../libraries/Storage/../SharedSpi/SharedSpi.h **** #include "dmac/dmac.h"
  26:../libraries/Storage/../SharedSpi/SharedSpi.h **** #include "pmc/pmc.h"
  27:../libraries/Storage/../SharedSpi/SharedSpi.h **** #endif
  28:../libraries/Storage/../SharedSpi/SharedSpi.h **** 
  29:../libraries/Storage/../SharedSpi/SharedSpi.h **** /**
  30:../libraries/Storage/../SharedSpi/SharedSpi.h ****  * \brief Clock phase.
  31:../libraries/Storage/../SharedSpi/SharedSpi.h ****  */
  32:../libraries/Storage/../SharedSpi/SharedSpi.h **** #define SPI_CPHA  (1 << 0)
  33:../libraries/Storage/../SharedSpi/SharedSpi.h **** 
  34:../libraries/Storage/../SharedSpi/SharedSpi.h **** /**
  35:../libraries/Storage/../SharedSpi/SharedSpi.h ****  * \brief Clock polarity.
  36:../libraries/Storage/../SharedSpi/SharedSpi.h ****  */
  37:../libraries/Storage/../SharedSpi/SharedSpi.h **** #define SPI_CPOL  (1 << 1)
  38:../libraries/Storage/../SharedSpi/SharedSpi.h **** 
  39:../libraries/Storage/../SharedSpi/SharedSpi.h **** /**
  40:../libraries/Storage/../SharedSpi/SharedSpi.h ****  * \brief SPI mode 0.
  41:../libraries/Storage/../SharedSpi/SharedSpi.h ****  */
  42:../libraries/Storage/../SharedSpi/SharedSpi.h **** #define SPI_MODE_0  0
  43:../libraries/Storage/../SharedSpi/SharedSpi.h **** /**
  44:../libraries/Storage/../SharedSpi/SharedSpi.h ****  * \brief SPI mode 1.
  45:../libraries/Storage/../SharedSpi/SharedSpi.h ****  */
  46:../libraries/Storage/../SharedSpi/SharedSpi.h **** #define SPI_MODE_1  (SPI_CPHA)
  47:../libraries/Storage/../SharedSpi/SharedSpi.h **** /**
  48:../libraries/Storage/../SharedSpi/SharedSpi.h ****  * \brief SPI mode 2.
  49:../libraries/Storage/../SharedSpi/SharedSpi.h ****  */
  50:../libraries/Storage/../SharedSpi/SharedSpi.h **** #define SPI_MODE_2  (SPI_CPOL)
  51:../libraries/Storage/../SharedSpi/SharedSpi.h **** /**
  52:../libraries/Storage/../SharedSpi/SharedSpi.h ****  * \brief SPI mode 3.
  53:../libraries/Storage/../SharedSpi/SharedSpi.h ****  */
  54:../libraries/Storage/../SharedSpi/SharedSpi.h **** #define SPI_MODE_3  (SPI_CPOL | SPI_CPHA)
  55:../libraries/Storage/../SharedSpi/SharedSpi.h **** 
  56:../libraries/Storage/../SharedSpi/SharedSpi.h **** //! \brief Polled SPI device definition.
  57:../libraries/Storage/../SharedSpi/SharedSpi.h **** struct sspi_device {
  58:../libraries/Storage/../SharedSpi/SharedSpi.h **** 	Pin csPin;
  59:../libraries/Storage/../SharedSpi/SharedSpi.h **** 	bool csPolarity;
  60:../libraries/Storage/../SharedSpi/SharedSpi.h **** 	uint8_t bitsPerTransferControl;
  61:../libraries/Storage/../SharedSpi/SharedSpi.h **** 	uint8_t spiMode;
  62:../libraries/Storage/../SharedSpi/SharedSpi.h **** 	uint32_t clockFrequency;
  63:../libraries/Storage/../SharedSpi/SharedSpi.h **** };
  64:../libraries/Storage/../SharedSpi/SharedSpi.h **** 
  65:../libraries/Storage/../SharedSpi/SharedSpi.h **** #ifdef __cplusplus
  66:../libraries/Storage/../SharedSpi/SharedSpi.h **** // Use C linkage because these functions are called from the ASF SPI SD card code
  67:../libraries/Storage/../SharedSpi/SharedSpi.h **** extern "C" {
  68:../libraries/Storage/../SharedSpi/SharedSpi.h **** #endif
  69:../libraries/Storage/../SharedSpi/SharedSpi.h **** 
  70:../libraries/Storage/../SharedSpi/SharedSpi.h **** /** \brief Initialize the SPI in master mode.
  71:../libraries/Storage/../SharedSpi/SharedSpi.h ****  *
  72:../libraries/Storage/../SharedSpi/SharedSpi.h ****  */
  73:../libraries/Storage/../SharedSpi/SharedSpi.h **** extern void sspi_master_init(struct sspi_device *device, uint32_t bits);
  74:../libraries/Storage/../SharedSpi/SharedSpi.h **** 
  75:../libraries/Storage/../SharedSpi/SharedSpi.h **** /**
  76:../libraries/Storage/../SharedSpi/SharedSpi.h ****  * \brief Set up an SPI device.
  77:../libraries/Storage/../SharedSpi/SharedSpi.h ****  *
  78:../libraries/Storage/../SharedSpi/SharedSpi.h ****  * The returned device descriptor structure must be passed to the driver
  79:../libraries/Storage/../SharedSpi/SharedSpi.h ****  * whenever that device should be used as current slave device.
  80:../libraries/Storage/../SharedSpi/SharedSpi.h ****  *
  81:../libraries/Storage/../SharedSpi/SharedSpi.h ****  * \param device    Pointer to SPI device struct that should be initialized.
ARM GAS  /tmp/ccbxFcRO.s 			page 7


  82:../libraries/Storage/../SharedSpi/SharedSpi.h ****  */
  83:../libraries/Storage/../SharedSpi/SharedSpi.h **** extern void sspi_master_setup_device(const struct sspi_device *device);
  84:../libraries/Storage/../SharedSpi/SharedSpi.h **** 
  85:../libraries/Storage/../SharedSpi/SharedSpi.h **** /**
  86:../libraries/Storage/../SharedSpi/SharedSpi.h ****  * \brief Select the given device on the SPI bus.
  87:../libraries/Storage/../SharedSpi/SharedSpi.h ****  *
  88:../libraries/Storage/../SharedSpi/SharedSpi.h ****  * Set device specific setting and call board chip select.
  89:../libraries/Storage/../SharedSpi/SharedSpi.h ****  *
  90:../libraries/Storage/../SharedSpi/SharedSpi.h ****  * \param device SPI device.
  91:../libraries/Storage/../SharedSpi/SharedSpi.h ****  *
  92:../libraries/Storage/../SharedSpi/SharedSpi.h ****  */
  93:../libraries/Storage/../SharedSpi/SharedSpi.h **** extern void sspi_select_device(const struct sspi_device *device);
  94:../libraries/Storage/../SharedSpi/SharedSpi.h **** 
  95:../libraries/Storage/../SharedSpi/SharedSpi.h **** /**
  96:../libraries/Storage/../SharedSpi/SharedSpi.h ****  * \brief Deselect the given device on the SPI bus.
  97:../libraries/Storage/../SharedSpi/SharedSpi.h ****  *
  98:../libraries/Storage/../SharedSpi/SharedSpi.h ****  * Call board chip deselect.
  99:../libraries/Storage/../SharedSpi/SharedSpi.h ****  *
 100:../libraries/Storage/../SharedSpi/SharedSpi.h ****  * \param device SPI device.
 101:../libraries/Storage/../SharedSpi/SharedSpi.h ****  *
 102:../libraries/Storage/../SharedSpi/SharedSpi.h ****  * \pre SPI device must be selected with spi_select_device() first and in 8-bit data mode.
 103:../libraries/Storage/../SharedSpi/SharedSpi.h ****  */
 104:../libraries/Storage/../SharedSpi/SharedSpi.h **** extern void sspi_deselect_device(const struct sspi_device *device);
 105:../libraries/Storage/../SharedSpi/SharedSpi.h **** 
 106:../libraries/Storage/../SharedSpi/SharedSpi.h **** /**
 107:../libraries/Storage/../SharedSpi/SharedSpi.h ****  * \brief Send and receive a sequence of bytes from the shared SPI device.
 108:../libraries/Storage/../SharedSpi/SharedSpi.h ****  *
 109:../libraries/Storage/../SharedSpi/SharedSpi.h ****  * \param tx_data   Data buffer to send.
 110:../libraries/Storage/../SharedSpi/SharedSpi.h ****  * \param rx_data   Data buffer to read.
 111:../libraries/Storage/../SharedSpi/SharedSpi.h ****  * \param len       Length of data to be read.
 112:../libraries/Storage/../SharedSpi/SharedSpi.h ****  *
 113:../libraries/Storage/../SharedSpi/SharedSpi.h ****  * \pre SPI device must be selected with spi_select_device() first.
 114:../libraries/Storage/../SharedSpi/SharedSpi.h ****  */
 115:../libraries/Storage/../SharedSpi/SharedSpi.h **** spi_status_t sspi_transceive_packet(const uint8_t *tx_data, uint8_t *rx_data, size_t len);
 116:../libraries/Storage/../SharedSpi/SharedSpi.h **** 
 117:../libraries/Storage/../SharedSpi/SharedSpi.h **** // Receive a packet
 118:../libraries/Storage/../SharedSpi/SharedSpi.h **** static inline spi_status_t sspi_read_packet(uint8_t *buf, size_t len)
 119:../libraries/Storage/../SharedSpi/SharedSpi.h **** {
 120:../libraries/Storage/../SharedSpi/SharedSpi.h **** 	return sspi_transceive_packet(NULL, buf, len);
 121:../libraries/Storage/../SharedSpi/SharedSpi.h **** }
 122:../libraries/Storage/../SharedSpi/SharedSpi.h **** 
 123:../libraries/Storage/../SharedSpi/SharedSpi.h **** // Send a packet
 124:../libraries/Storage/../SharedSpi/SharedSpi.h **** static inline spi_status_t sspi_write_packet(uint8_t *buf, size_t len)
 125:../libraries/Storage/../SharedSpi/SharedSpi.h **** {
 126:../libraries/Storage/../SharedSpi/SharedSpi.h **** 	return sspi_transceive_packet(buf, NULL, len);
  41              		.loc 2 126 0
  42 0006 0122     		movs	r2, #1
  43 0008 0021     		movs	r1, #0
  44              	.LBE65:
  45              	.LBE64:
  46              		.loc 1 221 0
  47 000a 02A8     		add	r0, sp, #8
  48 000c 00F8023D 		strb	r3, [r0, #-2]!
  49              	.LVL0:
  50              	.LBB67:
  51              	.LBB66:
  52              		.loc 2 126 0
ARM GAS  /tmp/ccbxFcRO.s 			page 8


  53 0010 FFF7FEFF 		bl	sspi_transceive_packet
  54              	.LVL1:
  55              	.LBE66:
  56              	.LBE67:
 222:../libraries/Storage/sd_mmc_spi.c **** 	Assert(!(sd_mmc_spi_transfert_pos % sd_mmc_spi_block_size));
 223:../libraries/Storage/sd_mmc_spi.c **** 	// Delay before start write block:
 224:../libraries/Storage/sd_mmc_spi.c **** 	// Nwr timing minimum = 8 cycles
 225:../libraries/Storage/sd_mmc_spi.c **** 	sspi_write_packet(&dummy, 1);
 226:../libraries/Storage/sd_mmc_spi.c **** 	// Send start token
 227:../libraries/Storage/sd_mmc_spi.c **** 	uint8_t token;
 228:../libraries/Storage/sd_mmc_spi.c **** 	if (1 == sd_mmc_spi_nb_block) {
  57              		.loc 1 228 0
  58 0014 084B     		ldr	r3, .L6
  59              	.LBB68:
  60              	.LBB69:
  61              		.loc 2 126 0
  62 0016 0122     		movs	r2, #1
  63 0018 0021     		movs	r1, #0
  64              	.LBE69:
  65              	.LBE68:
  66              		.loc 1 228 0
  67 001a 1B88     		ldrh	r3, [r3]
  68              	.LBB72:
  69              	.LBB70:
  70              		.loc 2 126 0
  71 001c 0DF10700 		add	r0, sp, #7
  72              	.LVL2:
  73              	.LBE70:
  74              	.LBE72:
  75              		.loc 1 228 0
  76 0020 012B     		cmp	r3, #1
 229:../libraries/Storage/sd_mmc_spi.c **** 		token = SPI_TOKEN_SINGLE_WRITE;
  77              		.loc 1 229 0
  78 0022 0CBF     		ite	eq
  79 0024 FE23     		moveq	r3, #254
 230:../libraries/Storage/sd_mmc_spi.c **** 	} else {
 231:../libraries/Storage/sd_mmc_spi.c **** 		token = SPI_TOKEN_MULTI_WRITE;
  80              		.loc 1 231 0
  81 0026 FC23     		movne	r3, #252
  82 0028 8DF80730 		strb	r3, [sp, #7]
  83              	.LBB73:
  84              	.LBB71:
  85              		.loc 2 126 0
  86 002c FFF7FEFF 		bl	sspi_transceive_packet
  87              	.LVL3:
  88              	.LBE71:
  89              	.LBE73:
 232:../libraries/Storage/sd_mmc_spi.c **** 	}
 233:../libraries/Storage/sd_mmc_spi.c **** 	sspi_write_packet(&token, 1);
 234:../libraries/Storage/sd_mmc_spi.c **** }
  90              		.loc 1 234 0
  91 0030 03B0     		add	sp, sp, #12
  92              		.cfi_def_cfa_offset 4
  93              		@ sp needed
  94 0032 5DF804FB 		ldr	pc, [sp], #4
  95              	.L7:
  96 0036 00BF     		.align	2
ARM GAS  /tmp/ccbxFcRO.s 			page 9


  97              	.L6:
  98 0038 00000000 		.word	.LANCHOR0
  99              		.cfi_endproc
 100              	.LFE237:
 101              		.size	sd_mmc_spi_start_write_block, .-sd_mmc_spi_start_write_block
 102              		.section	.text.sd_mmc_spi_wait_busy,"ax",%progbits
 103              		.align	1
 104              		.p2align 2,,3
 105              		.syntax unified
 106              		.thumb
 107              		.thumb_func
 108              		.fpu fpv5-d16
 109              		.type	sd_mmc_spi_wait_busy, %function
 110              	sd_mmc_spi_wait_busy:
 111              	.LFB234:
 133:../libraries/Storage/sd_mmc_spi.c **** 	uint8_t line = 0xFF;
 112              		.loc 1 133 0
 113              		.cfi_startproc
 114              		@ args = 0, pretend = 0, frame = 8
 115              		@ frame_needed = 0, uses_anonymous_args = 0
 116 0000 30B5     		push	{r4, r5, lr}
 117              		.cfi_def_cfa_offset 12
 118              		.cfi_offset 4, -12
 119              		.cfi_offset 5, -8
 120              		.cfi_offset 14, -4
 121 0002 83B0     		sub	sp, sp, #12
 122              		.cfi_def_cfa_offset 24
 134:../libraries/Storage/sd_mmc_spi.c **** 
 123              		.loc 1 134 0
 124 0004 FF23     		movs	r3, #255
 125              	.LBB74:
 126              	.LBB75:
 120:../libraries/Storage/../SharedSpi/SharedSpi.h **** }
 127              		.loc 2 120 0
 128 0006 0122     		movs	r2, #1
 129 0008 0020     		movs	r0, #0
 130              	.LBE75:
 131              	.LBE74:
 134:../libraries/Storage/sd_mmc_spi.c **** 
 132              		.loc 1 134 0
 133 000a 02AD     		add	r5, sp, #8
 134              	.LBB77:
 135              	.LBB78:
 120:../libraries/Storage/../SharedSpi/SharedSpi.h **** }
 136              		.loc 2 120 0
 137 000c 104C     		ldr	r4, .L14
 138              	.LBE78:
 139              	.LBE77:
 134:../libraries/Storage/sd_mmc_spi.c **** 
 140              		.loc 1 134 0
 141 000e 05F8013D 		strb	r3, [r5, #-1]!
 142              	.LVL4:
 143              	.LBB81:
 144              	.LBB76:
 120:../libraries/Storage/../SharedSpi/SharedSpi.h **** }
 145              		.loc 2 120 0
 146 0012 2946     		mov	r1, r5
ARM GAS  /tmp/ccbxFcRO.s 			page 10


 147 0014 FFF7FEFF 		bl	sspi_transceive_packet
 148              	.LVL5:
 149              	.LBE76:
 150              	.LBE81:
 151              	.LBB82:
 152              	.LBB83:
 153 0018 2946     		mov	r1, r5
 154 001a 0122     		movs	r2, #1
 155 001c 0020     		movs	r0, #0
 156 001e FFF7FEFF 		bl	sspi_transceive_packet
 157              	.LVL6:
 158              	.LBE83:
 159              	.LBE82:
 160              	.LBB84:
 161              	.LBB79:
 162 0022 2946     		mov	r1, r5
 163 0024 0122     		movs	r2, #1
 164 0026 0020     		movs	r0, #0
 165 0028 FFF7FEFF 		bl	sspi_transceive_packet
 166              	.LVL7:
 167 002c 03E0     		b	.L9
 168              	.LVL8:
 169              	.L11:
 170 002e FFF7FEFF 		bl	sspi_transceive_packet
 171              	.LVL9:
 172              	.LBE79:
 173              	.LBE84:
 150:../libraries/Storage/sd_mmc_spi.c **** 			return false;
 174              		.loc 1 150 0
 175 0032 013C     		subs	r4, r4, #1
 176              	.LVL10:
 177 0034 09D0     		beq	.L12
 178              	.LVL11:
 179              	.L9:
 153:../libraries/Storage/sd_mmc_spi.c **** 	return true;
 180              		.loc 1 153 0
 181 0036 9DF80730 		ldrb	r3, [sp, #7]	@ zero_extendqisi2
 182              	.LBB85:
 183              	.LBB80:
 120:../libraries/Storage/../SharedSpi/SharedSpi.h **** }
 184              		.loc 2 120 0
 185 003a 0122     		movs	r2, #1
 186 003c 2946     		mov	r1, r5
 187 003e 0020     		movs	r0, #0
 188              	.LBE80:
 189              	.LBE85:
 153:../libraries/Storage/sd_mmc_spi.c **** 	return true;
 190              		.loc 1 153 0
 191 0040 FF2B     		cmp	r3, #255
 192 0042 F4D1     		bne	.L11
 154:../libraries/Storage/sd_mmc_spi.c **** }
 193              		.loc 1 154 0
 194 0044 1046     		mov	r0, r2
 155:../libraries/Storage/sd_mmc_spi.c **** 
 195              		.loc 1 155 0
 196 0046 03B0     		add	sp, sp, #12
 197              		.cfi_remember_state
ARM GAS  /tmp/ccbxFcRO.s 			page 11


 198              		.cfi_def_cfa_offset 12
 199              		@ sp needed
 200 0048 30BD     		pop	{r4, r5, pc}
 201              	.LVL12:
 202              	.L12:
 203              		.cfi_restore_state
 151:../libraries/Storage/sd_mmc_spi.c **** 		}
 204              		.loc 1 151 0
 205 004a 2046     		mov	r0, r4
 155:../libraries/Storage/sd_mmc_spi.c **** 
 206              		.loc 1 155 0
 207 004c 03B0     		add	sp, sp, #12
 208              		.cfi_def_cfa_offset 12
 209              		@ sp needed
 210 004e 30BD     		pop	{r4, r5, pc}
 211              	.LVL13:
 212              	.L15:
 213              		.align	2
 214              	.L14:
 215 0050 400D0300 		.word	200000
 216              		.cfi_endproc
 217              	.LFE234:
 218              		.size	sd_mmc_spi_wait_busy, .-sd_mmc_spi_wait_busy
 219              		.section	.text.sd_mmc_spi_start_read_block,"ax",%progbits
 220              		.align	1
 221              		.p2align 2,,3
 222              		.syntax unified
 223              		.thumb
 224              		.thumb_func
 225              		.fpu fpv5-d16
 226              		.type	sd_mmc_spi_start_read_block, %function
 227              	sd_mmc_spi_start_read_block:
 228              	.LFB235:
 164:../libraries/Storage/sd_mmc_spi.c **** 	uint32_t i;
 229              		.loc 1 164 0
 230              		.cfi_startproc
 231              		@ args = 0, pretend = 0, frame = 8
 232              		@ frame_needed = 0, uses_anonymous_args = 0
 233 0000 30B5     		push	{r4, r5, lr}
 234              		.cfi_def_cfa_offset 12
 235              		.cfi_offset 4, -12
 236              		.cfi_offset 5, -8
 237              		.cfi_offset 14, -4
 238 0002 83B0     		sub	sp, sp, #12
 239              		.cfi_def_cfa_offset 24
 179:../libraries/Storage/sd_mmc_spi.c **** 	i = 500000;
 240              		.loc 1 179 0
 241 0004 0023     		movs	r3, #0
 242 0006 144C     		ldr	r4, .L26
 243 0008 02AD     		add	r5, sp, #8
 244 000a 05F8013D 		strb	r3, [r5, #-1]!
 245              	.LVL14:
 246 000e 03E0     		b	.L17
 247              	.LVL15:
 248              	.L19:
 201:../libraries/Storage/sd_mmc_spi.c **** 
 249              		.loc 1 201 0
ARM GAS  /tmp/ccbxFcRO.s 			page 12


 250 0010 FE2B     		cmp	r3, #254
 251 0012 14D0     		beq	.L24
 182:../libraries/Storage/sd_mmc_spi.c **** 			sd_mmc_spi_err = SD_MMC_SPI_ERR_READ_TIMEOUT;
 252              		.loc 1 182 0
 253 0014 013C     		subs	r4, r4, #1
 254              	.LVL16:
 255 0016 19D0     		beq	.L25
 256              	.LVL17:
 257              	.L17:
 258              	.LBB86:
 259              	.LBB87:
 120:../libraries/Storage/../SharedSpi/SharedSpi.h **** }
 260              		.loc 2 120 0
 261 0018 0122     		movs	r2, #1
 262 001a 2946     		mov	r1, r5
 263 001c 0020     		movs	r0, #0
 264 001e FFF7FEFF 		bl	sspi_transceive_packet
 265              	.LVL18:
 266              	.LBE87:
 267              	.LBE86:
 188:../libraries/Storage/sd_mmc_spi.c **** 			Assert(SPI_TOKEN_DATA_ERROR_ERRORS & token);
 268              		.loc 1 188 0
 269 0022 9DF80730 		ldrb	r3, [sp, #7]	@ zero_extendqisi2
 270 0026 13F0F002 		ands	r2, r3, #240
 271 002a F1D1     		bne	.L19
 190:../libraries/Storage/sd_mmc_spi.c **** 					| SPI_TOKEN_DATA_ERROR_ECC_ERROR
 272              		.loc 1 190 0
 273 002c 13F00700 		ands	r0, r3, #7
 194:../libraries/Storage/sd_mmc_spi.c **** 			} else {
 274              		.loc 1 194 0
 275 0030 0A4B     		ldr	r3, .L26+4
 190:../libraries/Storage/sd_mmc_spi.c **** 					| SPI_TOKEN_DATA_ERROR_ECC_ERROR
 276              		.loc 1 190 0
 277 0032 07D0     		beq	.L20
 194:../libraries/Storage/sd_mmc_spi.c **** 			} else {
 278              		.loc 1 194 0
 279 0034 0721     		movs	r1, #7
 199:../libraries/Storage/sd_mmc_spi.c **** 		}
 280              		.loc 1 199 0
 281 0036 1046     		mov	r0, r2
 194:../libraries/Storage/sd_mmc_spi.c **** 			} else {
 282              		.loc 1 194 0
 283 0038 1970     		strb	r1, [r3]
 204:../libraries/Storage/sd_mmc_spi.c **** 
 284              		.loc 1 204 0
 285 003a 03B0     		add	sp, sp, #12
 286              		.cfi_remember_state
 287              		.cfi_def_cfa_offset 12
 288              		@ sp needed
 289 003c 30BD     		pop	{r4, r5, pc}
 290              	.LVL19:
 291              	.L24:
 292              		.cfi_restore_state
 203:../libraries/Storage/sd_mmc_spi.c **** }
 293              		.loc 1 203 0
 294 003e 0120     		movs	r0, #1
 204:../libraries/Storage/sd_mmc_spi.c **** 
ARM GAS  /tmp/ccbxFcRO.s 			page 13


 295              		.loc 1 204 0
 296 0040 03B0     		add	sp, sp, #12
 297              		.cfi_remember_state
 298              		.cfi_def_cfa_offset 12
 299              		@ sp needed
 300 0042 30BD     		pop	{r4, r5, pc}
 301              	.LVL20:
 302              	.L20:
 303              		.cfi_restore_state
 197:../libraries/Storage/sd_mmc_spi.c **** 			}
 304              		.loc 1 197 0
 305 0044 0B22     		movs	r2, #11
 306 0046 1A70     		strb	r2, [r3]
 204:../libraries/Storage/sd_mmc_spi.c **** 
 307              		.loc 1 204 0
 308 0048 03B0     		add	sp, sp, #12
 309              		.cfi_remember_state
 310              		.cfi_def_cfa_offset 12
 311              		@ sp needed
 312 004a 30BD     		pop	{r4, r5, pc}
 313              	.LVL21:
 314              	.L25:
 315              		.cfi_restore_state
 183:../libraries/Storage/sd_mmc_spi.c **** 			sd_mmc_spi_debug("%s: Read blocks timeout\n\r", __func__);
 316              		.loc 1 183 0
 317 004c 034B     		ldr	r3, .L26+4
 318 004e 0422     		movs	r2, #4
 185:../libraries/Storage/sd_mmc_spi.c **** 		}
 319              		.loc 1 185 0
 320 0050 2046     		mov	r0, r4
 183:../libraries/Storage/sd_mmc_spi.c **** 			sd_mmc_spi_debug("%s: Read blocks timeout\n\r", __func__);
 321              		.loc 1 183 0
 322 0052 1A70     		strb	r2, [r3]
 204:../libraries/Storage/sd_mmc_spi.c **** 
 323              		.loc 1 204 0
 324 0054 03B0     		add	sp, sp, #12
 325              		.cfi_def_cfa_offset 12
 326              		@ sp needed
 327 0056 30BD     		pop	{r4, r5, pc}
 328              	.LVL22:
 329              	.L27:
 330              		.align	2
 331              	.L26:
 332 0058 20A10700 		.word	500000
 333 005c 00000000 		.word	.LANCHOR1
 334              		.cfi_endproc
 335              	.LFE235:
 336              		.size	sd_mmc_spi_start_read_block, .-sd_mmc_spi_start_read_block
 337              		.section	.text.sd_mmc_spi_stop_write_block,"ax",%progbits
 338              		.align	1
 339              		.p2align 2,,3
 340              		.syntax unified
 341              		.thumb
 342              		.thumb_func
 343              		.fpu fpv5-d16
 344              		.type	sd_mmc_spi_stop_write_block, %function
 345              	sd_mmc_spi_stop_write_block:
ARM GAS  /tmp/ccbxFcRO.s 			page 14


 346              	.LFB238:
 235:../libraries/Storage/sd_mmc_spi.c **** 
 236:../libraries/Storage/sd_mmc_spi.c **** /**
 237:../libraries/Storage/sd_mmc_spi.c ****  * \brief Waits the TOKEN which notify the end of write block transfer
 238:../libraries/Storage/sd_mmc_spi.c ****  *
 239:../libraries/Storage/sd_mmc_spi.c ****  * \return true if success, otherwise false
 240:../libraries/Storage/sd_mmc_spi.c ****  *         with a update of \ref sd_mmc_spi_err.
 241:../libraries/Storage/sd_mmc_spi.c ****  */
 242:../libraries/Storage/sd_mmc_spi.c **** static bool sd_mmc_spi_stop_write_block(void)
 243:../libraries/Storage/sd_mmc_spi.c **** {
 347              		.loc 1 243 0
 348              		.cfi_startproc
 349              		@ args = 0, pretend = 0, frame = 8
 350              		@ frame_needed = 0, uses_anonymous_args = 0
 351 0000 00B5     		push	{lr}
 352              		.cfi_def_cfa_offset 4
 353              		.cfi_offset 14, -4
 354 0002 83B0     		sub	sp, sp, #12
 355              		.cfi_def_cfa_offset 16
 244:../libraries/Storage/sd_mmc_spi.c **** 	uint8_t resp;
 245:../libraries/Storage/sd_mmc_spi.c **** 	uint16_t crc;
 246:../libraries/Storage/sd_mmc_spi.c **** 
 247:../libraries/Storage/sd_mmc_spi.c **** 	// Send CRC
 248:../libraries/Storage/sd_mmc_spi.c **** 	crc = 0xFFFF; /// CRC is disabled in SPI mode
 356              		.loc 1 248 0
 357 0004 4FF6FF73 		movw	r3, #65535
 358              	.LBB88:
 359              	.LBB89:
 360              		.loc 2 126 0
 361 0008 0222     		movs	r2, #2
 362 000a 0021     		movs	r1, #0
 363              	.LBE89:
 364              	.LBE88:
 365              		.loc 1 248 0
 366 000c 02A8     		add	r0, sp, #8
 367 000e 20F8023D 		strh	r3, [r0, #-2]!	@ movhi
 368              	.LVL23:
 369              	.LBB91:
 370              	.LBB90:
 371              		.loc 2 126 0
 372 0012 FFF7FEFF 		bl	sspi_transceive_packet
 373              	.LVL24:
 374              	.LBE90:
 375              	.LBE91:
 376              	.LBB92:
 377              	.LBB93:
 120:../libraries/Storage/../SharedSpi/SharedSpi.h **** }
 378              		.loc 2 120 0
 379 0016 0122     		movs	r2, #1
 380 0018 0DF10501 		add	r1, sp, #5
 381              	.LVL25:
 382 001c 0020     		movs	r0, #0
 383 001e FFF7FEFF 		bl	sspi_transceive_packet
 384              	.LVL26:
 385              	.LBE93:
 386              	.LBE92:
 249:../libraries/Storage/sd_mmc_spi.c **** 	sspi_write_packet((uint8_t *)&crc, 2);
ARM GAS  /tmp/ccbxFcRO.s 			page 15


 250:../libraries/Storage/sd_mmc_spi.c **** 	// Receive data response token
 251:../libraries/Storage/sd_mmc_spi.c **** 	sspi_read_packet(&resp, 1);
 252:../libraries/Storage/sd_mmc_spi.c **** 	if (!SPI_TOKEN_DATA_RESP_VALID(resp)) {
 387              		.loc 1 252 0
 388 0022 9DF80530 		ldrb	r3, [sp, #5]	@ zero_extendqisi2
 389 0026 03F01100 		and	r0, r3, #17
 390 002a 0128     		cmp	r0, #1
 391 002c 06D0     		beq	.L29
 253:../libraries/Storage/sd_mmc_spi.c **** 		sd_mmc_spi_err = SD_MMC_SPI_ERR;
 392              		.loc 1 253 0
 393 002e 0B4B     		ldr	r3, .L36
 394 0030 0122     		movs	r2, #1
 254:../libraries/Storage/sd_mmc_spi.c **** 		sd_mmc_spi_debug("%s: Invalid Data Response Token 0x%x\n\r", __func__, resp);
 255:../libraries/Storage/sd_mmc_spi.c **** 		return false;
 395              		.loc 1 255 0
 396 0032 0020     		movs	r0, #0
 253:../libraries/Storage/sd_mmc_spi.c **** 		sd_mmc_spi_err = SD_MMC_SPI_ERR;
 397              		.loc 1 253 0
 398 0034 1A70     		strb	r2, [r3]
 399              	.L30:
 256:../libraries/Storage/sd_mmc_spi.c **** 	}
 257:../libraries/Storage/sd_mmc_spi.c **** 	// Check data response
 258:../libraries/Storage/sd_mmc_spi.c **** 	switch (SPI_TOKEN_DATA_RESP_CODE(resp)) {
 259:../libraries/Storage/sd_mmc_spi.c **** 	case SPI_TOKEN_DATA_RESP_ACCEPTED:
 260:../libraries/Storage/sd_mmc_spi.c **** 		break;
 261:../libraries/Storage/sd_mmc_spi.c **** 	case SPI_TOKEN_DATA_RESP_CRC_ERR:
 262:../libraries/Storage/sd_mmc_spi.c **** 		sd_mmc_spi_err = SD_MMC_SPI_ERR_WRITE_CRC;
 263:../libraries/Storage/sd_mmc_spi.c **** 		sd_mmc_spi_debug("%s: Write blocks, SD_MMC_SPI_ERR_CRC, resp 0x%x\n\r", __func__, resp);
 264:../libraries/Storage/sd_mmc_spi.c **** 		return false;
 265:../libraries/Storage/sd_mmc_spi.c **** 	case SPI_TOKEN_DATA_RESP_WRITE_ERR:
 266:../libraries/Storage/sd_mmc_spi.c **** 	default:
 267:../libraries/Storage/sd_mmc_spi.c **** 		sd_mmc_spi_err = SD_MMC_SPI_ERR_WRITE;
 268:../libraries/Storage/sd_mmc_spi.c **** 		sd_mmc_spi_debug("%s: Write blocks SD_MMC_SPI_ERR_WR, resp 0x%x\n\r", __func__, resp);
 269:../libraries/Storage/sd_mmc_spi.c **** 		return false;
 270:../libraries/Storage/sd_mmc_spi.c **** 	}
 271:../libraries/Storage/sd_mmc_spi.c **** 	return true;
 272:../libraries/Storage/sd_mmc_spi.c **** }
 400              		.loc 1 272 0
 401 0036 03B0     		add	sp, sp, #12
 402              		.cfi_remember_state
 403              		.cfi_def_cfa_offset 4
 404              		@ sp needed
 405 0038 5DF804FB 		ldr	pc, [sp], #4
 406              	.L29:
 407              		.cfi_restore_state
 258:../libraries/Storage/sd_mmc_spi.c **** 	case SPI_TOKEN_DATA_RESP_ACCEPTED:
 408              		.loc 1 258 0
 409 003c 03F01E03 		and	r3, r3, #30
 410 0040 042B     		cmp	r3, #4
 411 0042 F8D0     		beq	.L30
 412 0044 0A2B     		cmp	r3, #10
 269:../libraries/Storage/sd_mmc_spi.c **** 	}
 413              		.loc 1 269 0
 414 0046 4FF00000 		mov	r0, #0
 262:../libraries/Storage/sd_mmc_spi.c **** 		sd_mmc_spi_debug("%s: Write blocks, SD_MMC_SPI_ERR_CRC, resp 0x%x\n\r", __func__, resp);
 415              		.loc 1 262 0
 416 004a 044B     		ldr	r3, .L36
ARM GAS  /tmp/ccbxFcRO.s 			page 16


 417 004c 0CBF     		ite	eq
 418 004e 0822     		moveq	r2, #8
 267:../libraries/Storage/sd_mmc_spi.c **** 		sd_mmc_spi_debug("%s: Write blocks SD_MMC_SPI_ERR_WR, resp 0x%x\n\r", __func__, resp);
 419              		.loc 1 267 0
 420 0050 0A22     		movne	r2, #10
 421 0052 1A70     		strb	r2, [r3]
 422              		.loc 1 272 0
 423 0054 03B0     		add	sp, sp, #12
 424              		.cfi_def_cfa_offset 4
 425              		@ sp needed
 426 0056 5DF804FB 		ldr	pc, [sp], #4
 427              	.L37:
 428 005a 00BF     		.align	2
 429              	.L36:
 430 005c 00000000 		.word	.LANCHOR1
 431              		.cfi_endproc
 432              	.LFE238:
 433              		.size	sd_mmc_spi_stop_write_block, .-sd_mmc_spi_stop_write_block
 434              		.section	.text.sd_mmc_spi_stop_multiwrite_block,"ax",%progbits
 435              		.align	1
 436              		.p2align 2,,3
 437              		.syntax unified
 438              		.thumb
 439              		.thumb_func
 440              		.fpu fpv5-d16
 441              		.type	sd_mmc_spi_stop_multiwrite_block, %function
 442              	sd_mmc_spi_stop_multiwrite_block:
 443              	.LFB239:
 273:../libraries/Storage/sd_mmc_spi.c **** 
 274:../libraries/Storage/sd_mmc_spi.c **** /**
 275:../libraries/Storage/sd_mmc_spi.c ****  * \brief Executed the end of a multi blocks write transfer
 276:../libraries/Storage/sd_mmc_spi.c ****  *
 277:../libraries/Storage/sd_mmc_spi.c ****  * \return true if success, otherwise false
 278:../libraries/Storage/sd_mmc_spi.c ****  *         with a update of \ref sd_mmc_spi_err.
 279:../libraries/Storage/sd_mmc_spi.c ****  */
 280:../libraries/Storage/sd_mmc_spi.c **** static bool sd_mmc_spi_stop_multiwrite_block(void)
 281:../libraries/Storage/sd_mmc_spi.c **** {
 444              		.loc 1 281 0
 445              		.cfi_startproc
 446              		@ args = 0, pretend = 0, frame = 8
 447              		@ frame_needed = 0, uses_anonymous_args = 0
 282:../libraries/Storage/sd_mmc_spi.c **** 	uint8_t value;
 283:../libraries/Storage/sd_mmc_spi.c **** 
 284:../libraries/Storage/sd_mmc_spi.c **** 	if (1 == sd_mmc_spi_nb_block) {
 448              		.loc 1 284 0
 449 0000 144B     		ldr	r3, .L48
 450 0002 1888     		ldrh	r0, [r3]
 451 0004 0128     		cmp	r0, #1
 452 0006 09D0     		beq	.L44
 285:../libraries/Storage/sd_mmc_spi.c **** 		return true; // Single block write
 286:../libraries/Storage/sd_mmc_spi.c **** 	}
 287:../libraries/Storage/sd_mmc_spi.c **** 	if (sd_mmc_spi_nb_block > (sd_mmc_spi_transfert_pos / sd_mmc_spi_block_size)) {
 453              		.loc 1 287 0
 454 0008 134B     		ldr	r3, .L48+4
 455 000a 144A     		ldr	r2, .L48+8
 456 000c 1B68     		ldr	r3, [r3]
 457 000e 1288     		ldrh	r2, [r2]
ARM GAS  /tmp/ccbxFcRO.s 			page 17


 458 0010 B3FBF2F3 		udiv	r3, r3, r2
 459 0014 9842     		cmp	r0, r3
 460 0016 02D9     		bls	.L47
 285:../libraries/Storage/sd_mmc_spi.c **** 		return true; // Single block write
 461              		.loc 1 285 0
 462 0018 0120     		movs	r0, #1
 463 001a 7047     		bx	lr
 464              	.L44:
 288:../libraries/Storage/sd_mmc_spi.c **** 		return true; // It is not the End of multi write
 289:../libraries/Storage/sd_mmc_spi.c **** 	}
 290:../libraries/Storage/sd_mmc_spi.c **** 
 291:../libraries/Storage/sd_mmc_spi.c **** 	// Delay before start write block:
 292:../libraries/Storage/sd_mmc_spi.c **** 	// Nwr timing minimum = 8 cylces
 293:../libraries/Storage/sd_mmc_spi.c **** 	value = 0xFF;
 294:../libraries/Storage/sd_mmc_spi.c **** 	sspi_write_packet(&value, 1);
 295:../libraries/Storage/sd_mmc_spi.c **** 	// Send stop token
 296:../libraries/Storage/sd_mmc_spi.c **** 	value = SPI_TOKEN_STOP_TRAN;
 297:../libraries/Storage/sd_mmc_spi.c **** 	sspi_write_packet(&value, 1);
 298:../libraries/Storage/sd_mmc_spi.c **** 	// Wait busy
 299:../libraries/Storage/sd_mmc_spi.c **** 	if (!sd_mmc_spi_wait_busy()) {
 300:../libraries/Storage/sd_mmc_spi.c **** 		sd_mmc_spi_err = SD_MMC_SPI_ERR_WRITE_TIMEOUT;
 301:../libraries/Storage/sd_mmc_spi.c **** 		sd_mmc_spi_debug("%s: Stop write blocks timeout\n\r", __func__);
 302:../libraries/Storage/sd_mmc_spi.c **** 		return false;
 303:../libraries/Storage/sd_mmc_spi.c **** 	}
 304:../libraries/Storage/sd_mmc_spi.c **** 	return true;
 305:../libraries/Storage/sd_mmc_spi.c **** }
 465              		.loc 1 305 0
 466 001c 7047     		bx	lr
 467              	.L47:
 281:../libraries/Storage/sd_mmc_spi.c **** 	uint8_t value;
 468              		.loc 1 281 0
 469 001e 10B5     		push	{r4, lr}
 470              		.cfi_def_cfa_offset 8
 471              		.cfi_offset 4, -8
 472              		.cfi_offset 14, -4
 473 0020 82B0     		sub	sp, sp, #8
 474              		.cfi_def_cfa_offset 16
 475              	.LBB100:
 476              	.LBB101:
 293:../libraries/Storage/sd_mmc_spi.c **** 	sspi_write_packet(&value, 1);
 477              		.loc 1 293 0
 478 0022 FF23     		movs	r3, #255
 479              	.LBB102:
 480              	.LBB103:
 481              		.loc 2 126 0
 482 0024 0122     		movs	r2, #1
 483 0026 0021     		movs	r1, #0
 484              	.LBE103:
 485              	.LBE102:
 293:../libraries/Storage/sd_mmc_spi.c **** 	sspi_write_packet(&value, 1);
 486              		.loc 1 293 0
 487 0028 02AC     		add	r4, sp, #8
 488 002a 04F8013D 		strb	r3, [r4, #-1]!
 489              	.LVL27:
 490              	.LBB105:
 491              	.LBB104:
 492              		.loc 2 126 0
ARM GAS  /tmp/ccbxFcRO.s 			page 18


 493 002e 2046     		mov	r0, r4
 494 0030 FFF7FEFF 		bl	sspi_transceive_packet
 495              	.LVL28:
 496              	.LBE104:
 497              	.LBE105:
 296:../libraries/Storage/sd_mmc_spi.c **** 	sspi_write_packet(&value, 1);
 498              		.loc 1 296 0
 499 0034 FD23     		movs	r3, #253
 500              	.LBB106:
 501              	.LBB107:
 502              		.loc 2 126 0
 503 0036 0122     		movs	r2, #1
 504 0038 0021     		movs	r1, #0
 505 003a 2046     		mov	r0, r4
 506              	.LBE107:
 507              	.LBE106:
 296:../libraries/Storage/sd_mmc_spi.c **** 	sspi_write_packet(&value, 1);
 508              		.loc 1 296 0
 509 003c 8DF80730 		strb	r3, [sp, #7]
 510              	.LVL29:
 511              	.LBB109:
 512              	.LBB108:
 513              		.loc 2 126 0
 514 0040 FFF7FEFF 		bl	sspi_transceive_packet
 515              	.LVL30:
 516              	.LBE108:
 517              	.LBE109:
 299:../libraries/Storage/sd_mmc_spi.c **** 		sd_mmc_spi_err = SD_MMC_SPI_ERR_WRITE_TIMEOUT;
 518              		.loc 1 299 0
 519 0044 FFF7FEFF 		bl	sd_mmc_spi_wait_busy
 520              	.LVL31:
 521 0048 10B9     		cbnz	r0, .L39
 300:../libraries/Storage/sd_mmc_spi.c **** 		sd_mmc_spi_debug("%s: Stop write blocks timeout\n\r", __func__);
 522              		.loc 1 300 0
 523 004a 054B     		ldr	r3, .L48+12
 524 004c 0522     		movs	r2, #5
 525 004e 1A70     		strb	r2, [r3]
 526              	.L39:
 527              	.LBE101:
 528              	.LBE100:
 529              		.loc 1 305 0
 530 0050 02B0     		add	sp, sp, #8
 531              		.cfi_def_cfa_offset 8
 532              		@ sp needed
 533 0052 10BD     		pop	{r4, pc}
 534              	.L49:
 535              		.align	2
 536              	.L48:
 537 0054 00000000 		.word	.LANCHOR0
 538 0058 00000000 		.word	.LANCHOR2
 539 005c 00000000 		.word	.LANCHOR3
 540 0060 00000000 		.word	.LANCHOR1
 541              		.cfi_endproc
 542              	.LFE239:
 543              		.size	sd_mmc_spi_stop_multiwrite_block, .-sd_mmc_spi_stop_multiwrite_block
 544              		.section	.text.spi_mmc_get_speed,"ax",%progbits
 545              		.align	1
ARM GAS  /tmp/ccbxFcRO.s 			page 19


 546              		.p2align 2,,3
 547              		.global	spi_mmc_get_speed
 548              		.syntax unified
 549              		.thumb
 550              		.thumb_func
 551              		.fpu fpv5-d16
 552              		.type	spi_mmc_get_speed, %function
 553              	spi_mmc_get_speed:
 554              	.LFB240:
 306:../libraries/Storage/sd_mmc_spi.c **** 
 307:../libraries/Storage/sd_mmc_spi.c **** 
 308:../libraries/Storage/sd_mmc_spi.c **** //-------------------------------------------------------------------
 309:../libraries/Storage/sd_mmc_spi.c **** //--------------------- PUBLIC FUNCTIONS ----------------------------
 310:../libraries/Storage/sd_mmc_spi.c **** 
 311:../libraries/Storage/sd_mmc_spi.c **** #if 1	//dc42
 312:../libraries/Storage/sd_mmc_spi.c **** 
 313:../libraries/Storage/sd_mmc_spi.c **** // Get the speed of the SPI SD card interface for reporting purposes, in bytes/sec
 314:../libraries/Storage/sd_mmc_spi.c **** uint32_t spi_mmc_get_speed(void)
 315:../libraries/Storage/sd_mmc_spi.c **** {
 555              		.loc 1 315 0
 556              		.cfi_startproc
 557              		@ args = 0, pretend = 0, frame = 0
 558              		@ frame_needed = 0, uses_anonymous_args = 0
 559              		@ link register save eliminated.
 316:../libraries/Storage/sd_mmc_spi.c **** 	return SD_MMC_SPI_MAX_CLOCK/8;
 317:../libraries/Storage/sd_mmc_spi.c **** }
 560              		.loc 1 317 0
 561 0000 0048     		ldr	r0, .L51
 562 0002 7047     		bx	lr
 563              	.L52:
 564              		.align	2
 565              	.L51:
 566 0004 20A10700 		.word	500000
 567              		.cfi_endproc
 568              	.LFE240:
 569              		.size	spi_mmc_get_speed, .-spi_mmc_get_speed
 570              		.section	.text.sd_mmc_spi_set_idle_func,"ax",%progbits
 571              		.align	1
 572              		.p2align 2,,3
 573              		.global	sd_mmc_spi_set_idle_func
 574              		.syntax unified
 575              		.thumb
 576              		.thumb_func
 577              		.fpu fpv5-d16
 578              		.type	sd_mmc_spi_set_idle_func, %function
 579              	sd_mmc_spi_set_idle_func:
 580              	.LFB241:
 318:../libraries/Storage/sd_mmc_spi.c **** 
 319:../libraries/Storage/sd_mmc_spi.c **** static spiIdleFunc_t spiIdleFunc = NULL;
 320:../libraries/Storage/sd_mmc_spi.c **** 
 321:../libraries/Storage/sd_mmc_spi.c **** // Set the idle function and return the old one
 322:../libraries/Storage/sd_mmc_spi.c **** spiIdleFunc_t sd_mmc_spi_set_idle_func(spiIdleFunc_t p)
 323:../libraries/Storage/sd_mmc_spi.c **** {
 581              		.loc 1 323 0
 582              		.cfi_startproc
 583              		@ args = 0, pretend = 0, frame = 0
 584              		@ frame_needed = 0, uses_anonymous_args = 0
ARM GAS  /tmp/ccbxFcRO.s 			page 20


 585              		@ link register save eliminated.
 586              	.LVL32:
 324:../libraries/Storage/sd_mmc_spi.c **** 	spiIdleFunc_t ret = spiIdleFunc;
 587              		.loc 1 324 0
 588 0000 024B     		ldr	r3, .L54
 589 0002 1A68     		ldr	r2, [r3]
 590              	.LVL33:
 325:../libraries/Storage/sd_mmc_spi.c **** 	spiIdleFunc = p;
 591              		.loc 1 325 0
 592 0004 1860     		str	r0, [r3]
 326:../libraries/Storage/sd_mmc_spi.c **** 	return ret;
 327:../libraries/Storage/sd_mmc_spi.c **** }
 593              		.loc 1 327 0
 594 0006 1046     		mov	r0, r2
 595              	.LVL34:
 596 0008 7047     		bx	lr
 597              	.L55:
 598 000a 00BF     		.align	2
 599              	.L54:
 600 000c 00000000 		.word	.LANCHOR4
 601              		.cfi_endproc
 602              	.LFE241:
 603              		.size	sd_mmc_spi_set_idle_func, .-sd_mmc_spi_set_idle_func
 604              		.section	.text.sd_mmc_spi_get_errno,"ax",%progbits
 605              		.align	1
 606              		.p2align 2,,3
 607              		.global	sd_mmc_spi_get_errno
 608              		.syntax unified
 609              		.thumb
 610              		.thumb_func
 611              		.fpu fpv5-d16
 612              		.type	sd_mmc_spi_get_errno, %function
 613              	sd_mmc_spi_get_errno:
 614              	.LFB242:
 328:../libraries/Storage/sd_mmc_spi.c **** 
 329:../libraries/Storage/sd_mmc_spi.c **** #endif
 330:../libraries/Storage/sd_mmc_spi.c **** 
 331:../libraries/Storage/sd_mmc_spi.c **** sd_mmc_spi_errno_t sd_mmc_spi_get_errno(void)
 332:../libraries/Storage/sd_mmc_spi.c **** {
 615              		.loc 1 332 0
 616              		.cfi_startproc
 617              		@ args = 0, pretend = 0, frame = 0
 618              		@ frame_needed = 0, uses_anonymous_args = 0
 619              		@ link register save eliminated.
 333:../libraries/Storage/sd_mmc_spi.c **** 	return sd_mmc_spi_err;
 620              		.loc 1 333 0
 621 0000 014B     		ldr	r3, .L57
 334:../libraries/Storage/sd_mmc_spi.c **** }
 622              		.loc 1 334 0
 623 0002 1878     		ldrb	r0, [r3]	@ zero_extendqisi2
 624 0004 7047     		bx	lr
 625              	.L58:
 626 0006 00BF     		.align	2
 627              	.L57:
 628 0008 00000000 		.word	.LANCHOR1
 629              		.cfi_endproc
 630              	.LFE242:
ARM GAS  /tmp/ccbxFcRO.s 			page 21


 631              		.size	sd_mmc_spi_get_errno, .-sd_mmc_spi_get_errno
 632              		.section	.text.sd_mmc_spi_init,"ax",%progbits
 633              		.align	1
 634              		.p2align 2,,3
 635              		.global	sd_mmc_spi_init
 636              		.syntax unified
 637              		.thumb
 638              		.thumb_func
 639              		.fpu fpv5-d16
 640              		.type	sd_mmc_spi_init, %function
 641              	sd_mmc_spi_init:
 642              	.LFB243:
 335:../libraries/Storage/sd_mmc_spi.c **** 
 336:../libraries/Storage/sd_mmc_spi.c **** void sd_mmc_spi_init(const Pin csPins[SD_MMC_SPI_MEM_CNT])
 337:../libraries/Storage/sd_mmc_spi.c **** {
 643              		.loc 1 337 0
 644              		.cfi_startproc
 645              		@ args = 0, pretend = 0, frame = 0
 646              		@ frame_needed = 0, uses_anonymous_args = 0
 647              		@ link register save eliminated.
 648              	.LVL35:
 649 0000 30B4     		push	{r4, r5}
 650              		.cfi_def_cfa_offset 8
 651              		.cfi_offset 4, -8
 652              		.cfi_offset 5, -4
 653              	.LBB110:
 338:../libraries/Storage/sd_mmc_spi.c **** 	sd_mmc_spi_err = SD_MMC_SPI_NO_ERR;
 339:../libraries/Storage/sd_mmc_spi.c **** 
 340:../libraries/Storage/sd_mmc_spi.c **** 	// Initialize SPI interface and enable it
 341:../libraries/Storage/sd_mmc_spi.c **** 	for (size_t i = 0; i < SD_MMC_SPI_MEM_CNT; ++i)
 342:../libraries/Storage/sd_mmc_spi.c **** 	{
 343:../libraries/Storage/sd_mmc_spi.c **** 		sd_mmc_spi_devices[i].csPin = csPins[i];
 654              		.loc 1 343 0
 655 0002 064B     		ldr	r3, .L61
 656              	.LBE110:
 338:../libraries/Storage/sd_mmc_spi.c **** 	sd_mmc_spi_err = SD_MMC_SPI_NO_ERR;
 657              		.loc 1 338 0
 658 0004 0022     		movs	r2, #0
 659              	.LBB111:
 660              		.loc 1 343 0
 661 0006 0578     		ldrb	r5, [r0]	@ zero_extendqisi2
 344:../libraries/Storage/sd_mmc_spi.c **** 		sd_mmc_spi_devices[i].csPolarity = false;
 345:../libraries/Storage/sd_mmc_spi.c **** 		sspi_master_init(&sd_mmc_spi_devices[i], 8);
 662              		.loc 1 345 0
 663 0008 0821     		movs	r1, #8
 664              	.LBE111:
 338:../libraries/Storage/sd_mmc_spi.c **** 	sd_mmc_spi_err = SD_MMC_SPI_NO_ERR;
 665              		.loc 1 338 0
 666 000a 054C     		ldr	r4, .L61+4
 667              	.LBB112:
 668              		.loc 1 345 0
 669 000c 1846     		mov	r0, r3
 670              	.LVL36:
 343:../libraries/Storage/sd_mmc_spi.c **** 		sd_mmc_spi_devices[i].csPolarity = false;
 671              		.loc 1 343 0
 672 000e 1D70     		strb	r5, [r3]
 673              	.LBE112:
ARM GAS  /tmp/ccbxFcRO.s 			page 22


 338:../libraries/Storage/sd_mmc_spi.c **** 	sd_mmc_spi_err = SD_MMC_SPI_NO_ERR;
 674              		.loc 1 338 0
 675 0010 2270     		strb	r2, [r4]
 676              	.LVL37:
 677              	.LBB113:
 344:../libraries/Storage/sd_mmc_spi.c **** 		sd_mmc_spi_devices[i].csPolarity = false;
 678              		.loc 1 344 0
 679 0012 5A70     		strb	r2, [r3, #1]
 680              	.LBE113:
 346:../libraries/Storage/sd_mmc_spi.c **** 	}
 347:../libraries/Storage/sd_mmc_spi.c **** }
 681              		.loc 1 347 0
 682 0014 30BC     		pop	{r4, r5}
 683              		.cfi_restore 5
 684              		.cfi_restore 4
 685              		.cfi_def_cfa_offset 0
 686              	.LBB114:
 345:../libraries/Storage/sd_mmc_spi.c **** 	}
 687              		.loc 1 345 0
 688 0016 FFF7FEBF 		b	sspi_master_init
 689              	.LVL38:
 690              	.L62:
 691 001a 00BF     		.align	2
 692              	.L61:
 693 001c 00000000 		.word	.LANCHOR5
 694 0020 00000000 		.word	.LANCHOR1
 695              	.LBE114:
 696              		.cfi_endproc
 697              	.LFE243:
 698              		.size	sd_mmc_spi_init, .-sd_mmc_spi_init
 699              		.section	.text.sd_mmc_spi_select_device,"ax",%progbits
 700              		.align	1
 701              		.p2align 2,,3
 702              		.global	sd_mmc_spi_select_device
 703              		.syntax unified
 704              		.thumb
 705              		.thumb_func
 706              		.fpu fpv5-d16
 707              		.type	sd_mmc_spi_select_device, %function
 708              	sd_mmc_spi_select_device:
 709              	.LFB244:
 348:../libraries/Storage/sd_mmc_spi.c **** 
 349:../libraries/Storage/sd_mmc_spi.c **** void sd_mmc_spi_select_device(uint8_t slot, uint32_t clock, uint8_t bus_width, bool high_speed)
 350:../libraries/Storage/sd_mmc_spi.c **** {
 710              		.loc 1 350 0
 711              		.cfi_startproc
 712              		@ args = 0, pretend = 0, frame = 0
 713              		@ frame_needed = 0, uses_anonymous_args = 0
 714              	.LVL39:
 351:../libraries/Storage/sd_mmc_spi.c **** 	UNUSED(bus_width);
 352:../libraries/Storage/sd_mmc_spi.c **** 	UNUSED(high_speed);
 353:../libraries/Storage/sd_mmc_spi.c **** 	sd_mmc_spi_err = SD_MMC_SPI_NO_ERR;
 354:../libraries/Storage/sd_mmc_spi.c **** 
 355:../libraries/Storage/sd_mmc_spi.c **** #ifdef SD_MMC_SPI_MAX_CLOCK
 356:../libraries/Storage/sd_mmc_spi.c **** 	if (clock > SD_MMC_SPI_MAX_CLOCK) {
 357:../libraries/Storage/sd_mmc_spi.c **** 		clock = SD_MMC_SPI_MAX_CLOCK;
 358:../libraries/Storage/sd_mmc_spi.c **** 	}
ARM GAS  /tmp/ccbxFcRO.s 			page 23


 359:../libraries/Storage/sd_mmc_spi.c **** #endif
 360:../libraries/Storage/sd_mmc_spi.c **** 
 361:../libraries/Storage/sd_mmc_spi.c **** 	struct sspi_device *dev = &sd_mmc_spi_devices[slot];
 362:../libraries/Storage/sd_mmc_spi.c **** 	dev->spiMode = SPI_MODE_0;
 363:../libraries/Storage/sd_mmc_spi.c **** 	dev->clockFrequency = clock;
 715              		.loc 1 363 0
 716 0000 0B4A     		ldr	r2, .L65
 717              	.LVL40:
 361:../libraries/Storage/sd_mmc_spi.c **** 	dev->spiMode = SPI_MODE_0;
 718              		.loc 1 361 0
 719 0002 0C4B     		ldr	r3, .L65+4
 720              	.LVL41:
 721              		.loc 1 363 0
 722 0004 9142     		cmp	r1, r2
 350:../libraries/Storage/sd_mmc_spi.c **** 	UNUSED(bus_width);
 723              		.loc 1 350 0
 724 0006 70B5     		push	{r4, r5, r6, lr}
 725              		.cfi_def_cfa_offset 16
 726              		.cfi_offset 4, -16
 727              		.cfi_offset 5, -12
 728              		.cfi_offset 6, -8
 729              		.cfi_offset 14, -4
 730              		.loc 1 363 0
 731 0008 28BF     		it	cs
 732 000a 1146     		movcs	r1, r2
 733              	.LVL42:
 361:../libraries/Storage/sd_mmc_spi.c **** 	dev->spiMode = SPI_MODE_0;
 734              		.loc 1 361 0
 735 000c 03EBC004 		add	r4, r3, r0, lsl #3
 353:../libraries/Storage/sd_mmc_spi.c **** 
 736              		.loc 1 353 0
 737 0010 0025     		movs	r5, #0
 738 0012 094E     		ldr	r6, .L65+8
 364:../libraries/Storage/sd_mmc_spi.c **** 	sspi_master_setup_device(dev);
 739              		.loc 1 364 0
 740 0014 2046     		mov	r0, r4
 741              	.LVL43:
 363:../libraries/Storage/sd_mmc_spi.c **** 	sspi_master_setup_device(dev);
 742              		.loc 1 363 0
 743 0016 6160     		str	r1, [r4, #4]
 362:../libraries/Storage/sd_mmc_spi.c **** 	dev->clockFrequency = clock;
 744              		.loc 1 362 0
 745 0018 E570     		strb	r5, [r4, #3]
 353:../libraries/Storage/sd_mmc_spi.c **** 
 746              		.loc 1 353 0
 747 001a 3570     		strb	r5, [r6]
 748              	.LVL44:
 749              		.loc 1 364 0
 750 001c FFF7FEFF 		bl	sspi_master_setup_device
 751              	.LVL45:
 365:../libraries/Storage/sd_mmc_spi.c **** 	sspi_select_device(dev);
 752              		.loc 1 365 0
 753 0020 2046     		mov	r0, r4
 754 0022 FFF7FEFF 		bl	sspi_select_device
 755              	.LVL46:
 756              	.LBB115:
 757              	.LBB116:
ARM GAS  /tmp/ccbxFcRO.s 			page 24


 758              		.file 3 "/home/torbjorn/eclipse-workspace/CoreNG/cores/arduino/wiring.h"
   1:/home/torbjorn/eclipse-workspace/CoreNG/cores/arduino/wiring.h **** /*
   2:/home/torbjorn/eclipse-workspace/CoreNG/cores/arduino/wiring.h ****   Copyright (c) 2011 Arduino.  All right reserved.
   3:/home/torbjorn/eclipse-workspace/CoreNG/cores/arduino/wiring.h ****   Copyright (c) 2013 by Paul Stoffregen <paul@pjrc.com> (delayMicroseconds)
   4:/home/torbjorn/eclipse-workspace/CoreNG/cores/arduino/wiring.h **** 
   5:/home/torbjorn/eclipse-workspace/CoreNG/cores/arduino/wiring.h ****   This library is free software; you can redistribute it and/or
   6:/home/torbjorn/eclipse-workspace/CoreNG/cores/arduino/wiring.h ****   modify it under the terms of the GNU Lesser General Public
   7:/home/torbjorn/eclipse-workspace/CoreNG/cores/arduino/wiring.h ****   License as published by the Free Software Foundation; either
   8:/home/torbjorn/eclipse-workspace/CoreNG/cores/arduino/wiring.h ****   version 2.1 of the License, or (at your option) any later version.
   9:/home/torbjorn/eclipse-workspace/CoreNG/cores/arduino/wiring.h **** 
  10:/home/torbjorn/eclipse-workspace/CoreNG/cores/arduino/wiring.h ****   This library is distributed in the hope that it will be useful,
  11:/home/torbjorn/eclipse-workspace/CoreNG/cores/arduino/wiring.h ****   but WITHOUT ANY WARRANTY; without even the implied warranty of
  12:/home/torbjorn/eclipse-workspace/CoreNG/cores/arduino/wiring.h ****   MERCHANTABILITY or FITNESS FOR A PARTICULAR PURPOSE. 
  13:/home/torbjorn/eclipse-workspace/CoreNG/cores/arduino/wiring.h ****   See the GNU Lesser General Public License for more details.
  14:/home/torbjorn/eclipse-workspace/CoreNG/cores/arduino/wiring.h **** 
  15:/home/torbjorn/eclipse-workspace/CoreNG/cores/arduino/wiring.h ****   You should have received a copy of the GNU Lesser General Public
  16:/home/torbjorn/eclipse-workspace/CoreNG/cores/arduino/wiring.h ****   License along with this library; if not, write to the Free Software
  17:/home/torbjorn/eclipse-workspace/CoreNG/cores/arduino/wiring.h ****   Foundation, Inc., 51 Franklin St, Fifth Floor, Boston, MA  02110-1301  USA
  18:/home/torbjorn/eclipse-workspace/CoreNG/cores/arduino/wiring.h **** */
  19:/home/torbjorn/eclipse-workspace/CoreNG/cores/arduino/wiring.h **** 
  20:/home/torbjorn/eclipse-workspace/CoreNG/cores/arduino/wiring.h **** #ifndef _WIRING_
  21:/home/torbjorn/eclipse-workspace/CoreNG/cores/arduino/wiring.h **** #define _WIRING_
  22:/home/torbjorn/eclipse-workspace/CoreNG/cores/arduino/wiring.h **** 
  23:/home/torbjorn/eclipse-workspace/CoreNG/cores/arduino/wiring.h **** #ifdef __cplusplus
  24:/home/torbjorn/eclipse-workspace/CoreNG/cores/arduino/wiring.h **** extern "C" {
  25:/home/torbjorn/eclipse-workspace/CoreNG/cores/arduino/wiring.h **** #endif
  26:/home/torbjorn/eclipse-workspace/CoreNG/cores/arduino/wiring.h **** 
  27:/home/torbjorn/eclipse-workspace/CoreNG/cores/arduino/wiring.h **** /**
  28:/home/torbjorn/eclipse-workspace/CoreNG/cores/arduino/wiring.h ****  *
  29:/home/torbjorn/eclipse-workspace/CoreNG/cores/arduino/wiring.h ****  */
  30:/home/torbjorn/eclipse-workspace/CoreNG/cores/arduino/wiring.h **** extern void initVariant( void ) ;
  31:/home/torbjorn/eclipse-workspace/CoreNG/cores/arduino/wiring.h **** extern void init( void ) ;
  32:/home/torbjorn/eclipse-workspace/CoreNG/cores/arduino/wiring.h **** 
  33:/home/torbjorn/eclipse-workspace/CoreNG/cores/arduino/wiring.h **** /**
  34:/home/torbjorn/eclipse-workspace/CoreNG/cores/arduino/wiring.h ****  * \brief Returns the number of milliseconds since the core started.
  35:/home/torbjorn/eclipse-workspace/CoreNG/cores/arduino/wiring.h ****  *
  36:/home/torbjorn/eclipse-workspace/CoreNG/cores/arduino/wiring.h ****  * This number will overflow (go back to zero), after approximately 50 days.
  37:/home/torbjorn/eclipse-workspace/CoreNG/cores/arduino/wiring.h ****  *
  38:/home/torbjorn/eclipse-workspace/CoreNG/cores/arduino/wiring.h ****  * \return Number of milliseconds since the program started (uint32_t)
  39:/home/torbjorn/eclipse-workspace/CoreNG/cores/arduino/wiring.h ****  */
  40:/home/torbjorn/eclipse-workspace/CoreNG/cores/arduino/wiring.h **** extern uint32_t millis( void ) ;
  41:/home/torbjorn/eclipse-workspace/CoreNG/cores/arduino/wiring.h **** 
  42:/home/torbjorn/eclipse-workspace/CoreNG/cores/arduino/wiring.h **** /**
  43:/home/torbjorn/eclipse-workspace/CoreNG/cores/arduino/wiring.h ****  * \brief Returns the number of milliseconds since the core started.
  44:/home/torbjorn/eclipse-workspace/CoreNG/cores/arduino/wiring.h ****  * \return Number of milliseconds since the program started (uint64_t)
  45:/home/torbjorn/eclipse-workspace/CoreNG/cores/arduino/wiring.h ****  */
  46:/home/torbjorn/eclipse-workspace/CoreNG/cores/arduino/wiring.h **** extern uint64_t millis64( void ) ;
  47:/home/torbjorn/eclipse-workspace/CoreNG/cores/arduino/wiring.h **** 
  48:/home/torbjorn/eclipse-workspace/CoreNG/cores/arduino/wiring.h **** #if 0	// this function is not reliable if other ISRs can preempt the Systick interrupt
  49:/home/torbjorn/eclipse-workspace/CoreNG/cores/arduino/wiring.h **** 
  50:/home/torbjorn/eclipse-workspace/CoreNG/cores/arduino/wiring.h **** /**
  51:/home/torbjorn/eclipse-workspace/CoreNG/cores/arduino/wiring.h ****  * \brief Returns the number of microseconds since the core started.
  52:/home/torbjorn/eclipse-workspace/CoreNG/cores/arduino/wiring.h ****  *
  53:/home/torbjorn/eclipse-workspace/CoreNG/cores/arduino/wiring.h ****  * This number will overflow (go back to zero), after approximately 70 minutes.
  54:/home/torbjorn/eclipse-workspace/CoreNG/cores/arduino/wiring.h ****  *
  55:/home/torbjorn/eclipse-workspace/CoreNG/cores/arduino/wiring.h ****  * \note There are 1,000 microseconds in a millisecond and 1,000,000 microseconds in a second.
  56:/home/torbjorn/eclipse-workspace/CoreNG/cores/arduino/wiring.h ****  */
ARM GAS  /tmp/ccbxFcRO.s 			page 25


  57:/home/torbjorn/eclipse-workspace/CoreNG/cores/arduino/wiring.h **** extern uint32_t micros( void ) ;
  58:/home/torbjorn/eclipse-workspace/CoreNG/cores/arduino/wiring.h **** 
  59:/home/torbjorn/eclipse-workspace/CoreNG/cores/arduino/wiring.h **** #endif
  60:/home/torbjorn/eclipse-workspace/CoreNG/cores/arduino/wiring.h **** 
  61:/home/torbjorn/eclipse-workspace/CoreNG/cores/arduino/wiring.h **** /**
  62:/home/torbjorn/eclipse-workspace/CoreNG/cores/arduino/wiring.h ****  * \brief Pauses the program for the amount of time (in miliseconds) specified as parameter.
  63:/home/torbjorn/eclipse-workspace/CoreNG/cores/arduino/wiring.h ****  * (There are 1000 milliseconds in a second.)
  64:/home/torbjorn/eclipse-workspace/CoreNG/cores/arduino/wiring.h ****  *
  65:/home/torbjorn/eclipse-workspace/CoreNG/cores/arduino/wiring.h ****  * \param dwMs the number of milliseconds to pause (uint32_t)
  66:/home/torbjorn/eclipse-workspace/CoreNG/cores/arduino/wiring.h ****  */
  67:/home/torbjorn/eclipse-workspace/CoreNG/cores/arduino/wiring.h **** // This has been renamed from delay to coreDelay so that RTOS-based applications can use a differen
  68:/home/torbjorn/eclipse-workspace/CoreNG/cores/arduino/wiring.h **** extern void coreDelay( uint32_t dwMs ) ;
  69:/home/torbjorn/eclipse-workspace/CoreNG/cores/arduino/wiring.h **** 
  70:/home/torbjorn/eclipse-workspace/CoreNG/cores/arduino/wiring.h **** /**
  71:/home/torbjorn/eclipse-workspace/CoreNG/cores/arduino/wiring.h ****  * \brief Pauses the program for the amount of time (in microseconds) specified as parameter.
  72:/home/torbjorn/eclipse-workspace/CoreNG/cores/arduino/wiring.h ****  *
  73:/home/torbjorn/eclipse-workspace/CoreNG/cores/arduino/wiring.h ****  * \param dwUs the number of microseconds to pause (uint32_t)
  74:/home/torbjorn/eclipse-workspace/CoreNG/cores/arduino/wiring.h ****  */
  75:/home/torbjorn/eclipse-workspace/CoreNG/cores/arduino/wiring.h **** static inline void delayMicroseconds(uint32_t) __attribute__((always_inline, unused));
  76:/home/torbjorn/eclipse-workspace/CoreNG/cores/arduino/wiring.h **** static inline void delayMicroseconds(uint32_t usec){
  77:/home/torbjorn/eclipse-workspace/CoreNG/cores/arduino/wiring.h ****     /*
  78:/home/torbjorn/eclipse-workspace/CoreNG/cores/arduino/wiring.h ****      * Based on Paul Stoffregen's implementation
  79:/home/torbjorn/eclipse-workspace/CoreNG/cores/arduino/wiring.h ****      * for Teensy 3.0 (http://www.pjrc.com/)
  80:/home/torbjorn/eclipse-workspace/CoreNG/cores/arduino/wiring.h ****      */
  81:/home/torbjorn/eclipse-workspace/CoreNG/cores/arduino/wiring.h ****     if (usec == 0) return;
  82:/home/torbjorn/eclipse-workspace/CoreNG/cores/arduino/wiring.h ****     uint32_t n = usec * (VARIANT_MCK / 3000000);
  83:/home/torbjorn/eclipse-workspace/CoreNG/cores/arduino/wiring.h ****     asm volatile(
 759              		.loc 3 83 0
 760 0026 3223     		movs	r3, #50
 761              		.syntax unified
 762              	@ 83 "/home/torbjorn/eclipse-workspace/CoreNG/cores/arduino/wiring.h" 1
 763              		L_681_delayMicroseconds:
 764 0028 013B     		subs   r3, #1
 765 002a FDD1     		bne    L_681_delayMicroseconds
 766              	
 767              	@ 0 "" 2
 768              	.LVL47:
 769              		.thumb
 770              		.syntax unified
 771 002c 70BD     		pop	{r4, r5, r6, pc}
 772              	.LVL48:
 773              	.L66:
 774 002e 00BF     		.align	2
 775              	.L65:
 776 0030 00093D00 		.word	4000000
 777 0034 00000000 		.word	.LANCHOR5
 778 0038 00000000 		.word	.LANCHOR1
 779              	.LBE116:
 780              	.LBE115:
 781              		.cfi_endproc
 782              	.LFE244:
 783              		.size	sd_mmc_spi_select_device, .-sd_mmc_spi_select_device
 784              		.section	.text.sd_mmc_spi_deselect_device,"ax",%progbits
 785              		.align	1
 786              		.p2align 2,,3
 787              		.global	sd_mmc_spi_deselect_device
 788              		.syntax unified
ARM GAS  /tmp/ccbxFcRO.s 			page 26


 789              		.thumb
 790              		.thumb_func
 791              		.fpu fpv5-d16
 792              		.type	sd_mmc_spi_deselect_device, %function
 793              	sd_mmc_spi_deselect_device:
 794              	.LFB245:
 366:../libraries/Storage/sd_mmc_spi.c **** 	delayMicroseconds(1);
 367:../libraries/Storage/sd_mmc_spi.c **** }
 368:../libraries/Storage/sd_mmc_spi.c **** 
 369:../libraries/Storage/sd_mmc_spi.c **** void sd_mmc_spi_deselect_device(uint8_t slot)
 370:../libraries/Storage/sd_mmc_spi.c **** {
 795              		.loc 1 370 0
 796              		.cfi_startproc
 797              		@ args = 0, pretend = 0, frame = 0
 798              		@ frame_needed = 0, uses_anonymous_args = 0
 799              	.LVL49:
 371:../libraries/Storage/sd_mmc_spi.c **** 	sd_mmc_spi_err = SD_MMC_SPI_NO_ERR;
 372:../libraries/Storage/sd_mmc_spi.c **** 	sspi_deselect_device(&sd_mmc_spi_devices[slot]);
 800              		.loc 1 372 0
 801 0000 0649     		ldr	r1, .L69
 371:../libraries/Storage/sd_mmc_spi.c **** 	sd_mmc_spi_err = SD_MMC_SPI_NO_ERR;
 802              		.loc 1 371 0
 803 0002 0022     		movs	r2, #0
 370:../libraries/Storage/sd_mmc_spi.c **** 	sd_mmc_spi_err = SD_MMC_SPI_NO_ERR;
 804              		.loc 1 370 0
 805 0004 08B5     		push	{r3, lr}
 806              		.cfi_def_cfa_offset 8
 807              		.cfi_offset 3, -8
 808              		.cfi_offset 14, -4
 371:../libraries/Storage/sd_mmc_spi.c **** 	sd_mmc_spi_err = SD_MMC_SPI_NO_ERR;
 809              		.loc 1 371 0
 810 0006 064B     		ldr	r3, .L69+4
 811              		.loc 1 372 0
 812 0008 01EBC000 		add	r0, r1, r0, lsl #3
 813              	.LVL50:
 371:../libraries/Storage/sd_mmc_spi.c **** 	sd_mmc_spi_err = SD_MMC_SPI_NO_ERR;
 814              		.loc 1 371 0
 815 000c 1A70     		strb	r2, [r3]
 816              		.loc 1 372 0
 817 000e FFF7FEFF 		bl	sspi_deselect_device
 818              	.LVL51:
 819              	.LBB117:
 820              	.LBB118:
 821              		.loc 3 83 0
 822 0012 3223     		movs	r3, #50
 823              		.syntax unified
 824              	@ 83 "/home/torbjorn/eclipse-workspace/CoreNG/cores/arduino/wiring.h" 1
 825              		L_725_delayMicroseconds:
 826 0014 013B     		subs   r3, #1
 827 0016 FDD1     		bne    L_725_delayMicroseconds
 828              	
 829              	@ 0 "" 2
 830              	.LVL52:
 831              		.thumb
 832              		.syntax unified
 833 0018 08BD     		pop	{r3, pc}
 834              	.L70:
ARM GAS  /tmp/ccbxFcRO.s 			page 27


 835 001a 00BF     		.align	2
 836              	.L69:
 837 001c 00000000 		.word	.LANCHOR5
 838 0020 00000000 		.word	.LANCHOR1
 839              	.LBE118:
 840              	.LBE117:
 841              		.cfi_endproc
 842              	.LFE245:
 843              		.size	sd_mmc_spi_deselect_device, .-sd_mmc_spi_deselect_device
 844              		.section	.text.sd_mmc_spi_send_clock,"ax",%progbits
 845              		.align	1
 846              		.p2align 2,,3
 847              		.global	sd_mmc_spi_send_clock
 848              		.syntax unified
 849              		.thumb
 850              		.thumb_func
 851              		.fpu fpv5-d16
 852              		.type	sd_mmc_spi_send_clock, %function
 853              	sd_mmc_spi_send_clock:
 854              	.LFB246:
 373:../libraries/Storage/sd_mmc_spi.c **** 	delayMicroseconds(1);
 374:../libraries/Storage/sd_mmc_spi.c **** }
 375:../libraries/Storage/sd_mmc_spi.c **** 
 376:../libraries/Storage/sd_mmc_spi.c **** void sd_mmc_spi_send_clock(void)
 377:../libraries/Storage/sd_mmc_spi.c **** {
 855              		.loc 1 377 0
 856              		.cfi_startproc
 857              		@ args = 0, pretend = 0, frame = 8
 858              		@ frame_needed = 0, uses_anonymous_args = 0
 859 0000 30B5     		push	{r4, r5, lr}
 860              		.cfi_def_cfa_offset 12
 861              		.cfi_offset 4, -12
 862              		.cfi_offset 5, -8
 863              		.cfi_offset 14, -4
 864 0002 83B0     		sub	sp, sp, #12
 865              		.cfi_def_cfa_offset 24
 378:../libraries/Storage/sd_mmc_spi.c **** 	uint8_t i;
 379:../libraries/Storage/sd_mmc_spi.c **** 	uint8_t dummy = 0xFF;
 866              		.loc 1 379 0
 867 0004 FF21     		movs	r1, #255
 380:../libraries/Storage/sd_mmc_spi.c **** 
 381:../libraries/Storage/sd_mmc_spi.c **** 	sd_mmc_spi_err = SD_MMC_SPI_NO_ERR;
 868              		.loc 1 381 0
 869 0006 094B     		ldr	r3, .L75
 870 0008 0022     		movs	r2, #0
 379:../libraries/Storage/sd_mmc_spi.c **** 
 871              		.loc 1 379 0
 872 000a 02AD     		add	r5, sp, #8
 873              		.loc 1 381 0
 874 000c 0A24     		movs	r4, #10
 875 000e 1A70     		strb	r2, [r3]
 876              	.LVL53:
 379:../libraries/Storage/sd_mmc_spi.c **** 
 877              		.loc 1 379 0
 878 0010 05F8011D 		strb	r1, [r5, #-1]!
 879              	.LVL54:
 880              	.L72:
ARM GAS  /tmp/ccbxFcRO.s 			page 28


 881              	.LBB119:
 882              	.LBB120:
 883              		.loc 2 126 0
 884 0014 0122     		movs	r2, #1
 885 0016 0021     		movs	r1, #0
 886 0018 2846     		mov	r0, r5
 887 001a FFF7FEFF 		bl	sspi_transceive_packet
 888              	.LVL55:
 889 001e 631E     		subs	r3, r4, #1
 890              	.LBE120:
 891              	.LBE119:
 382:../libraries/Storage/sd_mmc_spi.c **** 	//! Send 80 cycles
 383:../libraries/Storage/sd_mmc_spi.c **** 	for (i = 0; i < 10; i++) {
 892              		.loc 1 383 0
 893 0020 13F0FF04 		ands	r4, r3, #255
 894              	.LVL56:
 895 0024 F6D1     		bne	.L72
 384:../libraries/Storage/sd_mmc_spi.c **** 		sspi_write_packet(&dummy, 1); // 8 cycles
 385:../libraries/Storage/sd_mmc_spi.c **** 	}
 386:../libraries/Storage/sd_mmc_spi.c **** }
 896              		.loc 1 386 0
 897 0026 03B0     		add	sp, sp, #12
 898              		.cfi_def_cfa_offset 12
 899              		@ sp needed
 900 0028 30BD     		pop	{r4, r5, pc}
 901              	.L76:
 902 002a 00BF     		.align	2
 903              	.L75:
 904 002c 00000000 		.word	.LANCHOR1
 905              		.cfi_endproc
 906              	.LFE246:
 907              		.size	sd_mmc_spi_send_clock, .-sd_mmc_spi_send_clock
 908              		.section	.text.sd_mmc_spi_adtc_start,"ax",%progbits
 909              		.align	1
 910              		.p2align 2,,3
 911              		.global	sd_mmc_spi_adtc_start
 912              		.syntax unified
 913              		.thumb
 914              		.thumb_func
 915              		.fpu fpv5-d16
 916              		.type	sd_mmc_spi_adtc_start, %function
 917              	sd_mmc_spi_adtc_start:
 918              	.LFB248:
 387:../libraries/Storage/sd_mmc_spi.c **** 
 388:../libraries/Storage/sd_mmc_spi.c **** bool sd_mmc_spi_send_cmd(sdmmc_cmd_def_t cmd, uint32_t arg)
 389:../libraries/Storage/sd_mmc_spi.c **** {
 390:../libraries/Storage/sd_mmc_spi.c **** 	return sd_mmc_spi_adtc_start(cmd, arg, 0, 0, false);
 391:../libraries/Storage/sd_mmc_spi.c **** }
 392:../libraries/Storage/sd_mmc_spi.c **** 
 393:../libraries/Storage/sd_mmc_spi.c **** bool sd_mmc_spi_adtc_start(sdmmc_cmd_def_t cmd, uint32_t arg,
 394:../libraries/Storage/sd_mmc_spi.c **** 		uint16_t block_size, uint16_t nb_block, bool access_block)
 395:../libraries/Storage/sd_mmc_spi.c **** {
 919              		.loc 1 395 0
 920              		.cfi_startproc
 921              		@ args = 4, pretend = 0, frame = 16
 922              		@ frame_needed = 0, uses_anonymous_args = 0
 923              	.LVL57:
ARM GAS  /tmp/ccbxFcRO.s 			page 29


 924 0000 2DE9F047 		push	{r4, r5, r6, r7, r8, r9, r10, lr}
 925              		.cfi_def_cfa_offset 32
 926              		.cfi_offset 4, -32
 927              		.cfi_offset 5, -28
 928              		.cfi_offset 6, -24
 929              		.cfi_offset 7, -20
 930              		.cfi_offset 8, -16
 931              		.cfi_offset 9, -12
 932              		.cfi_offset 10, -8
 933              		.cfi_offset 14, -4
 934 0004 0546     		mov	r5, r0
 935 0006 84B0     		sub	sp, sp, #16
 936              		.cfi_def_cfa_offset 48
 396:../libraries/Storage/sd_mmc_spi.c **** 	uint8_t dummy = 0xFF;
 397:../libraries/Storage/sd_mmc_spi.c **** 	uint8_t cmd_token[6];
 398:../libraries/Storage/sd_mmc_spi.c **** 	uint8_t ncr_timeout;
 399:../libraries/Storage/sd_mmc_spi.c **** 	uint8_t r1; //! R1 response
 400:../libraries/Storage/sd_mmc_spi.c **** 
 401:../libraries/Storage/sd_mmc_spi.c **** 	UNUSED(access_block);
 402:../libraries/Storage/sd_mmc_spi.c **** 	Assert(cmd & SDMMC_RESP_PRESENT); // Always a response in SPI mode
 403:../libraries/Storage/sd_mmc_spi.c **** 	sd_mmc_spi_err = SD_MMC_SPI_NO_ERR;
 404:../libraries/Storage/sd_mmc_spi.c **** 
 405:../libraries/Storage/sd_mmc_spi.c **** 	// Encode SPI command
 406:../libraries/Storage/sd_mmc_spi.c **** 	cmd_token[0] = SPI_CMD_ENCODE(SDMMC_CMD_GET_INDEX(cmd));
 407:../libraries/Storage/sd_mmc_spi.c **** 	cmd_token[1] = arg >> 24;
 937              		.loc 1 407 0
 938 0008 4FEA116C 		lsr	ip, r1, #24
 403:../libraries/Storage/sd_mmc_spi.c **** 
 939              		.loc 1 403 0
 940 000c 0020     		movs	r0, #0
 941              	.LVL58:
 408:../libraries/Storage/sd_mmc_spi.c **** 	cmd_token[2] = arg >> 16;
 942              		.loc 1 408 0
 943 000e 0C0C     		lsrs	r4, r1, #16
 406:../libraries/Storage/sd_mmc_spi.c **** 	cmd_token[1] = arg >> 24;
 944              		.loc 1 406 0
 945 0010 05F03F0E 		and	lr, r5, #63
 395:../libraries/Storage/sd_mmc_spi.c **** 	uint8_t dummy = 0xFF;
 946              		.loc 1 395 0
 947 0014 1746     		mov	r7, r2
 948 0016 1E46     		mov	r6, r3
 406:../libraries/Storage/sd_mmc_spi.c **** 	cmd_token[1] = arg >> 24;
 949              		.loc 1 406 0
 950 0018 4EF0400E 		orr	lr, lr, #64
 409:../libraries/Storage/sd_mmc_spi.c **** 	cmd_token[3] = arg >> 8;
 410:../libraries/Storage/sd_mmc_spi.c **** 	cmd_token[4] = arg;
 951              		.loc 1 410 0
 952 001c 8DF80C10 		strb	r1, [sp, #12]
 953              	.LVL59:
 396:../libraries/Storage/sd_mmc_spi.c **** 	uint8_t cmd_token[6];
 954              		.loc 1 396 0
 955 0020 FF22     		movs	r2, #255
 956              	.LVL60:
 409:../libraries/Storage/sd_mmc_spi.c **** 	cmd_token[3] = arg >> 8;
 957              		.loc 1 409 0
 958 0022 090A     		lsrs	r1, r1, #8
 959              	.LVL61:
ARM GAS  /tmp/ccbxFcRO.s 			page 30


 407:../libraries/Storage/sd_mmc_spi.c **** 	cmd_token[2] = arg >> 16;
 960              		.loc 1 407 0
 961 0024 8DF809C0 		strb	ip, [sp, #9]
 962              	.LBB121:
 963              	.LBB122:
 112:../libraries/Storage/sd_mmc_spi.c **** 	while (size--) {
 964              		.loc 1 112 0
 965 0028 0346     		mov	r3, r0
 966              	.LVL62:
 967              	.LBE122:
 968              	.LBE121:
 408:../libraries/Storage/sd_mmc_spi.c **** 	cmd_token[3] = arg >> 8;
 969              		.loc 1 408 0
 970 002a 8DF80A40 		strb	r4, [sp, #10]
 971 002e 0DF1090C 		add	ip, sp, #9
 403:../libraries/Storage/sd_mmc_spi.c **** 
 972              		.loc 1 403 0
 973 0032 494C     		ldr	r4, .L109
 974 0034 0DF10D09 		add	r9, sp, #13
 406:../libraries/Storage/sd_mmc_spi.c **** 	cmd_token[1] = arg >> 24;
 975              		.loc 1 406 0
 976 0038 8DF808E0 		strb	lr, [sp, #8]
 409:../libraries/Storage/sd_mmc_spi.c **** 	cmd_token[4] = arg;
 977              		.loc 1 409 0
 978 003c 8DF80B10 		strb	r1, [sp, #11]
 396:../libraries/Storage/sd_mmc_spi.c **** 	uint8_t cmd_token[6];
 979              		.loc 1 396 0
 980 0040 8DF80620 		strb	r2, [sp, #6]
 403:../libraries/Storage/sd_mmc_spi.c **** 
 981              		.loc 1 403 0
 982 0044 2070     		strb	r0, [r4]
 983              	.LVL63:
 984              	.L81:
 985              	.LBB126:
 986              	.LBB123:
 112:../libraries/Storage/sd_mmc_spi.c **** 	while (size--) {
 987              		.loc 1 112 0
 988 0046 4FF00808 		mov	r8, #8
 989              	.LVL64:
 990              	.L79:
 116:../libraries/Storage/sd_mmc_spi.c **** 			if ((value & 0x80) ^ (crc & 0x80)) {
 991              		.loc 1 116 0
 992 004a 5B00     		lsls	r3, r3, #1
 993              	.LVL65:
 994 004c 08F1FF31 		add	r1, r8, #-1
 120:../libraries/Storage/sd_mmc_spi.c **** 		}
 995              		.loc 1 120 0
 996 0050 4FEA4E00 		lsl	r0, lr, #1
 116:../libraries/Storage/sd_mmc_spi.c **** 			if ((value & 0x80) ^ (crc & 0x80)) {
 997              		.loc 1 116 0
 998 0054 DBB2     		uxtb	r3, r3
 999              	.LVL66:
 117:../libraries/Storage/sd_mmc_spi.c **** 				crc ^= 0x09;
 1000              		.loc 1 117 0
 1001 0056 83EA0E02 		eor	r2, r3, lr
 120:../libraries/Storage/sd_mmc_spi.c **** 		}
 1002              		.loc 1 120 0
ARM GAS  /tmp/ccbxFcRO.s 			page 31


 1003 005a 5FFA80FE 		uxtb	lr, r0
 1004              	.LVL67:
 117:../libraries/Storage/sd_mmc_spi.c **** 				crc ^= 0x09;
 1005              		.loc 1 117 0
 1006 005e 1006     		lsls	r0, r2, #24
 118:../libraries/Storage/sd_mmc_spi.c **** 			}
 1007              		.loc 1 118 0
 1008 0060 48BF     		it	mi
 1009 0062 83F00903 		eormi	r3, r3, #9
 1010              	.LVL68:
 115:../libraries/Storage/sd_mmc_spi.c **** 			crc <<= 1;
 1011              		.loc 1 115 0
 1012 0066 11F0FF08 		ands	r8, r1, #255
 1013 006a EED1     		bne	.L79
 1014              	.LVL69:
 113:../libraries/Storage/sd_mmc_spi.c **** 		value = *buf++;
 1015              		.loc 1 113 0
 1016 006c E145     		cmp	r9, ip
 1017 006e 02D0     		beq	.L80
 1018 0070 1CF801EB 		ldrb	lr, [ip], #1	@ zero_extendqisi2
 1019              	.LVL70:
 1020 0074 E7E7     		b	.L81
 1021              	.LVL71:
 1022              	.L80:
 1023              	.LBE123:
 1024              	.LBE126:
 1025              	.LBB127:
 1026              	.LBB128:
 1027              		.loc 2 126 0
 1028 0076 0122     		movs	r2, #1
 1029              	.LBE128:
 1030              	.LBE127:
 1031              	.LBB131:
 1032              	.LBB124:
 123:../libraries/Storage/sd_mmc_spi.c **** 	return crc;
 1033              		.loc 1 123 0
 1034 0078 5B00     		lsls	r3, r3, #1
 1035              	.LBE124:
 1036              	.LBE131:
 1037              	.LBB132:
 1038              	.LBB129:
 1039              		.loc 2 126 0
 1040 007a 4146     		mov	r1, r8
 1041 007c 0DF10600 		add	r0, sp, #6
 1042              	.LBE129:
 1043              	.LBE132:
 1044              	.LBB133:
 1045              	.LBB125:
 123:../libraries/Storage/sd_mmc_spi.c **** 	return crc;
 1046              		.loc 1 123 0
 1047 0080 1343     		orrs	r3, r3, r2
 1048              	.LBE125:
 1049              	.LBE133:
 411:../libraries/Storage/sd_mmc_spi.c **** 	cmd_token[5] = sd_mmc_spi_crc7(cmd_token, 5);
 412:../libraries/Storage/sd_mmc_spi.c **** 
 413:../libraries/Storage/sd_mmc_spi.c **** 	// 8 cycles to respect Ncs timing
 414:../libraries/Storage/sd_mmc_spi.c **** 	// Note: This byte does not include start bit "0",
ARM GAS  /tmp/ccbxFcRO.s 			page 32


 415:../libraries/Storage/sd_mmc_spi.c **** 	// thus it is ignored by card.
 416:../libraries/Storage/sd_mmc_spi.c **** 	sspi_write_packet(&dummy, 1);
 417:../libraries/Storage/sd_mmc_spi.c **** 	// Send command
 418:../libraries/Storage/sd_mmc_spi.c **** 	sspi_write_packet(cmd_token, sizeof(cmd_token));
 419:../libraries/Storage/sd_mmc_spi.c **** 
 420:../libraries/Storage/sd_mmc_spi.c **** 	// Wait for response
 421:../libraries/Storage/sd_mmc_spi.c **** 	// Two retry will be done to manage the Ncr timing between command and reponse
 422:../libraries/Storage/sd_mmc_spi.c **** 	// Ncr: Min. 1x8 clock  cycle, Max. 8x8 clock cycles
 423:../libraries/Storage/sd_mmc_spi.c **** 	// WORKAROUND for no compliance card (Atmel Internal ref. SD13):
 424:../libraries/Storage/sd_mmc_spi.c **** 	r1 = 0xFF;
 1050              		.loc 1 424 0
 1051 0082 0DF11009 		add	r9, sp, #16
 1052              	.LBB134:
 1053              	.LBB135:
 120:../libraries/Storage/../SharedSpi/SharedSpi.h **** }
 1054              		.loc 2 120 0
 1055 0086 4FF0070A 		mov	r10, #7
 1056              	.LBE135:
 1057              	.LBE134:
 411:../libraries/Storage/sd_mmc_spi.c **** 	cmd_token[5] = sd_mmc_spi_crc7(cmd_token, 5);
 1058              		.loc 1 411 0
 1059 008a 8DF80D30 		strb	r3, [sp, #13]
 1060              	.LVL72:
 1061              	.LBB138:
 1062              	.LBB130:
 1063              		.loc 2 126 0
 1064 008e FFF7FEFF 		bl	sspi_transceive_packet
 1065              	.LVL73:
 1066              	.LBE130:
 1067              	.LBE138:
 1068              	.LBB139:
 1069              	.LBB140:
 1070 0092 0622     		movs	r2, #6
 1071 0094 4146     		mov	r1, r8
 1072 0096 02A8     		add	r0, sp, #8
 1073              	.LVL74:
 1074 0098 FFF7FEFF 		bl	sspi_transceive_packet
 1075              	.LVL75:
 1076              	.LBE140:
 1077              	.LBE139:
 1078              		.loc 1 424 0
 1079 009c FF23     		movs	r3, #255
 1080              	.LBB141:
 1081              	.LBB136:
 120:../libraries/Storage/../SharedSpi/SharedSpi.h **** }
 1082              		.loc 2 120 0
 1083 009e 4046     		mov	r0, r8
 1084 00a0 0122     		movs	r2, #1
 1085              	.LBE136:
 1086              	.LBE141:
 1087              		.loc 1 424 0
 1088 00a2 09F8093D 		strb	r3, [r9, #-9]!
 1089              	.LVL76:
 1090              	.LBB142:
 1091              	.LBB137:
 120:../libraries/Storage/../SharedSpi/SharedSpi.h **** }
 1092              		.loc 2 120 0
ARM GAS  /tmp/ccbxFcRO.s 			page 33


 1093 00a6 4946     		mov	r1, r9
 1094 00a8 FFF7FEFF 		bl	sspi_transceive_packet
 1095              	.LVL77:
 1096              	.L83:
 1097              	.LBE137:
 1098              	.LBE142:
 1099              	.LBB143:
 1100              	.LBB144:
 1101 00ac 0122     		movs	r2, #1
 1102 00ae 4946     		mov	r1, r9
 1103 00b0 0020     		movs	r0, #0
 1104 00b2 FFF7FEFF 		bl	sspi_transceive_packet
 1105              	.LVL78:
 1106              	.LBE144:
 1107              	.LBE143:
 425:../libraries/Storage/sd_mmc_spi.c **** 	// Ignore first byte because Ncr min. = 8 clock cylces
 426:../libraries/Storage/sd_mmc_spi.c **** 	sspi_read_packet(&r1, 1);
 427:../libraries/Storage/sd_mmc_spi.c **** 	ncr_timeout = 7;
 428:../libraries/Storage/sd_mmc_spi.c **** 	while (1) {
 429:../libraries/Storage/sd_mmc_spi.c **** 		sspi_read_packet(&r1, 1); // 8 cycles
 430:../libraries/Storage/sd_mmc_spi.c **** 		if ((r1 & R1_SPI_ERROR) == 0) {
 1108              		.loc 1 430 0
 1109 00b6 9DF80730 		ldrb	r3, [sp, #7]	@ zero_extendqisi2
 1110 00ba 0AF1FF30 		add	r0, r10, #-1
 1111 00be 1A06     		lsls	r2, r3, #24
 1112 00c0 08D5     		bpl	.L82
 431:../libraries/Storage/sd_mmc_spi.c **** 			// Valid R1 response
 432:../libraries/Storage/sd_mmc_spi.c **** 			break;
 433:../libraries/Storage/sd_mmc_spi.c **** 		}
 434:../libraries/Storage/sd_mmc_spi.c **** 		if (--ncr_timeout == 0) {
 1113              		.loc 1 434 0
 1114 00c2 10F0FF0A 		ands	r10, r0, #255
 1115              	.LVL79:
 1116 00c6 F1D1     		bne	.L83
 435:../libraries/Storage/sd_mmc_spi.c **** 			// Here Valid R1 response received
 436:../libraries/Storage/sd_mmc_spi.c **** 			sd_mmc_spi_debug("%s: cmd %02d, arg 0x%08lX, R1 timeout\n\r",
 437:../libraries/Storage/sd_mmc_spi.c **** 					__func__, (int)SDMMC_CMD_GET_INDEX(cmd), arg);
 438:../libraries/Storage/sd_mmc_spi.c **** 			sd_mmc_spi_err = SD_MMC_SPI_ERR_RESP_TIMEOUT;
 1117              		.loc 1 438 0
 1118 00c8 0223     		movs	r3, #2
 439:../libraries/Storage/sd_mmc_spi.c **** 			return false;
 1119              		.loc 1 439 0
 1120 00ca 5046     		mov	r0, r10
 438:../libraries/Storage/sd_mmc_spi.c **** 			return false;
 1121              		.loc 1 438 0
 1122 00cc 2370     		strb	r3, [r4]
 1123              	.L84:
 440:../libraries/Storage/sd_mmc_spi.c **** 		}
 441:../libraries/Storage/sd_mmc_spi.c **** 	}
 442:../libraries/Storage/sd_mmc_spi.c **** 
 443:../libraries/Storage/sd_mmc_spi.c **** 	// Save R1 (Specific to SPI interface) in 32 bit response
 444:../libraries/Storage/sd_mmc_spi.c **** 	// The R1_SPI_IDLE bit can be checked by high level
 445:../libraries/Storage/sd_mmc_spi.c **** 	sd_mmc_spi_response_32 = r1;
 446:../libraries/Storage/sd_mmc_spi.c **** 
 447:../libraries/Storage/sd_mmc_spi.c **** 	// Manage error in R1
 448:../libraries/Storage/sd_mmc_spi.c **** 	if (r1 & R1_SPI_COM_CRC) {
 449:../libraries/Storage/sd_mmc_spi.c **** 		sd_mmc_spi_debug("%s: cmd %02d, arg 0x%08lx, r1 0x%02x, R1_SPI_COM_CRC\n\r",
ARM GAS  /tmp/ccbxFcRO.s 			page 34


 450:../libraries/Storage/sd_mmc_spi.c **** 				__func__, (int)SDMMC_CMD_GET_INDEX(cmd), arg, r1);
 451:../libraries/Storage/sd_mmc_spi.c **** 		sd_mmc_spi_err = SD_MMC_SPI_ERR_RESP_CRC;
 452:../libraries/Storage/sd_mmc_spi.c **** 		return false;
 453:../libraries/Storage/sd_mmc_spi.c **** 	}
 454:../libraries/Storage/sd_mmc_spi.c **** 	if (r1 & R1_SPI_ILLEGAL_COMMAND) {
 455:../libraries/Storage/sd_mmc_spi.c **** 		sd_mmc_spi_debug("%s: cmd %02d, arg 0x%08lx, r1 0x%x, R1 ILLEGAL_COMMAND\n\r",
 456:../libraries/Storage/sd_mmc_spi.c **** 				__func__, (int)SDMMC_CMD_GET_INDEX(cmd), arg, r1);
 457:../libraries/Storage/sd_mmc_spi.c **** 		sd_mmc_spi_err = SD_MMC_SPI_ERR_ILLEGAL_COMMAND;
 458:../libraries/Storage/sd_mmc_spi.c **** 		return false;
 459:../libraries/Storage/sd_mmc_spi.c **** 	}
 460:../libraries/Storage/sd_mmc_spi.c **** 	if (r1 & ~R1_SPI_IDLE) {
 461:../libraries/Storage/sd_mmc_spi.c **** 		// Other error
 462:../libraries/Storage/sd_mmc_spi.c **** 		sd_mmc_spi_debug("%s: cmd %02d, arg 0x%08lx, r1 0x%x, R1 error\n\r",
 463:../libraries/Storage/sd_mmc_spi.c **** 				__func__, (int)SDMMC_CMD_GET_INDEX(cmd), arg, r1);
 464:../libraries/Storage/sd_mmc_spi.c **** 		sd_mmc_spi_err = SD_MMC_SPI_ERR;
 465:../libraries/Storage/sd_mmc_spi.c **** 		return false;
 466:../libraries/Storage/sd_mmc_spi.c **** 	}
 467:../libraries/Storage/sd_mmc_spi.c **** 
 468:../libraries/Storage/sd_mmc_spi.c **** 	// Manage other responses
 469:../libraries/Storage/sd_mmc_spi.c **** 	if (cmd & SDMMC_RESP_BUSY) {
 470:../libraries/Storage/sd_mmc_spi.c **** 		if (!sd_mmc_spi_wait_busy()) {
 471:../libraries/Storage/sd_mmc_spi.c **** 			sd_mmc_spi_err = SD_MMC_SPI_ERR_RESP_BUSY_TIMEOUT;
 472:../libraries/Storage/sd_mmc_spi.c **** 			sd_mmc_spi_debug("%s: cmd %02d, arg 0x%08lx, Busy signal always high\n\r",
 473:../libraries/Storage/sd_mmc_spi.c **** 					__func__, (int)SDMMC_CMD_GET_INDEX(cmd), arg);
 474:../libraries/Storage/sd_mmc_spi.c **** 			return false;
 475:../libraries/Storage/sd_mmc_spi.c **** 		}
 476:../libraries/Storage/sd_mmc_spi.c **** 	}
 477:../libraries/Storage/sd_mmc_spi.c **** 	if (cmd & SDMMC_RESP_8) {
 478:../libraries/Storage/sd_mmc_spi.c **** 		sd_mmc_spi_response_32 = 0;
 479:../libraries/Storage/sd_mmc_spi.c **** 		sspi_read_packet((uint8_t*) & sd_mmc_spi_response_32, 1);
 480:../libraries/Storage/sd_mmc_spi.c **** 		sd_mmc_spi_response_32 = le32_to_cpu(sd_mmc_spi_response_32);
 481:../libraries/Storage/sd_mmc_spi.c **** 	}
 482:../libraries/Storage/sd_mmc_spi.c **** 	if (cmd & SDMMC_RESP_32) {
 483:../libraries/Storage/sd_mmc_spi.c **** 		sspi_read_packet((uint8_t*) & sd_mmc_spi_response_32, 4);
 484:../libraries/Storage/sd_mmc_spi.c **** 		sd_mmc_spi_response_32 = be32_to_cpu(sd_mmc_spi_response_32);
 485:../libraries/Storage/sd_mmc_spi.c **** 	}
 486:../libraries/Storage/sd_mmc_spi.c **** 
 487:../libraries/Storage/sd_mmc_spi.c **** 	sd_mmc_spi_block_size = block_size;
 488:../libraries/Storage/sd_mmc_spi.c **** 	sd_mmc_spi_nb_block = nb_block;
 489:../libraries/Storage/sd_mmc_spi.c **** 	sd_mmc_spi_transfert_pos = 0;
 490:../libraries/Storage/sd_mmc_spi.c **** 	return true; // Command complete
 491:../libraries/Storage/sd_mmc_spi.c **** }
 1124              		.loc 1 491 0
 1125 00ce 04B0     		add	sp, sp, #16
 1126              		.cfi_remember_state
 1127              		.cfi_def_cfa_offset 32
 1128              		@ sp needed
 1129 00d0 BDE8F087 		pop	{r4, r5, r6, r7, r8, r9, r10, pc}
 1130              	.LVL80:
 1131              	.L82:
 1132              		.cfi_restore_state
 445:../libraries/Storage/sd_mmc_spi.c **** 
 1133              		.loc 1 445 0
 1134 00d4 DFF89080 		ldr	r8, .L109+16
 448:../libraries/Storage/sd_mmc_spi.c **** 		sd_mmc_spi_debug("%s: cmd %02d, arg 0x%08lx, r1 0x%02x, R1_SPI_COM_CRC\n\r",
 1135              		.loc 1 448 0
 1136 00d8 13F00802 		ands	r2, r3, #8
ARM GAS  /tmp/ccbxFcRO.s 			page 35


 445:../libraries/Storage/sd_mmc_spi.c **** 
 1137              		.loc 1 445 0
 1138 00dc C8F80030 		str	r3, [r8]
 448:../libraries/Storage/sd_mmc_spi.c **** 		sd_mmc_spi_debug("%s: cmd %02d, arg 0x%08lx, r1 0x%02x, R1_SPI_COM_CRC\n\r",
 1139              		.loc 1 448 0
 1140 00e0 14D1     		bne	.L103
 454:../libraries/Storage/sd_mmc_spi.c **** 		sd_mmc_spi_debug("%s: cmd %02d, arg 0x%08lx, r1 0x%x, R1 ILLEGAL_COMMAND\n\r",
 1141              		.loc 1 454 0
 1142 00e2 13F00400 		ands	r0, r3, #4
 1143 00e6 15D1     		bne	.L104
 460:../libraries/Storage/sd_mmc_spi.c **** 		// Other error
 1144              		.loc 1 460 0
 1145 00e8 13F0FE0F 		tst	r3, #254
 1146 00ec 31D1     		bne	.L105
 469:../libraries/Storage/sd_mmc_spi.c **** 		if (!sd_mmc_spi_wait_busy()) {
 1147              		.loc 1 469 0
 1148 00ee A904     		lsls	r1, r5, #18
 1149 00f0 14D4     		bmi	.L106
 1150              	.L88:
 477:../libraries/Storage/sd_mmc_spi.c **** 		sd_mmc_spi_response_32 = 0;
 1151              		.loc 1 477 0
 1152 00f2 AA05     		lsls	r2, r5, #22
 1153 00f4 24D4     		bmi	.L107
 1154              	.L89:
 482:../libraries/Storage/sd_mmc_spi.c **** 		sspi_read_packet((uint8_t*) & sd_mmc_spi_response_32, 4);
 1155              		.loc 1 482 0
 1156 00f6 6B05     		lsls	r3, r5, #21
 1157 00f8 17D4     		bmi	.L108
 1158              	.L90:
 487:../libraries/Storage/sd_mmc_spi.c **** 	sd_mmc_spi_nb_block = nb_block;
 1159              		.loc 1 487 0
 1160 00fa 184C     		ldr	r4, .L109+4
 489:../libraries/Storage/sd_mmc_spi.c **** 	return true; // Command complete
 1161              		.loc 1 489 0
 1162 00fc 0022     		movs	r2, #0
 488:../libraries/Storage/sd_mmc_spi.c **** 	sd_mmc_spi_transfert_pos = 0;
 1163              		.loc 1 488 0
 1164 00fe 1849     		ldr	r1, .L109+8
 490:../libraries/Storage/sd_mmc_spi.c **** }
 1165              		.loc 1 490 0
 1166 0100 0120     		movs	r0, #1
 489:../libraries/Storage/sd_mmc_spi.c **** 	return true; // Command complete
 1167              		.loc 1 489 0
 1168 0102 184B     		ldr	r3, .L109+12
 487:../libraries/Storage/sd_mmc_spi.c **** 	sd_mmc_spi_nb_block = nb_block;
 1169              		.loc 1 487 0
 1170 0104 2780     		strh	r7, [r4]	@ movhi
 488:../libraries/Storage/sd_mmc_spi.c **** 	sd_mmc_spi_transfert_pos = 0;
 1171              		.loc 1 488 0
 1172 0106 0E80     		strh	r6, [r1]	@ movhi
 489:../libraries/Storage/sd_mmc_spi.c **** 	return true; // Command complete
 1173              		.loc 1 489 0
 1174 0108 1A60     		str	r2, [r3]
 490:../libraries/Storage/sd_mmc_spi.c **** }
 1175              		.loc 1 490 0
 1176 010a E0E7     		b	.L84
 1177              	.L103:
ARM GAS  /tmp/ccbxFcRO.s 			page 36


 451:../libraries/Storage/sd_mmc_spi.c **** 		return false;
 1178              		.loc 1 451 0
 1179 010c 0623     		movs	r3, #6
 452:../libraries/Storage/sd_mmc_spi.c **** 	}
 1180              		.loc 1 452 0
 1181 010e 0020     		movs	r0, #0
 451:../libraries/Storage/sd_mmc_spi.c **** 		return false;
 1182              		.loc 1 451 0
 1183 0110 2370     		strb	r3, [r4]
 452:../libraries/Storage/sd_mmc_spi.c **** 	}
 1184              		.loc 1 452 0
 1185 0112 DCE7     		b	.L84
 1186              	.L104:
 457:../libraries/Storage/sd_mmc_spi.c **** 		return false;
 1187              		.loc 1 457 0
 1188 0114 0923     		movs	r3, #9
 458:../libraries/Storage/sd_mmc_spi.c **** 	}
 1189              		.loc 1 458 0
 1190 0116 1046     		mov	r0, r2
 457:../libraries/Storage/sd_mmc_spi.c **** 		return false;
 1191              		.loc 1 457 0
 1192 0118 2370     		strb	r3, [r4]
 458:../libraries/Storage/sd_mmc_spi.c **** 	}
 1193              		.loc 1 458 0
 1194 011a D8E7     		b	.L84
 1195              	.L106:
 470:../libraries/Storage/sd_mmc_spi.c **** 			sd_mmc_spi_err = SD_MMC_SPI_ERR_RESP_BUSY_TIMEOUT;
 1196              		.loc 1 470 0
 1197 011c FFF7FEFF 		bl	sd_mmc_spi_wait_busy
 1198              	.LVL81:
 1199 0120 0028     		cmp	r0, #0
 1200 0122 E6D1     		bne	.L88
 471:../libraries/Storage/sd_mmc_spi.c **** 			sd_mmc_spi_debug("%s: cmd %02d, arg 0x%08lx, Busy signal always high\n\r",
 1201              		.loc 1 471 0
 1202 0124 0323     		movs	r3, #3
 1203 0126 2370     		strb	r3, [r4]
 474:../libraries/Storage/sd_mmc_spi.c **** 		}
 1204              		.loc 1 474 0
 1205 0128 D1E7     		b	.L84
 1206              	.L108:
 1207              	.LVL82:
 1208              	.LBB145:
 1209              	.LBB146:
 120:../libraries/Storage/../SharedSpi/SharedSpi.h **** }
 1210              		.loc 2 120 0
 1211 012a 0422     		movs	r2, #4
 1212 012c 0E49     		ldr	r1, .L109+16
 1213 012e 0020     		movs	r0, #0
 1214 0130 FFF7FEFF 		bl	sspi_transceive_packet
 1215              	.LVL83:
 1216              	.LBE146:
 1217              	.LBE145:
 484:../libraries/Storage/sd_mmc_spi.c **** 	}
 1218              		.loc 1 484 0
 1219 0134 D8F80030 		ldr	r3, [r8]
 1220 0138 1BBA     		rev	r3, r3
 1221 013a C8F80030 		str	r3, [r8]
ARM GAS  /tmp/ccbxFcRO.s 			page 37


 1222 013e DCE7     		b	.L90
 1223              	.L107:
 478:../libraries/Storage/sd_mmc_spi.c **** 		sspi_read_packet((uint8_t*) & sd_mmc_spi_response_32, 1);
 1224              		.loc 1 478 0
 1225 0140 0023     		movs	r3, #0
 1226              	.LBB147:
 1227              	.LBB148:
 120:../libraries/Storage/../SharedSpi/SharedSpi.h **** }
 1228              		.loc 2 120 0
 1229 0142 0122     		movs	r2, #1
 1230 0144 0849     		ldr	r1, .L109+16
 1231 0146 1846     		mov	r0, r3
 1232              	.LBE148:
 1233              	.LBE147:
 478:../libraries/Storage/sd_mmc_spi.c **** 		sspi_read_packet((uint8_t*) & sd_mmc_spi_response_32, 1);
 1234              		.loc 1 478 0
 1235 0148 C8F80030 		str	r3, [r8]
 1236              	.LVL84:
 1237              	.LBB150:
 1238              	.LBB149:
 120:../libraries/Storage/../SharedSpi/SharedSpi.h **** }
 1239              		.loc 2 120 0
 1240 014c FFF7FEFF 		bl	sspi_transceive_packet
 1241              	.LVL85:
 1242 0150 D1E7     		b	.L89
 1243              	.L105:
 1244              	.LBE149:
 1245              	.LBE150:
 464:../libraries/Storage/sd_mmc_spi.c **** 		return false;
 1246              		.loc 1 464 0
 1247 0152 0123     		movs	r3, #1
 1248 0154 2370     		strb	r3, [r4]
 465:../libraries/Storage/sd_mmc_spi.c **** 	}
 1249              		.loc 1 465 0
 1250 0156 BAE7     		b	.L84
 1251              	.L110:
 1252              		.align	2
 1253              	.L109:
 1254 0158 00000000 		.word	.LANCHOR1
 1255 015c 00000000 		.word	.LANCHOR3
 1256 0160 00000000 		.word	.LANCHOR0
 1257 0164 00000000 		.word	.LANCHOR2
 1258 0168 00000000 		.word	.LANCHOR6
 1259              		.cfi_endproc
 1260              	.LFE248:
 1261              		.size	sd_mmc_spi_adtc_start, .-sd_mmc_spi_adtc_start
 1262              		.section	.text.sd_mmc_spi_send_cmd,"ax",%progbits
 1263              		.align	1
 1264              		.p2align 2,,3
 1265              		.global	sd_mmc_spi_send_cmd
 1266              		.syntax unified
 1267              		.thumb
 1268              		.thumb_func
 1269              		.fpu fpv5-d16
 1270              		.type	sd_mmc_spi_send_cmd, %function
 1271              	sd_mmc_spi_send_cmd:
 1272              	.LFB247:
ARM GAS  /tmp/ccbxFcRO.s 			page 38


 389:../libraries/Storage/sd_mmc_spi.c **** 	return sd_mmc_spi_adtc_start(cmd, arg, 0, 0, false);
 1273              		.loc 1 389 0
 1274              		.cfi_startproc
 1275              		@ args = 0, pretend = 0, frame = 0
 1276              		@ frame_needed = 0, uses_anonymous_args = 0
 1277              	.LVL86:
 390:../libraries/Storage/sd_mmc_spi.c **** }
 1278              		.loc 1 390 0
 1279 0000 0023     		movs	r3, #0
 389:../libraries/Storage/sd_mmc_spi.c **** 	return sd_mmc_spi_adtc_start(cmd, arg, 0, 0, false);
 1280              		.loc 1 389 0
 1281 0002 00B5     		push	{lr}
 1282              		.cfi_def_cfa_offset 4
 1283              		.cfi_offset 14, -4
 1284 0004 83B0     		sub	sp, sp, #12
 1285              		.cfi_def_cfa_offset 16
 390:../libraries/Storage/sd_mmc_spi.c **** }
 1286              		.loc 1 390 0
 1287 0006 1A46     		mov	r2, r3
 1288 0008 0093     		str	r3, [sp]
 1289 000a FFF7FEFF 		bl	sd_mmc_spi_adtc_start
 1290              	.LVL87:
 391:../libraries/Storage/sd_mmc_spi.c **** 
 1291              		.loc 1 391 0
 1292 000e 03B0     		add	sp, sp, #12
 1293              		.cfi_def_cfa_offset 4
 1294              		@ sp needed
 1295 0010 5DF804FB 		ldr	pc, [sp], #4
 1296              		.cfi_endproc
 1297              	.LFE247:
 1298              		.size	sd_mmc_spi_send_cmd, .-sd_mmc_spi_send_cmd
 1299              		.section	.text.sd_mmc_spi_get_response,"ax",%progbits
 1300              		.align	1
 1301              		.p2align 2,,3
 1302              		.global	sd_mmc_spi_get_response
 1303              		.syntax unified
 1304              		.thumb
 1305              		.thumb_func
 1306              		.fpu fpv5-d16
 1307              		.type	sd_mmc_spi_get_response, %function
 1308              	sd_mmc_spi_get_response:
 1309              	.LFB249:
 492:../libraries/Storage/sd_mmc_spi.c **** 
 493:../libraries/Storage/sd_mmc_spi.c **** uint32_t sd_mmc_spi_get_response(void)
 494:../libraries/Storage/sd_mmc_spi.c **** {
 1310              		.loc 1 494 0
 1311              		.cfi_startproc
 1312              		@ args = 0, pretend = 0, frame = 0
 1313              		@ frame_needed = 0, uses_anonymous_args = 0
 1314              		@ link register save eliminated.
 495:../libraries/Storage/sd_mmc_spi.c **** 	return sd_mmc_spi_response_32;
 1315              		.loc 1 495 0
 1316 0000 014B     		ldr	r3, .L114
 496:../libraries/Storage/sd_mmc_spi.c **** }
 1317              		.loc 1 496 0
 1318 0002 1868     		ldr	r0, [r3]
 1319 0004 7047     		bx	lr
ARM GAS  /tmp/ccbxFcRO.s 			page 39


 1320              	.L115:
 1321 0006 00BF     		.align	2
 1322              	.L114:
 1323 0008 00000000 		.word	.LANCHOR6
 1324              		.cfi_endproc
 1325              	.LFE249:
 1326              		.size	sd_mmc_spi_get_response, .-sd_mmc_spi_get_response
 1327              		.section	.text.sd_mmc_spi_read_word,"ax",%progbits
 1328              		.align	1
 1329              		.p2align 2,,3
 1330              		.global	sd_mmc_spi_read_word
 1331              		.syntax unified
 1332              		.thumb
 1333              		.thumb_func
 1334              		.fpu fpv5-d16
 1335              		.type	sd_mmc_spi_read_word, %function
 1336              	sd_mmc_spi_read_word:
 1337              	.LFB250:
 497:../libraries/Storage/sd_mmc_spi.c **** 
 498:../libraries/Storage/sd_mmc_spi.c **** bool sd_mmc_spi_read_word(uint32_t* value)
 499:../libraries/Storage/sd_mmc_spi.c **** {
 1338              		.loc 1 499 0
 1339              		.cfi_startproc
 1340              		@ args = 0, pretend = 0, frame = 8
 1341              		@ frame_needed = 0, uses_anonymous_args = 0
 1342              	.LVL88:
 1343 0000 2DE9F041 		push	{r4, r5, r6, r7, r8, lr}
 1344              		.cfi_def_cfa_offset 24
 1345              		.cfi_offset 4, -24
 1346              		.cfi_offset 5, -20
 1347              		.cfi_offset 6, -16
 1348              		.cfi_offset 7, -12
 1349              		.cfi_offset 8, -8
 1350              		.cfi_offset 14, -4
 500:../libraries/Storage/sd_mmc_spi.c **** 	sd_mmc_spi_err = SD_MMC_SPI_NO_ERR;
 501:../libraries/Storage/sd_mmc_spi.c **** 	Assert(sd_mmc_spi_nb_block >
 502:../libraries/Storage/sd_mmc_spi.c **** 			(sd_mmc_spi_transfert_pos / sd_mmc_spi_block_size));
 503:../libraries/Storage/sd_mmc_spi.c **** 
 504:../libraries/Storage/sd_mmc_spi.c **** 	if (!(sd_mmc_spi_transfert_pos % sd_mmc_spi_block_size)) {
 1351              		.loc 1 504 0
 1352 0004 134C     		ldr	r4, .L124
 499:../libraries/Storage/sd_mmc_spi.c **** 	sd_mmc_spi_err = SD_MMC_SPI_NO_ERR;
 1353              		.loc 1 499 0
 1354 0006 8046     		mov	r8, r0
 1355              		.loc 1 504 0
 1356 0008 134D     		ldr	r5, .L124+4
 500:../libraries/Storage/sd_mmc_spi.c **** 	sd_mmc_spi_err = SD_MMC_SPI_NO_ERR;
 1357              		.loc 1 500 0
 1358 000a 0027     		movs	r7, #0
 1359              		.loc 1 504 0
 1360 000c 2068     		ldr	r0, [r4]
 1361              	.LVL89:
 499:../libraries/Storage/sd_mmc_spi.c **** 	sd_mmc_spi_err = SD_MMC_SPI_NO_ERR;
 1362              		.loc 1 499 0
 1363 000e 82B0     		sub	sp, sp, #8
 1364              		.cfi_def_cfa_offset 32
 1365              		.loc 1 504 0
ARM GAS  /tmp/ccbxFcRO.s 			page 40


 1366 0010 2A88     		ldrh	r2, [r5]
 500:../libraries/Storage/sd_mmc_spi.c **** 	sd_mmc_spi_err = SD_MMC_SPI_NO_ERR;
 1367              		.loc 1 500 0
 1368 0012 124E     		ldr	r6, .L124+8
 1369              		.loc 1 504 0
 1370 0014 B0FBF2F3 		udiv	r3, r0, r2
 1371 0018 02FB1303 		mls	r3, r2, r3, r0
 500:../libraries/Storage/sd_mmc_spi.c **** 	sd_mmc_spi_err = SD_MMC_SPI_NO_ERR;
 1372              		.loc 1 500 0
 1373 001c 3770     		strb	r7, [r6]
 1374              		.loc 1 504 0
 1375 001e 13B9     		cbnz	r3, .L120
 505:../libraries/Storage/sd_mmc_spi.c **** 		// New block
 506:../libraries/Storage/sd_mmc_spi.c **** 		if (!sd_mmc_spi_start_read_block()) {
 1376              		.loc 1 506 0
 1377 0020 FFF7FEFF 		bl	sd_mmc_spi_start_read_block
 1378              	.LVL90:
 1379 0024 70B1     		cbz	r0, .L119
 1380              	.L120:
 1381              	.LVL91:
 1382              	.LBB151:
 1383              	.LBB152:
 120:../libraries/Storage/../SharedSpi/SharedSpi.h **** }
 1384              		.loc 2 120 0
 1385 0026 0422     		movs	r2, #4
 1386 0028 4146     		mov	r1, r8
 1387 002a 0020     		movs	r0, #0
 1388 002c FFF7FEFF 		bl	sspi_transceive_packet
 1389              	.LVL92:
 1390              	.LBE152:
 1391              	.LBE151:
 507:../libraries/Storage/sd_mmc_spi.c **** 			return false;
 508:../libraries/Storage/sd_mmc_spi.c **** 		}
 509:../libraries/Storage/sd_mmc_spi.c **** 	}
 510:../libraries/Storage/sd_mmc_spi.c **** 	// Read data
 511:../libraries/Storage/sd_mmc_spi.c **** 	sspi_read_packet((uint8_t*)value, 4);
 512:../libraries/Storage/sd_mmc_spi.c **** 	*value = le32_to_cpu(*value);
 513:../libraries/Storage/sd_mmc_spi.c **** 	sd_mmc_spi_transfert_pos += 4;
 1392              		.loc 1 513 0
 1393 0030 2368     		ldr	r3, [r4]
 514:../libraries/Storage/sd_mmc_spi.c **** 
 515:../libraries/Storage/sd_mmc_spi.c **** 	if (!(sd_mmc_spi_transfert_pos % sd_mmc_spi_block_size)) {
 1394              		.loc 1 515 0
 1395 0032 2A88     		ldrh	r2, [r5]
 513:../libraries/Storage/sd_mmc_spi.c **** 
 1396              		.loc 1 513 0
 1397 0034 0433     		adds	r3, r3, #4
 1398              		.loc 1 515 0
 1399 0036 B3FBF2F0 		udiv	r0, r3, r2
 1400 003a 02FB1030 		mls	r0, r2, r0, r3
 513:../libraries/Storage/sd_mmc_spi.c **** 
 1401              		.loc 1 513 0
 1402 003e 2360     		str	r3, [r4]
 1403              		.loc 1 515 0
 1404 0040 18B1     		cbz	r0, .L123
 1405              	.L122:
 516:../libraries/Storage/sd_mmc_spi.c **** 		// End of block
ARM GAS  /tmp/ccbxFcRO.s 			page 41


 517:../libraries/Storage/sd_mmc_spi.c **** 		sd_mmc_spi_stop_read_block();
 518:../libraries/Storage/sd_mmc_spi.c **** 	}
 519:../libraries/Storage/sd_mmc_spi.c **** 	return true;
 1406              		.loc 1 519 0
 1407 0042 0120     		movs	r0, #1
 1408              	.L119:
 520:../libraries/Storage/sd_mmc_spi.c **** }
 1409              		.loc 1 520 0
 1410 0044 02B0     		add	sp, sp, #8
 1411              		.cfi_remember_state
 1412              		.cfi_def_cfa_offset 24
 1413              		@ sp needed
 1414 0046 BDE8F081 		pop	{r4, r5, r6, r7, r8, pc}
 1415              	.LVL93:
 1416              	.L123:
 1417              		.cfi_restore_state
 1418              	.LBB153:
 1419              	.LBB154:
 1420              	.LBB155:
 1421              	.LBB156:
 120:../libraries/Storage/../SharedSpi/SharedSpi.h **** }
 1422              		.loc 2 120 0
 1423 004a 0222     		movs	r2, #2
 1424 004c 01A9     		add	r1, sp, #4
 1425              	.LVL94:
 1426 004e FFF7FEFF 		bl	sspi_transceive_packet
 1427              	.LVL95:
 1428 0052 F6E7     		b	.L122
 1429              	.L125:
 1430              		.align	2
 1431              	.L124:
 1432 0054 00000000 		.word	.LANCHOR2
 1433 0058 00000000 		.word	.LANCHOR3
 1434 005c 00000000 		.word	.LANCHOR1
 1435              	.LBE156:
 1436              	.LBE155:
 1437              	.LBE154:
 1438              	.LBE153:
 1439              		.cfi_endproc
 1440              	.LFE250:
 1441              		.size	sd_mmc_spi_read_word, .-sd_mmc_spi_read_word
 1442              		.section	.text.sd_mmc_spi_write_word,"ax",%progbits
 1443              		.align	1
 1444              		.p2align 2,,3
 1445              		.global	sd_mmc_spi_write_word
 1446              		.syntax unified
 1447              		.thumb
 1448              		.thumb_func
 1449              		.fpu fpv5-d16
 1450              		.type	sd_mmc_spi_write_word, %function
 1451              	sd_mmc_spi_write_word:
 1452              	.LFB251:
 521:../libraries/Storage/sd_mmc_spi.c **** 
 522:../libraries/Storage/sd_mmc_spi.c **** bool sd_mmc_spi_write_word(uint32_t value)
 523:../libraries/Storage/sd_mmc_spi.c **** {
 1453              		.loc 1 523 0
 1454              		.cfi_startproc
ARM GAS  /tmp/ccbxFcRO.s 			page 42


 1455              		@ args = 0, pretend = 0, frame = 8
 1456              		@ frame_needed = 0, uses_anonymous_args = 0
 1457              	.LVL96:
 1458 0000 70B5     		push	{r4, r5, r6, lr}
 1459              		.cfi_def_cfa_offset 16
 1460              		.cfi_offset 4, -16
 1461              		.cfi_offset 5, -12
 1462              		.cfi_offset 6, -8
 1463              		.cfi_offset 14, -4
 524:../libraries/Storage/sd_mmc_spi.c **** 	sd_mmc_spi_err = SD_MMC_SPI_NO_ERR;
 525:../libraries/Storage/sd_mmc_spi.c **** 	Assert(sd_mmc_spi_nb_block >
 526:../libraries/Storage/sd_mmc_spi.c **** 			(sd_mmc_spi_transfert_pos / sd_mmc_spi_block_size));
 527:../libraries/Storage/sd_mmc_spi.c **** 
 528:../libraries/Storage/sd_mmc_spi.c **** 	if (!(sd_mmc_spi_transfert_pos % sd_mmc_spi_block_size)) {
 1464              		.loc 1 528 0
 1465 0002 184C     		ldr	r4, .L136
 524:../libraries/Storage/sd_mmc_spi.c **** 	sd_mmc_spi_err = SD_MMC_SPI_NO_ERR;
 1466              		.loc 1 524 0
 1467 0004 0023     		movs	r3, #0
 1468              		.loc 1 528 0
 1469 0006 184E     		ldr	r6, .L136+4
 523:../libraries/Storage/sd_mmc_spi.c **** 	sd_mmc_spi_err = SD_MMC_SPI_NO_ERR;
 1470              		.loc 1 523 0
 1471 0008 82B0     		sub	sp, sp, #8
 1472              		.cfi_def_cfa_offset 24
 1473              		.loc 1 528 0
 1474 000a 2168     		ldr	r1, [r4]
 1475 000c 3288     		ldrh	r2, [r6]
 524:../libraries/Storage/sd_mmc_spi.c **** 	sd_mmc_spi_err = SD_MMC_SPI_NO_ERR;
 1476              		.loc 1 524 0
 1477 000e 174D     		ldr	r5, .L136+8
 523:../libraries/Storage/sd_mmc_spi.c **** 	sd_mmc_spi_err = SD_MMC_SPI_NO_ERR;
 1478              		.loc 1 523 0
 1479 0010 0190     		str	r0, [sp, #4]
 524:../libraries/Storage/sd_mmc_spi.c **** 	sd_mmc_spi_err = SD_MMC_SPI_NO_ERR;
 1480              		.loc 1 524 0
 1481 0012 2B70     		strb	r3, [r5]
 1482              		.loc 1 528 0
 1483 0014 B1FBF2F3 		udiv	r3, r1, r2
 1484 0018 02FB1313 		mls	r3, r2, r3, r1
 1485 001c BBB1     		cbz	r3, .L134
 1486              	.LVL97:
 1487              	.L127:
 1488              	.LBB157:
 1489              	.LBB158:
 1490              		.loc 2 126 0
 1491 001e 0422     		movs	r2, #4
 1492 0020 0021     		movs	r1, #0
 1493 0022 0DEB0200 		add	r0, sp, r2
 1494 0026 FFF7FEFF 		bl	sspi_transceive_packet
 1495              	.LVL98:
 1496              	.LBE158:
 1497              	.LBE157:
 529:../libraries/Storage/sd_mmc_spi.c **** 		// New block
 530:../libraries/Storage/sd_mmc_spi.c **** 		sd_mmc_spi_start_write_block();
 531:../libraries/Storage/sd_mmc_spi.c **** 	}
 532:../libraries/Storage/sd_mmc_spi.c **** 
ARM GAS  /tmp/ccbxFcRO.s 			page 43


 533:../libraries/Storage/sd_mmc_spi.c **** 	// Write data
 534:../libraries/Storage/sd_mmc_spi.c **** 	value = cpu_to_le32(value);
 535:../libraries/Storage/sd_mmc_spi.c **** 	sspi_write_packet((uint8_t*)&value, 4);
 536:../libraries/Storage/sd_mmc_spi.c **** 	sd_mmc_spi_transfert_pos += 4;
 1498              		.loc 1 536 0
 1499 002a 2368     		ldr	r3, [r4]
 537:../libraries/Storage/sd_mmc_spi.c **** 
 538:../libraries/Storage/sd_mmc_spi.c **** 	if (!(sd_mmc_spi_transfert_pos % sd_mmc_spi_block_size)) {
 1500              		.loc 1 538 0
 1501 002c 3188     		ldrh	r1, [r6]
 536:../libraries/Storage/sd_mmc_spi.c **** 
 1502              		.loc 1 536 0
 1503 002e 0433     		adds	r3, r3, #4
 1504              		.loc 1 538 0
 1505 0030 B3FBF1F2 		udiv	r2, r3, r1
 1506 0034 01FB1232 		mls	r2, r1, r2, r3
 536:../libraries/Storage/sd_mmc_spi.c **** 
 1507              		.loc 1 536 0
 1508 0038 2360     		str	r3, [r4]
 1509              		.loc 1 538 0
 1510 003a 22B9     		cbnz	r2, .L128
 539:../libraries/Storage/sd_mmc_spi.c **** 		// End of block
 540:../libraries/Storage/sd_mmc_spi.c **** 		if (!sd_mmc_spi_stop_write_block()) {
 1511              		.loc 1 540 0
 1512 003c FFF7FEFF 		bl	sd_mmc_spi_stop_write_block
 1513              	.LVL99:
 1514 0040 40B9     		cbnz	r0, .L135
 1515              	.L129:
 541:../libraries/Storage/sd_mmc_spi.c **** 			return false;
 542:../libraries/Storage/sd_mmc_spi.c **** 		}
 543:../libraries/Storage/sd_mmc_spi.c **** 		// Wait busy due to data programmation
 544:../libraries/Storage/sd_mmc_spi.c **** 		if (!sd_mmc_spi_wait_busy()) {
 545:../libraries/Storage/sd_mmc_spi.c **** 			sd_mmc_spi_err = SD_MMC_SPI_ERR_WRITE_TIMEOUT;
 546:../libraries/Storage/sd_mmc_spi.c **** 			sd_mmc_spi_debug("%s: Write blocks timeout\n\r", __func__);
 547:../libraries/Storage/sd_mmc_spi.c **** 			return false;
 548:../libraries/Storage/sd_mmc_spi.c **** 		}
 549:../libraries/Storage/sd_mmc_spi.c **** 	}
 550:../libraries/Storage/sd_mmc_spi.c **** 	return sd_mmc_spi_stop_multiwrite_block();
 551:../libraries/Storage/sd_mmc_spi.c **** }
 1516              		.loc 1 551 0
 1517 0042 02B0     		add	sp, sp, #8
 1518              		.cfi_remember_state
 1519              		.cfi_def_cfa_offset 16
 1520              		@ sp needed
 1521 0044 70BD     		pop	{r4, r5, r6, pc}
 1522              	.L128:
 1523              		.cfi_restore_state
 550:../libraries/Storage/sd_mmc_spi.c **** }
 1524              		.loc 1 550 0
 1525 0046 FFF7FEFF 		bl	sd_mmc_spi_stop_multiwrite_block
 1526              	.LVL100:
 1527              		.loc 1 551 0
 1528 004a 02B0     		add	sp, sp, #8
 1529              		.cfi_remember_state
 1530              		.cfi_def_cfa_offset 16
 1531              		@ sp needed
 1532 004c 70BD     		pop	{r4, r5, r6, pc}
ARM GAS  /tmp/ccbxFcRO.s 			page 44


 1533              	.LVL101:
 1534              	.L134:
 1535              		.cfi_restore_state
 530:../libraries/Storage/sd_mmc_spi.c **** 	}
 1536              		.loc 1 530 0
 1537 004e FFF7FEFF 		bl	sd_mmc_spi_start_write_block
 1538              	.LVL102:
 1539 0052 E4E7     		b	.L127
 1540              	.L135:
 544:../libraries/Storage/sd_mmc_spi.c **** 			sd_mmc_spi_err = SD_MMC_SPI_ERR_WRITE_TIMEOUT;
 1541              		.loc 1 544 0
 1542 0054 FFF7FEFF 		bl	sd_mmc_spi_wait_busy
 1543              	.LVL103:
 1544 0058 0028     		cmp	r0, #0
 1545 005a F4D1     		bne	.L128
 545:../libraries/Storage/sd_mmc_spi.c **** 			sd_mmc_spi_debug("%s: Write blocks timeout\n\r", __func__);
 1546              		.loc 1 545 0
 1547 005c 0523     		movs	r3, #5
 1548 005e 2B70     		strb	r3, [r5]
 547:../libraries/Storage/sd_mmc_spi.c **** 		}
 1549              		.loc 1 547 0
 1550 0060 EFE7     		b	.L129
 1551              	.L137:
 1552 0062 00BF     		.align	2
 1553              	.L136:
 1554 0064 00000000 		.word	.LANCHOR2
 1555 0068 00000000 		.word	.LANCHOR3
 1556 006c 00000000 		.word	.LANCHOR1
 1557              		.cfi_endproc
 1558              	.LFE251:
 1559              		.size	sd_mmc_spi_write_word, .-sd_mmc_spi_write_word
 1560              		.section	.text.sd_mmc_spi_start_read_blocks,"ax",%progbits
 1561              		.align	1
 1562              		.p2align 2,,3
 1563              		.global	sd_mmc_spi_start_read_blocks
 1564              		.syntax unified
 1565              		.thumb
 1566              		.thumb_func
 1567              		.fpu fpv5-d16
 1568              		.type	sd_mmc_spi_start_read_blocks, %function
 1569              	sd_mmc_spi_start_read_blocks:
 1570              	.LFB252:
 552:../libraries/Storage/sd_mmc_spi.c **** 
 553:../libraries/Storage/sd_mmc_spi.c **** bool sd_mmc_spi_start_read_blocks(void *dest, uint16_t nb_block)
 554:../libraries/Storage/sd_mmc_spi.c **** {
 1571              		.loc 1 554 0
 1572              		.cfi_startproc
 1573              		@ args = 0, pretend = 0, frame = 8
 1574              		@ frame_needed = 0, uses_anonymous_args = 0
 1575              	.LVL104:
 1576 0000 2DE9F043 		push	{r4, r5, r6, r7, r8, r9, lr}
 1577              		.cfi_def_cfa_offset 28
 1578              		.cfi_offset 4, -28
 1579              		.cfi_offset 5, -24
 1580              		.cfi_offset 6, -20
 1581              		.cfi_offset 7, -16
 1582              		.cfi_offset 8, -12
ARM GAS  /tmp/ccbxFcRO.s 			page 45


 1583              		.cfi_offset 9, -8
 1584              		.cfi_offset 14, -4
 555:../libraries/Storage/sd_mmc_spi.c **** 	uint32_t pos;
 556:../libraries/Storage/sd_mmc_spi.c **** 
 557:../libraries/Storage/sd_mmc_spi.c **** 	sd_mmc_spi_err = SD_MMC_SPI_NO_ERR;
 1585              		.loc 1 557 0
 1586 0004 174B     		ldr	r3, .L149
 1587 0006 0025     		movs	r5, #0
 554:../libraries/Storage/sd_mmc_spi.c **** 	uint32_t pos;
 1588              		.loc 1 554 0
 1589 0008 83B0     		sub	sp, sp, #12
 1590              		.cfi_def_cfa_offset 40
 1591              		.loc 1 557 0
 1592 000a 1D70     		strb	r5, [r3]
 1593              	.LVL105:
 558:../libraries/Storage/sd_mmc_spi.c **** 	pos = 0;
 559:../libraries/Storage/sd_mmc_spi.c **** 	while (nb_block--) {
 1594              		.loc 1 559 0
 1595 000c 29B3     		cbz	r1, .L142
 1596 000e 4C1E     		subs	r4, r1, #1
 1597 0010 8146     		mov	r9, r0
 560:../libraries/Storage/sd_mmc_spi.c **** 		Assert(sd_mmc_spi_nb_block >
 561:../libraries/Storage/sd_mmc_spi.c **** 				(sd_mmc_spi_transfert_pos / sd_mmc_spi_block_size));
 562:../libraries/Storage/sd_mmc_spi.c **** 		if (!sd_mmc_spi_start_read_block()) {
 563:../libraries/Storage/sd_mmc_spi.c **** 			return false;
 564:../libraries/Storage/sd_mmc_spi.c **** 		}
 565:../libraries/Storage/sd_mmc_spi.c **** 
 566:../libraries/Storage/sd_mmc_spi.c **** 		// Read block
 567:../libraries/Storage/sd_mmc_spi.c **** 		sspi_read_packet(&((uint8_t*)dest)[pos], sd_mmc_spi_block_size);
 1598              		.loc 1 567 0
 1599 0012 DFF85880 		ldr	r8, .L149+8
 1600 0016 A4B2     		uxth	r4, r4
 568:../libraries/Storage/sd_mmc_spi.c **** 		pos += sd_mmc_spi_block_size;
 569:../libraries/Storage/sd_mmc_spi.c **** 		sd_mmc_spi_transfert_pos += sd_mmc_spi_block_size;
 1601              		.loc 1 569 0
 1602 0018 134F     		ldr	r7, .L149+4
 1603 001a 15E0     		b	.L141
 1604              	.LVL106:
 1605              	.L148:
 1606              	.LBB159:
 1607              	.LBB160:
 120:../libraries/Storage/../SharedSpi/SharedSpi.h **** }
 1608              		.loc 2 120 0
 1609 001c B8F80020 		ldrh	r2, [r8]
 1610 0020 0020     		movs	r0, #0
 1611 0022 FFF7FEFF 		bl	sspi_transceive_packet
 1612              	.LVL107:
 1613              	.LBE160:
 1614              	.LBE159:
 568:../libraries/Storage/sd_mmc_spi.c **** 		pos += sd_mmc_spi_block_size;
 1615              		.loc 1 568 0
 1616 0026 B8F80060 		ldrh	r6, [r8]
 1617              		.loc 1 569 0
 1618 002a 3B68     		ldr	r3, [r7]
 559:../libraries/Storage/sd_mmc_spi.c **** 		Assert(sd_mmc_spi_nb_block >
 1619              		.loc 1 559 0
 1620 002c 013C     		subs	r4, r4, #1
ARM GAS  /tmp/ccbxFcRO.s 			page 46


 1621              	.LVL108:
 1622              	.LBB162:
 1623              	.LBB163:
 1624              	.LBB164:
 1625              	.LBB165:
 120:../libraries/Storage/../SharedSpi/SharedSpi.h **** }
 1626              		.loc 2 120 0
 1627 002e 0222     		movs	r2, #2
 1628 0030 01A9     		add	r1, sp, #4
 1629              	.LBE165:
 1630              	.LBE164:
 1631              	.LBE163:
 1632              	.LBE162:
 1633              		.loc 1 569 0
 1634 0032 3344     		add	r3, r3, r6
 1635              	.LBB172:
 1636              	.LBB170:
 1637              	.LBB168:
 1638              	.LBB166:
 120:../libraries/Storage/../SharedSpi/SharedSpi.h **** }
 1639              		.loc 2 120 0
 1640 0034 0020     		movs	r0, #0
 1641              	.LBE166:
 1642              	.LBE168:
 1643              	.LBE170:
 1644              	.LBE172:
 559:../libraries/Storage/sd_mmc_spi.c **** 		Assert(sd_mmc_spi_nb_block >
 1645              		.loc 1 559 0
 1646 0036 A4B2     		uxth	r4, r4
 568:../libraries/Storage/sd_mmc_spi.c **** 		pos += sd_mmc_spi_block_size;
 1647              		.loc 1 568 0
 1648 0038 3544     		add	r5, r5, r6
 1649              	.LVL109:
 1650              		.loc 1 569 0
 1651 003a 3B60     		str	r3, [r7]
 1652              	.LVL110:
 1653              	.LBB173:
 1654              	.LBB171:
 1655              	.LBB169:
 1656              	.LBB167:
 120:../libraries/Storage/../SharedSpi/SharedSpi.h **** }
 1657              		.loc 2 120 0
 1658 003c FFF7FEFF 		bl	sspi_transceive_packet
 1659              	.LVL111:
 1660              	.LBE167:
 1661              	.LBE169:
 1662              	.LBE171:
 1663              	.LBE173:
 559:../libraries/Storage/sd_mmc_spi.c **** 		Assert(sd_mmc_spi_nb_block >
 1664              		.loc 1 559 0
 1665 0040 4FF6FF73 		movw	r3, #65535
 1666 0044 9C42     		cmp	r4, r3
 1667 0046 08D0     		beq	.L142
 1668              	.LVL112:
 1669              	.L141:
 562:../libraries/Storage/sd_mmc_spi.c **** 			return false;
 1670              		.loc 1 562 0
ARM GAS  /tmp/ccbxFcRO.s 			page 47


 1671 0048 FFF7FEFF 		bl	sd_mmc_spi_start_read_block
 1672              	.LVL113:
 1673              	.LBB174:
 1674              	.LBB161:
 120:../libraries/Storage/../SharedSpi/SharedSpi.h **** }
 1675              		.loc 2 120 0
 1676 004c 09EB0501 		add	r1, r9, r5
 1677              	.LVL114:
 1678              	.LBE161:
 1679              	.LBE174:
 562:../libraries/Storage/sd_mmc_spi.c **** 			return false;
 1680              		.loc 1 562 0
 1681 0050 0028     		cmp	r0, #0
 1682 0052 E3D1     		bne	.L148
 570:../libraries/Storage/sd_mmc_spi.c **** 
 571:../libraries/Storage/sd_mmc_spi.c **** 		sd_mmc_spi_stop_read_block();
 572:../libraries/Storage/sd_mmc_spi.c **** 	}
 573:../libraries/Storage/sd_mmc_spi.c **** 	return true;
 574:../libraries/Storage/sd_mmc_spi.c **** }
 1683              		.loc 1 574 0
 1684 0054 03B0     		add	sp, sp, #12
 1685              		.cfi_remember_state
 1686              		.cfi_def_cfa_offset 28
 1687              		@ sp needed
 1688 0056 BDE8F083 		pop	{r4, r5, r6, r7, r8, r9, pc}
 1689              	.LVL115:
 1690              	.L142:
 1691              		.cfi_restore_state
 573:../libraries/Storage/sd_mmc_spi.c **** }
 1692              		.loc 1 573 0
 1693 005a 0120     		movs	r0, #1
 1694              		.loc 1 574 0
 1695 005c 03B0     		add	sp, sp, #12
 1696              		.cfi_def_cfa_offset 28
 1697              		@ sp needed
 1698 005e BDE8F083 		pop	{r4, r5, r6, r7, r8, r9, pc}
 1699              	.L150:
 1700 0062 00BF     		.align	2
 1701              	.L149:
 1702 0064 00000000 		.word	.LANCHOR1
 1703 0068 00000000 		.word	.LANCHOR2
 1704 006c 00000000 		.word	.LANCHOR3
 1705              		.cfi_endproc
 1706              	.LFE252:
 1707              		.size	sd_mmc_spi_start_read_blocks, .-sd_mmc_spi_start_read_blocks
 1708              		.section	.text.sd_mmc_spi_wait_end_of_read_blocks,"ax",%progbits
 1709              		.align	1
 1710              		.p2align 2,,3
 1711              		.global	sd_mmc_spi_wait_end_of_read_blocks
 1712              		.syntax unified
 1713              		.thumb
 1714              		.thumb_func
 1715              		.fpu fpv5-d16
 1716              		.type	sd_mmc_spi_wait_end_of_read_blocks, %function
 1717              	sd_mmc_spi_wait_end_of_read_blocks:
 1718              	.LFB253:
 575:../libraries/Storage/sd_mmc_spi.c **** 
ARM GAS  /tmp/ccbxFcRO.s 			page 48


 576:../libraries/Storage/sd_mmc_spi.c **** bool sd_mmc_spi_wait_end_of_read_blocks(void)
 577:../libraries/Storage/sd_mmc_spi.c **** {
 1719              		.loc 1 577 0
 1720              		.cfi_startproc
 1721              		@ args = 0, pretend = 0, frame = 0
 1722              		@ frame_needed = 0, uses_anonymous_args = 0
 1723              		@ link register save eliminated.
 578:../libraries/Storage/sd_mmc_spi.c **** 	return true;
 579:../libraries/Storage/sd_mmc_spi.c **** }
 1724              		.loc 1 579 0
 1725 0000 0120     		movs	r0, #1
 1726 0002 7047     		bx	lr
 1727              		.cfi_endproc
 1728              	.LFE253:
 1729              		.size	sd_mmc_spi_wait_end_of_read_blocks, .-sd_mmc_spi_wait_end_of_read_blocks
 1730              		.section	.text.sd_mmc_spi_start_write_blocks,"ax",%progbits
 1731              		.align	1
 1732              		.p2align 2,,3
 1733              		.global	sd_mmc_spi_start_write_blocks
 1734              		.syntax unified
 1735              		.thumb
 1736              		.thumb_func
 1737              		.fpu fpv5-d16
 1738              		.type	sd_mmc_spi_start_write_blocks, %function
 1739              	sd_mmc_spi_start_write_blocks:
 1740              	.LFB254:
 580:../libraries/Storage/sd_mmc_spi.c **** 
 581:../libraries/Storage/sd_mmc_spi.c **** bool sd_mmc_spi_start_write_blocks(const void *src, uint16_t nb_block)
 582:../libraries/Storage/sd_mmc_spi.c **** {
 1741              		.loc 1 582 0
 1742              		.cfi_startproc
 1743              		@ args = 0, pretend = 0, frame = 0
 1744              		@ frame_needed = 0, uses_anonymous_args = 0
 1745              	.LVL116:
 1746 0000 2DE9F843 		push	{r3, r4, r5, r6, r7, r8, r9, lr}
 1747              		.cfi_def_cfa_offset 32
 1748              		.cfi_offset 3, -32
 1749              		.cfi_offset 4, -28
 1750              		.cfi_offset 5, -24
 1751              		.cfi_offset 6, -20
 1752              		.cfi_offset 7, -16
 1753              		.cfi_offset 8, -12
 1754              		.cfi_offset 9, -8
 1755              		.cfi_offset 14, -4
 583:../libraries/Storage/sd_mmc_spi.c **** 	uint32_t pos;
 584:../libraries/Storage/sd_mmc_spi.c **** 
 585:../libraries/Storage/sd_mmc_spi.c **** 	sd_mmc_spi_err = SD_MMC_SPI_NO_ERR;
 1756              		.loc 1 585 0
 1757 0004 DFF85C90 		ldr	r9, .L163+8
 1758 0008 0024     		movs	r4, #0
 582:../libraries/Storage/sd_mmc_spi.c **** 	uint32_t pos;
 1759              		.loc 1 582 0
 1760 000a 8046     		mov	r8, r0
 1761 000c 0D46     		mov	r5, r1
 586:../libraries/Storage/sd_mmc_spi.c **** 	pos = 0;
 587:../libraries/Storage/sd_mmc_spi.c **** 	while (nb_block--) {
 588:../libraries/Storage/sd_mmc_spi.c **** 		Assert(sd_mmc_spi_nb_block >
ARM GAS  /tmp/ccbxFcRO.s 			page 49


 589:../libraries/Storage/sd_mmc_spi.c **** 				(sd_mmc_spi_transfert_pos / sd_mmc_spi_block_size));
 590:../libraries/Storage/sd_mmc_spi.c **** 		sd_mmc_spi_start_write_block();
 591:../libraries/Storage/sd_mmc_spi.c **** 
 592:../libraries/Storage/sd_mmc_spi.c **** 		// Write block
 593:../libraries/Storage/sd_mmc_spi.c **** 		sspi_write_packet(&((uint8_t*)src)[pos], sd_mmc_spi_block_size);
 1762              		.loc 1 593 0
 1763 000e 134F     		ldr	r7, .L163
 594:../libraries/Storage/sd_mmc_spi.c **** 		pos += sd_mmc_spi_block_size;
 595:../libraries/Storage/sd_mmc_spi.c **** 		sd_mmc_spi_transfert_pos += sd_mmc_spi_block_size;
 1764              		.loc 1 595 0
 1765 0010 134E     		ldr	r6, .L163+4
 585:../libraries/Storage/sd_mmc_spi.c **** 	pos = 0;
 1766              		.loc 1 585 0
 1767 0012 89F80040 		strb	r4, [r9]
 1768              	.LVL117:
 1769              	.L153:
 587:../libraries/Storage/sd_mmc_spi.c **** 		Assert(sd_mmc_spi_nb_block >
 1770              		.loc 1 587 0
 1771 0016 8DB1     		cbz	r5, .L157
 590:../libraries/Storage/sd_mmc_spi.c **** 
 1772              		.loc 1 590 0
 1773 0018 FFF7FEFF 		bl	sd_mmc_spi_start_write_block
 1774              	.LVL118:
 1775              	.LBB175:
 1776              	.LBB176:
 1777              		.loc 2 126 0
 1778 001c 3A88     		ldrh	r2, [r7]
 1779              	.LVL119:
 1780 001e 08EB0400 		add	r0, r8, r4
 1781              	.LVL120:
 1782 0022 0021     		movs	r1, #0
 1783 0024 FFF7FEFF 		bl	sspi_transceive_packet
 1784              	.LVL121:
 1785              	.LBE176:
 1786              	.LBE175:
 594:../libraries/Storage/sd_mmc_spi.c **** 		sd_mmc_spi_transfert_pos += sd_mmc_spi_block_size;
 1787              		.loc 1 594 0
 1788 0028 3A88     		ldrh	r2, [r7]
 1789              		.loc 1 595 0
 1790 002a 3368     		ldr	r3, [r6]
 594:../libraries/Storage/sd_mmc_spi.c **** 		sd_mmc_spi_transfert_pos += sd_mmc_spi_block_size;
 1791              		.loc 1 594 0
 1792 002c 1444     		add	r4, r4, r2
 1793              	.LVL122:
 1794              		.loc 1 595 0
 1795 002e 1344     		add	r3, r3, r2
 1796 0030 3360     		str	r3, [r6]
 596:../libraries/Storage/sd_mmc_spi.c **** 
 597:../libraries/Storage/sd_mmc_spi.c **** 		if (!sd_mmc_spi_stop_write_block()) {
 1797              		.loc 1 597 0
 1798 0032 FFF7FEFF 		bl	sd_mmc_spi_stop_write_block
 1799              	.LVL123:
 1800 0036 78B1     		cbz	r0, .L154
 598:../libraries/Storage/sd_mmc_spi.c **** 			return false;
 599:../libraries/Storage/sd_mmc_spi.c **** 		}
 600:../libraries/Storage/sd_mmc_spi.c **** 		// Do not check busy of last block
 601:../libraries/Storage/sd_mmc_spi.c **** 		// but delay it to mci_wait_end_of_write_blocks()
ARM GAS  /tmp/ccbxFcRO.s 			page 50


 602:../libraries/Storage/sd_mmc_spi.c **** 		if (nb_block) {
 1801              		.loc 1 602 0
 1802 0038 012D     		cmp	r5, #1
 1803 003a 02D1     		bne	.L155
 1804              	.L157:
 603:../libraries/Storage/sd_mmc_spi.c **** 			// Wait busy due to data programmation
 604:../libraries/Storage/sd_mmc_spi.c **** 			if (!sd_mmc_spi_wait_busy()) {
 605:../libraries/Storage/sd_mmc_spi.c **** 				sd_mmc_spi_err = SD_MMC_SPI_ERR_WRITE_TIMEOUT;
 606:../libraries/Storage/sd_mmc_spi.c **** 				sd_mmc_spi_debug("%s: Write blocks timeout\n\r", __func__);
 607:../libraries/Storage/sd_mmc_spi.c **** 				return false;
 608:../libraries/Storage/sd_mmc_spi.c **** 			}
 609:../libraries/Storage/sd_mmc_spi.c **** 		}
 610:../libraries/Storage/sd_mmc_spi.c **** 	}
 611:../libraries/Storage/sd_mmc_spi.c **** 	return true;
 1805              		.loc 1 611 0
 1806 003c 0120     		movs	r0, #1
 1807 003e BDE8F883 		pop	{r3, r4, r5, r6, r7, r8, r9, pc}
 1808              	.LVL124:
 1809              	.L155:
 1810 0042 013D     		subs	r5, r5, #1
 1811              	.LVL125:
 604:../libraries/Storage/sd_mmc_spi.c **** 				sd_mmc_spi_err = SD_MMC_SPI_ERR_WRITE_TIMEOUT;
 1812              		.loc 1 604 0
 1813 0044 FFF7FEFF 		bl	sd_mmc_spi_wait_busy
 1814              	.LVL126:
 1815 0048 ADB2     		uxth	r5, r5
 1816 004a 0028     		cmp	r0, #0
 1817 004c E3D1     		bne	.L153
 605:../libraries/Storage/sd_mmc_spi.c **** 				sd_mmc_spi_debug("%s: Write blocks timeout\n\r", __func__);
 1818              		.loc 1 605 0
 1819 004e 0523     		movs	r3, #5
 1820 0050 89F80030 		strb	r3, [r9]
 607:../libraries/Storage/sd_mmc_spi.c **** 			}
 1821              		.loc 1 607 0
 1822 0054 BDE8F883 		pop	{r3, r4, r5, r6, r7, r8, r9, pc}
 1823              	.LVL127:
 1824              	.L154:
 612:../libraries/Storage/sd_mmc_spi.c **** }
 1825              		.loc 1 612 0
 1826 0058 BDE8F883 		pop	{r3, r4, r5, r6, r7, r8, r9, pc}
 1827              	.LVL128:
 1828              	.L164:
 1829              		.align	2
 1830              	.L163:
 1831 005c 00000000 		.word	.LANCHOR3
 1832 0060 00000000 		.word	.LANCHOR2
 1833 0064 00000000 		.word	.LANCHOR1
 1834              		.cfi_endproc
 1835              	.LFE254:
 1836              		.size	sd_mmc_spi_start_write_blocks, .-sd_mmc_spi_start_write_blocks
 1837              		.section	.text.sd_mmc_spi_wait_end_of_write_blocks,"ax",%progbits
 1838              		.align	1
 1839              		.p2align 2,,3
 1840              		.global	sd_mmc_spi_wait_end_of_write_blocks
 1841              		.syntax unified
 1842              		.thumb
 1843              		.thumb_func
ARM GAS  /tmp/ccbxFcRO.s 			page 51


 1844              		.fpu fpv5-d16
 1845              		.type	sd_mmc_spi_wait_end_of_write_blocks, %function
 1846              	sd_mmc_spi_wait_end_of_write_blocks:
 1847              	.LFB255:
 613:../libraries/Storage/sd_mmc_spi.c **** 
 614:../libraries/Storage/sd_mmc_spi.c **** bool sd_mmc_spi_wait_end_of_write_blocks(void)
 615:../libraries/Storage/sd_mmc_spi.c **** {
 1848              		.loc 1 615 0
 1849              		.cfi_startproc
 1850              		@ args = 0, pretend = 0, frame = 0
 1851              		@ frame_needed = 0, uses_anonymous_args = 0
 1852 0000 08B5     		push	{r3, lr}
 1853              		.cfi_def_cfa_offset 8
 1854              		.cfi_offset 3, -8
 1855              		.cfi_offset 14, -4
 616:../libraries/Storage/sd_mmc_spi.c **** 	// Wait busy due to data programmation of last block writed
 617:../libraries/Storage/sd_mmc_spi.c **** 	if (!sd_mmc_spi_wait_busy()) {
 1856              		.loc 1 617 0
 1857 0002 FFF7FEFF 		bl	sd_mmc_spi_wait_busy
 1858              	.LVL129:
 1859 0006 18B9     		cbnz	r0, .L166
 618:../libraries/Storage/sd_mmc_spi.c **** 		sd_mmc_spi_err = SD_MMC_SPI_ERR_WRITE_TIMEOUT;
 1860              		.loc 1 618 0
 1861 0008 034B     		ldr	r3, .L170
 1862 000a 0522     		movs	r2, #5
 1863 000c 1A70     		strb	r2, [r3]
 619:../libraries/Storage/sd_mmc_spi.c **** 		sd_mmc_spi_debug("%s: Write blocks timeout\n\r", __func__);
 620:../libraries/Storage/sd_mmc_spi.c **** 		return false;
 1864              		.loc 1 620 0
 1865 000e 08BD     		pop	{r3, pc}
 1866              	.L166:
 621:../libraries/Storage/sd_mmc_spi.c **** 	}
 622:../libraries/Storage/sd_mmc_spi.c **** 	return sd_mmc_spi_stop_multiwrite_block();
 623:../libraries/Storage/sd_mmc_spi.c **** }
 1867              		.loc 1 623 0
 1868 0010 BDE80840 		pop	{r3, lr}
 1869              		.cfi_restore 14
 1870              		.cfi_restore 3
 1871              		.cfi_def_cfa_offset 0
 622:../libraries/Storage/sd_mmc_spi.c **** }
 1872              		.loc 1 622 0
 1873 0014 FFF7FEBF 		b	sd_mmc_spi_stop_multiwrite_block
 1874              	.LVL130:
 1875              	.L171:
 1876              		.align	2
 1877              	.L170:
 1878 0018 00000000 		.word	.LANCHOR1
 1879              		.cfi_endproc
 1880              	.LFE255:
 1881              		.size	sd_mmc_spi_wait_end_of_write_blocks, .-sd_mmc_spi_wait_end_of_write_blocks
 1882              		.section	.bss.cpu_irq_critical_section_counter,"aw",%nobits
 1883              		.align	2
 1884              		.type	cpu_irq_critical_section_counter, %object
 1885              		.size	cpu_irq_critical_section_counter, 4
 1886              	cpu_irq_critical_section_counter:
 1887 0000 00000000 		.space	4
 1888              		.section	.bss.cpu_irq_prev_interrupt_state,"aw",%nobits
ARM GAS  /tmp/ccbxFcRO.s 			page 52


 1889              		.type	cpu_irq_prev_interrupt_state, %object
 1890              		.size	cpu_irq_prev_interrupt_state, 1
 1891              	cpu_irq_prev_interrupt_state:
 1892 0000 00       		.space	1
 1893              		.section	.bss.sd_mmc_spi_block_size,"aw",%nobits
 1894              		.align	1
 1895              		.set	.LANCHOR3,. + 0
 1896              		.type	sd_mmc_spi_block_size, %object
 1897              		.size	sd_mmc_spi_block_size, 2
 1898              	sd_mmc_spi_block_size:
 1899 0000 0000     		.space	2
 1900              		.section	.bss.sd_mmc_spi_devices,"aw",%nobits
 1901              		.align	2
 1902              		.set	.LANCHOR5,. + 0
 1903              		.type	sd_mmc_spi_devices, %object
 1904              		.size	sd_mmc_spi_devices, 8
 1905              	sd_mmc_spi_devices:
 1906 0000 00000000 		.space	8
 1906      00000000 
 1907              		.section	.bss.sd_mmc_spi_err,"aw",%nobits
 1908              		.set	.LANCHOR1,. + 0
 1909              		.type	sd_mmc_spi_err, %object
 1910              		.size	sd_mmc_spi_err, 1
 1911              	sd_mmc_spi_err:
 1912 0000 00       		.space	1
 1913              		.section	.bss.sd_mmc_spi_nb_block,"aw",%nobits
 1914              		.align	1
 1915              		.set	.LANCHOR0,. + 0
 1916              		.type	sd_mmc_spi_nb_block, %object
 1917              		.size	sd_mmc_spi_nb_block, 2
 1918              	sd_mmc_spi_nb_block:
 1919 0000 0000     		.space	2
 1920              		.section	.bss.sd_mmc_spi_response_32,"aw",%nobits
 1921              		.align	2
 1922              		.set	.LANCHOR6,. + 0
 1923              		.type	sd_mmc_spi_response_32, %object
 1924              		.size	sd_mmc_spi_response_32, 4
 1925              	sd_mmc_spi_response_32:
 1926 0000 00000000 		.space	4
 1927              		.section	.bss.sd_mmc_spi_transfert_pos,"aw",%nobits
 1928              		.align	2
 1929              		.set	.LANCHOR2,. + 0
 1930              		.type	sd_mmc_spi_transfert_pos, %object
 1931              		.size	sd_mmc_spi_transfert_pos, 4
 1932              	sd_mmc_spi_transfert_pos:
 1933 0000 00000000 		.space	4
 1934              		.section	.bss.spiIdleFunc,"aw",%nobits
 1935              		.align	2
 1936              		.set	.LANCHOR4,. + 0
 1937              		.type	spiIdleFunc, %object
 1938              		.size	spiIdleFunc, 4
 1939              	spiIdleFunc:
 1940 0000 00000000 		.space	4
 1941              		.text
 1942              	.Letext0:
 1943              		.file 4 "/usr/lib/gcc/arm-none-eabi/6.3.1/include/stddef.h"
 1944              		.file 5 "/usr/include/newlib/machine/_default_types.h"
ARM GAS  /tmp/ccbxFcRO.s 			page 53


 1945              		.file 6 "/usr/include/newlib/sys/_stdint.h"
 1946              		.file 7 "/home/torbjorn/eclipse-workspace/CoreNG/asf/thirdparty/CMSIS/Include/core_cm7.h"
 1947              		.file 8 "/home/torbjorn/eclipse-workspace/CoreNG/variants/same70/system_same70.h"
 1948              		.file 9 "/usr/include/newlib/sys/lock.h"
 1949              		.file 10 "/usr/include/newlib/sys/_types.h"
 1950              		.file 11 "/usr/include/newlib/sys/reent.h"
 1951              		.file 12 "/usr/include/newlib/stdlib.h"
 1952              		.file 13 "/home/torbjorn/eclipse-workspace/CoreNG/asf/common/utils/interrupt/interrupt_sam_nvic.h"
 1953              		.file 14 "/usr/include/newlib/math.h"
 1954              		.file 15 "/home/torbjorn/eclipse-workspace/CoreNG/asf/sam/drivers/spi/spi.h"
 1955              		.file 16 "/home/torbjorn/eclipse-workspace/CoreNG/asf/sam/utils/compiler.h"
 1956              		.file 17 "/home/torbjorn/eclipse-workspace/CoreNG/cores/arduino/Core.h"
 1957              		.file 18 "/usr/include/newlib/time.h"
 1958              		.file 19 "/home/torbjorn/eclipse-workspace/CoreNG/variants/same70/variant.h"
 1959              		.file 20 "../libraries/Storage/sd_mmc_protocol.h"
 1960              		.file 21 "../libraries/Storage/sd_mmc_spi.h"