ARM GAS  /tmp/ccomqgAQ.s 			page 1


   1              		.cpu cortex-m7
   2              		.eabi_attribute 28, 1
   3              		.eabi_attribute 20, 1
   4              		.eabi_attribute 21, 1
   5              		.eabi_attribute 23, 3
   6              		.eabi_attribute 24, 1
   7              		.eabi_attribute 25, 1
   8              		.eabi_attribute 26, 1
   9              		.eabi_attribute 30, 2
  10              		.eabi_attribute 34, 1
  11              		.eabi_attribute 18, 4
  12              		.file	"sd_mmc_mem.c"
  13              		.text
  14              	.Ltext0:
  15              		.cfi_sections	.debug_frame
  16              		.section	.text.sd_mmc_test_unit_ready,"ax",%progbits
  17              		.align	1
  18              		.p2align 2,,3
  19              		.global	sd_mmc_test_unit_ready
  20              		.syntax unified
  21              		.thumb
  22              		.thumb_func
  23              		.fpu fpv5-d16
  24              		.type	sd_mmc_test_unit_ready, %function
  25              	sd_mmc_test_unit_ready:
  26              	.LFB227:
  27              		.file 1 "../libraries/Storage/sd_mmc_mem.c"
   1:../libraries/Storage/sd_mmc_mem.c **** /**
   2:../libraries/Storage/sd_mmc_mem.c ****  * \file
   3:../libraries/Storage/sd_mmc_mem.c ****  *
   4:../libraries/Storage/sd_mmc_mem.c ****  * \brief CTRL_ACCESS interface for common SD/MMC stack
   5:../libraries/Storage/sd_mmc_mem.c ****  *
   6:../libraries/Storage/sd_mmc_mem.c ****  * Copyright (c) 2012-2015 Atmel Corporation. All rights reserved.
   7:../libraries/Storage/sd_mmc_mem.c ****  *
   8:../libraries/Storage/sd_mmc_mem.c ****  * \asf_license_start
   9:../libraries/Storage/sd_mmc_mem.c ****  *
  10:../libraries/Storage/sd_mmc_mem.c ****  * \page License
  11:../libraries/Storage/sd_mmc_mem.c ****  *
  12:../libraries/Storage/sd_mmc_mem.c ****  * Redistribution and use in source and binary forms, with or without
  13:../libraries/Storage/sd_mmc_mem.c ****  * modification, are permitted provided that the following conditions are met:
  14:../libraries/Storage/sd_mmc_mem.c ****  *
  15:../libraries/Storage/sd_mmc_mem.c ****  * 1. Redistributions of source code must retain the above copyright notice,
  16:../libraries/Storage/sd_mmc_mem.c ****  *    this list of conditions and the following disclaimer.
  17:../libraries/Storage/sd_mmc_mem.c ****  *
  18:../libraries/Storage/sd_mmc_mem.c ****  * 2. Redistributions in binary form must reproduce the above copyright notice,
  19:../libraries/Storage/sd_mmc_mem.c ****  *    this list of conditions and the following disclaimer in the documentation
  20:../libraries/Storage/sd_mmc_mem.c ****  *    and/or other materials provided with the distribution.
  21:../libraries/Storage/sd_mmc_mem.c ****  *
  22:../libraries/Storage/sd_mmc_mem.c ****  * 3. The name of Atmel may not be used to endorse or promote products derived
  23:../libraries/Storage/sd_mmc_mem.c ****  *    from this software without specific prior written permission.
  24:../libraries/Storage/sd_mmc_mem.c ****  *
  25:../libraries/Storage/sd_mmc_mem.c ****  * 4. This software may only be redistributed and used in connection with an
  26:../libraries/Storage/sd_mmc_mem.c ****  *    Atmel microcontroller product.
  27:../libraries/Storage/sd_mmc_mem.c ****  *
  28:../libraries/Storage/sd_mmc_mem.c ****  * THIS SOFTWARE IS PROVIDED BY ATMEL "AS IS" AND ANY EXPRESS OR IMPLIED
  29:../libraries/Storage/sd_mmc_mem.c ****  * WARRANTIES, INCLUDING, BUT NOT LIMITED TO, THE IMPLIED WARRANTIES OF
  30:../libraries/Storage/sd_mmc_mem.c ****  * MERCHANTABILITY, FITNESS FOR A PARTICULAR PURPOSE AND NON-INFRINGEMENT ARE
ARM GAS  /tmp/ccomqgAQ.s 			page 2


  31:../libraries/Storage/sd_mmc_mem.c ****  * EXPRESSLY AND SPECIFICALLY DISCLAIMED. IN NO EVENT SHALL ATMEL BE LIABLE FOR
  32:../libraries/Storage/sd_mmc_mem.c ****  * ANY DIRECT, INDIRECT, INCIDENTAL, SPECIAL, EXEMPLARY, OR CONSEQUENTIAL
  33:../libraries/Storage/sd_mmc_mem.c ****  * DAMAGES (INCLUDING, BUT NOT LIMITED TO, PROCUREMENT OF SUBSTITUTE GOODS
  34:../libraries/Storage/sd_mmc_mem.c ****  * OR SERVICES; LOSS OF USE, DATA, OR PROFITS; OR BUSINESS INTERRUPTION)
  35:../libraries/Storage/sd_mmc_mem.c ****  * HOWEVER CAUSED AND ON ANY THEORY OF LIABILITY, WHETHER IN CONTRACT,
  36:../libraries/Storage/sd_mmc_mem.c ****  * STRICT LIABILITY, OR TORT (INCLUDING NEGLIGENCE OR OTHERWISE) ARISING IN
  37:../libraries/Storage/sd_mmc_mem.c ****  * ANY WAY OUT OF THE USE OF THIS SOFTWARE, EVEN IF ADVISED OF THE
  38:../libraries/Storage/sd_mmc_mem.c ****  * POSSIBILITY OF SUCH DAMAGE.
  39:../libraries/Storage/sd_mmc_mem.c ****  *
  40:../libraries/Storage/sd_mmc_mem.c ****  * \asf_license_stop
  41:../libraries/Storage/sd_mmc_mem.c ****  *
  42:../libraries/Storage/sd_mmc_mem.c ****  */
  43:../libraries/Storage/sd_mmc_mem.c **** /*
  44:../libraries/Storage/sd_mmc_mem.c ****  * Support and FAQ: visit <a href="http://www.atmel.com/design-support/">Atmel Support</a>
  45:../libraries/Storage/sd_mmc_mem.c ****  */
  46:../libraries/Storage/sd_mmc_mem.c **** 
  47:../libraries/Storage/sd_mmc_mem.c **** #include "conf_access.h"
  48:../libraries/Storage/sd_mmc_mem.c **** 
  49:../libraries/Storage/sd_mmc_mem.c **** #if (SD_MMC_0_MEM == ENABLE) || (SD_MMC_1_MEM == ENABLE)
  50:../libraries/Storage/sd_mmc_mem.c **** 
  51:../libraries/Storage/sd_mmc_mem.c **** #include "Core.h"
  52:../libraries/Storage/sd_mmc_mem.c **** #include "sd_mmc.h"
  53:../libraries/Storage/sd_mmc_mem.c **** #include "sd_mmc_mem.h"
  54:../libraries/Storage/sd_mmc_mem.c **** 
  55:../libraries/Storage/sd_mmc_mem.c **** /**
  56:../libraries/Storage/sd_mmc_mem.c ****  * \ingroup sd_mmc_stack_mem
  57:../libraries/Storage/sd_mmc_mem.c ****  * \defgroup sd_mmc_stack_mem_internal Implementation of SD/MMC Memory
  58:../libraries/Storage/sd_mmc_mem.c ****  * @{
  59:../libraries/Storage/sd_mmc_mem.c ****  */
  60:../libraries/Storage/sd_mmc_mem.c **** 
  61:../libraries/Storage/sd_mmc_mem.c **** /**
  62:../libraries/Storage/sd_mmc_mem.c ****  * \name Control Interface
  63:../libraries/Storage/sd_mmc_mem.c ****  * @{
  64:../libraries/Storage/sd_mmc_mem.c ****  */
  65:../libraries/Storage/sd_mmc_mem.c **** 
  66:../libraries/Storage/sd_mmc_mem.c **** static bool sd_mmc_ejected[2] = {false, false};
  67:../libraries/Storage/sd_mmc_mem.c **** 
  68:../libraries/Storage/sd_mmc_mem.c **** Ctrl_status sd_mmc_test_unit_ready(uint8_t slot)
  69:../libraries/Storage/sd_mmc_mem.c **** {
  28              		.loc 1 69 0
  29              		.cfi_startproc
  30              		@ args = 0, pretend = 0, frame = 0
  31              		@ frame_needed = 0, uses_anonymous_args = 0
  32              	.LVL0:
  33 0000 38B5     		push	{r3, r4, r5, lr}
  34              		.cfi_def_cfa_offset 16
  35              		.cfi_offset 3, -16
  36              		.cfi_offset 4, -12
  37              		.cfi_offset 5, -8
  38              		.cfi_offset 14, -4
  39              		.loc 1 69 0
  40 0002 0546     		mov	r5, r0
  70:../libraries/Storage/sd_mmc_mem.c **** 	switch (sd_mmc_check(slot))
  41              		.loc 1 70 0
  42 0004 FFF7FEFF 		bl	sd_mmc_check
  43              	.LVL1:
  44 0008 0128     		cmp	r0, #1
ARM GAS  /tmp/ccomqgAQ.s 			page 3


  45 000a 0DD0     		beq	.L7
  46 000c 07D3     		bcc	.L4
  47 000e 0228     		cmp	r0, #2
  48 0010 03D1     		bne	.L11
  71:../libraries/Storage/sd_mmc_mem.c **** 	{
  72:../libraries/Storage/sd_mmc_mem.c **** 	case SD_MMC_OK:
  73:../libraries/Storage/sd_mmc_mem.c **** 		if (sd_mmc_ejected[slot]) {
  74:../libraries/Storage/sd_mmc_mem.c **** 			return CTRL_NO_PRESENT;
  75:../libraries/Storage/sd_mmc_mem.c **** 		}
  76:../libraries/Storage/sd_mmc_mem.c **** 		if (sd_mmc_get_type(slot) & (CARD_TYPE_SD | CARD_TYPE_MMC)) {
  77:../libraries/Storage/sd_mmc_mem.c **** 			return CTRL_GOOD;
  78:../libraries/Storage/sd_mmc_mem.c **** 		}
  79:../libraries/Storage/sd_mmc_mem.c **** 		// It is not a memory card
  80:../libraries/Storage/sd_mmc_mem.c **** 		return CTRL_NO_PRESENT;
  81:../libraries/Storage/sd_mmc_mem.c **** 
  82:../libraries/Storage/sd_mmc_mem.c **** 	case SD_MMC_INIT_ONGOING:
  83:../libraries/Storage/sd_mmc_mem.c **** 		return CTRL_BUSY;
  84:../libraries/Storage/sd_mmc_mem.c **** 
  85:../libraries/Storage/sd_mmc_mem.c **** 	case SD_MMC_ERR_NO_CARD:
  86:../libraries/Storage/sd_mmc_mem.c **** 		sd_mmc_ejected[slot] = false;
  49              		.loc 1 86 0
  50 0012 0A4B     		ldr	r3, .L13
  51 0014 0022     		movs	r2, #0
  52 0016 5A55     		strb	r2, [r3, r5]
  87:../libraries/Storage/sd_mmc_mem.c **** 		return CTRL_NO_PRESENT;
  53              		.loc 1 87 0
  54 0018 38BD     		pop	{r3, r4, r5, pc}
  55              	.L11:
  88:../libraries/Storage/sd_mmc_mem.c **** 
  89:../libraries/Storage/sd_mmc_mem.c **** 	default:
  90:../libraries/Storage/sd_mmc_mem.c **** 		return CTRL_FAIL;
  56              		.loc 1 90 0
  57 001a 0120     		movs	r0, #1
  58 001c 38BD     		pop	{r3, r4, r5, pc}
  59              	.L4:
  73:../libraries/Storage/sd_mmc_mem.c **** 			return CTRL_NO_PRESENT;
  60              		.loc 1 73 0
  61 001e 074B     		ldr	r3, .L13
  62 0020 5C5D     		ldrb	r4, [r3, r5]	@ zero_extendqisi2
  63 0022 1CB1     		cbz	r4, .L12
  64              	.L6:
  65              	.LBB16:
  66              	.LBB17:
  80:../libraries/Storage/sd_mmc_mem.c **** 
  67              		.loc 1 80 0
  68 0024 0220     		movs	r0, #2
  69 0026 38BD     		pop	{r3, r4, r5, pc}
  70              	.L7:
  71              	.LBE17:
  72              	.LBE16:
  83:../libraries/Storage/sd_mmc_mem.c **** 
  73              		.loc 1 83 0
  74 0028 0320     		movs	r0, #3
  75 002a 38BD     		pop	{r3, r4, r5, pc}
  76              	.L12:
  77              	.LVL2:
  78              	.LBB19:
ARM GAS  /tmp/ccomqgAQ.s 			page 4


  79              	.LBB18:
  76:../libraries/Storage/sd_mmc_mem.c **** 			return CTRL_GOOD;
  80              		.loc 1 76 0
  81 002c 2846     		mov	r0, r5
  82 002e FFF7FEFF 		bl	sd_mmc_get_type
  83              	.LVL3:
  84 0032 8307     		lsls	r3, r0, #30
  85 0034 F6D0     		beq	.L6
  77:../libraries/Storage/sd_mmc_mem.c **** 		}
  86              		.loc 1 77 0
  87 0036 2046     		mov	r0, r4
  88              	.LBE18:
  89              	.LBE19:
  91:../libraries/Storage/sd_mmc_mem.c **** 	}
  92:../libraries/Storage/sd_mmc_mem.c **** }
  90              		.loc 1 92 0
  91 0038 38BD     		pop	{r3, r4, r5, pc}
  92              	.LVL4:
  93              	.L14:
  94 003a 00BF     		.align	2
  95              	.L13:
  96 003c 00000000 		.word	.LANCHOR0
  97              		.cfi_endproc
  98              	.LFE227:
  99              		.size	sd_mmc_test_unit_ready, .-sd_mmc_test_unit_ready
 100              		.section	.text.sd_mmc_test_unit_ready_0,"ax",%progbits
 101              		.align	1
 102              		.p2align 2,,3
 103              		.global	sd_mmc_test_unit_ready_0
 104              		.syntax unified
 105              		.thumb
 106              		.thumb_func
 107              		.fpu fpv5-d16
 108              		.type	sd_mmc_test_unit_ready_0, %function
 109              	sd_mmc_test_unit_ready_0:
 110              	.LFB228:
  93:../libraries/Storage/sd_mmc_mem.c **** 
  94:../libraries/Storage/sd_mmc_mem.c **** Ctrl_status sd_mmc_test_unit_ready_0(void)
  95:../libraries/Storage/sd_mmc_mem.c **** {
 111              		.loc 1 95 0
 112              		.cfi_startproc
 113              		@ args = 0, pretend = 0, frame = 0
 114              		@ frame_needed = 0, uses_anonymous_args = 0
 115              		@ link register save eliminated.
  96:../libraries/Storage/sd_mmc_mem.c **** 	return sd_mmc_test_unit_ready(0);
 116              		.loc 1 96 0
 117 0000 0020     		movs	r0, #0
 118 0002 FFF7FEBF 		b	sd_mmc_test_unit_ready
 119              	.LVL5:
 120              		.cfi_endproc
 121              	.LFE228:
 122              		.size	sd_mmc_test_unit_ready_0, .-sd_mmc_test_unit_ready_0
 123 0006 00BF     		.section	.text.sd_mmc_test_unit_ready_1,"ax",%progbits
 124              		.align	1
 125              		.p2align 2,,3
 126              		.global	sd_mmc_test_unit_ready_1
 127              		.syntax unified
ARM GAS  /tmp/ccomqgAQ.s 			page 5


 128              		.thumb
 129              		.thumb_func
 130              		.fpu fpv5-d16
 131              		.type	sd_mmc_test_unit_ready_1, %function
 132              	sd_mmc_test_unit_ready_1:
 133              	.LFB229:
  97:../libraries/Storage/sd_mmc_mem.c **** }
  98:../libraries/Storage/sd_mmc_mem.c **** 
  99:../libraries/Storage/sd_mmc_mem.c **** 
 100:../libraries/Storage/sd_mmc_mem.c **** Ctrl_status sd_mmc_test_unit_ready_1(void)
 101:../libraries/Storage/sd_mmc_mem.c **** {
 134              		.loc 1 101 0
 135              		.cfi_startproc
 136              		@ args = 0, pretend = 0, frame = 0
 137              		@ frame_needed = 0, uses_anonymous_args = 0
 138              		@ link register save eliminated.
 102:../libraries/Storage/sd_mmc_mem.c **** 	return sd_mmc_test_unit_ready(1);
 139              		.loc 1 102 0
 140 0000 0120     		movs	r0, #1
 141 0002 FFF7FEBF 		b	sd_mmc_test_unit_ready
 142              	.LVL6:
 143              		.cfi_endproc
 144              	.LFE229:
 145              		.size	sd_mmc_test_unit_ready_1, .-sd_mmc_test_unit_ready_1
 146 0006 00BF     		.section	.text.sd_mmc_read_capacity,"ax",%progbits
 147              		.align	1
 148              		.p2align 2,,3
 149              		.global	sd_mmc_read_capacity
 150              		.syntax unified
 151              		.thumb
 152              		.thumb_func
 153              		.fpu fpv5-d16
 154              		.type	sd_mmc_read_capacity, %function
 155              	sd_mmc_read_capacity:
 156              	.LFB230:
 103:../libraries/Storage/sd_mmc_mem.c **** }
 104:../libraries/Storage/sd_mmc_mem.c **** 
 105:../libraries/Storage/sd_mmc_mem.c **** Ctrl_status sd_mmc_read_capacity(uint8_t slot, uint32_t *nb_sector)
 106:../libraries/Storage/sd_mmc_mem.c **** {
 157              		.loc 1 106 0
 158              		.cfi_startproc
 159              		@ args = 0, pretend = 0, frame = 0
 160              		@ frame_needed = 0, uses_anonymous_args = 0
 161              	.LVL7:
 162 0000 38B5     		push	{r3, r4, r5, lr}
 163              		.cfi_def_cfa_offset 16
 164              		.cfi_offset 3, -16
 165              		.cfi_offset 4, -12
 166              		.cfi_offset 5, -8
 167              		.cfi_offset 14, -4
 168              		.loc 1 106 0
 169 0002 0C46     		mov	r4, r1
 170 0004 0546     		mov	r5, r0
 107:../libraries/Storage/sd_mmc_mem.c **** 	// Return last sector address (-1)
 108:../libraries/Storage/sd_mmc_mem.c **** 	*nb_sector = (sd_mmc_get_capacity(slot) * 2) - 1;
 171              		.loc 1 108 0
 172 0006 FFF7FEFF 		bl	sd_mmc_get_capacity
ARM GAS  /tmp/ccomqgAQ.s 			page 6


 173              	.LVL8:
 174 000a 4300     		lsls	r3, r0, #1
 109:../libraries/Storage/sd_mmc_mem.c **** 	return sd_mmc_test_unit_ready(slot);
 175              		.loc 1 109 0
 176 000c 2846     		mov	r0, r5
 108:../libraries/Storage/sd_mmc_mem.c **** 	return sd_mmc_test_unit_ready(slot);
 177              		.loc 1 108 0
 178 000e 013B     		subs	r3, r3, #1
 179 0010 2360     		str	r3, [r4]
 110:../libraries/Storage/sd_mmc_mem.c **** }
 180              		.loc 1 110 0
 181 0012 BDE83840 		pop	{r3, r4, r5, lr}
 182              		.cfi_restore 14
 183              		.cfi_restore 5
 184              		.cfi_restore 4
 185              		.cfi_restore 3
 186              		.cfi_def_cfa_offset 0
 187              	.LVL9:
 109:../libraries/Storage/sd_mmc_mem.c **** 	return sd_mmc_test_unit_ready(slot);
 188              		.loc 1 109 0
 189 0016 FFF7FEBF 		b	sd_mmc_test_unit_ready
 190              	.LVL10:
 191              		.cfi_endproc
 192              	.LFE230:
 193              		.size	sd_mmc_read_capacity, .-sd_mmc_read_capacity
 194 001a 00BF     		.section	.text.sd_mmc_read_capacity_0,"ax",%progbits
 195              		.align	1
 196              		.p2align 2,,3
 197              		.global	sd_mmc_read_capacity_0
 198              		.syntax unified
 199              		.thumb
 200              		.thumb_func
 201              		.fpu fpv5-d16
 202              		.type	sd_mmc_read_capacity_0, %function
 203              	sd_mmc_read_capacity_0:
 204              	.LFB231:
 111:../libraries/Storage/sd_mmc_mem.c **** 
 112:../libraries/Storage/sd_mmc_mem.c **** Ctrl_status sd_mmc_read_capacity_0(uint32_t *nb_sector)
 113:../libraries/Storage/sd_mmc_mem.c **** {
 205              		.loc 1 113 0
 206              		.cfi_startproc
 207              		@ args = 0, pretend = 0, frame = 0
 208              		@ frame_needed = 0, uses_anonymous_args = 0
 209              		@ link register save eliminated.
 210              	.LVL11:
 114:../libraries/Storage/sd_mmc_mem.c **** 	return sd_mmc_read_capacity(0, nb_sector);
 211              		.loc 1 114 0
 212 0000 0146     		mov	r1, r0
 213 0002 0020     		movs	r0, #0
 214              	.LVL12:
 215 0004 FFF7FEBF 		b	sd_mmc_read_capacity
 216              	.LVL13:
 217              		.cfi_endproc
 218              	.LFE231:
 219              		.size	sd_mmc_read_capacity_0, .-sd_mmc_read_capacity_0
 220              		.section	.text.sd_mmc_read_capacity_1,"ax",%progbits
 221              		.align	1
ARM GAS  /tmp/ccomqgAQ.s 			page 7


 222              		.p2align 2,,3
 223              		.global	sd_mmc_read_capacity_1
 224              		.syntax unified
 225              		.thumb
 226              		.thumb_func
 227              		.fpu fpv5-d16
 228              		.type	sd_mmc_read_capacity_1, %function
 229              	sd_mmc_read_capacity_1:
 230              	.LFB232:
 115:../libraries/Storage/sd_mmc_mem.c **** }
 116:../libraries/Storage/sd_mmc_mem.c **** 
 117:../libraries/Storage/sd_mmc_mem.c **** Ctrl_status sd_mmc_read_capacity_1(uint32_t *nb_sector)
 118:../libraries/Storage/sd_mmc_mem.c **** {
 231              		.loc 1 118 0
 232              		.cfi_startproc
 233              		@ args = 0, pretend = 0, frame = 0
 234              		@ frame_needed = 0, uses_anonymous_args = 0
 235              		@ link register save eliminated.
 236              	.LVL14:
 119:../libraries/Storage/sd_mmc_mem.c **** 	return sd_mmc_read_capacity(1, nb_sector);
 237              		.loc 1 119 0
 238 0000 0146     		mov	r1, r0
 239 0002 0120     		movs	r0, #1
 240              	.LVL15:
 241 0004 FFF7FEBF 		b	sd_mmc_read_capacity
 242              	.LVL16:
 243              		.cfi_endproc
 244              	.LFE232:
 245              		.size	sd_mmc_read_capacity_1, .-sd_mmc_read_capacity_1
 246              		.section	.text.sd_mmc_unload,"ax",%progbits
 247              		.align	1
 248              		.p2align 2,,3
 249              		.global	sd_mmc_unload
 250              		.syntax unified
 251              		.thumb
 252              		.thumb_func
 253              		.fpu fpv5-d16
 254              		.type	sd_mmc_unload, %function
 255              	sd_mmc_unload:
 256              	.LFB233:
 120:../libraries/Storage/sd_mmc_mem.c **** }
 121:../libraries/Storage/sd_mmc_mem.c **** 
 122:../libraries/Storage/sd_mmc_mem.c **** bool sd_mmc_unload(uint8_t slot, bool unload)
 123:../libraries/Storage/sd_mmc_mem.c **** {
 257              		.loc 1 123 0
 258              		.cfi_startproc
 259              		@ args = 0, pretend = 0, frame = 0
 260              		@ frame_needed = 0, uses_anonymous_args = 0
 261              		@ link register save eliminated.
 262              	.LVL17:
 124:../libraries/Storage/sd_mmc_mem.c **** 	sd_mmc_ejected[slot] = unload;
 263              		.loc 1 124 0
 264 0000 014B     		ldr	r3, .L22
 265 0002 1954     		strb	r1, [r3, r0]
 125:../libraries/Storage/sd_mmc_mem.c **** 	return true;
 126:../libraries/Storage/sd_mmc_mem.c **** }
 266              		.loc 1 126 0
ARM GAS  /tmp/ccomqgAQ.s 			page 8


 267 0004 0120     		movs	r0, #1
 268              	.LVL18:
 269 0006 7047     		bx	lr
 270              	.L23:
 271              		.align	2
 272              	.L22:
 273 0008 00000000 		.word	.LANCHOR0
 274              		.cfi_endproc
 275              	.LFE233:
 276              		.size	sd_mmc_unload, .-sd_mmc_unload
 277              		.section	.text.sd_mmc_unload_0,"ax",%progbits
 278              		.align	1
 279              		.p2align 2,,3
 280              		.global	sd_mmc_unload_0
 281              		.syntax unified
 282              		.thumb
 283              		.thumb_func
 284              		.fpu fpv5-d16
 285              		.type	sd_mmc_unload_0, %function
 286              	sd_mmc_unload_0:
 287              	.LFB234:
 127:../libraries/Storage/sd_mmc_mem.c **** 
 128:../libraries/Storage/sd_mmc_mem.c **** bool sd_mmc_unload_0(bool unload)
 129:../libraries/Storage/sd_mmc_mem.c **** {
 288              		.loc 1 129 0
 289              		.cfi_startproc
 290              		@ args = 0, pretend = 0, frame = 0
 291              		@ frame_needed = 0, uses_anonymous_args = 0
 292              		@ link register save eliminated.
 293              	.LVL19:
 294              	.LBB20:
 295              	.LBB21:
 124:../libraries/Storage/sd_mmc_mem.c **** 	return true;
 296              		.loc 1 124 0
 297 0000 014B     		ldr	r3, .L25
 298 0002 1870     		strb	r0, [r3]
 299              	.LVL20:
 300              	.LBE21:
 301              	.LBE20:
 130:../libraries/Storage/sd_mmc_mem.c **** 	return sd_mmc_unload(0, unload);
 131:../libraries/Storage/sd_mmc_mem.c **** }
 302              		.loc 1 131 0
 303 0004 0120     		movs	r0, #1
 304              	.LVL21:
 305 0006 7047     		bx	lr
 306              	.L26:
 307              		.align	2
 308              	.L25:
 309 0008 00000000 		.word	.LANCHOR0
 310              		.cfi_endproc
 311              	.LFE234:
 312              		.size	sd_mmc_unload_0, .-sd_mmc_unload_0
 313              		.section	.text.sd_mmc_unload_1,"ax",%progbits
 314              		.align	1
 315              		.p2align 2,,3
 316              		.global	sd_mmc_unload_1
 317              		.syntax unified
ARM GAS  /tmp/ccomqgAQ.s 			page 9


 318              		.thumb
 319              		.thumb_func
 320              		.fpu fpv5-d16
 321              		.type	sd_mmc_unload_1, %function
 322              	sd_mmc_unload_1:
 323              	.LFB235:
 132:../libraries/Storage/sd_mmc_mem.c **** 
 133:../libraries/Storage/sd_mmc_mem.c **** bool sd_mmc_unload_1(bool unload)
 134:../libraries/Storage/sd_mmc_mem.c **** {
 324              		.loc 1 134 0
 325              		.cfi_startproc
 326              		@ args = 0, pretend = 0, frame = 0
 327              		@ frame_needed = 0, uses_anonymous_args = 0
 328              		@ link register save eliminated.
 329              	.LVL22:
 330              	.LBB22:
 331              	.LBB23:
 124:../libraries/Storage/sd_mmc_mem.c **** 	return true;
 332              		.loc 1 124 0
 333 0000 014B     		ldr	r3, .L28
 334 0002 5870     		strb	r0, [r3, #1]
 335              	.LVL23:
 336              	.LBE23:
 337              	.LBE22:
 135:../libraries/Storage/sd_mmc_mem.c **** 	return sd_mmc_unload(1, unload);
 136:../libraries/Storage/sd_mmc_mem.c **** }
 338              		.loc 1 136 0
 339 0004 0120     		movs	r0, #1
 340              	.LVL24:
 341 0006 7047     		bx	lr
 342              	.L29:
 343              		.align	2
 344              	.L28:
 345 0008 00000000 		.word	.LANCHOR0
 346              		.cfi_endproc
 347              	.LFE235:
 348              		.size	sd_mmc_unload_1, .-sd_mmc_unload_1
 349              		.section	.text.sd_mmc_wr_protect,"ax",%progbits
 350              		.align	1
 351              		.p2align 2,,3
 352              		.global	sd_mmc_wr_protect
 353              		.syntax unified
 354              		.thumb
 355              		.thumb_func
 356              		.fpu fpv5-d16
 357              		.type	sd_mmc_wr_protect, %function
 358              	sd_mmc_wr_protect:
 359              	.LFB236:
 137:../libraries/Storage/sd_mmc_mem.c **** 
 138:../libraries/Storage/sd_mmc_mem.c **** bool sd_mmc_wr_protect(uint8_t slot)
 139:../libraries/Storage/sd_mmc_mem.c **** {
 360              		.loc 1 139 0
 361              		.cfi_startproc
 362              		@ args = 0, pretend = 0, frame = 0
 363              		@ frame_needed = 0, uses_anonymous_args = 0
 364              		@ link register save eliminated.
 365              	.LVL25:
ARM GAS  /tmp/ccomqgAQ.s 			page 10


 140:../libraries/Storage/sd_mmc_mem.c **** 	return sd_mmc_is_write_protected(slot);
 366              		.loc 1 140 0
 367 0000 FFF7FEBF 		b	sd_mmc_is_write_protected
 368              	.LVL26:
 369              		.cfi_endproc
 370              	.LFE236:
 371              		.size	sd_mmc_wr_protect, .-sd_mmc_wr_protect
 372              		.section	.text.sd_mmc_wr_protect_0,"ax",%progbits
 373              		.align	1
 374              		.p2align 2,,3
 375              		.global	sd_mmc_wr_protect_0
 376              		.syntax unified
 377              		.thumb
 378              		.thumb_func
 379              		.fpu fpv5-d16
 380              		.type	sd_mmc_wr_protect_0, %function
 381              	sd_mmc_wr_protect_0:
 382              	.LFB237:
 141:../libraries/Storage/sd_mmc_mem.c **** }
 142:../libraries/Storage/sd_mmc_mem.c **** 
 143:../libraries/Storage/sd_mmc_mem.c **** bool sd_mmc_wr_protect_0(void)
 144:../libraries/Storage/sd_mmc_mem.c **** {
 383              		.loc 1 144 0
 384              		.cfi_startproc
 385              		@ args = 0, pretend = 0, frame = 0
 386              		@ frame_needed = 0, uses_anonymous_args = 0
 387              		@ link register save eliminated.
 388              	.LVL27:
 389              	.LBB24:
 390              	.LBB25:
 140:../libraries/Storage/sd_mmc_mem.c **** 	return sd_mmc_is_write_protected(slot);
 391              		.loc 1 140 0
 392 0000 0020     		movs	r0, #0
 393 0002 FFF7FEBF 		b	sd_mmc_is_write_protected
 394              	.LVL28:
 395              	.LBE25:
 396              	.LBE24:
 397              		.cfi_endproc
 398              	.LFE237:
 399              		.size	sd_mmc_wr_protect_0, .-sd_mmc_wr_protect_0
 400 0006 00BF     		.section	.text.sd_mmc_wr_protect_1,"ax",%progbits
 401              		.align	1
 402              		.p2align 2,,3
 403              		.global	sd_mmc_wr_protect_1
 404              		.syntax unified
 405              		.thumb
 406              		.thumb_func
 407              		.fpu fpv5-d16
 408              		.type	sd_mmc_wr_protect_1, %function
 409              	sd_mmc_wr_protect_1:
 410              	.LFB238:
 145:../libraries/Storage/sd_mmc_mem.c **** 	return sd_mmc_wr_protect(0);
 146:../libraries/Storage/sd_mmc_mem.c **** }
 147:../libraries/Storage/sd_mmc_mem.c **** 
 148:../libraries/Storage/sd_mmc_mem.c **** bool sd_mmc_wr_protect_1(void)
 149:../libraries/Storage/sd_mmc_mem.c **** {
 411              		.loc 1 149 0
ARM GAS  /tmp/ccomqgAQ.s 			page 11


 412              		.cfi_startproc
 413              		@ args = 0, pretend = 0, frame = 0
 414              		@ frame_needed = 0, uses_anonymous_args = 0
 415              		@ link register save eliminated.
 416              	.LVL29:
 417              	.LBB26:
 418              	.LBB27:
 140:../libraries/Storage/sd_mmc_mem.c **** }
 419              		.loc 1 140 0
 420 0000 0120     		movs	r0, #1
 421 0002 FFF7FEBF 		b	sd_mmc_is_write_protected
 422              	.LVL30:
 423              	.LBE27:
 424              	.LBE26:
 425              		.cfi_endproc
 426              	.LFE238:
 427              		.size	sd_mmc_wr_protect_1, .-sd_mmc_wr_protect_1
 428 0006 00BF     		.section	.text.sd_mmc_removal,"ax",%progbits
 429              		.align	1
 430              		.p2align 2,,3
 431              		.global	sd_mmc_removal
 432              		.syntax unified
 433              		.thumb
 434              		.thumb_func
 435              		.fpu fpv5-d16
 436              		.type	sd_mmc_removal, %function
 437              	sd_mmc_removal:
 438              	.LFB239:
 150:../libraries/Storage/sd_mmc_mem.c **** 	return sd_mmc_wr_protect(1);
 151:../libraries/Storage/sd_mmc_mem.c **** }
 152:../libraries/Storage/sd_mmc_mem.c **** 
 153:../libraries/Storage/sd_mmc_mem.c **** bool sd_mmc_removal(uint8_t slot)
 154:../libraries/Storage/sd_mmc_mem.c **** {
 439              		.loc 1 154 0
 440              		.cfi_startproc
 441              		@ args = 0, pretend = 0, frame = 0
 442              		@ frame_needed = 0, uses_anonymous_args = 0
 443              		@ link register save eliminated.
 444              	.LVL31:
 155:../libraries/Storage/sd_mmc_mem.c **** 	UNUSED(slot);
 156:../libraries/Storage/sd_mmc_mem.c **** 	return true;
 157:../libraries/Storage/sd_mmc_mem.c **** }
 445              		.loc 1 157 0
 446 0000 0120     		movs	r0, #1
 447              	.LVL32:
 448 0002 7047     		bx	lr
 449              		.cfi_endproc
 450              	.LFE239:
 451              		.size	sd_mmc_removal, .-sd_mmc_removal
 452              		.section	.text.sd_mmc_removal_0,"ax",%progbits
 453              		.align	1
 454              		.p2align 2,,3
 455              		.global	sd_mmc_removal_0
 456              		.syntax unified
 457              		.thumb
 458              		.thumb_func
 459              		.fpu fpv5-d16
ARM GAS  /tmp/ccomqgAQ.s 			page 12


 460              		.type	sd_mmc_removal_0, %function
 461              	sd_mmc_removal_0:
 462              	.LFB252:
 463              		.cfi_startproc
 464              		@ args = 0, pretend = 0, frame = 0
 465              		@ frame_needed = 0, uses_anonymous_args = 0
 466              		@ link register save eliminated.
 467 0000 0120     		movs	r0, #1
 468 0002 7047     		bx	lr
 469              		.cfi_endproc
 470              	.LFE252:
 471              		.size	sd_mmc_removal_0, .-sd_mmc_removal_0
 472              		.section	.text.sd_mmc_removal_1,"ax",%progbits
 473              		.align	1
 474              		.p2align 2,,3
 475              		.global	sd_mmc_removal_1
 476              		.syntax unified
 477              		.thumb
 478              		.thumb_func
 479              		.fpu fpv5-d16
 480              		.type	sd_mmc_removal_1, %function
 481              	sd_mmc_removal_1:
 482              	.LFB241:
 158:../libraries/Storage/sd_mmc_mem.c **** 
 159:../libraries/Storage/sd_mmc_mem.c **** bool sd_mmc_removal_0(void)
 160:../libraries/Storage/sd_mmc_mem.c **** {
 161:../libraries/Storage/sd_mmc_mem.c **** 	return sd_mmc_removal(0);
 162:../libraries/Storage/sd_mmc_mem.c **** }
 163:../libraries/Storage/sd_mmc_mem.c **** 
 164:../libraries/Storage/sd_mmc_mem.c **** bool sd_mmc_removal_1(void)
 165:../libraries/Storage/sd_mmc_mem.c **** {
 483              		.loc 1 165 0
 484              		.cfi_startproc
 485              		@ args = 0, pretend = 0, frame = 0
 486              		@ frame_needed = 0, uses_anonymous_args = 0
 487              		@ link register save eliminated.
 166:../libraries/Storage/sd_mmc_mem.c **** 	return sd_mmc_removal(1);
 167:../libraries/Storage/sd_mmc_mem.c **** }
 488              		.loc 1 167 0
 489 0000 0120     		movs	r0, #1
 490 0002 7047     		bx	lr
 491              		.cfi_endproc
 492              	.LFE241:
 493              		.size	sd_mmc_removal_1, .-sd_mmc_removal_1
 494              		.section	.text.sd_mmc_mem_2_ram,"ax",%progbits
 495              		.align	1
 496              		.p2align 2,,3
 497              		.global	sd_mmc_mem_2_ram
 498              		.syntax unified
 499              		.thumb
 500              		.thumb_func
 501              		.fpu fpv5-d16
 502              		.type	sd_mmc_mem_2_ram, %function
 503              	sd_mmc_mem_2_ram:
 504              	.LFB242:
 168:../libraries/Storage/sd_mmc_mem.c **** //! @}
 169:../libraries/Storage/sd_mmc_mem.c **** 
ARM GAS  /tmp/ccomqgAQ.s 			page 13


 170:../libraries/Storage/sd_mmc_mem.c **** #if ACCESS_USB == true
 171:../libraries/Storage/sd_mmc_mem.c **** /**
 172:../libraries/Storage/sd_mmc_mem.c ****  * \name MEM <-> USB Interface
 173:../libraries/Storage/sd_mmc_mem.c ****  * @{
 174:../libraries/Storage/sd_mmc_mem.c ****  */
 175:../libraries/Storage/sd_mmc_mem.c **** 
 176:../libraries/Storage/sd_mmc_mem.c **** #include "udi_msc.h"
 177:../libraries/Storage/sd_mmc_mem.c **** 
 178:../libraries/Storage/sd_mmc_mem.c **** COMPILER_WORD_ALIGNED
 179:../libraries/Storage/sd_mmc_mem.c **** uint8_t sector_buf_0[SD_MMC_BLOCK_SIZE];
 180:../libraries/Storage/sd_mmc_mem.c **** 
 181:../libraries/Storage/sd_mmc_mem.c **** COMPILER_WORD_ALIGNED
 182:../libraries/Storage/sd_mmc_mem.c **** uint8_t sector_buf_1[SD_MMC_BLOCK_SIZE];
 183:../libraries/Storage/sd_mmc_mem.c **** 
 184:../libraries/Storage/sd_mmc_mem.c **** Ctrl_status sd_mmc_usb_read_10(uint8_t slot, uint32_t addr, uint16_t nb_sector)
 185:../libraries/Storage/sd_mmc_mem.c **** {
 186:../libraries/Storage/sd_mmc_mem.c **** 	bool b_first_step = true;
 187:../libraries/Storage/sd_mmc_mem.c **** 	uint16_t nb_step;
 188:../libraries/Storage/sd_mmc_mem.c **** 
 189:../libraries/Storage/sd_mmc_mem.c **** 	switch (sd_mmc_init_read_blocks(slot, addr, nb_sector)) {
 190:../libraries/Storage/sd_mmc_mem.c **** 	case SD_MMC_OK:
 191:../libraries/Storage/sd_mmc_mem.c **** 		break;
 192:../libraries/Storage/sd_mmc_mem.c **** 	case SD_MMC_ERR_NO_CARD:
 193:../libraries/Storage/sd_mmc_mem.c **** 		return CTRL_NO_PRESENT;
 194:../libraries/Storage/sd_mmc_mem.c **** 	default:
 195:../libraries/Storage/sd_mmc_mem.c **** 		return CTRL_FAIL;
 196:../libraries/Storage/sd_mmc_mem.c **** 	}
 197:../libraries/Storage/sd_mmc_mem.c **** 	// Pipeline the 2 transfer in order to speed-up the performances
 198:../libraries/Storage/sd_mmc_mem.c **** 	nb_step = nb_sector + 1;
 199:../libraries/Storage/sd_mmc_mem.c **** 	while (nb_step--) {
 200:../libraries/Storage/sd_mmc_mem.c **** 		if (nb_step) { // Skip last step
 201:../libraries/Storage/sd_mmc_mem.c **** 			// MCI -> RAM
 202:../libraries/Storage/sd_mmc_mem.c **** 			if (SD_MMC_OK != sd_mmc_start_read_blocks(((nb_step % 2) == 0) ?
 203:../libraries/Storage/sd_mmc_mem.c **** 					sector_buf_0 : sector_buf_1, 1)) {
 204:../libraries/Storage/sd_mmc_mem.c **** 				return CTRL_FAIL;
 205:../libraries/Storage/sd_mmc_mem.c **** 			}
 206:../libraries/Storage/sd_mmc_mem.c **** 		}
 207:../libraries/Storage/sd_mmc_mem.c **** 		if (!b_first_step) { // Skip first step
 208:../libraries/Storage/sd_mmc_mem.c **** 			// RAM -> USB
 209:../libraries/Storage/sd_mmc_mem.c **** 			if (!udi_msc_trans_block(true,
 210:../libraries/Storage/sd_mmc_mem.c **** 					((nb_step % 2) == 0) ?
 211:../libraries/Storage/sd_mmc_mem.c **** 					sector_buf_1 : sector_buf_0,
 212:../libraries/Storage/sd_mmc_mem.c **** 					SD_MMC_BLOCK_SIZE,
 213:../libraries/Storage/sd_mmc_mem.c **** 					NULL)) {
 214:../libraries/Storage/sd_mmc_mem.c **** 				if (!b_first_step) {
 215:../libraries/Storage/sd_mmc_mem.c **** 					sd_mmc_wait_end_of_read_blocks(true);
 216:../libraries/Storage/sd_mmc_mem.c **** 				}
 217:../libraries/Storage/sd_mmc_mem.c **** 				return CTRL_FAIL;
 218:../libraries/Storage/sd_mmc_mem.c **** 			}
 219:../libraries/Storage/sd_mmc_mem.c **** 		} else {
 220:../libraries/Storage/sd_mmc_mem.c **** 			b_first_step = false;
 221:../libraries/Storage/sd_mmc_mem.c **** 		}
 222:../libraries/Storage/sd_mmc_mem.c **** 		if (nb_step) { // Skip last step
 223:../libraries/Storage/sd_mmc_mem.c **** 			if (SD_MMC_OK != sd_mmc_wait_end_of_read_blocks(false)) {
 224:../libraries/Storage/sd_mmc_mem.c **** 				return CTRL_FAIL;
 225:../libraries/Storage/sd_mmc_mem.c **** 			}
 226:../libraries/Storage/sd_mmc_mem.c **** 		}
ARM GAS  /tmp/ccomqgAQ.s 			page 14


 227:../libraries/Storage/sd_mmc_mem.c **** 		b_first_step = false;
 228:../libraries/Storage/sd_mmc_mem.c **** 	}
 229:../libraries/Storage/sd_mmc_mem.c **** 	return CTRL_GOOD;
 230:../libraries/Storage/sd_mmc_mem.c **** }
 231:../libraries/Storage/sd_mmc_mem.c **** 
 232:../libraries/Storage/sd_mmc_mem.c **** Ctrl_status sd_mmc_usb_read_10_0(uint32_t addr, uint16_t nb_sector)
 233:../libraries/Storage/sd_mmc_mem.c **** {
 234:../libraries/Storage/sd_mmc_mem.c **** 	return sd_mmc_usb_read_10(0, addr, nb_sector);
 235:../libraries/Storage/sd_mmc_mem.c **** }
 236:../libraries/Storage/sd_mmc_mem.c **** 
 237:../libraries/Storage/sd_mmc_mem.c **** Ctrl_status sd_mmc_usb_read_10_1(uint32_t addr, uint16_t nb_sector)
 238:../libraries/Storage/sd_mmc_mem.c **** {
 239:../libraries/Storage/sd_mmc_mem.c **** 	return sd_mmc_usb_read_10(1, addr, nb_sector);
 240:../libraries/Storage/sd_mmc_mem.c **** }
 241:../libraries/Storage/sd_mmc_mem.c **** 
 242:../libraries/Storage/sd_mmc_mem.c **** Ctrl_status sd_mmc_usb_write_10(uint8_t slot, uint32_t addr, uint16_t nb_sector)
 243:../libraries/Storage/sd_mmc_mem.c **** {
 244:../libraries/Storage/sd_mmc_mem.c **** 	bool b_first_step = true;
 245:../libraries/Storage/sd_mmc_mem.c **** 	uint16_t nb_step;
 246:../libraries/Storage/sd_mmc_mem.c **** 
 247:../libraries/Storage/sd_mmc_mem.c **** 	switch (sd_mmc_init_write_blocks(slot, addr, nb_sector)) {
 248:../libraries/Storage/sd_mmc_mem.c **** 	case SD_MMC_OK:
 249:../libraries/Storage/sd_mmc_mem.c **** 		break;
 250:../libraries/Storage/sd_mmc_mem.c **** 	case SD_MMC_ERR_NO_CARD:
 251:../libraries/Storage/sd_mmc_mem.c **** 		return CTRL_NO_PRESENT;
 252:../libraries/Storage/sd_mmc_mem.c **** 	default:
 253:../libraries/Storage/sd_mmc_mem.c **** 		return CTRL_FAIL;
 254:../libraries/Storage/sd_mmc_mem.c **** 	}
 255:../libraries/Storage/sd_mmc_mem.c **** 	// Pipeline the 2 transfer in order to speed-up the performances
 256:../libraries/Storage/sd_mmc_mem.c **** 	nb_step = nb_sector + 1;
 257:../libraries/Storage/sd_mmc_mem.c **** 	while (nb_step--) {
 258:../libraries/Storage/sd_mmc_mem.c **** 		if (!b_first_step) { // Skip first step
 259:../libraries/Storage/sd_mmc_mem.c **** 			// RAM -> MCI
 260:../libraries/Storage/sd_mmc_mem.c **** 			if (SD_MMC_OK != sd_mmc_start_write_blocks(((nb_step % 2) == 0) ?
 261:../libraries/Storage/sd_mmc_mem.c **** 					sector_buf_0 : sector_buf_1, 1)) {
 262:../libraries/Storage/sd_mmc_mem.c **** 				return CTRL_FAIL;
 263:../libraries/Storage/sd_mmc_mem.c **** 			}
 264:../libraries/Storage/sd_mmc_mem.c **** 		}
 265:../libraries/Storage/sd_mmc_mem.c **** 		if (nb_step) { // Skip last step
 266:../libraries/Storage/sd_mmc_mem.c **** 			// USB -> RAM
 267:../libraries/Storage/sd_mmc_mem.c **** 			if (!udi_msc_trans_block(false,
 268:../libraries/Storage/sd_mmc_mem.c **** 					((nb_step % 2) == 0) ?
 269:../libraries/Storage/sd_mmc_mem.c **** 					sector_buf_1 : sector_buf_0,
 270:../libraries/Storage/sd_mmc_mem.c **** 					SD_MMC_BLOCK_SIZE,
 271:../libraries/Storage/sd_mmc_mem.c **** 					NULL)) {
 272:../libraries/Storage/sd_mmc_mem.c **** 				if (!b_first_step) {
 273:../libraries/Storage/sd_mmc_mem.c **** 					sd_mmc_wait_end_of_write_blocks(true);
 274:../libraries/Storage/sd_mmc_mem.c **** 				}
 275:../libraries/Storage/sd_mmc_mem.c **** 				return CTRL_FAIL;
 276:../libraries/Storage/sd_mmc_mem.c **** 			}
 277:../libraries/Storage/sd_mmc_mem.c **** 		}
 278:../libraries/Storage/sd_mmc_mem.c **** 		if (!b_first_step) { // Skip first step
 279:../libraries/Storage/sd_mmc_mem.c **** 			if (SD_MMC_OK != sd_mmc_wait_end_of_write_blocks(false)) {
 280:../libraries/Storage/sd_mmc_mem.c **** 				return CTRL_FAIL;
 281:../libraries/Storage/sd_mmc_mem.c **** 			}
 282:../libraries/Storage/sd_mmc_mem.c **** 		} else {
 283:../libraries/Storage/sd_mmc_mem.c **** 			b_first_step = false;
ARM GAS  /tmp/ccomqgAQ.s 			page 15


 284:../libraries/Storage/sd_mmc_mem.c **** 		}
 285:../libraries/Storage/sd_mmc_mem.c **** 	}
 286:../libraries/Storage/sd_mmc_mem.c **** 	return CTRL_GOOD;
 287:../libraries/Storage/sd_mmc_mem.c **** }
 288:../libraries/Storage/sd_mmc_mem.c **** 
 289:../libraries/Storage/sd_mmc_mem.c **** Ctrl_status sd_mmc_usb_write_10_0(uint32_t addr, uint16_t nb_sector)
 290:../libraries/Storage/sd_mmc_mem.c **** {
 291:../libraries/Storage/sd_mmc_mem.c **** 	return sd_mmc_usb_write_10(0, addr, nb_sector);
 292:../libraries/Storage/sd_mmc_mem.c **** }
 293:../libraries/Storage/sd_mmc_mem.c **** 
 294:../libraries/Storage/sd_mmc_mem.c **** Ctrl_status sd_mmc_usb_write_10_1(uint32_t addr, uint16_t nb_sector)
 295:../libraries/Storage/sd_mmc_mem.c **** {
 296:../libraries/Storage/sd_mmc_mem.c **** 	return sd_mmc_usb_write_10(1, addr, nb_sector);
 297:../libraries/Storage/sd_mmc_mem.c **** }
 298:../libraries/Storage/sd_mmc_mem.c **** //! @}
 299:../libraries/Storage/sd_mmc_mem.c **** #endif // ACCESS_USB == true
 300:../libraries/Storage/sd_mmc_mem.c **** 
 301:../libraries/Storage/sd_mmc_mem.c **** 
 302:../libraries/Storage/sd_mmc_mem.c **** #if ACCESS_MEM_TO_RAM == true
 303:../libraries/Storage/sd_mmc_mem.c **** /**
 304:../libraries/Storage/sd_mmc_mem.c ****  * \name MEM <-> RAM Interface
 305:../libraries/Storage/sd_mmc_mem.c ****  * @{
 306:../libraries/Storage/sd_mmc_mem.c ****  */
 307:../libraries/Storage/sd_mmc_mem.c **** Ctrl_status sd_mmc_mem_2_ram(uint8_t slot, uint32_t addr, void *ram, uint32_t numBlocks)
 308:../libraries/Storage/sd_mmc_mem.c **** {
 505              		.loc 1 308 0
 506              		.cfi_startproc
 507              		@ args = 0, pretend = 0, frame = 0
 508              		@ frame_needed = 0, uses_anonymous_args = 0
 509              	.LVL33:
 510 0000 38B5     		push	{r3, r4, r5, lr}
 511              		.cfi_def_cfa_offset 16
 512              		.cfi_offset 3, -16
 513              		.cfi_offset 4, -12
 514              		.cfi_offset 5, -8
 515              		.cfi_offset 14, -4
 309:../libraries/Storage/sd_mmc_mem.c **** 	switch (sd_mmc_init_read_blocks(slot, addr, numBlocks)) {
 516              		.loc 1 309 0
 517 0002 9CB2     		uxth	r4, r3
 308:../libraries/Storage/sd_mmc_mem.c **** 	switch (sd_mmc_init_read_blocks(slot, addr, numBlocks)) {
 518              		.loc 1 308 0
 519 0004 1546     		mov	r5, r2
 520              		.loc 1 309 0
 521 0006 2246     		mov	r2, r4
 522              	.LVL34:
 523 0008 FFF7FEFF 		bl	sd_mmc_init_read_blocks
 524              	.LVL35:
 525 000c 20B1     		cbz	r0, .L38
 526 000e 0228     		cmp	r0, #2
 310:../libraries/Storage/sd_mmc_mem.c **** 	case SD_MMC_OK:
 311:../libraries/Storage/sd_mmc_mem.c **** 		break;
 312:../libraries/Storage/sd_mmc_mem.c **** 	case SD_MMC_ERR_NO_CARD:
 313:../libraries/Storage/sd_mmc_mem.c **** 		return CTRL_NO_PRESENT;
 314:../libraries/Storage/sd_mmc_mem.c **** 	default:
 315:../libraries/Storage/sd_mmc_mem.c **** 		return CTRL_FAIL;
 527              		.loc 1 315 0
 528 0010 0CBF     		ite	eq
ARM GAS  /tmp/ccomqgAQ.s 			page 16


 529 0012 0220     		moveq	r0, #2
 530 0014 0120     		movne	r0, #1
 531 0016 38BD     		pop	{r3, r4, r5, pc}
 532              	.LVL36:
 533              	.L38:
 316:../libraries/Storage/sd_mmc_mem.c **** 	}
 317:../libraries/Storage/sd_mmc_mem.c **** 	if (SD_MMC_OK != sd_mmc_start_read_blocks(ram, numBlocks)) {
 534              		.loc 1 317 0
 535 0018 2146     		mov	r1, r4
 536 001a 2846     		mov	r0, r5
 537 001c FFF7FEFF 		bl	sd_mmc_start_read_blocks
 538              	.LVL37:
 539 0020 08B1     		cbz	r0, .L43
 318:../libraries/Storage/sd_mmc_mem.c **** 		return CTRL_FAIL;
 540              		.loc 1 318 0
 541 0022 0120     		movs	r0, #1
 319:../libraries/Storage/sd_mmc_mem.c **** 	}
 320:../libraries/Storage/sd_mmc_mem.c **** 	if (SD_MMC_OK != sd_mmc_wait_end_of_read_blocks(false)) {
 321:../libraries/Storage/sd_mmc_mem.c **** 		return CTRL_FAIL;
 322:../libraries/Storage/sd_mmc_mem.c **** 	}
 323:../libraries/Storage/sd_mmc_mem.c **** 	return CTRL_GOOD;
 324:../libraries/Storage/sd_mmc_mem.c **** }
 542              		.loc 1 324 0
 543 0024 38BD     		pop	{r3, r4, r5, pc}
 544              	.LVL38:
 545              	.L43:
 546              	.LBB30:
 547              	.LBB31:
 320:../libraries/Storage/sd_mmc_mem.c **** 		return CTRL_FAIL;
 548              		.loc 1 320 0
 549 0026 FFF7FEFF 		bl	sd_mmc_wait_end_of_read_blocks
 550              	.LVL39:
 551              	.LBE31:
 552              	.LBE30:
 313:../libraries/Storage/sd_mmc_mem.c **** 	default:
 553              		.loc 1 313 0
 554 002a 0030     		adds	r0, r0, #0
 555 002c 18BF     		it	ne
 556 002e 0120     		movne	r0, #1
 557 0030 38BD     		pop	{r3, r4, r5, pc}
 558              		.cfi_endproc
 559              	.LFE242:
 560              		.size	sd_mmc_mem_2_ram, .-sd_mmc_mem_2_ram
 561 0032 00BF     		.section	.text.sd_mmc_mem_2_ram_0,"ax",%progbits
 562              		.align	1
 563              		.p2align 2,,3
 564              		.global	sd_mmc_mem_2_ram_0
 565              		.syntax unified
 566              		.thumb
 567              		.thumb_func
 568              		.fpu fpv5-d16
 569              		.type	sd_mmc_mem_2_ram_0, %function
 570              	sd_mmc_mem_2_ram_0:
 571              	.LFB243:
 325:../libraries/Storage/sd_mmc_mem.c **** 
 326:../libraries/Storage/sd_mmc_mem.c **** Ctrl_status sd_mmc_mem_2_ram_0(uint32_t addr, void *ram, uint32_t numBlocks)
 327:../libraries/Storage/sd_mmc_mem.c **** {
ARM GAS  /tmp/ccomqgAQ.s 			page 17


 572              		.loc 1 327 0
 573              		.cfi_startproc
 574              		@ args = 0, pretend = 0, frame = 0
 575              		@ frame_needed = 0, uses_anonymous_args = 0
 576              		@ link register save eliminated.
 577              	.LVL40:
 328:../libraries/Storage/sd_mmc_mem.c **** 	return sd_mmc_mem_2_ram(0, addr, ram, numBlocks);
 578              		.loc 1 328 0
 579 0000 1346     		mov	r3, r2
 580 0002 0A46     		mov	r2, r1
 581              	.LVL41:
 582 0004 0146     		mov	r1, r0
 583              	.LVL42:
 584 0006 0020     		movs	r0, #0
 585              	.LVL43:
 586 0008 FFF7FEBF 		b	sd_mmc_mem_2_ram
 587              	.LVL44:
 588              		.cfi_endproc
 589              	.LFE243:
 590              		.size	sd_mmc_mem_2_ram_0, .-sd_mmc_mem_2_ram_0
 591              		.section	.text.sd_mmc_mem_2_ram_1,"ax",%progbits
 592              		.align	1
 593              		.p2align 2,,3
 594              		.global	sd_mmc_mem_2_ram_1
 595              		.syntax unified
 596              		.thumb
 597              		.thumb_func
 598              		.fpu fpv5-d16
 599              		.type	sd_mmc_mem_2_ram_1, %function
 600              	sd_mmc_mem_2_ram_1:
 601              	.LFB244:
 329:../libraries/Storage/sd_mmc_mem.c **** }
 330:../libraries/Storage/sd_mmc_mem.c **** 
 331:../libraries/Storage/sd_mmc_mem.c **** Ctrl_status sd_mmc_mem_2_ram_1(uint32_t addr, void *ram, uint32_t numBlocks)
 332:../libraries/Storage/sd_mmc_mem.c **** {
 602              		.loc 1 332 0
 603              		.cfi_startproc
 604              		@ args = 0, pretend = 0, frame = 0
 605              		@ frame_needed = 0, uses_anonymous_args = 0
 606              		@ link register save eliminated.
 607              	.LVL45:
 333:../libraries/Storage/sd_mmc_mem.c **** 	return sd_mmc_mem_2_ram(1, addr, ram, numBlocks);
 608              		.loc 1 333 0
 609 0000 1346     		mov	r3, r2
 610 0002 0A46     		mov	r2, r1
 611              	.LVL46:
 612 0004 0146     		mov	r1, r0
 613              	.LVL47:
 614 0006 0120     		movs	r0, #1
 615              	.LVL48:
 616 0008 FFF7FEBF 		b	sd_mmc_mem_2_ram
 617              	.LVL49:
 618              		.cfi_endproc
 619              	.LFE244:
 620              		.size	sd_mmc_mem_2_ram_1, .-sd_mmc_mem_2_ram_1
 621              		.section	.text.sd_mmc_ram_2_mem,"ax",%progbits
 622              		.align	1
ARM GAS  /tmp/ccomqgAQ.s 			page 18


 623              		.p2align 2,,3
 624              		.global	sd_mmc_ram_2_mem
 625              		.syntax unified
 626              		.thumb
 627              		.thumb_func
 628              		.fpu fpv5-d16
 629              		.type	sd_mmc_ram_2_mem, %function
 630              	sd_mmc_ram_2_mem:
 631              	.LFB245:
 334:../libraries/Storage/sd_mmc_mem.c **** }
 335:../libraries/Storage/sd_mmc_mem.c **** 
 336:../libraries/Storage/sd_mmc_mem.c **** Ctrl_status sd_mmc_ram_2_mem(uint8_t slot, uint32_t addr, const void *ram, uint32_t numBlocks)
 337:../libraries/Storage/sd_mmc_mem.c **** {
 632              		.loc 1 337 0
 633              		.cfi_startproc
 634              		@ args = 0, pretend = 0, frame = 0
 635              		@ frame_needed = 0, uses_anonymous_args = 0
 636              	.LVL50:
 637 0000 38B5     		push	{r3, r4, r5, lr}
 638              		.cfi_def_cfa_offset 16
 639              		.cfi_offset 3, -16
 640              		.cfi_offset 4, -12
 641              		.cfi_offset 5, -8
 642              		.cfi_offset 14, -4
 338:../libraries/Storage/sd_mmc_mem.c **** 	switch (sd_mmc_init_write_blocks(slot, addr, numBlocks)) {
 643              		.loc 1 338 0
 644 0002 9CB2     		uxth	r4, r3
 337:../libraries/Storage/sd_mmc_mem.c **** 	switch (sd_mmc_init_write_blocks(slot, addr, numBlocks)) {
 645              		.loc 1 337 0
 646 0004 1546     		mov	r5, r2
 647              		.loc 1 338 0
 648 0006 2246     		mov	r2, r4
 649              	.LVL51:
 650 0008 FFF7FEFF 		bl	sd_mmc_init_write_blocks
 651              	.LVL52:
 652 000c 20B1     		cbz	r0, .L48
 653 000e 0228     		cmp	r0, #2
 339:../libraries/Storage/sd_mmc_mem.c **** 	case SD_MMC_OK:
 340:../libraries/Storage/sd_mmc_mem.c **** 		break;
 341:../libraries/Storage/sd_mmc_mem.c **** 	case SD_MMC_ERR_NO_CARD:
 342:../libraries/Storage/sd_mmc_mem.c **** 		return CTRL_NO_PRESENT;
 343:../libraries/Storage/sd_mmc_mem.c **** 	default:
 344:../libraries/Storage/sd_mmc_mem.c **** 		return CTRL_FAIL;
 654              		.loc 1 344 0
 655 0010 0CBF     		ite	eq
 656 0012 0220     		moveq	r0, #2
 657 0014 0120     		movne	r0, #1
 658 0016 38BD     		pop	{r3, r4, r5, pc}
 659              	.LVL53:
 660              	.L48:
 345:../libraries/Storage/sd_mmc_mem.c **** 	}
 346:../libraries/Storage/sd_mmc_mem.c **** 	if (SD_MMC_OK != sd_mmc_start_write_blocks(ram, numBlocks)) {
 661              		.loc 1 346 0
 662 0018 2146     		mov	r1, r4
 663 001a 2846     		mov	r0, r5
 664 001c FFF7FEFF 		bl	sd_mmc_start_write_blocks
 665              	.LVL54:
ARM GAS  /tmp/ccomqgAQ.s 			page 19


 666 0020 08B1     		cbz	r0, .L53
 347:../libraries/Storage/sd_mmc_mem.c **** 		return CTRL_FAIL;
 667              		.loc 1 347 0
 668 0022 0120     		movs	r0, #1
 348:../libraries/Storage/sd_mmc_mem.c **** 	}
 349:../libraries/Storage/sd_mmc_mem.c **** 	if (SD_MMC_OK != sd_mmc_wait_end_of_write_blocks(false)) {
 350:../libraries/Storage/sd_mmc_mem.c **** 		return CTRL_FAIL;
 351:../libraries/Storage/sd_mmc_mem.c **** 	}
 352:../libraries/Storage/sd_mmc_mem.c **** 	return CTRL_GOOD;
 353:../libraries/Storage/sd_mmc_mem.c **** }
 669              		.loc 1 353 0
 670 0024 38BD     		pop	{r3, r4, r5, pc}
 671              	.LVL55:
 672              	.L53:
 673              	.LBB34:
 674              	.LBB35:
 349:../libraries/Storage/sd_mmc_mem.c **** 		return CTRL_FAIL;
 675              		.loc 1 349 0
 676 0026 FFF7FEFF 		bl	sd_mmc_wait_end_of_write_blocks
 677              	.LVL56:
 678              	.LBE35:
 679              	.LBE34:
 342:../libraries/Storage/sd_mmc_mem.c **** 	default:
 680              		.loc 1 342 0
 681 002a 0030     		adds	r0, r0, #0
 682 002c 18BF     		it	ne
 683 002e 0120     		movne	r0, #1
 684 0030 38BD     		pop	{r3, r4, r5, pc}
 685              		.cfi_endproc
 686              	.LFE245:
 687              		.size	sd_mmc_ram_2_mem, .-sd_mmc_ram_2_mem
 688 0032 00BF     		.section	.text.sd_mmc_ram_2_mem_0,"ax",%progbits
 689              		.align	1
 690              		.p2align 2,,3
 691              		.global	sd_mmc_ram_2_mem_0
 692              		.syntax unified
 693              		.thumb
 694              		.thumb_func
 695              		.fpu fpv5-d16
 696              		.type	sd_mmc_ram_2_mem_0, %function
 697              	sd_mmc_ram_2_mem_0:
 698              	.LFB246:
 354:../libraries/Storage/sd_mmc_mem.c **** 
 355:../libraries/Storage/sd_mmc_mem.c **** Ctrl_status sd_mmc_ram_2_mem_0(uint32_t addr, const void *ram, uint32_t numBlocks)
 356:../libraries/Storage/sd_mmc_mem.c **** {
 699              		.loc 1 356 0
 700              		.cfi_startproc
 701              		@ args = 0, pretend = 0, frame = 0
 702              		@ frame_needed = 0, uses_anonymous_args = 0
 703              		@ link register save eliminated.
 704              	.LVL57:
 357:../libraries/Storage/sd_mmc_mem.c **** 	return sd_mmc_ram_2_mem(0, addr, ram, numBlocks);
 705              		.loc 1 357 0
 706 0000 1346     		mov	r3, r2
 707 0002 0A46     		mov	r2, r1
 708              	.LVL58:
 709 0004 0146     		mov	r1, r0
ARM GAS  /tmp/ccomqgAQ.s 			page 20


 710              	.LVL59:
 711 0006 0020     		movs	r0, #0
 712              	.LVL60:
 713 0008 FFF7FEBF 		b	sd_mmc_ram_2_mem
 714              	.LVL61:
 715              		.cfi_endproc
 716              	.LFE246:
 717              		.size	sd_mmc_ram_2_mem_0, .-sd_mmc_ram_2_mem_0
 718              		.section	.text.sd_mmc_ram_2_mem_1,"ax",%progbits
 719              		.align	1
 720              		.p2align 2,,3
 721              		.global	sd_mmc_ram_2_mem_1
 722              		.syntax unified
 723              		.thumb
 724              		.thumb_func
 725              		.fpu fpv5-d16
 726              		.type	sd_mmc_ram_2_mem_1, %function
 727              	sd_mmc_ram_2_mem_1:
 728              	.LFB247:
 358:../libraries/Storage/sd_mmc_mem.c **** }
 359:../libraries/Storage/sd_mmc_mem.c **** 
 360:../libraries/Storage/sd_mmc_mem.c **** Ctrl_status sd_mmc_ram_2_mem_1(uint32_t addr, const void *ram, uint32_t numBlocks)
 361:../libraries/Storage/sd_mmc_mem.c **** {
 729              		.loc 1 361 0
 730              		.cfi_startproc
 731              		@ args = 0, pretend = 0, frame = 0
 732              		@ frame_needed = 0, uses_anonymous_args = 0
 733              		@ link register save eliminated.
 734              	.LVL62:
 362:../libraries/Storage/sd_mmc_mem.c **** 	return sd_mmc_ram_2_mem(1, addr, ram, numBlocks);
 735              		.loc 1 362 0
 736 0000 1346     		mov	r3, r2
 737 0002 0A46     		mov	r2, r1
 738              	.LVL63:
 739 0004 0146     		mov	r1, r0
 740              	.LVL64:
 741 0006 0120     		movs	r0, #1
 742              	.LVL65:
 743 0008 FFF7FEBF 		b	sd_mmc_ram_2_mem
 744              	.LVL66:
 745              		.cfi_endproc
 746              	.LFE247:
 747              		.size	sd_mmc_ram_2_mem_1, .-sd_mmc_ram_2_mem_1
 748              		.section	.bss.cpu_irq_critical_section_counter,"aw",%nobits
 749              		.align	2
 750              		.type	cpu_irq_critical_section_counter, %object
 751              		.size	cpu_irq_critical_section_counter, 4
 752              	cpu_irq_critical_section_counter:
 753 0000 00000000 		.space	4
 754              		.section	.bss.cpu_irq_prev_interrupt_state,"aw",%nobits
 755              		.type	cpu_irq_prev_interrupt_state, %object
 756              		.size	cpu_irq_prev_interrupt_state, 1
 757              	cpu_irq_prev_interrupt_state:
 758 0000 00       		.space	1
 759              		.section	.bss.sd_mmc_ejected,"aw",%nobits
 760              		.align	2
 761              		.set	.LANCHOR0,. + 0
ARM GAS  /tmp/ccomqgAQ.s 			page 21


 762              		.type	sd_mmc_ejected, %object
 763              		.size	sd_mmc_ejected, 2
 764              	sd_mmc_ejected:
 765 0000 0000     		.space	2
 766              		.text
 767              	.Letext0:
 768              		.file 2 "/usr/include/newlib/machine/_default_types.h"
 769              		.file 3 "/usr/include/newlib/sys/_stdint.h"
 770              		.file 4 "/home/torbjorn/eclipse-workspace/CoreNG/asf/thirdparty/CMSIS/Include/core_cm7.h"
 771              		.file 5 "/home/torbjorn/eclipse-workspace/CoreNG/variants/same70/system_same70.h"
 772              		.file 6 "/usr/include/newlib/sys/lock.h"
 773              		.file 7 "/usr/include/newlib/sys/_types.h"
 774              		.file 8 "/usr/lib/gcc/arm-none-eabi/6.3.1/include/stddef.h"
 775              		.file 9 "/usr/include/newlib/sys/reent.h"
 776              		.file 10 "/usr/include/newlib/stdlib.h"
 777              		.file 11 "/home/torbjorn/eclipse-workspace/CoreNG/asf/common/utils/interrupt/interrupt_sam_nvic.h"
 778              		.file 12 "/usr/include/newlib/math.h"
 779              		.file 13 "/home/torbjorn/eclipse-workspace/CoreNG/cores/arduino/Core.h"
 780              		.file 14 "/usr/include/newlib/time.h"
 781              		.file 15 "/home/torbjorn/eclipse-workspace/CoreNG/variants/same70/variant.h"
 782              		.file 16 "../libraries/Storage/ctrl_access.h"
 783              		.file 17 "../libraries/Storage/sd_mmc.h"