ARM GAS  /tmp/ccTIydBQ.s 			page 1


   1              		.cpu cortex-m7
   2              		.eabi_attribute 28, 1
   3              		.eabi_attribute 20, 1
   4              		.eabi_attribute 21, 1
   5              		.eabi_attribute 23, 3
   6              		.eabi_attribute 24, 1
   7              		.eabi_attribute 25, 1
   8              		.eabi_attribute 26, 1
   9              		.eabi_attribute 30, 2
  10              		.eabi_attribute 34, 1
  11              		.eabi_attribute 18, 4
  12              		.file	"sd_mmc.c"
  13              		.text
  14              	.Ltext0:
  15              		.cfi_sections	.debug_frame
  16              		.section	.text.sd_mmc_spi_get_bus_width,"ax",%progbits
  17              		.align	1
  18              		.p2align 2,,3
  19              		.syntax unified
  20              		.thumb
  21              		.thumb_func
  22              		.fpu fpv5-d16
  23              		.type	sd_mmc_spi_get_bus_width, %function
  24              	sd_mmc_spi_get_bus_width:
  25              	.LFB228:
  26              		.file 1 "../libraries/Storage/sd_mmc_spi.h"
   1:../libraries/Storage/sd_mmc_spi.h **** /**
   2:../libraries/Storage/sd_mmc_spi.h ****  * \file
   3:../libraries/Storage/sd_mmc_spi.h ****  *
   4:../libraries/Storage/sd_mmc_spi.h ****  * \brief Common SPI interface for SD/MMC stack
   5:../libraries/Storage/sd_mmc_spi.h ****  *
   6:../libraries/Storage/sd_mmc_spi.h ****  * Copyright (c) 2012-2015 Atmel Corporation. All rights reserved.
   7:../libraries/Storage/sd_mmc_spi.h ****  *
   8:../libraries/Storage/sd_mmc_spi.h ****  * \asf_license_start
   9:../libraries/Storage/sd_mmc_spi.h ****  *
  10:../libraries/Storage/sd_mmc_spi.h ****  * \page License
  11:../libraries/Storage/sd_mmc_spi.h ****  *
  12:../libraries/Storage/sd_mmc_spi.h ****  * Redistribution and use in source and binary forms, with or without
  13:../libraries/Storage/sd_mmc_spi.h ****  * modification, are permitted provided that the following conditions are met:
  14:../libraries/Storage/sd_mmc_spi.h ****  *
  15:../libraries/Storage/sd_mmc_spi.h ****  * 1. Redistributions of source code must retain the above copyright notice,
  16:../libraries/Storage/sd_mmc_spi.h ****  *    this list of conditions and the following disclaimer.
  17:../libraries/Storage/sd_mmc_spi.h ****  *
  18:../libraries/Storage/sd_mmc_spi.h ****  * 2. Redistributions in binary form must reproduce the above copyright notice,
  19:../libraries/Storage/sd_mmc_spi.h ****  *    this list of conditions and the following disclaimer in the documentation
  20:../libraries/Storage/sd_mmc_spi.h ****  *    and/or other materials provided with the distribution.
  21:../libraries/Storage/sd_mmc_spi.h ****  *
  22:../libraries/Storage/sd_mmc_spi.h ****  * 3. The name of Atmel may not be used to endorse or promote products derived
  23:../libraries/Storage/sd_mmc_spi.h ****  *    from this software without specific prior written permission.
  24:../libraries/Storage/sd_mmc_spi.h ****  *
  25:../libraries/Storage/sd_mmc_spi.h ****  * 4. This software may only be redistributed and used in connection with an
  26:../libraries/Storage/sd_mmc_spi.h ****  *    Atmel microcontroller product.
  27:../libraries/Storage/sd_mmc_spi.h ****  *
  28:../libraries/Storage/sd_mmc_spi.h ****  * THIS SOFTWARE IS PROVIDED BY ATMEL "AS IS" AND ANY EXPRESS OR IMPLIED
  29:../libraries/Storage/sd_mmc_spi.h ****  * WARRANTIES, INCLUDING, BUT NOT LIMITED TO, THE IMPLIED WARRANTIES OF
  30:../libraries/Storage/sd_mmc_spi.h ****  * MERCHANTABILITY, FITNESS FOR A PARTICULAR PURPOSE AND NON-INFRINGEMENT ARE
  31:../libraries/Storage/sd_mmc_spi.h ****  * EXPRESSLY AND SPECIFICALLY DISCLAIMED. IN NO EVENT SHALL ATMEL BE LIABLE FOR
ARM GAS  /tmp/ccTIydBQ.s 			page 2


  32:../libraries/Storage/sd_mmc_spi.h ****  * ANY DIRECT, INDIRECT, INCIDENTAL, SPECIAL, EXEMPLARY, OR CONSEQUENTIAL
  33:../libraries/Storage/sd_mmc_spi.h ****  * DAMAGES (INCLUDING, BUT NOT LIMITED TO, PROCUREMENT OF SUBSTITUTE GOODS
  34:../libraries/Storage/sd_mmc_spi.h ****  * OR SERVICES; LOSS OF USE, DATA, OR PROFITS; OR BUSINESS INTERRUPTION)
  35:../libraries/Storage/sd_mmc_spi.h ****  * HOWEVER CAUSED AND ON ANY THEORY OF LIABILITY, WHETHER IN CONTRACT,
  36:../libraries/Storage/sd_mmc_spi.h ****  * STRICT LIABILITY, OR TORT (INCLUDING NEGLIGENCE OR OTHERWISE) ARISING IN
  37:../libraries/Storage/sd_mmc_spi.h ****  * ANY WAY OUT OF THE USE OF THIS SOFTWARE, EVEN IF ADVISED OF THE
  38:../libraries/Storage/sd_mmc_spi.h ****  * POSSIBILITY OF SUCH DAMAGE.
  39:../libraries/Storage/sd_mmc_spi.h ****  *
  40:../libraries/Storage/sd_mmc_spi.h ****  * \asf_license_stop
  41:../libraries/Storage/sd_mmc_spi.h ****  *
  42:../libraries/Storage/sd_mmc_spi.h ****  */
  43:../libraries/Storage/sd_mmc_spi.h **** /*
  44:../libraries/Storage/sd_mmc_spi.h ****  * Support and FAQ: visit <a href="http://www.atmel.com/design-support/">Atmel Support</a>
  45:../libraries/Storage/sd_mmc_spi.h ****  */
  46:../libraries/Storage/sd_mmc_spi.h **** 
  47:../libraries/Storage/sd_mmc_spi.h **** #ifndef SD_MMC_SPI_H_INCLUDED
  48:../libraries/Storage/sd_mmc_spi.h **** #define SD_MMC_SPI_H_INCLUDED
  49:../libraries/Storage/sd_mmc_spi.h **** 
  50:../libraries/Storage/sd_mmc_spi.h **** #include "compiler.h"
  51:../libraries/Storage/sd_mmc_spi.h **** #include "sd_mmc_protocol.h"
  52:../libraries/Storage/sd_mmc_spi.h **** 
  53:../libraries/Storage/sd_mmc_spi.h **** #ifdef __cplusplus
  54:../libraries/Storage/sd_mmc_spi.h **** extern "C" {
  55:../libraries/Storage/sd_mmc_spi.h **** #endif
  56:../libraries/Storage/sd_mmc_spi.h **** 
  57:../libraries/Storage/sd_mmc_spi.h **** /**
  58:../libraries/Storage/sd_mmc_spi.h ****  * \ingroup sd_mmc_stack_group
  59:../libraries/Storage/sd_mmc_spi.h ****  * \defgroup sd_mmc_stack_spi Common SPI interface for SD/MMC stack
  60:../libraries/Storage/sd_mmc_spi.h ****  * @{
  61:../libraries/Storage/sd_mmc_spi.h ****  */
  62:../libraries/Storage/sd_mmc_spi.h **** 
  63:../libraries/Storage/sd_mmc_spi.h **** //! Type of return error code
  64:../libraries/Storage/sd_mmc_spi.h **** typedef uint8_t sd_mmc_spi_errno_t;
  65:../libraries/Storage/sd_mmc_spi.h **** 
  66:../libraries/Storage/sd_mmc_spi.h **** //! \name Return error codes
  67:../libraries/Storage/sd_mmc_spi.h **** //! @{
  68:../libraries/Storage/sd_mmc_spi.h **** #define SD_MMC_SPI_NO_ERR                 0 //! No error
  69:../libraries/Storage/sd_mmc_spi.h **** #define SD_MMC_SPI_ERR                    1 //! General or an unknown error
  70:../libraries/Storage/sd_mmc_spi.h **** #define SD_MMC_SPI_ERR_RESP_TIMEOUT       2 //! Timeout during command
  71:../libraries/Storage/sd_mmc_spi.h **** #define SD_MMC_SPI_ERR_RESP_BUSY_TIMEOUT  3 //! Timeout on busy signal of R1B response
  72:../libraries/Storage/sd_mmc_spi.h **** #define SD_MMC_SPI_ERR_READ_TIMEOUT       4 //! Timeout during read operation
  73:../libraries/Storage/sd_mmc_spi.h **** #define SD_MMC_SPI_ERR_WRITE_TIMEOUT      5 //! Timeout during write operation
  74:../libraries/Storage/sd_mmc_spi.h **** #define SD_MMC_SPI_ERR_RESP_CRC           6 //! Command CRC error
  75:../libraries/Storage/sd_mmc_spi.h **** #define SD_MMC_SPI_ERR_READ_CRC           7 //! CRC error during read operation
  76:../libraries/Storage/sd_mmc_spi.h **** #define SD_MMC_SPI_ERR_WRITE_CRC          8 //! CRC error during write operation
  77:../libraries/Storage/sd_mmc_spi.h **** #define SD_MMC_SPI_ERR_ILLEGAL_COMMAND    9 //! Command not supported
  78:../libraries/Storage/sd_mmc_spi.h **** #define SD_MMC_SPI_ERR_WRITE             10 //! Error during write operation
  79:../libraries/Storage/sd_mmc_spi.h **** #define SD_MMC_SPI_ERR_OUT_OF_RANGE      11 //! Data access out of range
  80:../libraries/Storage/sd_mmc_spi.h **** //! @}
  81:../libraries/Storage/sd_mmc_spi.h **** 
  82:../libraries/Storage/sd_mmc_spi.h **** 
  83:../libraries/Storage/sd_mmc_spi.h **** /** \brief Return the error code of last function
  84:../libraries/Storage/sd_mmc_spi.h ****  *
  85:../libraries/Storage/sd_mmc_spi.h ****  * \return error code
  86:../libraries/Storage/sd_mmc_spi.h ****  */
  87:../libraries/Storage/sd_mmc_spi.h **** sd_mmc_spi_errno_t sd_mmc_spi_get_errno(void);
  88:../libraries/Storage/sd_mmc_spi.h **** 
ARM GAS  /tmp/ccTIydBQ.s 			page 3


  89:../libraries/Storage/sd_mmc_spi.h **** /** \brief Initializes the low level driver
  90:../libraries/Storage/sd_mmc_spi.h ****  *
  91:../libraries/Storage/sd_mmc_spi.h ****  * This enable the clock required and the hardware interface.
  92:../libraries/Storage/sd_mmc_spi.h ****  */
  93:../libraries/Storage/sd_mmc_spi.h **** void sd_mmc_spi_init(const Pin csPins[SD_MMC_SPI_MEM_CNT]);
  94:../libraries/Storage/sd_mmc_spi.h **** 
  95:../libraries/Storage/sd_mmc_spi.h **** /** \brief Return the maximum bus width of a slot
  96:../libraries/Storage/sd_mmc_spi.h ****  *
  97:../libraries/Storage/sd_mmc_spi.h ****  * \param slot     Selected slot
  98:../libraries/Storage/sd_mmc_spi.h ****  *
  99:../libraries/Storage/sd_mmc_spi.h ****  * \return 1, 4 or 8 lines.
 100:../libraries/Storage/sd_mmc_spi.h ****  */
 101:../libraries/Storage/sd_mmc_spi.h **** static __inline__ uint8_t sd_mmc_spi_get_bus_width(uint8_t slot) {
  27              		.loc 1 101 0
  28              		.cfi_startproc
  29              		@ args = 0, pretend = 0, frame = 0
  30              		@ frame_needed = 0, uses_anonymous_args = 0
  31              		@ link register save eliminated.
  32              	.LVL0:
 102:../libraries/Storage/sd_mmc_spi.h **** 	UNUSED(slot);
 103:../libraries/Storage/sd_mmc_spi.h **** 	return 1;
 104:../libraries/Storage/sd_mmc_spi.h **** }
  33              		.loc 1 104 0
  34 0000 0120     		movs	r0, #1
  35              	.LVL1:
  36 0002 7047     		bx	lr
  37              		.cfi_endproc
  38              	.LFE228:
  39              		.size	sd_mmc_spi_get_bus_width, .-sd_mmc_spi_get_bus_width
  40              		.section	.text.sd_mmc_spi_is_high_speed_capable,"ax",%progbits
  41              		.align	1
  42              		.p2align 2,,3
  43              		.syntax unified
  44              		.thumb
  45              		.thumb_func
  46              		.fpu fpv5-d16
  47              		.type	sd_mmc_spi_is_high_speed_capable, %function
  48              	sd_mmc_spi_is_high_speed_capable:
  49              	.LFB229:
 105:../libraries/Storage/sd_mmc_spi.h **** 
 106:../libraries/Storage/sd_mmc_spi.h **** /** \brief Return the high speed capability of the driver
 107:../libraries/Storage/sd_mmc_spi.h ****  *
 108:../libraries/Storage/sd_mmc_spi.h ****  * \return true, if the high speed is supported
 109:../libraries/Storage/sd_mmc_spi.h ****  */
 110:../libraries/Storage/sd_mmc_spi.h **** static __inline__ bool sd_mmc_spi_is_high_speed_capable(void) {
  50              		.loc 1 110 0
  51              		.cfi_startproc
  52              		@ args = 0, pretend = 0, frame = 0
  53              		@ frame_needed = 0, uses_anonymous_args = 0
  54              		@ link register save eliminated.
 111:../libraries/Storage/sd_mmc_spi.h **** 	return false;
 112:../libraries/Storage/sd_mmc_spi.h **** }
  55              		.loc 1 112 0
  56 0000 0020     		movs	r0, #0
  57 0002 7047     		bx	lr
  58              		.cfi_endproc
  59              	.LFE229:
ARM GAS  /tmp/ccTIydBQ.s 			page 4


  60              		.size	sd_mmc_spi_is_high_speed_capable, .-sd_mmc_spi_is_high_speed_capable
  61              		.section	.text.sd_mmc_spi_get_response_128,"ax",%progbits
  62              		.align	1
  63              		.p2align 2,,3
  64              		.syntax unified
  65              		.thumb
  66              		.thumb_func
  67              		.fpu fpv5-d16
  68              		.type	sd_mmc_spi_get_response_128, %function
  69              	sd_mmc_spi_get_response_128:
  70              	.LFB230:
 113:../libraries/Storage/sd_mmc_spi.h **** 
 114:../libraries/Storage/sd_mmc_spi.h **** /**
 115:../libraries/Storage/sd_mmc_spi.h ****  * \brief Select a slot and initialize it
 116:../libraries/Storage/sd_mmc_spi.h ****  *
 117:../libraries/Storage/sd_mmc_spi.h ****  * \param slot       Selected slot
 118:../libraries/Storage/sd_mmc_spi.h ****  * \param clock      Maximum clock to use (Hz)
 119:../libraries/Storage/sd_mmc_spi.h ****  * \param bus_width  Bus width to use (1, 4 or 8)
 120:../libraries/Storage/sd_mmc_spi.h ****  * \param high_speed true, to enable high speed mode
 121:../libraries/Storage/sd_mmc_spi.h ****  */
 122:../libraries/Storage/sd_mmc_spi.h **** void sd_mmc_spi_select_device(uint8_t slot, uint32_t clock, uint8_t bus_width,
 123:../libraries/Storage/sd_mmc_spi.h **** 		bool high_speed);
 124:../libraries/Storage/sd_mmc_spi.h **** 
 125:../libraries/Storage/sd_mmc_spi.h **** /**
 126:../libraries/Storage/sd_mmc_spi.h ****  * \brief Deselect a slot
 127:../libraries/Storage/sd_mmc_spi.h ****  *
 128:../libraries/Storage/sd_mmc_spi.h ****  * \param slot       Selected slot
 129:../libraries/Storage/sd_mmc_spi.h ****  */
 130:../libraries/Storage/sd_mmc_spi.h **** void sd_mmc_spi_deselect_device(uint8_t slot);
 131:../libraries/Storage/sd_mmc_spi.h **** 
 132:../libraries/Storage/sd_mmc_spi.h **** /** \brief Send 74 clock cycles on the line of selected slot
 133:../libraries/Storage/sd_mmc_spi.h ****  * Note: It is required after card plug and before card install.
 134:../libraries/Storage/sd_mmc_spi.h ****  */
 135:../libraries/Storage/sd_mmc_spi.h **** void sd_mmc_spi_send_clock(void);
 136:../libraries/Storage/sd_mmc_spi.h **** 
 137:../libraries/Storage/sd_mmc_spi.h **** /** \brief Send a command on the selected slot
 138:../libraries/Storage/sd_mmc_spi.h ****  *
 139:../libraries/Storage/sd_mmc_spi.h ****  * \param cmd        Command definition
 140:../libraries/Storage/sd_mmc_spi.h ****  * \param arg        Argument of the command
 141:../libraries/Storage/sd_mmc_spi.h ****  *
 142:../libraries/Storage/sd_mmc_spi.h ****  * \return true if success, otherwise false
 143:../libraries/Storage/sd_mmc_spi.h ****  */
 144:../libraries/Storage/sd_mmc_spi.h **** bool sd_mmc_spi_send_cmd(sdmmc_cmd_def_t cmd, uint32_t arg);
 145:../libraries/Storage/sd_mmc_spi.h **** 
 146:../libraries/Storage/sd_mmc_spi.h **** /** \brief Return the 32 bits response of the last command
 147:../libraries/Storage/sd_mmc_spi.h ****  *
 148:../libraries/Storage/sd_mmc_spi.h ****  * \return 32 bits response
 149:../libraries/Storage/sd_mmc_spi.h ****  */
 150:../libraries/Storage/sd_mmc_spi.h **** uint32_t sd_mmc_spi_get_response(void);
 151:../libraries/Storage/sd_mmc_spi.h **** static __inline__ void sd_mmc_spi_get_response_128(uint8_t *resp) {
  71              		.loc 1 151 0
  72              		.cfi_startproc
  73              		@ args = 0, pretend = 0, frame = 0
  74              		@ frame_needed = 0, uses_anonymous_args = 0
  75              		@ link register save eliminated.
  76              	.LVL2:
  77 0000 7047     		bx	lr
ARM GAS  /tmp/ccTIydBQ.s 			page 5


  78              		.cfi_endproc
  79              	.LFE230:
  80              		.size	sd_mmc_spi_get_response_128, .-sd_mmc_spi_get_response_128
  81 0002 00BF     		.section	.text.mmc_decode_csd,"ax",%progbits
  82              		.align	1
  83              		.p2align 2,,3
  84              		.syntax unified
  85              		.thumb
  86              		.thumb_func
  87              		.fpu fpv5-d16
  88              		.type	mmc_decode_csd, %function
  89              	mmc_decode_csd:
  90              	.LFB246:
  91              		.file 2 "../libraries/Storage/sd_mmc.c"
   1:../libraries/Storage/sd_mmc.c **** /**
   2:../libraries/Storage/sd_mmc.c ****  * \file
   3:../libraries/Storage/sd_mmc.c ****  *
   4:../libraries/Storage/sd_mmc.c ****  * \brief Common SD/MMC stack
   5:../libraries/Storage/sd_mmc.c ****  *
   6:../libraries/Storage/sd_mmc.c ****  * Copyright (c) 2012-2015 Atmel Corporation. All rights reserved.
   7:../libraries/Storage/sd_mmc.c ****  *
   8:../libraries/Storage/sd_mmc.c ****  * \asf_license_start
   9:../libraries/Storage/sd_mmc.c ****  *
  10:../libraries/Storage/sd_mmc.c ****  * \page License
  11:../libraries/Storage/sd_mmc.c ****  *
  12:../libraries/Storage/sd_mmc.c ****  * Redistribution and use in source and binary forms, with or without
  13:../libraries/Storage/sd_mmc.c ****  * modification, are permitted provided that the following conditions are met:
  14:../libraries/Storage/sd_mmc.c ****  *
  15:../libraries/Storage/sd_mmc.c ****  * 1. Redistributions of source code must retain the above copyright notice,
  16:../libraries/Storage/sd_mmc.c ****  *    this list of conditions and the following disclaimer.
  17:../libraries/Storage/sd_mmc.c ****  *
  18:../libraries/Storage/sd_mmc.c ****  * 2. Redistributions in binary form must reproduce the above copyright notice,
  19:../libraries/Storage/sd_mmc.c ****  *    this list of conditions and the following disclaimer in the documentation
  20:../libraries/Storage/sd_mmc.c ****  *    and/or other materials provided with the distribution.
  21:../libraries/Storage/sd_mmc.c ****  *
  22:../libraries/Storage/sd_mmc.c ****  * 3. The name of Atmel may not be used to endorse or promote products derived
  23:../libraries/Storage/sd_mmc.c ****  *    from this software without specific prior written permission.
  24:../libraries/Storage/sd_mmc.c ****  *
  25:../libraries/Storage/sd_mmc.c ****  * 4. This software may only be redistributed and used in connection with an
  26:../libraries/Storage/sd_mmc.c ****  *    Atmel microcontroller product.
  27:../libraries/Storage/sd_mmc.c ****  *
  28:../libraries/Storage/sd_mmc.c ****  * THIS SOFTWARE IS PROVIDED BY ATMEL "AS IS" AND ANY EXPRESS OR IMPLIED
  29:../libraries/Storage/sd_mmc.c ****  * WARRANTIES, INCLUDING, BUT NOT LIMITED TO, THE IMPLIED WARRANTIES OF
  30:../libraries/Storage/sd_mmc.c ****  * MERCHANTABILITY, FITNESS FOR A PARTICULAR PURPOSE AND NON-INFRINGEMENT ARE
  31:../libraries/Storage/sd_mmc.c ****  * EXPRESSLY AND SPECIFICALLY DISCLAIMED. IN NO EVENT SHALL ATMEL BE LIABLE FOR
  32:../libraries/Storage/sd_mmc.c ****  * ANY DIRECT, INDIRECT, INCIDENTAL, SPECIAL, EXEMPLARY, OR CONSEQUENTIAL
  33:../libraries/Storage/sd_mmc.c ****  * DAMAGES (INCLUDING, BUT NOT LIMITED TO, PROCUREMENT OF SUBSTITUTE GOODS
  34:../libraries/Storage/sd_mmc.c ****  * OR SERVICES; LOSS OF USE, DATA, OR PROFITS; OR BUSINESS INTERRUPTION)
  35:../libraries/Storage/sd_mmc.c ****  * HOWEVER CAUSED AND ON ANY THEORY OF LIABILITY, WHETHER IN CONTRACT,
  36:../libraries/Storage/sd_mmc.c ****  * STRICT LIABILITY, OR TORT (INCLUDING NEGLIGENCE OR OTHERWISE) ARISING IN
  37:../libraries/Storage/sd_mmc.c ****  * ANY WAY OUT OF THE USE OF THIS SOFTWARE, EVEN IF ADVISED OF THE
  38:../libraries/Storage/sd_mmc.c ****  * POSSIBILITY OF SUCH DAMAGE.
  39:../libraries/Storage/sd_mmc.c ****  *
  40:../libraries/Storage/sd_mmc.c ****  * \asf_license_stop
  41:../libraries/Storage/sd_mmc.c ****  *
  42:../libraries/Storage/sd_mmc.c ****  */
  43:../libraries/Storage/sd_mmc.c **** /*
ARM GAS  /tmp/ccTIydBQ.s 			page 6


  44:../libraries/Storage/sd_mmc.c ****  * Support and FAQ: visit <a href="http://www.atmel.com/design-support/">Atmel Support</a>
  45:../libraries/Storage/sd_mmc.c ****  */
  46:../libraries/Storage/sd_mmc.c **** 
  47:../libraries/Storage/sd_mmc.c **** #include "Core.h"
  48:../libraries/Storage/sd_mmc.c **** #include <string.h>
  49:../libraries/Storage/sd_mmc.c **** #include "sd_mmc_protocol.h"
  50:../libraries/Storage/sd_mmc.c **** #include "sd_mmc.h"
  51:../libraries/Storage/sd_mmc.c **** #include "conf_sd_mmc.h"
  52:../libraries/Storage/sd_mmc.c **** 
  53:../libraries/Storage/sd_mmc.c **** #include "Core.h"		// for digitalRead() and pinMode()
  54:../libraries/Storage/sd_mmc.c **** 
  55:../libraries/Storage/sd_mmc.c **** #ifdef FREERTOS_USED
  56:../libraries/Storage/sd_mmc.c **** #include "FreeRTOS.h"
  57:../libraries/Storage/sd_mmc.c **** #include "task.h"
  58:../libraries/Storage/sd_mmc.c **** #include "portmacro.h"
  59:../libraries/Storage/sd_mmc.c **** #include "projdefs.h"
  60:../libraries/Storage/sd_mmc.c **** #endif
  61:../libraries/Storage/sd_mmc.c **** 
  62:../libraries/Storage/sd_mmc.c **** /**
  63:../libraries/Storage/sd_mmc.c ****  * \ingroup sd_mmc_stack
  64:../libraries/Storage/sd_mmc.c ****  * \defgroup sd_mmc_stack_internal Implementation of SD/MMC/SDIO Stack
  65:../libraries/Storage/sd_mmc.c ****  * @{
  66:../libraries/Storage/sd_mmc.c ****  */
  67:../libraries/Storage/sd_mmc.c **** 
  68:../libraries/Storage/sd_mmc.c **** // Enable debug information for SD/MMC module
  69:../libraries/Storage/sd_mmc.c **** #ifdef SD_MMC_DEBUG
  70:../libraries/Storage/sd_mmc.c **** extern void debugPrintf(const char* fmt, ...);
  71:../libraries/Storage/sd_mmc.c **** #  define sd_mmc_debug(...)      debugPrintf(__VA_ARGS__)
  72:../libraries/Storage/sd_mmc.c **** #else
  73:../libraries/Storage/sd_mmc.c **** #  define sd_mmc_debug(...)
  74:../libraries/Storage/sd_mmc.c **** #endif
  75:../libraries/Storage/sd_mmc.c **** 
  76:../libraries/Storage/sd_mmc.c **** #ifndef SD_MMC_HSMCI_MEM_CNT
  77:../libraries/Storage/sd_mmc.c **** #  error SD_MMC_HSMCI_MEM_CNT not defined
  78:../libraries/Storage/sd_mmc.c **** #endif
  79:../libraries/Storage/sd_mmc.c **** #ifndef SD_MMC_SPI_MEM_CNT
  80:../libraries/Storage/sd_mmc.c **** #  error SD_MMC_SPI_MEM_CNT not defined
  81:../libraries/Storage/sd_mmc.c **** #endif
  82:../libraries/Storage/sd_mmc.c **** 
  83:../libraries/Storage/sd_mmc.c **** typedef void (*driverIdleFunc_t)(uint32_t, uint32_t);
  84:../libraries/Storage/sd_mmc.c **** 
  85:../libraries/Storage/sd_mmc.c **** struct DriverInterface
  86:../libraries/Storage/sd_mmc.c **** {
  87:../libraries/Storage/sd_mmc.c **** 	void (*select_device)(uint8_t slot, uint32_t clock, uint8_t bus_width, bool high_speed);
  88:../libraries/Storage/sd_mmc.c **** 	void (*deselect_device)(uint8_t slot);
  89:../libraries/Storage/sd_mmc.c **** 	uint8_t (*get_bus_width)(uint8_t slot);
  90:../libraries/Storage/sd_mmc.c **** 	bool (*is_high_speed_capable)(void);
  91:../libraries/Storage/sd_mmc.c **** 	void (*send_clock)(void);
  92:../libraries/Storage/sd_mmc.c **** 	bool (*send_cmd)(sdmmc_cmd_def_t cmd, uint32_t arg);
  93:../libraries/Storage/sd_mmc.c **** 	uint32_t (*get_response)(void);
  94:../libraries/Storage/sd_mmc.c **** 	void (*get_response_128)(uint8_t* response);
  95:../libraries/Storage/sd_mmc.c **** 	bool (*adtc_start)(sdmmc_cmd_def_t cmd, uint32_t arg, uint16_t block_size, uint16_t nb_block, bool
  96:../libraries/Storage/sd_mmc.c **** 	bool (*adtc_stop)(sdmmc_cmd_def_t cmd, uint32_t arg);
  97:../libraries/Storage/sd_mmc.c **** 	bool (*read_word)(uint32_t* value);
  98:../libraries/Storage/sd_mmc.c **** 	bool (*write_word)(uint32_t value);
  99:../libraries/Storage/sd_mmc.c **** 	bool (*start_read_blocks)(void *dest, uint16_t nb_block);
 100:../libraries/Storage/sd_mmc.c **** 	bool (*wait_end_of_read_blocks)(void);
ARM GAS  /tmp/ccTIydBQ.s 			page 7


 101:../libraries/Storage/sd_mmc.c **** 	bool (*start_write_blocks)(const void *src, uint16_t nb_block);
 102:../libraries/Storage/sd_mmc.c **** 	bool (*wait_end_of_write_blocks)(void);
 103:../libraries/Storage/sd_mmc.c **** #if 1	//dc42
 104:../libraries/Storage/sd_mmc.c **** 	uint32_t (*getInterfaceSpeed)(void);
 105:../libraries/Storage/sd_mmc.c **** #endif
 106:../libraries/Storage/sd_mmc.c **** 	driverIdleFunc_t (*set_idle_func)(driverIdleFunc_t);
 107:../libraries/Storage/sd_mmc.c **** 	bool is_spi;			// true if the interface is SPI, false if it is HSMCI
 108:../libraries/Storage/sd_mmc.c **** };
 109:../libraries/Storage/sd_mmc.c **** 
 110:../libraries/Storage/sd_mmc.c **** #if (SD_MMC_HSMCI_MEM_CNT != 0)
 111:../libraries/Storage/sd_mmc.c **** #  include "hsmci.h"
 112:../libraries/Storage/sd_mmc.c **** 
 113:../libraries/Storage/sd_mmc.c **** static const struct DriverInterface hsmciInterface = {
 114:../libraries/Storage/sd_mmc.c **** 	.select_device = hsmci_select_device,
 115:../libraries/Storage/sd_mmc.c **** 	.deselect_device = hsmci_deselect_device,
 116:../libraries/Storage/sd_mmc.c **** 	.get_bus_width = hsmci_get_bus_width,
 117:../libraries/Storage/sd_mmc.c **** 	.is_high_speed_capable = hsmci_is_high_speed_capable,
 118:../libraries/Storage/sd_mmc.c **** 	.send_clock = hsmci_send_clock,
 119:../libraries/Storage/sd_mmc.c **** 	.send_cmd = hsmci_send_cmd,
 120:../libraries/Storage/sd_mmc.c **** 	.get_response = hsmci_get_response,
 121:../libraries/Storage/sd_mmc.c **** 	.get_response_128 = hsmci_get_response_128,
 122:../libraries/Storage/sd_mmc.c **** 	.adtc_start = hsmci_adtc_start,
 123:../libraries/Storage/sd_mmc.c **** 	.adtc_stop = hsmci_send_cmd,			// adtc_stop aliased to send_cmd as in the ASF original
 124:../libraries/Storage/sd_mmc.c **** 	.read_word = hsmci_read_word,
 125:../libraries/Storage/sd_mmc.c **** 	.write_word = hsmci_write_word,
 126:../libraries/Storage/sd_mmc.c **** 	.start_read_blocks = hsmci_start_read_blocks,
 127:../libraries/Storage/sd_mmc.c **** 	.wait_end_of_read_blocks = hsmci_wait_end_of_read_blocks,
 128:../libraries/Storage/sd_mmc.c **** 	.start_write_blocks = hsmci_start_write_blocks,
 129:../libraries/Storage/sd_mmc.c **** 	.wait_end_of_write_blocks = hsmci_wait_end_of_write_blocks,
 130:../libraries/Storage/sd_mmc.c **** #if 1	//dc42
 131:../libraries/Storage/sd_mmc.c **** 	.getInterfaceSpeed = hsmci_get_speed,
 132:../libraries/Storage/sd_mmc.c **** #endif
 133:../libraries/Storage/sd_mmc.c **** 	.set_idle_func = hsmci_set_idle_func,
 134:../libraries/Storage/sd_mmc.c **** 	.is_spi = false
 135:../libraries/Storage/sd_mmc.c **** };
 136:../libraries/Storage/sd_mmc.c **** #endif
 137:../libraries/Storage/sd_mmc.c **** 
 138:../libraries/Storage/sd_mmc.c **** #if (SD_MMC_SPI_MEM_CNT != 0)
 139:../libraries/Storage/sd_mmc.c **** #  include "sd_mmc_spi.h"
 140:../libraries/Storage/sd_mmc.c **** 
 141:../libraries/Storage/sd_mmc.c **** static const struct DriverInterface spiInterface = {
 142:../libraries/Storage/sd_mmc.c **** 	.select_device = sd_mmc_spi_select_device,
 143:../libraries/Storage/sd_mmc.c **** 	.deselect_device = sd_mmc_spi_deselect_device,
 144:../libraries/Storage/sd_mmc.c **** 	.get_bus_width = sd_mmc_spi_get_bus_width,
 145:../libraries/Storage/sd_mmc.c **** 	.is_high_speed_capable = sd_mmc_spi_is_high_speed_capable,
 146:../libraries/Storage/sd_mmc.c **** 	.send_clock = sd_mmc_spi_send_clock,
 147:../libraries/Storage/sd_mmc.c **** 	.send_cmd = sd_mmc_spi_send_cmd,
 148:../libraries/Storage/sd_mmc.c **** 	.get_response = sd_mmc_spi_get_response,
 149:../libraries/Storage/sd_mmc.c **** 	.get_response_128 = sd_mmc_spi_get_response_128,
 150:../libraries/Storage/sd_mmc.c **** 	.adtc_start = sd_mmc_spi_adtc_start,
 151:../libraries/Storage/sd_mmc.c **** 	.adtc_stop = sd_mmc_spi_send_cmd,			// adtc_stop aliased to send_cmd as in the ASF original
 152:../libraries/Storage/sd_mmc.c **** 	.read_word = sd_mmc_spi_read_word,
 153:../libraries/Storage/sd_mmc.c **** 	.write_word = sd_mmc_spi_write_word,
 154:../libraries/Storage/sd_mmc.c **** 	.start_read_blocks = sd_mmc_spi_start_read_blocks,
 155:../libraries/Storage/sd_mmc.c **** 	.wait_end_of_read_blocks = sd_mmc_spi_wait_end_of_read_blocks,
 156:../libraries/Storage/sd_mmc.c **** 	.start_write_blocks = sd_mmc_spi_start_write_blocks,
 157:../libraries/Storage/sd_mmc.c **** 	.wait_end_of_write_blocks = sd_mmc_spi_wait_end_of_write_blocks,
ARM GAS  /tmp/ccTIydBQ.s 			page 8


 158:../libraries/Storage/sd_mmc.c **** #if 1	//dc42
 159:../libraries/Storage/sd_mmc.c **** 	.getInterfaceSpeed = spi_mmc_get_speed,
 160:../libraries/Storage/sd_mmc.c **** #endif
 161:../libraries/Storage/sd_mmc.c **** 	.set_idle_func = sd_mmc_spi_set_idle_func,
 162:../libraries/Storage/sd_mmc.c **** 	.is_spi = true
 163:../libraries/Storage/sd_mmc.c **** };
 164:../libraries/Storage/sd_mmc.c **** #endif
 165:../libraries/Storage/sd_mmc.c **** 
 166:../libraries/Storage/sd_mmc.c **** #ifdef SDIO_SUPPORT_ENABLE
 167:../libraries/Storage/sd_mmc.c **** #  define IS_SDIO()  (sd_mmc_card->type & CARD_TYPE_SDIO)
 168:../libraries/Storage/sd_mmc.c **** #else
 169:../libraries/Storage/sd_mmc.c **** #  define IS_SDIO()  false
 170:../libraries/Storage/sd_mmc.c **** #endif
 171:../libraries/Storage/sd_mmc.c **** 
 172:../libraries/Storage/sd_mmc.c **** //! This SD MMC stack supports only the high voltage
 173:../libraries/Storage/sd_mmc.c **** #define SD_MMC_VOLTAGE_SUPPORT \
 174:../libraries/Storage/sd_mmc.c **** 		(OCR_VDD_27_28 | OCR_VDD_28_29 | \
 175:../libraries/Storage/sd_mmc.c **** 		OCR_VDD_29_30 | OCR_VDD_30_31 | \
 176:../libraries/Storage/sd_mmc.c **** 		OCR_VDD_31_32 | OCR_VDD_32_33)
 177:../libraries/Storage/sd_mmc.c **** 
 178:../libraries/Storage/sd_mmc.c **** //! SD/MMC card states
 179:../libraries/Storage/sd_mmc.c **** enum card_state {
 180:../libraries/Storage/sd_mmc.c **** 	SD_MMC_CARD_STATE_READY    = 0, //!< Ready to use
 181:../libraries/Storage/sd_mmc.c **** 	SD_MMC_CARD_STATE_DEBOUNCE = 1, //!< Debounce ongoing
 182:../libraries/Storage/sd_mmc.c **** 	SD_MMC_CARD_STATE_INIT     = 2, //!< Initialization ongoing
 183:../libraries/Storage/sd_mmc.c **** 	SD_MMC_CARD_STATE_UNUSABLE = 3, //!< Unusable card
 184:../libraries/Storage/sd_mmc.c **** 	SD_MMC_CARD_STATE_NO_CARD  = 4, //!< No SD/MMC card inserted
 185:../libraries/Storage/sd_mmc.c **** };
 186:../libraries/Storage/sd_mmc.c **** 
 187:../libraries/Storage/sd_mmc.c **** //! SD/MMC card information structure
 188:../libraries/Storage/sd_mmc.c **** struct sd_mmc_card {
 189:../libraries/Storage/sd_mmc.c **** 	const struct DriverInterface const *iface;	// Pointer to driver interface functions
 190:../libraries/Storage/sd_mmc.c **** 	uint32_t clock;				//!< Card access clock
 191:../libraries/Storage/sd_mmc.c **** 	uint32_t capacity;			//!< Card capacity in KBytes
 192:../libraries/Storage/sd_mmc.c **** #if 0	// dc42
 193:../libraries/Storage/sd_mmc.c **** 	Pin cd_gpio;         		//!< Card detect pin number, or -1 if none present
 194:../libraries/Storage/sd_mmc.c **** #endif
 195:../libraries/Storage/sd_mmc.c **** 	Pin wp_gpio;				//!< Card write protection pin number, or -1 if none present
 196:../libraries/Storage/sd_mmc.c **** 	uint16_t rca;				//!< Relative card address
 197:../libraries/Storage/sd_mmc.c **** 	enum card_state state;		//!< Card state
 198:../libraries/Storage/sd_mmc.c **** 	card_type_t type;			//!< Card type
 199:../libraries/Storage/sd_mmc.c **** 	card_version_t version;		//!< Card version
 200:../libraries/Storage/sd_mmc.c **** 	uint8_t slot;				// Slot number within the driver
 201:../libraries/Storage/sd_mmc.c **** 	uint8_t bus_width;			//!< Number of DATA lines on bus (MCI only)
 202:../libraries/Storage/sd_mmc.c **** 	uint8_t csd[CSD_REG_BSIZE];	//!< CSD register
 203:../libraries/Storage/sd_mmc.c **** 	uint8_t high_speed;			//!< High speed card (1)
 204:../libraries/Storage/sd_mmc.c **** };
 205:../libraries/Storage/sd_mmc.c **** 
 206:../libraries/Storage/sd_mmc.c **** //! SD/MMC card list
 207:../libraries/Storage/sd_mmc.c **** static struct sd_mmc_card sd_mmc_cards[SD_MMC_MEM_CNT];
 208:../libraries/Storage/sd_mmc.c **** 
 209:../libraries/Storage/sd_mmc.c **** //! Index of current slot selected
 210:../libraries/Storage/sd_mmc.c **** static uint8_t sd_mmc_slot_sel;
 211:../libraries/Storage/sd_mmc.c **** //! Pointer on current slot selected
 212:../libraries/Storage/sd_mmc.c **** static struct sd_mmc_card *sd_mmc_card;
 213:../libraries/Storage/sd_mmc.c **** //! Number of block to read or write on the current transfer
 214:../libraries/Storage/sd_mmc.c **** static uint16_t sd_mmc_nb_block_to_tranfer = 0;
ARM GAS  /tmp/ccTIydBQ.s 			page 9


 215:../libraries/Storage/sd_mmc.c **** //! Number of block remaining to read or write on the current transfer
 216:../libraries/Storage/sd_mmc.c **** static uint16_t sd_mmc_nb_block_remaining = 0;
 217:../libraries/Storage/sd_mmc.c **** 
 218:../libraries/Storage/sd_mmc.c **** //! SD/MMC transfer rate unit codes (10K) list
 219:../libraries/Storage/sd_mmc.c **** const uint32_t sd_mmc_trans_units[7] = {
 220:../libraries/Storage/sd_mmc.c **** 	10, 100, 1000, 10000, 0, 0, 0
 221:../libraries/Storage/sd_mmc.c **** };
 222:../libraries/Storage/sd_mmc.c **** //! SD transfer multiplier factor codes (1/10) list
 223:../libraries/Storage/sd_mmc.c **** const uint32_t sd_trans_multipliers[16] = {
 224:../libraries/Storage/sd_mmc.c **** 	0, 10, 12, 13, 15, 20, 25, 30, 35, 40, 45, 50, 55, 60, 70, 80
 225:../libraries/Storage/sd_mmc.c **** };
 226:../libraries/Storage/sd_mmc.c **** //! MMC transfer multiplier factor codes (1/10) list
 227:../libraries/Storage/sd_mmc.c **** const uint32_t mmc_trans_multipliers[16] = {
 228:../libraries/Storage/sd_mmc.c **** 	0, 10, 12, 13, 15, 20, 26, 30, 35, 40, 45, 52, 55, 60, 70, 80
 229:../libraries/Storage/sd_mmc.c **** };
 230:../libraries/Storage/sd_mmc.c **** 
 231:../libraries/Storage/sd_mmc.c **** //! \name MMC, SD and SDIO commands process
 232:../libraries/Storage/sd_mmc.c **** //! @{
 233:../libraries/Storage/sd_mmc.c **** static bool mmc_spi_op_cond(void);
 234:../libraries/Storage/sd_mmc.c **** static bool mmc_mci_op_cond(void);
 235:../libraries/Storage/sd_mmc.c **** static bool sd_spi_op_cond(uint8_t v2);
 236:../libraries/Storage/sd_mmc.c **** static bool sd_mci_op_cond(uint8_t v2);
 237:../libraries/Storage/sd_mmc.c **** static bool sdio_op_cond(void);
 238:../libraries/Storage/sd_mmc.c **** static bool sdio_get_max_speed(void);
 239:../libraries/Storage/sd_mmc.c **** static bool sdio_cmd52_set_bus_width(void);
 240:../libraries/Storage/sd_mmc.c **** static bool sdio_cmd52_set_high_speed(void);
 241:../libraries/Storage/sd_mmc.c **** static bool sd_cm6_set_high_speed(void);
 242:../libraries/Storage/sd_mmc.c **** static bool mmc_cmd6_set_bus_width(uint8_t bus_width);
 243:../libraries/Storage/sd_mmc.c **** static bool mmc_cmd6_set_high_speed(void);
 244:../libraries/Storage/sd_mmc.c **** static bool sd_cmd8(uint8_t * v2);
 245:../libraries/Storage/sd_mmc.c **** static bool mmc_cmd8(uint8_t *b_authorize_high_speed);
 246:../libraries/Storage/sd_mmc.c **** static bool sd_mmc_cmd9_spi(void);
 247:../libraries/Storage/sd_mmc.c **** static bool sd_mmc_cmd9_mci(void);
 248:../libraries/Storage/sd_mmc.c **** static void mmc_decode_csd(void);
 249:../libraries/Storage/sd_mmc.c **** static void sd_decode_csd(void);
 250:../libraries/Storage/sd_mmc.c **** static bool sd_mmc_cmd13(void);
 251:../libraries/Storage/sd_mmc.c **** #ifdef SDIO_SUPPORT_ENABLE
 252:../libraries/Storage/sd_mmc.c **** static bool sdio_cmd52(uint8_t rw_flag, uint8_t func_nb,
 253:../libraries/Storage/sd_mmc.c **** 		uint32_t reg_addr, uint8_t rd_after_wr, uint8_t *io_data);
 254:../libraries/Storage/sd_mmc.c **** static bool sdio_cmd53(uint8_t rw_flag, uint8_t func_nb, uint32_t reg_addr,
 255:../libraries/Storage/sd_mmc.c **** 		uint8_t inc_addr, uint32_t size, bool access_block);
 256:../libraries/Storage/sd_mmc.c **** #endif // SDIO_SUPPORT_ENABLE
 257:../libraries/Storage/sd_mmc.c **** static bool sd_acmd6(void);
 258:../libraries/Storage/sd_mmc.c **** static bool sd_acmd51(void);
 259:../libraries/Storage/sd_mmc.c **** //! @}
 260:../libraries/Storage/sd_mmc.c **** 
 261:../libraries/Storage/sd_mmc.c **** //! \name Internal function to process the initialization and install
 262:../libraries/Storage/sd_mmc.c **** //! @{
 263:../libraries/Storage/sd_mmc.c **** static sd_mmc_err_t sd_mmc_select_slot(uint8_t slot);
 264:../libraries/Storage/sd_mmc.c **** static void sd_mmc_configure_slot(void);
 265:../libraries/Storage/sd_mmc.c **** static void sd_mmc_deselect_slot(void);
 266:../libraries/Storage/sd_mmc.c **** static bool sd_mmc_spi_card_init(void);
 267:../libraries/Storage/sd_mmc.c **** static bool sd_mmc_mci_card_init(void);
 268:../libraries/Storage/sd_mmc.c **** static bool sd_mmc_spi_install_mmc(void);
 269:../libraries/Storage/sd_mmc.c **** static bool sd_mmc_mci_install_mmc(void);
 270:../libraries/Storage/sd_mmc.c **** //! @}
 271:../libraries/Storage/sd_mmc.c **** 
ARM GAS  /tmp/ccTIydBQ.s 			page 10


 272:../libraries/Storage/sd_mmc.c **** 
 273:../libraries/Storage/sd_mmc.c **** //! \name Internal functions to manage a large timeout after a card insertion
 274:../libraries/Storage/sd_mmc.c **** //! @{
 275:../libraries/Storage/sd_mmc.c **** #define SD_MMC_DEBOUNCE_TIMEOUT   1000 // Unit ms
 276:../libraries/Storage/sd_mmc.c **** 
 277:../libraries/Storage/sd_mmc.c **** #if 1	//dc42
 278:../libraries/Storage/sd_mmc.c **** 
 279:../libraries/Storage/sd_mmc.c **** // The timeout functions are not needed for RepRapFirmware
 280:../libraries/Storage/sd_mmc.c **** 
 281:../libraries/Storage/sd_mmc.c **** #else
 282:../libraries/Storage/sd_mmc.c **** 
 283:../libraries/Storage/sd_mmc.c **** #if XMEGA || defined(REPRAPFIRMWARE)
 284:../libraries/Storage/sd_mmc.c **** #  define SD_MMC_START_TIMEOUT()  delay_ms(SD_MMC_DEBOUNCE_TIMEOUT)
 285:../libraries/Storage/sd_mmc.c **** #  define SD_MMC_IS_TIMEOUT()     true
 286:../libraries/Storage/sd_mmc.c **** #  define SD_MMC_STOP_TIMEOUT()
 287:../libraries/Storage/sd_mmc.c **** #endif
 288:../libraries/Storage/sd_mmc.c **** 
 289:../libraries/Storage/sd_mmc.c **** #if UC3
 290:../libraries/Storage/sd_mmc.c **** static  t_cpu_time timer;
 291:../libraries/Storage/sd_mmc.c **** #  define SD_MMC_START_TIMEOUT() \
 292:../libraries/Storage/sd_mmc.c **** 		cpu_set_timeout(cpu_ms_2_cy(SD_MMC_DEBOUNCE_TIMEOUT, sysclk_get_cpu_hz()), &timer)
 293:../libraries/Storage/sd_mmc.c **** #  define SD_MMC_IS_TIMEOUT() \
 294:../libraries/Storage/sd_mmc.c **** 		cpu_is_timeout(&timer)
 295:../libraries/Storage/sd_mmc.c **** #  define SD_MMC_STOP_TIMEOUT()
 296:../libraries/Storage/sd_mmc.c **** #endif
 297:../libraries/Storage/sd_mmc.c **** 
 298:../libraries/Storage/sd_mmc.c **** #if SAM && !defined(REPRAPFIRMWARE)
 299:../libraries/Storage/sd_mmc.c **** static bool sd_mmc_sam_systick_used;
 300:../libraries/Storage/sd_mmc.c **** #  ifdef FREERTOS_USED
 301:../libraries/Storage/sd_mmc.c **** 		static xTimeOutType xTimeOut;
 302:../libraries/Storage/sd_mmc.c **** #	endif
 303:../libraries/Storage/sd_mmc.c **** 
 304:../libraries/Storage/sd_mmc.c **** static inline void SD_MMC_START_TIMEOUT(void)
 305:../libraries/Storage/sd_mmc.c **** {
 306:../libraries/Storage/sd_mmc.c **** 	if (!SysTick->CTRL) {
 307:../libraries/Storage/sd_mmc.c **** 		sd_mmc_sam_systick_used = true;
 308:../libraries/Storage/sd_mmc.c **** 		SysTick->LOAD = (sysclk_get_cpu_hz() / (8 * 1000))
 309:../libraries/Storage/sd_mmc.c **** 				* SD_MMC_DEBOUNCE_TIMEOUT;
 310:../libraries/Storage/sd_mmc.c **** 		SysTick->CTRL = SysTick_CTRL_ENABLE_Msk;
 311:../libraries/Storage/sd_mmc.c **** 	} else {
 312:../libraries/Storage/sd_mmc.c **** 		sd_mmc_sam_systick_used = false;
 313:../libraries/Storage/sd_mmc.c **** #ifdef FREERTOS_USED
 314:../libraries/Storage/sd_mmc.c **** 		// Note: the define INCLUDE_vTaskDelay must be set to one
 315:../libraries/Storage/sd_mmc.c **** 		// in FreeRTOSConfig.h file.
 316:../libraries/Storage/sd_mmc.c **** 		vTaskSetTimeOutState(&xTimeOut);
 317:../libraries/Storage/sd_mmc.c **** #else
 318:../libraries/Storage/sd_mmc.c **** 		delay_ms(SD_MMC_DEBOUNCE_TIMEOUT);
 319:../libraries/Storage/sd_mmc.c **** #endif
 320:../libraries/Storage/sd_mmc.c **** 	}
 321:../libraries/Storage/sd_mmc.c **** }
 322:../libraries/Storage/sd_mmc.c **** 
 323:../libraries/Storage/sd_mmc.c **** static inline bool SD_MMC_IS_TIMEOUT(void)
 324:../libraries/Storage/sd_mmc.c **** {
 325:../libraries/Storage/sd_mmc.c **** 	if (!sd_mmc_sam_systick_used) {
 326:../libraries/Storage/sd_mmc.c **** #ifdef FREERTOS_USED
 327:../libraries/Storage/sd_mmc.c **** 		portTickType xTicksToWait =
 328:../libraries/Storage/sd_mmc.c **** 				SD_MMC_DEBOUNCE_TIMEOUT / portTICK_RATE_MS;
ARM GAS  /tmp/ccTIydBQ.s 			page 11


 329:../libraries/Storage/sd_mmc.c **** 		return (xTaskCheckForTimeOut( &xTimeOut, &xTicksToWait ) == pdTRUE);
 330:../libraries/Storage/sd_mmc.c **** #else
 331:../libraries/Storage/sd_mmc.c **** 		return true;
 332:../libraries/Storage/sd_mmc.c **** #endif
 333:../libraries/Storage/sd_mmc.c **** 	}
 334:../libraries/Storage/sd_mmc.c **** 	if (SysTick->CTRL & SysTick_CTRL_COUNTFLAG_Msk) {
 335:../libraries/Storage/sd_mmc.c **** 		SysTick->CTRL = 0;
 336:../libraries/Storage/sd_mmc.c **** 		return true;
 337:../libraries/Storage/sd_mmc.c **** 	}
 338:../libraries/Storage/sd_mmc.c **** 	return false;
 339:../libraries/Storage/sd_mmc.c **** }
 340:../libraries/Storage/sd_mmc.c **** 
 341:../libraries/Storage/sd_mmc.c **** static inline void SD_MMC_STOP_TIMEOUT(void)
 342:../libraries/Storage/sd_mmc.c **** {
 343:../libraries/Storage/sd_mmc.c **** 	if (sd_mmc_sam_systick_used) {
 344:../libraries/Storage/sd_mmc.c **** 		SysTick->CTRL = 0;
 345:../libraries/Storage/sd_mmc.c **** 	}
 346:../libraries/Storage/sd_mmc.c **** }
 347:../libraries/Storage/sd_mmc.c **** #endif	//SAM
 348:../libraries/Storage/sd_mmc.c **** 
 349:../libraries/Storage/sd_mmc.c **** #endif	// RepRapFirmware
 350:../libraries/Storage/sd_mmc.c **** //! @}
 351:../libraries/Storage/sd_mmc.c **** 
 352:../libraries/Storage/sd_mmc.c **** /**
 353:../libraries/Storage/sd_mmc.c ****  * \brief Sends operation condition command and read OCR (SPI only)
 354:../libraries/Storage/sd_mmc.c ****  * - CMD1 sends operation condition command
 355:../libraries/Storage/sd_mmc.c ****  * - CMD58 reads OCR
 356:../libraries/Storage/sd_mmc.c ****  *
 357:../libraries/Storage/sd_mmc.c ****  * \return true if success, otherwise false
 358:../libraries/Storage/sd_mmc.c ****  */
 359:../libraries/Storage/sd_mmc.c **** static bool mmc_spi_op_cond(void)
 360:../libraries/Storage/sd_mmc.c **** {
 361:../libraries/Storage/sd_mmc.c **** 	uint32_t retry, resp;
 362:../libraries/Storage/sd_mmc.c **** 
 363:../libraries/Storage/sd_mmc.c **** 	/*
 364:../libraries/Storage/sd_mmc.c **** 	 * Timeout 1s = 400KHz / ((6+1)*8) cylces = 7150 retry
 365:../libraries/Storage/sd_mmc.c **** 	 * 6 = cmd byte size
 366:../libraries/Storage/sd_mmc.c **** 	 * 1 = response byte size
 367:../libraries/Storage/sd_mmc.c **** 	 */
 368:../libraries/Storage/sd_mmc.c **** 	retry = 7150;
 369:../libraries/Storage/sd_mmc.c **** 	do {
 370:../libraries/Storage/sd_mmc.c **** 		if (!sd_mmc_card->iface->send_cmd(MMC_SPI_CMD1_SEND_OP_COND, 0)) {
 371:../libraries/Storage/sd_mmc.c **** 			sd_mmc_debug("%s: CMD1 SPI Fail - Busy retry %d\n\r",
 372:../libraries/Storage/sd_mmc.c **** 					__func__, (int)(7150 - retry));
 373:../libraries/Storage/sd_mmc.c **** 			return false;
 374:../libraries/Storage/sd_mmc.c **** 		}
 375:../libraries/Storage/sd_mmc.c **** 		// Check busy flag
 376:../libraries/Storage/sd_mmc.c **** 		resp = sd_mmc_card->iface->get_response();
 377:../libraries/Storage/sd_mmc.c **** 		if (!(resp & R1_SPI_IDLE)) {
 378:../libraries/Storage/sd_mmc.c **** 			break;
 379:../libraries/Storage/sd_mmc.c **** 		}
 380:../libraries/Storage/sd_mmc.c **** 		if (retry-- == 0) {
 381:../libraries/Storage/sd_mmc.c **** 			sd_mmc_debug("%s: CMD1 Timeout on busy\n\r", __func__);
 382:../libraries/Storage/sd_mmc.c **** 			return false;
 383:../libraries/Storage/sd_mmc.c **** 		}
 384:../libraries/Storage/sd_mmc.c **** 	} while (1);
 385:../libraries/Storage/sd_mmc.c **** 
ARM GAS  /tmp/ccTIydBQ.s 			page 12


 386:../libraries/Storage/sd_mmc.c **** 	// Read OCR for SPI mode
 387:../libraries/Storage/sd_mmc.c **** 	if (!sd_mmc_card->iface->send_cmd(SDMMC_SPI_CMD58_READ_OCR, 0)) {
 388:../libraries/Storage/sd_mmc.c **** 		sd_mmc_debug("%s: CMD58 Fail\n\r", __func__);
 389:../libraries/Storage/sd_mmc.c **** 		return false;
 390:../libraries/Storage/sd_mmc.c **** 	}
 391:../libraries/Storage/sd_mmc.c **** 	// Check OCR value
 392:../libraries/Storage/sd_mmc.c **** 	if ((sd_mmc_card->iface->get_response() & OCR_ACCESS_MODE_MASK)
 393:../libraries/Storage/sd_mmc.c **** 			== OCR_ACCESS_MODE_SECTOR) {
 394:../libraries/Storage/sd_mmc.c **** 		sd_mmc_card->type |= CARD_TYPE_HC;
 395:../libraries/Storage/sd_mmc.c **** 	}
 396:../libraries/Storage/sd_mmc.c **** 	return true;
 397:../libraries/Storage/sd_mmc.c **** }
 398:../libraries/Storage/sd_mmc.c **** 
 399:../libraries/Storage/sd_mmc.c **** /**
 400:../libraries/Storage/sd_mmc.c ****  * \brief Sends operation condition command and read OCR (MCI only)
 401:../libraries/Storage/sd_mmc.c ****  * - CMD1 sends operation condition command
 402:../libraries/Storage/sd_mmc.c ****  * - CMD1 reads OCR
 403:../libraries/Storage/sd_mmc.c ****  *
 404:../libraries/Storage/sd_mmc.c ****  * \return true if success, otherwise false
 405:../libraries/Storage/sd_mmc.c ****  */
 406:../libraries/Storage/sd_mmc.c **** static bool mmc_mci_op_cond(void)
 407:../libraries/Storage/sd_mmc.c **** {
 408:../libraries/Storage/sd_mmc.c **** 	uint32_t retry, resp;
 409:../libraries/Storage/sd_mmc.c **** 
 410:../libraries/Storage/sd_mmc.c **** 	/*
 411:../libraries/Storage/sd_mmc.c **** 	 * Timeout 1s = 400KHz / ((6+6)*8) cylces = 4200 retry
 412:../libraries/Storage/sd_mmc.c **** 	 * 6 = cmd byte size
 413:../libraries/Storage/sd_mmc.c **** 	 * 6 = response byte size
 414:../libraries/Storage/sd_mmc.c **** 	 */
 415:../libraries/Storage/sd_mmc.c **** 	retry = 4200;
 416:../libraries/Storage/sd_mmc.c **** 	do {
 417:../libraries/Storage/sd_mmc.c **** 		if (!sd_mmc_card->iface->send_cmd(MMC_MCI_CMD1_SEND_OP_COND,
 418:../libraries/Storage/sd_mmc.c **** 				SD_MMC_VOLTAGE_SUPPORT | OCR_ACCESS_MODE_SECTOR)) {
 419:../libraries/Storage/sd_mmc.c **** 			sd_mmc_debug("%s: CMD1 MCI Fail - Busy retry %d\n\r",
 420:../libraries/Storage/sd_mmc.c **** 					__func__, (int)(4200 - retry));
 421:../libraries/Storage/sd_mmc.c **** 			return false;
 422:../libraries/Storage/sd_mmc.c **** 		}
 423:../libraries/Storage/sd_mmc.c **** 		// Check busy flag
 424:../libraries/Storage/sd_mmc.c **** 		resp = sd_mmc_card->iface->get_response();
 425:../libraries/Storage/sd_mmc.c **** 		if (resp & OCR_POWER_UP_BUSY) {
 426:../libraries/Storage/sd_mmc.c **** 			// Check OCR value
 427:../libraries/Storage/sd_mmc.c **** 			if ((resp & OCR_ACCESS_MODE_MASK)
 428:../libraries/Storage/sd_mmc.c **** 					== OCR_ACCESS_MODE_SECTOR) {
 429:../libraries/Storage/sd_mmc.c **** 				sd_mmc_card->type |= CARD_TYPE_HC;
 430:../libraries/Storage/sd_mmc.c **** 			}
 431:../libraries/Storage/sd_mmc.c **** 			break;
 432:../libraries/Storage/sd_mmc.c **** 		}
 433:../libraries/Storage/sd_mmc.c **** 		if (retry-- == 0) {
 434:../libraries/Storage/sd_mmc.c **** 			sd_mmc_debug("%s: CMD1 Timeout on busy\n\r", __func__);
 435:../libraries/Storage/sd_mmc.c **** 			return false;
 436:../libraries/Storage/sd_mmc.c **** 		}
 437:../libraries/Storage/sd_mmc.c **** 	} while (1);
 438:../libraries/Storage/sd_mmc.c **** 	return true;
 439:../libraries/Storage/sd_mmc.c **** }
 440:../libraries/Storage/sd_mmc.c **** 
 441:../libraries/Storage/sd_mmc.c **** /**
 442:../libraries/Storage/sd_mmc.c ****  * \brief Ask to all cards to send their operations conditions (SPI only).
ARM GAS  /tmp/ccTIydBQ.s 			page 13


 443:../libraries/Storage/sd_mmc.c ****  * - ACMD41 sends operation condition command.
 444:../libraries/Storage/sd_mmc.c ****  * - CMD58 reads OCR
 445:../libraries/Storage/sd_mmc.c ****  *
 446:../libraries/Storage/sd_mmc.c ****  * \param v2   Shall be 1 if it is a SD card V2
 447:../libraries/Storage/sd_mmc.c ****  *
 448:../libraries/Storage/sd_mmc.c ****  * \return true if success, otherwise false
 449:../libraries/Storage/sd_mmc.c ****  */
 450:../libraries/Storage/sd_mmc.c **** static bool sd_spi_op_cond(uint8_t v2)
 451:../libraries/Storage/sd_mmc.c **** {
 452:../libraries/Storage/sd_mmc.c **** 	uint32_t arg, retry, resp;
 453:../libraries/Storage/sd_mmc.c **** 
 454:../libraries/Storage/sd_mmc.c **** 	/*
 455:../libraries/Storage/sd_mmc.c **** 	 * Timeout 1s = 400KHz / ((6+1)*8) cylces = 7150 retry
 456:../libraries/Storage/sd_mmc.c **** 	 * 6 = cmd byte size
 457:../libraries/Storage/sd_mmc.c **** 	 * 1 = response byte size
 458:../libraries/Storage/sd_mmc.c **** 	 */
 459:../libraries/Storage/sd_mmc.c **** 	retry = 7150;
 460:../libraries/Storage/sd_mmc.c **** 	do {
 461:../libraries/Storage/sd_mmc.c **** 		// CMD55 - Indicate to the card that the next command is an
 462:../libraries/Storage/sd_mmc.c **** 		// application specific command rather than a standard command.
 463:../libraries/Storage/sd_mmc.c **** 		if (!sd_mmc_card->iface->send_cmd(SDMMC_CMD55_APP_CMD, 0)) {
 464:../libraries/Storage/sd_mmc.c **** 			sd_mmc_debug("%s: CMD55 Fail\n\r", __func__);
 465:../libraries/Storage/sd_mmc.c **** 			return false;
 466:../libraries/Storage/sd_mmc.c **** 		}
 467:../libraries/Storage/sd_mmc.c **** 
 468:../libraries/Storage/sd_mmc.c **** 		// (ACMD41) Sends host OCR register
 469:../libraries/Storage/sd_mmc.c **** 		arg = 0;
 470:../libraries/Storage/sd_mmc.c **** 		if (v2) {
 471:../libraries/Storage/sd_mmc.c **** 			arg |= SD_ACMD41_HCS;
 472:../libraries/Storage/sd_mmc.c **** 		}
 473:../libraries/Storage/sd_mmc.c **** 		// Check response
 474:../libraries/Storage/sd_mmc.c **** 		if (!sd_mmc_card->iface->send_cmd(SD_SPI_ACMD41_SD_SEND_OP_COND, arg)) {
 475:../libraries/Storage/sd_mmc.c **** 			sd_mmc_debug("%s: ACMD41 Fail\n\r", __func__);
 476:../libraries/Storage/sd_mmc.c **** 			return false;
 477:../libraries/Storage/sd_mmc.c **** 		}
 478:../libraries/Storage/sd_mmc.c **** 		resp = sd_mmc_card->iface->get_response();
 479:../libraries/Storage/sd_mmc.c **** 		if (!(resp & R1_SPI_IDLE)) {
 480:../libraries/Storage/sd_mmc.c **** 			// Card is ready
 481:../libraries/Storage/sd_mmc.c **** 			break;
 482:../libraries/Storage/sd_mmc.c **** 		}
 483:../libraries/Storage/sd_mmc.c **** 		if (retry-- == 0) {
 484:../libraries/Storage/sd_mmc.c **** 			sd_mmc_debug("%s: ACMD41 Timeout on busy, resp32 0x%08x \n\r",
 485:../libraries/Storage/sd_mmc.c **** 					__func__, resp);
 486:../libraries/Storage/sd_mmc.c **** 			return false;
 487:../libraries/Storage/sd_mmc.c **** 		}
 488:../libraries/Storage/sd_mmc.c **** 	} while (1);
 489:../libraries/Storage/sd_mmc.c **** 
 490:../libraries/Storage/sd_mmc.c **** 	// Read OCR for SPI mode
 491:../libraries/Storage/sd_mmc.c **** 	if (!sd_mmc_card->iface->send_cmd(SDMMC_SPI_CMD58_READ_OCR, 0)) {
 492:../libraries/Storage/sd_mmc.c **** 		sd_mmc_debug("%s: CMD58 Fail\n\r", __func__);
 493:../libraries/Storage/sd_mmc.c **** 		return false;
 494:../libraries/Storage/sd_mmc.c **** 	}
 495:../libraries/Storage/sd_mmc.c **** 	if ((sd_mmc_card->iface->get_response() & OCR_CCS) != 0) {
 496:../libraries/Storage/sd_mmc.c **** 		sd_mmc_card->type |= CARD_TYPE_HC;
 497:../libraries/Storage/sd_mmc.c **** 	}
 498:../libraries/Storage/sd_mmc.c **** 	return true;
 499:../libraries/Storage/sd_mmc.c **** }
ARM GAS  /tmp/ccTIydBQ.s 			page 14


 500:../libraries/Storage/sd_mmc.c **** 
 501:../libraries/Storage/sd_mmc.c **** /**
 502:../libraries/Storage/sd_mmc.c ****  * \brief Ask to all cards to send their operations conditions (MCI only).
 503:../libraries/Storage/sd_mmc.c ****  * - ACMD41 sends operation condition command.
 504:../libraries/Storage/sd_mmc.c ****  * - ACMD41 reads OCR
 505:../libraries/Storage/sd_mmc.c ****  *
 506:../libraries/Storage/sd_mmc.c ****  * \param v2   Shall be 1 if it is a SD card V2
 507:../libraries/Storage/sd_mmc.c ****  *
 508:../libraries/Storage/sd_mmc.c ****  * \return true if success, otherwise false
 509:../libraries/Storage/sd_mmc.c ****  */
 510:../libraries/Storage/sd_mmc.c **** static bool sd_mci_op_cond(uint8_t v2)
 511:../libraries/Storage/sd_mmc.c **** {
 512:../libraries/Storage/sd_mmc.c **** 	uint32_t arg, retry, resp;
 513:../libraries/Storage/sd_mmc.c **** 
 514:../libraries/Storage/sd_mmc.c **** 	/*
 515:../libraries/Storage/sd_mmc.c **** 	 * Timeout 1s = 400KHz / ((6+6+6+6)*8) cylces = 2100 retry
 516:../libraries/Storage/sd_mmc.c **** 	 * 6 = cmd byte size
 517:../libraries/Storage/sd_mmc.c **** 	 * 6 = response byte size
 518:../libraries/Storage/sd_mmc.c **** 	 * 6 = cmd byte size
 519:../libraries/Storage/sd_mmc.c **** 	 * 6 = response byte size
 520:../libraries/Storage/sd_mmc.c **** 	 */
 521:../libraries/Storage/sd_mmc.c **** 	retry = 2100;
 522:../libraries/Storage/sd_mmc.c **** 	do {
 523:../libraries/Storage/sd_mmc.c **** 		// CMD55 - Indicate to the card that the next command is an
 524:../libraries/Storage/sd_mmc.c **** 		// application specific command rather than a standard command.
 525:../libraries/Storage/sd_mmc.c **** 		if (!sd_mmc_card->iface->send_cmd(SDMMC_CMD55_APP_CMD, 0)) {
 526:../libraries/Storage/sd_mmc.c **** 			sd_mmc_debug("%s: CMD55 Fail\n\r", __func__);
 527:../libraries/Storage/sd_mmc.c **** 			return false;
 528:../libraries/Storage/sd_mmc.c **** 		}
 529:../libraries/Storage/sd_mmc.c **** 
 530:../libraries/Storage/sd_mmc.c **** 		// (ACMD41) Sends host OCR register
 531:../libraries/Storage/sd_mmc.c **** 		arg = SD_MMC_VOLTAGE_SUPPORT;
 532:../libraries/Storage/sd_mmc.c **** 		if (v2) {
 533:../libraries/Storage/sd_mmc.c **** 			arg |= SD_ACMD41_HCS;
 534:../libraries/Storage/sd_mmc.c **** 		}
 535:../libraries/Storage/sd_mmc.c **** 		// Check response
 536:../libraries/Storage/sd_mmc.c **** 		if (!sd_mmc_card->iface->send_cmd(SD_MCI_ACMD41_SD_SEND_OP_COND, arg)) {
 537:../libraries/Storage/sd_mmc.c **** 			sd_mmc_debug("%s: ACMD41 Fail\n\r", __func__);
 538:../libraries/Storage/sd_mmc.c **** 			return false;
 539:../libraries/Storage/sd_mmc.c **** 		}
 540:../libraries/Storage/sd_mmc.c **** 		resp = sd_mmc_card->iface->get_response();
 541:../libraries/Storage/sd_mmc.c **** 		if (resp & OCR_POWER_UP_BUSY) {
 542:../libraries/Storage/sd_mmc.c **** 			// Card is ready
 543:../libraries/Storage/sd_mmc.c **** 			if ((resp & OCR_CCS) != 0) {
 544:../libraries/Storage/sd_mmc.c **** 				sd_mmc_card->type |= CARD_TYPE_HC;
 545:../libraries/Storage/sd_mmc.c **** 			}
 546:../libraries/Storage/sd_mmc.c **** 			break;
 547:../libraries/Storage/sd_mmc.c **** 		}
 548:../libraries/Storage/sd_mmc.c **** 		if (retry-- == 0) {
 549:../libraries/Storage/sd_mmc.c **** 			sd_mmc_debug("%s: ACMD41 Timeout on busy, resp32 0x%08x \n\r",
 550:../libraries/Storage/sd_mmc.c **** 					__func__, resp);
 551:../libraries/Storage/sd_mmc.c **** 			return false;
 552:../libraries/Storage/sd_mmc.c **** 		}
 553:../libraries/Storage/sd_mmc.c **** 	} while (1);
 554:../libraries/Storage/sd_mmc.c **** 	return true;
 555:../libraries/Storage/sd_mmc.c **** }
 556:../libraries/Storage/sd_mmc.c **** 
ARM GAS  /tmp/ccTIydBQ.s 			page 15


 557:../libraries/Storage/sd_mmc.c **** #ifdef SDIO_SUPPORT_ENABLE
 558:../libraries/Storage/sd_mmc.c **** /**
 559:../libraries/Storage/sd_mmc.c ****  * \brief Try to get the SDIO card's operating condition
 560:../libraries/Storage/sd_mmc.c ****  * - CMD5 to read OCR NF field
 561:../libraries/Storage/sd_mmc.c ****  * - CMD5 to wait OCR power up busy
 562:../libraries/Storage/sd_mmc.c ****  * - CMD5 to read OCR MP field
 563:../libraries/Storage/sd_mmc.c ****  *   sd_mmc_card->type is updated
 564:../libraries/Storage/sd_mmc.c ****  *
 565:../libraries/Storage/sd_mmc.c ****  * \return true if success, otherwise false
 566:../libraries/Storage/sd_mmc.c ****  */
 567:../libraries/Storage/sd_mmc.c **** static bool sdio_op_cond(void)
 568:../libraries/Storage/sd_mmc.c **** {
 569:../libraries/Storage/sd_mmc.c **** 	uint32_t resp;
 570:../libraries/Storage/sd_mmc.c **** 
 571:../libraries/Storage/sd_mmc.c **** 	// CMD5 - SDIO send operation condition (OCR) command.
 572:../libraries/Storage/sd_mmc.c **** 	if (!sd_mmc_card->iface->send_cmd(SDIO_CMD5_SEND_OP_COND, 0)) {
 573:../libraries/Storage/sd_mmc.c **** 		sd_mmc_debug("%s: CMD5 Fail\n\r", __func__);
 574:../libraries/Storage/sd_mmc.c **** 		return true; // No error but card type not updated
 575:../libraries/Storage/sd_mmc.c **** 	}
 576:../libraries/Storage/sd_mmc.c **** 	resp = sd_mmc_card->iface->get_response();
 577:../libraries/Storage/sd_mmc.c **** 	if ((resp & OCR_SDIO_NF) == 0) {
 578:../libraries/Storage/sd_mmc.c **** 		return true; // No error but card type not updated
 579:../libraries/Storage/sd_mmc.c **** 	}
 580:../libraries/Storage/sd_mmc.c **** 
 581:../libraries/Storage/sd_mmc.c **** 	/*
 582:../libraries/Storage/sd_mmc.c **** 	 * Wait card ready
 583:../libraries/Storage/sd_mmc.c **** 	 * Timeout 1s = 400KHz / ((6+4)*8) cylces = 5000 retry
 584:../libraries/Storage/sd_mmc.c **** 	 * 6 = cmd byte size
 585:../libraries/Storage/sd_mmc.c **** 	 * 4(SPI) 6(MCI) = response byte size
 586:../libraries/Storage/sd_mmc.c **** 	 */
 587:../libraries/Storage/sd_mmc.c **** 	uint32_t cmd5_retry = 5000;
 588:../libraries/Storage/sd_mmc.c **** 	while (1) {
 589:../libraries/Storage/sd_mmc.c **** 		// CMD5 - SDIO send operation condition (OCR) command.
 590:../libraries/Storage/sd_mmc.c **** 		if (!sd_mmc_card->iface->send_cmd(SDIO_CMD5_SEND_OP_COND,
 591:../libraries/Storage/sd_mmc.c **** 				resp & SD_MMC_VOLTAGE_SUPPORT)) {
 592:../libraries/Storage/sd_mmc.c **** 			sd_mmc_debug("%s: CMD5 Fail\n\r", __func__);
 593:../libraries/Storage/sd_mmc.c **** 			return false;
 594:../libraries/Storage/sd_mmc.c **** 		}
 595:../libraries/Storage/sd_mmc.c **** 		resp = sd_mmc_card->iface->get_response();
 596:../libraries/Storage/sd_mmc.c **** 		if ((resp & OCR_POWER_UP_BUSY) == OCR_POWER_UP_BUSY) {
 597:../libraries/Storage/sd_mmc.c **** 			break;
 598:../libraries/Storage/sd_mmc.c **** 		}
 599:../libraries/Storage/sd_mmc.c **** 		if (cmd5_retry-- == 0) {
 600:../libraries/Storage/sd_mmc.c **** 			sd_mmc_debug("%s: CMD5 Timeout on busy\n\r", __func__);
 601:../libraries/Storage/sd_mmc.c **** 			return false;
 602:../libraries/Storage/sd_mmc.c **** 		}
 603:../libraries/Storage/sd_mmc.c **** 	}
 604:../libraries/Storage/sd_mmc.c **** 	// Update card type at the end of busy
 605:../libraries/Storage/sd_mmc.c **** 	if ((resp & OCR_SDIO_MP) > 0) {
 606:../libraries/Storage/sd_mmc.c **** 		sd_mmc_card->type = CARD_TYPE_SD_COMBO;
 607:../libraries/Storage/sd_mmc.c **** 	} else {
 608:../libraries/Storage/sd_mmc.c **** 		sd_mmc_card->type = CARD_TYPE_SDIO;
 609:../libraries/Storage/sd_mmc.c **** 	}
 610:../libraries/Storage/sd_mmc.c **** 	return true; // No error and card type updated with SDIO type
 611:../libraries/Storage/sd_mmc.c **** }
 612:../libraries/Storage/sd_mmc.c **** 
 613:../libraries/Storage/sd_mmc.c **** /**
ARM GAS  /tmp/ccTIydBQ.s 			page 16


 614:../libraries/Storage/sd_mmc.c ****  * \brief Get SDIO max transfer speed in Hz.
 615:../libraries/Storage/sd_mmc.c ****  * - CMD53 reads CIS area address in CCCR area.
 616:../libraries/Storage/sd_mmc.c ****  * - Nx CMD53 search Fun0 tuple in CIS area
 617:../libraries/Storage/sd_mmc.c ****  * - CMD53 reads TPLFE_MAX_TRAN_SPEED in Fun0 tuple
 618:../libraries/Storage/sd_mmc.c ****  * - Compute maximum speed of SDIO
 619:../libraries/Storage/sd_mmc.c ****  *   and update sd_mmc_card->clock
 620:../libraries/Storage/sd_mmc.c ****  *
 621:../libraries/Storage/sd_mmc.c ****  * \return true if success, otherwise false
 622:../libraries/Storage/sd_mmc.c ****  */
 623:../libraries/Storage/sd_mmc.c **** static bool sdio_get_max_speed(void)
 624:../libraries/Storage/sd_mmc.c **** {
 625:../libraries/Storage/sd_mmc.c **** 	uint32_t addr, addr_cis;
 626:../libraries/Storage/sd_mmc.c **** 	uint8_t buf[6];
 627:../libraries/Storage/sd_mmc.c ****  	uint32_t unit;
 628:../libraries/Storage/sd_mmc.c **** 	uint32_t mul;
 629:../libraries/Storage/sd_mmc.c **** 	uint8_t tplfe_max_tran_speed;
 630:../libraries/Storage/sd_mmc.c **** 
 631:../libraries/Storage/sd_mmc.c **** 	// Read CIS area address in CCCR area
 632:../libraries/Storage/sd_mmc.c **** 	addr_cis = 0; // Init all bytes, because the next function fill 3 bytes only
 633:../libraries/Storage/sd_mmc.c **** 	if (!sdio_cmd53(SDIO_CMD53_READ_FLAG, SDIO_CIA, SDIO_CCCR_CIS_PTR, 1, 3, true)) {
 634:../libraries/Storage/sd_mmc.c **** 		sd_mmc_debug("%s: CMD53 Read CIS Fail\n\r", __func__);
 635:../libraries/Storage/sd_mmc.c **** 		return false;
 636:../libraries/Storage/sd_mmc.c **** 	}
 637:../libraries/Storage/sd_mmc.c **** 	if (!sd_mmc_card->iface->start_read_blocks((uint8_t *)&addr_cis, 1)) {
 638:../libraries/Storage/sd_mmc.c **** 		return false;
 639:../libraries/Storage/sd_mmc.c **** 	}
 640:../libraries/Storage/sd_mmc.c **** 	if (!sd_mmc_card->iface->wait_end_of_read_blocks()) {
 641:../libraries/Storage/sd_mmc.c **** 		return false;
 642:../libraries/Storage/sd_mmc.c **** 	}
 643:../libraries/Storage/sd_mmc.c **** 	addr_cis = le32_to_cpu(addr_cis);
 644:../libraries/Storage/sd_mmc.c **** 
 645:../libraries/Storage/sd_mmc.c **** 	// Search Fun0 tuple in the CIA area
 646:../libraries/Storage/sd_mmc.c **** 	addr = addr_cis;
 647:../libraries/Storage/sd_mmc.c **** 	while (1) {
 648:../libraries/Storage/sd_mmc.c **** 		// Read a sample of CIA area
 649:../libraries/Storage/sd_mmc.c **** 		if (!sdio_cmd53(SDIO_CMD53_READ_FLAG, SDIO_CIA, addr, 1, 3, true)) {
 650:../libraries/Storage/sd_mmc.c **** 			sd_mmc_debug("%s: CMD53 Read CIA Fail\n\r", __func__);
 651:../libraries/Storage/sd_mmc.c **** 			return false;
 652:../libraries/Storage/sd_mmc.c **** 		}
 653:../libraries/Storage/sd_mmc.c **** 		if (!sd_mmc_card->iface->start_read_blocks(buf, 1)) {
 654:../libraries/Storage/sd_mmc.c **** 			return false;
 655:../libraries/Storage/sd_mmc.c **** 		}
 656:../libraries/Storage/sd_mmc.c **** 		if (!sd_mmc_card->iface->wait_end_of_read_blocks()) {
 657:../libraries/Storage/sd_mmc.c **** 			return false;
 658:../libraries/Storage/sd_mmc.c **** 		}
 659:../libraries/Storage/sd_mmc.c **** 		if (buf[0] == SDIO_CISTPL_END) {
 660:../libraries/Storage/sd_mmc.c **** 			sd_mmc_debug("%s: CMD53 Tuple error\n\r", __func__);
 661:../libraries/Storage/sd_mmc.c **** 			return false; // Tuple error
 662:../libraries/Storage/sd_mmc.c **** 		}
 663:../libraries/Storage/sd_mmc.c **** 		if (buf[0] == SDIO_CISTPL_FUNCE && buf[2] == 0x00) {
 664:../libraries/Storage/sd_mmc.c **** 			break; // Fun0 tuple found
 665:../libraries/Storage/sd_mmc.c **** 		}
 666:../libraries/Storage/sd_mmc.c **** 		if (buf[1] == 0) {
 667:../libraries/Storage/sd_mmc.c **** 			sd_mmc_debug("%s: CMD53 Tuple error\n\r", __func__);
 668:../libraries/Storage/sd_mmc.c **** 			return false; // Tuple error
 669:../libraries/Storage/sd_mmc.c **** 		}
 670:../libraries/Storage/sd_mmc.c **** 
ARM GAS  /tmp/ccTIydBQ.s 			page 17


 671:../libraries/Storage/sd_mmc.c **** 		// Next address
 672:../libraries/Storage/sd_mmc.c **** 		addr += (buf[1] + 2);
 673:../libraries/Storage/sd_mmc.c **** 		if (addr > (addr_cis + 256)) {
 674:../libraries/Storage/sd_mmc.c **** 			sd_mmc_debug("%s: CMD53 Outoff CIS area\n\r", __func__);
 675:../libraries/Storage/sd_mmc.c **** 			return false; // Outoff CIS area
 676:../libraries/Storage/sd_mmc.c **** 		}
 677:../libraries/Storage/sd_mmc.c **** 	}
 678:../libraries/Storage/sd_mmc.c **** 
 679:../libraries/Storage/sd_mmc.c **** 	// Read all Fun0 tuple fields: fn0_blk_siz & max_tran_speed
 680:../libraries/Storage/sd_mmc.c **** 	if (!sdio_cmd53(SDIO_CMD53_READ_FLAG, SDIO_CIA, addr, 1, 6, true)) {
 681:../libraries/Storage/sd_mmc.c **** 		sd_mmc_debug("%s: CMD53 Read all Fun0 Fail\n\r", __func__);
 682:../libraries/Storage/sd_mmc.c **** 		return false;
 683:../libraries/Storage/sd_mmc.c **** 	}
 684:../libraries/Storage/sd_mmc.c **** 	if (!sd_mmc_card->iface->start_read_blocks(buf, 1)) {
 685:../libraries/Storage/sd_mmc.c **** 		return false;
 686:../libraries/Storage/sd_mmc.c **** 	}
 687:../libraries/Storage/sd_mmc.c **** 	if (!sd_mmc_card->iface->wait_end_of_read_blocks()) {
 688:../libraries/Storage/sd_mmc.c **** 		return false;
 689:../libraries/Storage/sd_mmc.c **** 	}
 690:../libraries/Storage/sd_mmc.c **** 	tplfe_max_tran_speed = buf[5];
 691:../libraries/Storage/sd_mmc.c **** 	if (tplfe_max_tran_speed > 0x32) {
 692:../libraries/Storage/sd_mmc.c **** 		/* Error on SDIO register, the high speed is not activated
 693:../libraries/Storage/sd_mmc.c **** 		 * and the clock can not be more than 25MHz.
 694:../libraries/Storage/sd_mmc.c **** 		 * This error is present on specific SDIO card
 695:../libraries/Storage/sd_mmc.c **** 		 * (H&D wireless card - HDG104 WiFi SIP).
 696:../libraries/Storage/sd_mmc.c **** 		 */
 697:../libraries/Storage/sd_mmc.c **** 		tplfe_max_tran_speed = 0x32; // 25Mhz
 698:../libraries/Storage/sd_mmc.c **** 	}
 699:../libraries/Storage/sd_mmc.c **** 
 700:../libraries/Storage/sd_mmc.c **** 	// Decode transfer speed in Hz.
 701:../libraries/Storage/sd_mmc.c **** 	unit = sd_mmc_trans_units[tplfe_max_tran_speed & 0x7];
 702:../libraries/Storage/sd_mmc.c **** 	mul = sd_trans_multipliers[(tplfe_max_tran_speed >> 3) & 0xF];
 703:../libraries/Storage/sd_mmc.c **** 	sd_mmc_card->clock = unit * mul * 1000;
 704:../libraries/Storage/sd_mmc.c **** 	/**
 705:../libraries/Storage/sd_mmc.c **** 	 * Note: A combo card shall be a Full-Speed SDIO card
 706:../libraries/Storage/sd_mmc.c **** 	 * which supports upto 25MHz.
 707:../libraries/Storage/sd_mmc.c **** 	 * A SDIO card alone can be:
 708:../libraries/Storage/sd_mmc.c **** 	 * - a Low-Speed SDIO card which supports 400Khz minimum
 709:../libraries/Storage/sd_mmc.c **** 	 * - a Full-Speed SDIO card which supports upto 25MHz
 710:../libraries/Storage/sd_mmc.c **** 	 */
 711:../libraries/Storage/sd_mmc.c **** 	return true;
 712:../libraries/Storage/sd_mmc.c **** }
 713:../libraries/Storage/sd_mmc.c **** 
 714:../libraries/Storage/sd_mmc.c **** /**
 715:../libraries/Storage/sd_mmc.c ****  * \brief CMD52 for SDIO - Switches the bus width mode to 4
 716:../libraries/Storage/sd_mmc.c ****  *
 717:../libraries/Storage/sd_mmc.c ****  * \note sd_mmc_card->bus_width is updated.
 718:../libraries/Storage/sd_mmc.c ****  *
 719:../libraries/Storage/sd_mmc.c ****  * \return true if success, otherwise false
 720:../libraries/Storage/sd_mmc.c ****  */
 721:../libraries/Storage/sd_mmc.c **** static bool sdio_cmd52_set_bus_width(void)
 722:../libraries/Storage/sd_mmc.c **** {
 723:../libraries/Storage/sd_mmc.c **** 	/**
 724:../libraries/Storage/sd_mmc.c **** 	 * A SD memory card always supports bus 4bit
 725:../libraries/Storage/sd_mmc.c **** 	 * A SD COMBO card always supports bus 4bit
 726:../libraries/Storage/sd_mmc.c **** 	 * A SDIO Full-Speed alone always supports 4bit
 727:../libraries/Storage/sd_mmc.c **** 	 * A SDIO Low-Speed alone can supports 4bit (Optional)
ARM GAS  /tmp/ccTIydBQ.s 			page 18


 728:../libraries/Storage/sd_mmc.c **** 	 */
 729:../libraries/Storage/sd_mmc.c **** 	uint8_t u8_value;
 730:../libraries/Storage/sd_mmc.c **** 
 731:../libraries/Storage/sd_mmc.c **** 	// Check 4bit support in 4BLS of "Card Capability" register
 732:../libraries/Storage/sd_mmc.c **** 	if (!sdio_cmd52(SDIO_CMD52_READ_FLAG, SDIO_CIA, SDIO_CCCR_CAP,
 733:../libraries/Storage/sd_mmc.c **** 			0, &u8_value)) {
 734:../libraries/Storage/sd_mmc.c **** 		return false;
 735:../libraries/Storage/sd_mmc.c **** 	}
 736:../libraries/Storage/sd_mmc.c **** 	if ((u8_value & SDIO_CAP_4BLS) != SDIO_CAP_4BLS) {
 737:../libraries/Storage/sd_mmc.c **** 		// No supported, it is not a protocol error
 738:../libraries/Storage/sd_mmc.c **** 		return true;
 739:../libraries/Storage/sd_mmc.c **** 	}
 740:../libraries/Storage/sd_mmc.c **** 	// HS mode possible, then enable
 741:../libraries/Storage/sd_mmc.c **** 	u8_value = SDIO_BUSWIDTH_4B;
 742:../libraries/Storage/sd_mmc.c **** 	if (!sdio_cmd52(SDIO_CMD52_WRITE_FLAG, SDIO_CIA, SDIO_CCCR_BUS_CTRL,
 743:../libraries/Storage/sd_mmc.c **** 			1, &u8_value)) {
 744:../libraries/Storage/sd_mmc.c **** 		return false;
 745:../libraries/Storage/sd_mmc.c **** 	}
 746:../libraries/Storage/sd_mmc.c **** 	sd_mmc_card->bus_width = 4;
 747:../libraries/Storage/sd_mmc.c **** 	sd_mmc_debug("%d-bit bus width enabled.\n\r", (int)sd_mmc_card->bus_width);
 748:../libraries/Storage/sd_mmc.c **** 	return true;
 749:../libraries/Storage/sd_mmc.c **** }
 750:../libraries/Storage/sd_mmc.c **** 
 751:../libraries/Storage/sd_mmc.c **** /**
 752:../libraries/Storage/sd_mmc.c ****  * \brief CMD52 for SDIO - Enable the high speed mode
 753:../libraries/Storage/sd_mmc.c ****  *
 754:../libraries/Storage/sd_mmc.c ****  * \note sd_mmc_card->high_speed is updated.
 755:../libraries/Storage/sd_mmc.c ****  * \note sd_mmc_card->clock is updated.
 756:../libraries/Storage/sd_mmc.c ****  *
 757:../libraries/Storage/sd_mmc.c ****  * \return true if success, otherwise false
 758:../libraries/Storage/sd_mmc.c ****  */
 759:../libraries/Storage/sd_mmc.c **** static bool sdio_cmd52_set_high_speed(void)
 760:../libraries/Storage/sd_mmc.c **** {
 761:../libraries/Storage/sd_mmc.c **** 	uint8_t u8_value;
 762:../libraries/Storage/sd_mmc.c **** 
 763:../libraries/Storage/sd_mmc.c **** 	// Check CIA.HS
 764:../libraries/Storage/sd_mmc.c **** 	if (!sdio_cmd52(SDIO_CMD52_READ_FLAG, SDIO_CIA, SDIO_CCCR_HS, 0, &u8_value)) {
 765:../libraries/Storage/sd_mmc.c **** 		return false;
 766:../libraries/Storage/sd_mmc.c **** 	}
 767:../libraries/Storage/sd_mmc.c **** 	if ((u8_value & SDIO_SHS) != SDIO_SHS) {
 768:../libraries/Storage/sd_mmc.c **** 		// No supported, it is not a protocol error
 769:../libraries/Storage/sd_mmc.c **** 		return true;
 770:../libraries/Storage/sd_mmc.c **** 	}
 771:../libraries/Storage/sd_mmc.c **** 	// HS mode possible, then enable
 772:../libraries/Storage/sd_mmc.c **** 	u8_value = SDIO_EHS;
 773:../libraries/Storage/sd_mmc.c **** 	if (!sdio_cmd52(SDIO_CMD52_WRITE_FLAG, SDIO_CIA, SDIO_CCCR_HS,
 774:../libraries/Storage/sd_mmc.c **** 			1, &u8_value)) {
 775:../libraries/Storage/sd_mmc.c **** 		return false;
 776:../libraries/Storage/sd_mmc.c **** 	}
 777:../libraries/Storage/sd_mmc.c **** 	sd_mmc_card->high_speed = 1;
 778:../libraries/Storage/sd_mmc.c **** 	sd_mmc_card->clock *= 2;
 779:../libraries/Storage/sd_mmc.c **** 	return true;
 780:../libraries/Storage/sd_mmc.c **** }
 781:../libraries/Storage/sd_mmc.c **** 
 782:../libraries/Storage/sd_mmc.c **** #else
 783:../libraries/Storage/sd_mmc.c **** static bool sdio_op_cond(void)
 784:../libraries/Storage/sd_mmc.c **** {
ARM GAS  /tmp/ccTIydBQ.s 			page 19


 785:../libraries/Storage/sd_mmc.c **** 	return true; // No error but card type not updated
 786:../libraries/Storage/sd_mmc.c **** }
 787:../libraries/Storage/sd_mmc.c **** static bool sdio_get_max_speed(void)
 788:../libraries/Storage/sd_mmc.c **** {
 789:../libraries/Storage/sd_mmc.c **** 	return false;
 790:../libraries/Storage/sd_mmc.c **** }
 791:../libraries/Storage/sd_mmc.c **** static bool sdio_cmd52_set_bus_width(void)
 792:../libraries/Storage/sd_mmc.c **** {
 793:../libraries/Storage/sd_mmc.c **** 	return false;
 794:../libraries/Storage/sd_mmc.c **** }
 795:../libraries/Storage/sd_mmc.c **** static bool sdio_cmd52_set_high_speed(void)
 796:../libraries/Storage/sd_mmc.c **** {
 797:../libraries/Storage/sd_mmc.c **** 	return false;
 798:../libraries/Storage/sd_mmc.c **** }
 799:../libraries/Storage/sd_mmc.c **** #endif // SDIO_SUPPORT_ENABLE
 800:../libraries/Storage/sd_mmc.c **** 
 801:../libraries/Storage/sd_mmc.c **** /**
 802:../libraries/Storage/sd_mmc.c ****  * \brief CMD6 for SD - Switch card in high speed mode
 803:../libraries/Storage/sd_mmc.c ****  *
 804:../libraries/Storage/sd_mmc.c ****  * \note CMD6 for SD is valid under the "trans" state.
 805:../libraries/Storage/sd_mmc.c ****  * \note sd_mmc_card->high_speed is updated.
 806:../libraries/Storage/sd_mmc.c ****  * \note sd_mmc_card->clock is updated.
 807:../libraries/Storage/sd_mmc.c ****  *
 808:../libraries/Storage/sd_mmc.c ****  * \return true if success, otherwise false
 809:../libraries/Storage/sd_mmc.c ****  */
 810:../libraries/Storage/sd_mmc.c **** static bool sd_cm6_set_high_speed(void)
 811:../libraries/Storage/sd_mmc.c **** {
 812:../libraries/Storage/sd_mmc.c **** 	uint8_t switch_status[SD_SW_STATUS_BSIZE];
 813:../libraries/Storage/sd_mmc.c **** 
 814:../libraries/Storage/sd_mmc.c **** 	if (!sd_mmc_card->iface->adtc_start(SD_CMD6_SWITCH_FUNC,
 815:../libraries/Storage/sd_mmc.c **** 			SD_CMD6_MODE_SWITCH
 816:../libraries/Storage/sd_mmc.c **** 			| SD_CMD6_GRP6_NO_INFLUENCE
 817:../libraries/Storage/sd_mmc.c **** 			| SD_CMD6_GRP5_NO_INFLUENCE
 818:../libraries/Storage/sd_mmc.c **** 			| SD_CMD6_GRP4_NO_INFLUENCE
 819:../libraries/Storage/sd_mmc.c **** 			| SD_CMD6_GRP3_NO_INFLUENCE
 820:../libraries/Storage/sd_mmc.c **** 			| SD_CMD6_GRP2_DEFAULT
 821:../libraries/Storage/sd_mmc.c **** 			| SD_CMD6_GRP1_HIGH_SPEED,
 822:../libraries/Storage/sd_mmc.c **** 			SD_SW_STATUS_BSIZE, 1, true)) {
 823:../libraries/Storage/sd_mmc.c **** 		return false;
 824:../libraries/Storage/sd_mmc.c **** 	}
 825:../libraries/Storage/sd_mmc.c **** 	if (!sd_mmc_card->iface->start_read_blocks(switch_status, 1)) {
 826:../libraries/Storage/sd_mmc.c **** 		return false;
 827:../libraries/Storage/sd_mmc.c **** 	}
 828:../libraries/Storage/sd_mmc.c **** 	if (!sd_mmc_card->iface->wait_end_of_read_blocks()) {
 829:../libraries/Storage/sd_mmc.c **** 		return false;
 830:../libraries/Storage/sd_mmc.c **** 	}
 831:../libraries/Storage/sd_mmc.c **** 
 832:../libraries/Storage/sd_mmc.c **** 	if (sd_mmc_card->iface->get_response() & CARD_STATUS_SWITCH_ERROR) {
 833:../libraries/Storage/sd_mmc.c **** 		sd_mmc_debug("%s: CMD6 CARD_STATUS_SWITCH_ERROR\n\r", __func__);
 834:../libraries/Storage/sd_mmc.c **** 		return false;
 835:../libraries/Storage/sd_mmc.c **** 	}
 836:../libraries/Storage/sd_mmc.c **** 	if (SD_SW_STATUS_FUN_GRP1_RC(switch_status)
 837:../libraries/Storage/sd_mmc.c **** 			== SD_SW_STATUS_FUN_GRP_RC_ERROR) {
 838:../libraries/Storage/sd_mmc.c **** 		// No supported, it is not a protocol error
 839:../libraries/Storage/sd_mmc.c **** 		return true;
 840:../libraries/Storage/sd_mmc.c **** 	}
 841:../libraries/Storage/sd_mmc.c **** 	if (SD_SW_STATUS_FUN_GRP1_BUSY(switch_status)) {
ARM GAS  /tmp/ccTIydBQ.s 			page 20


 842:../libraries/Storage/sd_mmc.c **** 		sd_mmc_debug("%s: CMD6 SD_SW_STATUS_FUN_GRP1_BUSY\n\r", __func__);
 843:../libraries/Storage/sd_mmc.c **** 		return false;
 844:../libraries/Storage/sd_mmc.c **** 	}
 845:../libraries/Storage/sd_mmc.c **** 	// CMD6 function switching period is within 8 clocks
 846:../libraries/Storage/sd_mmc.c **** 	// after the end bit of status data.
 847:../libraries/Storage/sd_mmc.c **** 	sd_mmc_card->iface->send_clock();
 848:../libraries/Storage/sd_mmc.c **** 	sd_mmc_card->high_speed = 1;
 849:../libraries/Storage/sd_mmc.c **** 	sd_mmc_card->clock *= 2;
 850:../libraries/Storage/sd_mmc.c **** 	return true;
 851:../libraries/Storage/sd_mmc.c **** }
 852:../libraries/Storage/sd_mmc.c **** 
 853:../libraries/Storage/sd_mmc.c **** /**
 854:../libraries/Storage/sd_mmc.c ****  * \brief CMD6 for MMC - Switches the bus width mode
 855:../libraries/Storage/sd_mmc.c ****  *
 856:../libraries/Storage/sd_mmc.c ****  * \note CMD6 is valid under the "trans" state.
 857:../libraries/Storage/sd_mmc.c ****  * \note sd_mmc_card->bus_width is updated.
 858:../libraries/Storage/sd_mmc.c ****  *
 859:../libraries/Storage/sd_mmc.c ****  * \param bus_width   Bus width to set
 860:../libraries/Storage/sd_mmc.c ****  *
 861:../libraries/Storage/sd_mmc.c ****  * \return true if success, otherwise false
 862:../libraries/Storage/sd_mmc.c ****  */
 863:../libraries/Storage/sd_mmc.c **** static bool mmc_cmd6_set_bus_width(uint8_t bus_width)
 864:../libraries/Storage/sd_mmc.c **** {
 865:../libraries/Storage/sd_mmc.c **** 	uint32_t arg;
 866:../libraries/Storage/sd_mmc.c **** 
 867:../libraries/Storage/sd_mmc.c **** 	switch (bus_width) {
 868:../libraries/Storage/sd_mmc.c **** 	case 8:
 869:../libraries/Storage/sd_mmc.c **** 		arg = MMC_CMD6_ACCESS_SET_BITS
 870:../libraries/Storage/sd_mmc.c **** 				| MMC_CMD6_INDEX_BUS_WIDTH
 871:../libraries/Storage/sd_mmc.c **** 				| MMC_CMD6_VALUE_BUS_WIDTH_8BIT;
 872:../libraries/Storage/sd_mmc.c **** 		break;
 873:../libraries/Storage/sd_mmc.c **** 	case 4:
 874:../libraries/Storage/sd_mmc.c **** 		arg = MMC_CMD6_ACCESS_SET_BITS
 875:../libraries/Storage/sd_mmc.c **** 				| MMC_CMD6_INDEX_BUS_WIDTH
 876:../libraries/Storage/sd_mmc.c **** 				| MMC_CMD6_VALUE_BUS_WIDTH_4BIT;
 877:../libraries/Storage/sd_mmc.c **** 		break;
 878:../libraries/Storage/sd_mmc.c **** 	default:
 879:../libraries/Storage/sd_mmc.c **** 		arg = MMC_CMD6_ACCESS_SET_BITS
 880:../libraries/Storage/sd_mmc.c **** 				| MMC_CMD6_INDEX_BUS_WIDTH
 881:../libraries/Storage/sd_mmc.c **** 				| MMC_CMD6_VALUE_BUS_WIDTH_1BIT;
 882:../libraries/Storage/sd_mmc.c **** 		break;
 883:../libraries/Storage/sd_mmc.c **** 	}
 884:../libraries/Storage/sd_mmc.c **** 	if (!sd_mmc_card->iface->send_cmd(MMC_CMD6_SWITCH, arg)) {
 885:../libraries/Storage/sd_mmc.c **** 		return false;
 886:../libraries/Storage/sd_mmc.c **** 	}
 887:../libraries/Storage/sd_mmc.c **** 	if (sd_mmc_card->iface->get_response() & CARD_STATUS_SWITCH_ERROR) {
 888:../libraries/Storage/sd_mmc.c **** 		// No supported, it is not a protocol error
 889:../libraries/Storage/sd_mmc.c **** 		sd_mmc_debug("%s: CMD6 CARD_STATUS_SWITCH_ERROR\n\r", __func__);
 890:../libraries/Storage/sd_mmc.c **** 		return false;
 891:../libraries/Storage/sd_mmc.c **** 	}
 892:../libraries/Storage/sd_mmc.c **** 	sd_mmc_card->bus_width = bus_width;
 893:../libraries/Storage/sd_mmc.c **** 	sd_mmc_debug("%d-bit bus width enabled.\n\r", (int)sd_mmc_card->bus_width);
 894:../libraries/Storage/sd_mmc.c **** 	return true;
 895:../libraries/Storage/sd_mmc.c **** }
 896:../libraries/Storage/sd_mmc.c **** 
 897:../libraries/Storage/sd_mmc.c **** /**
 898:../libraries/Storage/sd_mmc.c ****  * \brief CMD6 for MMC - Switches in high speed mode
ARM GAS  /tmp/ccTIydBQ.s 			page 21


 899:../libraries/Storage/sd_mmc.c ****  *
 900:../libraries/Storage/sd_mmc.c ****  * \note CMD6 is valid under the "trans" state.
 901:../libraries/Storage/sd_mmc.c ****  * \note sd_mmc_card->high_speed is updated.
 902:../libraries/Storage/sd_mmc.c ****  * \note sd_mmc_card->clock is updated.
 903:../libraries/Storage/sd_mmc.c ****  *
 904:../libraries/Storage/sd_mmc.c ****  * \return true if success, otherwise false
 905:../libraries/Storage/sd_mmc.c ****  */
 906:../libraries/Storage/sd_mmc.c **** static bool mmc_cmd6_set_high_speed(void)
 907:../libraries/Storage/sd_mmc.c **** {
 908:../libraries/Storage/sd_mmc.c **** 	if (!sd_mmc_card->iface->send_cmd(MMC_CMD6_SWITCH,
 909:../libraries/Storage/sd_mmc.c **** 			MMC_CMD6_ACCESS_WRITE_BYTE
 910:../libraries/Storage/sd_mmc.c **** 			| MMC_CMD6_INDEX_HS_TIMING
 911:../libraries/Storage/sd_mmc.c **** 			| MMC_CMD6_VALUE_HS_TIMING_ENABLE)) {
 912:../libraries/Storage/sd_mmc.c **** 		return false;
 913:../libraries/Storage/sd_mmc.c **** 	}
 914:../libraries/Storage/sd_mmc.c **** 	if (sd_mmc_card->iface->get_response() & CARD_STATUS_SWITCH_ERROR) {
 915:../libraries/Storage/sd_mmc.c **** 		// No supported, it is not a protocol error
 916:../libraries/Storage/sd_mmc.c **** 		sd_mmc_debug("%s: CMD6 CARD_STATUS_SWITCH_ERROR\n\r", __func__);
 917:../libraries/Storage/sd_mmc.c **** 		return false;
 918:../libraries/Storage/sd_mmc.c **** 	}
 919:../libraries/Storage/sd_mmc.c **** 	sd_mmc_card->high_speed = 1;
 920:../libraries/Storage/sd_mmc.c **** 	sd_mmc_card->clock = 52000000lu;
 921:../libraries/Storage/sd_mmc.c **** 	return true;
 922:../libraries/Storage/sd_mmc.c **** }
 923:../libraries/Storage/sd_mmc.c **** 
 924:../libraries/Storage/sd_mmc.c **** /**
 925:../libraries/Storage/sd_mmc.c ****  * \brief CMD8 for SD card - Send Interface Condition Command.
 926:../libraries/Storage/sd_mmc.c ****  *
 927:../libraries/Storage/sd_mmc.c ****  * \note
 928:../libraries/Storage/sd_mmc.c ****  * Send SD Memory Card interface condition, which includes host supply
 929:../libraries/Storage/sd_mmc.c ****  * voltage information and asks the card whether card supports voltage.
 930:../libraries/Storage/sd_mmc.c ****  * Should be performed at initialization time to detect the card type.
 931:../libraries/Storage/sd_mmc.c ****  *
 932:../libraries/Storage/sd_mmc.c ****  * \param v2 Pointer to v2 flag to update
 933:../libraries/Storage/sd_mmc.c ****  *
 934:../libraries/Storage/sd_mmc.c ****  * \return true if success, otherwise false
 935:../libraries/Storage/sd_mmc.c ****  *         with a update of \ref sd_mmc_err.
 936:../libraries/Storage/sd_mmc.c ****  */
 937:../libraries/Storage/sd_mmc.c **** static bool sd_cmd8(uint8_t * v2)
 938:../libraries/Storage/sd_mmc.c **** {
 939:../libraries/Storage/sd_mmc.c **** 	uint32_t resp;
 940:../libraries/Storage/sd_mmc.c **** 
 941:../libraries/Storage/sd_mmc.c **** 	*v2 = 0;
 942:../libraries/Storage/sd_mmc.c **** 	// Test for SD version 2
 943:../libraries/Storage/sd_mmc.c **** 	if (!sd_mmc_card->iface->send_cmd(SD_CMD8_SEND_IF_COND,
 944:../libraries/Storage/sd_mmc.c **** 			SD_CMD8_PATTERN | SD_CMD8_HIGH_VOLTAGE)) {
 945:../libraries/Storage/sd_mmc.c **** 		return true; // It is not a V2
 946:../libraries/Storage/sd_mmc.c **** 	}
 947:../libraries/Storage/sd_mmc.c **** 	// Check R7 response
 948:../libraries/Storage/sd_mmc.c **** 	resp = sd_mmc_card->iface->get_response();
 949:../libraries/Storage/sd_mmc.c **** 	if (resp == 0xFFFFFFFF) {
 950:../libraries/Storage/sd_mmc.c **** 		// No compliance R7 value
 951:../libraries/Storage/sd_mmc.c **** 		return true; // It is not a V2
 952:../libraries/Storage/sd_mmc.c **** 	}
 953:../libraries/Storage/sd_mmc.c **** 	if ((resp & (SD_CMD8_MASK_PATTERN | SD_CMD8_MASK_VOLTAGE))
 954:../libraries/Storage/sd_mmc.c **** 				!= (SD_CMD8_PATTERN | SD_CMD8_HIGH_VOLTAGE)) {
 955:../libraries/Storage/sd_mmc.c **** 		sd_mmc_debug("%s: CMD8 resp32 0x%08x UNUSABLE CARD\n\r",
ARM GAS  /tmp/ccTIydBQ.s 			page 22


 956:../libraries/Storage/sd_mmc.c **** 				__func__, resp);
 957:../libraries/Storage/sd_mmc.c **** 		return false;
 958:../libraries/Storage/sd_mmc.c **** 	}
 959:../libraries/Storage/sd_mmc.c **** 	sd_mmc_debug("SD card V2\n\r");
 960:../libraries/Storage/sd_mmc.c **** 	*v2 = 1;
 961:../libraries/Storage/sd_mmc.c **** 	return true;
 962:../libraries/Storage/sd_mmc.c **** }
 963:../libraries/Storage/sd_mmc.c **** 
 964:../libraries/Storage/sd_mmc.c **** /**
 965:../libraries/Storage/sd_mmc.c ****  * \brief CMD8 - The card sends its EXT_CSD register as a block of data.
 966:../libraries/Storage/sd_mmc.c ****  *
 967:../libraries/Storage/sd_mmc.c ****  * \param b_authorize_high_speed Pointer to update with the high speed
 968:../libraries/Storage/sd_mmc.c ****  * support information
 969:../libraries/Storage/sd_mmc.c ****  *
 970:../libraries/Storage/sd_mmc.c ****  * \return true if success, otherwise false
 971:../libraries/Storage/sd_mmc.c ****  */
 972:../libraries/Storage/sd_mmc.c **** static bool mmc_cmd8(uint8_t *b_authorize_high_speed)
 973:../libraries/Storage/sd_mmc.c **** {
 974:../libraries/Storage/sd_mmc.c **** 	uint16_t i;
 975:../libraries/Storage/sd_mmc.c **** 	uint32_t ext_csd;
 976:../libraries/Storage/sd_mmc.c **** 	uint32_t sec_count;
 977:../libraries/Storage/sd_mmc.c **** 
 978:../libraries/Storage/sd_mmc.c **** 	if (!sd_mmc_card->iface->adtc_start(MMC_CMD8_SEND_EXT_CSD, 0,
 979:../libraries/Storage/sd_mmc.c **** 			EXT_CSD_BSIZE, 1, false)) {
 980:../libraries/Storage/sd_mmc.c **** 		return false;
 981:../libraries/Storage/sd_mmc.c **** 	}
 982:../libraries/Storage/sd_mmc.c **** 	//** Read and decode Extended Extended CSD
 983:../libraries/Storage/sd_mmc.c **** 	// Note: The read access is done in byte to avoid a buffer
 984:../libraries/Storage/sd_mmc.c **** 	// of EXT_CSD_BSIZE Byte in stack.
 985:../libraries/Storage/sd_mmc.c **** 
 986:../libraries/Storage/sd_mmc.c **** 	// Read card type
 987:../libraries/Storage/sd_mmc.c **** 	for (i = 0; i < (EXT_CSD_CARD_TYPE_INDEX + 4) / 4; i++) {
 988:../libraries/Storage/sd_mmc.c **** 		if (!sd_mmc_card->iface->read_word(&ext_csd)) {
 989:../libraries/Storage/sd_mmc.c **** 			return false;
 990:../libraries/Storage/sd_mmc.c **** 		}
 991:../libraries/Storage/sd_mmc.c **** 	}
 992:../libraries/Storage/sd_mmc.c **** 	*b_authorize_high_speed = (ext_csd >> ((EXT_CSD_CARD_TYPE_INDEX % 4) * 8))
 993:../libraries/Storage/sd_mmc.c **** 			& MMC_CTYPE_52MHZ;
 994:../libraries/Storage/sd_mmc.c **** 
 995:../libraries/Storage/sd_mmc.c **** 	if (MMC_CSD_C_SIZE(sd_mmc_card->csd) == 0xFFF) {
 996:../libraries/Storage/sd_mmc.c **** 		// For high capacity SD/MMC card,
 997:../libraries/Storage/sd_mmc.c **** 		// memory capacity = SEC_COUNT * 512 byte
 998:../libraries/Storage/sd_mmc.c **** 		for (; i <(EXT_CSD_SEC_COUNT_INDEX + 4) / 4; i++) {
 999:../libraries/Storage/sd_mmc.c **** 			if (!sd_mmc_card->iface->read_word(&sec_count)) {
1000:../libraries/Storage/sd_mmc.c **** 				return false;
1001:../libraries/Storage/sd_mmc.c **** 			}
1002:../libraries/Storage/sd_mmc.c **** 		}
1003:../libraries/Storage/sd_mmc.c **** 		sd_mmc_card->capacity = sec_count / 2;
1004:../libraries/Storage/sd_mmc.c **** 	}
1005:../libraries/Storage/sd_mmc.c **** 	for (; i < EXT_CSD_BSIZE / 4; i++) {
1006:../libraries/Storage/sd_mmc.c **** 		if (!sd_mmc_card->iface->read_word(&sec_count)) {
1007:../libraries/Storage/sd_mmc.c **** 			return false;
1008:../libraries/Storage/sd_mmc.c **** 		}
1009:../libraries/Storage/sd_mmc.c **** 	}
1010:../libraries/Storage/sd_mmc.c **** 	return true;
1011:../libraries/Storage/sd_mmc.c **** }
1012:../libraries/Storage/sd_mmc.c **** 
ARM GAS  /tmp/ccTIydBQ.s 			page 23


1013:../libraries/Storage/sd_mmc.c **** /**
1014:../libraries/Storage/sd_mmc.c ****  * \brief CMD9: Addressed card sends its card-specific
1015:../libraries/Storage/sd_mmc.c ****  * data (CSD) on the CMD line spi.
1016:../libraries/Storage/sd_mmc.c ****  *
1017:../libraries/Storage/sd_mmc.c ****  * \return true if success, otherwise false
1018:../libraries/Storage/sd_mmc.c ****  */
1019:../libraries/Storage/sd_mmc.c **** static bool sd_mmc_cmd9_spi(void)
1020:../libraries/Storage/sd_mmc.c **** {
1021:../libraries/Storage/sd_mmc.c **** 	if (!sd_mmc_card->iface->adtc_start(SDMMC_SPI_CMD9_SEND_CSD, (uint32_t)sd_mmc_card->rca << 16,
1022:../libraries/Storage/sd_mmc.c **** 			CSD_REG_BSIZE, 1, true)) {
1023:../libraries/Storage/sd_mmc.c **** 		return false;
1024:../libraries/Storage/sd_mmc.c **** 	}
1025:../libraries/Storage/sd_mmc.c **** 	if (!sd_mmc_card->iface->start_read_blocks(sd_mmc_card->csd, 1)) {
1026:../libraries/Storage/sd_mmc.c **** 		return false;
1027:../libraries/Storage/sd_mmc.c **** 	}
1028:../libraries/Storage/sd_mmc.c **** 	return sd_mmc_card->iface->wait_end_of_read_blocks();
1029:../libraries/Storage/sd_mmc.c **** }
1030:../libraries/Storage/sd_mmc.c **** 
1031:../libraries/Storage/sd_mmc.c **** /**
1032:../libraries/Storage/sd_mmc.c ****  * \brief CMD9: Addressed card sends its card-specific
1033:../libraries/Storage/sd_mmc.c ****  * data (CSD) on the CMD line mci.
1034:../libraries/Storage/sd_mmc.c ****  *
1035:../libraries/Storage/sd_mmc.c ****  * \return true if success, otherwise false
1036:../libraries/Storage/sd_mmc.c ****  */
1037:../libraries/Storage/sd_mmc.c **** static bool sd_mmc_cmd9_mci(void)
1038:../libraries/Storage/sd_mmc.c **** {
1039:../libraries/Storage/sd_mmc.c **** 	if (!sd_mmc_card->iface->send_cmd(SDMMC_MCI_CMD9_SEND_CSD, (uint32_t)sd_mmc_card->rca << 16)) {
1040:../libraries/Storage/sd_mmc.c **** 		return false;
1041:../libraries/Storage/sd_mmc.c **** 	}
1042:../libraries/Storage/sd_mmc.c **** 	sd_mmc_card->iface->get_response_128(sd_mmc_card->csd);
1043:../libraries/Storage/sd_mmc.c **** 	return true;
1044:../libraries/Storage/sd_mmc.c **** }
1045:../libraries/Storage/sd_mmc.c **** 
1046:../libraries/Storage/sd_mmc.c **** /**
1047:../libraries/Storage/sd_mmc.c ****  * \brief Decodes MMC CSD register
1048:../libraries/Storage/sd_mmc.c ****  */
1049:../libraries/Storage/sd_mmc.c **** static void mmc_decode_csd(void)
1050:../libraries/Storage/sd_mmc.c **** {
  92              		.loc 2 1050 0
  93              		.cfi_startproc
  94              		@ args = 0, pretend = 0, frame = 0
  95              		@ frame_needed = 0, uses_anonymous_args = 0
  96              		@ link register save eliminated.
1051:../libraries/Storage/sd_mmc.c ****  	uint32_t unit;
1052:../libraries/Storage/sd_mmc.c **** 	uint32_t mul;
1053:../libraries/Storage/sd_mmc.c **** 	uint32_t tran_speed;
1054:../libraries/Storage/sd_mmc.c **** 
1055:../libraries/Storage/sd_mmc.c **** 	// Get MMC System Specification version supported by the card
1056:../libraries/Storage/sd_mmc.c **** 	switch (MMC_CSD_SPEC_VERS(sd_mmc_card->csd)) {
  97              		.loc 2 1056 0
  98 0000 264B     		ldr	r3, .L15
  99 0002 1A68     		ldr	r2, [r3]
1050:../libraries/Storage/sd_mmc.c ****  	uint32_t unit;
 100              		.loc 2 1050 0
 101 0004 F0B4     		push	{r4, r5, r6, r7}
 102              		.cfi_def_cfa_offset 16
 103              		.cfi_offset 4, -16
ARM GAS  /tmp/ccTIydBQ.s 			page 24


 104              		.cfi_offset 5, -12
 105              		.cfi_offset 6, -8
 106              		.cfi_offset 7, -4
 107              	.LBB118:
 108              	.LBB119:
 109              		.file 3 "../libraries/Storage/sd_mmc_protocol.h"
   1:../libraries/Storage/sd_mmc_protocol.h **** /**
   2:../libraries/Storage/sd_mmc_protocol.h ****  * \file
   3:../libraries/Storage/sd_mmc_protocol.h ****  *
   4:../libraries/Storage/sd_mmc_protocol.h ****  * \brief SD/MMC protocol definitions.
   5:../libraries/Storage/sd_mmc_protocol.h ****  *
   6:../libraries/Storage/sd_mmc_protocol.h ****  * Copyright (c) 2014-2015 Atmel Corporation. All rights reserved.
   7:../libraries/Storage/sd_mmc_protocol.h ****  *
   8:../libraries/Storage/sd_mmc_protocol.h ****  * \asf_license_start
   9:../libraries/Storage/sd_mmc_protocol.h ****  *
  10:../libraries/Storage/sd_mmc_protocol.h ****  * \page License
  11:../libraries/Storage/sd_mmc_protocol.h ****  *
  12:../libraries/Storage/sd_mmc_protocol.h ****  * Redistribution and use in source and binary forms, with or without
  13:../libraries/Storage/sd_mmc_protocol.h ****  * modification, are permitted provided that the following conditions are met:
  14:../libraries/Storage/sd_mmc_protocol.h ****  *
  15:../libraries/Storage/sd_mmc_protocol.h ****  * 1. Redistributions of source code must retain the above copyright notice,
  16:../libraries/Storage/sd_mmc_protocol.h ****  *    this list of conditions and the following disclaimer.
  17:../libraries/Storage/sd_mmc_protocol.h ****  *
  18:../libraries/Storage/sd_mmc_protocol.h ****  * 2. Redistributions in binary form must reproduce the above copyright notice,
  19:../libraries/Storage/sd_mmc_protocol.h ****  *    this list of conditions and the following disclaimer in the documentation
  20:../libraries/Storage/sd_mmc_protocol.h ****  *    and/or other materials provided with the distribution.
  21:../libraries/Storage/sd_mmc_protocol.h ****  *
  22:../libraries/Storage/sd_mmc_protocol.h ****  * 3. The name of Atmel may not be used to endorse or promote products derived
  23:../libraries/Storage/sd_mmc_protocol.h ****  *    from this software without specific prior written permission.
  24:../libraries/Storage/sd_mmc_protocol.h ****  *
  25:../libraries/Storage/sd_mmc_protocol.h ****  * 4. This software may only be redistributed and used in connection with an
  26:../libraries/Storage/sd_mmc_protocol.h ****  *    Atmel microcontroller product.
  27:../libraries/Storage/sd_mmc_protocol.h ****  *
  28:../libraries/Storage/sd_mmc_protocol.h ****  * THIS SOFTWARE IS PROVIDED BY ATMEL "AS IS" AND ANY EXPRESS OR IMPLIED
  29:../libraries/Storage/sd_mmc_protocol.h ****  * WARRANTIES, INCLUDING, BUT NOT LIMITED TO, THE IMPLIED WARRANTIES OF
  30:../libraries/Storage/sd_mmc_protocol.h ****  * MERCHANTABILITY, FITNESS FOR A PARTICULAR PURPOSE AND NON-INFRINGEMENT ARE
  31:../libraries/Storage/sd_mmc_protocol.h ****  * EXPRESSLY AND SPECIFICALLY DISCLAIMED. IN NO EVENT SHALL ATMEL BE LIABLE FOR
  32:../libraries/Storage/sd_mmc_protocol.h ****  * ANY DIRECT, INDIRECT, INCIDENTAL, SPECIAL, EXEMPLARY, OR CONSEQUENTIAL
  33:../libraries/Storage/sd_mmc_protocol.h ****  * DAMAGES (INCLUDING, BUT NOT LIMITED TO, PROCUREMENT OF SUBSTITUTE GOODS
  34:../libraries/Storage/sd_mmc_protocol.h ****  * OR SERVICES; LOSS OF USE, DATA, OR PROFITS; OR BUSINESS INTERRUPTION)
  35:../libraries/Storage/sd_mmc_protocol.h ****  * HOWEVER CAUSED AND ON ANY THEORY OF LIABILITY, WHETHER IN CONTRACT,
  36:../libraries/Storage/sd_mmc_protocol.h ****  * STRICT LIABILITY, OR TORT (INCLUDING NEGLIGENCE OR OTHERWISE) ARISING IN
  37:../libraries/Storage/sd_mmc_protocol.h ****  * ANY WAY OUT OF THE USE OF THIS SOFTWARE, EVEN IF ADVISED OF THE
  38:../libraries/Storage/sd_mmc_protocol.h ****  * POSSIBILITY OF SUCH DAMAGE.
  39:../libraries/Storage/sd_mmc_protocol.h ****  *
  40:../libraries/Storage/sd_mmc_protocol.h ****  * \asf_license_stop
  41:../libraries/Storage/sd_mmc_protocol.h ****  *
  42:../libraries/Storage/sd_mmc_protocol.h ****  */
  43:../libraries/Storage/sd_mmc_protocol.h **** /*
  44:../libraries/Storage/sd_mmc_protocol.h ****  * Support and FAQ: visit <a href="http://www.atmel.com/design-support/">Atmel Support</a>
  45:../libraries/Storage/sd_mmc_protocol.h ****  */
  46:../libraries/Storage/sd_mmc_protocol.h **** 
  47:../libraries/Storage/sd_mmc_protocol.h **** #ifndef SD_MMC_PROTOCOL_H_INCLUDED
  48:../libraries/Storage/sd_mmc_protocol.h **** #define SD_MMC_PROTOCOL_H_INCLUDED
  49:../libraries/Storage/sd_mmc_protocol.h **** 
  50:../libraries/Storage/sd_mmc_protocol.h **** #include  "compiler.h"
  51:../libraries/Storage/sd_mmc_protocol.h **** 
ARM GAS  /tmp/ccTIydBQ.s 			page 25


  52:../libraries/Storage/sd_mmc_protocol.h **** #ifdef __cplusplus
  53:../libraries/Storage/sd_mmc_protocol.h **** extern "C" {
  54:../libraries/Storage/sd_mmc_protocol.h **** #endif
  55:../libraries/Storage/sd_mmc_protocol.h **** 
  56:../libraries/Storage/sd_mmc_protocol.h **** /**
  57:../libraries/Storage/sd_mmc_protocol.h ****  * \addtogroup sd_mmc_protocol SD/MMC Protocol Definition
  58:../libraries/Storage/sd_mmc_protocol.h ****  * \ingroup sd_mmc_stack_group
  59:../libraries/Storage/sd_mmc_protocol.h ****  * @{
  60:../libraries/Storage/sd_mmc_protocol.h ****  */
  61:../libraries/Storage/sd_mmc_protocol.h **** 
  62:../libraries/Storage/sd_mmc_protocol.h **** // SD/MMC/SDIO default clock frequency for initialization (400KHz)
  63:../libraries/Storage/sd_mmc_protocol.h **** #define SDMMC_CLOCK_INIT   400000
  64:../libraries/Storage/sd_mmc_protocol.h **** 
  65:../libraries/Storage/sd_mmc_protocol.h **** 
  66:../libraries/Storage/sd_mmc_protocol.h **** /**
  67:../libraries/Storage/sd_mmc_protocol.h ****  * \name Macros for command definition
  68:../libraries/Storage/sd_mmc_protocol.h ****  *
  69:../libraries/Storage/sd_mmc_protocol.h ****  * Commands types:
  70:../libraries/Storage/sd_mmc_protocol.h ****  * - broadcast commands (bc), no response
  71:../libraries/Storage/sd_mmc_protocol.h ****  * - broadcast commands with response (bcr) (Note: No open drain on SD card)
  72:../libraries/Storage/sd_mmc_protocol.h ****  * - addressed (point-to-point) commands (ac), no data transfer on DAT lines
  73:../libraries/Storage/sd_mmc_protocol.h ****  * - addressed (point-to-point) data transfer commands (adtc), data transfer
  74:../libraries/Storage/sd_mmc_protocol.h ****  * on DAT lines
  75:../libraries/Storage/sd_mmc_protocol.h ****  *
  76:../libraries/Storage/sd_mmc_protocol.h ****  * Specific MMC norms:
  77:../libraries/Storage/sd_mmc_protocol.h ****  * CMD1, CMD2 & CMD3 are processed in the open-drain mode.
  78:../libraries/Storage/sd_mmc_protocol.h ****  * The CMD line is driven with push-pull drivers.
  79:../libraries/Storage/sd_mmc_protocol.h ****  *
  80:../libraries/Storage/sd_mmc_protocol.h ****  * Specific SD norms:
  81:../libraries/Storage/sd_mmc_protocol.h ****  * There is no open drain mode in SD memory card.
  82:../libraries/Storage/sd_mmc_protocol.h ****  *
  83:../libraries/Storage/sd_mmc_protocol.h ****  ***************************************
  84:../libraries/Storage/sd_mmc_protocol.h ****  * Responses types:
  85:../libraries/Storage/sd_mmc_protocol.h ****  *
  86:../libraries/Storage/sd_mmc_protocol.h ****  * R1, R3, R4 & R5 use a 48 bits response protected by a 7bit CRC checksum
  87:../libraries/Storage/sd_mmc_protocol.h ****  * - R1 receiv data not specified
  88:../libraries/Storage/sd_mmc_protocol.h ****  * - R3 receiv OCR
  89:../libraries/Storage/sd_mmc_protocol.h ****  * - R4, R5 RCA management (MMC only)
  90:../libraries/Storage/sd_mmc_protocol.h ****  * - R6, R7 RCA management (SD only)
  91:../libraries/Storage/sd_mmc_protocol.h ****  *
  92:../libraries/Storage/sd_mmc_protocol.h ****  * R1b assert the BUSY signal and respond with R1.
  93:../libraries/Storage/sd_mmc_protocol.h ****  * If the busy signal is asserted, it is done two clock cycles (Nsr time)
  94:../libraries/Storage/sd_mmc_protocol.h ****  * after the end bit of the command. The DAT0 line is driven low.
  95:../libraries/Storage/sd_mmc_protocol.h ****  * DAT1-DAT7 lines are driven by the card though their values are not relevant.
  96:../libraries/Storage/sd_mmc_protocol.h ****  *
  97:../libraries/Storage/sd_mmc_protocol.h ****  * R2 use a 136 bits response protected by a 7bit CRC checksum
  98:../libraries/Storage/sd_mmc_protocol.h ****  * The content is CID or CSD
  99:../libraries/Storage/sd_mmc_protocol.h ****  *
 100:../libraries/Storage/sd_mmc_protocol.h ****  * Specific MMC norms:
 101:../libraries/Storage/sd_mmc_protocol.h ****  * - R4 (Fast I/O) return RCA
 102:../libraries/Storage/sd_mmc_protocol.h ****  * - R5 (interrupt request) return RCA null
 103:../libraries/Storage/sd_mmc_protocol.h ****  *
 104:../libraries/Storage/sd_mmc_protocol.h ****  * Specific SD norms:
 105:../libraries/Storage/sd_mmc_protocol.h ****  * - R6 (Published RCA) return RCA
 106:../libraries/Storage/sd_mmc_protocol.h ****  * - R7 (Card interface condition) return RCA null
 107:../libraries/Storage/sd_mmc_protocol.h ****  *
 108:../libraries/Storage/sd_mmc_protocol.h ****  * @{
ARM GAS  /tmp/ccTIydBQ.s 			page 26


 109:../libraries/Storage/sd_mmc_protocol.h ****  */
 110:../libraries/Storage/sd_mmc_protocol.h **** 
 111:../libraries/Storage/sd_mmc_protocol.h **** //! Value to define a SD/MMC/SDIO command
 112:../libraries/Storage/sd_mmc_protocol.h **** typedef uint32_t sdmmc_cmd_def_t;
 113:../libraries/Storage/sd_mmc_protocol.h **** 
 114:../libraries/Storage/sd_mmc_protocol.h **** //! \name Flags used to define a SD/MMC/SDIO command
 115:../libraries/Storage/sd_mmc_protocol.h **** //! @{
 116:../libraries/Storage/sd_mmc_protocol.h **** #define SDMMC_CMD_GET_INDEX(cmd) (cmd & 0x3F)
 117:../libraries/Storage/sd_mmc_protocol.h **** //! Have response (MCI only)
 118:../libraries/Storage/sd_mmc_protocol.h **** #define SDMMC_RESP_PRESENT      (1lu << 8)
 119:../libraries/Storage/sd_mmc_protocol.h **** //! 8 bit response (SPI only)
 120:../libraries/Storage/sd_mmc_protocol.h **** #define SDMMC_RESP_8            (1lu << 9)
 121:../libraries/Storage/sd_mmc_protocol.h **** //! 32 bit response (SPI only)
 122:../libraries/Storage/sd_mmc_protocol.h **** #define SDMMC_RESP_32           (1lu << 10)
 123:../libraries/Storage/sd_mmc_protocol.h **** //! 136 bit response (MCI only)
 124:../libraries/Storage/sd_mmc_protocol.h **** #define SDMMC_RESP_136          (1lu << 11)
 125:../libraries/Storage/sd_mmc_protocol.h **** //! Expect valid crc (MCI only)
 126:../libraries/Storage/sd_mmc_protocol.h **** #define SDMMC_RESP_CRC          (1lu << 12)
 127:../libraries/Storage/sd_mmc_protocol.h **** //! Card may send busy
 128:../libraries/Storage/sd_mmc_protocol.h **** #define SDMMC_RESP_BUSY         (1lu << 13)
 129:../libraries/Storage/sd_mmc_protocol.h **** // Open drain for a braodcast command (bc)
 130:../libraries/Storage/sd_mmc_protocol.h **** // or to enter in inactive state (MCI only)
 131:../libraries/Storage/sd_mmc_protocol.h **** #define SDMMC_CMD_OPENDRAIN     (1lu << 14)
 132:../libraries/Storage/sd_mmc_protocol.h **** //! To signal a data write operation
 133:../libraries/Storage/sd_mmc_protocol.h **** #define SDMMC_CMD_WRITE         (1lu << 15)
 134:../libraries/Storage/sd_mmc_protocol.h **** //! To signal a SDIO tranfer in multi byte mode
 135:../libraries/Storage/sd_mmc_protocol.h **** #define SDMMC_CMD_SDIO_BYTE     (1lu << 16)
 136:../libraries/Storage/sd_mmc_protocol.h **** //! To signal a SDIO tranfer in block mode
 137:../libraries/Storage/sd_mmc_protocol.h **** #define SDMMC_CMD_SDIO_BLOCK    (1lu << 17)
 138:../libraries/Storage/sd_mmc_protocol.h **** //! To signal a data transfer in stream mode
 139:../libraries/Storage/sd_mmc_protocol.h **** #define SDMMC_CMD_STREAM        (1lu << 18)
 140:../libraries/Storage/sd_mmc_protocol.h **** //! To signal a data transfer in single block mode
 141:../libraries/Storage/sd_mmc_protocol.h **** #define SDMMC_CMD_SINGLE_BLOCK  (1lu << 19)
 142:../libraries/Storage/sd_mmc_protocol.h **** //! To signal a data transfer in multi block mode
 143:../libraries/Storage/sd_mmc_protocol.h **** #define SDMMC_CMD_MULTI_BLOCK   (1lu << 20)
 144:../libraries/Storage/sd_mmc_protocol.h **** //! @}
 145:../libraries/Storage/sd_mmc_protocol.h **** 
 146:../libraries/Storage/sd_mmc_protocol.h **** //! \name Set of flags to define a reponse type
 147:../libraries/Storage/sd_mmc_protocol.h **** //! @{
 148:../libraries/Storage/sd_mmc_protocol.h **** #define SDMMC_CMD_NO_RESP (0)
 149:../libraries/Storage/sd_mmc_protocol.h **** #define SDMMC_CMD_R1      (SDMMC_RESP_PRESENT | SDMMC_RESP_CRC)
 150:../libraries/Storage/sd_mmc_protocol.h **** #define SDMMC_CMD_R1B     (SDMMC_RESP_PRESENT | SDMMC_RESP_CRC | SDMMC_RESP_BUSY)
 151:../libraries/Storage/sd_mmc_protocol.h **** #define SDMMC_CMD_R2      (SDMMC_RESP_PRESENT | SDMMC_RESP_8 | SDMMC_RESP_136 | SDMMC_RESP_CRC)
 152:../libraries/Storage/sd_mmc_protocol.h **** #define SDMMC_CMD_R3      (SDMMC_RESP_PRESENT | SDMMC_RESP_32)
 153:../libraries/Storage/sd_mmc_protocol.h **** #define SDMMC_CMD_R4      (SDMMC_RESP_PRESENT | SDMMC_RESP_32)
 154:../libraries/Storage/sd_mmc_protocol.h **** #define SDMMC_CMD_R5      (SDMMC_RESP_PRESENT | SDMMC_RESP_8 | SDMMC_RESP_CRC)
 155:../libraries/Storage/sd_mmc_protocol.h **** #define SDMMC_CMD_R6      (SDMMC_RESP_PRESENT | SDMMC_RESP_CRC)
 156:../libraries/Storage/sd_mmc_protocol.h **** #define SDMMC_CMD_R7      (SDMMC_RESP_PRESENT | SDMMC_RESP_32 | SDMMC_RESP_CRC)
 157:../libraries/Storage/sd_mmc_protocol.h **** //! @}
 158:../libraries/Storage/sd_mmc_protocol.h **** 
 159:../libraries/Storage/sd_mmc_protocol.h **** //! \name SD/MMC/SDIO command definitions
 160:../libraries/Storage/sd_mmc_protocol.h **** //! SDMMC_CMDx are include in SD and MMC norms
 161:../libraries/Storage/sd_mmc_protocol.h **** //! MMC_CMDx   are include in MMC norms only
 162:../libraries/Storage/sd_mmc_protocol.h **** //! SD_CMDx    are include in SD norms only
 163:../libraries/Storage/sd_mmc_protocol.h **** //! SDIO_CMDx  are include in SDIO norms only
 164:../libraries/Storage/sd_mmc_protocol.h **** //! @{
 165:../libraries/Storage/sd_mmc_protocol.h **** 
ARM GAS  /tmp/ccTIydBQ.s 			page 27


 166:../libraries/Storage/sd_mmc_protocol.h **** /*
 167:../libraries/Storage/sd_mmc_protocol.h ****  * --- Basic commands and read-stream command (class 0 and class 1) ---
 168:../libraries/Storage/sd_mmc_protocol.h ****  */
 169:../libraries/Storage/sd_mmc_protocol.h **** 
 170:../libraries/Storage/sd_mmc_protocol.h **** /** Cmd0(bc): Reset all cards to idle state */
 171:../libraries/Storage/sd_mmc_protocol.h **** #define SDMMC_SPI_CMD0_GO_IDLE_STATE     (0 | SDMMC_CMD_R1)
 172:../libraries/Storage/sd_mmc_protocol.h **** #define SDMMC_MCI_CMD0_GO_IDLE_STATE     (0 | SDMMC_CMD_NO_RESP | SDMMC_CMD_OPENDRAIN)
 173:../libraries/Storage/sd_mmc_protocol.h **** /** MMC Cmd1(bcr, R3): Ask the card to send its Operating Conditions */
 174:../libraries/Storage/sd_mmc_protocol.h **** #define MMC_SPI_CMD1_SEND_OP_COND        (1 | SDMMC_CMD_R1)
 175:../libraries/Storage/sd_mmc_protocol.h **** #define MMC_MCI_CMD1_SEND_OP_COND        (1 | SDMMC_CMD_R3 | SDMMC_CMD_OPENDRAIN)
 176:../libraries/Storage/sd_mmc_protocol.h **** /** Cmd2(bcr, R2): Ask the card to send its CID number (stuff but arg 0 used) */
 177:../libraries/Storage/sd_mmc_protocol.h **** #define SDMMC_CMD2_ALL_SEND_CID          (2 | SDMMC_CMD_R2 | SDMMC_CMD_OPENDRAIN)
 178:../libraries/Storage/sd_mmc_protocol.h **** /** SD Cmd3(bcr, R6): Ask the card to publish a new relative address (RCA) */
 179:../libraries/Storage/sd_mmc_protocol.h **** #define SD_CMD3_SEND_RELATIVE_ADDR       (3 | SDMMC_CMD_R6 | SDMMC_CMD_OPENDRAIN)
 180:../libraries/Storage/sd_mmc_protocol.h **** /** MMC Cmd3(ac, R1): Assigns relative address to the card */
 181:../libraries/Storage/sd_mmc_protocol.h **** #define MMC_CMD3_SET_RELATIVE_ADDR       (3 | SDMMC_CMD_R1)
 182:../libraries/Storage/sd_mmc_protocol.h **** /** Cmd4(bc): Program the DSR of all cards (MCI only) */
 183:../libraries/Storage/sd_mmc_protocol.h **** #define SDMMC_CMD4_SET_DSR               (4 | SDMMC_CMD_NO_RESP)
 184:../libraries/Storage/sd_mmc_protocol.h **** /** MMC Cmd5(ac, R1b): Toggle the card between Sleep state and Standby state. */
 185:../libraries/Storage/sd_mmc_protocol.h **** #define MMC_CMD5_SLEEP_AWAKE             (5 | SDMMC_CMD_R1B)
 186:../libraries/Storage/sd_mmc_protocol.h **** /** Cmd7(ac, R1/R1b): Select/Deselect card
 187:../libraries/Storage/sd_mmc_protocol.h ****  * For SD: R1b only from the selected card.
 188:../libraries/Storage/sd_mmc_protocol.h ****  * For MMC: R1 while selecting from Stand-By State to Transfer State;
 189:../libraries/Storage/sd_mmc_protocol.h ****  *          R1b while selecting from Disconnected State to Programming State.
 190:../libraries/Storage/sd_mmc_protocol.h ****  */
 191:../libraries/Storage/sd_mmc_protocol.h **** #define SDMMC_CMD7_SELECT_CARD_CMD       (7 | SDMMC_CMD_R1B)
 192:../libraries/Storage/sd_mmc_protocol.h **** #define SDMMC_CMD7_DESELECT_CARD_CMD     (7 | SDMMC_CMD_R1)
 193:../libraries/Storage/sd_mmc_protocol.h **** /** MMC Cmd8(adtc, R1): Send EXT_CSD register as a block of data */
 194:../libraries/Storage/sd_mmc_protocol.h **** #define MMC_CMD8_SEND_EXT_CSD            (8 | SDMMC_CMD_R1 | SDMMC_CMD_SINGLE_BLOCK)
 195:../libraries/Storage/sd_mmc_protocol.h **** /** SD Cmd8(bcr, R7) : Send SD Memory Card interface condition */
 196:../libraries/Storage/sd_mmc_protocol.h **** #define SD_CMD8_SEND_IF_COND             (8 | SDMMC_CMD_R7 | SDMMC_CMD_OPENDRAIN)
 197:../libraries/Storage/sd_mmc_protocol.h **** /** Cmd9 SPI (R1): Addressed card sends its card-specific data (CSD) */
 198:../libraries/Storage/sd_mmc_protocol.h **** #define SDMMC_SPI_CMD9_SEND_CSD          (9 | SDMMC_CMD_R1 | SDMMC_CMD_SINGLE_BLOCK)
 199:../libraries/Storage/sd_mmc_protocol.h **** /** Cmd9 MCI (ac, R2): Addressed card sends its card-specific data (CSD) */
 200:../libraries/Storage/sd_mmc_protocol.h **** #define SDMMC_MCI_CMD9_SEND_CSD          (9 | SDMMC_CMD_R2)
 201:../libraries/Storage/sd_mmc_protocol.h **** /** Cmd10(ac, R2): Addressed card sends its card identification (CID) */
 202:../libraries/Storage/sd_mmc_protocol.h **** #define SDMMC_CMD10_SEND_CID             (10 | SDMMC_CMD_R2)
 203:../libraries/Storage/sd_mmc_protocol.h **** /**
 204:../libraries/Storage/sd_mmc_protocol.h ****  * MMC Cmd11(adtc, R1): Read data stream from the card, starting at the given
 205:../libraries/Storage/sd_mmc_protocol.h ****  * address, until a STOP_TRANSMISSION follows.
 206:../libraries/Storage/sd_mmc_protocol.h ****  */
 207:../libraries/Storage/sd_mmc_protocol.h **** #define MMC_CMD11_READ_DAT_UNTIL_STOP    (11 | SDMMC_CMD_R1)
 208:../libraries/Storage/sd_mmc_protocol.h **** /* SD Cmd11 MCI (ac, R1): Voltage switching */
 209:../libraries/Storage/sd_mmc_protocol.h **** #define SD_CMD11_READ_DAT_UNTIL_STOP     (11 | SDMMC_CMD_R1)
 210:../libraries/Storage/sd_mmc_protocol.h **** /** Cmd12(ac, R1b): Force the card to stop transmission */
 211:../libraries/Storage/sd_mmc_protocol.h **** #define SDMMC_CMD12_STOP_TRANSMISSION    (12 | SDMMC_CMD_R1B)
 212:../libraries/Storage/sd_mmc_protocol.h **** /** Cmd13(R2): Addressed card sends its status register. */
 213:../libraries/Storage/sd_mmc_protocol.h **** #define SDMMC_SPI_CMD13_SEND_STATUS      (13 | SDMMC_CMD_R2)
 214:../libraries/Storage/sd_mmc_protocol.h **** /** Cmd13(ac, R1): Addressed card sends its status register. */
 215:../libraries/Storage/sd_mmc_protocol.h **** #define SDMMC_MCI_CMD13_SEND_STATUS      (13 | SDMMC_CMD_R1)
 216:../libraries/Storage/sd_mmc_protocol.h **** /** MMC Cmd14(adtc, R1): Read the reversed bus testing data pattern from a card. */
 217:../libraries/Storage/sd_mmc_protocol.h **** #define MMC_CMD14_BUSTEST_R              (14 | SDMMC_CMD_R1)
 218:../libraries/Storage/sd_mmc_protocol.h **** /** Cmd15(ac): Send an addressed card into the Inactive State. */
 219:../libraries/Storage/sd_mmc_protocol.h **** // Note: It is a ac cmd, but it must be send like bc cmd to open drain
 220:../libraries/Storage/sd_mmc_protocol.h **** #define SDMMC_CMD15_GO_INACTIVE_STATE    (15 | SDMMC_CMD_NO_RESP | SDMMC_CMD_OPENDRAIN)
 221:../libraries/Storage/sd_mmc_protocol.h **** /** MMC Cmd19(adtc, R1): Send the bus test data pattern */
 222:../libraries/Storage/sd_mmc_protocol.h **** #define MMC_CMD19_BUSTEST_W              (19 | SDMMC_CMD_R1)
ARM GAS  /tmp/ccTIydBQ.s 			page 28


 223:../libraries/Storage/sd_mmc_protocol.h **** /** Cmd58(R3): Reads the OCR register of a card */
 224:../libraries/Storage/sd_mmc_protocol.h **** #define SDMMC_SPI_CMD58_READ_OCR         (58 | SDMMC_CMD_R3)
 225:../libraries/Storage/sd_mmc_protocol.h **** /** Cmd59(R1): Turns the CRC option on or off */
 226:../libraries/Storage/sd_mmc_protocol.h **** #define SDMMC_SPI_CMD59_CRC_ON_OFF       (59 | SDMMC_CMD_R1)
 227:../libraries/Storage/sd_mmc_protocol.h **** 
 228:../libraries/Storage/sd_mmc_protocol.h **** /*
 229:../libraries/Storage/sd_mmc_protocol.h ****  * --- Block-oriented read commands (class 2) ---
 230:../libraries/Storage/sd_mmc_protocol.h ****  */
 231:../libraries/Storage/sd_mmc_protocol.h **** /** Cmd16(ac, R1): Set the block length (in bytes) */
 232:../libraries/Storage/sd_mmc_protocol.h **** #define SDMMC_CMD16_SET_BLOCKLEN         (16 | SDMMC_CMD_R1)
 233:../libraries/Storage/sd_mmc_protocol.h **** /** Cmd17(adtc, R1): Read single block */
 234:../libraries/Storage/sd_mmc_protocol.h **** #define SDMMC_CMD17_READ_SINGLE_BLOCK    (17 | SDMMC_CMD_R1 | SDMMC_CMD_SINGLE_BLOCK)
 235:../libraries/Storage/sd_mmc_protocol.h **** /** Cmd18(adtc, R1): Read multiple block */
 236:../libraries/Storage/sd_mmc_protocol.h **** #define SDMMC_CMD18_READ_MULTIPLE_BLOCK  (18 | SDMMC_CMD_R1 | SDMMC_CMD_MULTI_BLOCK)
 237:../libraries/Storage/sd_mmc_protocol.h **** 
 238:../libraries/Storage/sd_mmc_protocol.h **** /*
 239:../libraries/Storage/sd_mmc_protocol.h ****  * --- Sequential write commands (class 3) ---
 240:../libraries/Storage/sd_mmc_protocol.h ****  */
 241:../libraries/Storage/sd_mmc_protocol.h **** 
 242:../libraries/Storage/sd_mmc_protocol.h **** /**
 243:../libraries/Storage/sd_mmc_protocol.h ****  * MMC Cmd20(adtc, R1): Write a data stream from the host, starting at the
 244:../libraries/Storage/sd_mmc_protocol.h ****  * given address, until a STOP_TRANSMISSION follows.
 245:../libraries/Storage/sd_mmc_protocol.h ****  */
 246:../libraries/Storage/sd_mmc_protocol.h **** #define MMC_CMD20_WRITE_DAT_UNTIL_STOP   (20 | SDMMC_CMD_R1)
 247:../libraries/Storage/sd_mmc_protocol.h **** 
 248:../libraries/Storage/sd_mmc_protocol.h **** /*
 249:../libraries/Storage/sd_mmc_protocol.h ****  * --- Block-oriented write commands (class 4) ---
 250:../libraries/Storage/sd_mmc_protocol.h ****  */
 251:../libraries/Storage/sd_mmc_protocol.h **** /** MMC Cmd23(ac, R1): Set block count */
 252:../libraries/Storage/sd_mmc_protocol.h **** #define MMC_CMD23_SET_BLOCK_COUNT        (23 | SDMMC_CMD_R1)
 253:../libraries/Storage/sd_mmc_protocol.h **** /** Cmd24(adtc, R1): Write block */
 254:../libraries/Storage/sd_mmc_protocol.h **** #define SDMMC_CMD24_WRITE_BLOCK          (24 | SDMMC_CMD_R1 | SDMMC_CMD_WRITE | SDMMC_CMD_SINGLE_BL
 255:../libraries/Storage/sd_mmc_protocol.h **** /** Cmd25(adtc, R1): Write multiple block */
 256:../libraries/Storage/sd_mmc_protocol.h **** #define SDMMC_CMD25_WRITE_MULTIPLE_BLOCK (25 | SDMMC_CMD_R1 | SDMMC_CMD_WRITE | SDMMC_CMD_MULTI_BLO
 257:../libraries/Storage/sd_mmc_protocol.h **** /** MMC Cmd26(adtc, R1): Programming of the card identification register. */
 258:../libraries/Storage/sd_mmc_protocol.h **** #define MMC_CMD26_PROGRAM_CID            (26 | SDMMC_CMD_R1)
 259:../libraries/Storage/sd_mmc_protocol.h **** /** Cmd27(adtc, R1): Programming of the programmable bits of the CSD. */
 260:../libraries/Storage/sd_mmc_protocol.h **** #define SDMMC_CMD27_PROGRAM_CSD          (27 | SDMMC_CMD_R1)
 261:../libraries/Storage/sd_mmc_protocol.h **** 
 262:../libraries/Storage/sd_mmc_protocol.h **** /*
 263:../libraries/Storage/sd_mmc_protocol.h ****  * --- Erase commands  (class 5) ---
 264:../libraries/Storage/sd_mmc_protocol.h ****  */
 265:../libraries/Storage/sd_mmc_protocol.h **** /** SD Cmd32(ac, R1): */
 266:../libraries/Storage/sd_mmc_protocol.h **** #define SD_CMD32_ERASE_WR_BLK_START      (32 | SDMMC_CMD_R1)
 267:../libraries/Storage/sd_mmc_protocol.h **** /** SD Cmd33(ac, R1): */
 268:../libraries/Storage/sd_mmc_protocol.h **** #define SD_CMD33_ERASE_WR_BLK_END        (33 | SDMMC_CMD_R1)
 269:../libraries/Storage/sd_mmc_protocol.h **** /** MMC Cmd35(ac, R1): */
 270:../libraries/Storage/sd_mmc_protocol.h **** #define MMC_CMD35_ERASE_GROUP_START      (35 | SDMMC_CMD_R1)
 271:../libraries/Storage/sd_mmc_protocol.h **** /** MMC Cmd36(ac, R1): */
 272:../libraries/Storage/sd_mmc_protocol.h **** #define MMC_CMD36_ERASE_GROUP_END        (36 | SDMMC_CMD_R1)
 273:../libraries/Storage/sd_mmc_protocol.h **** /** Cmd38(ac, R1B): */
 274:../libraries/Storage/sd_mmc_protocol.h **** #define SDMMC_CMD38_ERASE                (38 | SDMMC_CMD_R1B)
 275:../libraries/Storage/sd_mmc_protocol.h **** 
 276:../libraries/Storage/sd_mmc_protocol.h **** /*
 277:../libraries/Storage/sd_mmc_protocol.h ****  * --- Block Oriented Write Protection Commands (class 6) ---
 278:../libraries/Storage/sd_mmc_protocol.h ****  */
 279:../libraries/Storage/sd_mmc_protocol.h **** /** Cmd28(ac, R1b): Set write protection */
ARM GAS  /tmp/ccTIydBQ.s 			page 29


 280:../libraries/Storage/sd_mmc_protocol.h **** #define SDMMC_CMD28_SET_WRITE_PROT       (28 | SDMMC_CMD_R1B)
 281:../libraries/Storage/sd_mmc_protocol.h **** /** Cmd29(ac, R1b): Clr write protection */
 282:../libraries/Storage/sd_mmc_protocol.h **** #define SDMMC_CMD29_CLR_WRITE_PROT       (29 | SDMMC_CMD_R1B)
 283:../libraries/Storage/sd_mmc_protocol.h **** /** Cmd30(adtc, R1b): Send write protection */
 284:../libraries/Storage/sd_mmc_protocol.h **** #define SDMMC_CMD30_SEND_WRITE_PROT      (30 | SDMMC_CMD_R1)
 285:../libraries/Storage/sd_mmc_protocol.h **** 
 286:../libraries/Storage/sd_mmc_protocol.h **** /*
 287:../libraries/Storage/sd_mmc_protocol.h ****  * --- Lock Card (class 7) ---
 288:../libraries/Storage/sd_mmc_protocol.h ****  */
 289:../libraries/Storage/sd_mmc_protocol.h **** /** Cmd42(adtc, R1): Used to set/reset the password or lock/unlock the card. */
 290:../libraries/Storage/sd_mmc_protocol.h **** #define SDMMC_CMD42_LOCK_UNLOCK          (42 | SDMMC_CMD_R1)
 291:../libraries/Storage/sd_mmc_protocol.h **** 
 292:../libraries/Storage/sd_mmc_protocol.h **** /*
 293:../libraries/Storage/sd_mmc_protocol.h ****  * --- Application-specific commands (class 8) ---
 294:../libraries/Storage/sd_mmc_protocol.h ****  */
 295:../libraries/Storage/sd_mmc_protocol.h **** /**
 296:../libraries/Storage/sd_mmc_protocol.h ****  * Cmd55(ac, R1): Indicate to the card that the next command is an application
 297:../libraries/Storage/sd_mmc_protocol.h ****  * specific command rather than a standard command.
 298:../libraries/Storage/sd_mmc_protocol.h ****  */
 299:../libraries/Storage/sd_mmc_protocol.h **** #define SDMMC_CMD55_APP_CMD              (55 | SDMMC_CMD_R1)
 300:../libraries/Storage/sd_mmc_protocol.h **** /**
 301:../libraries/Storage/sd_mmc_protocol.h ****  * Cmd 56(adtc, R1): Used either to transfer a data block to the card or to get
 302:../libraries/Storage/sd_mmc_protocol.h ****  * a data block from the card for general purpose/application specific commands.
 303:../libraries/Storage/sd_mmc_protocol.h ****  */
 304:../libraries/Storage/sd_mmc_protocol.h **** #define SDMMC_CMD56_GEN_CMD              (56 | SDMMC_CMD_R1)
 305:../libraries/Storage/sd_mmc_protocol.h **** 
 306:../libraries/Storage/sd_mmc_protocol.h **** /**
 307:../libraries/Storage/sd_mmc_protocol.h ****  * MMC Cmd6(ac, R1b) : Switche the mode of operation of the selected card
 308:../libraries/Storage/sd_mmc_protocol.h ****  * or modifies the EXT_CSD registers.
 309:../libraries/Storage/sd_mmc_protocol.h ****  */
 310:../libraries/Storage/sd_mmc_protocol.h **** #define MMC_CMD6_SWITCH                  (6 | SDMMC_CMD_R1B)
 311:../libraries/Storage/sd_mmc_protocol.h **** /**
 312:../libraries/Storage/sd_mmc_protocol.h ****  * SD Cmd6(adtc, R1) : Check switchable function (mode 0)
 313:../libraries/Storage/sd_mmc_protocol.h ****  * and switch card function (mode 1).
 314:../libraries/Storage/sd_mmc_protocol.h ****  */
 315:../libraries/Storage/sd_mmc_protocol.h **** #define SD_CMD6_SWITCH_FUNC              (6 | SDMMC_CMD_R1 | SDMMC_CMD_SINGLE_BLOCK)
 316:../libraries/Storage/sd_mmc_protocol.h **** /** ACMD6(ac, R1): Define the data bus width */
 317:../libraries/Storage/sd_mmc_protocol.h **** #define SD_ACMD6_SET_BUS_WIDTH           (6 | SDMMC_CMD_R1)
 318:../libraries/Storage/sd_mmc_protocol.h **** /** ACMD13(adtc, R1): Send the SD Status. */
 319:../libraries/Storage/sd_mmc_protocol.h **** #define SD_ACMD13_SD_STATUS              (13 | SDMMC_CMD_R1)
 320:../libraries/Storage/sd_mmc_protocol.h **** /**
 321:../libraries/Storage/sd_mmc_protocol.h ****  * ACMD22(adtc, R1): Send the number of the written (with-out errors) write
 322:../libraries/Storage/sd_mmc_protocol.h ****  * blocks.
 323:../libraries/Storage/sd_mmc_protocol.h ****  */
 324:../libraries/Storage/sd_mmc_protocol.h **** #define SD_ACMD22_SEND_NUM_WR_BLOCKS     (22 | SDMMC_CMD_R1)
 325:../libraries/Storage/sd_mmc_protocol.h **** /**
 326:../libraries/Storage/sd_mmc_protocol.h ****  * ACMD23(ac, R1): Set the number of write blocks to be pre-erased before
 327:../libraries/Storage/sd_mmc_protocol.h ****  * writing
 328:../libraries/Storage/sd_mmc_protocol.h ****  */
 329:../libraries/Storage/sd_mmc_protocol.h **** #define SD_ACMD23_SET_WR_BLK_ERASE_COUNT (23 | SDMMC_CMD_R1)
 330:../libraries/Storage/sd_mmc_protocol.h **** /**
 331:../libraries/Storage/sd_mmc_protocol.h ****  * ACMD41(bcr, R3): Send host capacity support information (HCS) and asks the
 332:../libraries/Storage/sd_mmc_protocol.h ****  * accessed card to send its operating condition register (OCR) content
 333:../libraries/Storage/sd_mmc_protocol.h ****  * in the response
 334:../libraries/Storage/sd_mmc_protocol.h ****  */
 335:../libraries/Storage/sd_mmc_protocol.h **** #define SD_MCI_ACMD41_SD_SEND_OP_COND    (41 | SDMMC_CMD_R3 | SDMMC_CMD_OPENDRAIN)
 336:../libraries/Storage/sd_mmc_protocol.h **** /**
ARM GAS  /tmp/ccTIydBQ.s 			page 30


 337:../libraries/Storage/sd_mmc_protocol.h ****  * ACMD41(R1): Send host capacity support information (HCS) and activates the
 338:../libraries/Storage/sd_mmc_protocol.h ****  * card's initilization process
 339:../libraries/Storage/sd_mmc_protocol.h ****  */
 340:../libraries/Storage/sd_mmc_protocol.h **** #define SD_SPI_ACMD41_SD_SEND_OP_COND    (41 | SDMMC_CMD_R1)
 341:../libraries/Storage/sd_mmc_protocol.h **** /**
 342:../libraries/Storage/sd_mmc_protocol.h ****  * ACMD42(ac, R1): Connect[1]/Disconnect[0] the 50 KOhm pull-up resistor on
 343:../libraries/Storage/sd_mmc_protocol.h ****  * CD/DAT3 (pin 1) of the card.
 344:../libraries/Storage/sd_mmc_protocol.h ****  */
 345:../libraries/Storage/sd_mmc_protocol.h **** #define SD_ACMD42_SET_CLR_CARD_DETECT    (42 | SDMMC_CMD_R1)
 346:../libraries/Storage/sd_mmc_protocol.h **** /** ACMD51(adtc, R1): Read the SD Configuration Register (SCR). */
 347:../libraries/Storage/sd_mmc_protocol.h **** #define SD_ACMD51_SEND_SCR               (51 | SDMMC_CMD_R1 | SDMMC_CMD_SINGLE_BLOCK)
 348:../libraries/Storage/sd_mmc_protocol.h **** 
 349:../libraries/Storage/sd_mmc_protocol.h **** /*
 350:../libraries/Storage/sd_mmc_protocol.h ****  * --- I/O mode commands (class 9) ---
 351:../libraries/Storage/sd_mmc_protocol.h ****  */
 352:../libraries/Storage/sd_mmc_protocol.h **** /** MMC Cmd39(ac, R4): Used to write and read 8 bit (register) data fields. */
 353:../libraries/Storage/sd_mmc_protocol.h **** #define MMC_CMD39_FAST_IO                (39 | SDMMC_CMD_R4)
 354:../libraries/Storage/sd_mmc_protocol.h **** /** MMC Cmd40(bcr, R5): Set the system into interrupt mode */
 355:../libraries/Storage/sd_mmc_protocol.h **** #define MMC_CMD40_GO_IRQ_STATE           (40 | SDMMC_CMD_R5 | SDMMC_CMD_OPENDRAIN)
 356:../libraries/Storage/sd_mmc_protocol.h **** /** SDIO Cmd5(R4): Send operation condition */
 357:../libraries/Storage/sd_mmc_protocol.h **** #define SDIO_CMD5_SEND_OP_COND           (5 | SDMMC_CMD_R4 | SDMMC_CMD_OPENDRAIN)
 358:../libraries/Storage/sd_mmc_protocol.h **** /** SDIO CMD52(R5): Direct IO read/write */
 359:../libraries/Storage/sd_mmc_protocol.h **** #define SDIO_CMD52_IO_RW_DIRECT          (52 | SDMMC_CMD_R5)
 360:../libraries/Storage/sd_mmc_protocol.h **** /** SDIO CMD53(R5): Extended IO read/write */
 361:../libraries/Storage/sd_mmc_protocol.h **** #define SDIO_CMD53_IO_R_BYTE_EXTENDED    (53 | SDMMC_CMD_R5 | SDMMC_CMD_SDIO_BYTE)
 362:../libraries/Storage/sd_mmc_protocol.h **** #define SDIO_CMD53_IO_W_BYTE_EXTENDED    (53 | SDMMC_CMD_R5 | SDMMC_CMD_SDIO_BYTE | SDMMC_CMD_WRITE
 363:../libraries/Storage/sd_mmc_protocol.h **** #define SDIO_CMD53_IO_R_BLOCK_EXTENDED   (53 | SDMMC_CMD_R5 | SDMMC_CMD_SDIO_BLOCK)
 364:../libraries/Storage/sd_mmc_protocol.h **** #define SDIO_CMD53_IO_W_BLOCK_EXTENDED   (53 | SDMMC_CMD_R5 | SDMMC_CMD_SDIO_BLOCK | SDMMC_CMD_WRIT
 365:../libraries/Storage/sd_mmc_protocol.h **** //! @}
 366:../libraries/Storage/sd_mmc_protocol.h **** //! @}
 367:../libraries/Storage/sd_mmc_protocol.h **** 
 368:../libraries/Storage/sd_mmc_protocol.h **** 
 369:../libraries/Storage/sd_mmc_protocol.h **** //! \name Macros for command argument definition
 370:../libraries/Storage/sd_mmc_protocol.h **** //! @{
 371:../libraries/Storage/sd_mmc_protocol.h **** 
 372:../libraries/Storage/sd_mmc_protocol.h ****   //! \name MMC CMD6 argument structure
 373:../libraries/Storage/sd_mmc_protocol.h ****   //! @{
 374:../libraries/Storage/sd_mmc_protocol.h **** //! [31:26] Set to 0
 375:../libraries/Storage/sd_mmc_protocol.h **** //! [25:24] Access
 376:../libraries/Storage/sd_mmc_protocol.h **** #define MMC_CMD6_ACCESS_COMMAND_SET (0lu << 24)
 377:../libraries/Storage/sd_mmc_protocol.h **** #define MMC_CMD6_ACCESS_SET_BITS    (1lu << 24)
 378:../libraries/Storage/sd_mmc_protocol.h **** #define MMC_CMD6_ACCESS_CLEAR_BITS  (2lu << 24)
 379:../libraries/Storage/sd_mmc_protocol.h **** #define MMC_CMD6_ACCESS_WRITE_BYTE  (3lu << 24)
 380:../libraries/Storage/sd_mmc_protocol.h **** //! [23:16] Index for Mode Segment
 381:../libraries/Storage/sd_mmc_protocol.h **** #define MMC_CMD6_INDEX_CMD_SET         (EXT_CSD_CMD_SET_INDEX << 16)
 382:../libraries/Storage/sd_mmc_protocol.h **** #define MMC_CMD6_INDEX_CMD_SET_REV     (EXT_CSD_CMD_SET_REV_INDEX << 16)
 383:../libraries/Storage/sd_mmc_protocol.h **** #define MMC_CMD6_INDEX_POWER_CLASS     (EXT_CSD_POWER_CLASS_INDEX << 16)
 384:../libraries/Storage/sd_mmc_protocol.h **** #define MMC_CMD6_INDEX_HS_TIMING       (EXT_CSD_HS_TIMING_INDEX << 16)
 385:../libraries/Storage/sd_mmc_protocol.h **** #define MMC_CMD6_INDEX_BUS_WIDTH       (EXT_CSD_BUS_WIDTH_INDEX << 16)
 386:../libraries/Storage/sd_mmc_protocol.h **** #define MMC_CMD6_INDEX_ERASED_MEM_CONT (EXT_CSD_ERASED_MEM_CONT_INDEX << 16)
 387:../libraries/Storage/sd_mmc_protocol.h **** #define MMC_CMD6_INDEX_BOOT_CONFIG     (EXT_CSD_BOOT_CONFIG_INDEX << 16)
 388:../libraries/Storage/sd_mmc_protocol.h **** #define MMC_CMD6_INDEX_BOOT_BUS_WIDTH  (EXT_CSD_BOOT_BUS_WIDTH_INDEX << 16)
 389:../libraries/Storage/sd_mmc_protocol.h **** #define MMC_CMD6_INDEX_ERASE_GROUP_DEF (EXT_CSD_ERASE_GROUP_DEF_INDEX << 16)
 390:../libraries/Storage/sd_mmc_protocol.h **** //! [15:8] Value
 391:../libraries/Storage/sd_mmc_protocol.h **** #define MMC_CMD6_VALUE_BUS_WIDTH_1BIT    (0x0lu << 8)
 392:../libraries/Storage/sd_mmc_protocol.h **** #define MMC_CMD6_VALUE_BUS_WIDTH_4BIT    (0x1lu << 8)
 393:../libraries/Storage/sd_mmc_protocol.h **** #define MMC_CMD6_VALUE_BUS_WIDTH_8BIT    (0x2lu << 8)
ARM GAS  /tmp/ccTIydBQ.s 			page 31


 394:../libraries/Storage/sd_mmc_protocol.h **** #define MMC_CMD6_VALUE_HS_TIMING_ENABLE  (0x1lu << 8)
 395:../libraries/Storage/sd_mmc_protocol.h **** #define MMC_CMD6_VALUE_HS_TIMING_DISABLE (0x0lu << 8)
 396:../libraries/Storage/sd_mmc_protocol.h **** //! [7:3] Set to 0
 397:../libraries/Storage/sd_mmc_protocol.h **** //! [2:0] Cmd Set
 398:../libraries/Storage/sd_mmc_protocol.h ****   //! @}
 399:../libraries/Storage/sd_mmc_protocol.h **** 
 400:../libraries/Storage/sd_mmc_protocol.h ****   //! \name SD CMD6 argument structure
 401:../libraries/Storage/sd_mmc_protocol.h ****   //! @{
 402:../libraries/Storage/sd_mmc_protocol.h **** //! CMD6 arg[ 3: 0] function group 1, access mode
 403:../libraries/Storage/sd_mmc_protocol.h **** #define SD_CMD6_GRP1_HIGH_SPEED     (0x1lu << 0)
 404:../libraries/Storage/sd_mmc_protocol.h **** #define SD_CMD6_GRP1_DEFAULT        (0x0lu << 0)
 405:../libraries/Storage/sd_mmc_protocol.h **** //! CMD6 arg[ 7: 4] function group 2, command system
 406:../libraries/Storage/sd_mmc_protocol.h **** #define SD_CMD6_GRP2_NO_INFLUENCE   (0xFlu << 4)
 407:../libraries/Storage/sd_mmc_protocol.h **** #define SD_CMD6_GRP2_DEFAULT        (0x0lu << 4)
 408:../libraries/Storage/sd_mmc_protocol.h **** //! CMD6 arg[11: 8] function group 3, 0xF or 0x0
 409:../libraries/Storage/sd_mmc_protocol.h **** #define SD_CMD6_GRP3_NO_INFLUENCE   (0xFlu << 8)
 410:../libraries/Storage/sd_mmc_protocol.h **** #define SD_CMD6_GRP3_DEFAULT        (0x0lu << 8)
 411:../libraries/Storage/sd_mmc_protocol.h **** //! CMD6 arg[15:12] function group 4, 0xF or 0x0
 412:../libraries/Storage/sd_mmc_protocol.h **** #define SD_CMD6_GRP4_NO_INFLUENCE   (0xFlu << 12)
 413:../libraries/Storage/sd_mmc_protocol.h **** #define SD_CMD6_GRP4_DEFAULT        (0x0lu << 12)
 414:../libraries/Storage/sd_mmc_protocol.h **** //! CMD6 arg[19:16] function group 5, 0xF or 0x0
 415:../libraries/Storage/sd_mmc_protocol.h **** #define SD_CMD6_GRP5_NO_INFLUENCE   (0xFlu << 16)
 416:../libraries/Storage/sd_mmc_protocol.h **** #define SD_CMD6_GRP5_DEFAULT        (0x0lu << 16)
 417:../libraries/Storage/sd_mmc_protocol.h **** //! CMD6 arg[23:20] function group 6, 0xF or 0x0
 418:../libraries/Storage/sd_mmc_protocol.h **** #define SD_CMD6_GRP6_NO_INFLUENCE   (0xFlu << 20)
 419:../libraries/Storage/sd_mmc_protocol.h **** #define SD_CMD6_GRP6_DEFAULT        (0x0lu << 20)
 420:../libraries/Storage/sd_mmc_protocol.h **** //! CMD6 arg[30:24] reserved 0
 421:../libraries/Storage/sd_mmc_protocol.h **** //! CMD6 arg[31   ] Mode, 0: Check, 1: Switch
 422:../libraries/Storage/sd_mmc_protocol.h **** #define SD_CMD6_MODE_CHECK          (0lu << 31)
 423:../libraries/Storage/sd_mmc_protocol.h **** #define SD_CMD6_MODE_SWITCH         (1lu << 31)
 424:../libraries/Storage/sd_mmc_protocol.h ****   //! @}
 425:../libraries/Storage/sd_mmc_protocol.h **** 
 426:../libraries/Storage/sd_mmc_protocol.h ****   //! \name SD CMD8 argument structure
 427:../libraries/Storage/sd_mmc_protocol.h ****   //! @{
 428:../libraries/Storage/sd_mmc_protocol.h **** #define SD_CMD8_PATTERN       0xAA
 429:../libraries/Storage/sd_mmc_protocol.h **** #define SD_CMD8_MASK_PATTERN  0xFF
 430:../libraries/Storage/sd_mmc_protocol.h **** #define SD_CMD8_HIGH_VOLTAGE  0x100
 431:../libraries/Storage/sd_mmc_protocol.h **** #define SD_CMD8_MASK_VOLTAGE  0xF00
 432:../libraries/Storage/sd_mmc_protocol.h ****   //! @}
 433:../libraries/Storage/sd_mmc_protocol.h **** 
 434:../libraries/Storage/sd_mmc_protocol.h ****   //! \name SD ACMD41 arguments
 435:../libraries/Storage/sd_mmc_protocol.h ****   //! @{
 436:../libraries/Storage/sd_mmc_protocol.h **** #define SD_ACMD41_HCS   (1lu << 30) //!< (SD) Host Capacity Support
 437:../libraries/Storage/sd_mmc_protocol.h ****   //! @}
 438:../libraries/Storage/sd_mmc_protocol.h **** //! @}
 439:../libraries/Storage/sd_mmc_protocol.h **** 
 440:../libraries/Storage/sd_mmc_protocol.h **** 
 441:../libraries/Storage/sd_mmc_protocol.h **** //! \name SDIO definitions
 442:../libraries/Storage/sd_mmc_protocol.h **** //! @{
 443:../libraries/Storage/sd_mmc_protocol.h **** 
 444:../libraries/Storage/sd_mmc_protocol.h ****   //! \name SDIO state (in R5)
 445:../libraries/Storage/sd_mmc_protocol.h ****   //! @{
 446:../libraries/Storage/sd_mmc_protocol.h **** #define SDIO_R5_COM_CRC_ERROR   (1lu << 15) /**< CRC check error */
 447:../libraries/Storage/sd_mmc_protocol.h **** #define SDIO_R5_ILLEGAL_COMMAND (1lu << 14) /**< Illegal command */
 448:../libraries/Storage/sd_mmc_protocol.h **** #define SDIO_R5_STATE           (3lu << 12) /**< SDIO R5 state mask */
 449:../libraries/Storage/sd_mmc_protocol.h **** #define SDIO_R5_STATE_DIS       (0lu << 12) /**< Disabled */
 450:../libraries/Storage/sd_mmc_protocol.h **** #define SDIO_R5_STATE_CMD       (1lu << 12) /**< DAT lines free */
ARM GAS  /tmp/ccTIydBQ.s 			page 32


 451:../libraries/Storage/sd_mmc_protocol.h **** #define SDIO_R5_STATE_TRN       (2lu << 12) /**< Transfer */
 452:../libraries/Storage/sd_mmc_protocol.h **** #define SDIO_R5_STATE_RFU       (3lu << 12) /**< Reserved */
 453:../libraries/Storage/sd_mmc_protocol.h **** #define SDIO_R5_ERROR           (1lu << 11) /**< General error */
 454:../libraries/Storage/sd_mmc_protocol.h **** #define SDIO_R5_FUNC_NUM        (1lu << 9)  /**< Invalid function number */
 455:../libraries/Storage/sd_mmc_protocol.h **** #define SDIO_R5_OUT_OF_RANGE    (1lu << 8)  /**< Argument out of range */
 456:../libraries/Storage/sd_mmc_protocol.h **** #define SDIO_R5_STATUS_ERR      (SDIO_R5_ERROR | SDIO_R5_FUNC_NUM \
 457:../libraries/Storage/sd_mmc_protocol.h **** 		| SDIO_R5_OUT_OF_RANGE) //!< Errro status bits mask
 458:../libraries/Storage/sd_mmc_protocol.h ****   //! @}
 459:../libraries/Storage/sd_mmc_protocol.h **** 
 460:../libraries/Storage/sd_mmc_protocol.h ****   //! \name SDIO state (in R6)
 461:../libraries/Storage/sd_mmc_protocol.h ****   //! @{
 462:../libraries/Storage/sd_mmc_protocol.h **** /** The CRC check of the previous command failed. */
 463:../libraries/Storage/sd_mmc_protocol.h **** #define SDIO_R6_COM_CRC_ERROR   (1lu << 15)
 464:../libraries/Storage/sd_mmc_protocol.h **** /** Command not legal for the card state. */
 465:../libraries/Storage/sd_mmc_protocol.h **** #define SDIO_R6_ILLEGAL_COMMAND (1lu << 14)
 466:../libraries/Storage/sd_mmc_protocol.h **** /** A general or an unknown error occurred during the operation. */
 467:../libraries/Storage/sd_mmc_protocol.h **** #define SDIO_R6_ERROR           (1lu << 13)
 468:../libraries/Storage/sd_mmc_protocol.h **** /** Status bits mask for SDIO R6 */
 469:../libraries/Storage/sd_mmc_protocol.h **** #define SDIO_STATUS_R6  (SDIO_R6_COM_CRC_ERROR \
 470:../libraries/Storage/sd_mmc_protocol.h **** 		| SDIO_R6_ILLEGAL_COMMAND | SDIO_R6_ERROR)
 471:../libraries/Storage/sd_mmc_protocol.h ****   //! @}
 472:../libraries/Storage/sd_mmc_protocol.h **** 
 473:../libraries/Storage/sd_mmc_protocol.h ****   //! \name SDIO CMD52 argument bit offset
 474:../libraries/Storage/sd_mmc_protocol.h ****   //! @{
 475:../libraries/Storage/sd_mmc_protocol.h **** //! CMD52 arg[ 7: 0] Write data or stuff bits
 476:../libraries/Storage/sd_mmc_protocol.h **** #define SDIO_CMD52_WR_DATA      0
 477:../libraries/Storage/sd_mmc_protocol.h **** //! CMD52 arg[    8] Reserved
 478:../libraries/Storage/sd_mmc_protocol.h **** #define SDIO_CMD52_STUFF0       8
 479:../libraries/Storage/sd_mmc_protocol.h **** //! CMD52 arg[25: 9] Register address
 480:../libraries/Storage/sd_mmc_protocol.h **** #define SDIO_CMD52_REG_ADRR     9
 481:../libraries/Storage/sd_mmc_protocol.h **** //! CMD52 arg[   26] Reserved
 482:../libraries/Storage/sd_mmc_protocol.h **** #define SDIO_CMD52_STUFF1       26
 483:../libraries/Storage/sd_mmc_protocol.h **** //! CMD52 arg[   27] Read after Write flag
 484:../libraries/Storage/sd_mmc_protocol.h **** #define SDIO_CMD52_RAW_FLAG     27
 485:../libraries/Storage/sd_mmc_protocol.h **** //! CMD52 arg[30:28] Number of the function
 486:../libraries/Storage/sd_mmc_protocol.h **** #define SDIO_CMD52_FUNCTION_NUM 28
 487:../libraries/Storage/sd_mmc_protocol.h **** //! CMD52 arg[   31] Direction, 1:write, 0:read.
 488:../libraries/Storage/sd_mmc_protocol.h **** #define SDIO_CMD52_RW_FLAG      31
 489:../libraries/Storage/sd_mmc_protocol.h **** #  define SDIO_CMD52_READ_FLAG    0
 490:../libraries/Storage/sd_mmc_protocol.h **** #  define SDIO_CMD52_WRITE_FLAG   1
 491:../libraries/Storage/sd_mmc_protocol.h ****   //! @}
 492:../libraries/Storage/sd_mmc_protocol.h **** 
 493:../libraries/Storage/sd_mmc_protocol.h ****   //! \name SDIO CMD53 argument structure
 494:../libraries/Storage/sd_mmc_protocol.h ****   //! @{
 495:../libraries/Storage/sd_mmc_protocol.h **** /**
 496:../libraries/Storage/sd_mmc_protocol.h ****  * [ 8: 0] Byte mode: number of bytes to transfer,
 497:../libraries/Storage/sd_mmc_protocol.h ****  *                    0 cause 512 bytes transfer.
 498:../libraries/Storage/sd_mmc_protocol.h ****  *         Block mode: number of blocks to transfer,
 499:../libraries/Storage/sd_mmc_protocol.h ****  *                    0 set count to infinite.
 500:../libraries/Storage/sd_mmc_protocol.h ****  */
 501:../libraries/Storage/sd_mmc_protocol.h **** #define SDIO_CMD53_COUNT        0
 502:../libraries/Storage/sd_mmc_protocol.h **** //! CMD53 arg[25: 9] Start Address I/O register
 503:../libraries/Storage/sd_mmc_protocol.h **** #define SDIO_CMD53_REG_ADDR     9
 504:../libraries/Storage/sd_mmc_protocol.h **** //! CMD53 arg[   26] 1:Incrementing address, 0: fixed
 505:../libraries/Storage/sd_mmc_protocol.h **** #define SDIO_CMD53_OP_CODE      26
 506:../libraries/Storage/sd_mmc_protocol.h **** //! CMD53 arg[   27] (Optional) 1:block mode
 507:../libraries/Storage/sd_mmc_protocol.h **** #define SDIO_CMD53_BLOCK_MODE   27
ARM GAS  /tmp/ccTIydBQ.s 			page 33


 508:../libraries/Storage/sd_mmc_protocol.h **** //! CMD53 arg[30:28] Number of the function
 509:../libraries/Storage/sd_mmc_protocol.h **** #define SDIO_CMD53_FUNCTION_NUM 28
 510:../libraries/Storage/sd_mmc_protocol.h **** //! CMD53 arg[   31] Direction, 1:WR, 0:RD
 511:../libraries/Storage/sd_mmc_protocol.h **** #define SDIO_CMD53_RW_FLAG      31
 512:../libraries/Storage/sd_mmc_protocol.h **** #  define SDIO_CMD53_READ_FLAG    0
 513:../libraries/Storage/sd_mmc_protocol.h **** #  define SDIO_CMD53_WRITE_FLAG   1
 514:../libraries/Storage/sd_mmc_protocol.h ****   //! @}
 515:../libraries/Storage/sd_mmc_protocol.h **** 
 516:../libraries/Storage/sd_mmc_protocol.h ****   //! \name SDIO Functions
 517:../libraries/Storage/sd_mmc_protocol.h ****   //! @{
 518:../libraries/Storage/sd_mmc_protocol.h **** #define SDIO_CIA  0 /**< SDIO Function 0 (CIA) */
 519:../libraries/Storage/sd_mmc_protocol.h **** #define SDIO_FN0  0 /**< SDIO Function 0 */
 520:../libraries/Storage/sd_mmc_protocol.h **** #define SDIO_FN1  1 /**< SDIO Function 1 */
 521:../libraries/Storage/sd_mmc_protocol.h **** #define SDIO_FN2  2 /**< SDIO Function 2 */
 522:../libraries/Storage/sd_mmc_protocol.h **** #define SDIO_FN3  3 /**< SDIO Function 3 */
 523:../libraries/Storage/sd_mmc_protocol.h **** #define SDIO_FN4  4 /**< SDIO Function 4 */
 524:../libraries/Storage/sd_mmc_protocol.h **** #define SDIO_FN5  5 /**< SDIO Function 5 */
 525:../libraries/Storage/sd_mmc_protocol.h **** #define SDIO_FN6  6 /**< SDIO Function 6 */
 526:../libraries/Storage/sd_mmc_protocol.h **** #define SDIO_FN7  7 /**< SDIO Function 7 */
 527:../libraries/Storage/sd_mmc_protocol.h ****   //! @}
 528:../libraries/Storage/sd_mmc_protocol.h **** 
 529:../libraries/Storage/sd_mmc_protocol.h ****   //! \name SDIO Card Common Control Registers (CCCR)
 530:../libraries/Storage/sd_mmc_protocol.h ****   //! @{
 531:../libraries/Storage/sd_mmc_protocol.h **** #define SDIO_CCCR_SDIO_REV    0x00         /**< CCCR/SDIO revision (RO) */
 532:../libraries/Storage/sd_mmc_protocol.h **** #define   SDIO_CCCR_REV_1_00    (0x0lu << 0)  /**< CCCR/FBR Version 1.00 */
 533:../libraries/Storage/sd_mmc_protocol.h **** #define   SDIO_CCCR_REV_1_10    (0x1lu << 0)  /**< CCCR/FBR Version 1.10 */
 534:../libraries/Storage/sd_mmc_protocol.h **** #define   SDIO_CCCR_REV_2_00    (0x2lu << 0)  /**< CCCR/FBR Version 2.00 */
 535:../libraries/Storage/sd_mmc_protocol.h **** #define   SDIO_CCCR_REV_3_00    (0x3lu << 0)  /**< CCCR/FBR Version 3.00 */
 536:../libraries/Storage/sd_mmc_protocol.h **** #define   SDIO_SDIO_REV_1_00    (0x0lu << 4)  /**< SDIO Spec 1.00 */
 537:../libraries/Storage/sd_mmc_protocol.h **** #define   SDIO_SDIO_REV_1_10    (0x1lu << 4)  /**< SDIO Spec 1.10 */
 538:../libraries/Storage/sd_mmc_protocol.h **** #define   SDIO_SDIO_REV_1_20    (0x2lu << 4)  /**< SDIO Spec 1.20(unreleased) */
 539:../libraries/Storage/sd_mmc_protocol.h **** #define   SDIO_SDIO_REV_2_00    (0x3lu << 4)  /**< SDIO Spec Version 2.00 */
 540:../libraries/Storage/sd_mmc_protocol.h **** #define   SDIO_SDIO_REV_3_00    (0x4lu << 4)  /**< SDIO Spec Version 3.00 */
 541:../libraries/Storage/sd_mmc_protocol.h **** #define SDIO_CCCR_SD_REV      0x01         /**< SD Spec Revision (RO) */
 542:../libraries/Storage/sd_mmc_protocol.h **** #define   SDIO_SD_REV_1_01      (0x0lu << 0)  /**< SD 1.01 (Mar 2000) */
 543:../libraries/Storage/sd_mmc_protocol.h **** #define   SDIO_SD_REV_1_10      (0x1lu << 0)  /**< SD 1.10 (Oct 2004) */
 544:../libraries/Storage/sd_mmc_protocol.h **** #define   SDIO_SD_REV_2_00      (0x2lu << 0)  /**< SD 2.00 (May 2006) */
 545:../libraries/Storage/sd_mmc_protocol.h **** #define   SDIO_SD_REV_3_00      (0x3lu << 0)  /**< SD 3.00 */
 546:../libraries/Storage/sd_mmc_protocol.h **** #define SDIO_CCCR_IOE         0x02         /**< I/O Enable (R/W) */
 547:../libraries/Storage/sd_mmc_protocol.h **** #define   SDIO_IOE_FN1          (0x1lu << 1)  /**< Function 1 Enable/Disable */
 548:../libraries/Storage/sd_mmc_protocol.h **** #define   SDIO_IOE_FN2          (0x1lu << 2)  /**< Function 2 Enable/Disable */
 549:../libraries/Storage/sd_mmc_protocol.h **** #define   SDIO_IOE_FN3          (0x1lu << 3)  /**< Function 3 Enable/Disable */
 550:../libraries/Storage/sd_mmc_protocol.h **** #define   SDIO_IOE_FN4          (0x1lu << 4)  /**< Function 4 Enable/Disable */
 551:../libraries/Storage/sd_mmc_protocol.h **** #define   SDIO_IOE_FN5          (0x1lu << 5)  /**< Function 5 Enable/Disable */
 552:../libraries/Storage/sd_mmc_protocol.h **** #define   SDIO_IOE_FN6          (0x1lu << 6)  /**< Function 6 Enable/Disable */
 553:../libraries/Storage/sd_mmc_protocol.h **** #define   SDIO_IOE_FN7          (0x1lu << 7)  /**< Function 7 Enable/Disable */
 554:../libraries/Storage/sd_mmc_protocol.h **** #define SDIO_CCCR_IOR         0x03         /**< I/O Ready (RO) */
 555:../libraries/Storage/sd_mmc_protocol.h **** #define   SDIO_IOR_FN1          (0x1lu << 1)  /**< Function 1 ready */
 556:../libraries/Storage/sd_mmc_protocol.h **** #define   SDIO_IOR_FN2          (0x1lu << 2)  /**< Function 2 ready */
 557:../libraries/Storage/sd_mmc_protocol.h **** #define   SDIO_IOR_FN3          (0x1lu << 3)  /**< Function 3 ready */
 558:../libraries/Storage/sd_mmc_protocol.h **** #define   SDIO_IOR_FN4          (0x1lu << 4)  /**< Function 4 ready */
 559:../libraries/Storage/sd_mmc_protocol.h **** #define   SDIO_IOR_FN5          (0x1lu << 5)  /**< Function 5 ready */
 560:../libraries/Storage/sd_mmc_protocol.h **** #define   SDIO_IOR_FN6          (0x1lu << 6)  /**< Function 6 ready */
 561:../libraries/Storage/sd_mmc_protocol.h **** #define   SDIO_IOR_FN7          (0x1lu << 7)  /**< Function 7 ready */
 562:../libraries/Storage/sd_mmc_protocol.h **** #define SDIO_CCCR_IEN         0x04         /**< Int Enable */
 563:../libraries/Storage/sd_mmc_protocol.h **** #define   SDIO_IENM             (0x1lu << 0)  /**< Int Enable Master (R/W) */
 564:../libraries/Storage/sd_mmc_protocol.h **** #define   SDIO_IEN_FN1          (0x1lu << 1)  /**< Function 1 Int Enable */
ARM GAS  /tmp/ccTIydBQ.s 			page 34


 565:../libraries/Storage/sd_mmc_protocol.h **** #define   SDIO_IEN_FN2          (0x1lu << 2)  /**< Function 2 Int Enable */
 566:../libraries/Storage/sd_mmc_protocol.h **** #define   SDIO_IEN_FN3          (0x1lu << 3)  /**< Function 3 Int Enable */
 567:../libraries/Storage/sd_mmc_protocol.h **** #define   SDIO_IEN_FN4          (0x1lu << 4)  /**< Function 4 Int Enable */
 568:../libraries/Storage/sd_mmc_protocol.h **** #define   SDIO_IEN_FN5          (0x1lu << 5)  /**< Function 5 Int Enable */
 569:../libraries/Storage/sd_mmc_protocol.h **** #define   SDIO_IEN_FN6          (0x1lu << 6)  /**< Function 6 Int Enable */
 570:../libraries/Storage/sd_mmc_protocol.h **** #define   SDIO_IEN_FN7          (0x1lu << 7)  /**< Function 7 Int Enable */
 571:../libraries/Storage/sd_mmc_protocol.h **** #define SDIO_CCCR_INT         0x05         /**< Int Pending */
 572:../libraries/Storage/sd_mmc_protocol.h **** #define   SDIO_INT_FN1          (0x1lu << 1)  /**< Function 1 Int pending */
 573:../libraries/Storage/sd_mmc_protocol.h **** #define   SDIO_INT_FN2          (0x1lu << 2)  /**< Function 2 Int pending */
 574:../libraries/Storage/sd_mmc_protocol.h **** #define   SDIO_INT_FN3          (0x1lu << 3)  /**< Function 3 Int pending */
 575:../libraries/Storage/sd_mmc_protocol.h **** #define   SDIO_INT_FN4          (0x1lu << 4)  /**< Function 4 Int pending */
 576:../libraries/Storage/sd_mmc_protocol.h **** #define   SDIO_INT_FN5          (0x1lu << 5)  /**< Function 5 Int pending */
 577:../libraries/Storage/sd_mmc_protocol.h **** #define   SDIO_INT_FN6          (0x1lu << 6)  /**< Function 6 Int pending */
 578:../libraries/Storage/sd_mmc_protocol.h **** #define   SDIO_INT_FN7          (0x1lu << 7)  /**< Function 7 Int pending */
 579:../libraries/Storage/sd_mmc_protocol.h **** #define SDIO_CCCR_IOA         0x06         /**< I/O Abort */
 580:../libraries/Storage/sd_mmc_protocol.h **** #define   SDIO_AS_FN1           (0x1lu << 0)  /**< Abort function 1 IO */
 581:../libraries/Storage/sd_mmc_protocol.h **** #define   SDIO_AS_FN2           (0x2lu << 0)  /**< Abort function 2 IO */
 582:../libraries/Storage/sd_mmc_protocol.h **** #define   SDIO_AS_FN3           (0x3lu << 0)  /**< Abort function 3 IO */
 583:../libraries/Storage/sd_mmc_protocol.h **** #define   SDIO_AS_FN4           (0x4lu << 0)  /**< Abort function 4 IO */
 584:../libraries/Storage/sd_mmc_protocol.h **** #define   SDIO_AS_FN5           (0x5lu << 0)  /**< Abort function 5 IO */
 585:../libraries/Storage/sd_mmc_protocol.h **** #define   SDIO_AS_FN6           (0x6lu << 0)  /**< Abort function 6 IO */
 586:../libraries/Storage/sd_mmc_protocol.h **** #define   SDIO_AS_FN7           (0x7lu << 0)  /**< Abort function 7 IO */
 587:../libraries/Storage/sd_mmc_protocol.h **** #define   SDIO_RES              (0x1lu << 3)  /**< IO CARD RESET (WO) */
 588:../libraries/Storage/sd_mmc_protocol.h **** #define SDIO_CCCR_BUS_CTRL    0x07         /**< Bus Interface Control */
 589:../libraries/Storage/sd_mmc_protocol.h **** #define   SDIO_BUSWIDTH_1B      (0x0lu << 0)  /**< 1-bit data bus */
 590:../libraries/Storage/sd_mmc_protocol.h **** #define   SDIO_BUSWIDTH_4B      (0x2lu << 0)  /**< 4-bit data bus */
 591:../libraries/Storage/sd_mmc_protocol.h **** /** Enable Continuous SPI interrupt (R/W) */
 592:../libraries/Storage/sd_mmc_protocol.h **** #define   SDIO_BUS_ECSI         (0x1lu << 5)
 593:../libraries/Storage/sd_mmc_protocol.h **** /** Support Continuous SPI interrupt (RO) */
 594:../libraries/Storage/sd_mmc_protocol.h **** #define   SDIO_BUS_SCSI         (0x1lu << 6)
 595:../libraries/Storage/sd_mmc_protocol.h **** /** Connect(0)/Disconnect(1) pull-up on CD/DAT[3] (R/W) */
 596:../libraries/Storage/sd_mmc_protocol.h **** #define   SDIO_BUS_CD_DISABLE   (0x1lu << 7)
 597:../libraries/Storage/sd_mmc_protocol.h **** #define SDIO_CCCR_CAP         0x08         /**< Card Capability */
 598:../libraries/Storage/sd_mmc_protocol.h **** /** Support Direct Commands during data transfer (RO) */
 599:../libraries/Storage/sd_mmc_protocol.h **** #define   SDIO_CAP_SDC          (0x1lu << 0)
 600:../libraries/Storage/sd_mmc_protocol.h **** /** Support Multi-Block (RO) */
 601:../libraries/Storage/sd_mmc_protocol.h **** #define   SDIO_CAP_SMB          (0x1lu << 1)
 602:../libraries/Storage/sd_mmc_protocol.h **** /** Support Read Wait (RO) */
 603:../libraries/Storage/sd_mmc_protocol.h **** #define   SDIO_CAP_SRW          (0x1lu << 2)
 604:../libraries/Storage/sd_mmc_protocol.h **** /** Support Suspend/Resume (RO) */
 605:../libraries/Storage/sd_mmc_protocol.h **** #define   SDIO_CAP_SBS          (0x1lu << 3)
 606:../libraries/Storage/sd_mmc_protocol.h **** /** Support interrupt between blocks of data in 4-bit SD mode (RO) */
 607:../libraries/Storage/sd_mmc_protocol.h **** #define   SDIO_CAP_S4MI         (0x1lu << 4)
 608:../libraries/Storage/sd_mmc_protocol.h **** /** Enable interrupt between blocks of data in 4-bit SD mode (R/W) */
 609:../libraries/Storage/sd_mmc_protocol.h **** #define   SDIO_CAP_E4MI         (0x1lu << 5)
 610:../libraries/Storage/sd_mmc_protocol.h **** /** Low-Speed Card (RO) */
 611:../libraries/Storage/sd_mmc_protocol.h **** #define   SDIO_CAP_LSC          (0x1lu << 6)
 612:../libraries/Storage/sd_mmc_protocol.h **** /** 4-bit support for Low-Speed Card (RO) */
 613:../libraries/Storage/sd_mmc_protocol.h **** #define   SDIO_CAP_4BLS         (0x1lu << 7)
 614:../libraries/Storage/sd_mmc_protocol.h **** /** Pointer to CIS (3B, LSB first) */
 615:../libraries/Storage/sd_mmc_protocol.h **** #define SDIO_CCCR_CIS_PTR     0x09
 616:../libraries/Storage/sd_mmc_protocol.h **** /** Bus Suspend */
 617:../libraries/Storage/sd_mmc_protocol.h **** #define SDIO_CCCR_BUS_SUSPEND 0x0C
 618:../libraries/Storage/sd_mmc_protocol.h **** /** Bus Status (transfer on DAT[x] lines) (RO) */
 619:../libraries/Storage/sd_mmc_protocol.h **** #define   SDIO_BS               (0x1lu << 0)
 620:../libraries/Storage/sd_mmc_protocol.h **** /** Bus Release Request/Status (R/W) */
 621:../libraries/Storage/sd_mmc_protocol.h **** #define   SDIO_BR               (0x1lu << 1)
ARM GAS  /tmp/ccTIydBQ.s 			page 35


 622:../libraries/Storage/sd_mmc_protocol.h **** #define SDIO_CCCR_FUN_SEL     0x0D         /**< Function select */
 623:../libraries/Storage/sd_mmc_protocol.h **** #define   SDIO_DF               (0x1lu << 7)  /**< Resume Data Flag (RO) */
 624:../libraries/Storage/sd_mmc_protocol.h **** #define   SDIO_FS_CIA           (0x0lu << 0)  /**< Select CIA (function 0) */
 625:../libraries/Storage/sd_mmc_protocol.h **** #define   SDIO_FS_FN1           (0x1lu << 0)  /**< Select Function 1 */
 626:../libraries/Storage/sd_mmc_protocol.h **** #define   SDIO_FS_FN2           (0x2lu << 0)  /**< Select Function 2 */
 627:../libraries/Storage/sd_mmc_protocol.h **** #define   SDIO_FS_FN3           (0x3lu << 0)  /**< Select Function 3 */
 628:../libraries/Storage/sd_mmc_protocol.h **** #define   SDIO_FS_FN4           (0x4lu << 0)  /**< Select Function 4 */
 629:../libraries/Storage/sd_mmc_protocol.h **** #define   SDIO_FS_FN5           (0x5lu << 0)  /**< Select Function 5 */
 630:../libraries/Storage/sd_mmc_protocol.h **** #define   SDIO_FS_FN6           (0x6lu << 0)  /**< Select Function 6 */
 631:../libraries/Storage/sd_mmc_protocol.h **** #define   SDIO_FS_FN7           (0x7lu << 0)  /**< Select Function 7 */
 632:../libraries/Storage/sd_mmc_protocol.h **** #define   SDIO_FS_MEM           (0x8lu << 0)  /**< Select memory in combo card */
 633:../libraries/Storage/sd_mmc_protocol.h **** #define SDIO_CCCR_EXEC        0x0E         /**< Exec Flags (RO) */
 634:../libraries/Storage/sd_mmc_protocol.h **** #define   SDIO_EXM              (0x1lu << 0)  /**< Executing status of memory */
 635:../libraries/Storage/sd_mmc_protocol.h **** #define   SDIO_EX_FN1           (0x1lu << 1)  /**< Executing status of func 1 */
 636:../libraries/Storage/sd_mmc_protocol.h **** #define   SDIO_EX_FN2           (0x1lu << 2)  /**< Executing status of func 2 */
 637:../libraries/Storage/sd_mmc_protocol.h **** #define   SDIO_EX_FN3           (0x1lu << 3)  /**< Executing status of func 3 */
 638:../libraries/Storage/sd_mmc_protocol.h **** #define   SDIO_EX_FN4           (0x1lu << 4)  /**< Executing status of func 4 */
 639:../libraries/Storage/sd_mmc_protocol.h **** #define   SDIO_EX_FN5           (0x1lu << 5)  /**< Executing status of func 5 */
 640:../libraries/Storage/sd_mmc_protocol.h **** #define   SDIO_EX_FN6           (0x1lu << 6)  /**< Executing status of func 6 */
 641:../libraries/Storage/sd_mmc_protocol.h **** #define   SDIO_EX_FN7           (0x1lu << 7)  /**< Executing status of func 7 */
 642:../libraries/Storage/sd_mmc_protocol.h **** #define SDIO_CCCR_READY       0x0F         /**< Ready Flags (RO) */
 643:../libraries/Storage/sd_mmc_protocol.h **** #define   SDIO_RFM              (0x1lu << 0)  /**< Ready Flag for memory */
 644:../libraries/Storage/sd_mmc_protocol.h **** #define   SDIO_RF_FN1           (0x1lu << 1)  /**< Ready Flag for function 1 */
 645:../libraries/Storage/sd_mmc_protocol.h **** #define   SDIO_RF_FN2           (0x1lu << 2)  /**< Ready Flag for function 2 */
 646:../libraries/Storage/sd_mmc_protocol.h **** #define   SDIO_RF_FN3           (0x1lu << 3)  /**< Ready Flag for function 3 */
 647:../libraries/Storage/sd_mmc_protocol.h **** #define   SDIO_RF_FN4           (0x1lu << 4)  /**< Ready Flag for function 4 */
 648:../libraries/Storage/sd_mmc_protocol.h **** #define   SDIO_RF_FN5           (0x1lu << 5)  /**< Ready Flag for function 5 */
 649:../libraries/Storage/sd_mmc_protocol.h **** #define   SDIO_RF_FN6           (0x1lu << 6)  /**< Ready Flag for function 6 */
 650:../libraries/Storage/sd_mmc_protocol.h **** #define   SDIO_RF_FN7           (0x1lu << 7)  /**< Ready Flag for function 7 */
 651:../libraries/Storage/sd_mmc_protocol.h **** #define SDIO_CCCR_FN0_BLKSIZ  0x10  /**< FN0 Block Size (2B, LSB first) (R/W) */
 652:../libraries/Storage/sd_mmc_protocol.h **** #define SDIO_CCCR_POWER       0x12         /**< Power Control */
 653:../libraries/Storage/sd_mmc_protocol.h **** #define   SDIO_POWER_SMPC       (0x1lu << 0)  /**< Support Master Power Control*/
 654:../libraries/Storage/sd_mmc_protocol.h **** #define   SDIO_POWER_EMPC       (0x1lu << 1)  /**< Enable Master Power Control */
 655:../libraries/Storage/sd_mmc_protocol.h **** #define SDIO_CCCR_HS          0x13         /**< High-Speed */
 656:../libraries/Storage/sd_mmc_protocol.h **** #define   SDIO_SHS              (0x1lu << 0)  /**< Support High-Speed (RO) */
 657:../libraries/Storage/sd_mmc_protocol.h **** #define   SDIO_EHS              (0x1lu << 1)  /**< Enable High-Speed (R/W) */
 658:../libraries/Storage/sd_mmc_protocol.h ****   //! @}
 659:../libraries/Storage/sd_mmc_protocol.h **** 
 660:../libraries/Storage/sd_mmc_protocol.h ****   //! \name SDIO Card Metaformat
 661:../libraries/Storage/sd_mmc_protocol.h ****   //! @{
 662:../libraries/Storage/sd_mmc_protocol.h **** /** Null tuple (PCMCIA 3.1.9) */
 663:../libraries/Storage/sd_mmc_protocol.h **** #define SDIO_CISTPL_NULL     0x00
 664:../libraries/Storage/sd_mmc_protocol.h **** /** Device tuple (PCMCIA 3.2.2) */
 665:../libraries/Storage/sd_mmc_protocol.h **** #define SDIO_CISTPL_DEVICE   0x01
 666:../libraries/Storage/sd_mmc_protocol.h **** /** Checksum control (PCMCIA 3.1.1) */
 667:../libraries/Storage/sd_mmc_protocol.h **** #define SDIO_CISTPL_CHECKSUM 0x10
 668:../libraries/Storage/sd_mmc_protocol.h **** /** Level 1 version (PCMCIA 3.2.10) */
 669:../libraries/Storage/sd_mmc_protocol.h **** #define SDIO_CISTPL_VERS_1   0x15
 670:../libraries/Storage/sd_mmc_protocol.h **** /** Alternate Language String (PCMCIA 3.2.1) */
 671:../libraries/Storage/sd_mmc_protocol.h **** #define SDIO_CISTPL_ALTSTR   0x16
 672:../libraries/Storage/sd_mmc_protocol.h **** /** Manufacturer Identification String (PCMCIA 3.2.9) */
 673:../libraries/Storage/sd_mmc_protocol.h **** #define SDIO_CISTPL_MANFID   0x20
 674:../libraries/Storage/sd_mmc_protocol.h **** /** Function Identification (PCMCIA 3.2.7) */
 675:../libraries/Storage/sd_mmc_protocol.h **** #define SDIO_CISTPL_FUNCID   0x21
 676:../libraries/Storage/sd_mmc_protocol.h **** /** Function Extensions (PCMCIA 3.2.6) */
 677:../libraries/Storage/sd_mmc_protocol.h **** #define SDIO_CISTPL_FUNCE    0x22
 678:../libraries/Storage/sd_mmc_protocol.h **** /** Additional information for SDIO (PCMCIA 6.1.2) */
ARM GAS  /tmp/ccTIydBQ.s 			page 36


 679:../libraries/Storage/sd_mmc_protocol.h **** #define SDIO_CISTPL_SDIO_STD 0x91
 680:../libraries/Storage/sd_mmc_protocol.h **** /** Reserved for future SDIO (PCMCIA 6.1.3) */
 681:../libraries/Storage/sd_mmc_protocol.h **** #define SDIO_CISTPL_SDIO_EXT 0x92
 682:../libraries/Storage/sd_mmc_protocol.h **** /** The End-of-chain Tuple (PCMCIA 3.1.2) */
 683:../libraries/Storage/sd_mmc_protocol.h **** #define SDIO_CISTPL_END      0xFF
 684:../libraries/Storage/sd_mmc_protocol.h ****   //! @}
 685:../libraries/Storage/sd_mmc_protocol.h **** 
 686:../libraries/Storage/sd_mmc_protocol.h **** //! @}
 687:../libraries/Storage/sd_mmc_protocol.h **** 
 688:../libraries/Storage/sd_mmc_protocol.h **** //! \name CSD, OCR, SCR, Switch status, extend CSD definitions
 689:../libraries/Storage/sd_mmc_protocol.h **** //! @{
 690:../libraries/Storage/sd_mmc_protocol.h **** 
 691:../libraries/Storage/sd_mmc_protocol.h **** /**
 692:../libraries/Storage/sd_mmc_protocol.h ****  * \brief Macro function to extract a bits field from a large SD MMC register
 693:../libraries/Storage/sd_mmc_protocol.h ****  * Used by : CSD, SCR, Switch status
 694:../libraries/Storage/sd_mmc_protocol.h ****  */
 695:../libraries/Storage/sd_mmc_protocol.h **** static inline uint32_t SDMMC_UNSTUFF_BITS(uint8_t *reg, uint16_t reg_size,
 696:../libraries/Storage/sd_mmc_protocol.h **** 		uint16_t pos, uint8_t size)
 697:../libraries/Storage/sd_mmc_protocol.h **** {
 698:../libraries/Storage/sd_mmc_protocol.h **** 	uint32_t value;
 699:../libraries/Storage/sd_mmc_protocol.h **** 	value = reg[((reg_size - pos + 7) / 8) - 1] >> (pos % 8);
 110              		.loc 3 699 0
 111 0006 537D     		ldrb	r3, [r2, #21]	@ zero_extendqisi2
 700:../libraries/Storage/sd_mmc_protocol.h **** 	if (((pos % 8) + size) > 8) {
 701:../libraries/Storage/sd_mmc_protocol.h **** 		value |= (uint32_t)reg[((reg_size - pos + 7) / 8) - 2] << (8 - (pos % 8));
 702:../libraries/Storage/sd_mmc_protocol.h **** 	}
 703:../libraries/Storage/sd_mmc_protocol.h **** 	if (((pos % 8) + size) > 16) {
 704:../libraries/Storage/sd_mmc_protocol.h **** 		value |= (uint32_t)reg[((reg_size - pos + 7) / 8) - 3] << (16 - (pos % 8));
 705:../libraries/Storage/sd_mmc_protocol.h **** 	}
 706:../libraries/Storage/sd_mmc_protocol.h **** 	if (((pos % 8) + size) > 16) {
 707:../libraries/Storage/sd_mmc_protocol.h **** 		value |= (uint32_t)reg[((reg_size - pos + 7) / 8) - 3] << (16 - (pos % 8));
 708:../libraries/Storage/sd_mmc_protocol.h **** 	}
 709:../libraries/Storage/sd_mmc_protocol.h **** 	value &=  ((uint32_t)1 << size) - 1;
 112              		.loc 3 709 0
 113 0008 C3F38303 		ubfx	r3, r3, #2, #4
 114              	.LBE119:
 115              	.LBE118:
 116              		.loc 2 1056 0
 117 000c 013B     		subs	r3, r3, #1
 118 000e 032B     		cmp	r3, #3
 119 0010 40D8     		bhi	.L5
 120 0012 DFE803F0 		tbb	[pc, r3]
 121              	.L7:
 122 0016 3C       		.byte	(.L6-.L7)/2
 123 0017 39       		.byte	(.L8-.L7)/2
 124 0018 36       		.byte	(.L9-.L7)/2
 125 0019 02       		.byte	(.L10-.L7)/2
 126              		.p2align 1
 127              	.L10:
1057:../libraries/Storage/sd_mmc.c **** 	default:
1058:../libraries/Storage/sd_mmc.c **** 	case 0:
1059:../libraries/Storage/sd_mmc.c **** 		sd_mmc_card->version = CARD_VER_MMC_1_2;
1060:../libraries/Storage/sd_mmc.c **** 		break;
1061:../libraries/Storage/sd_mmc.c **** 
1062:../libraries/Storage/sd_mmc.c **** 	case 1:
1063:../libraries/Storage/sd_mmc.c **** 		sd_mmc_card->version = CARD_VER_MMC_1_4;
1064:../libraries/Storage/sd_mmc.c **** 		break;
ARM GAS  /tmp/ccTIydBQ.s 			page 37


1065:../libraries/Storage/sd_mmc.c **** 
1066:../libraries/Storage/sd_mmc.c **** 	case 2:
1067:../libraries/Storage/sd_mmc.c **** 		sd_mmc_card->version = CARD_VER_MMC_2_2;
1068:../libraries/Storage/sd_mmc.c **** 		break;
1069:../libraries/Storage/sd_mmc.c **** 
1070:../libraries/Storage/sd_mmc.c **** 	case 3:
1071:../libraries/Storage/sd_mmc.c **** 		sd_mmc_card->version = CARD_VER_MMC_3;
1072:../libraries/Storage/sd_mmc.c **** 		break;
1073:../libraries/Storage/sd_mmc.c **** 
1074:../libraries/Storage/sd_mmc.c **** 	case 4:
1075:../libraries/Storage/sd_mmc.c **** 		sd_mmc_card->version = CARD_VER_MMC_4;
 128              		.loc 2 1075 0
 129 001a 4023     		movs	r3, #64
 130 001c 9374     		strb	r3, [r2, #18]
 131              	.L11:
 132              	.LVL3:
 133              	.LBB120:
 134              	.LBB121:
 704:../libraries/Storage/sd_mmc_protocol.h **** 	}
 135              		.loc 3 704 0
 136 001e D37E     		ldrb	r3, [r2, #27]	@ zero_extendqisi2
 137              	.LBE121:
 138              	.LBE120:
1076:../libraries/Storage/sd_mmc.c **** 		break;
1077:../libraries/Storage/sd_mmc.c **** 	}
1078:../libraries/Storage/sd_mmc.c **** 
1079:../libraries/Storage/sd_mmc.c **** 	// Get MMC memory max transfer speed in Hz.
1080:../libraries/Storage/sd_mmc.c **** 	tran_speed = CSD_TRAN_SPEED(sd_mmc_card->csd);
1081:../libraries/Storage/sd_mmc.c **** 	unit = sd_mmc_trans_units[tran_speed & 0x7];
1082:../libraries/Storage/sd_mmc.c **** 	mul = mmc_trans_multipliers[(tran_speed >> 3) & 0xF];
1083:../libraries/Storage/sd_mmc.c **** 	sd_mmc_card->clock = unit * mul * 1000;
 139              		.loc 2 1083 0
 140 0020 4FF47A71 		mov	r1, #1000
 141              	.LBB126:
 142              	.LBB127:
 699:../libraries/Storage/sd_mmc_protocol.h **** 	if (((pos % 8) + size) > 8) {
 143              		.loc 3 699 0
 144 0024 107E     		ldrb	r0, [r2, #24]	@ zero_extendqisi2
 145              	.LVL4:
 146              	.LBE127:
 147              	.LBE126:
 148              	.LBB128:
 149              	.LBB122:
 150              		.loc 3 709 0
 151 0026 40F6FF74 		movw	r4, #4095
 701:../libraries/Storage/sd_mmc_protocol.h **** 	}
 152              		.loc 3 701 0
 153 002a 157F     		ldrb	r5, [r2, #28]	@ zero_extendqisi2
 704:../libraries/Storage/sd_mmc_protocol.h **** 	}
 154              		.loc 3 704 0
 155 002c 9B02     		lsls	r3, r3, #10
 156              	.LBE122:
 157              	.LBE128:
1081:../libraries/Storage/sd_mmc.c **** 	mul = mmc_trans_multipliers[(tran_speed >> 3) & 0xF];
 158              		.loc 2 1081 0
 159 002e 00F00707 		and	r7, r0, #7
 160 0032 1B4E     		ldr	r6, .L15+4
ARM GAS  /tmp/ccTIydBQ.s 			page 38


 161              	.LBB129:
 162              	.LBB123:
 707:../libraries/Storage/sd_mmc_protocol.h **** 	}
 163              		.loc 3 707 0
 164 0034 43EA8503 		orr	r3, r3, r5, lsl #2
 699:../libraries/Storage/sd_mmc_protocol.h **** 	if (((pos % 8) + size) > 8) {
 165              		.loc 3 699 0
 166 0038 557F     		ldrb	r5, [r2, #29]	@ zero_extendqisi2
 167              	.LBE123:
 168              	.LBE129:
 169              		.loc 2 1083 0
 170 003a 56F82770 		ldr	r7, [r6, r7, lsl #2]
1082:../libraries/Storage/sd_mmc.c **** 	sd_mmc_card->clock = unit * mul * 1000;
 171              		.loc 2 1082 0
 172 003e C0F3C300 		ubfx	r0, r0, #3, #4
 173              	.LVL5:
 174 0042 184E     		ldr	r6, .L15+8
 175              	.LBB130:
 176              	.LBB124:
 707:../libraries/Storage/sd_mmc_protocol.h **** 	}
 177              		.loc 3 707 0
 178 0044 43EA9513 		orr	r3, r3, r5, lsr #6
 179              	.LBE124:
 180              	.LBE130:
 181              		.loc 2 1083 0
 182 0048 01FB07F1 		mul	r1, r1, r7
 183 004c 56F82000 		ldr	r0, [r6, r0, lsl #2]
 184              	.LBB131:
 185              	.LBB125:
 186              		.loc 3 709 0
 187 0050 C3F30B03 		ubfx	r3, r3, #0, #12
 188              	.LBE125:
 189              	.LBE131:
 190              		.loc 2 1083 0
 191 0054 01FB00F1 		mul	r1, r1, r0
1084:../libraries/Storage/sd_mmc.c **** 
1085:../libraries/Storage/sd_mmc.c **** 	/*
1086:../libraries/Storage/sd_mmc.c **** 	 * Get card capacity.
1087:../libraries/Storage/sd_mmc.c **** 	 * ----------------------------------------------------
1088:../libraries/Storage/sd_mmc.c **** 	 * For normal SD/MMC card:
1089:../libraries/Storage/sd_mmc.c **** 	 * memory capacity = BLOCKNR * BLOCK_LEN
1090:../libraries/Storage/sd_mmc.c **** 	 * Where
1091:../libraries/Storage/sd_mmc.c **** 	 * BLOCKNR = (C_SIZE+1) * MULT
1092:../libraries/Storage/sd_mmc.c **** 	 * MULT = 2 ^ (C_SIZE_MULT+2)       (C_SIZE_MULT < 8)
1093:../libraries/Storage/sd_mmc.c **** 	 * BLOCK_LEN = 2 ^ READ_BL_LEN      (READ_BL_LEN < 12)
1094:../libraries/Storage/sd_mmc.c **** 	 * ----------------------------------------------------
1095:../libraries/Storage/sd_mmc.c **** 	 * For high capacity SD/MMC card:
1096:../libraries/Storage/sd_mmc.c **** 	 * memory capacity = SEC_COUNT * 512 byte
1097:../libraries/Storage/sd_mmc.c **** 	 */
1098:../libraries/Storage/sd_mmc.c **** 	if (MMC_CSD_C_SIZE(sd_mmc_card->csd) != 0xFFF) {
 192              		.loc 2 1098 0
 193 0058 A342     		cmp	r3, r4
1083:../libraries/Storage/sd_mmc.c **** 
 194              		.loc 2 1083 0
 195 005a 5160     		str	r1, [r2, #4]
 196              		.loc 2 1098 0
 197 005c 0FD0     		beq	.L4
ARM GAS  /tmp/ccTIydBQ.s 			page 39


 198              	.LVL6:
 199              	.LBB132:
 200              	.LBB133:
 201              	.LBB134:
 701:../libraries/Storage/sd_mmc_protocol.h **** 	}
 202              		.loc 3 701 0
 203 005e 917F     		ldrb	r1, [r2, #30]	@ zero_extendqisi2
 204              	.LBE134:
 205              	.LBE133:
1099:../libraries/Storage/sd_mmc.c **** 		uint32_t blocknr = ((MMC_CSD_C_SIZE(sd_mmc_card->csd) + 1) *
 206              		.loc 2 1099 0
 207 0060 0133     		adds	r3, r3, #1
 208              	.LBB138:
 209              	.LBB135:
 699:../libraries/Storage/sd_mmc_protocol.h **** 	if (((pos % 8) + size) > 8) {
 210              		.loc 3 699 0
 211 0062 D47F     		ldrb	r4, [r2, #31]	@ zero_extendqisi2
 212              	.LVL7:
 701:../libraries/Storage/sd_mmc_protocol.h **** 	}
 213              		.loc 3 701 0
 214 0064 4900     		lsls	r1, r1, #1
 215              	.LBE135:
 216              	.LBE138:
 217              	.LBB139:
 218              	.LBB140:
 219              		.loc 3 709 0
 220 0066 907E     		ldrb	r0, [r2, #26]	@ zero_extendqisi2
 221              	.LBE140:
 222              	.LBE139:
 223              	.LBB142:
 224              	.LBB136:
 701:../libraries/Storage/sd_mmc_protocol.h **** 	}
 225              		.loc 3 701 0
 226 0068 41EAD411 		orr	r1, r1, r4, lsr #7
 227              	.LVL8:
 228              	.LBE136:
 229              	.LBE142:
 230              	.LBB143:
 231              	.LBB141:
 232              		.loc 3 709 0
 233 006c 00F00F00 		and	r0, r0, #15
 234              	.LBE141:
 235              	.LBE143:
 236              	.LBB144:
 237              	.LBB137:
 238 0070 01F00701 		and	r1, r1, #7
 239              	.LVL9:
 240              	.LBE137:
 241              	.LBE144:
1100:../libraries/Storage/sd_mmc.c **** 			(1 << (MMC_CSD_C_SIZE_MULT(sd_mmc_card->csd) + 2)));
 242              		.loc 2 1100 0
 243 0074 0231     		adds	r1, r1, #2
1099:../libraries/Storage/sd_mmc.c **** 		uint32_t blocknr = ((MMC_CSD_C_SIZE(sd_mmc_card->csd) + 1) *
 244              		.loc 2 1099 0
 245 0076 8B40     		lsls	r3, r3, r1
 246              	.LVL10:
1101:../libraries/Storage/sd_mmc.c **** 		sd_mmc_card->capacity = blocknr *
ARM GAS  /tmp/ccTIydBQ.s 			page 40


 247              		.loc 2 1101 0
 248 0078 8340     		lsls	r3, r3, r0
1102:../libraries/Storage/sd_mmc.c **** 			(1 << MMC_CSD_READ_BL_LEN(sd_mmc_card->csd)) / 1024;
 249              		.loc 2 1102 0
 250 007a 9B0A     		lsrs	r3, r3, #10
1101:../libraries/Storage/sd_mmc.c **** 		sd_mmc_card->capacity = blocknr *
 251              		.loc 2 1101 0
 252 007c 9360     		str	r3, [r2, #8]
 253              	.LVL11:
 254              	.L4:
 255              	.LBE132:
1103:../libraries/Storage/sd_mmc.c **** 	}
1104:../libraries/Storage/sd_mmc.c **** }
 256              		.loc 2 1104 0
 257 007e F0BC     		pop	{r4, r5, r6, r7}
 258              		.cfi_remember_state
 259              		.cfi_restore 7
 260              		.cfi_restore 6
 261              		.cfi_restore 5
 262              		.cfi_restore 4
 263              		.cfi_def_cfa_offset 0
 264 0080 7047     		bx	lr
 265              	.LVL12:
 266              	.L9:
 267              		.cfi_restore_state
1071:../libraries/Storage/sd_mmc.c **** 		break;
 268              		.loc 2 1071 0
 269 0082 3023     		movs	r3, #48
 270 0084 9374     		strb	r3, [r2, #18]
1072:../libraries/Storage/sd_mmc.c **** 
 271              		.loc 2 1072 0
 272 0086 CAE7     		b	.L11
 273              	.L8:
1067:../libraries/Storage/sd_mmc.c **** 		break;
 274              		.loc 2 1067 0
 275 0088 2223     		movs	r3, #34
 276 008a 9374     		strb	r3, [r2, #18]
1068:../libraries/Storage/sd_mmc.c **** 
 277              		.loc 2 1068 0
 278 008c C7E7     		b	.L11
 279              	.L6:
1063:../libraries/Storage/sd_mmc.c **** 		break;
 280              		.loc 2 1063 0
 281 008e 1423     		movs	r3, #20
 282 0090 9374     		strb	r3, [r2, #18]
1064:../libraries/Storage/sd_mmc.c **** 
 283              		.loc 2 1064 0
 284 0092 C4E7     		b	.L11
 285              	.L5:
1059:../libraries/Storage/sd_mmc.c **** 		break;
 286              		.loc 2 1059 0
 287 0094 1223     		movs	r3, #18
 288 0096 9374     		strb	r3, [r2, #18]
1060:../libraries/Storage/sd_mmc.c **** 
 289              		.loc 2 1060 0
 290 0098 C1E7     		b	.L11
 291              	.L16:
ARM GAS  /tmp/ccTIydBQ.s 			page 41


 292 009a 00BF     		.align	2
 293              	.L15:
 294 009c 00000000 		.word	.LANCHOR0
 295 00a0 00000000 		.word	.LANCHOR2
 296 00a4 00000000 		.word	.LANCHOR1
 297              		.cfi_endproc
 298              	.LFE246:
 299              		.size	mmc_decode_csd, .-mmc_decode_csd
 300              		.section	.text.sd_decode_csd,"ax",%progbits
 301              		.align	1
 302              		.p2align 2,,3
 303              		.syntax unified
 304              		.thumb
 305              		.thumb_func
 306              		.fpu fpv5-d16
 307              		.type	sd_decode_csd, %function
 308              	sd_decode_csd:
 309              	.LFB247:
1105:../libraries/Storage/sd_mmc.c **** 
1106:../libraries/Storage/sd_mmc.c **** /**
1107:../libraries/Storage/sd_mmc.c ****  * \brief Decodes SD CSD register
1108:../libraries/Storage/sd_mmc.c ****  */
1109:../libraries/Storage/sd_mmc.c **** static void sd_decode_csd(void)
1110:../libraries/Storage/sd_mmc.c **** {
 310              		.loc 2 1110 0
 311              		.cfi_startproc
 312              		@ args = 0, pretend = 0, frame = 0
 313              		@ frame_needed = 0, uses_anonymous_args = 0
 314              		@ link register save eliminated.
1111:../libraries/Storage/sd_mmc.c ****  	uint32_t unit;
1112:../libraries/Storage/sd_mmc.c **** 	uint32_t mul;
1113:../libraries/Storage/sd_mmc.c **** 	uint32_t tran_speed;
1114:../libraries/Storage/sd_mmc.c **** 
1115:../libraries/Storage/sd_mmc.c **** 	// Get SD memory maximum transfer speed in Hz.
1116:../libraries/Storage/sd_mmc.c **** 	tran_speed = CSD_TRAN_SPEED(sd_mmc_card->csd);
 315              		.loc 2 1116 0
 316 0000 204A     		ldr	r2, .L22
1117:../libraries/Storage/sd_mmc.c **** 	unit = sd_mmc_trans_units[tran_speed & 0x7];
1118:../libraries/Storage/sd_mmc.c **** 	mul = sd_trans_multipliers[(tran_speed >> 3) & 0xF];
1119:../libraries/Storage/sd_mmc.c **** 	sd_mmc_card->clock = unit * mul * 1000;
 317              		.loc 2 1119 0
 318 0002 4FF47A73 		mov	r3, #1000
1116:../libraries/Storage/sd_mmc.c **** 	unit = sd_mmc_trans_units[tran_speed & 0x7];
 319              		.loc 2 1116 0
 320 0006 1268     		ldr	r2, [r2]
 321              	.LVL13:
1110:../libraries/Storage/sd_mmc.c ****  	uint32_t unit;
 322              		.loc 2 1110 0
 323 0008 70B4     		push	{r4, r5, r6}
 324              		.cfi_def_cfa_offset 12
 325              		.cfi_offset 4, -12
 326              		.cfi_offset 5, -8
 327              		.cfi_offset 6, -4
 328              	.LBB145:
 329              	.LBB146:
 699:../libraries/Storage/sd_mmc_protocol.h **** 	if (((pos % 8) + size) > 8) {
 330              		.loc 3 699 0
ARM GAS  /tmp/ccTIydBQ.s 			page 42


 331 000a 117E     		ldrb	r1, [r2, #24]	@ zero_extendqisi2
 332              	.LVL14:
 333              	.LBE146:
 334              	.LBE145:
1117:../libraries/Storage/sd_mmc.c **** 	mul = sd_trans_multipliers[(tran_speed >> 3) & 0xF];
 335              		.loc 2 1117 0
 336 000c 1E4C     		ldr	r4, .L22+4
 337 000e 01F00706 		and	r6, r1, #7
1118:../libraries/Storage/sd_mmc.c **** 	sd_mmc_card->clock = unit * mul * 1000;
 338              		.loc 2 1118 0
 339 0012 1E4D     		ldr	r5, .L22+8
 340 0014 C1F3C301 		ubfx	r1, r1, #3, #4
 341              	.LVL15:
1120:../libraries/Storage/sd_mmc.c **** 
1121:../libraries/Storage/sd_mmc.c **** 	/*
1122:../libraries/Storage/sd_mmc.c **** 	 * Get card capacity.
1123:../libraries/Storage/sd_mmc.c **** 	 * ----------------------------------------------------
1124:../libraries/Storage/sd_mmc.c **** 	 * For normal SD/MMC card:
1125:../libraries/Storage/sd_mmc.c **** 	 * memory capacity = BLOCKNR * BLOCK_LEN
1126:../libraries/Storage/sd_mmc.c **** 	 * Where
1127:../libraries/Storage/sd_mmc.c **** 	 * BLOCKNR = (C_SIZE+1) * MULT
1128:../libraries/Storage/sd_mmc.c **** 	 * MULT = 2 ^ (C_SIZE_MULT+2)       (C_SIZE_MULT < 8)
1129:../libraries/Storage/sd_mmc.c **** 	 * BLOCK_LEN = 2 ^ READ_BL_LEN      (READ_BL_LEN < 12)
1130:../libraries/Storage/sd_mmc.c **** 	 * ----------------------------------------------------
1131:../libraries/Storage/sd_mmc.c **** 	 * For high capacity SD card:
1132:../libraries/Storage/sd_mmc.c **** 	 * memory capacity = (C_SIZE+1) * 512K byte
1133:../libraries/Storage/sd_mmc.c **** 	 */
1134:../libraries/Storage/sd_mmc.c **** 	if (CSD_STRUCTURE_VERSION(sd_mmc_card->csd) >= SD_CSD_VER_2_0) {
 342              		.loc 2 1134 0
 343 0018 507D     		ldrb	r0, [r2, #21]	@ zero_extendqisi2
1119:../libraries/Storage/sd_mmc.c **** 
 344              		.loc 2 1119 0
 345 001a 54F82640 		ldr	r4, [r4, r6, lsl #2]
 346 001e 55F82110 		ldr	r1, [r5, r1, lsl #2]
 347 0022 03FB04F3 		mul	r3, r3, r4
 348 0026 03FB01F3 		mul	r3, r3, r1
 349 002a 5360     		str	r3, [r2, #4]
 350              		.loc 2 1134 0
 351 002c 8309     		lsrs	r3, r0, #6
 352 002e 1BD1     		bne	.L21
 353              	.LVL16:
 354              	.LBB147:
 355              	.LBB148:
 356              	.LBB149:
 704:../libraries/Storage/sd_mmc_protocol.h **** 	}
 357              		.loc 3 704 0
 358 0030 D37E     		ldrb	r3, [r2, #27]	@ zero_extendqisi2
 701:../libraries/Storage/sd_mmc_protocol.h **** 	}
 359              		.loc 3 701 0
 360 0032 107F     		ldrb	r0, [r2, #28]	@ zero_extendqisi2
 704:../libraries/Storage/sd_mmc_protocol.h **** 	}
 361              		.loc 3 704 0
 362 0034 9B02     		lsls	r3, r3, #10
 363              	.LBE149:
 364              	.LBE148:
 365              	.LBB153:
 366              	.LBB154:
ARM GAS  /tmp/ccTIydBQ.s 			page 43


 701:../libraries/Storage/sd_mmc_protocol.h **** 	}
 367              		.loc 3 701 0
 368 0036 917F     		ldrb	r1, [r2, #30]	@ zero_extendqisi2
 369              	.LBE154:
 370              	.LBE153:
 371              	.LBB158:
 372              	.LBB150:
 699:../libraries/Storage/sd_mmc_protocol.h **** 	if (((pos % 8) + size) > 8) {
 373              		.loc 3 699 0
 374 0038 557F     		ldrb	r5, [r2, #29]	@ zero_extendqisi2
 375              	.LVL17:
 707:../libraries/Storage/sd_mmc_protocol.h **** 	}
 376              		.loc 3 707 0
 377 003a 43EA8003 		orr	r3, r3, r0, lsl #2
 378              	.LVL18:
 379              	.LBE150:
 380              	.LBE158:
 381              	.LBB159:
 382              	.LBB155:
 699:../libraries/Storage/sd_mmc_protocol.h **** 	if (((pos % 8) + size) > 8) {
 383              		.loc 3 699 0
 384 003e D47F     		ldrb	r4, [r2, #31]	@ zero_extendqisi2
 701:../libraries/Storage/sd_mmc_protocol.h **** 	}
 385              		.loc 3 701 0
 386 0040 4900     		lsls	r1, r1, #1
 387              	.LBE155:
 388              	.LBE159:
 389              	.LBB160:
 390              	.LBB161:
 391              		.loc 3 709 0
 392 0042 907E     		ldrb	r0, [r2, #26]	@ zero_extendqisi2
 393              	.LBE161:
 394              	.LBE160:
 395              	.LBB163:
 396              	.LBB151:
 707:../libraries/Storage/sd_mmc_protocol.h **** 	}
 397              		.loc 3 707 0
 398 0044 43EA9513 		orr	r3, r3, r5, lsr #6
 399              	.LVL19:
 400              	.LBE151:
 401              	.LBE163:
 402              	.LBB164:
 403              	.LBB156:
 701:../libraries/Storage/sd_mmc_protocol.h **** 	}
 404              		.loc 3 701 0
 405 0048 41EAD411 		orr	r1, r1, r4, lsr #7
 406              	.LVL20:
 407              	.LBE156:
 408              	.LBE164:
 409              	.LBB165:
 410              	.LBB162:
 411              		.loc 3 709 0
 412 004c 00F00F00 		and	r0, r0, #15
 413              	.LBE162:
 414              	.LBE165:
 415              	.LBB166:
 416              	.LBB152:
ARM GAS  /tmp/ccTIydBQ.s 			page 44


 417 0050 C3F30B03 		ubfx	r3, r3, #0, #12
 418              	.LVL21:
 419              	.LBE152:
 420              	.LBE166:
 421              	.LBB167:
 422              	.LBB157:
 423 0054 01F00701 		and	r1, r1, #7
 424              	.LVL22:
 425              	.LBE157:
 426              	.LBE167:
1135:../libraries/Storage/sd_mmc.c **** 		sd_mmc_card->capacity =
1136:../libraries/Storage/sd_mmc.c **** 				(SD_CSD_2_0_C_SIZE(sd_mmc_card->csd) + 1)
1137:../libraries/Storage/sd_mmc.c **** 				* 512;
1138:../libraries/Storage/sd_mmc.c **** 	} else {
1139:../libraries/Storage/sd_mmc.c **** 		uint32_t blocknr = ((SD_CSD_1_0_C_SIZE(sd_mmc_card->csd) + 1) *
 427              		.loc 2 1139 0
 428 0058 0133     		adds	r3, r3, #1
1140:../libraries/Storage/sd_mmc.c **** 				(1 << (SD_CSD_1_0_C_SIZE_MULT(sd_mmc_card->csd) + 2)));
 429              		.loc 2 1140 0
 430 005a 0231     		adds	r1, r1, #2
1139:../libraries/Storage/sd_mmc.c **** 				(1 << (SD_CSD_1_0_C_SIZE_MULT(sd_mmc_card->csd) + 2)));
 431              		.loc 2 1139 0
 432 005c 8B40     		lsls	r3, r3, r1
1141:../libraries/Storage/sd_mmc.c **** 		sd_mmc_card->capacity = blocknr *
 433              		.loc 2 1141 0
 434 005e 8340     		lsls	r3, r3, r0
1142:../libraries/Storage/sd_mmc.c **** 				(1 << SD_CSD_1_0_READ_BL_LEN(sd_mmc_card->csd))
1143:../libraries/Storage/sd_mmc.c **** 				/ 1024;
 435              		.loc 2 1143 0
 436 0060 9B0A     		lsrs	r3, r3, #10
 437              	.LBE147:
1144:../libraries/Storage/sd_mmc.c **** 	}
1145:../libraries/Storage/sd_mmc.c **** }
 438              		.loc 2 1145 0
 439 0062 70BC     		pop	{r4, r5, r6}
 440              		.cfi_remember_state
 441              		.cfi_restore 6
 442              		.cfi_restore 5
 443              		.cfi_restore 4
 444              		.cfi_def_cfa_offset 0
 445              	.LVL23:
 446              	.LBB168:
1141:../libraries/Storage/sd_mmc.c **** 				(1 << SD_CSD_1_0_READ_BL_LEN(sd_mmc_card->csd))
 447              		.loc 2 1141 0
 448 0064 9360     		str	r3, [r2, #8]
 449              	.LBE168:
 450              		.loc 2 1145 0
 451 0066 7047     		bx	lr
 452              	.LVL24:
 453              	.L21:
 454              		.cfi_restore_state
 455              	.LBB169:
 456              	.LBB170:
 704:../libraries/Storage/sd_mmc_protocol.h **** 	}
 457              		.loc 3 704 0
 458 0068 137F     		ldrb	r3, [r2, #28]	@ zero_extendqisi2
 701:../libraries/Storage/sd_mmc_protocol.h **** 	}
ARM GAS  /tmp/ccTIydBQ.s 			page 45


 459              		.loc 3 701 0
 460 006a 507F     		ldrb	r0, [r2, #29]	@ zero_extendqisi2
 704:../libraries/Storage/sd_mmc_protocol.h **** 	}
 461              		.loc 3 704 0
 462 006c 1B04     		lsls	r3, r3, #16
 699:../libraries/Storage/sd_mmc_protocol.h **** 	if (((pos % 8) + size) > 8) {
 463              		.loc 3 699 0
 464 006e 917F     		ldrb	r1, [r2, #30]	@ zero_extendqisi2
 465              	.LVL25:
 707:../libraries/Storage/sd_mmc_protocol.h **** 	}
 466              		.loc 3 707 0
 467 0070 43EA0023 		orr	r3, r3, r0, lsl #8
 468              	.LVL26:
 469 0074 0B43     		orrs	r3, r3, r1
 470              	.LVL27:
 471              		.loc 3 709 0
 472 0076 C3F31503 		ubfx	r3, r3, #0, #22
 473              	.LBE170:
 474              	.LBE169:
1137:../libraries/Storage/sd_mmc.c **** 	} else {
 475              		.loc 2 1137 0
 476 007a 0133     		adds	r3, r3, #1
 477 007c 5B02     		lsls	r3, r3, #9
 478              		.loc 2 1145 0
 479 007e 70BC     		pop	{r4, r5, r6}
 480              		.cfi_restore 4
 481              		.cfi_restore 5
 482              		.cfi_restore 6
 483              		.cfi_def_cfa_offset 0
1135:../libraries/Storage/sd_mmc.c **** 				(SD_CSD_2_0_C_SIZE(sd_mmc_card->csd) + 1)
 484              		.loc 2 1135 0
 485 0080 9360     		str	r3, [r2, #8]
 486              		.loc 2 1145 0
 487 0082 7047     		bx	lr
 488              	.L23:
 489              		.align	2
 490              	.L22:
 491 0084 00000000 		.word	.LANCHOR0
 492 0088 00000000 		.word	.LANCHOR2
 493 008c 00000000 		.word	.LANCHOR3
 494              		.cfi_endproc
 495              	.LFE247:
 496              		.size	sd_decode_csd, .-sd_decode_csd
 497              		.section	.text.sd_mmc_cmd13,"ax",%progbits
 498              		.align	1
 499              		.p2align 2,,3
 500              		.syntax unified
 501              		.thumb
 502              		.thumb_func
 503              		.fpu fpv5-d16
 504              		.type	sd_mmc_cmd13, %function
 505              	sd_mmc_cmd13:
 506              	.LFB248:
1146:../libraries/Storage/sd_mmc.c **** 
1147:../libraries/Storage/sd_mmc.c **** /**
1148:../libraries/Storage/sd_mmc.c ****  * \brief CMD13 - Addressed card sends its status register.
1149:../libraries/Storage/sd_mmc.c ****  * This function waits the clear of the busy flag
ARM GAS  /tmp/ccTIydBQ.s 			page 46


1150:../libraries/Storage/sd_mmc.c ****  *
1151:../libraries/Storage/sd_mmc.c ****  * \return true if success, otherwise false
1152:../libraries/Storage/sd_mmc.c ****  */
1153:../libraries/Storage/sd_mmc.c **** static bool sd_mmc_cmd13(void)
1154:../libraries/Storage/sd_mmc.c **** {
 507              		.loc 2 1154 0
 508              		.cfi_startproc
 509              		@ args = 0, pretend = 0, frame = 0
 510              		@ frame_needed = 0, uses_anonymous_args = 0
 511              	.LVL28:
 512 0000 70B5     		push	{r4, r5, r6, lr}
 513              		.cfi_def_cfa_offset 16
 514              		.cfi_offset 4, -16
 515              		.cfi_offset 5, -12
 516              		.cfi_offset 6, -8
 517              		.cfi_offset 14, -4
 518              		.loc 2 1154 0
 519 0002 144C     		ldr	r4, .L43
 520 0004 144D     		ldr	r5, .L43+4
 521 0006 0BE0     		b	.L30
 522              	.LVL29:
 523              	.L42:
1155:../libraries/Storage/sd_mmc.c **** 	uint32_t nec_timeout;
1156:../libraries/Storage/sd_mmc.c **** 
1157:../libraries/Storage/sd_mmc.c **** 	/* Wait for data ready status.
1158:../libraries/Storage/sd_mmc.c **** 	 * Nec timing: 0 to unlimited
1159:../libraries/Storage/sd_mmc.c **** 	 * However a timeout is used.
1160:../libraries/Storage/sd_mmc.c **** 	 * 200 000 * 8 cycles
1161:../libraries/Storage/sd_mmc.c **** 	 */
1162:../libraries/Storage/sd_mmc.c **** 	nec_timeout = 200000;
1163:../libraries/Storage/sd_mmc.c **** 	do {
1164:../libraries/Storage/sd_mmc.c **** 		if (sd_mmc_card->iface->is_spi) {
1165:../libraries/Storage/sd_mmc.c **** 			if (!sd_mmc_card->iface->send_cmd(SDMMC_SPI_CMD13_SEND_STATUS, 0)) {
 524              		.loc 2 1165 0
 525 0008 5B69     		ldr	r3, [r3, #20]
 526 000a 9847     		blx	r3
 527              	.LVL30:
 528 000c 00B3     		cbz	r0, .L29
1166:../libraries/Storage/sd_mmc.c **** 				return false;
1167:../libraries/Storage/sd_mmc.c **** 			}
1168:../libraries/Storage/sd_mmc.c **** 			// Check busy flag
1169:../libraries/Storage/sd_mmc.c **** 			if (!(sd_mmc_card->iface->get_response() & 0xFF)) {
 529              		.loc 2 1169 0
 530 000e 2B68     		ldr	r3, [r5]
 531 0010 1B68     		ldr	r3, [r3]
 532 0012 9B69     		ldr	r3, [r3, #24]
 533 0014 9847     		blx	r3
 534              	.LVL31:
 535 0016 10F0FF0F 		tst	r0, #255
 536 001a 17D0     		beq	.L28
 537              	.L31:
 538              	.LVL32:
1170:../libraries/Storage/sd_mmc.c **** 				break;
1171:../libraries/Storage/sd_mmc.c **** 			}
1172:../libraries/Storage/sd_mmc.c **** 		} else {
1173:../libraries/Storage/sd_mmc.c **** 			if (!sd_mmc_card->iface->send_cmd(SDMMC_MCI_CMD13_SEND_STATUS, (uint32_t)sd_mmc_card->rca << 16)
1174:../libraries/Storage/sd_mmc.c **** 				return false;
ARM GAS  /tmp/ccTIydBQ.s 			page 47


1175:../libraries/Storage/sd_mmc.c **** 			}
1176:../libraries/Storage/sd_mmc.c **** 			// Check busy flag
1177:../libraries/Storage/sd_mmc.c **** 			if (sd_mmc_card->iface->get_response() & CARD_STATUS_READY_FOR_DATA) {
1178:../libraries/Storage/sd_mmc.c **** 				break;
1179:../libraries/Storage/sd_mmc.c **** 			}
1180:../libraries/Storage/sd_mmc.c **** 		}
1181:../libraries/Storage/sd_mmc.c **** 		if (nec_timeout-- == 0) {
 539              		.loc 2 1181 0
 540 001c 013C     		subs	r4, r4, #1
 541              	.LVL33:
 542 001e 17D0     		beq	.L29
 543              	.LVL34:
 544              	.L30:
1164:../libraries/Storage/sd_mmc.c **** 			if (!sd_mmc_card->iface->send_cmd(SDMMC_SPI_CMD13_SEND_STATUS, 0)) {
 545              		.loc 2 1164 0
 546 0020 2A68     		ldr	r2, [r5]
1165:../libraries/Storage/sd_mmc.c **** 				return false;
 547              		.loc 2 1165 0
 548 0022 0021     		movs	r1, #0
 549 0024 41F60D30 		movw	r0, #6925
1164:../libraries/Storage/sd_mmc.c **** 			if (!sd_mmc_card->iface->send_cmd(SDMMC_SPI_CMD13_SEND_STATUS, 0)) {
 550              		.loc 2 1164 0
 551 0028 1368     		ldr	r3, [r2]
 552 002a 93F84860 		ldrb	r6, [r3, #72]	@ zero_extendqisi2
 553 002e 002E     		cmp	r6, #0
 554 0030 EAD1     		bne	.L42
1173:../libraries/Storage/sd_mmc.c **** 				return false;
 555              		.loc 2 1173 0
 556 0032 D189     		ldrh	r1, [r2, #14]
 557 0034 41F20D10 		movw	r0, #4365
 558 0038 5B69     		ldr	r3, [r3, #20]
 559 003a 0904     		lsls	r1, r1, #16
 560 003c 9847     		blx	r3
 561              	.LVL35:
 562 003e 38B1     		cbz	r0, .L29
1177:../libraries/Storage/sd_mmc.c **** 				break;
 563              		.loc 2 1177 0
 564 0040 2B68     		ldr	r3, [r5]
 565 0042 1B68     		ldr	r3, [r3]
 566 0044 9B69     		ldr	r3, [r3, #24]
 567 0046 9847     		blx	r3
 568              	.LVL36:
 569 0048 C305     		lsls	r3, r0, #23
 570 004a E7D5     		bpl	.L31
 571              	.L28:
1182:../libraries/Storage/sd_mmc.c **** 			sd_mmc_debug("%s: CMD13 Busy timeout\n\r", __func__);
1183:../libraries/Storage/sd_mmc.c **** 			return false;
1184:../libraries/Storage/sd_mmc.c **** 		}
1185:../libraries/Storage/sd_mmc.c **** 	} while (1);
1186:../libraries/Storage/sd_mmc.c **** 
1187:../libraries/Storage/sd_mmc.c **** 	return true;
 572              		.loc 2 1187 0
 573 004c 0120     		movs	r0, #1
 574 004e 70BD     		pop	{r4, r5, r6, pc}
 575              	.LVL37:
 576              	.L29:
1166:../libraries/Storage/sd_mmc.c **** 			}
ARM GAS  /tmp/ccTIydBQ.s 			page 48


 577              		.loc 2 1166 0
 578 0050 0020     		movs	r0, #0
 579 0052 70BD     		pop	{r4, r5, r6, pc}
 580              	.L44:
 581              		.align	2
 582              	.L43:
 583 0054 410D0300 		.word	200001
 584 0058 00000000 		.word	.LANCHOR0
 585              		.cfi_endproc
 586              	.LFE248:
 587              		.size	sd_mmc_cmd13, .-sd_mmc_cmd13
 588              		.section	.text.sd_cmd8,"ax",%progbits
 589              		.align	1
 590              		.p2align 2,,3
 591              		.syntax unified
 592              		.thumb
 593              		.thumb_func
 594              		.fpu fpv5-d16
 595              		.type	sd_cmd8, %function
 596              	sd_cmd8:
 597              	.LFB242:
 938:../libraries/Storage/sd_mmc.c **** 	uint32_t resp;
 598              		.loc 2 938 0
 599              		.cfi_startproc
 600              		@ args = 0, pretend = 0, frame = 0
 601              		@ frame_needed = 0, uses_anonymous_args = 0
 602              	.LVL38:
 603 0000 F8B5     		push	{r3, r4, r5, r6, r7, lr}
 604              		.cfi_def_cfa_offset 24
 605              		.cfi_offset 3, -24
 606              		.cfi_offset 4, -20
 607              		.cfi_offset 5, -16
 608              		.cfi_offset 6, -12
 609              		.cfi_offset 7, -8
 610              		.cfi_offset 14, -4
 943:../libraries/Storage/sd_mmc.c **** 			SD_CMD8_PATTERN | SD_CMD8_HIGH_VOLTAGE)) {
 611              		.loc 2 943 0
 612 0002 114D     		ldr	r5, .L55
 938:../libraries/Storage/sd_mmc.c **** 	uint32_t resp;
 613              		.loc 2 938 0
 614 0004 0746     		mov	r7, r0
 941:../libraries/Storage/sd_mmc.c **** 	// Test for SD version 2
 615              		.loc 2 941 0
 616 0006 0026     		movs	r6, #0
 943:../libraries/Storage/sd_mmc.c **** 			SD_CMD8_PATTERN | SD_CMD8_HIGH_VOLTAGE)) {
 617              		.loc 2 943 0
 618 0008 4FF4D571 		mov	r1, #426
 619 000c 2B68     		ldr	r3, [r5]
 620 000e 45F20850 		movw	r0, #21768
 621              	.LVL39:
 941:../libraries/Storage/sd_mmc.c **** 	// Test for SD version 2
 622              		.loc 2 941 0
 623 0012 3E70     		strb	r6, [r7]
 943:../libraries/Storage/sd_mmc.c **** 			SD_CMD8_PATTERN | SD_CMD8_HIGH_VOLTAGE)) {
 624              		.loc 2 943 0
 625 0014 1B68     		ldr	r3, [r3]
 626 0016 5B69     		ldr	r3, [r3, #20]
ARM GAS  /tmp/ccTIydBQ.s 			page 49


 627 0018 9847     		blx	r3
 628              	.LVL40:
 629 001a 10B9     		cbnz	r0, .L46
 630              	.L48:
 945:../libraries/Storage/sd_mmc.c **** 	}
 631              		.loc 2 945 0
 632 001c 0124     		movs	r4, #1
 962:../libraries/Storage/sd_mmc.c **** 
 633              		.loc 2 962 0
 634 001e 2046     		mov	r0, r4
 635 0020 F8BD     		pop	{r3, r4, r5, r6, r7, pc}
 636              	.LVL41:
 637              	.L46:
 638              	.LBB173:
 639              	.LBB174:
 948:../libraries/Storage/sd_mmc.c **** 	if (resp == 0xFFFFFFFF) {
 640              		.loc 2 948 0
 641 0022 2B68     		ldr	r3, [r5]
 642 0024 0446     		mov	r4, r0
 643              	.LVL42:
 644 0026 1B68     		ldr	r3, [r3]
 645 0028 9B69     		ldr	r3, [r3, #24]
 646 002a 9847     		blx	r3
 647              	.LVL43:
 949:../libraries/Storage/sd_mmc.c **** 		// No compliance R7 value
 648              		.loc 2 949 0
 649 002c 431C     		adds	r3, r0, #1
 650 002e F5D0     		beq	.L48
 953:../libraries/Storage/sd_mmc.c **** 				!= (SD_CMD8_PATTERN | SD_CMD8_HIGH_VOLTAGE)) {
 651              		.loc 2 953 0
 652 0030 C0F30B00 		ubfx	r0, r0, #0, #12
 653              	.LVL44:
 654 0034 B0F5D57F 		cmp	r0, #426
 655 0038 02D0     		beq	.L54
 957:../libraries/Storage/sd_mmc.c **** 	}
 656              		.loc 2 957 0
 657 003a 3446     		mov	r4, r6
 658              	.LBE174:
 659              	.LBE173:
 962:../libraries/Storage/sd_mmc.c **** 
 660              		.loc 2 962 0
 661 003c 2046     		mov	r0, r4
 662 003e F8BD     		pop	{r3, r4, r5, r6, r7, pc}
 663              	.LVL45:
 664              	.L54:
 665              	.LBB177:
 666              	.LBB175:
 960:../libraries/Storage/sd_mmc.c **** 	return true;
 667              		.loc 2 960 0
 668 0040 0123     		movs	r3, #1
 669              	.LVL46:
 670              	.LBE175:
 671              	.LBE177:
 962:../libraries/Storage/sd_mmc.c **** 
 672              		.loc 2 962 0
 673 0042 2046     		mov	r0, r4
 674              	.LBB178:
ARM GAS  /tmp/ccTIydBQ.s 			page 50


 675              	.LBB176:
 960:../libraries/Storage/sd_mmc.c **** 	return true;
 676              		.loc 2 960 0
 677 0044 3B70     		strb	r3, [r7]
 678              	.LBE176:
 679              	.LBE178:
 962:../libraries/Storage/sd_mmc.c **** 
 680              		.loc 2 962 0
 681 0046 F8BD     		pop	{r3, r4, r5, r6, r7, pc}
 682              	.LVL47:
 683              	.L56:
 684              		.align	2
 685              	.L55:
 686 0048 00000000 		.word	.LANCHOR0
 687              		.cfi_endproc
 688              	.LFE242:
 689              		.size	sd_cmd8, .-sd_cmd8
 690              		.section	.text.mmc_cmd8,"ax",%progbits
 691              		.align	1
 692              		.p2align 2,,3
 693              		.syntax unified
 694              		.thumb
 695              		.thumb_func
 696              		.fpu fpv5-d16
 697              		.type	mmc_cmd8, %function
 698              	mmc_cmd8:
 699              	.LFB243:
 973:../libraries/Storage/sd_mmc.c **** 	uint16_t i;
 700              		.loc 2 973 0
 701              		.cfi_startproc
 702              		@ args = 0, pretend = 0, frame = 8
 703              		@ frame_needed = 0, uses_anonymous_args = 0
 704              	.LVL48:
 705 0000 F0B5     		push	{r4, r5, r6, r7, lr}
 706              		.cfi_def_cfa_offset 20
 707              		.cfi_offset 4, -20
 708              		.cfi_offset 5, -16
 709              		.cfi_offset 6, -12
 710              		.cfi_offset 7, -8
 711              		.cfi_offset 14, -4
 978:../libraries/Storage/sd_mmc.c **** 			EXT_CSD_BSIZE, 1, false)) {
 712              		.loc 2 978 0
 713 0002 2A4D     		ldr	r5, .L86
 714 0004 0024     		movs	r4, #0
 973:../libraries/Storage/sd_mmc.c **** 	uint16_t i;
 715              		.loc 2 973 0
 716 0006 85B0     		sub	sp, sp, #20
 717              		.cfi_def_cfa_offset 40
 973:../libraries/Storage/sd_mmc.c **** 	uint16_t i;
 718              		.loc 2 973 0
 719 0008 0646     		mov	r6, r0
 978:../libraries/Storage/sd_mmc.c **** 			EXT_CSD_BSIZE, 1, false)) {
 720              		.loc 2 978 0
 721 000a 2F68     		ldr	r7, [r5]
 722 000c 2146     		mov	r1, r4
 723 000e 0123     		movs	r3, #1
 724 0010 4FF40072 		mov	r2, #512
ARM GAS  /tmp/ccTIydBQ.s 			page 51


 725 0014 3F68     		ldr	r7, [r7]
 726 0016 0094     		str	r4, [sp]
 727 0018 2548     		ldr	r0, .L86+4
 728              	.LVL49:
 729 001a 3C6A     		ldr	r4, [r7, #32]
 730 001c A047     		blx	r4
 731              	.LVL50:
 732 001e 60B1     		cbz	r0, .L58
 733 0020 3224     		movs	r4, #50
 734 0022 01E0     		b	.L61
 735              	.LVL51:
 736              	.L59:
 737 0024 A4B2     		uxth	r4, r4
 738              	.LBB183:
 739              	.LBB184:
 987:../libraries/Storage/sd_mmc.c **** 		if (!sd_mmc_card->iface->read_word(&ext_csd)) {
 740              		.loc 2 987 0
 741 0026 54B1     		cbz	r4, .L82
 742              	.L61:
 743              	.LVL52:
 988:../libraries/Storage/sd_mmc.c **** 			return false;
 744              		.loc 2 988 0
 745 0028 2B68     		ldr	r3, [r5]
 746 002a 02A8     		add	r0, sp, #8
 747 002c 013C     		subs	r4, r4, #1
 748              	.LVL53:
 749 002e 1B68     		ldr	r3, [r3]
 750 0030 9B6A     		ldr	r3, [r3, #40]
 751 0032 9847     		blx	r3
 752              	.LVL54:
 753 0034 0028     		cmp	r0, #0
 754 0036 F5D1     		bne	.L59
 755              	.LVL55:
 756              	.L63:
 989:../libraries/Storage/sd_mmc.c **** 		}
 757              		.loc 2 989 0
 758 0038 0020     		movs	r0, #0
 759              	.L58:
 760              	.LBE184:
 761              	.LBE183:
1011:../libraries/Storage/sd_mmc.c **** 
 762              		.loc 2 1011 0
 763 003a 05B0     		add	sp, sp, #20
 764              		.cfi_remember_state
 765              		.cfi_def_cfa_offset 20
 766              		@ sp needed
 767 003c F0BD     		pop	{r4, r5, r6, r7, pc}
 768              	.LVL56:
 769              	.L82:
 770              		.cfi_restore_state
 771              	.LBB190:
 772              	.LBB189:
 993:../libraries/Storage/sd_mmc.c **** 
 773              		.loc 2 993 0
 774 003e 029A     		ldr	r2, [sp, #8]
 775              	.LBB185:
 776              	.LBB186:
ARM GAS  /tmp/ccTIydBQ.s 			page 52


 777              		.loc 3 709 0
 778 0040 40F6FF71 		movw	r1, #4095
 779              	.LBE186:
 780              	.LBE185:
 995:../libraries/Storage/sd_mmc.c **** 		// For high capacity SD/MMC card,
 781              		.loc 2 995 0
 782 0044 2B68     		ldr	r3, [r5]
 783              	.LVL57:
 993:../libraries/Storage/sd_mmc.c **** 
 784              		.loc 2 993 0
 785 0046 02F00202 		and	r2, r2, #2
 992:../libraries/Storage/sd_mmc.c **** 			& MMC_CTYPE_52MHZ;
 786              		.loc 2 992 0
 787 004a 3270     		strb	r2, [r6]
 788              	.LBB188:
 789              	.LBB187:
 704:../libraries/Storage/sd_mmc_protocol.h **** 	}
 790              		.loc 3 704 0
 791 004c DA7E     		ldrb	r2, [r3, #27]	@ zero_extendqisi2
 701:../libraries/Storage/sd_mmc_protocol.h **** 	}
 792              		.loc 3 701 0
 793 004e 1C7F     		ldrb	r4, [r3, #28]	@ zero_extendqisi2
 704:../libraries/Storage/sd_mmc_protocol.h **** 	}
 794              		.loc 3 704 0
 795 0050 9202     		lsls	r2, r2, #10
 699:../libraries/Storage/sd_mmc_protocol.h **** 	if (((pos % 8) + size) > 8) {
 796              		.loc 3 699 0
 797 0052 587F     		ldrb	r0, [r3, #29]	@ zero_extendqisi2
 798              	.LVL58:
 707:../libraries/Storage/sd_mmc_protocol.h **** 	}
 799              		.loc 3 707 0
 800 0054 42EA8402 		orr	r2, r2, r4, lsl #2
 801              	.LVL59:
 802 0058 42EA9012 		orr	r2, r2, r0, lsr #6
 803              	.LVL60:
 804              		.loc 3 709 0
 805 005c C2F30B02 		ubfx	r2, r2, #0, #12
 806              	.LBE187:
 807              	.LBE188:
 995:../libraries/Storage/sd_mmc.c **** 		// For high capacity SD/MMC card,
 808              		.loc 2 995 0
 809 0060 8A42     		cmp	r2, r1
 810 0062 0ED0     		beq	.L83
 811 0064 3224     		movs	r4, #50
 812 0066 03AE     		add	r6, sp, #12
 813              	.LVL61:
 814 0068 03E0     		b	.L66
 815              	.L84:
1005:../libraries/Storage/sd_mmc.c **** 		if (!sd_mmc_card->iface->read_word(&sec_count)) {
 816              		.loc 2 1005 0
 817 006a A4B2     		uxth	r4, r4
 818              	.LVL62:
 819 006c 802C     		cmp	r4, #128
 820 006e E4D0     		beq	.L58
 821 0070 2B68     		ldr	r3, [r5]
 822              	.LVL63:
 823              	.L66:
ARM GAS  /tmp/ccTIydBQ.s 			page 53


1006:../libraries/Storage/sd_mmc.c **** 			return false;
 824              		.loc 2 1006 0
 825 0072 1B68     		ldr	r3, [r3]
 826 0074 3046     		mov	r0, r6
1005:../libraries/Storage/sd_mmc.c **** 		if (!sd_mmc_card->iface->read_word(&sec_count)) {
 827              		.loc 2 1005 0
 828 0076 0134     		adds	r4, r4, #1
 829              	.LVL64:
1006:../libraries/Storage/sd_mmc.c **** 			return false;
 830              		.loc 2 1006 0
 831 0078 9B6A     		ldr	r3, [r3, #40]
 832 007a 9847     		blx	r3
 833              	.LVL65:
 834 007c 0028     		cmp	r0, #0
 835 007e F4D1     		bne	.L84
 836 0080 DAE7     		b	.L63
 837              	.LVL66:
 838              	.L83:
 995:../libraries/Storage/sd_mmc.c **** 		// For high capacity SD/MMC card,
 839              		.loc 2 995 0
 840 0082 0424     		movs	r4, #4
 841 0084 03AE     		add	r6, sp, #12
 842              	.LVL67:
 843 0086 00E0     		b	.L65
 844              	.LVL68:
 845              	.L85:
 846 0088 2B68     		ldr	r3, [r5]
 847              	.LVL69:
 848              	.L65:
 999:../libraries/Storage/sd_mmc.c **** 				return false;
 849              		.loc 2 999 0
 850 008a 1B68     		ldr	r3, [r3]
 851 008c 3046     		mov	r0, r6
 852 008e 013C     		subs	r4, r4, #1
 853              	.LVL70:
 854 0090 9B6A     		ldr	r3, [r3, #40]
 855 0092 9847     		blx	r3
 856              	.LVL71:
 857 0094 0028     		cmp	r0, #0
 858 0096 CFD0     		beq	.L63
 859 0098 A4B2     		uxth	r4, r4
 860              	.LVL72:
 998:../libraries/Storage/sd_mmc.c **** 			if (!sd_mmc_card->iface->read_word(&sec_count)) {
 861              		.loc 2 998 0
 862 009a 002C     		cmp	r4, #0
 863 009c F4D1     		bne	.L85
1003:../libraries/Storage/sd_mmc.c **** 	}
 864              		.loc 2 1003 0
 865 009e 039A     		ldr	r2, [sp, #12]
 866 00a0 3624     		movs	r4, #54
 867              	.LVL73:
 868 00a2 2B68     		ldr	r3, [r5]
 869 00a4 5208     		lsrs	r2, r2, #1
 870 00a6 9A60     		str	r2, [r3, #8]
 871 00a8 E3E7     		b	.L66
 872              	.L87:
 873 00aa 00BF     		.align	2
ARM GAS  /tmp/ccTIydBQ.s 			page 54


 874              	.L86:
 875 00ac 00000000 		.word	.LANCHOR0
 876 00b0 08110800 		.word	528648
 877              	.LBE189:
 878              	.LBE190:
 879              		.cfi_endproc
 880              	.LFE243:
 881              		.size	mmc_cmd8, .-mmc_cmd8
 882              		.section	.text.sd_mmc_cmd9_spi,"ax",%progbits
 883              		.align	1
 884              		.p2align 2,,3
 885              		.syntax unified
 886              		.thumb
 887              		.thumb_func
 888              		.fpu fpv5-d16
 889              		.type	sd_mmc_cmd9_spi, %function
 890              	sd_mmc_cmd9_spi:
 891              	.LFB244:
1020:../libraries/Storage/sd_mmc.c **** 	if (!sd_mmc_card->iface->adtc_start(SDMMC_SPI_CMD9_SEND_CSD, (uint32_t)sd_mmc_card->rca << 16,
 892              		.loc 2 1020 0
 893              		.cfi_startproc
 894              		@ args = 0, pretend = 0, frame = 0
 895              		@ frame_needed = 0, uses_anonymous_args = 0
 896 0000 70B5     		push	{r4, r5, r6, lr}
 897              		.cfi_def_cfa_offset 16
 898              		.cfi_offset 4, -16
 899              		.cfi_offset 5, -12
 900              		.cfi_offset 6, -8
 901              		.cfi_offset 14, -4
1021:../libraries/Storage/sd_mmc.c **** 			CSD_REG_BSIZE, 1, true)) {
 902              		.loc 2 1021 0
 903 0002 104E     		ldr	r6, .L97
1020:../libraries/Storage/sd_mmc.c **** 	if (!sd_mmc_card->iface->adtc_start(SDMMC_SPI_CMD9_SEND_CSD, (uint32_t)sd_mmc_card->rca << 16,
 904              		.loc 2 1020 0
 905 0004 82B0     		sub	sp, sp, #8
 906              		.cfi_def_cfa_offset 24
1021:../libraries/Storage/sd_mmc.c **** 			CSD_REG_BSIZE, 1, true)) {
 907              		.loc 2 1021 0
 908 0006 0124     		movs	r4, #1
 909 0008 1022     		movs	r2, #16
 910 000a 3568     		ldr	r5, [r6]
 911 000c 0E48     		ldr	r0, .L97+4
 912 000e 2346     		mov	r3, r4
 913 0010 E989     		ldrh	r1, [r5, #14]
 914 0012 2D68     		ldr	r5, [r5]
 915 0014 9140     		lsls	r1, r1, r2
 916 0016 0094     		str	r4, [sp]
 917 0018 2D6A     		ldr	r5, [r5, #32]
 918 001a A847     		blx	r5
 919              	.LVL74:
 920 001c 10B9     		cbnz	r0, .L96
 921              	.L90:
1029:../libraries/Storage/sd_mmc.c **** 
 922              		.loc 2 1029 0
 923 001e 0020     		movs	r0, #0
 924 0020 02B0     		add	sp, sp, #8
 925              		.cfi_remember_state
ARM GAS  /tmp/ccTIydBQ.s 			page 55


 926              		.cfi_def_cfa_offset 16
 927              		@ sp needed
 928 0022 70BD     		pop	{r4, r5, r6, pc}
 929              	.L96:
 930              		.cfi_restore_state
1025:../libraries/Storage/sd_mmc.c **** 		return false;
 931              		.loc 2 1025 0
 932 0024 3068     		ldr	r0, [r6]
 933 0026 2146     		mov	r1, r4
 934 0028 0368     		ldr	r3, [r0]
 935 002a 1530     		adds	r0, r0, #21
 936 002c 1B6B     		ldr	r3, [r3, #48]
 937 002e 9847     		blx	r3
 938              	.LVL75:
 939 0030 0028     		cmp	r0, #0
 940 0032 F4D0     		beq	.L90
 941              	.LBB193:
 942              	.LBB194:
1028:../libraries/Storage/sd_mmc.c **** }
 943              		.loc 2 1028 0
 944 0034 3368     		ldr	r3, [r6]
 945 0036 1B68     		ldr	r3, [r3]
 946 0038 5B6B     		ldr	r3, [r3, #52]
 947              	.LBE194:
 948              	.LBE193:
1029:../libraries/Storage/sd_mmc.c **** 
 949              		.loc 2 1029 0
 950 003a 02B0     		add	sp, sp, #8
 951              		.cfi_def_cfa_offset 16
 952              		@ sp needed
 953 003c BDE87040 		pop	{r4, r5, r6, lr}
 954              		.cfi_restore 14
 955              		.cfi_restore 6
 956              		.cfi_restore 5
 957              		.cfi_restore 4
 958              		.cfi_def_cfa_offset 0
 959              	.LBB196:
 960              	.LBB195:
1028:../libraries/Storage/sd_mmc.c **** }
 961              		.loc 2 1028 0
 962 0040 1847     		bx	r3
 963              	.LVL76:
 964              	.L98:
 965 0042 00BF     		.align	2
 966              	.L97:
 967 0044 00000000 		.word	.LANCHOR0
 968 0048 09110800 		.word	528649
 969              	.LBE195:
 970              	.LBE196:
 971              		.cfi_endproc
 972              	.LFE244:
 973              		.size	sd_mmc_cmd9_spi, .-sd_mmc_cmd9_spi
 974              		.section	.text.sd_mmc_cmd9_mci,"ax",%progbits
 975              		.align	1
 976              		.p2align 2,,3
 977              		.syntax unified
 978              		.thumb
ARM GAS  /tmp/ccTIydBQ.s 			page 56


 979              		.thumb_func
 980              		.fpu fpv5-d16
 981              		.type	sd_mmc_cmd9_mci, %function
 982              	sd_mmc_cmd9_mci:
 983              	.LFB245:
1038:../libraries/Storage/sd_mmc.c **** 	if (!sd_mmc_card->iface->send_cmd(SDMMC_MCI_CMD9_SEND_CSD, (uint32_t)sd_mmc_card->rca << 16)) {
 984              		.loc 2 1038 0
 985              		.cfi_startproc
 986              		@ args = 0, pretend = 0, frame = 0
 987              		@ frame_needed = 0, uses_anonymous_args = 0
 988 0000 38B5     		push	{r3, r4, r5, lr}
 989              		.cfi_def_cfa_offset 16
 990              		.cfi_offset 3, -16
 991              		.cfi_offset 4, -12
 992              		.cfi_offset 5, -8
 993              		.cfi_offset 14, -4
1039:../libraries/Storage/sd_mmc.c **** 		return false;
 994              		.loc 2 1039 0
 995 0002 094D     		ldr	r5, .L105
 996 0004 41F60930 		movw	r0, #6921
 997 0008 2B68     		ldr	r3, [r5]
 998 000a D989     		ldrh	r1, [r3, #14]
 999 000c 1B68     		ldr	r3, [r3]
 1000 000e 0904     		lsls	r1, r1, #16
 1001 0010 5B69     		ldr	r3, [r3, #20]
 1002 0012 9847     		blx	r3
 1003              	.LVL77:
 1004 0014 0446     		mov	r4, r0
 1005 0016 20B1     		cbz	r0, .L100
 1006              	.LBB199:
 1007              	.LBB200:
1042:../libraries/Storage/sd_mmc.c **** 	return true;
 1008              		.loc 2 1042 0
 1009 0018 2868     		ldr	r0, [r5]
 1010 001a 0368     		ldr	r3, [r0]
 1011 001c 1530     		adds	r0, r0, #21
 1012 001e DB69     		ldr	r3, [r3, #28]
 1013 0020 9847     		blx	r3
 1014              	.LVL78:
 1015              	.L100:
 1016              	.LBE200:
 1017              	.LBE199:
1044:../libraries/Storage/sd_mmc.c **** 
 1018              		.loc 2 1044 0
 1019 0022 2046     		mov	r0, r4
 1020 0024 38BD     		pop	{r3, r4, r5, pc}
 1021              	.L106:
 1022 0026 00BF     		.align	2
 1023              	.L105:
 1024 0028 00000000 		.word	.LANCHOR0
 1025              		.cfi_endproc
 1026              	.LFE245:
 1027              		.size	sd_mmc_cmd9_mci, .-sd_mmc_cmd9_mci
 1028              		.section	.text.sd_acmd51,"ax",%progbits
 1029              		.align	1
 1030              		.p2align 2,,3
 1031              		.syntax unified
ARM GAS  /tmp/ccTIydBQ.s 			page 57


 1032              		.thumb
 1033              		.thumb_func
 1034              		.fpu fpv5-d16
 1035              		.type	sd_acmd51, %function
 1036              	sd_acmd51:
 1037              	.LFB250:
1188:../libraries/Storage/sd_mmc.c **** }
1189:../libraries/Storage/sd_mmc.c **** 
1190:../libraries/Storage/sd_mmc.c **** #ifdef SDIO_SUPPORT_ENABLE
1191:../libraries/Storage/sd_mmc.c **** /**
1192:../libraries/Storage/sd_mmc.c ****  * \brief CMD52 - SDIO IO_RW_DIRECT command
1193:../libraries/Storage/sd_mmc.c ****  *
1194:../libraries/Storage/sd_mmc.c ****  * \param rw_flag   Direction, 1:write, 0:read.
1195:../libraries/Storage/sd_mmc.c ****  * \param func_nb   Number of the function.
1196:../libraries/Storage/sd_mmc.c ****  * \param rd_after_wr Read after Write flag.
1197:../libraries/Storage/sd_mmc.c ****  * \param reg_addr  register address.
1198:../libraries/Storage/sd_mmc.c ****  * \param io_data   Pointer to input argument and response buffer.
1199:../libraries/Storage/sd_mmc.c ****  *
1200:../libraries/Storage/sd_mmc.c ****  * \return true if success, otherwise false
1201:../libraries/Storage/sd_mmc.c ****  */
1202:../libraries/Storage/sd_mmc.c **** static bool sdio_cmd52(uint8_t rw_flag, uint8_t func_nb,
1203:../libraries/Storage/sd_mmc.c **** 		uint32_t reg_addr, uint8_t rd_after_wr, uint8_t *io_data)
1204:../libraries/Storage/sd_mmc.c **** {
1205:../libraries/Storage/sd_mmc.c **** 	Assert(io_data != NULL);
1206:../libraries/Storage/sd_mmc.c **** 	if (!sd_mmc_card->iface->send_cmd(SDIO_CMD52_IO_RW_DIRECT,
1207:../libraries/Storage/sd_mmc.c **** 		((uint32_t)*io_data << SDIO_CMD52_WR_DATA)
1208:../libraries/Storage/sd_mmc.c **** 		| ((uint32_t)rw_flag << SDIO_CMD52_RW_FLAG)
1209:../libraries/Storage/sd_mmc.c **** 		| ((uint32_t)func_nb << SDIO_CMD52_FUNCTION_NUM)
1210:../libraries/Storage/sd_mmc.c **** 		| ((uint32_t)rd_after_wr << SDIO_CMD52_RAW_FLAG)
1211:../libraries/Storage/sd_mmc.c **** 		| ((uint32_t)reg_addr << SDIO_CMD52_REG_ADRR))) {
1212:../libraries/Storage/sd_mmc.c **** 		return false;
1213:../libraries/Storage/sd_mmc.c **** 	}
1214:../libraries/Storage/sd_mmc.c **** 	*io_data = sd_mmc_card->iface->get_response() & 0xFF;
1215:../libraries/Storage/sd_mmc.c **** 	return true;
1216:../libraries/Storage/sd_mmc.c **** }
1217:../libraries/Storage/sd_mmc.c **** 
1218:../libraries/Storage/sd_mmc.c **** /**
1219:../libraries/Storage/sd_mmc.c ****  * \brief CMD53 - SDIO IO_RW_EXTENDED command
1220:../libraries/Storage/sd_mmc.c ****  * This implementation support only the SDIO multi-byte transfer mode which is
1221:../libraries/Storage/sd_mmc.c ****  * similar to the single block transfer on memory.
1222:../libraries/Storage/sd_mmc.c ****  * Note: The SDIO block transfer mode is optional for SDIO card.
1223:../libraries/Storage/sd_mmc.c ****  *
1224:../libraries/Storage/sd_mmc.c ****  * \param rw_flag   Direction, 1:write, 0:read.
1225:../libraries/Storage/sd_mmc.c ****  * \param func_nb   Number of the function.
1226:../libraries/Storage/sd_mmc.c ****  * \param reg_addr  Register address.
1227:../libraries/Storage/sd_mmc.c ****  * \param inc_addr  1:Incrementing address, 0: fixed.
1228:../libraries/Storage/sd_mmc.c ****  * \param size      Transfer data size.
1229:../libraries/Storage/sd_mmc.c ****  * \param access_block  true, if the block access (DMA) is used
1230:../libraries/Storage/sd_mmc.c ****  *
1231:../libraries/Storage/sd_mmc.c ****  * \return true if success, otherwise false
1232:../libraries/Storage/sd_mmc.c ****  */
1233:../libraries/Storage/sd_mmc.c **** static bool sdio_cmd53(uint8_t rw_flag, uint8_t func_nb, uint32_t reg_addr,
1234:../libraries/Storage/sd_mmc.c **** 		uint8_t inc_addr, uint32_t size, bool access_block)
1235:../libraries/Storage/sd_mmc.c **** {
1236:../libraries/Storage/sd_mmc.c **** 	Assert(size != 0);
1237:../libraries/Storage/sd_mmc.c **** 	Assert(size <= 512);
1238:../libraries/Storage/sd_mmc.c **** 
ARM GAS  /tmp/ccTIydBQ.s 			page 58


1239:../libraries/Storage/sd_mmc.c **** 	return sd_mmc_card->iface->adtc_start((rw_flag == SDIO_CMD53_READ_FLAG)?
1240:../libraries/Storage/sd_mmc.c **** 			SDIO_CMD53_IO_R_BYTE_EXTENDED :
1241:../libraries/Storage/sd_mmc.c **** 			SDIO_CMD53_IO_W_BYTE_EXTENDED,
1242:../libraries/Storage/sd_mmc.c **** 			((size % 512) << SDIO_CMD53_COUNT)
1243:../libraries/Storage/sd_mmc.c **** 			| ((uint32_t)reg_addr << SDIO_CMD53_REG_ADDR)
1244:../libraries/Storage/sd_mmc.c **** 			| ((uint32_t)inc_addr << SDIO_CMD53_OP_CODE)
1245:../libraries/Storage/sd_mmc.c **** 			| ((uint32_t)0 << SDIO_CMD53_BLOCK_MODE)
1246:../libraries/Storage/sd_mmc.c **** 			| ((uint32_t)func_nb << SDIO_CMD53_FUNCTION_NUM)
1247:../libraries/Storage/sd_mmc.c **** 			| ((uint32_t)rw_flag << SDIO_CMD53_RW_FLAG),
1248:../libraries/Storage/sd_mmc.c **** 			size, 1, access_block);
1249:../libraries/Storage/sd_mmc.c **** }
1250:../libraries/Storage/sd_mmc.c **** #endif // SDIO_SUPPORT_ENABLE
1251:../libraries/Storage/sd_mmc.c **** 
1252:../libraries/Storage/sd_mmc.c **** /**
1253:../libraries/Storage/sd_mmc.c ****  * \brief ACMD6 - Define the data bus width to 4 bits bus
1254:../libraries/Storage/sd_mmc.c ****  *
1255:../libraries/Storage/sd_mmc.c ****  * \return true if success, otherwise false
1256:../libraries/Storage/sd_mmc.c ****  */
1257:../libraries/Storage/sd_mmc.c **** static bool sd_acmd6(void)
1258:../libraries/Storage/sd_mmc.c **** {
1259:../libraries/Storage/sd_mmc.c **** 	// CMD55 - Indicate to the card that the next command is an
1260:../libraries/Storage/sd_mmc.c **** 	// application specific command rather than a standard command.
1261:../libraries/Storage/sd_mmc.c **** 	if (!sd_mmc_card->iface->send_cmd(SDMMC_CMD55_APP_CMD, (uint32_t)sd_mmc_card->rca << 16)) {
1262:../libraries/Storage/sd_mmc.c **** 		return false;
1263:../libraries/Storage/sd_mmc.c **** 	}
1264:../libraries/Storage/sd_mmc.c **** 	// 10b = 4 bits bus
1265:../libraries/Storage/sd_mmc.c **** 	if (!sd_mmc_card->iface->send_cmd(SD_ACMD6_SET_BUS_WIDTH, 0x2)) {
1266:../libraries/Storage/sd_mmc.c **** 		return false;
1267:../libraries/Storage/sd_mmc.c **** 	}
1268:../libraries/Storage/sd_mmc.c **** 	sd_mmc_card->bus_width = 4;
1269:../libraries/Storage/sd_mmc.c **** 	sd_mmc_debug("%d-bit bus width enabled.\n\r", (int)sd_mmc_card->bus_width);
1270:../libraries/Storage/sd_mmc.c **** 	return true;
1271:../libraries/Storage/sd_mmc.c **** }
1272:../libraries/Storage/sd_mmc.c **** 
1273:../libraries/Storage/sd_mmc.c **** /**
1274:../libraries/Storage/sd_mmc.c ****  * \brief ACMD51 - Read the SD Configuration Register.
1275:../libraries/Storage/sd_mmc.c ****  *
1276:../libraries/Storage/sd_mmc.c ****  * \note
1277:../libraries/Storage/sd_mmc.c ****  * SD Card Configuration Register (SCR) provides information on the SD Memory
1278:../libraries/Storage/sd_mmc.c ****  * Card's special features that were configured into the given card. The size
1279:../libraries/Storage/sd_mmc.c ****  * of SCR register is 64 bits.
1280:../libraries/Storage/sd_mmc.c ****  *
1281:../libraries/Storage/sd_mmc.c ****  *
1282:../libraries/Storage/sd_mmc.c ****  * \return true if success, otherwise false
1283:../libraries/Storage/sd_mmc.c ****  */
1284:../libraries/Storage/sd_mmc.c **** static bool sd_acmd51(void)
1285:../libraries/Storage/sd_mmc.c **** {
 1038              		.loc 2 1285 0
 1039              		.cfi_startproc
 1040              		@ args = 0, pretend = 0, frame = 8
 1041              		@ frame_needed = 0, uses_anonymous_args = 0
 1042 0000 70B5     		push	{r4, r5, r6, lr}
 1043              		.cfi_def_cfa_offset 16
 1044              		.cfi_offset 4, -16
 1045              		.cfi_offset 5, -12
 1046              		.cfi_offset 6, -8
 1047              		.cfi_offset 14, -4
ARM GAS  /tmp/ccTIydBQ.s 			page 59


1286:../libraries/Storage/sd_mmc.c **** 	uint8_t scr[SD_SCR_REG_BSIZE];
1287:../libraries/Storage/sd_mmc.c **** 
1288:../libraries/Storage/sd_mmc.c **** 	// CMD55 - Indicate to the card that the next command is an
1289:../libraries/Storage/sd_mmc.c **** 	// application specific command rather than a standard command.
1290:../libraries/Storage/sd_mmc.c **** 	if (!sd_mmc_card->iface->send_cmd(SDMMC_CMD55_APP_CMD, (uint32_t)sd_mmc_card->rca << 16)) {
 1048              		.loc 2 1290 0
 1049 0002 214C     		ldr	r4, .L128
1285:../libraries/Storage/sd_mmc.c **** 	uint8_t scr[SD_SCR_REG_BSIZE];
 1050              		.loc 2 1285 0
 1051 0004 84B0     		sub	sp, sp, #16
 1052              		.cfi_def_cfa_offset 32
 1053              		.loc 2 1290 0
 1054 0006 41F23710 		movw	r0, #4407
 1055 000a 2368     		ldr	r3, [r4]
 1056 000c D989     		ldrh	r1, [r3, #14]
 1057 000e 1B68     		ldr	r3, [r3]
 1058 0010 0904     		lsls	r1, r1, #16
 1059 0012 5B69     		ldr	r3, [r3, #20]
 1060 0014 9847     		blx	r3
 1061              	.LVL79:
 1062 0016 10B9     		cbnz	r0, .L127
 1063              	.L113:
 1064              	.LBB207:
 1065              	.LBB208:
1291:../libraries/Storage/sd_mmc.c **** 		return false;
1292:../libraries/Storage/sd_mmc.c **** 	}
1293:../libraries/Storage/sd_mmc.c **** 	if (!sd_mmc_card->iface->adtc_start(SD_ACMD51_SEND_SCR, 0,
1294:../libraries/Storage/sd_mmc.c **** 			SD_SCR_REG_BSIZE, 1, true)) {
1295:../libraries/Storage/sd_mmc.c **** 		return false;
1296:../libraries/Storage/sd_mmc.c **** 	}
1297:../libraries/Storage/sd_mmc.c **** 	if (!sd_mmc_card->iface->start_read_blocks(scr, 1)) {
1298:../libraries/Storage/sd_mmc.c **** 		return false;
 1066              		.loc 2 1298 0
 1067 0018 0020     		movs	r0, #0
 1068              	.L109:
 1069              	.LBE208:
 1070              	.LBE207:
1299:../libraries/Storage/sd_mmc.c **** 	}
1300:../libraries/Storage/sd_mmc.c **** 	if (!sd_mmc_card->iface->wait_end_of_read_blocks()) {
1301:../libraries/Storage/sd_mmc.c **** 		return false;
1302:../libraries/Storage/sd_mmc.c **** 	}
1303:../libraries/Storage/sd_mmc.c **** 
1304:../libraries/Storage/sd_mmc.c **** 	// Get SD Memory Card - Spec. Version
1305:../libraries/Storage/sd_mmc.c **** 	switch (SD_SCR_SD_SPEC(scr)) {
1306:../libraries/Storage/sd_mmc.c **** 	case SD_SCR_SD_SPEC_1_0_01:
1307:../libraries/Storage/sd_mmc.c **** 		sd_mmc_card->version = CARD_VER_SD_1_0;
1308:../libraries/Storage/sd_mmc.c **** 		break;
1309:../libraries/Storage/sd_mmc.c **** 
1310:../libraries/Storage/sd_mmc.c **** 	case SD_SCR_SD_SPEC_1_10:
1311:../libraries/Storage/sd_mmc.c **** 		sd_mmc_card->version = CARD_VER_SD_1_10;
1312:../libraries/Storage/sd_mmc.c **** 		break;
1313:../libraries/Storage/sd_mmc.c **** 
1314:../libraries/Storage/sd_mmc.c **** 	case SD_SCR_SD_SPEC_2_00:
1315:../libraries/Storage/sd_mmc.c **** 		if (SD_SCR_SD_SPEC3(scr) == SD_SCR_SD_SPEC_3_00) {
1316:../libraries/Storage/sd_mmc.c **** 			sd_mmc_card->version = CARD_VER_SD_3_0;
1317:../libraries/Storage/sd_mmc.c **** 		} else {
1318:../libraries/Storage/sd_mmc.c **** 			sd_mmc_card->version = CARD_VER_SD_2_0;
ARM GAS  /tmp/ccTIydBQ.s 			page 60


1319:../libraries/Storage/sd_mmc.c **** 		}
1320:../libraries/Storage/sd_mmc.c **** 		break;
1321:../libraries/Storage/sd_mmc.c **** 
1322:../libraries/Storage/sd_mmc.c **** 	default:
1323:../libraries/Storage/sd_mmc.c **** 		sd_mmc_card->version = CARD_VER_SD_1_0;
1324:../libraries/Storage/sd_mmc.c **** 		break;
1325:../libraries/Storage/sd_mmc.c **** 	}
1326:../libraries/Storage/sd_mmc.c **** 	return true;
1327:../libraries/Storage/sd_mmc.c **** }
 1071              		.loc 2 1327 0
 1072 001a 04B0     		add	sp, sp, #16
 1073              		.cfi_remember_state
 1074              		.cfi_def_cfa_offset 16
 1075              		@ sp needed
 1076 001c 70BD     		pop	{r4, r5, r6, pc}
 1077              	.L127:
 1078              		.cfi_restore_state
1293:../libraries/Storage/sd_mmc.c **** 			SD_SCR_REG_BSIZE, 1, true)) {
 1079              		.loc 2 1293 0
 1080 001e 2368     		ldr	r3, [r4]
 1081 0020 0125     		movs	r5, #1
 1082 0022 0822     		movs	r2, #8
 1083 0024 0021     		movs	r1, #0
 1084 0026 1E68     		ldr	r6, [r3]
 1085 0028 2B46     		mov	r3, r5
 1086 002a 0095     		str	r5, [sp]
 1087 002c 1748     		ldr	r0, .L128+4
 1088 002e 366A     		ldr	r6, [r6, #32]
 1089 0030 B047     		blx	r6
 1090              	.LVL80:
 1091 0032 0028     		cmp	r0, #0
 1092 0034 F0D0     		beq	.L113
 1093              	.LBB210:
 1094              	.LBB209:
1297:../libraries/Storage/sd_mmc.c **** 		return false;
 1095              		.loc 2 1297 0
 1096 0036 2368     		ldr	r3, [r4]
 1097 0038 2946     		mov	r1, r5
 1098 003a 02A8     		add	r0, sp, #8
 1099 003c 1B68     		ldr	r3, [r3]
 1100 003e 1B6B     		ldr	r3, [r3, #48]
 1101 0040 9847     		blx	r3
 1102              	.LVL81:
 1103 0042 0028     		cmp	r0, #0
 1104 0044 E8D0     		beq	.L113
1300:../libraries/Storage/sd_mmc.c **** 		return false;
 1105              		.loc 2 1300 0
 1106 0046 2368     		ldr	r3, [r4]
 1107 0048 1B68     		ldr	r3, [r3]
 1108 004a 5B6B     		ldr	r3, [r3, #52]
 1109 004c 9847     		blx	r3
 1110              	.LVL82:
 1111 004e 0028     		cmp	r0, #0
 1112 0050 E2D0     		beq	.L113
1305:../libraries/Storage/sd_mmc.c **** 	case SD_SCR_SD_SPEC_1_0_01:
 1113              		.loc 2 1305 0
 1114 0052 9DF80830 		ldrb	r3, [sp, #8]	@ zero_extendqisi2
ARM GAS  /tmp/ccTIydBQ.s 			page 61


 1115 0056 03F00F03 		and	r3, r3, #15
 1116 005a 012B     		cmp	r3, #1
 1117 005c 0FD0     		beq	.L115
 1118 005e 0AD3     		bcc	.L125
 1119 0060 022B     		cmp	r3, #2
 1120 0062 08D1     		bne	.L125
1315:../libraries/Storage/sd_mmc.c **** 			sd_mmc_card->version = CARD_VER_SD_3_0;
 1121              		.loc 2 1315 0
 1122 0064 9DF80A30 		ldrb	r3, [sp, #10]	@ zero_extendqisi2
 1123 0068 DB09     		lsrs	r3, r3, #7
1316:../libraries/Storage/sd_mmc.c **** 		} else {
 1124              		.loc 2 1316 0
 1125 006a 2368     		ldr	r3, [r4]
 1126 006c 14BF     		ite	ne
 1127 006e 3022     		movne	r2, #48
1318:../libraries/Storage/sd_mmc.c **** 		}
 1128              		.loc 2 1318 0
 1129 0070 2022     		moveq	r2, #32
 1130 0072 9A74     		strb	r2, [r3, #18]
 1131 0074 D1E7     		b	.L109
 1132              	.L125:
1323:../libraries/Storage/sd_mmc.c **** 		break;
 1133              		.loc 2 1323 0
 1134 0076 2368     		ldr	r3, [r4]
 1135 0078 1022     		movs	r2, #16
 1136 007a 9A74     		strb	r2, [r3, #18]
 1137 007c CDE7     		b	.L109
 1138              	.L115:
1311:../libraries/Storage/sd_mmc.c **** 		break;
 1139              		.loc 2 1311 0
 1140 007e 2368     		ldr	r3, [r4]
 1141 0080 1A22     		movs	r2, #26
 1142 0082 9A74     		strb	r2, [r3, #18]
 1143 0084 C9E7     		b	.L109
 1144              	.L129:
 1145 0086 00BF     		.align	2
 1146              	.L128:
 1147 0088 00000000 		.word	.LANCHOR0
 1148 008c 33110800 		.word	528691
 1149              	.LBE209:
 1150              	.LBE210:
 1151              		.cfi_endproc
 1152              	.LFE250:
 1153              		.size	sd_acmd51, .-sd_acmd51
 1154              		.section	.text.sd_mmc_select_slot.part.5,"ax",%progbits
 1155              		.align	1
 1156              		.p2align 2,,3
 1157              		.syntax unified
 1158              		.thumb
 1159              		.thumb_func
 1160              		.fpu fpv5-d16
 1161              		.type	sd_mmc_select_slot.part.5, %function
 1162              	sd_mmc_select_slot.part.5:
 1163              	.LFB278:
1328:../libraries/Storage/sd_mmc.c **** 
1329:../libraries/Storage/sd_mmc.c **** /**
1330:../libraries/Storage/sd_mmc.c ****  * \brief Select a card slot and initialize the associated driver
ARM GAS  /tmp/ccTIydBQ.s 			page 62


1331:../libraries/Storage/sd_mmc.c ****  *
1332:../libraries/Storage/sd_mmc.c ****  * \param slot  Card slot number
1333:../libraries/Storage/sd_mmc.c ****  *
1334:../libraries/Storage/sd_mmc.c ****  * \retval SD_MMC_ERR_SLOT     Wrong slot number
1335:../libraries/Storage/sd_mmc.c ****  * \retval SD_MMC_ERR_NO_CARD  No card present on slot
1336:../libraries/Storage/sd_mmc.c ****  * \retval SD_MMC_ERR_UNUSABLE Unusable card
1337:../libraries/Storage/sd_mmc.c ****  * \retval SD_MMC_INIT_ONGOING Card initialization requested
1338:../libraries/Storage/sd_mmc.c ****  * \retval SD_MMC_OK           Card present
1339:../libraries/Storage/sd_mmc.c ****  * \retval SD_MMC_CD_DEBOUNCING Giving the card time to be ready
1340:../libraries/Storage/sd_mmc.c ****  */
1341:../libraries/Storage/sd_mmc.c **** static sd_mmc_err_t sd_mmc_select_slot(uint8_t slot)
 1164              		.loc 2 1341 0
 1165              		.cfi_startproc
 1166              		@ args = 0, pretend = 0, frame = 0
 1167              		@ frame_needed = 0, uses_anonymous_args = 0
 1168              	.LVL83:
 1169 0000 F8B5     		push	{r3, r4, r5, r6, r7, lr}
 1170              		.cfi_def_cfa_offset 24
 1171              		.cfi_offset 3, -24
 1172              		.cfi_offset 4, -20
 1173              		.cfi_offset 5, -16
 1174              		.cfi_offset 6, -12
 1175              		.cfi_offset 7, -8
 1176              		.cfi_offset 14, -4
 1177              		.loc 2 1341 0
 1178 0002 0446     		mov	r4, r0
1342:../libraries/Storage/sd_mmc.c **** {
1343:../libraries/Storage/sd_mmc.c **** 	if (slot >= SD_MMC_MEM_CNT) {
1344:../libraries/Storage/sd_mmc.c **** 		return SD_MMC_ERR_SLOT;
1345:../libraries/Storage/sd_mmc.c **** 	}
1346:../libraries/Storage/sd_mmc.c **** 	Assert(sd_mmc_nb_block_remaining == 0);
1347:../libraries/Storage/sd_mmc.c **** 
1348:../libraries/Storage/sd_mmc.c **** #if 1	// dc42
1349:../libraries/Storage/sd_mmc.c **** 	// RepRapFirmware now handles the card detect pin and debouncing, so ignore the card detect pin he
1350:../libraries/Storage/sd_mmc.c **** #else
1351:../libraries/Storage/sd_mmc.c **** 	if (sd_mmc_cards[slot].cd_gpio != NoPin) {
1352:../libraries/Storage/sd_mmc.c **** 		//! Card Detect pins
1353:../libraries/Storage/sd_mmc.c **** 		if (digitalRead(sd_mmc_cards[slot].cd_gpio) != SD_MMC_CD_DETECT_VALUE) {
1354:../libraries/Storage/sd_mmc.c **** 			if (sd_mmc_cards[slot].state == SD_MMC_CARD_STATE_DEBOUNCE) {
1355:../libraries/Storage/sd_mmc.c **** 				SD_MMC_STOP_TIMEOUT();
1356:../libraries/Storage/sd_mmc.c **** 			}
1357:../libraries/Storage/sd_mmc.c **** 			sd_mmc_cards[slot].state = SD_MMC_CARD_STATE_NO_CARD;
1358:../libraries/Storage/sd_mmc.c **** 			return SD_MMC_ERR_NO_CARD;
1359:../libraries/Storage/sd_mmc.c **** 		}
1360:../libraries/Storage/sd_mmc.c **** 		if (sd_mmc_cards[slot].state == SD_MMC_CARD_STATE_NO_CARD) {
1361:../libraries/Storage/sd_mmc.c **** 			// A card plug on going, but this is not initialized
1362:../libraries/Storage/sd_mmc.c **** 			sd_mmc_cards[slot].state = SD_MMC_CARD_STATE_DEBOUNCE;
1363:../libraries/Storage/sd_mmc.c **** 			// Debounce + Power On Setup
1364:../libraries/Storage/sd_mmc.c **** 			SD_MMC_START_TIMEOUT();
1365:../libraries/Storage/sd_mmc.c **** 			return SD_MMC_CD_DEBOUNCING;
1366:../libraries/Storage/sd_mmc.c **** 		}
1367:../libraries/Storage/sd_mmc.c **** 		if (sd_mmc_cards[slot].state == SD_MMC_CARD_STATE_DEBOUNCE) {
1368:../libraries/Storage/sd_mmc.c **** 			if (!SD_MMC_IS_TIMEOUT()) {
1369:../libraries/Storage/sd_mmc.c **** 				// Debounce on going
1370:../libraries/Storage/sd_mmc.c **** 				return SD_MMC_CD_DEBOUNCING;
1371:../libraries/Storage/sd_mmc.c **** 			}
1372:../libraries/Storage/sd_mmc.c **** 			// Card is not initialized
ARM GAS  /tmp/ccTIydBQ.s 			page 63


1373:../libraries/Storage/sd_mmc.c **** 			sd_mmc_cards[slot].state = SD_MMC_CARD_STATE_INIT;
1374:../libraries/Storage/sd_mmc.c **** 			// Set 1-bit bus width and low clock for initialization
1375:../libraries/Storage/sd_mmc.c **** 			sd_mmc_cards[slot].clock = SDMMC_CLOCK_INIT;
1376:../libraries/Storage/sd_mmc.c **** 			sd_mmc_cards[slot].bus_width = 1;
1377:../libraries/Storage/sd_mmc.c **** 			sd_mmc_cards[slot].high_speed = 0;
1378:../libraries/Storage/sd_mmc.c **** 		}
1379:../libraries/Storage/sd_mmc.c **** 		if (sd_mmc_cards[slot].state == SD_MMC_CARD_STATE_UNUSABLE) {
1380:../libraries/Storage/sd_mmc.c **** 			return SD_MMC_ERR_UNUSABLE;
1381:../libraries/Storage/sd_mmc.c **** 		}
1382:../libraries/Storage/sd_mmc.c **** 	}
1383:../libraries/Storage/sd_mmc.c **** 	else
1384:../libraries/Storage/sd_mmc.c **** #endif
1385:../libraries/Storage/sd_mmc.c **** 	{
1386:../libraries/Storage/sd_mmc.c **** 		// No pin card detection, then always try to install it
1387:../libraries/Storage/sd_mmc.c **** 		if ((sd_mmc_cards[slot].state == SD_MMC_CARD_STATE_NO_CARD)
 1179              		.loc 2 1387 0
 1180 0004 1748     		ldr	r0, .L134
 1181              	.LVL84:
 1182 0006 A200     		lsls	r2, r4, #2
 1183 0008 1119     		adds	r1, r2, r4
 1184 000a 00EBC101 		add	r1, r0, r1, lsl #3
1388:../libraries/Storage/sd_mmc.c **** 				|| (sd_mmc_cards[slot].state == SD_MMC_CARD_STATE_UNUSABLE)) {
 1185              		.loc 2 1388 0
 1186 000e 0B7C     		ldrb	r3, [r1, #16]	@ zero_extendqisi2
1387:../libraries/Storage/sd_mmc.c **** 				|| (sd_mmc_cards[slot].state == SD_MMC_CARD_STATE_UNUSABLE)) {
 1187              		.loc 2 1387 0
 1188 0010 033B     		subs	r3, r3, #3
 1189 0012 012B     		cmp	r3, #1
 1190 0014 1CD9     		bls	.L131
 1191 0016 91F82530 		ldrb	r3, [r1, #37]	@ zero_extendqisi2
 1192 001a 0033     		adds	r3, r3, #0
 1193 001c 18BF     		it	ne
 1194 001e 0123     		movne	r3, #1
 1195              	.L132:
 1196              	.LBB211:
 1197              	.LBB212:
1389:../libraries/Storage/sd_mmc.c **** 			// Card is not initialized
1390:../libraries/Storage/sd_mmc.c **** 			sd_mmc_cards[slot].state = SD_MMC_CARD_STATE_INIT;
1391:../libraries/Storage/sd_mmc.c **** 			// Set 1-bit bus width and low clock for initialization
1392:../libraries/Storage/sd_mmc.c **** 			sd_mmc_cards[slot].clock = SDMMC_CLOCK_INIT;
1393:../libraries/Storage/sd_mmc.c **** 			sd_mmc_cards[slot].bus_width = 1;
1394:../libraries/Storage/sd_mmc.c **** 			sd_mmc_cards[slot].high_speed = 0;
1395:../libraries/Storage/sd_mmc.c **** 		}
1396:../libraries/Storage/sd_mmc.c **** 	}
1397:../libraries/Storage/sd_mmc.c **** 
1398:../libraries/Storage/sd_mmc.c **** 	// Initialize interface
1399:../libraries/Storage/sd_mmc.c **** 	sd_mmc_slot_sel = slot;
1400:../libraries/Storage/sd_mmc.c **** 	sd_mmc_card = &sd_mmc_cards[slot];
1401:../libraries/Storage/sd_mmc.c **** 	sd_mmc_configure_slot();
1402:../libraries/Storage/sd_mmc.c **** 	return (sd_mmc_cards[slot].state == SD_MMC_CARD_STATE_INIT) ?
1403:../libraries/Storage/sd_mmc.c **** 			SD_MMC_INIT_ONGOING : SD_MMC_OK;
1404:../libraries/Storage/sd_mmc.c **** }
1405:../libraries/Storage/sd_mmc.c **** 
1406:../libraries/Storage/sd_mmc.c **** /**
1407:../libraries/Storage/sd_mmc.c ****  * \brief Configures the driver with the selected card configuration
1408:../libraries/Storage/sd_mmc.c ****  */
1409:../libraries/Storage/sd_mmc.c **** static void sd_mmc_configure_slot(void)
ARM GAS  /tmp/ccTIydBQ.s 			page 64


1410:../libraries/Storage/sd_mmc.c **** {
1411:../libraries/Storage/sd_mmc.c **** 	sd_mmc_card->iface->select_device(sd_mmc_card->slot, sd_mmc_card->clock, sd_mmc_card->bus_width, s
 1198              		.loc 2 1411 0
 1199 0020 2244     		add	r2, r2, r4
 1200              	.LBE212:
 1201              	.LBE211:
1400:../libraries/Storage/sd_mmc.c **** 	sd_mmc_configure_slot();
 1202              		.loc 2 1400 0
 1203 0022 04EB8401 		add	r1, r4, r4, lsl #2
 1204 0026 104E     		ldr	r6, .L134+4
 1205              	.LBB217:
 1206              	.LBB213:
 1207              		.loc 2 1411 0
 1208 0028 D200     		lsls	r2, r2, #3
 1209              	.LBE213:
 1210              	.LBE217:
1399:../libraries/Storage/sd_mmc.c **** 	sd_mmc_card = &sd_mmc_cards[slot];
 1211              		.loc 2 1399 0
 1212 002a 104F     		ldr	r7, .L134+8
1400:../libraries/Storage/sd_mmc.c **** 	sd_mmc_configure_slot();
 1213              		.loc 2 1400 0
 1214 002c 00EBC101 		add	r1, r0, r1, lsl #3
 1215              	.LBB218:
 1216              	.LBB214:
 1217              		.loc 2 1411 0
 1218 0030 8518     		adds	r5, r0, r2
 1219 0032 8258     		ldr	r2, [r0, r2]
 1220              	.LBE214:
 1221              	.LBE218:
1400:../libraries/Storage/sd_mmc.c **** 	sd_mmc_configure_slot();
 1222              		.loc 2 1400 0
 1223 0034 3160     		str	r1, [r6]
 1224              	.LBB219:
 1225              	.LBB215:
 1226              		.loc 2 1411 0
 1227 0036 E87C     		ldrb	r0, [r5, #19]	@ zero_extendqisi2
 1228 0038 1668     		ldr	r6, [r2]
 1229 003a 6968     		ldr	r1, [r5, #4]
 1230 003c 2A7D     		ldrb	r2, [r5, #20]	@ zero_extendqisi2
 1231              	.LBE215:
 1232              	.LBE219:
1399:../libraries/Storage/sd_mmc.c **** 	sd_mmc_card = &sd_mmc_cards[slot];
 1233              		.loc 2 1399 0
 1234 003e 3C70     		strb	r4, [r7]
 1235              	.LBB220:
 1236              	.LBB216:
 1237              		.loc 2 1411 0
 1238 0040 B047     		blx	r6
 1239              	.LVL85:
 1240              	.LBE216:
 1241              	.LBE220:
1403:../libraries/Storage/sd_mmc.c **** }
 1242              		.loc 2 1403 0
 1243 0042 287C     		ldrb	r0, [r5, #16]	@ zero_extendqisi2
1404:../libraries/Storage/sd_mmc.c **** 
 1244              		.loc 2 1404 0
 1245 0044 A0F10200 		sub	r0, #2
ARM GAS  /tmp/ccTIydBQ.s 			page 65


 1246 0048 B0FA80F0 		clz	r0, r0
 1247 004c 4009     		lsrs	r0, r0, #5
 1248 004e F8BD     		pop	{r3, r4, r5, r6, r7, pc}
 1249              	.L131:
1394:../libraries/Storage/sd_mmc.c **** 		}
 1250              		.loc 2 1394 0
 1251 0050 0023     		movs	r3, #0
1390:../libraries/Storage/sd_mmc.c **** 			// Set 1-bit bus width and low clock for initialization
 1252              		.loc 2 1390 0
 1253 0052 0227     		movs	r7, #2
1392:../libraries/Storage/sd_mmc.c **** 			sd_mmc_cards[slot].bus_width = 1;
 1254              		.loc 2 1392 0
 1255 0054 064E     		ldr	r6, .L134+12
1393:../libraries/Storage/sd_mmc.c **** 			sd_mmc_cards[slot].high_speed = 0;
 1256              		.loc 2 1393 0
 1257 0056 0125     		movs	r5, #1
1394:../libraries/Storage/sd_mmc.c **** 		}
 1258              		.loc 2 1394 0
 1259 0058 81F82530 		strb	r3, [r1, #37]
1390:../libraries/Storage/sd_mmc.c **** 			// Set 1-bit bus width and low clock for initialization
 1260              		.loc 2 1390 0
 1261 005c 0F74     		strb	r7, [r1, #16]
1392:../libraries/Storage/sd_mmc.c **** 			sd_mmc_cards[slot].bus_width = 1;
 1262              		.loc 2 1392 0
 1263 005e 4E60     		str	r6, [r1, #4]
1393:../libraries/Storage/sd_mmc.c **** 			sd_mmc_cards[slot].high_speed = 0;
 1264              		.loc 2 1393 0
 1265 0060 0D75     		strb	r5, [r1, #20]
 1266 0062 DDE7     		b	.L132
 1267              	.L135:
 1268              		.align	2
 1269              	.L134:
 1270 0064 00000000 		.word	.LANCHOR4
 1271 0068 00000000 		.word	.LANCHOR0
 1272 006c 00000000 		.word	.LANCHOR5
 1273 0070 801A0600 		.word	400000
 1274              		.cfi_endproc
 1275              	.LFE278:
 1276              		.size	sd_mmc_select_slot.part.5, .-sd_mmc_select_slot.part.5
 1277              		.section	.text.sd_mmc_deselect_slot.part.6,"ax",%progbits
 1278              		.align	1
 1279              		.p2align 2,,3
 1280              		.syntax unified
 1281              		.thumb
 1282              		.thumb_func
 1283              		.fpu fpv5-d16
 1284              		.type	sd_mmc_deselect_slot.part.6, %function
 1285              	sd_mmc_deselect_slot.part.6:
 1286              	.LFB279:
1412:../libraries/Storage/sd_mmc.c **** }
1413:../libraries/Storage/sd_mmc.c **** 
1414:../libraries/Storage/sd_mmc.c **** /**
1415:../libraries/Storage/sd_mmc.c ****  * \brief Deselect the current card slot
1416:../libraries/Storage/sd_mmc.c ****  */
1417:../libraries/Storage/sd_mmc.c **** static void sd_mmc_deselect_slot(void)
 1287              		.loc 2 1417 0
 1288              		.cfi_startproc
ARM GAS  /tmp/ccTIydBQ.s 			page 66


 1289              		@ args = 0, pretend = 0, frame = 0
 1290              		@ frame_needed = 0, uses_anonymous_args = 0
 1291 0000 08B5     		push	{r3, lr}
 1292              		.cfi_def_cfa_offset 8
 1293              		.cfi_offset 3, -8
 1294              		.cfi_offset 14, -4
1418:../libraries/Storage/sd_mmc.c **** {
1419:../libraries/Storage/sd_mmc.c **** 	if (sd_mmc_slot_sel < SD_MMC_MEM_CNT) {
1420:../libraries/Storage/sd_mmc.c **** 		sd_mmc_card->iface->deselect_device(sd_mmc_card->slot);
 1295              		.loc 2 1420 0
 1296 0002 054B     		ldr	r3, .L138
 1297 0004 1B68     		ldr	r3, [r3]
 1298 0006 1A68     		ldr	r2, [r3]
 1299 0008 D87C     		ldrb	r0, [r3, #19]	@ zero_extendqisi2
 1300 000a 5368     		ldr	r3, [r2, #4]
 1301 000c 9847     		blx	r3
 1302              	.LVL86:
1421:../libraries/Storage/sd_mmc.c **** 		sd_mmc_slot_sel = 0xFF;					// No slot selected
 1303              		.loc 2 1421 0
 1304 000e 034B     		ldr	r3, .L138+4
 1305 0010 FF22     		movs	r2, #255
 1306 0012 1A70     		strb	r2, [r3]
 1307 0014 08BD     		pop	{r3, pc}
 1308              	.L139:
 1309 0016 00BF     		.align	2
 1310              	.L138:
 1311 0018 00000000 		.word	.LANCHOR0
 1312 001c 00000000 		.word	.LANCHOR5
 1313              		.cfi_endproc
 1314              	.LFE279:
 1315              		.size	sd_mmc_deselect_slot.part.6, .-sd_mmc_deselect_slot.part.6
 1316              		.section	.text.sd_mmc_init,"ax",%progbits
 1317              		.align	1
 1318              		.p2align 2,,3
 1319              		.global	sd_mmc_init
 1320              		.syntax unified
 1321              		.thumb
 1322              		.thumb_func
 1323              		.fpu fpv5-d16
 1324              		.type	sd_mmc_init, %function
 1325              	sd_mmc_init:
 1326              	.LFB258:
1422:../libraries/Storage/sd_mmc.c **** 	}
1423:../libraries/Storage/sd_mmc.c **** }
1424:../libraries/Storage/sd_mmc.c **** 
1425:../libraries/Storage/sd_mmc.c **** /**
1426:../libraries/Storage/sd_mmc.c ****  * \brief Initialize the SD card in SPI mode.
1427:../libraries/Storage/sd_mmc.c ****  *
1428:../libraries/Storage/sd_mmc.c ****  * \note
1429:../libraries/Storage/sd_mmc.c ****  * This function runs the initialization procedure and the identification
1430:../libraries/Storage/sd_mmc.c ****  * process, then it sets the SD/MMC card in transfer state.
1431:../libraries/Storage/sd_mmc.c ****  * At last, it will automatically enable maximum bus width and transfer speed.
1432:../libraries/Storage/sd_mmc.c ****  *
1433:../libraries/Storage/sd_mmc.c ****  * \return true if success, otherwise false
1434:../libraries/Storage/sd_mmc.c ****  */
1435:../libraries/Storage/sd_mmc.c **** static bool sd_mmc_spi_card_init(void)
1436:../libraries/Storage/sd_mmc.c **** {
ARM GAS  /tmp/ccTIydBQ.s 			page 67


1437:../libraries/Storage/sd_mmc.c **** 	uint8_t v2 = 0;
1438:../libraries/Storage/sd_mmc.c **** 
1439:../libraries/Storage/sd_mmc.c **** 	// In first, try to install SD/SDIO card
1440:../libraries/Storage/sd_mmc.c **** 	sd_mmc_card->type = CARD_TYPE_SD;
1441:../libraries/Storage/sd_mmc.c **** 	sd_mmc_card->version = CARD_VER_UNKNOWN;
1442:../libraries/Storage/sd_mmc.c **** 	sd_mmc_card->rca = 0;
1443:../libraries/Storage/sd_mmc.c **** 	sd_mmc_debug("Start SD card install\n\r");
1444:../libraries/Storage/sd_mmc.c **** 
1445:../libraries/Storage/sd_mmc.c **** 	// Card need of 74 cycles clock minimum to start
1446:../libraries/Storage/sd_mmc.c **** 	sd_mmc_card->iface->send_clock();
1447:../libraries/Storage/sd_mmc.c **** 
1448:../libraries/Storage/sd_mmc.c **** 	// CMD0 - Reset all cards to idle state.
1449:../libraries/Storage/sd_mmc.c **** 	if (!sd_mmc_card->iface->send_cmd(SDMMC_SPI_CMD0_GO_IDLE_STATE, 0)) {
1450:../libraries/Storage/sd_mmc.c **** 		return false;
1451:../libraries/Storage/sd_mmc.c **** 	}
1452:../libraries/Storage/sd_mmc.c **** 	if (!sd_cmd8(&v2)) {
1453:../libraries/Storage/sd_mmc.c **** 		return false;
1454:../libraries/Storage/sd_mmc.c **** 	}
1455:../libraries/Storage/sd_mmc.c **** 	// Try to get the SDIO card's operating condition
1456:../libraries/Storage/sd_mmc.c **** 	if (!sdio_op_cond()) {
1457:../libraries/Storage/sd_mmc.c **** 		return false;
1458:../libraries/Storage/sd_mmc.c **** 	}
1459:../libraries/Storage/sd_mmc.c **** 
1460:../libraries/Storage/sd_mmc.c **** 	if (sd_mmc_card->type & CARD_TYPE_SD) {
1461:../libraries/Storage/sd_mmc.c **** 		// Try to get the SD card's operating condition
1462:../libraries/Storage/sd_mmc.c **** 		if (!sd_spi_op_cond(v2)) {
1463:../libraries/Storage/sd_mmc.c **** 			// It is not a SD card
1464:../libraries/Storage/sd_mmc.c **** 			sd_mmc_debug("Start MMC Install\n\r");
1465:../libraries/Storage/sd_mmc.c **** 			sd_mmc_card->type = CARD_TYPE_MMC;
1466:../libraries/Storage/sd_mmc.c **** 			return sd_mmc_spi_install_mmc();
1467:../libraries/Storage/sd_mmc.c **** 		}
1468:../libraries/Storage/sd_mmc.c **** 
1469:../libraries/Storage/sd_mmc.c **** 		/* The CRC on card is disabled by default.
1470:../libraries/Storage/sd_mmc.c **** 		 * However, to be sure, the CRC OFF command is send.
1471:../libraries/Storage/sd_mmc.c **** 		 * Unfortunately, specific SDIO card does not support it
1472:../libraries/Storage/sd_mmc.c **** 		 * (H&D wireless card - HDG104 WiFi SIP)
1473:../libraries/Storage/sd_mmc.c **** 		 * and the command is send only on SD card.
1474:../libraries/Storage/sd_mmc.c **** 		 */
1475:../libraries/Storage/sd_mmc.c **** 		if (!sd_mmc_card->iface->send_cmd(SDMMC_SPI_CMD59_CRC_ON_OFF, 0)) {
1476:../libraries/Storage/sd_mmc.c **** 			return false;
1477:../libraries/Storage/sd_mmc.c **** 		}
1478:../libraries/Storage/sd_mmc.c **** 	}
1479:../libraries/Storage/sd_mmc.c **** 	// SD MEMORY
1480:../libraries/Storage/sd_mmc.c **** 	if (sd_mmc_card->type & CARD_TYPE_SD) {
1481:../libraries/Storage/sd_mmc.c **** 		// Get the Card-Specific Data
1482:../libraries/Storage/sd_mmc.c **** 		if (!sd_mmc_cmd9_spi()) {
1483:../libraries/Storage/sd_mmc.c **** 			return false;
1484:../libraries/Storage/sd_mmc.c **** 		}
1485:../libraries/Storage/sd_mmc.c **** 		sd_decode_csd();
1486:../libraries/Storage/sd_mmc.c **** 		// Read the SCR to get card version
1487:../libraries/Storage/sd_mmc.c **** 		if (!sd_acmd51()) {
1488:../libraries/Storage/sd_mmc.c **** 			return false;
1489:../libraries/Storage/sd_mmc.c **** 		}
1490:../libraries/Storage/sd_mmc.c **** 	}
1491:../libraries/Storage/sd_mmc.c **** 	if (IS_SDIO()) {
1492:../libraries/Storage/sd_mmc.c **** 		if (!sdio_get_max_speed()) {
1493:../libraries/Storage/sd_mmc.c **** 			return false;
ARM GAS  /tmp/ccTIydBQ.s 			page 68


1494:../libraries/Storage/sd_mmc.c **** 		}
1495:../libraries/Storage/sd_mmc.c **** 	}
1496:../libraries/Storage/sd_mmc.c **** 	// SD MEMORY not HC, Set default block size
1497:../libraries/Storage/sd_mmc.c **** 	if ((sd_mmc_card->type & CARD_TYPE_SD) &&
1498:../libraries/Storage/sd_mmc.c **** 			(0 == (sd_mmc_card->type & CARD_TYPE_HC))) {
1499:../libraries/Storage/sd_mmc.c **** 		if (!sd_mmc_card->iface->send_cmd(SDMMC_CMD16_SET_BLOCKLEN, SD_MMC_BLOCK_SIZE)) {
1500:../libraries/Storage/sd_mmc.c **** 			return false;
1501:../libraries/Storage/sd_mmc.c **** 		}
1502:../libraries/Storage/sd_mmc.c **** 	}
1503:../libraries/Storage/sd_mmc.c **** 	// Check communication
1504:../libraries/Storage/sd_mmc.c **** 	if (sd_mmc_card->type & CARD_TYPE_SD) {
1505:../libraries/Storage/sd_mmc.c **** 		if (!sd_mmc_cmd13()) {
1506:../libraries/Storage/sd_mmc.c **** 			return false;
1507:../libraries/Storage/sd_mmc.c **** 		}
1508:../libraries/Storage/sd_mmc.c **** 	}
1509:../libraries/Storage/sd_mmc.c **** 	// Re-initialize the slot with the new speed
1510:../libraries/Storage/sd_mmc.c **** 	sd_mmc_configure_slot();
1511:../libraries/Storage/sd_mmc.c **** 	return true;
1512:../libraries/Storage/sd_mmc.c **** }
1513:../libraries/Storage/sd_mmc.c **** 
1514:../libraries/Storage/sd_mmc.c **** /**
1515:../libraries/Storage/sd_mmc.c ****  * \brief Initialize the SD card in MCI mode.
1516:../libraries/Storage/sd_mmc.c ****  *
1517:../libraries/Storage/sd_mmc.c ****  * \note
1518:../libraries/Storage/sd_mmc.c ****  * This function runs the initialization procedure and the identification
1519:../libraries/Storage/sd_mmc.c ****  * process, then it sets the SD/MMC card in transfer state.
1520:../libraries/Storage/sd_mmc.c ****  * At last, it will automatically enable maximum bus width and transfer speed.
1521:../libraries/Storage/sd_mmc.c ****  *
1522:../libraries/Storage/sd_mmc.c ****  * \return true if success, otherwise false
1523:../libraries/Storage/sd_mmc.c ****  */
1524:../libraries/Storage/sd_mmc.c **** static bool sd_mmc_mci_card_init(void)
1525:../libraries/Storage/sd_mmc.c **** {
1526:../libraries/Storage/sd_mmc.c **** 	uint8_t v2 = 0;
1527:../libraries/Storage/sd_mmc.c **** 
1528:../libraries/Storage/sd_mmc.c **** 	// In first, try to install SD/SDIO card
1529:../libraries/Storage/sd_mmc.c **** 	sd_mmc_card->type = CARD_TYPE_SD;
1530:../libraries/Storage/sd_mmc.c **** 	sd_mmc_card->version = CARD_VER_UNKNOWN;
1531:../libraries/Storage/sd_mmc.c **** 	sd_mmc_card->rca = 0;
1532:../libraries/Storage/sd_mmc.c **** 	sd_mmc_debug("Start SD card install\n\r");
1533:../libraries/Storage/sd_mmc.c **** 
1534:../libraries/Storage/sd_mmc.c **** 	// Card need of 74 cycles clock minimum to start
1535:../libraries/Storage/sd_mmc.c **** 	sd_mmc_card->iface->send_clock();
1536:../libraries/Storage/sd_mmc.c **** 
1537:../libraries/Storage/sd_mmc.c **** 	// CMD0 - Reset all cards to idle state.
1538:../libraries/Storage/sd_mmc.c **** 	if (!sd_mmc_card->iface->send_cmd(SDMMC_MCI_CMD0_GO_IDLE_STATE, 0)) {
1539:../libraries/Storage/sd_mmc.c **** 		return false;
1540:../libraries/Storage/sd_mmc.c **** 	}
1541:../libraries/Storage/sd_mmc.c **** 	if (!sd_cmd8(&v2)) {
1542:../libraries/Storage/sd_mmc.c **** 		return false;
1543:../libraries/Storage/sd_mmc.c **** 	}
1544:../libraries/Storage/sd_mmc.c **** 	// Try to get the SDIO card's operating condition
1545:../libraries/Storage/sd_mmc.c **** 	if (!sdio_op_cond()) {
1546:../libraries/Storage/sd_mmc.c **** 		return false;
1547:../libraries/Storage/sd_mmc.c **** 	}
1548:../libraries/Storage/sd_mmc.c **** 
1549:../libraries/Storage/sd_mmc.c **** 	if (sd_mmc_card->type & CARD_TYPE_SD) {
1550:../libraries/Storage/sd_mmc.c **** 		// Try to get the SD card's operating condition
ARM GAS  /tmp/ccTIydBQ.s 			page 69


1551:../libraries/Storage/sd_mmc.c **** 		if (!sd_mci_op_cond(v2)) {
1552:../libraries/Storage/sd_mmc.c **** 			// It is not a SD card
1553:../libraries/Storage/sd_mmc.c **** 			sd_mmc_debug("Start MMC Install\n\r");
1554:../libraries/Storage/sd_mmc.c **** 			sd_mmc_card->type = CARD_TYPE_MMC;
1555:../libraries/Storage/sd_mmc.c **** 			return sd_mmc_mci_install_mmc();
1556:../libraries/Storage/sd_mmc.c **** 		}
1557:../libraries/Storage/sd_mmc.c **** 	}
1558:../libraries/Storage/sd_mmc.c **** 
1559:../libraries/Storage/sd_mmc.c **** 	if (sd_mmc_card->type & CARD_TYPE_SD) {
1560:../libraries/Storage/sd_mmc.c **** 		// SD MEMORY, Put the Card in Identify Mode
1561:../libraries/Storage/sd_mmc.c **** 		// Note: The CID is not used in this stack
1562:../libraries/Storage/sd_mmc.c **** 		if (!sd_mmc_card->iface->send_cmd(SDMMC_CMD2_ALL_SEND_CID, 0)) {
1563:../libraries/Storage/sd_mmc.c **** 			return false;
1564:../libraries/Storage/sd_mmc.c **** 		}
1565:../libraries/Storage/sd_mmc.c **** 	}
1566:../libraries/Storage/sd_mmc.c **** 	// Ask the card to publish a new relative address (RCA).
1567:../libraries/Storage/sd_mmc.c **** 	if (!sd_mmc_card->iface->send_cmd(SD_CMD3_SEND_RELATIVE_ADDR, 0)) {
1568:../libraries/Storage/sd_mmc.c **** 		return false;
1569:../libraries/Storage/sd_mmc.c **** 	}
1570:../libraries/Storage/sd_mmc.c **** 	sd_mmc_card->rca = (sd_mmc_card->iface->get_response() >> 16) & 0xFFFF;
1571:../libraries/Storage/sd_mmc.c **** 
1572:../libraries/Storage/sd_mmc.c **** 	// SD MEMORY, Get the Card-Specific Data
1573:../libraries/Storage/sd_mmc.c **** 	if (sd_mmc_card->type & CARD_TYPE_SD) {
1574:../libraries/Storage/sd_mmc.c **** 		if (!sd_mmc_cmd9_mci()) {
1575:../libraries/Storage/sd_mmc.c **** 			return false;
1576:../libraries/Storage/sd_mmc.c **** 		}
1577:../libraries/Storage/sd_mmc.c **** 		sd_decode_csd();
1578:../libraries/Storage/sd_mmc.c **** 	}
1579:../libraries/Storage/sd_mmc.c **** 	// Select the and put it into Transfer Mode
1580:../libraries/Storage/sd_mmc.c **** 	if (!sd_mmc_card->iface->send_cmd(SDMMC_CMD7_SELECT_CARD_CMD,
1581:../libraries/Storage/sd_mmc.c **** 			(uint32_t)sd_mmc_card->rca << 16)) {
1582:../libraries/Storage/sd_mmc.c **** 		return false;
1583:../libraries/Storage/sd_mmc.c **** 	}
1584:../libraries/Storage/sd_mmc.c **** 	// SD MEMORY, Read the SCR to get card version
1585:../libraries/Storage/sd_mmc.c **** 	if (sd_mmc_card->type & CARD_TYPE_SD) {
1586:../libraries/Storage/sd_mmc.c **** 		if (!sd_acmd51()) {
1587:../libraries/Storage/sd_mmc.c **** 			return false;
1588:../libraries/Storage/sd_mmc.c **** 		}
1589:../libraries/Storage/sd_mmc.c **** 	}
1590:../libraries/Storage/sd_mmc.c **** 	if (IS_SDIO()) {
1591:../libraries/Storage/sd_mmc.c **** 		if (!sdio_get_max_speed()) {
1592:../libraries/Storage/sd_mmc.c **** 			return false;
1593:../libraries/Storage/sd_mmc.c **** 		}
1594:../libraries/Storage/sd_mmc.c **** 	}
1595:../libraries/Storage/sd_mmc.c **** 	if ((4 <= sd_mmc_card->iface->get_bus_width(sd_mmc_card->slot))) {
1596:../libraries/Storage/sd_mmc.c **** 		// TRY to enable 4-bit mode
1597:../libraries/Storage/sd_mmc.c **** 		if (IS_SDIO()) {
1598:../libraries/Storage/sd_mmc.c **** 			if (!sdio_cmd52_set_bus_width()) {
1599:../libraries/Storage/sd_mmc.c **** 				return false;
1600:../libraries/Storage/sd_mmc.c **** 			}
1601:../libraries/Storage/sd_mmc.c **** 		}
1602:../libraries/Storage/sd_mmc.c **** 		if (sd_mmc_card->type & CARD_TYPE_SD) {
1603:../libraries/Storage/sd_mmc.c **** 			if (!sd_acmd6()) {
1604:../libraries/Storage/sd_mmc.c **** 				return false;
1605:../libraries/Storage/sd_mmc.c **** 			}
1606:../libraries/Storage/sd_mmc.c **** 		}
1607:../libraries/Storage/sd_mmc.c **** 		// Switch to selected bus mode
ARM GAS  /tmp/ccTIydBQ.s 			page 70


1608:../libraries/Storage/sd_mmc.c **** 		sd_mmc_configure_slot();
1609:../libraries/Storage/sd_mmc.c **** 	}
1610:../libraries/Storage/sd_mmc.c **** 	if (sd_mmc_card->iface->is_high_speed_capable()) {
1611:../libraries/Storage/sd_mmc.c **** 		// TRY to enable High-Speed Mode
1612:../libraries/Storage/sd_mmc.c **** 		if (IS_SDIO()) {
1613:../libraries/Storage/sd_mmc.c **** 			if (!sdio_cmd52_set_high_speed()) {
1614:../libraries/Storage/sd_mmc.c **** 				return false;
1615:../libraries/Storage/sd_mmc.c **** 			}
1616:../libraries/Storage/sd_mmc.c **** 		}
1617:../libraries/Storage/sd_mmc.c **** 		if (sd_mmc_card->type & CARD_TYPE_SD) {
1618:../libraries/Storage/sd_mmc.c **** 			if (sd_mmc_card->version > CARD_VER_SD_1_0) {
1619:../libraries/Storage/sd_mmc.c **** 				if (!sd_cm6_set_high_speed()) {
1620:../libraries/Storage/sd_mmc.c **** 					return false;
1621:../libraries/Storage/sd_mmc.c **** 				}
1622:../libraries/Storage/sd_mmc.c **** 			}
1623:../libraries/Storage/sd_mmc.c **** 		}
1624:../libraries/Storage/sd_mmc.c **** 		// Valid new configuration
1625:../libraries/Storage/sd_mmc.c **** 		sd_mmc_configure_slot();
1626:../libraries/Storage/sd_mmc.c **** 	}
1627:../libraries/Storage/sd_mmc.c **** 	// SD MEMORY, Set default block size
1628:../libraries/Storage/sd_mmc.c **** 	if (sd_mmc_card->type & CARD_TYPE_SD) {
1629:../libraries/Storage/sd_mmc.c **** 		if (!sd_mmc_card->iface->send_cmd(SDMMC_CMD16_SET_BLOCKLEN, SD_MMC_BLOCK_SIZE)) {
1630:../libraries/Storage/sd_mmc.c **** 			return false;
1631:../libraries/Storage/sd_mmc.c **** 		}
1632:../libraries/Storage/sd_mmc.c **** 	}
1633:../libraries/Storage/sd_mmc.c **** 	return true;
1634:../libraries/Storage/sd_mmc.c **** }
1635:../libraries/Storage/sd_mmc.c **** 
1636:../libraries/Storage/sd_mmc.c **** /**
1637:../libraries/Storage/sd_mmc.c ****  * \brief Initialize the MMC card in SPI mode.
1638:../libraries/Storage/sd_mmc.c ****  *
1639:../libraries/Storage/sd_mmc.c ****  * \note
1640:../libraries/Storage/sd_mmc.c ****  * This function runs the initialization procedure and the identification
1641:../libraries/Storage/sd_mmc.c ****  * process, then it sets the SD/MMC card in transfer state.
1642:../libraries/Storage/sd_mmc.c ****  * At last, it will automatically enable maximum bus width and transfer speed.
1643:../libraries/Storage/sd_mmc.c ****  *
1644:../libraries/Storage/sd_mmc.c ****  * \return true if success, otherwise false
1645:../libraries/Storage/sd_mmc.c ****  */
1646:../libraries/Storage/sd_mmc.c **** static bool sd_mmc_spi_install_mmc(void)
1647:../libraries/Storage/sd_mmc.c **** {
1648:../libraries/Storage/sd_mmc.c **** 	uint8_t b_authorize_high_speed;
1649:../libraries/Storage/sd_mmc.c **** 
1650:../libraries/Storage/sd_mmc.c **** 	// CMD0 - Reset all cards to idle state.
1651:../libraries/Storage/sd_mmc.c **** 	if (!sd_mmc_card->iface->send_cmd(SDMMC_SPI_CMD0_GO_IDLE_STATE, 0)) {
1652:../libraries/Storage/sd_mmc.c **** 		return false;
1653:../libraries/Storage/sd_mmc.c **** 	}
1654:../libraries/Storage/sd_mmc.c **** 
1655:../libraries/Storage/sd_mmc.c **** 	if (!mmc_spi_op_cond()) {
1656:../libraries/Storage/sd_mmc.c **** 		return false;
1657:../libraries/Storage/sd_mmc.c **** 	}
1658:../libraries/Storage/sd_mmc.c **** 
1659:../libraries/Storage/sd_mmc.c **** 	// Disable CRC check for SPI mode
1660:../libraries/Storage/sd_mmc.c **** 	if (!sd_mmc_card->iface->send_cmd(SDMMC_SPI_CMD59_CRC_ON_OFF, 0)) {
1661:../libraries/Storage/sd_mmc.c **** 		return false;
1662:../libraries/Storage/sd_mmc.c **** 	}
1663:../libraries/Storage/sd_mmc.c **** 	// Get the Card-Specific Data
1664:../libraries/Storage/sd_mmc.c **** 	if (!sd_mmc_cmd9_spi()) {
ARM GAS  /tmp/ccTIydBQ.s 			page 71


1665:../libraries/Storage/sd_mmc.c **** 		return false;
1666:../libraries/Storage/sd_mmc.c **** 	}
1667:../libraries/Storage/sd_mmc.c **** 	mmc_decode_csd();
1668:../libraries/Storage/sd_mmc.c **** 	// For MMC 4.0 Higher version
1669:../libraries/Storage/sd_mmc.c **** 	if (sd_mmc_card->version >= CARD_VER_MMC_4) {
1670:../libraries/Storage/sd_mmc.c **** 		// Get EXT_CSD
1671:../libraries/Storage/sd_mmc.c **** 		if (!mmc_cmd8(&b_authorize_high_speed)) {
1672:../libraries/Storage/sd_mmc.c **** 			return false;
1673:../libraries/Storage/sd_mmc.c **** 		}
1674:../libraries/Storage/sd_mmc.c **** 	}
1675:../libraries/Storage/sd_mmc.c **** 	// Set default block size
