ARM GAS  /tmp/ccHBIC16.s 			page 1


   1              		.cpu cortex-m7
   2              		.eabi_attribute 28, 1
   3              		.eabi_attribute 20, 1
   4              		.eabi_attribute 21, 1
   5              		.eabi_attribute 23, 3
   6              		.eabi_attribute 24, 1
   7              		.eabi_attribute 25, 1
   8              		.eabi_attribute 26, 1
   9              		.eabi_attribute 30, 2
  10              		.eabi_attribute 34, 1
  11              		.eabi_attribute 18, 4
  12              		.file	"SharedSpi.cpp"
  13              		.text
  14              	.Ltext0:
  15              		.cfi_sections	.debug_frame
  16              		.section	.text.sspi_master_init,"ax",%progbits
  17              		.align	1
  18              		.p2align 2,,3
  19              		.global	sspi_master_init
  20              		.syntax unified
  21              		.thumb
  22              		.thumb_func
  23              		.fpu fpv5-d16
  24              		.type	sspi_master_init, %function
  25              	sspi_master_init:
  26              	.LFB530:
  27              		.file 1 "../libraries/SharedSpi/SharedSpi.cpp"
   1:../libraries/SharedSpi/SharedSpi.cpp **** // ASF 3.27.0
   2:../libraries/SharedSpi/SharedSpi.cpp **** 
   3:../libraries/SharedSpi/SharedSpi.cpp **** /**
   4:../libraries/SharedSpi/SharedSpi.cpp ****  * \file
   5:../libraries/SharedSpi/SharedSpi.cpp ****  *
   6:../libraries/SharedSpi/SharedSpi.cpp ****  * \brief Shared SPI bus services for Duet and other Atmel SAM-based controller electronics
   7:../libraries/SharedSpi/SharedSpi.cpp ****  *
   8:../libraries/SharedSpi/SharedSpi.cpp ****  * This module provides access to the SPI bus used to access peripheral devices in RepRapFirmware, 
   9:../libraries/SharedSpi/SharedSpi.cpp ****  * Depending on the board, we may use either the main SPI channel or one of the USARTs in SPI mode.
  10:../libraries/SharedSpi/SharedSpi.cpp ****  *
  11:../libraries/SharedSpi/SharedSpi.cpp ****  */
  12:../libraries/SharedSpi/SharedSpi.cpp **** 
  13:../libraries/SharedSpi/SharedSpi.cpp **** #include "Core.h"
  14:../libraries/SharedSpi/SharedSpi.cpp **** #include "SharedSpi.h"
  15:../libraries/SharedSpi/SharedSpi.cpp **** #include "variant.h"
  16:../libraries/SharedSpi/SharedSpi.cpp **** 
  17:../libraries/SharedSpi/SharedSpi.cpp **** #if SAM4E
  18:../libraries/SharedSpi/SharedSpi.cpp **** 
  19:../libraries/SharedSpi/SharedSpi.cpp **** #define USART_SPI		1
  20:../libraries/SharedSpi/SharedSpi.cpp **** 
  21:../libraries/SharedSpi/SharedSpi.cpp **** # include "usart/usart.h"		// On Duet NG the general SPI channel is on USART 0
  22:../libraries/SharedSpi/SharedSpi.cpp **** 
  23:../libraries/SharedSpi/SharedSpi.cpp **** #  define USART_SSPI	USART0
  24:../libraries/SharedSpi/SharedSpi.cpp **** #  define ID_SSPI		ID_USART0
  25:../libraries/SharedSpi/SharedSpi.cpp **** 
  26:../libraries/SharedSpi/SharedSpi.cpp **** #elif SAM4S
  27:../libraries/SharedSpi/SharedSpi.cpp **** 
  28:../libraries/SharedSpi/SharedSpi.cpp **** #define USART_SPI		1
  29:../libraries/SharedSpi/SharedSpi.cpp **** 
  30:../libraries/SharedSpi/SharedSpi.cpp **** # include "usart/usart.h"		// On Duet Maestro the general SPI channel is on USART 0
ARM GAS  /tmp/ccHBIC16.s 			page 2


  31:../libraries/SharedSpi/SharedSpi.cpp **** 
  32:../libraries/SharedSpi/SharedSpi.cpp **** #  define USART_SSPI	USART0
  33:../libraries/SharedSpi/SharedSpi.cpp **** #  define ID_SSPI		ID_USART0
  34:../libraries/SharedSpi/SharedSpi.cpp **** 
  35:../libraries/SharedSpi/SharedSpi.cpp **** #else
  36:../libraries/SharedSpi/SharedSpi.cpp **** 
  37:../libraries/SharedSpi/SharedSpi.cpp **** #define USART_SPI		0
  38:../libraries/SharedSpi/SharedSpi.cpp **** 
  39:../libraries/SharedSpi/SharedSpi.cpp **** // We have to tell the processor which NPCS output we are using, even though we use other pins for 
  40:../libraries/SharedSpi/SharedSpi.cpp **** #if SAME70
  41:../libraries/SharedSpi/SharedSpi.cpp **** // We choose NPCS2 because on the SAME70, it is not physically connected
  42:../libraries/SharedSpi/SharedSpi.cpp **** # define PERIPHERAL_CHANNEL_ID		2
  43:../libraries/SharedSpi/SharedSpi.cpp **** # define PERIPHERAL_CHANNEL_CS_PIN	APIN_SPI_SS2
  44:../libraries/SharedSpi/SharedSpi.cpp **** #elif SAM3XA
  45:../libraries/SharedSpi/SharedSpi.cpp **** // We choose NPCS3 because on the SAM3X, it is not physically connected
  46:../libraries/SharedSpi/SharedSpi.cpp **** # define PERIPHERAL_CHANNEL_ID		3
  47:../libraries/SharedSpi/SharedSpi.cpp **** # define PERIPHERAL_CHANNEL_CS_PIN	APIN_SPI_SS3
  48:../libraries/SharedSpi/SharedSpi.cpp **** #endif
  49:../libraries/SharedSpi/SharedSpi.cpp **** 
  50:../libraries/SharedSpi/SharedSpi.cpp **** 
  51:../libraries/SharedSpi/SharedSpi.cpp **** /** Time-out value (number of attempts). */
  52:../libraries/SharedSpi/SharedSpi.cpp **** #define SPI_TIMEOUT       15000
  53:../libraries/SharedSpi/SharedSpi.cpp **** 
  54:../libraries/SharedSpi/SharedSpi.cpp **** // Which SPI channel we use
  55:../libraries/SharedSpi/SharedSpi.cpp **** # define SSPI		SPI0
  56:../libraries/SharedSpi/SharedSpi.cpp **** # define ID_SSPI	ID_SPI0
  57:../libraries/SharedSpi/SharedSpi.cpp **** 
  58:../libraries/SharedSpi/SharedSpi.cpp **** #endif
  59:../libraries/SharedSpi/SharedSpi.cpp **** 
  60:../libraries/SharedSpi/SharedSpi.cpp **** // Wait for transmitter ready returning true if timed out
  61:../libraries/SharedSpi/SharedSpi.cpp **** static inline bool waitForTxReady()
  62:../libraries/SharedSpi/SharedSpi.cpp **** {
  63:../libraries/SharedSpi/SharedSpi.cpp **** 	uint32_t timeout = SPI_TIMEOUT;
  64:../libraries/SharedSpi/SharedSpi.cpp **** #if USART_SPI
  65:../libraries/SharedSpi/SharedSpi.cpp **** 	while (!usart_is_tx_ready(USART_SSPI))
  66:../libraries/SharedSpi/SharedSpi.cpp **** #else
  67:../libraries/SharedSpi/SharedSpi.cpp **** 	while (!spi_is_tx_ready(SSPI))
  68:../libraries/SharedSpi/SharedSpi.cpp **** #endif
  69:../libraries/SharedSpi/SharedSpi.cpp **** 	{
  70:../libraries/SharedSpi/SharedSpi.cpp **** 		if (--timeout == 0)
  71:../libraries/SharedSpi/SharedSpi.cpp **** 		{
  72:../libraries/SharedSpi/SharedSpi.cpp **** 			return true;
  73:../libraries/SharedSpi/SharedSpi.cpp **** 		}
  74:../libraries/SharedSpi/SharedSpi.cpp **** 	}
  75:../libraries/SharedSpi/SharedSpi.cpp **** 	return false;
  76:../libraries/SharedSpi/SharedSpi.cpp **** }
  77:../libraries/SharedSpi/SharedSpi.cpp **** 
  78:../libraries/SharedSpi/SharedSpi.cpp **** // Wait for transmitter empty returning true if timed out
  79:../libraries/SharedSpi/SharedSpi.cpp **** static inline bool waitForTxEmpty()
  80:../libraries/SharedSpi/SharedSpi.cpp **** {
  81:../libraries/SharedSpi/SharedSpi.cpp **** 	uint32_t timeout = SPI_TIMEOUT;
  82:../libraries/SharedSpi/SharedSpi.cpp **** #if USART_SPI
  83:../libraries/SharedSpi/SharedSpi.cpp **** 	while (!usart_is_tx_empty(USART_SSPI))
  84:../libraries/SharedSpi/SharedSpi.cpp **** #else
  85:../libraries/SharedSpi/SharedSpi.cpp **** 		while (!spi_is_tx_empty(SSPI))
  86:../libraries/SharedSpi/SharedSpi.cpp **** #endif
  87:../libraries/SharedSpi/SharedSpi.cpp **** 	{
ARM GAS  /tmp/ccHBIC16.s 			page 3


  88:../libraries/SharedSpi/SharedSpi.cpp **** 		if (!timeout--)
  89:../libraries/SharedSpi/SharedSpi.cpp **** 		{
  90:../libraries/SharedSpi/SharedSpi.cpp **** 			return true;
  91:../libraries/SharedSpi/SharedSpi.cpp **** 		}
  92:../libraries/SharedSpi/SharedSpi.cpp **** 	}
  93:../libraries/SharedSpi/SharedSpi.cpp **** 	return false;
  94:../libraries/SharedSpi/SharedSpi.cpp **** }
  95:../libraries/SharedSpi/SharedSpi.cpp **** 
  96:../libraries/SharedSpi/SharedSpi.cpp **** // Wait for receive data available returning true if timed out
  97:../libraries/SharedSpi/SharedSpi.cpp **** static inline bool waitForRxReady()
  98:../libraries/SharedSpi/SharedSpi.cpp **** {
  99:../libraries/SharedSpi/SharedSpi.cpp **** 	uint32_t timeout = SPI_TIMEOUT;
 100:../libraries/SharedSpi/SharedSpi.cpp **** #if USART_SPI
 101:../libraries/SharedSpi/SharedSpi.cpp **** 	while (!usart_is_rx_ready(USART_SSPI))
 102:../libraries/SharedSpi/SharedSpi.cpp **** #else
 103:../libraries/SharedSpi/SharedSpi.cpp **** 	while (!spi_is_rx_ready(SSPI))
 104:../libraries/SharedSpi/SharedSpi.cpp **** #endif
 105:../libraries/SharedSpi/SharedSpi.cpp **** 	{
 106:../libraries/SharedSpi/SharedSpi.cpp **** 		if (--timeout == 0)
 107:../libraries/SharedSpi/SharedSpi.cpp **** 		{
 108:../libraries/SharedSpi/SharedSpi.cpp **** 			return true;
 109:../libraries/SharedSpi/SharedSpi.cpp **** 		}
 110:../libraries/SharedSpi/SharedSpi.cpp **** 	}
 111:../libraries/SharedSpi/SharedSpi.cpp **** 	return false;
 112:../libraries/SharedSpi/SharedSpi.cpp **** }
 113:../libraries/SharedSpi/SharedSpi.cpp **** 
 114:../libraries/SharedSpi/SharedSpi.cpp **** // Set up the Shared SPI subsystem
 115:../libraries/SharedSpi/SharedSpi.cpp **** void sspi_master_init(struct sspi_device *device, uint32_t bits)
 116:../libraries/SharedSpi/SharedSpi.cpp **** {
  28              		.loc 1 116 0
  29              		.cfi_startproc
  30              		@ args = 0, pretend = 0, frame = 0
  31              		@ frame_needed = 0, uses_anonymous_args = 0
  32              	.LVL0:
  33 0000 F8B5     		push	{r3, r4, r5, r6, r7, lr}
  34              		.cfi_def_cfa_offset 24
  35              		.cfi_offset 3, -24
  36              		.cfi_offset 4, -20
  37              		.cfi_offset 5, -16
  38              		.cfi_offset 6, -12
  39              		.cfi_offset 7, -8
  40              		.cfi_offset 14, -4
  41              	.LBB34:
  42              	.LBB35:
  43              		.file 2 "/home/torbjorn/eclipse-workspace/CoreNG/cores/arduino/wiring_digital.h"
   1:/home/torbjorn/eclipse-workspace/CoreNG/cores/arduino/wiring_digital.h **** /*
   2:/home/torbjorn/eclipse-workspace/CoreNG/cores/arduino/wiring_digital.h ****   Copyright (c) 2011 Arduino.  All right reserved.
   3:/home/torbjorn/eclipse-workspace/CoreNG/cores/arduino/wiring_digital.h **** 
   4:/home/torbjorn/eclipse-workspace/CoreNG/cores/arduino/wiring_digital.h ****   This library is free software; you can redistribute it and/or
   5:/home/torbjorn/eclipse-workspace/CoreNG/cores/arduino/wiring_digital.h ****   modify it under the terms of the GNU Lesser General Public
   6:/home/torbjorn/eclipse-workspace/CoreNG/cores/arduino/wiring_digital.h ****   License as published by the Free Software Foundation; either
   7:/home/torbjorn/eclipse-workspace/CoreNG/cores/arduino/wiring_digital.h ****   version 2.1 of the License, or (at your option) any later version.
   8:/home/torbjorn/eclipse-workspace/CoreNG/cores/arduino/wiring_digital.h **** 
   9:/home/torbjorn/eclipse-workspace/CoreNG/cores/arduino/wiring_digital.h ****   This library is distributed in the hope that it will be useful,
  10:/home/torbjorn/eclipse-workspace/CoreNG/cores/arduino/wiring_digital.h ****   but WITHOUT ANY WARRANTY; without even the implied warranty of
  11:/home/torbjorn/eclipse-workspace/CoreNG/cores/arduino/wiring_digital.h ****   MERCHANTABILITY or FITNESS FOR A PARTICULAR PURPOSE. 
  12:/home/torbjorn/eclipse-workspace/CoreNG/cores/arduino/wiring_digital.h ****   See the GNU Lesser General Public License for more details.
ARM GAS  /tmp/ccHBIC16.s 			page 4


  13:/home/torbjorn/eclipse-workspace/CoreNG/cores/arduino/wiring_digital.h **** 
  14:/home/torbjorn/eclipse-workspace/CoreNG/cores/arduino/wiring_digital.h ****   You should have received a copy of the GNU Lesser General Public
  15:/home/torbjorn/eclipse-workspace/CoreNG/cores/arduino/wiring_digital.h ****   License along with this library; if not, write to the Free Software
  16:/home/torbjorn/eclipse-workspace/CoreNG/cores/arduino/wiring_digital.h ****   Foundation, Inc., 51 Franklin St, Fifth Floor, Boston, MA  02110-1301  USA
  17:/home/torbjorn/eclipse-workspace/CoreNG/cores/arduino/wiring_digital.h **** */
  18:/home/torbjorn/eclipse-workspace/CoreNG/cores/arduino/wiring_digital.h **** 
  19:/home/torbjorn/eclipse-workspace/CoreNG/cores/arduino/wiring_digital.h **** #ifndef _WIRING_DIGITAL_
  20:/home/torbjorn/eclipse-workspace/CoreNG/cores/arduino/wiring_digital.h **** #define _WIRING_DIGITAL_
  21:/home/torbjorn/eclipse-workspace/CoreNG/cores/arduino/wiring_digital.h **** 
  22:/home/torbjorn/eclipse-workspace/CoreNG/cores/arduino/wiring_digital.h **** #ifdef __cplusplus
  23:/home/torbjorn/eclipse-workspace/CoreNG/cores/arduino/wiring_digital.h **** extern "C" {
  24:/home/torbjorn/eclipse-workspace/CoreNG/cores/arduino/wiring_digital.h **** #endif
  25:/home/torbjorn/eclipse-workspace/CoreNG/cores/arduino/wiring_digital.h **** 
  26:/home/torbjorn/eclipse-workspace/CoreNG/cores/arduino/wiring_digital.h **** // Pin mode enumeration. Would ideally be a C++ scoped enum, but we need to use it from C library f
  27:/home/torbjorn/eclipse-workspace/CoreNG/cores/arduino/wiring_digital.h **** enum PinMode
  28:/home/torbjorn/eclipse-workspace/CoreNG/cores/arduino/wiring_digital.h **** {
  29:/home/torbjorn/eclipse-workspace/CoreNG/cores/arduino/wiring_digital.h **** 	PIN_MODE_NOT_CONFIGURED = -1,	// used in Platform class to record that the mode for a pin has not 
  30:/home/torbjorn/eclipse-workspace/CoreNG/cores/arduino/wiring_digital.h **** 	INPUT = 0,						// pin is a digital input
  31:/home/torbjorn/eclipse-workspace/CoreNG/cores/arduino/wiring_digital.h **** 	INPUT_PULLUP,					// pin is a digital input with pullup enabled
  32:/home/torbjorn/eclipse-workspace/CoreNG/cores/arduino/wiring_digital.h **** #if SAM4E || SAM4S || SAME70
  33:/home/torbjorn/eclipse-workspace/CoreNG/cores/arduino/wiring_digital.h **** 	INPUT_PULLDOWN,					// pin is a digital input with pulldown enabled
  34:/home/torbjorn/eclipse-workspace/CoreNG/cores/arduino/wiring_digital.h **** #else
  35:/home/torbjorn/eclipse-workspace/CoreNG/cores/arduino/wiring_digital.h **** 	INPUT_PULLDOWN_NOT_AVAILABLE,
  36:/home/torbjorn/eclipse-workspace/CoreNG/cores/arduino/wiring_digital.h **** #endif
  37:/home/torbjorn/eclipse-workspace/CoreNG/cores/arduino/wiring_digital.h **** 	OUTPUT_LOW,						// pin is an output with initial state LOW
  38:/home/torbjorn/eclipse-workspace/CoreNG/cores/arduino/wiring_digital.h **** 	OUTPUT_HIGH,					// pin is an output with initial state HIGH
  39:/home/torbjorn/eclipse-workspace/CoreNG/cores/arduino/wiring_digital.h **** 	AIN,							// pin is an analog input, digital input buffer is disabled if possible
  40:/home/torbjorn/eclipse-workspace/CoreNG/cores/arduino/wiring_digital.h **** 	SPECIAL,						// pin is used for the special function defined for it in the variant.cpp file
  41:/home/torbjorn/eclipse-workspace/CoreNG/cores/arduino/wiring_digital.h **** 	OUTPUT_PWM_LOW,					// PWM output mode, initially low
  42:/home/torbjorn/eclipse-workspace/CoreNG/cores/arduino/wiring_digital.h **** 	OUTPUT_PWM_HIGH,				// PWM output mode, initially high
  43:/home/torbjorn/eclipse-workspace/CoreNG/cores/arduino/wiring_digital.h **** 	OUTPUT_LOW_OPEN_DRAIN,			// used in SX1509B expansion driver to put the pin in open drain output m
  44:/home/torbjorn/eclipse-workspace/CoreNG/cores/arduino/wiring_digital.h **** 	OUTPUT_HIGH_OPEN_DRAIN,			// used in SX1509B expansion driver to put the pin in open drain output 
  45:/home/torbjorn/eclipse-workspace/CoreNG/cores/arduino/wiring_digital.h **** 	OUTPUT_PWM_OPEN_DRAIN			// used in SX1509B expansion driver to put the pin in PWM output mode
  46:/home/torbjorn/eclipse-workspace/CoreNG/cores/arduino/wiring_digital.h **** };
  47:/home/torbjorn/eclipse-workspace/CoreNG/cores/arduino/wiring_digital.h **** 
  48:/home/torbjorn/eclipse-workspace/CoreNG/cores/arduino/wiring_digital.h **** /**
  49:/home/torbjorn/eclipse-workspace/CoreNG/cores/arduino/wiring_digital.h ****  * \brief Configures the specified pin to behave either as an input or an output. See the descripti
  50:/home/torbjorn/eclipse-workspace/CoreNG/cores/arduino/wiring_digital.h ****  *
  51:/home/torbjorn/eclipse-workspace/CoreNG/cores/arduino/wiring_digital.h ****  * \param ulPin The number of the pin whose mode you wish to set
  52:/home/torbjorn/eclipse-workspace/CoreNG/cores/arduino/wiring_digital.h ****  * \param ulMode Either INPUT or OUTPUT
  53:/home/torbjorn/eclipse-workspace/CoreNG/cores/arduino/wiring_digital.h ****  * \param debounceCutoff Debounce cutoff frequency (only one can be set per PIO)
  54:/home/torbjorn/eclipse-workspace/CoreNG/cores/arduino/wiring_digital.h ****  */
  55:/home/torbjorn/eclipse-workspace/CoreNG/cores/arduino/wiring_digital.h **** extern void pinModeDuet(Pin pin, enum PinMode dwMode, uint32_t debounceCutoff);
  56:/home/torbjorn/eclipse-workspace/CoreNG/cores/arduino/wiring_digital.h **** 
  57:/home/torbjorn/eclipse-workspace/CoreNG/cores/arduino/wiring_digital.h **** inline void pinMode(Pin pin, enum PinMode dwMode)
  58:/home/torbjorn/eclipse-workspace/CoreNG/cores/arduino/wiring_digital.h **** {
  59:/home/torbjorn/eclipse-workspace/CoreNG/cores/arduino/wiring_digital.h **** 	pinModeDuet(pin, dwMode, 0);
  44              		.loc 2 59 0
  45 0002 0022     		movs	r2, #0
  46              	.LBE35:
  47              	.LBE34:
 117:../libraries/SharedSpi/SharedSpi.cpp **** 	static bool commsInitDone = false;
 118:../libraries/SharedSpi/SharedSpi.cpp **** 
 119:../libraries/SharedSpi/SharedSpi.cpp **** 	pinMode(device->csPin, (device->csPolarity) ? OUTPUT_LOW : OUTPUT_HIGH);
  48              		.loc 1 119 0
  49 0004 4378     		ldrb	r3, [r0, #1]	@ zero_extendqisi2
 120:../libraries/SharedSpi/SharedSpi.cpp **** 
ARM GAS  /tmp/ccHBIC16.s 			page 5


 121:../libraries/SharedSpi/SharedSpi.cpp **** 	if (!commsInitDone)
  50              		.loc 1 121 0
  51 0006 144D     		ldr	r5, .L11
 116:../libraries/SharedSpi/SharedSpi.cpp **** 	static bool commsInitDone = false;
  52              		.loc 1 116 0
  53 0008 0E46     		mov	r6, r1
 119:../libraries/SharedSpi/SharedSpi.cpp **** 
  54              		.loc 1 119 0
  55 000a 9342     		cmp	r3, r2
 116:../libraries/SharedSpi/SharedSpi.cpp **** 	static bool commsInitDone = false;
  56              		.loc 1 116 0
  57 000c 0446     		mov	r4, r0
  58              	.LVL1:
  59              	.LBB37:
  60              	.LBB36:
  61              		.loc 2 59 0
  62 000e 0078     		ldrb	r0, [r0]	@ zero_extendqisi2
  63              	.LVL2:
  64 0010 14BF     		ite	ne
  65 0012 0321     		movne	r1, #3
  66              	.LVL3:
  67 0014 0421     		moveq	r1, #4
  68 0016 FFF7FEFF 		bl	pinModeDuet
  69              	.LVL4:
  70              	.LBE36:
  71              	.LBE37:
  72              		.loc 1 121 0
  73 001a 2B78     		ldrb	r3, [r5]	@ zero_extendqisi2
  74 001c 2BB1     		cbz	r3, .L10
  75              	.L3:
 122:../libraries/SharedSpi/SharedSpi.cpp **** 	{
 123:../libraries/SharedSpi/SharedSpi.cpp **** #if USART_SPI
 124:../libraries/SharedSpi/SharedSpi.cpp **** 		ConfigurePin(g_APinDescription[APIN_USART0_SCK]);
 125:../libraries/SharedSpi/SharedSpi.cpp **** 		ConfigurePin(g_APinDescription[APIN_USART0_MOSI]);
 126:../libraries/SharedSpi/SharedSpi.cpp **** 		ConfigurePin(g_APinDescription[APIN_USART0_MISO]);
 127:../libraries/SharedSpi/SharedSpi.cpp **** 		pmc_enable_periph_clk(ID_SSPI);
 128:../libraries/SharedSpi/SharedSpi.cpp **** 
 129:../libraries/SharedSpi/SharedSpi.cpp **** 		// Set USART0 in SPI master mode
 130:../libraries/SharedSpi/SharedSpi.cpp **** 		USART_SSPI->US_IDR = ~0u;
 131:../libraries/SharedSpi/SharedSpi.cpp **** 		USART_SSPI->US_CR = US_CR_RSTRX | US_CR_RSTTX | US_CR_RXDIS | US_CR_TXDIS;
 132:../libraries/SharedSpi/SharedSpi.cpp **** 		USART_SSPI->US_MR = US_MR_USART_MODE_SPI_MASTER
 133:../libraries/SharedSpi/SharedSpi.cpp **** 						| US_MR_USCLKS_MCK
 134:../libraries/SharedSpi/SharedSpi.cpp **** 						| US_MR_CHRL_8_BIT
 135:../libraries/SharedSpi/SharedSpi.cpp **** 						| US_MR_CHMODE_NORMAL;
 136:../libraries/SharedSpi/SharedSpi.cpp **** 		USART_SSPI->US_BRGR = SystemCoreClock/1000000;			// 1MHz SPI clock for now
 137:../libraries/SharedSpi/SharedSpi.cpp **** 		USART_SSPI->US_CR = US_CR_RSTRX | US_CR_RSTTX | US_CR_RXDIS | US_CR_TXDIS | US_CR_RSTSTA;
 138:../libraries/SharedSpi/SharedSpi.cpp **** #else
 139:../libraries/SharedSpi/SharedSpi.cpp **** 		ConfigurePin(g_APinDescription[APIN_SPI_SCK]);
 140:../libraries/SharedSpi/SharedSpi.cpp **** 		ConfigurePin(g_APinDescription[APIN_SPI_MOSI]);
 141:../libraries/SharedSpi/SharedSpi.cpp **** 		ConfigurePin(g_APinDescription[APIN_SPI_MISO]);
 142:../libraries/SharedSpi/SharedSpi.cpp **** 
 143:../libraries/SharedSpi/SharedSpi.cpp **** 		pmc_enable_periph_clk(ID_SSPI);
 144:../libraries/SharedSpi/SharedSpi.cpp **** 
 145:../libraries/SharedSpi/SharedSpi.cpp **** 		SSPI->SPI_CR = SPI_CR_SPIDIS;
 146:../libraries/SharedSpi/SharedSpi.cpp **** 	    SSPI->SPI_CR = SPI_CR_SWRST;
 147:../libraries/SharedSpi/SharedSpi.cpp **** 	    SSPI->SPI_MR = SPI_MR_MSTR | SPI_MR_MODFDIS;
 148:../libraries/SharedSpi/SharedSpi.cpp **** 
ARM GAS  /tmp/ccHBIC16.s 			page 6


 149:../libraries/SharedSpi/SharedSpi.cpp **** # if defined(USE_SAM3X_DMAC)
 150:../libraries/SharedSpi/SharedSpi.cpp **** 		pmc_enable_periph_clk(ID_DMAC);
 151:../libraries/SharedSpi/SharedSpi.cpp **** 		dmac_disable(DMAC);
 152:../libraries/SharedSpi/SharedSpi.cpp **** 		dmac_set_priority_mode(DMAC, DMAC_GCFG_ARB_CFG_FIXED);
 153:../libraries/SharedSpi/SharedSpi.cpp **** 		dmac_enable(DMAC);
 154:../libraries/SharedSpi/SharedSpi.cpp **** # endif
 155:../libraries/SharedSpi/SharedSpi.cpp **** 
 156:../libraries/SharedSpi/SharedSpi.cpp **** #endif
 157:../libraries/SharedSpi/SharedSpi.cpp **** 		commsInitDone = true;
 158:../libraries/SharedSpi/SharedSpi.cpp **** 	}
 159:../libraries/SharedSpi/SharedSpi.cpp **** 
 160:../libraries/SharedSpi/SharedSpi.cpp **** #if USART_SPI
 161:../libraries/SharedSpi/SharedSpi.cpp **** 	// On USARTs we only support 8-bit transfers. 5, 6, 7 and 9 are also available.
 162:../libraries/SharedSpi/SharedSpi.cpp **** 	device->bitsPerTransferControl = US_MR_CHRL_8_BIT;
 163:../libraries/SharedSpi/SharedSpi.cpp **** #else
 164:../libraries/SharedSpi/SharedSpi.cpp **** 	// On SPI we only support 8 and 16 bit modes. 11-15 bit modes are also available.
 165:../libraries/SharedSpi/SharedSpi.cpp **** 	switch (bits)
  76              		.loc 1 165 0
  77 001e 102E     		cmp	r6, #16
 166:../libraries/SharedSpi/SharedSpi.cpp **** 	{
 167:../libraries/SharedSpi/SharedSpi.cpp **** 	case 8:
 168:../libraries/SharedSpi/SharedSpi.cpp **** 	default:
 169:../libraries/SharedSpi/SharedSpi.cpp **** 		device->bitsPerTransferControl = SPI_CSR_BITS_8_BIT;
  78              		.loc 1 169 0
  79 0020 14BF     		ite	ne
  80 0022 0023     		movne	r3, #0
 170:../libraries/SharedSpi/SharedSpi.cpp **** 		break;
 171:../libraries/SharedSpi/SharedSpi.cpp **** 	case 16:
 172:../libraries/SharedSpi/SharedSpi.cpp **** 		device->bitsPerTransferControl = SPI_CSR_BITS_16_BIT;
  81              		.loc 1 172 0
  82 0024 8023     		moveq	r3, #128
  83 0026 A370     		strb	r3, [r4, #2]
  84 0028 F8BD     		pop	{r3, r4, r5, r6, r7, pc}
  85              	.LVL5:
  86              	.L10:
 139:../libraries/SharedSpi/SharedSpi.cpp **** 		ConfigurePin(g_APinDescription[APIN_SPI_MOSI]);
  87              		.loc 1 139 0
  88 002a 0C48     		ldr	r0, .L11+4
 145:../libraries/SharedSpi/SharedSpi.cpp **** 	    SSPI->SPI_CR = SPI_CR_SWRST;
  89              		.loc 1 145 0
  90 002c 0227     		movs	r7, #2
 139:../libraries/SharedSpi/SharedSpi.cpp **** 		ConfigurePin(g_APinDescription[APIN_SPI_MOSI]);
  91              		.loc 1 139 0
  92 002e FFF7FEFF 		bl	_Z12ConfigurePinRK14PinDescription
  93              	.LVL6:
 140:../libraries/SharedSpi/SharedSpi.cpp **** 		ConfigurePin(g_APinDescription[APIN_SPI_MISO]);
  94              		.loc 1 140 0
  95 0032 0B48     		ldr	r0, .L11+8
  96 0034 FFF7FEFF 		bl	_Z12ConfigurePinRK14PinDescription
  97              	.LVL7:
 141:../libraries/SharedSpi/SharedSpi.cpp **** 
  98              		.loc 1 141 0
  99 0038 0A48     		ldr	r0, .L11+12
 100 003a FFF7FEFF 		bl	_Z12ConfigurePinRK14PinDescription
 101              	.LVL8:
 143:../libraries/SharedSpi/SharedSpi.cpp **** 
 102              		.loc 1 143 0
ARM GAS  /tmp/ccHBIC16.s 			page 7


 103 003e 1520     		movs	r0, #21
 104 0040 FFF7FEFF 		bl	pmc_enable_periph_clk
 105              	.LVL9:
 145:../libraries/SharedSpi/SharedSpi.cpp **** 	    SSPI->SPI_CR = SPI_CR_SWRST;
 106              		.loc 1 145 0
 107 0044 084B     		ldr	r3, .L11+16
 146:../libraries/SharedSpi/SharedSpi.cpp **** 	    SSPI->SPI_MR = SPI_MR_MSTR | SPI_MR_MODFDIS;
 108              		.loc 1 146 0
 109 0046 8020     		movs	r0, #128
 147:../libraries/SharedSpi/SharedSpi.cpp **** 
 110              		.loc 1 147 0
 111 0048 1121     		movs	r1, #17
 157:../libraries/SharedSpi/SharedSpi.cpp **** 	}
 112              		.loc 1 157 0
 113 004a 0122     		movs	r2, #1
 145:../libraries/SharedSpi/SharedSpi.cpp **** 	    SSPI->SPI_CR = SPI_CR_SWRST;
 114              		.loc 1 145 0
 115 004c 1F60     		str	r7, [r3]
 146:../libraries/SharedSpi/SharedSpi.cpp **** 	    SSPI->SPI_MR = SPI_MR_MSTR | SPI_MR_MODFDIS;
 116              		.loc 1 146 0
 117 004e 1860     		str	r0, [r3]
 147:../libraries/SharedSpi/SharedSpi.cpp **** 
 118              		.loc 1 147 0
 119 0050 5960     		str	r1, [r3, #4]
 157:../libraries/SharedSpi/SharedSpi.cpp **** 	}
 120              		.loc 1 157 0
 121 0052 2A70     		strb	r2, [r5]
 122 0054 E3E7     		b	.L3
 123              	.L12:
 124 0056 00BF     		.align	2
 125              	.L11:
 126 0058 00000000 		.word	.LANCHOR0
 127 005c B4040000 		.word	g_APinDescription+1204
 128 0060 98040000 		.word	g_APinDescription+1176
 129 0064 7C040000 		.word	g_APinDescription+1148
 130 0068 00800040 		.word	1073774592
 131              		.cfi_endproc
 132              	.LFE530:
 133              		.size	sspi_master_init, .-sspi_master_init
 134              		.section	.text.sspi_master_setup_device,"ax",%progbits
 135              		.align	1
 136              		.p2align 2,,3
 137              		.global	sspi_master_setup_device
 138              		.syntax unified
 139              		.thumb
 140              		.thumb_func
 141              		.fpu fpv5-d16
 142              		.type	sspi_master_setup_device, %function
 143              	sspi_master_setup_device:
 144              	.LFB531:
 173:../libraries/SharedSpi/SharedSpi.cpp **** 		break;
 174:../libraries/SharedSpi/SharedSpi.cpp **** 	}
 175:../libraries/SharedSpi/SharedSpi.cpp **** #endif
 176:../libraries/SharedSpi/SharedSpi.cpp **** }
 177:../libraries/SharedSpi/SharedSpi.cpp **** 
 178:../libraries/SharedSpi/SharedSpi.cpp **** /**
 179:../libraries/SharedSpi/SharedSpi.cpp ****  * \brief Set up an SPI device.
ARM GAS  /tmp/ccHBIC16.s 			page 8


 180:../libraries/SharedSpi/SharedSpi.cpp ****  *
 181:../libraries/SharedSpi/SharedSpi.cpp ****  * The returned device descriptor structure must be passed to the driver
 182:../libraries/SharedSpi/SharedSpi.cpp ****  * whenever that device should be used as current slave device.
 183:../libraries/SharedSpi/SharedSpi.cpp ****  *
 184:../libraries/SharedSpi/SharedSpi.cpp ****  * \param device    Pointer to SPI device struct that should be initialized.
 185:../libraries/SharedSpi/SharedSpi.cpp ****  */
 186:../libraries/SharedSpi/SharedSpi.cpp **** void sspi_master_setup_device(const struct sspi_device *device)
 187:../libraries/SharedSpi/SharedSpi.cpp **** {
 145              		.loc 1 187 0
 146              		.cfi_startproc
 147              		@ args = 0, pretend = 0, frame = 0
 148              		@ frame_needed = 0, uses_anonymous_args = 0
 149              	.LVL10:
 150 0000 10B5     		push	{r4, lr}
 151              		.cfi_def_cfa_offset 8
 152              		.cfi_offset 4, -8
 153              		.cfi_offset 14, -4
 154              	.LBB38:
 155              	.LBB39:
 156              		.file 3 "/home/torbjorn/eclipse-workspace/CoreNG/asf/sam/drivers/spi/spi.h"
   1:/home/torbjorn/eclipse-workspace/CoreNG/asf/sam/drivers/spi/spi.h **** /**
   2:/home/torbjorn/eclipse-workspace/CoreNG/asf/sam/drivers/spi/spi.h ****  * \file
   3:/home/torbjorn/eclipse-workspace/CoreNG/asf/sam/drivers/spi/spi.h ****  *
   4:/home/torbjorn/eclipse-workspace/CoreNG/asf/sam/drivers/spi/spi.h ****  * \brief Serial Peripheral Interface (SPI) driver for SAM.
   5:/home/torbjorn/eclipse-workspace/CoreNG/asf/sam/drivers/spi/spi.h ****  *
   6:/home/torbjorn/eclipse-workspace/CoreNG/asf/sam/drivers/spi/spi.h ****  * Copyright (c) 2011-2016 Atmel Corporation. All rights reserved.
   7:/home/torbjorn/eclipse-workspace/CoreNG/asf/sam/drivers/spi/spi.h ****  *
   8:/home/torbjorn/eclipse-workspace/CoreNG/asf/sam/drivers/spi/spi.h ****  * \asf_license_start
   9:/home/torbjorn/eclipse-workspace/CoreNG/asf/sam/drivers/spi/spi.h ****  *
  10:/home/torbjorn/eclipse-workspace/CoreNG/asf/sam/drivers/spi/spi.h ****  * \page License
  11:/home/torbjorn/eclipse-workspace/CoreNG/asf/sam/drivers/spi/spi.h ****  *
  12:/home/torbjorn/eclipse-workspace/CoreNG/asf/sam/drivers/spi/spi.h ****  * Redistribution and use in source and binary forms, with or without
  13:/home/torbjorn/eclipse-workspace/CoreNG/asf/sam/drivers/spi/spi.h ****  * modification, are permitted provided that the following conditions are met:
  14:/home/torbjorn/eclipse-workspace/CoreNG/asf/sam/drivers/spi/spi.h ****  *
  15:/home/torbjorn/eclipse-workspace/CoreNG/asf/sam/drivers/spi/spi.h ****  * 1. Redistributions of source code must retain the above copyright notice,
  16:/home/torbjorn/eclipse-workspace/CoreNG/asf/sam/drivers/spi/spi.h ****  *    this list of conditions and the following disclaimer.
  17:/home/torbjorn/eclipse-workspace/CoreNG/asf/sam/drivers/spi/spi.h ****  *
  18:/home/torbjorn/eclipse-workspace/CoreNG/asf/sam/drivers/spi/spi.h ****  * 2. Redistributions in binary form must reproduce the above copyright notice,
  19:/home/torbjorn/eclipse-workspace/CoreNG/asf/sam/drivers/spi/spi.h ****  *    this list of conditions and the following disclaimer in the documentation
  20:/home/torbjorn/eclipse-workspace/CoreNG/asf/sam/drivers/spi/spi.h ****  *    and/or other materials provided with the distribution.
  21:/home/torbjorn/eclipse-workspace/CoreNG/asf/sam/drivers/spi/spi.h ****  *
  22:/home/torbjorn/eclipse-workspace/CoreNG/asf/sam/drivers/spi/spi.h ****  * 3. The name of Atmel may not be used to endorse or promote products derived
  23:/home/torbjorn/eclipse-workspace/CoreNG/asf/sam/drivers/spi/spi.h ****  *    from this software without specific prior written permission.
  24:/home/torbjorn/eclipse-workspace/CoreNG/asf/sam/drivers/spi/spi.h ****  *
  25:/home/torbjorn/eclipse-workspace/CoreNG/asf/sam/drivers/spi/spi.h ****  * 4. This software may only be redistributed and used in connection with an
  26:/home/torbjorn/eclipse-workspace/CoreNG/asf/sam/drivers/spi/spi.h ****  *    Atmel microcontroller product.
  27:/home/torbjorn/eclipse-workspace/CoreNG/asf/sam/drivers/spi/spi.h ****  *
  28:/home/torbjorn/eclipse-workspace/CoreNG/asf/sam/drivers/spi/spi.h ****  * THIS SOFTWARE IS PROVIDED BY ATMEL "AS IS" AND ANY EXPRESS OR IMPLIED
  29:/home/torbjorn/eclipse-workspace/CoreNG/asf/sam/drivers/spi/spi.h ****  * WARRANTIES, INCLUDING, BUT NOT LIMITED TO, THE IMPLIED WARRANTIES OF
  30:/home/torbjorn/eclipse-workspace/CoreNG/asf/sam/drivers/spi/spi.h ****  * MERCHANTABILITY, FITNESS FOR A PARTICULAR PURPOSE AND NON-INFRINGEMENT ARE
  31:/home/torbjorn/eclipse-workspace/CoreNG/asf/sam/drivers/spi/spi.h ****  * EXPRESSLY AND SPECIFICALLY DISCLAIMED. IN NO EVENT SHALL ATMEL BE LIABLE FOR
  32:/home/torbjorn/eclipse-workspace/CoreNG/asf/sam/drivers/spi/spi.h ****  * ANY DIRECT, INDIRECT, INCIDENTAL, SPECIAL, EXEMPLARY, OR CONSEQUENTIAL
  33:/home/torbjorn/eclipse-workspace/CoreNG/asf/sam/drivers/spi/spi.h ****  * DAMAGES (INCLUDING, BUT NOT LIMITED TO, PROCUREMENT OF SUBSTITUTE GOODS
  34:/home/torbjorn/eclipse-workspace/CoreNG/asf/sam/drivers/spi/spi.h ****  * OR SERVICES; LOSS OF USE, DATA, OR PROFITS; OR BUSINESS INTERRUPTION)
  35:/home/torbjorn/eclipse-workspace/CoreNG/asf/sam/drivers/spi/spi.h ****  * HOWEVER CAUSED AND ON ANY THEORY OF LIABILITY, WHETHER IN CONTRACT,
  36:/home/torbjorn/eclipse-workspace/CoreNG/asf/sam/drivers/spi/spi.h ****  * STRICT LIABILITY, OR TORT (INCLUDING NEGLIGENCE OR OTHERWISE) ARISING IN
  37:/home/torbjorn/eclipse-workspace/CoreNG/asf/sam/drivers/spi/spi.h ****  * ANY WAY OUT OF THE USE OF THIS SOFTWARE, EVEN IF ADVISED OF THE
ARM GAS  /tmp/ccHBIC16.s 			page 9


  38:/home/torbjorn/eclipse-workspace/CoreNG/asf/sam/drivers/spi/spi.h ****  * POSSIBILITY OF SUCH DAMAGE.
  39:/home/torbjorn/eclipse-workspace/CoreNG/asf/sam/drivers/spi/spi.h ****  *
  40:/home/torbjorn/eclipse-workspace/CoreNG/asf/sam/drivers/spi/spi.h ****  * \asf_license_stop
  41:/home/torbjorn/eclipse-workspace/CoreNG/asf/sam/drivers/spi/spi.h ****  *
  42:/home/torbjorn/eclipse-workspace/CoreNG/asf/sam/drivers/spi/spi.h ****  */
  43:/home/torbjorn/eclipse-workspace/CoreNG/asf/sam/drivers/spi/spi.h **** /*
  44:/home/torbjorn/eclipse-workspace/CoreNG/asf/sam/drivers/spi/spi.h ****  * Support and FAQ: visit <a href="http://www.atmel.com/design-support/">Atmel Support</a>
  45:/home/torbjorn/eclipse-workspace/CoreNG/asf/sam/drivers/spi/spi.h ****  */
  46:/home/torbjorn/eclipse-workspace/CoreNG/asf/sam/drivers/spi/spi.h **** 
  47:/home/torbjorn/eclipse-workspace/CoreNG/asf/sam/drivers/spi/spi.h **** #ifndef SPI_H_INCLUDED
  48:/home/torbjorn/eclipse-workspace/CoreNG/asf/sam/drivers/spi/spi.h **** #define SPI_H_INCLUDED
  49:/home/torbjorn/eclipse-workspace/CoreNG/asf/sam/drivers/spi/spi.h **** 
  50:/home/torbjorn/eclipse-workspace/CoreNG/asf/sam/drivers/spi/spi.h **** #include "compiler.h"
  51:/home/torbjorn/eclipse-workspace/CoreNG/asf/sam/drivers/spi/spi.h **** 
  52:/home/torbjorn/eclipse-workspace/CoreNG/asf/sam/drivers/spi/spi.h **** /// @cond 0
  53:/home/torbjorn/eclipse-workspace/CoreNG/asf/sam/drivers/spi/spi.h **** /**INDENT-OFF**/
  54:/home/torbjorn/eclipse-workspace/CoreNG/asf/sam/drivers/spi/spi.h **** #ifdef __cplusplus
  55:/home/torbjorn/eclipse-workspace/CoreNG/asf/sam/drivers/spi/spi.h **** extern "C" {
  56:/home/torbjorn/eclipse-workspace/CoreNG/asf/sam/drivers/spi/spi.h **** #endif
  57:/home/torbjorn/eclipse-workspace/CoreNG/asf/sam/drivers/spi/spi.h **** /**INDENT-ON**/
  58:/home/torbjorn/eclipse-workspace/CoreNG/asf/sam/drivers/spi/spi.h **** /// @endcond
  59:/home/torbjorn/eclipse-workspace/CoreNG/asf/sam/drivers/spi/spi.h **** 
  60:/home/torbjorn/eclipse-workspace/CoreNG/asf/sam/drivers/spi/spi.h **** /** Time-out value (number of attempts). */
  61:/home/torbjorn/eclipse-workspace/CoreNG/asf/sam/drivers/spi/spi.h **** #define SPI_TIMEOUT       15000
  62:/home/torbjorn/eclipse-workspace/CoreNG/asf/sam/drivers/spi/spi.h **** 
  63:/home/torbjorn/eclipse-workspace/CoreNG/asf/sam/drivers/spi/spi.h **** /** Status codes used by the SPI driver. */
  64:/home/torbjorn/eclipse-workspace/CoreNG/asf/sam/drivers/spi/spi.h **** typedef enum
  65:/home/torbjorn/eclipse-workspace/CoreNG/asf/sam/drivers/spi/spi.h **** {
  66:/home/torbjorn/eclipse-workspace/CoreNG/asf/sam/drivers/spi/spi.h **** 	SPI_ERROR = -1,
  67:/home/torbjorn/eclipse-workspace/CoreNG/asf/sam/drivers/spi/spi.h **** 	SPI_OK = 0,
  68:/home/torbjorn/eclipse-workspace/CoreNG/asf/sam/drivers/spi/spi.h **** 	SPI_ERROR_TIMEOUT = 1,
  69:/home/torbjorn/eclipse-workspace/CoreNG/asf/sam/drivers/spi/spi.h **** 	SPI_ERROR_ARGUMENT,
  70:/home/torbjorn/eclipse-workspace/CoreNG/asf/sam/drivers/spi/spi.h **** 	SPI_ERROR_OVERRUN,
  71:/home/torbjorn/eclipse-workspace/CoreNG/asf/sam/drivers/spi/spi.h **** 	SPI_ERROR_MODE_FAULT,
  72:/home/torbjorn/eclipse-workspace/CoreNG/asf/sam/drivers/spi/spi.h **** 	SPI_ERROR_OVERRUN_AND_MODE_FAULT
  73:/home/torbjorn/eclipse-workspace/CoreNG/asf/sam/drivers/spi/spi.h **** } spi_status_t;
  74:/home/torbjorn/eclipse-workspace/CoreNG/asf/sam/drivers/spi/spi.h **** 
  75:/home/torbjorn/eclipse-workspace/CoreNG/asf/sam/drivers/spi/spi.h **** /** SPI Chip Select behavior modes while transferring. */
  76:/home/torbjorn/eclipse-workspace/CoreNG/asf/sam/drivers/spi/spi.h **** typedef enum spi_cs_behavior {
  77:/home/torbjorn/eclipse-workspace/CoreNG/asf/sam/drivers/spi/spi.h **** 	/** CS does not rise until a new transfer is requested on different chip select. */
  78:/home/torbjorn/eclipse-workspace/CoreNG/asf/sam/drivers/spi/spi.h **** 	SPI_CS_KEEP_LOW = SPI_CSR_CSAAT,
  79:/home/torbjorn/eclipse-workspace/CoreNG/asf/sam/drivers/spi/spi.h **** 	/** CS rises if there is no more data to transfer. */
  80:/home/torbjorn/eclipse-workspace/CoreNG/asf/sam/drivers/spi/spi.h **** 	SPI_CS_RISE_NO_TX = 0,
  81:/home/torbjorn/eclipse-workspace/CoreNG/asf/sam/drivers/spi/spi.h **** 	/** CS is de-asserted systematically during a time DLYBCS. */
  82:/home/torbjorn/eclipse-workspace/CoreNG/asf/sam/drivers/spi/spi.h **** 	SPI_CS_RISE_FORCED = SPI_CSR_CSNAAT
  83:/home/torbjorn/eclipse-workspace/CoreNG/asf/sam/drivers/spi/spi.h **** } spi_cs_behavior_t;
  84:/home/torbjorn/eclipse-workspace/CoreNG/asf/sam/drivers/spi/spi.h **** 
  85:/home/torbjorn/eclipse-workspace/CoreNG/asf/sam/drivers/spi/spi.h **** /**
  86:/home/torbjorn/eclipse-workspace/CoreNG/asf/sam/drivers/spi/spi.h ****  * \brief Generate Peripheral Chip Select Value from Chip Select ID
  87:/home/torbjorn/eclipse-workspace/CoreNG/asf/sam/drivers/spi/spi.h ****  * \note When chip select n is working, PCS bit n is set to low level.
  88:/home/torbjorn/eclipse-workspace/CoreNG/asf/sam/drivers/spi/spi.h ****  *
  89:/home/torbjorn/eclipse-workspace/CoreNG/asf/sam/drivers/spi/spi.h ****  * \param chip_sel_id The chip select number used
  90:/home/torbjorn/eclipse-workspace/CoreNG/asf/sam/drivers/spi/spi.h ****  */
  91:/home/torbjorn/eclipse-workspace/CoreNG/asf/sam/drivers/spi/spi.h **** #define spi_get_pcs(chip_sel_id) ((~(1u<<(chip_sel_id)))&0xF)
  92:/home/torbjorn/eclipse-workspace/CoreNG/asf/sam/drivers/spi/spi.h **** 
  93:/home/torbjorn/eclipse-workspace/CoreNG/asf/sam/drivers/spi/spi.h **** /**
  94:/home/torbjorn/eclipse-workspace/CoreNG/asf/sam/drivers/spi/spi.h ****  * \brief Reset SPI and set it to Slave mode.
ARM GAS  /tmp/ccHBIC16.s 			page 10


  95:/home/torbjorn/eclipse-workspace/CoreNG/asf/sam/drivers/spi/spi.h ****  *
  96:/home/torbjorn/eclipse-workspace/CoreNG/asf/sam/drivers/spi/spi.h ****  * \param p_spi Pointer to an SPI instance.
  97:/home/torbjorn/eclipse-workspace/CoreNG/asf/sam/drivers/spi/spi.h ****  */
  98:/home/torbjorn/eclipse-workspace/CoreNG/asf/sam/drivers/spi/spi.h **** static inline void spi_reset(Spi *p_spi)
  99:/home/torbjorn/eclipse-workspace/CoreNG/asf/sam/drivers/spi/spi.h **** {
 100:/home/torbjorn/eclipse-workspace/CoreNG/asf/sam/drivers/spi/spi.h **** 	p_spi->SPI_CR = SPI_CR_SWRST;
 157              		.loc 3 100 0
 158 0002 0F4B     		ldr	r3, .L20
 159              	.LBE39:
 160              	.LBE38:
 161              		.loc 1 187 0
 162 0004 0446     		mov	r4, r0
 188:../libraries/SharedSpi/SharedSpi.cpp **** #if USART_SPI
 189:../libraries/SharedSpi/SharedSpi.cpp **** 	USART_SSPI->US_CR = US_CR_RXDIS | US_CR_TXDIS;			// disable transmitter and receiver
 190:../libraries/SharedSpi/SharedSpi.cpp **** 	USART_SSPI->US_BRGR = SystemCoreClock/device->clockFrequency;
 191:../libraries/SharedSpi/SharedSpi.cpp **** 	uint32_t mr = US_MR_USART_MODE_SPI_MASTER
 192:../libraries/SharedSpi/SharedSpi.cpp **** 					| US_MR_USCLKS_MCK
 193:../libraries/SharedSpi/SharedSpi.cpp **** 					| US_MR_CHRL_8_BIT
 194:../libraries/SharedSpi/SharedSpi.cpp **** 					| US_MR_CHMODE_NORMAL
 195:../libraries/SharedSpi/SharedSpi.cpp **** 					| US_MR_CLKO;
 196:../libraries/SharedSpi/SharedSpi.cpp **** 	if (device->spiMode & 2)
 197:../libraries/SharedSpi/SharedSpi.cpp **** 	{
 198:../libraries/SharedSpi/SharedSpi.cpp **** 		mr |= US_MR_CPOL;
 199:../libraries/SharedSpi/SharedSpi.cpp **** 	}
 200:../libraries/SharedSpi/SharedSpi.cpp **** 	if ((device->spiMode & 1) == 0)							// the bit is called CPHA but is actually NPCHA
 201:../libraries/SharedSpi/SharedSpi.cpp **** 	{
 202:../libraries/SharedSpi/SharedSpi.cpp **** 		mr |= US_MR_CPHA;
 203:../libraries/SharedSpi/SharedSpi.cpp **** 	}
 204:../libraries/SharedSpi/SharedSpi.cpp **** 	USART_SSPI->US_MR = mr;
 205:../libraries/SharedSpi/SharedSpi.cpp **** 	USART_SSPI->US_CR = US_CR_RSTRX | US_CR_RSTTX;			// reset transmitter and receiver (required - see
 206:../libraries/SharedSpi/SharedSpi.cpp **** 	USART_SSPI->US_CR = US_CR_RXEN | US_CR_TXEN;			// enable transmitter and receiver
 207:../libraries/SharedSpi/SharedSpi.cpp **** #else
 208:../libraries/SharedSpi/SharedSpi.cpp **** 	spi_reset(SSPI);
 209:../libraries/SharedSpi/SharedSpi.cpp ****     SSPI->SPI_MR = SPI_MR_MSTR | SPI_MR_MODFDIS;
 210:../libraries/SharedSpi/SharedSpi.cpp **** 
 211:../libraries/SharedSpi/SharedSpi.cpp **** 	// Set SPI mode, clock frequency, CS not active after transfer, delay between transfers
 212:../libraries/SharedSpi/SharedSpi.cpp **** 	uint16_t baud_div = (uint16_t)spi_calc_baudrate_div(device->clockFrequency, SystemCoreClock);
 163              		.loc 1 212 0
 164 0006 0F4A     		ldr	r2, .L20+4
 165              	.LBB42:
 166              	.LBB40:
 167              		.loc 3 100 0
 168 0008 8020     		movs	r0, #128
 169              	.LVL11:
 170              	.LBE40:
 171              	.LBE42:
 209:../libraries/SharedSpi/SharedSpi.cpp **** 
 172              		.loc 1 209 0
 173 000a 1121     		movs	r1, #17
 174              	.LBB43:
 175              	.LBB41:
 176              		.loc 3 100 0
 177 000c 1860     		str	r0, [r3]
 178              	.LVL12:
 179              	.LBE41:
 180              	.LBE43:
 209:../libraries/SharedSpi/SharedSpi.cpp **** 
ARM GAS  /tmp/ccHBIC16.s 			page 11


 181              		.loc 1 209 0
 182 000e 5960     		str	r1, [r3, #4]
 183              		.loc 1 212 0
 184 0010 1168     		ldr	r1, [r2]
 185 0012 6068     		ldr	r0, [r4, #4]
 186 0014 FFF7FEFF 		bl	spi_calc_baudrate_div
 187              	.LVL13:
 213:../libraries/SharedSpi/SharedSpi.cpp **** 	uint32_t csr = SPI_CSR_SCBR(baud_div)				// Baud rate
 214:../libraries/SharedSpi/SharedSpi.cpp **** 					| device->bitsPerTransferControl	// Transfer bit width
 188              		.loc 1 214 0
 189 0018 A278     		ldrb	r2, [r4, #2]	@ zero_extendqisi2
 213:../libraries/SharedSpi/SharedSpi.cpp **** 	uint32_t csr = SPI_CSR_SCBR(baud_div)				// Baud rate
 190              		.loc 1 213 0
 191 001a 0002     		lsls	r0, r0, #8
 192              	.LVL14:
 215:../libraries/SharedSpi/SharedSpi.cpp **** 					| SPI_CSR_DLYBCT(0);      			// Transfer delay
 216:../libraries/SharedSpi/SharedSpi.cpp **** 	if ((device->spiMode & 0x01) == 0)
 193              		.loc 1 216 0
 194 001c E378     		ldrb	r3, [r4, #3]	@ zero_extendqisi2
 213:../libraries/SharedSpi/SharedSpi.cpp **** 	uint32_t csr = SPI_CSR_SCBR(baud_div)				// Baud rate
 195              		.loc 1 213 0
 196 001e 00F47F40 		and	r0, r0, #65280
 215:../libraries/SharedSpi/SharedSpi.cpp **** 					| SPI_CSR_DLYBCT(0);      			// Transfer delay
 197              		.loc 1 215 0
 198 0022 1043     		orrs	r0, r0, r2
 199              	.LVL15:
 200              		.loc 1 216 0
 201 0024 DA07     		lsls	r2, r3, #31
 202              	.LBB44:
 203              	.LBB45:
 101:/home/torbjorn/eclipse-workspace/CoreNG/asf/sam/drivers/spi/spi.h **** }
 102:/home/torbjorn/eclipse-workspace/CoreNG/asf/sam/drivers/spi/spi.h **** 
 103:/home/torbjorn/eclipse-workspace/CoreNG/asf/sam/drivers/spi/spi.h **** /**
 104:/home/torbjorn/eclipse-workspace/CoreNG/asf/sam/drivers/spi/spi.h ****  * \brief Enable SPI.
 105:/home/torbjorn/eclipse-workspace/CoreNG/asf/sam/drivers/spi/spi.h ****  *
 106:/home/torbjorn/eclipse-workspace/CoreNG/asf/sam/drivers/spi/spi.h ****  * \param p_spi Pointer to an SPI instance.
 107:/home/torbjorn/eclipse-workspace/CoreNG/asf/sam/drivers/spi/spi.h ****  */
 108:/home/torbjorn/eclipse-workspace/CoreNG/asf/sam/drivers/spi/spi.h **** static inline void spi_enable(Spi *p_spi)
 109:/home/torbjorn/eclipse-workspace/CoreNG/asf/sam/drivers/spi/spi.h **** {
 110:/home/torbjorn/eclipse-workspace/CoreNG/asf/sam/drivers/spi/spi.h **** 	p_spi->SPI_CR = SPI_CR_SPIEN;
 204              		.loc 3 110 0
 205 0026 4FF00102 		mov	r2, #1
 206              	.LBE45:
 207              	.LBE44:
 217:../libraries/SharedSpi/SharedSpi.cpp **** 	{
 218:../libraries/SharedSpi/SharedSpi.cpp **** 		csr |= SPI_CSR_NCPHA;
 208              		.loc 1 218 0
 209 002a 58BF     		it	pl
 210 002c 40F00200 		orrpl	r0, r0, #2
 211              	.LVL16:
 219:../libraries/SharedSpi/SharedSpi.cpp **** 	}
 220:../libraries/SharedSpi/SharedSpi.cpp **** 	if (device->spiMode & 0x02)
 212              		.loc 1 220 0
 213 0030 9B07     		lsls	r3, r3, #30
 221:../libraries/SharedSpi/SharedSpi.cpp **** 	{
 222:../libraries/SharedSpi/SharedSpi.cpp **** 		csr |= SPI_CSR_CPOL;
 223:../libraries/SharedSpi/SharedSpi.cpp **** 	}
ARM GAS  /tmp/ccHBIC16.s 			page 12


 224:../libraries/SharedSpi/SharedSpi.cpp **** 	SSPI->SPI_CSR[PERIPHERAL_CHANNEL_ID] = csr;
 214              		.loc 1 224 0
 215 0032 034B     		ldr	r3, .L20
 222:../libraries/SharedSpi/SharedSpi.cpp **** 	}
 216              		.loc 1 222 0
 217 0034 48BF     		it	mi
 218 0036 40F00100 		orrmi	r0, r0, #1
 219              	.LVL17:
 220              		.loc 1 224 0
 221 003a 9863     		str	r0, [r3, #56]
 222              	.LVL18:
 223              	.LBB47:
 224              	.LBB46:
 225              		.loc 3 110 0
 226 003c 1A60     		str	r2, [r3]
 227              	.LVL19:
 228 003e 10BD     		pop	{r4, pc}
 229              	.LVL20:
 230              	.L21:
 231              		.align	2
 232              	.L20:
 233 0040 00800040 		.word	1073774592
 234 0044 00000000 		.word	SystemCoreClock
 235              	.LBE46:
 236              	.LBE47:
 237              		.cfi_endproc
 238              	.LFE531:
 239              		.size	sspi_master_setup_device, .-sspi_master_setup_device
 240              		.section	.text.sspi_select_device,"ax",%progbits
 241              		.align	1
 242              		.p2align 2,,3
 243              		.global	sspi_select_device
 244              		.syntax unified
 245              		.thumb
 246              		.thumb_func
 247              		.fpu fpv5-d16
 248              		.type	sspi_select_device, %function
 249              	sspi_select_device:
 250              	.LFB532:
 225:../libraries/SharedSpi/SharedSpi.cpp **** 	spi_enable(SSPI);
 226:../libraries/SharedSpi/SharedSpi.cpp **** #endif
 227:../libraries/SharedSpi/SharedSpi.cpp **** }
 228:../libraries/SharedSpi/SharedSpi.cpp **** 
 229:../libraries/SharedSpi/SharedSpi.cpp **** /**
 230:../libraries/SharedSpi/SharedSpi.cpp ****  * \brief Select the given device on the SPI bus.
 231:../libraries/SharedSpi/SharedSpi.cpp ****  *
 232:../libraries/SharedSpi/SharedSpi.cpp ****  * Set device specific setting and call board chip select.
 233:../libraries/SharedSpi/SharedSpi.cpp ****  *
 234:../libraries/SharedSpi/SharedSpi.cpp ****  * \param device  SPI device.
 235:../libraries/SharedSpi/SharedSpi.cpp ****  *
 236:../libraries/SharedSpi/SharedSpi.cpp ****  */
 237:../libraries/SharedSpi/SharedSpi.cpp **** void sspi_select_device(const struct sspi_device *device)
 238:../libraries/SharedSpi/SharedSpi.cpp **** {
 251              		.loc 1 238 0
 252              		.cfi_startproc
 253              		@ args = 0, pretend = 0, frame = 0
 254              		@ frame_needed = 0, uses_anonymous_args = 0
ARM GAS  /tmp/ccHBIC16.s 			page 13


 255              		@ link register save eliminated.
 256              	.LVL21:
 239:../libraries/SharedSpi/SharedSpi.cpp **** #if SAM3XA
 240:../libraries/SharedSpi/SharedSpi.cpp **** 	spi_set_peripheral_chip_select_value(SSPI, spi_get_pcs(PERIPHERAL_CHANNEL_ID));
 241:../libraries/SharedSpi/SharedSpi.cpp **** #endif
 242:../libraries/SharedSpi/SharedSpi.cpp **** 
 243:../libraries/SharedSpi/SharedSpi.cpp **** 	// Enable the CS line
 244:../libraries/SharedSpi/SharedSpi.cpp **** 	digitalWrite(device->csPin, device->csPolarity);
 257              		.loc 1 244 0
 258 0000 4178     		ldrb	r1, [r0, #1]	@ zero_extendqisi2
 259 0002 0078     		ldrb	r0, [r0]	@ zero_extendqisi2
 260              	.LVL22:
 261 0004 FFF7FEBF 		b	digitalWrite
 262              	.LVL23:
 263              		.cfi_endproc
 264              	.LFE532:
 265              		.size	sspi_select_device, .-sspi_select_device
 266              		.section	.text.sspi_deselect_device,"ax",%progbits
 267              		.align	1
 268              		.p2align 2,,3
 269              		.global	sspi_deselect_device
 270              		.syntax unified
 271              		.thumb
 272              		.thumb_func
 273              		.fpu fpv5-d16
 274              		.type	sspi_deselect_device, %function
 275              	sspi_deselect_device:
 276              	.LFB533:
 245:../libraries/SharedSpi/SharedSpi.cpp **** }
 246:../libraries/SharedSpi/SharedSpi.cpp **** 
 247:../libraries/SharedSpi/SharedSpi.cpp **** /**
 248:../libraries/SharedSpi/SharedSpi.cpp ****  * \brief Deselect the given device on the SPI bus.
 249:../libraries/SharedSpi/SharedSpi.cpp ****  *
 250:../libraries/SharedSpi/SharedSpi.cpp ****  * Call board chip deselect.
 251:../libraries/SharedSpi/SharedSpi.cpp ****  *
 252:../libraries/SharedSpi/SharedSpi.cpp ****  * \param device  SPI device.
 253:../libraries/SharedSpi/SharedSpi.cpp ****  *
 254:../libraries/SharedSpi/SharedSpi.cpp ****  * \pre SPI device must be selected with spi_select_device() first.
 255:../libraries/SharedSpi/SharedSpi.cpp ****  */
 256:../libraries/SharedSpi/SharedSpi.cpp **** void sspi_deselect_device(const struct sspi_device *device)
 257:../libraries/SharedSpi/SharedSpi.cpp **** {
 277              		.loc 1 257 0
 278              		.cfi_startproc
 279              		@ args = 0, pretend = 0, frame = 0
 280              		@ frame_needed = 0, uses_anonymous_args = 0
 281              		@ link register save eliminated.
 282              	.LVL24:
 283              		.loc 1 257 0
 284 0000 43F69923 		movw	r3, #15001
 285              	.LBB48:
 286              	.LBB49:
 287              	.LBB50:
 288              	.LBB51:
 111:/home/torbjorn/eclipse-workspace/CoreNG/asf/sam/drivers/spi/spi.h **** }
 112:/home/torbjorn/eclipse-workspace/CoreNG/asf/sam/drivers/spi/spi.h **** 
 113:/home/torbjorn/eclipse-workspace/CoreNG/asf/sam/drivers/spi/spi.h **** /**
 114:/home/torbjorn/eclipse-workspace/CoreNG/asf/sam/drivers/spi/spi.h ****  * \brief Disable SPI.
ARM GAS  /tmp/ccHBIC16.s 			page 14


 115:/home/torbjorn/eclipse-workspace/CoreNG/asf/sam/drivers/spi/spi.h ****  *
 116:/home/torbjorn/eclipse-workspace/CoreNG/asf/sam/drivers/spi/spi.h ****  * \note CS is de-asserted, which indicates that the last data is done, and user
 117:/home/torbjorn/eclipse-workspace/CoreNG/asf/sam/drivers/spi/spi.h ****  * should check TX_EMPTY before disabling SPI.
 118:/home/torbjorn/eclipse-workspace/CoreNG/asf/sam/drivers/spi/spi.h ****  *
 119:/home/torbjorn/eclipse-workspace/CoreNG/asf/sam/drivers/spi/spi.h ****  * \param p_spi Pointer to an SPI instance.
 120:/home/torbjorn/eclipse-workspace/CoreNG/asf/sam/drivers/spi/spi.h ****  */
 121:/home/torbjorn/eclipse-workspace/CoreNG/asf/sam/drivers/spi/spi.h **** static inline void spi_disable(Spi *p_spi)
 122:/home/torbjorn/eclipse-workspace/CoreNG/asf/sam/drivers/spi/spi.h **** {
 123:/home/torbjorn/eclipse-workspace/CoreNG/asf/sam/drivers/spi/spi.h **** 	p_spi->SPI_CR = SPI_CR_SPIDIS;
 124:/home/torbjorn/eclipse-workspace/CoreNG/asf/sam/drivers/spi/spi.h **** }
 125:/home/torbjorn/eclipse-workspace/CoreNG/asf/sam/drivers/spi/spi.h **** 
 126:/home/torbjorn/eclipse-workspace/CoreNG/asf/sam/drivers/spi/spi.h **** /**
 127:/home/torbjorn/eclipse-workspace/CoreNG/asf/sam/drivers/spi/spi.h ****  * \brief Issue a LASTXFER command.
 128:/home/torbjorn/eclipse-workspace/CoreNG/asf/sam/drivers/spi/spi.h ****  *  The next transfer is the last transfer and after that CS is de-asserted.
 129:/home/torbjorn/eclipse-workspace/CoreNG/asf/sam/drivers/spi/spi.h ****  *
 130:/home/torbjorn/eclipse-workspace/CoreNG/asf/sam/drivers/spi/spi.h ****  * \param p_spi Pointer to an SPI instance.
 131:/home/torbjorn/eclipse-workspace/CoreNG/asf/sam/drivers/spi/spi.h ****  */
 132:/home/torbjorn/eclipse-workspace/CoreNG/asf/sam/drivers/spi/spi.h **** static inline void spi_set_lastxfer(Spi *p_spi)
 133:/home/torbjorn/eclipse-workspace/CoreNG/asf/sam/drivers/spi/spi.h **** {
 134:/home/torbjorn/eclipse-workspace/CoreNG/asf/sam/drivers/spi/spi.h **** 	p_spi->SPI_CR = SPI_CR_LASTXFER;
 135:/home/torbjorn/eclipse-workspace/CoreNG/asf/sam/drivers/spi/spi.h **** }
 136:/home/torbjorn/eclipse-workspace/CoreNG/asf/sam/drivers/spi/spi.h **** 
 137:/home/torbjorn/eclipse-workspace/CoreNG/asf/sam/drivers/spi/spi.h **** /**
 138:/home/torbjorn/eclipse-workspace/CoreNG/asf/sam/drivers/spi/spi.h ****  * \brief Set SPI to Master mode.
 139:/home/torbjorn/eclipse-workspace/CoreNG/asf/sam/drivers/spi/spi.h ****  *
 140:/home/torbjorn/eclipse-workspace/CoreNG/asf/sam/drivers/spi/spi.h ****  * \param p_spi Pointer to an SPI instance.
 141:/home/torbjorn/eclipse-workspace/CoreNG/asf/sam/drivers/spi/spi.h ****  */
 142:/home/torbjorn/eclipse-workspace/CoreNG/asf/sam/drivers/spi/spi.h **** static inline void spi_set_master_mode(Spi *p_spi)
 143:/home/torbjorn/eclipse-workspace/CoreNG/asf/sam/drivers/spi/spi.h **** {
 144:/home/torbjorn/eclipse-workspace/CoreNG/asf/sam/drivers/spi/spi.h **** 	p_spi->SPI_MR |= SPI_MR_MSTR;
 145:/home/torbjorn/eclipse-workspace/CoreNG/asf/sam/drivers/spi/spi.h **** }
 146:/home/torbjorn/eclipse-workspace/CoreNG/asf/sam/drivers/spi/spi.h **** 
 147:/home/torbjorn/eclipse-workspace/CoreNG/asf/sam/drivers/spi/spi.h **** /**
 148:/home/torbjorn/eclipse-workspace/CoreNG/asf/sam/drivers/spi/spi.h ****  * \brief Set SPI to Slave mode.
 149:/home/torbjorn/eclipse-workspace/CoreNG/asf/sam/drivers/spi/spi.h ****  *
 150:/home/torbjorn/eclipse-workspace/CoreNG/asf/sam/drivers/spi/spi.h ****  * \param p_spi Pointer to an SPI instance.
 151:/home/torbjorn/eclipse-workspace/CoreNG/asf/sam/drivers/spi/spi.h ****  */
 152:/home/torbjorn/eclipse-workspace/CoreNG/asf/sam/drivers/spi/spi.h **** static inline void spi_set_slave_mode(Spi *p_spi)
 153:/home/torbjorn/eclipse-workspace/CoreNG/asf/sam/drivers/spi/spi.h **** {
 154:/home/torbjorn/eclipse-workspace/CoreNG/asf/sam/drivers/spi/spi.h **** 	p_spi->SPI_MR &= (~SPI_MR_MSTR);
 155:/home/torbjorn/eclipse-workspace/CoreNG/asf/sam/drivers/spi/spi.h **** }
 156:/home/torbjorn/eclipse-workspace/CoreNG/asf/sam/drivers/spi/spi.h **** 
 157:/home/torbjorn/eclipse-workspace/CoreNG/asf/sam/drivers/spi/spi.h **** /**
 158:/home/torbjorn/eclipse-workspace/CoreNG/asf/sam/drivers/spi/spi.h ****  * \brief Get SPI work mode.
 159:/home/torbjorn/eclipse-workspace/CoreNG/asf/sam/drivers/spi/spi.h ****  *
 160:/home/torbjorn/eclipse-workspace/CoreNG/asf/sam/drivers/spi/spi.h ****  * \param p_spi Pointer to an SPI instance.
 161:/home/torbjorn/eclipse-workspace/CoreNG/asf/sam/drivers/spi/spi.h ****  *
 162:/home/torbjorn/eclipse-workspace/CoreNG/asf/sam/drivers/spi/spi.h ****  * \return 1 for master mode, 0 for slave mode.
 163:/home/torbjorn/eclipse-workspace/CoreNG/asf/sam/drivers/spi/spi.h ****  */
 164:/home/torbjorn/eclipse-workspace/CoreNG/asf/sam/drivers/spi/spi.h **** static inline uint32_t spi_get_mode(Spi *p_spi)
 165:/home/torbjorn/eclipse-workspace/CoreNG/asf/sam/drivers/spi/spi.h **** {
 166:/home/torbjorn/eclipse-workspace/CoreNG/asf/sam/drivers/spi/spi.h **** 	if (p_spi->SPI_MR & SPI_MR_MSTR) {
 167:/home/torbjorn/eclipse-workspace/CoreNG/asf/sam/drivers/spi/spi.h **** 		return 1;
 168:/home/torbjorn/eclipse-workspace/CoreNG/asf/sam/drivers/spi/spi.h **** 	} else {
 169:/home/torbjorn/eclipse-workspace/CoreNG/asf/sam/drivers/spi/spi.h **** 		return 0;
 170:/home/torbjorn/eclipse-workspace/CoreNG/asf/sam/drivers/spi/spi.h **** 	}
 171:/home/torbjorn/eclipse-workspace/CoreNG/asf/sam/drivers/spi/spi.h **** }
ARM GAS  /tmp/ccHBIC16.s 			page 15


 172:/home/torbjorn/eclipse-workspace/CoreNG/asf/sam/drivers/spi/spi.h **** 
 173:/home/torbjorn/eclipse-workspace/CoreNG/asf/sam/drivers/spi/spi.h **** /**
 174:/home/torbjorn/eclipse-workspace/CoreNG/asf/sam/drivers/spi/spi.h ****  * \brief Set Variable Peripheral Select.
 175:/home/torbjorn/eclipse-workspace/CoreNG/asf/sam/drivers/spi/spi.h ****  * Peripheral Chip Select can be controlled by SPI_TDR.
 176:/home/torbjorn/eclipse-workspace/CoreNG/asf/sam/drivers/spi/spi.h ****  *
 177:/home/torbjorn/eclipse-workspace/CoreNG/asf/sam/drivers/spi/spi.h ****  * \param p_spi Pointer to an SPI instance.
 178:/home/torbjorn/eclipse-workspace/CoreNG/asf/sam/drivers/spi/spi.h ****  */
 179:/home/torbjorn/eclipse-workspace/CoreNG/asf/sam/drivers/spi/spi.h **** static inline void spi_set_variable_peripheral_select(Spi *p_spi)
 180:/home/torbjorn/eclipse-workspace/CoreNG/asf/sam/drivers/spi/spi.h **** {
 181:/home/torbjorn/eclipse-workspace/CoreNG/asf/sam/drivers/spi/spi.h **** 	p_spi->SPI_MR |= SPI_MR_PS;
 182:/home/torbjorn/eclipse-workspace/CoreNG/asf/sam/drivers/spi/spi.h **** }
 183:/home/torbjorn/eclipse-workspace/CoreNG/asf/sam/drivers/spi/spi.h **** 
 184:/home/torbjorn/eclipse-workspace/CoreNG/asf/sam/drivers/spi/spi.h **** /**
 185:/home/torbjorn/eclipse-workspace/CoreNG/asf/sam/drivers/spi/spi.h ****  * \brief Set Fixed Peripheral Select.
 186:/home/torbjorn/eclipse-workspace/CoreNG/asf/sam/drivers/spi/spi.h ****  *  Peripheral Chip Select is controlled by SPI_MR.
 187:/home/torbjorn/eclipse-workspace/CoreNG/asf/sam/drivers/spi/spi.h ****  *
 188:/home/torbjorn/eclipse-workspace/CoreNG/asf/sam/drivers/spi/spi.h ****  * \param p_spi Pointer to an SPI instance.
 189:/home/torbjorn/eclipse-workspace/CoreNG/asf/sam/drivers/spi/spi.h ****  */
 190:/home/torbjorn/eclipse-workspace/CoreNG/asf/sam/drivers/spi/spi.h **** static inline void spi_set_fixed_peripheral_select(Spi *p_spi)
 191:/home/torbjorn/eclipse-workspace/CoreNG/asf/sam/drivers/spi/spi.h **** {
 192:/home/torbjorn/eclipse-workspace/CoreNG/asf/sam/drivers/spi/spi.h **** 	p_spi->SPI_MR &= (~SPI_MR_PS);
 193:/home/torbjorn/eclipse-workspace/CoreNG/asf/sam/drivers/spi/spi.h **** }
 194:/home/torbjorn/eclipse-workspace/CoreNG/asf/sam/drivers/spi/spi.h **** 
 195:/home/torbjorn/eclipse-workspace/CoreNG/asf/sam/drivers/spi/spi.h **** /**
 196:/home/torbjorn/eclipse-workspace/CoreNG/asf/sam/drivers/spi/spi.h ****  * \brief Get Peripheral Select mode.
 197:/home/torbjorn/eclipse-workspace/CoreNG/asf/sam/drivers/spi/spi.h ****  *
 198:/home/torbjorn/eclipse-workspace/CoreNG/asf/sam/drivers/spi/spi.h ****  * \param p_spi Pointer to an SPI instance.
 199:/home/torbjorn/eclipse-workspace/CoreNG/asf/sam/drivers/spi/spi.h ****  *
 200:/home/torbjorn/eclipse-workspace/CoreNG/asf/sam/drivers/spi/spi.h ****  * \return 1 for Variable mode, 0 for fixed mode.
 201:/home/torbjorn/eclipse-workspace/CoreNG/asf/sam/drivers/spi/spi.h ****  */
 202:/home/torbjorn/eclipse-workspace/CoreNG/asf/sam/drivers/spi/spi.h **** static inline uint32_t spi_get_peripheral_select_mode(Spi *p_spi)
 203:/home/torbjorn/eclipse-workspace/CoreNG/asf/sam/drivers/spi/spi.h **** {
 204:/home/torbjorn/eclipse-workspace/CoreNG/asf/sam/drivers/spi/spi.h **** 	if (p_spi->SPI_MR & SPI_MR_PS) {
 205:/home/torbjorn/eclipse-workspace/CoreNG/asf/sam/drivers/spi/spi.h **** 		return 1;
 206:/home/torbjorn/eclipse-workspace/CoreNG/asf/sam/drivers/spi/spi.h **** 	} else {
 207:/home/torbjorn/eclipse-workspace/CoreNG/asf/sam/drivers/spi/spi.h **** 		return 0;
 208:/home/torbjorn/eclipse-workspace/CoreNG/asf/sam/drivers/spi/spi.h **** 	}
 209:/home/torbjorn/eclipse-workspace/CoreNG/asf/sam/drivers/spi/spi.h **** }
 210:/home/torbjorn/eclipse-workspace/CoreNG/asf/sam/drivers/spi/spi.h **** 
 211:/home/torbjorn/eclipse-workspace/CoreNG/asf/sam/drivers/spi/spi.h **** /**
 212:/home/torbjorn/eclipse-workspace/CoreNG/asf/sam/drivers/spi/spi.h ****  * \brief Enable Peripheral Select Decode.
 213:/home/torbjorn/eclipse-workspace/CoreNG/asf/sam/drivers/spi/spi.h ****  *
 214:/home/torbjorn/eclipse-workspace/CoreNG/asf/sam/drivers/spi/spi.h ****  * \param p_spi Pointer to an SPI instance.
 215:/home/torbjorn/eclipse-workspace/CoreNG/asf/sam/drivers/spi/spi.h ****  */
 216:/home/torbjorn/eclipse-workspace/CoreNG/asf/sam/drivers/spi/spi.h **** static inline void spi_enable_peripheral_select_decode(Spi *p_spi)
 217:/home/torbjorn/eclipse-workspace/CoreNG/asf/sam/drivers/spi/spi.h **** {
 218:/home/torbjorn/eclipse-workspace/CoreNG/asf/sam/drivers/spi/spi.h **** 	p_spi->SPI_MR |= SPI_MR_PCSDEC;
 219:/home/torbjorn/eclipse-workspace/CoreNG/asf/sam/drivers/spi/spi.h **** }
 220:/home/torbjorn/eclipse-workspace/CoreNG/asf/sam/drivers/spi/spi.h **** 
 221:/home/torbjorn/eclipse-workspace/CoreNG/asf/sam/drivers/spi/spi.h **** /**
 222:/home/torbjorn/eclipse-workspace/CoreNG/asf/sam/drivers/spi/spi.h ****  * \brief Disable Peripheral Select Decode.
 223:/home/torbjorn/eclipse-workspace/CoreNG/asf/sam/drivers/spi/spi.h ****  *
 224:/home/torbjorn/eclipse-workspace/CoreNG/asf/sam/drivers/spi/spi.h ****  * \param p_spi Pointer to an SPI instance.
 225:/home/torbjorn/eclipse-workspace/CoreNG/asf/sam/drivers/spi/spi.h ****  */
 226:/home/torbjorn/eclipse-workspace/CoreNG/asf/sam/drivers/spi/spi.h **** static inline void spi_disable_peripheral_select_decode(Spi *p_spi)
 227:/home/torbjorn/eclipse-workspace/CoreNG/asf/sam/drivers/spi/spi.h **** {
 228:/home/torbjorn/eclipse-workspace/CoreNG/asf/sam/drivers/spi/spi.h **** 	p_spi->SPI_MR &= (~SPI_MR_PCSDEC);
ARM GAS  /tmp/ccHBIC16.s 			page 16


 229:/home/torbjorn/eclipse-workspace/CoreNG/asf/sam/drivers/spi/spi.h **** }
 230:/home/torbjorn/eclipse-workspace/CoreNG/asf/sam/drivers/spi/spi.h **** 
 231:/home/torbjorn/eclipse-workspace/CoreNG/asf/sam/drivers/spi/spi.h **** /**
 232:/home/torbjorn/eclipse-workspace/CoreNG/asf/sam/drivers/spi/spi.h ****  * \brief Get Peripheral Select Decode mode.
 233:/home/torbjorn/eclipse-workspace/CoreNG/asf/sam/drivers/spi/spi.h ****  *
 234:/home/torbjorn/eclipse-workspace/CoreNG/asf/sam/drivers/spi/spi.h ****  * \param p_spi Pointer to an SPI instance.
 235:/home/torbjorn/eclipse-workspace/CoreNG/asf/sam/drivers/spi/spi.h ****  *
 236:/home/torbjorn/eclipse-workspace/CoreNG/asf/sam/drivers/spi/spi.h ****  * \return 1 for decode mode, 0 for direct mode.
 237:/home/torbjorn/eclipse-workspace/CoreNG/asf/sam/drivers/spi/spi.h ****  */
 238:/home/torbjorn/eclipse-workspace/CoreNG/asf/sam/drivers/spi/spi.h **** static inline uint32_t spi_get_peripheral_select_decode_setting(Spi *p_spi)
 239:/home/torbjorn/eclipse-workspace/CoreNG/asf/sam/drivers/spi/spi.h **** {
 240:/home/torbjorn/eclipse-workspace/CoreNG/asf/sam/drivers/spi/spi.h **** 	if (p_spi->SPI_MR & SPI_MR_PCSDEC) {
 241:/home/torbjorn/eclipse-workspace/CoreNG/asf/sam/drivers/spi/spi.h **** 		return 1;
 242:/home/torbjorn/eclipse-workspace/CoreNG/asf/sam/drivers/spi/spi.h **** 	} else {
 243:/home/torbjorn/eclipse-workspace/CoreNG/asf/sam/drivers/spi/spi.h **** 		return 0;
 244:/home/torbjorn/eclipse-workspace/CoreNG/asf/sam/drivers/spi/spi.h **** 	}
 245:/home/torbjorn/eclipse-workspace/CoreNG/asf/sam/drivers/spi/spi.h **** }
 246:/home/torbjorn/eclipse-workspace/CoreNG/asf/sam/drivers/spi/spi.h **** 
 247:/home/torbjorn/eclipse-workspace/CoreNG/asf/sam/drivers/spi/spi.h **** /**
 248:/home/torbjorn/eclipse-workspace/CoreNG/asf/sam/drivers/spi/spi.h ****  * \brief Enable Mode Fault Detection.
 249:/home/torbjorn/eclipse-workspace/CoreNG/asf/sam/drivers/spi/spi.h ****  *
 250:/home/torbjorn/eclipse-workspace/CoreNG/asf/sam/drivers/spi/spi.h ****  * \param p_spi Pointer to an SPI instance.
 251:/home/torbjorn/eclipse-workspace/CoreNG/asf/sam/drivers/spi/spi.h ****  */
 252:/home/torbjorn/eclipse-workspace/CoreNG/asf/sam/drivers/spi/spi.h **** static inline void spi_enable_mode_fault_detect(Spi *p_spi)
 253:/home/torbjorn/eclipse-workspace/CoreNG/asf/sam/drivers/spi/spi.h **** {
 254:/home/torbjorn/eclipse-workspace/CoreNG/asf/sam/drivers/spi/spi.h **** 	p_spi->SPI_MR &= (~SPI_MR_MODFDIS);
 255:/home/torbjorn/eclipse-workspace/CoreNG/asf/sam/drivers/spi/spi.h **** }
 256:/home/torbjorn/eclipse-workspace/CoreNG/asf/sam/drivers/spi/spi.h **** 
 257:/home/torbjorn/eclipse-workspace/CoreNG/asf/sam/drivers/spi/spi.h **** /**
 258:/home/torbjorn/eclipse-workspace/CoreNG/asf/sam/drivers/spi/spi.h ****  * \brief Disable Mode Fault Detection.
 259:/home/torbjorn/eclipse-workspace/CoreNG/asf/sam/drivers/spi/spi.h ****  *
 260:/home/torbjorn/eclipse-workspace/CoreNG/asf/sam/drivers/spi/spi.h ****  * \param p_spi Pointer to an SPI instance.
 261:/home/torbjorn/eclipse-workspace/CoreNG/asf/sam/drivers/spi/spi.h ****  */
 262:/home/torbjorn/eclipse-workspace/CoreNG/asf/sam/drivers/spi/spi.h **** static inline void spi_disable_mode_fault_detect(Spi *p_spi)
 263:/home/torbjorn/eclipse-workspace/CoreNG/asf/sam/drivers/spi/spi.h **** {
 264:/home/torbjorn/eclipse-workspace/CoreNG/asf/sam/drivers/spi/spi.h **** 	p_spi->SPI_MR |= SPI_MR_MODFDIS;
 265:/home/torbjorn/eclipse-workspace/CoreNG/asf/sam/drivers/spi/spi.h **** }
 266:/home/torbjorn/eclipse-workspace/CoreNG/asf/sam/drivers/spi/spi.h **** 
 267:/home/torbjorn/eclipse-workspace/CoreNG/asf/sam/drivers/spi/spi.h **** /**
 268:/home/torbjorn/eclipse-workspace/CoreNG/asf/sam/drivers/spi/spi.h ****  * \brief Check if mode fault detection is enabled.
 269:/home/torbjorn/eclipse-workspace/CoreNG/asf/sam/drivers/spi/spi.h ****  *
 270:/home/torbjorn/eclipse-workspace/CoreNG/asf/sam/drivers/spi/spi.h ****  * \param p_spi Pointer to an SPI instance.
 271:/home/torbjorn/eclipse-workspace/CoreNG/asf/sam/drivers/spi/spi.h ****  *
 272:/home/torbjorn/eclipse-workspace/CoreNG/asf/sam/drivers/spi/spi.h ****  * \return 1 for disabled, 0 for enabled.
 273:/home/torbjorn/eclipse-workspace/CoreNG/asf/sam/drivers/spi/spi.h ****  */
 274:/home/torbjorn/eclipse-workspace/CoreNG/asf/sam/drivers/spi/spi.h **** static inline uint32_t spi_get_mode_fault_detect_setting(Spi *p_spi)
 275:/home/torbjorn/eclipse-workspace/CoreNG/asf/sam/drivers/spi/spi.h **** {
 276:/home/torbjorn/eclipse-workspace/CoreNG/asf/sam/drivers/spi/spi.h **** 	if (p_spi->SPI_MR & SPI_MR_MODFDIS) {
 277:/home/torbjorn/eclipse-workspace/CoreNG/asf/sam/drivers/spi/spi.h **** 		return 1;
 278:/home/torbjorn/eclipse-workspace/CoreNG/asf/sam/drivers/spi/spi.h **** 	} else {
 279:/home/torbjorn/eclipse-workspace/CoreNG/asf/sam/drivers/spi/spi.h **** 		return 0;
 280:/home/torbjorn/eclipse-workspace/CoreNG/asf/sam/drivers/spi/spi.h **** 	}
 281:/home/torbjorn/eclipse-workspace/CoreNG/asf/sam/drivers/spi/spi.h **** }
 282:/home/torbjorn/eclipse-workspace/CoreNG/asf/sam/drivers/spi/spi.h **** 
 283:/home/torbjorn/eclipse-workspace/CoreNG/asf/sam/drivers/spi/spi.h **** /**
 284:/home/torbjorn/eclipse-workspace/CoreNG/asf/sam/drivers/spi/spi.h ****  * \brief Enable waiting RX_EMPTY before transfer starts.
 285:/home/torbjorn/eclipse-workspace/CoreNG/asf/sam/drivers/spi/spi.h ****  *
ARM GAS  /tmp/ccHBIC16.s 			page 17


 286:/home/torbjorn/eclipse-workspace/CoreNG/asf/sam/drivers/spi/spi.h ****  * \param p_spi Pointer to an SPI instance.
 287:/home/torbjorn/eclipse-workspace/CoreNG/asf/sam/drivers/spi/spi.h ****  */
 288:/home/torbjorn/eclipse-workspace/CoreNG/asf/sam/drivers/spi/spi.h **** static inline void spi_enable_tx_on_rx_empty(Spi *p_spi)
 289:/home/torbjorn/eclipse-workspace/CoreNG/asf/sam/drivers/spi/spi.h **** {
 290:/home/torbjorn/eclipse-workspace/CoreNG/asf/sam/drivers/spi/spi.h **** 	p_spi->SPI_MR |= SPI_MR_WDRBT;
 291:/home/torbjorn/eclipse-workspace/CoreNG/asf/sam/drivers/spi/spi.h **** }
 292:/home/torbjorn/eclipse-workspace/CoreNG/asf/sam/drivers/spi/spi.h **** 
 293:/home/torbjorn/eclipse-workspace/CoreNG/asf/sam/drivers/spi/spi.h **** /**
 294:/home/torbjorn/eclipse-workspace/CoreNG/asf/sam/drivers/spi/spi.h ****  * \brief Disable waiting RX_EMPTY before transfer starts.
 295:/home/torbjorn/eclipse-workspace/CoreNG/asf/sam/drivers/spi/spi.h ****  *
 296:/home/torbjorn/eclipse-workspace/CoreNG/asf/sam/drivers/spi/spi.h ****  * \param p_spi Pointer to an SPI instance.
 297:/home/torbjorn/eclipse-workspace/CoreNG/asf/sam/drivers/spi/spi.h ****  */
 298:/home/torbjorn/eclipse-workspace/CoreNG/asf/sam/drivers/spi/spi.h **** static inline void spi_disable_tx_on_rx_empty(Spi *p_spi)
 299:/home/torbjorn/eclipse-workspace/CoreNG/asf/sam/drivers/spi/spi.h **** {
 300:/home/torbjorn/eclipse-workspace/CoreNG/asf/sam/drivers/spi/spi.h **** 	p_spi->SPI_MR &= (~SPI_MR_WDRBT);
 301:/home/torbjorn/eclipse-workspace/CoreNG/asf/sam/drivers/spi/spi.h **** }
 302:/home/torbjorn/eclipse-workspace/CoreNG/asf/sam/drivers/spi/spi.h **** 
 303:/home/torbjorn/eclipse-workspace/CoreNG/asf/sam/drivers/spi/spi.h **** /**
 304:/home/torbjorn/eclipse-workspace/CoreNG/asf/sam/drivers/spi/spi.h ****  * \brief Check if SPI waits RX_EMPTY before transfer starts.
 305:/home/torbjorn/eclipse-workspace/CoreNG/asf/sam/drivers/spi/spi.h ****  *
 306:/home/torbjorn/eclipse-workspace/CoreNG/asf/sam/drivers/spi/spi.h ****  * \param p_spi Pointer to an SPI instance.
 307:/home/torbjorn/eclipse-workspace/CoreNG/asf/sam/drivers/spi/spi.h ****  *
 308:/home/torbjorn/eclipse-workspace/CoreNG/asf/sam/drivers/spi/spi.h ****  * \return 1 for SPI waits, 0 for no wait.
 309:/home/torbjorn/eclipse-workspace/CoreNG/asf/sam/drivers/spi/spi.h ****  */
 310:/home/torbjorn/eclipse-workspace/CoreNG/asf/sam/drivers/spi/spi.h **** static inline uint32_t spi_get_tx_on_rx_empty_setting(Spi *p_spi)
 311:/home/torbjorn/eclipse-workspace/CoreNG/asf/sam/drivers/spi/spi.h **** {
 312:/home/torbjorn/eclipse-workspace/CoreNG/asf/sam/drivers/spi/spi.h **** 	if (p_spi->SPI_MR & SPI_MR_WDRBT) {
 313:/home/torbjorn/eclipse-workspace/CoreNG/asf/sam/drivers/spi/spi.h **** 		return 1;
 314:/home/torbjorn/eclipse-workspace/CoreNG/asf/sam/drivers/spi/spi.h **** 	} else {
 315:/home/torbjorn/eclipse-workspace/CoreNG/asf/sam/drivers/spi/spi.h **** 		return 0;
 316:/home/torbjorn/eclipse-workspace/CoreNG/asf/sam/drivers/spi/spi.h **** 	}
 317:/home/torbjorn/eclipse-workspace/CoreNG/asf/sam/drivers/spi/spi.h **** }
 318:/home/torbjorn/eclipse-workspace/CoreNG/asf/sam/drivers/spi/spi.h **** 
 319:/home/torbjorn/eclipse-workspace/CoreNG/asf/sam/drivers/spi/spi.h **** /**
 320:/home/torbjorn/eclipse-workspace/CoreNG/asf/sam/drivers/spi/spi.h ****  * \brief Enable loopback mode.
 321:/home/torbjorn/eclipse-workspace/CoreNG/asf/sam/drivers/spi/spi.h ****  *
 322:/home/torbjorn/eclipse-workspace/CoreNG/asf/sam/drivers/spi/spi.h ****  * \param p_spi Pointer to an SPI instance.
 323:/home/torbjorn/eclipse-workspace/CoreNG/asf/sam/drivers/spi/spi.h ****  */
 324:/home/torbjorn/eclipse-workspace/CoreNG/asf/sam/drivers/spi/spi.h **** static inline void spi_enable_loopback(Spi *p_spi)
 325:/home/torbjorn/eclipse-workspace/CoreNG/asf/sam/drivers/spi/spi.h **** {
 326:/home/torbjorn/eclipse-workspace/CoreNG/asf/sam/drivers/spi/spi.h **** 	p_spi->SPI_MR |= SPI_MR_LLB;
 327:/home/torbjorn/eclipse-workspace/CoreNG/asf/sam/drivers/spi/spi.h **** }
 328:/home/torbjorn/eclipse-workspace/CoreNG/asf/sam/drivers/spi/spi.h **** 
 329:/home/torbjorn/eclipse-workspace/CoreNG/asf/sam/drivers/spi/spi.h **** /**
 330:/home/torbjorn/eclipse-workspace/CoreNG/asf/sam/drivers/spi/spi.h ****  * \brief Disable loopback mode.
 331:/home/torbjorn/eclipse-workspace/CoreNG/asf/sam/drivers/spi/spi.h ****  *
 332:/home/torbjorn/eclipse-workspace/CoreNG/asf/sam/drivers/spi/spi.h ****  * \param p_spi Pointer to an SPI instance.
 333:/home/torbjorn/eclipse-workspace/CoreNG/asf/sam/drivers/spi/spi.h ****  */
 334:/home/torbjorn/eclipse-workspace/CoreNG/asf/sam/drivers/spi/spi.h **** static inline void spi_disable_loopback(Spi *p_spi)
 335:/home/torbjorn/eclipse-workspace/CoreNG/asf/sam/drivers/spi/spi.h **** {
 336:/home/torbjorn/eclipse-workspace/CoreNG/asf/sam/drivers/spi/spi.h **** 	p_spi->SPI_MR &= (~SPI_MR_LLB);
 337:/home/torbjorn/eclipse-workspace/CoreNG/asf/sam/drivers/spi/spi.h **** }
 338:/home/torbjorn/eclipse-workspace/CoreNG/asf/sam/drivers/spi/spi.h **** 
 339:/home/torbjorn/eclipse-workspace/CoreNG/asf/sam/drivers/spi/spi.h **** void spi_enable_clock(Spi *p_spi);
 340:/home/torbjorn/eclipse-workspace/CoreNG/asf/sam/drivers/spi/spi.h **** void spi_disable_clock(Spi *p_spi);
 341:/home/torbjorn/eclipse-workspace/CoreNG/asf/sam/drivers/spi/spi.h **** void spi_set_peripheral_chip_select_value(Spi *p_spi, uint32_t ul_value);
 342:/home/torbjorn/eclipse-workspace/CoreNG/asf/sam/drivers/spi/spi.h **** void spi_set_delay_between_chip_select(Spi *p_spi, uint32_t ul_delay);
ARM GAS  /tmp/ccHBIC16.s 			page 18


 343:/home/torbjorn/eclipse-workspace/CoreNG/asf/sam/drivers/spi/spi.h **** spi_status_t spi_read(Spi *p_spi, uint16_t *us_data, uint8_t *p_pcs);
 344:/home/torbjorn/eclipse-workspace/CoreNG/asf/sam/drivers/spi/spi.h **** spi_status_t spi_write(Spi *p_spi, uint16_t us_data, uint8_t uc_pcs,
 345:/home/torbjorn/eclipse-workspace/CoreNG/asf/sam/drivers/spi/spi.h **** 		uint8_t uc_last);
 346:/home/torbjorn/eclipse-workspace/CoreNG/asf/sam/drivers/spi/spi.h **** 
 347:/home/torbjorn/eclipse-workspace/CoreNG/asf/sam/drivers/spi/spi.h **** /**
 348:/home/torbjorn/eclipse-workspace/CoreNG/asf/sam/drivers/spi/spi.h ****  * \brief Read status register.
 349:/home/torbjorn/eclipse-workspace/CoreNG/asf/sam/drivers/spi/spi.h ****  *
 350:/home/torbjorn/eclipse-workspace/CoreNG/asf/sam/drivers/spi/spi.h ****  * \param p_spi Pointer to an SPI instance.
 351:/home/torbjorn/eclipse-workspace/CoreNG/asf/sam/drivers/spi/spi.h ****  *
 352:/home/torbjorn/eclipse-workspace/CoreNG/asf/sam/drivers/spi/spi.h ****  * \return SPI status register value.
 353:/home/torbjorn/eclipse-workspace/CoreNG/asf/sam/drivers/spi/spi.h ****  */
 354:/home/torbjorn/eclipse-workspace/CoreNG/asf/sam/drivers/spi/spi.h **** static inline uint32_t spi_read_status(Spi *p_spi)
 355:/home/torbjorn/eclipse-workspace/CoreNG/asf/sam/drivers/spi/spi.h **** {
 356:/home/torbjorn/eclipse-workspace/CoreNG/asf/sam/drivers/spi/spi.h **** 	return p_spi->SPI_SR;
 357:/home/torbjorn/eclipse-workspace/CoreNG/asf/sam/drivers/spi/spi.h **** }
 358:/home/torbjorn/eclipse-workspace/CoreNG/asf/sam/drivers/spi/spi.h **** 
 359:/home/torbjorn/eclipse-workspace/CoreNG/asf/sam/drivers/spi/spi.h **** /**
 360:/home/torbjorn/eclipse-workspace/CoreNG/asf/sam/drivers/spi/spi.h ****  * \brief Test if the SPI is enabled.
 361:/home/torbjorn/eclipse-workspace/CoreNG/asf/sam/drivers/spi/spi.h ****  *
 362:/home/torbjorn/eclipse-workspace/CoreNG/asf/sam/drivers/spi/spi.h ****  * \param p_spi Pointer to an SPI instance.
 363:/home/torbjorn/eclipse-workspace/CoreNG/asf/sam/drivers/spi/spi.h ****  *
 364:/home/torbjorn/eclipse-workspace/CoreNG/asf/sam/drivers/spi/spi.h ****  * \return 1 if the SPI is enabled, otherwise 0.
 365:/home/torbjorn/eclipse-workspace/CoreNG/asf/sam/drivers/spi/spi.h ****  */
 366:/home/torbjorn/eclipse-workspace/CoreNG/asf/sam/drivers/spi/spi.h **** static inline uint32_t spi_is_enabled(Spi *p_spi)
 367:/home/torbjorn/eclipse-workspace/CoreNG/asf/sam/drivers/spi/spi.h **** {
 368:/home/torbjorn/eclipse-workspace/CoreNG/asf/sam/drivers/spi/spi.h **** 	if (p_spi->SPI_SR & SPI_SR_SPIENS) {
 369:/home/torbjorn/eclipse-workspace/CoreNG/asf/sam/drivers/spi/spi.h **** 		return 1;
 370:/home/torbjorn/eclipse-workspace/CoreNG/asf/sam/drivers/spi/spi.h **** 	} else {
 371:/home/torbjorn/eclipse-workspace/CoreNG/asf/sam/drivers/spi/spi.h **** 		return 0;
 372:/home/torbjorn/eclipse-workspace/CoreNG/asf/sam/drivers/spi/spi.h **** 	}
 373:/home/torbjorn/eclipse-workspace/CoreNG/asf/sam/drivers/spi/spi.h **** }
 374:/home/torbjorn/eclipse-workspace/CoreNG/asf/sam/drivers/spi/spi.h **** 
 375:/home/torbjorn/eclipse-workspace/CoreNG/asf/sam/drivers/spi/spi.h **** /**
 376:/home/torbjorn/eclipse-workspace/CoreNG/asf/sam/drivers/spi/spi.h ****  * \brief Put one data to a SPI peripheral.
 377:/home/torbjorn/eclipse-workspace/CoreNG/asf/sam/drivers/spi/spi.h ****  *
 378:/home/torbjorn/eclipse-workspace/CoreNG/asf/sam/drivers/spi/spi.h ****  * \param p_spi Base address of the SPI instance.
 379:/home/torbjorn/eclipse-workspace/CoreNG/asf/sam/drivers/spi/spi.h ****  * \param data The data byte to be loaded
 380:/home/torbjorn/eclipse-workspace/CoreNG/asf/sam/drivers/spi/spi.h ****  *
 381:/home/torbjorn/eclipse-workspace/CoreNG/asf/sam/drivers/spi/spi.h ****  */
 382:/home/torbjorn/eclipse-workspace/CoreNG/asf/sam/drivers/spi/spi.h **** static inline void spi_put(Spi *p_spi, uint16_t data)
 383:/home/torbjorn/eclipse-workspace/CoreNG/asf/sam/drivers/spi/spi.h **** {
 384:/home/torbjorn/eclipse-workspace/CoreNG/asf/sam/drivers/spi/spi.h **** 	p_spi->SPI_TDR = SPI_TDR_TD(data);
 385:/home/torbjorn/eclipse-workspace/CoreNG/asf/sam/drivers/spi/spi.h **** }
 386:/home/torbjorn/eclipse-workspace/CoreNG/asf/sam/drivers/spi/spi.h **** 
 387:/home/torbjorn/eclipse-workspace/CoreNG/asf/sam/drivers/spi/spi.h **** /** \brief Get one data to a SPI peripheral.
 388:/home/torbjorn/eclipse-workspace/CoreNG/asf/sam/drivers/spi/spi.h ****  *
 389:/home/torbjorn/eclipse-workspace/CoreNG/asf/sam/drivers/spi/spi.h ****  * \param p_spi Base address of the SPI instance.
 390:/home/torbjorn/eclipse-workspace/CoreNG/asf/sam/drivers/spi/spi.h ****  * \return The data byte
 391:/home/torbjorn/eclipse-workspace/CoreNG/asf/sam/drivers/spi/spi.h ****  *
 392:/home/torbjorn/eclipse-workspace/CoreNG/asf/sam/drivers/spi/spi.h ****  */
 393:/home/torbjorn/eclipse-workspace/CoreNG/asf/sam/drivers/spi/spi.h **** static inline uint16_t spi_get(Spi *p_spi)
 394:/home/torbjorn/eclipse-workspace/CoreNG/asf/sam/drivers/spi/spi.h **** {
 395:/home/torbjorn/eclipse-workspace/CoreNG/asf/sam/drivers/spi/spi.h **** 	return (p_spi->SPI_RDR & SPI_RDR_RD_Msk);
 396:/home/torbjorn/eclipse-workspace/CoreNG/asf/sam/drivers/spi/spi.h **** }
 397:/home/torbjorn/eclipse-workspace/CoreNG/asf/sam/drivers/spi/spi.h **** 
 398:/home/torbjorn/eclipse-workspace/CoreNG/asf/sam/drivers/spi/spi.h **** /**
 399:/home/torbjorn/eclipse-workspace/CoreNG/asf/sam/drivers/spi/spi.h ****  * \brief Check if all transmissions are complete.
ARM GAS  /tmp/ccHBIC16.s 			page 19


 400:/home/torbjorn/eclipse-workspace/CoreNG/asf/sam/drivers/spi/spi.h ****  *
 401:/home/torbjorn/eclipse-workspace/CoreNG/asf/sam/drivers/spi/spi.h ****  * \param p_spi Pointer to an SPI instance.
 402:/home/torbjorn/eclipse-workspace/CoreNG/asf/sam/drivers/spi/spi.h ****  *
 403:/home/torbjorn/eclipse-workspace/CoreNG/asf/sam/drivers/spi/spi.h ****  * \retval 1 if transmissions are complete.
 404:/home/torbjorn/eclipse-workspace/CoreNG/asf/sam/drivers/spi/spi.h ****  * \retval 0 if transmissions are not complete.
 405:/home/torbjorn/eclipse-workspace/CoreNG/asf/sam/drivers/spi/spi.h ****  */
 406:/home/torbjorn/eclipse-workspace/CoreNG/asf/sam/drivers/spi/spi.h **** static inline uint32_t spi_is_tx_empty(Spi *p_spi)
 407:/home/torbjorn/eclipse-workspace/CoreNG/asf/sam/drivers/spi/spi.h **** {
 408:/home/torbjorn/eclipse-workspace/CoreNG/asf/sam/drivers/spi/spi.h **** 	if (p_spi->SPI_SR & SPI_SR_TXEMPTY) {
 289              		.loc 3 408 0
 290 0004 0649     		ldr	r1, .L28
 291 0006 01E0     		b	.L25
 292              	.LVL25:
 293              	.L27:
 294              	.LBE51:
 295              	.LBE50:
  88:../libraries/SharedSpi/SharedSpi.cpp **** 		{
 296              		.loc 1 88 0
 297 0008 013B     		subs	r3, r3, #1
 298              	.LVL26:
 299 000a 02D0     		beq	.L24
 300              	.LVL27:
 301              	.L25:
 302              	.LBB53:
 303              	.LBB52:
 304              		.loc 3 408 0
 305 000c 0A69     		ldr	r2, [r1, #16]
 306 000e 9205     		lsls	r2, r2, #22
 307 0010 FAD5     		bpl	.L27
 308              	.LVL28:
 309              	.L24:
 310              	.LBE52:
 311              	.LBE53:
 312              	.LBE49:
 313              	.LBE48:
 258:../libraries/SharedSpi/SharedSpi.cpp **** 	waitForTxEmpty();
 259:../libraries/SharedSpi/SharedSpi.cpp **** 
 260:../libraries/SharedSpi/SharedSpi.cpp **** 	// Disable the CS line
 261:../libraries/SharedSpi/SharedSpi.cpp **** 	digitalWrite(device->csPin, !device->csPolarity);
 314              		.loc 1 261 0
 315 0012 4178     		ldrb	r1, [r0, #1]	@ zero_extendqisi2
 316 0014 0078     		ldrb	r0, [r0]	@ zero_extendqisi2
 317              	.LVL29:
 318 0016 81F00101 		eor	r1, r1, #1
 319 001a FFF7FEBF 		b	digitalWrite
 320              	.LVL30:
 321              	.L29:
 322 001e 00BF     		.align	2
 323              	.L28:
 324 0020 00800040 		.word	1073774592
 325              		.cfi_endproc
 326              	.LFE533:
 327              		.size	sspi_deselect_device, .-sspi_deselect_device
 328              		.section	.text.sspi_transceive_packet,"ax",%progbits
 329              		.align	1
 330              		.p2align 2,,3
 331              		.global	sspi_transceive_packet
ARM GAS  /tmp/ccHBIC16.s 			page 20


 332              		.syntax unified
 333              		.thumb
 334              		.thumb_func
 335              		.fpu fpv5-d16
 336              		.type	sspi_transceive_packet, %function
 337              	sspi_transceive_packet:
 338              	.LFB534:
 262:../libraries/SharedSpi/SharedSpi.cpp **** }
 263:../libraries/SharedSpi/SharedSpi.cpp **** 
 264:../libraries/SharedSpi/SharedSpi.cpp **** /**
 265:../libraries/SharedSpi/SharedSpi.cpp ****  * \brief Send and receive a sequence of bytes from an SPI device.
 266:../libraries/SharedSpi/SharedSpi.cpp ****  *
 267:../libraries/SharedSpi/SharedSpi.cpp ****  * \param tx_data   Data buffer to send.
 268:../libraries/SharedSpi/SharedSpi.cpp ****  * \param rx_data   Data buffer to read.
 269:../libraries/SharedSpi/SharedSpi.cpp ****  * \param len       Length of data to be read.
 270:../libraries/SharedSpi/SharedSpi.cpp ****  *
 271:../libraries/SharedSpi/SharedSpi.cpp ****  * \pre SPI device must be selected with spi_select_device() first.
 272:../libraries/SharedSpi/SharedSpi.cpp ****  */
 273:../libraries/SharedSpi/SharedSpi.cpp **** spi_status_t sspi_transceive_packet(const uint8_t *tx_data, uint8_t *rx_data, size_t len)
 274:../libraries/SharedSpi/SharedSpi.cpp **** {
 339              		.loc 1 274 0
 340              		.cfi_startproc
 341              		@ args = 0, pretend = 0, frame = 0
 342              		@ frame_needed = 0, uses_anonymous_args = 0
 343              	.LVL31:
 344              	.LBB54:
 275:../libraries/SharedSpi/SharedSpi.cpp **** 	for (uint32_t i = 0; i < len; ++i)
 345              		.loc 1 275 0
 346 0000 002A     		cmp	r2, #0
 347 0002 43D0     		beq	.L46
 348              	.LBE54:
 274:../libraries/SharedSpi/SharedSpi.cpp **** 	for (uint32_t i = 0; i < len; ++i)
 349              		.loc 1 274 0
 350 0004 F0B5     		push	{r4, r5, r6, r7, lr}
 351              		.cfi_def_cfa_offset 20
 352              		.cfi_offset 4, -20
 353              		.cfi_offset 5, -16
 354              		.cfi_offset 6, -12
 355              		.cfi_offset 7, -8
 356              		.cfi_offset 14, -4
 357 0006 9646     		mov	lr, r2
 358              	.LBB85:
 359              		.loc 1 275 0
 360 0008 0027     		movs	r7, #0
 361              	.LVL32:
 362              	.LBB55:
 363              	.LBB56:
 364              	.LBB57:
 365              	.LBB58:
 366              	.LBB59:
 409:/home/torbjorn/eclipse-workspace/CoreNG/asf/sam/drivers/spi/spi.h **** 		return 1;
 410:/home/torbjorn/eclipse-workspace/CoreNG/asf/sam/drivers/spi/spi.h **** 	} else {
 411:/home/torbjorn/eclipse-workspace/CoreNG/asf/sam/drivers/spi/spi.h **** 		return 0;
 412:/home/torbjorn/eclipse-workspace/CoreNG/asf/sam/drivers/spi/spi.h **** 	}
 413:/home/torbjorn/eclipse-workspace/CoreNG/asf/sam/drivers/spi/spi.h **** }
 414:/home/torbjorn/eclipse-workspace/CoreNG/asf/sam/drivers/spi/spi.h **** 
 415:/home/torbjorn/eclipse-workspace/CoreNG/asf/sam/drivers/spi/spi.h **** /**
ARM GAS  /tmp/ccHBIC16.s 			page 21


 416:/home/torbjorn/eclipse-workspace/CoreNG/asf/sam/drivers/spi/spi.h ****  * \brief Check if all transmissions are ready.
 417:/home/torbjorn/eclipse-workspace/CoreNG/asf/sam/drivers/spi/spi.h ****  *
 418:/home/torbjorn/eclipse-workspace/CoreNG/asf/sam/drivers/spi/spi.h ****  * \param p_spi Pointer to an SPI instance.
 419:/home/torbjorn/eclipse-workspace/CoreNG/asf/sam/drivers/spi/spi.h ****  *
 420:/home/torbjorn/eclipse-workspace/CoreNG/asf/sam/drivers/spi/spi.h ****  * \retval 1 if transmissions are complete.
 421:/home/torbjorn/eclipse-workspace/CoreNG/asf/sam/drivers/spi/spi.h ****  * \retval 0 if transmissions are not complete.
 422:/home/torbjorn/eclipse-workspace/CoreNG/asf/sam/drivers/spi/spi.h ****  */
 423:/home/torbjorn/eclipse-workspace/CoreNG/asf/sam/drivers/spi/spi.h **** static inline uint32_t spi_is_tx_ready(Spi *p_spi)
 424:/home/torbjorn/eclipse-workspace/CoreNG/asf/sam/drivers/spi/spi.h **** {
 425:/home/torbjorn/eclipse-workspace/CoreNG/asf/sam/drivers/spi/spi.h **** 	if (p_spi->SPI_SR & SPI_SR_TDRE) {
 367              		.loc 3 425 0
 368 000a 284D     		ldr	r5, .L81
 369              	.LBE59:
 370              	.LBE58:
 371              	.LBE57:
 372              	.LBE56:
 373              	.LBB63:
 374              	.LBB64:
 375              	.LBB65:
 376              	.LBB66:
 377              	.LBB67:
 378              	.LBB68:
 426:/home/torbjorn/eclipse-workspace/CoreNG/asf/sam/drivers/spi/spi.h **** 		return 1;
 427:/home/torbjorn/eclipse-workspace/CoreNG/asf/sam/drivers/spi/spi.h **** 	} else {
 428:/home/torbjorn/eclipse-workspace/CoreNG/asf/sam/drivers/spi/spi.h **** 		return 0;
 429:/home/torbjorn/eclipse-workspace/CoreNG/asf/sam/drivers/spi/spi.h **** 	}
 430:/home/torbjorn/eclipse-workspace/CoreNG/asf/sam/drivers/spi/spi.h **** }
 431:/home/torbjorn/eclipse-workspace/CoreNG/asf/sam/drivers/spi/spi.h **** 
 432:/home/torbjorn/eclipse-workspace/CoreNG/asf/sam/drivers/spi/spi.h **** /**
 433:/home/torbjorn/eclipse-workspace/CoreNG/asf/sam/drivers/spi/spi.h ****  * \brief Check if the SPI contains a received character.
 434:/home/torbjorn/eclipse-workspace/CoreNG/asf/sam/drivers/spi/spi.h ****  *
 435:/home/torbjorn/eclipse-workspace/CoreNG/asf/sam/drivers/spi/spi.h ****  * \param p_spi Pointer to an SPI instance.
 436:/home/torbjorn/eclipse-workspace/CoreNG/asf/sam/drivers/spi/spi.h ****  *
 437:/home/torbjorn/eclipse-workspace/CoreNG/asf/sam/drivers/spi/spi.h ****  * \return 1 if the SPI Receive Holding Register is full, otherwise 0.
 438:/home/torbjorn/eclipse-workspace/CoreNG/asf/sam/drivers/spi/spi.h ****  */
 439:/home/torbjorn/eclipse-workspace/CoreNG/asf/sam/drivers/spi/spi.h **** static inline uint32_t spi_is_rx_full(Spi *p_spi)
 440:/home/torbjorn/eclipse-workspace/CoreNG/asf/sam/drivers/spi/spi.h **** {
 441:/home/torbjorn/eclipse-workspace/CoreNG/asf/sam/drivers/spi/spi.h **** 	if (p_spi->SPI_SR & SPI_SR_RDRF) {
 442:/home/torbjorn/eclipse-workspace/CoreNG/asf/sam/drivers/spi/spi.h **** 		return 1;
 443:/home/torbjorn/eclipse-workspace/CoreNG/asf/sam/drivers/spi/spi.h **** 	} else {
 444:/home/torbjorn/eclipse-workspace/CoreNG/asf/sam/drivers/spi/spi.h **** 		return 0;
 445:/home/torbjorn/eclipse-workspace/CoreNG/asf/sam/drivers/spi/spi.h **** 	}
 446:/home/torbjorn/eclipse-workspace/CoreNG/asf/sam/drivers/spi/spi.h **** }
 447:/home/torbjorn/eclipse-workspace/CoreNG/asf/sam/drivers/spi/spi.h **** 
 448:/home/torbjorn/eclipse-workspace/CoreNG/asf/sam/drivers/spi/spi.h **** /**
 449:/home/torbjorn/eclipse-workspace/CoreNG/asf/sam/drivers/spi/spi.h ****  * \brief Check if all receptions are ready.
 450:/home/torbjorn/eclipse-workspace/CoreNG/asf/sam/drivers/spi/spi.h ****  *
 451:/home/torbjorn/eclipse-workspace/CoreNG/asf/sam/drivers/spi/spi.h ****  * \param p_spi Pointer to an SPI instance.
 452:/home/torbjorn/eclipse-workspace/CoreNG/asf/sam/drivers/spi/spi.h ****  *
 453:/home/torbjorn/eclipse-workspace/CoreNG/asf/sam/drivers/spi/spi.h ****  * \return 1 if the SPI Receiver is ready, otherwise 0.
 454:/home/torbjorn/eclipse-workspace/CoreNG/asf/sam/drivers/spi/spi.h ****  */
 455:/home/torbjorn/eclipse-workspace/CoreNG/asf/sam/drivers/spi/spi.h **** static inline uint32_t spi_is_rx_ready(Spi *p_spi)
 456:/home/torbjorn/eclipse-workspace/CoreNG/asf/sam/drivers/spi/spi.h **** {
 457:/home/torbjorn/eclipse-workspace/CoreNG/asf/sam/drivers/spi/spi.h **** 	if ((p_spi->SPI_SR & (SPI_SR_RDRF | SPI_SR_TXEMPTY))
 379              		.loc 3 457 0
 380 000c 40F20126 		movw	r6, #513
 381              	.LBE68:
ARM GAS  /tmp/ccHBIC16.s 			page 22


 382              	.LBE67:
 383              	.LBE66:
 384              	.LBE65:
 385              	.LBE64:
 386              	.LBE63:
 276:../libraries/SharedSpi/SharedSpi.cpp **** 	{
 277:../libraries/SharedSpi/SharedSpi.cpp **** 		uint32_t dOut = (tx_data == nullptr) ? 0x000000FF : (uint32_t)*tx_data++;
 387              		.loc 1 277 0
 388 0010 00B3     		cbz	r0, .L47
 389              	.LVL33:
 390              	.L76:
 391              		.loc 1 277 0 is_stmt 0 discriminator 1
 392 0012 0278     		ldrb	r2, [r0]	@ zero_extendqisi2
 393 0014 0130     		adds	r0, r0, #1
 394              	.LVL34:
 395              	.L33:
 396              		.loc 1 277 0 discriminator 4
 397 0016 43F69823 		movw	r3, #15000
 398 001a 01E0     		b	.L35
 399              	.LVL35:
 400              	.L71:
 401              	.LBB75:
 402              	.LBB62:
  70:../libraries/SharedSpi/SharedSpi.cpp **** 		{
 403              		.loc 1 70 0 is_stmt 1
 404 001c 013B     		subs	r3, r3, #1
 405              	.LVL36:
 406 001e 1BD0     		beq	.L40
 407              	.LVL37:
 408              	.L35:
 409              	.LBB61:
 410              	.LBB60:
 425:/home/torbjorn/eclipse-workspace/CoreNG/asf/sam/drivers/spi/spi.h **** 		return 1;
 411              		.loc 3 425 0
 412 0020 2C69     		ldr	r4, [r5, #16]
 413 0022 A407     		lsls	r4, r4, #30
 414 0024 FAD5     		bpl	.L71
 415              	.LVL38:
 416              	.LBE60:
 417              	.LBE61:
 418              	.LBE62:
 419              	.LBE75:
 278:../libraries/SharedSpi/SharedSpi.cpp **** 		if (waitForTxReady())
 279:../libraries/SharedSpi/SharedSpi.cpp **** 		{
 280:../libraries/SharedSpi/SharedSpi.cpp **** 			return SPI_ERROR_TIMEOUT;
 281:../libraries/SharedSpi/SharedSpi.cpp **** 		}
 282:../libraries/SharedSpi/SharedSpi.cpp **** 
 283:../libraries/SharedSpi/SharedSpi.cpp **** 		// Write to transmit register
 284:../libraries/SharedSpi/SharedSpi.cpp **** #if USART_SPI
 285:../libraries/SharedSpi/SharedSpi.cpp **** 		USART_SSPI->US_THR = dOut;
 286:../libraries/SharedSpi/SharedSpi.cpp **** #else
 287:../libraries/SharedSpi/SharedSpi.cpp **** 		if (i + 1 == len)
 420              		.loc 1 287 0
 421 0026 0137     		adds	r7, r7, #1
 422              	.LVL39:
 423 0028 BE45     		cmp	lr, r7
 424 002a 1DD0     		beq	.L72
ARM GAS  /tmp/ccHBIC16.s 			page 23


 288:../libraries/SharedSpi/SharedSpi.cpp **** 		{
 289:../libraries/SharedSpi/SharedSpi.cpp **** 			dOut |= SPI_TDR_LASTXFER;
 290:../libraries/SharedSpi/SharedSpi.cpp **** 		}
 291:../libraries/SharedSpi/SharedSpi.cpp **** 		SSPI->SPI_TDR = dOut;
 425              		.loc 1 291 0
 426 002c EA60     		str	r2, [r5, #12]
 427              	.LBB76:
 292:../libraries/SharedSpi/SharedSpi.cpp **** #endif
 293:../libraries/SharedSpi/SharedSpi.cpp **** 
 294:../libraries/SharedSpi/SharedSpi.cpp **** 		// Some devices are transmit-only e.g. 12864 display, so don't wait for received data if we don't
 295:../libraries/SharedSpi/SharedSpi.cpp **** 		if (rx_data != nullptr)
 428              		.loc 1 295 0
 429 002e A9B1     		cbz	r1, .L73
 430              	.L45:
 431              	.LBE76:
 277:../libraries/SharedSpi/SharedSpi.cpp **** 		if (waitForTxReady())
 432              		.loc 1 277 0
 433 0030 43F69823 		movw	r3, #15000
 434 0034 01E0     		b	.L41
 435              	.LVL40:
 436              	.L74:
 437              	.LBB77:
 438              	.LBB73:
 439              	.LBB72:
 440              	.LBB71:
 106:../libraries/SharedSpi/SharedSpi.cpp **** 		{
 441              		.loc 1 106 0
 442 0036 013B     		subs	r3, r3, #1
 443              	.LVL41:
 444 0038 0ED0     		beq	.L40
 445              	.LVL42:
 446              	.L41:
 447              	.LBB70:
 448              	.LBB69:
 449              		.loc 3 457 0
 450 003a 2C69     		ldr	r4, [r5, #16]
 451 003c 36EA0402 		bics	r2, r6, r4
 452 0040 F9D1     		bne	.L74
 453              	.LVL43:
 454              	.LBE69:
 455              	.LBE70:
 456              	.LBE71:
 457              	.LBE72:
 296:../libraries/SharedSpi/SharedSpi.cpp **** 		{
 297:../libraries/SharedSpi/SharedSpi.cpp **** 			// Wait for receive register
 298:../libraries/SharedSpi/SharedSpi.cpp **** 			if (waitForRxReady())
 299:../libraries/SharedSpi/SharedSpi.cpp **** 			{
 300:../libraries/SharedSpi/SharedSpi.cpp **** 				return SPI_ERROR_TIMEOUT;
 301:../libraries/SharedSpi/SharedSpi.cpp **** 			}
 302:../libraries/SharedSpi/SharedSpi.cpp **** 
 303:../libraries/SharedSpi/SharedSpi.cpp **** 			// Get data from receive register
 304:../libraries/SharedSpi/SharedSpi.cpp **** 			const uint8_t dIn =
 305:../libraries/SharedSpi/SharedSpi.cpp **** #if USART_SPI
 306:../libraries/SharedSpi/SharedSpi.cpp **** 					(uint8_t)USART_SSPI->US_RHR;
 307:../libraries/SharedSpi/SharedSpi.cpp **** #else
 308:../libraries/SharedSpi/SharedSpi.cpp **** 					(uint8_t)SSPI->SPI_RDR;
 458              		.loc 1 308 0
ARM GAS  /tmp/ccHBIC16.s 			page 24


 459 0042 AA68     		ldr	r2, [r5, #8]
 460              	.LVL44:
 461              	.LBE73:
 462              	.LBE77:
 463              	.LBE55:
 275:../libraries/SharedSpi/SharedSpi.cpp **** 	{
 464              		.loc 1 275 0
 465 0044 BE45     		cmp	lr, r7
 466              	.LBB82:
 467              	.LBB78:
 468              	.LBB74:
 309:../libraries/SharedSpi/SharedSpi.cpp **** #endif
 310:../libraries/SharedSpi/SharedSpi.cpp **** 			*rx_data++ = dIn;
 469              		.loc 1 310 0
 470 0046 01F10103 		add	r3, r1, #1
 471              	.LVL45:
 308:../libraries/SharedSpi/SharedSpi.cpp **** #endif
 472              		.loc 1 308 0
 473 004a 0A70     		strb	r2, [r1]
 474              	.LVL46:
 475              	.LBE74:
 476              	.LBE78:
 477              	.LBE82:
 275:../libraries/SharedSpi/SharedSpi.cpp **** 	{
 478              		.loc 1 275 0
 479 004c 09D0     		beq	.L75
 480              	.LBB83:
 481              	.LBB79:
 295:../libraries/SharedSpi/SharedSpi.cpp **** 		{
 482              		.loc 1 295 0
 483 004e 1946     		mov	r1, r3
 484              	.LVL47:
 485              	.L77:
 486              	.LBE79:
 277:../libraries/SharedSpi/SharedSpi.cpp **** 		if (waitForTxReady())
 487              		.loc 1 277 0
 488 0050 0028     		cmp	r0, #0
 489 0052 DED1     		bne	.L76
 490              	.L47:
 491 0054 FF22     		movs	r2, #255
 492 0056 DEE7     		b	.L33
 493              	.LVL48:
 494              	.L40:
 280:../libraries/SharedSpi/SharedSpi.cpp **** 		}
 495              		.loc 1 280 0
 496 0058 0120     		movs	r0, #1
 497              	.LVL49:
 498 005a F0BD     		pop	{r4, r5, r6, r7, pc}
 499              	.LVL50:
 500              	.L73:
 501              	.LBB80:
 295:../libraries/SharedSpi/SharedSpi.cpp **** 		{
 502              		.loc 1 295 0
 503 005c 0B46     		mov	r3, r1
 504 005e 1946     		mov	r1, r3
 505 0060 F6E7     		b	.L77
 506              	.LVL51:
ARM GAS  /tmp/ccHBIC16.s 			page 25


 507              	.L75:
 508              	.LBE80:
 509              	.LBE83:
 510              	.LBE85:
 311:../libraries/SharedSpi/SharedSpi.cpp **** 		}
 312:../libraries/SharedSpi/SharedSpi.cpp **** 	}
 313:../libraries/SharedSpi/SharedSpi.cpp **** 
 314:../libraries/SharedSpi/SharedSpi.cpp **** 	// If we didn't wait to receive, then we need to wait for transmit to finish and clear the receive
 315:../libraries/SharedSpi/SharedSpi.cpp **** 	if (rx_data == nullptr)
 511              		.loc 1 315 0
 512 0062 33B1     		cbz	r3, .L38
 316:../libraries/SharedSpi/SharedSpi.cpp **** 	{
 317:../libraries/SharedSpi/SharedSpi.cpp **** 		waitForTxEmpty();
 318:../libraries/SharedSpi/SharedSpi.cpp **** #if USART_SPI
 319:../libraries/SharedSpi/SharedSpi.cpp **** 		(void)USART_SSPI->US_RHR;
 320:../libraries/SharedSpi/SharedSpi.cpp **** #else
 321:../libraries/SharedSpi/SharedSpi.cpp **** 		(void)SSPI->SPI_RDR;
 322:../libraries/SharedSpi/SharedSpi.cpp **** #endif
 323:../libraries/SharedSpi/SharedSpi.cpp **** 
 324:../libraries/SharedSpi/SharedSpi.cpp **** 	}
 325:../libraries/SharedSpi/SharedSpi.cpp **** 
 326:../libraries/SharedSpi/SharedSpi.cpp **** 	return SPI_OK;
 513              		.loc 1 326 0
 514 0064 0020     		movs	r0, #0
 515              	.LVL52:
 516 0066 F0BD     		pop	{r4, r5, r6, r7, pc}
 517              	.LVL53:
 518              	.L72:
 519              	.LBB86:
 520              	.LBB84:
 289:../libraries/SharedSpi/SharedSpi.cpp **** 		}
 521              		.loc 1 289 0
 522 0068 42F08072 		orr	r2, r2, #16777216
 523              	.LVL54:
 291:../libraries/SharedSpi/SharedSpi.cpp **** #endif
 524              		.loc 1 291 0
 525 006c EA60     		str	r2, [r5, #12]
 526              	.LBB81:
 295:../libraries/SharedSpi/SharedSpi.cpp **** 		{
 527              		.loc 1 295 0
 528 006e 0029     		cmp	r1, #0
 529 0070 DED1     		bne	.L45
 530              	.LVL55:
 531              	.L38:
 532              	.LBE81:
 533              	.LBE84:
 275:../libraries/SharedSpi/SharedSpi.cpp **** 	{
 534              		.loc 1 275 0
 535 0072 43F69923 		movw	r3, #15001
 536              	.LBE86:
 537              	.LBB87:
 538              	.LBB88:
 539              	.LBB89:
 540              	.LBB90:
 408:/home/torbjorn/eclipse-workspace/CoreNG/asf/sam/drivers/spi/spi.h **** 		return 1;
 541              		.loc 3 408 0
 542 0076 0D49     		ldr	r1, .L81
ARM GAS  /tmp/ccHBIC16.s 			page 26


 543 0078 01E0     		b	.L44
 544              	.LVL56:
 545              	.L78:
 546              	.LBE90:
 547              	.LBE89:
  88:../libraries/SharedSpi/SharedSpi.cpp **** 		{
 548              		.loc 1 88 0
 549 007a 013B     		subs	r3, r3, #1
 550              	.LVL57:
 551 007c 02D0     		beq	.L43
 552              	.LVL58:
 553              	.L44:
 554              	.LBB94:
 555              	.LBB91:
 408:/home/torbjorn/eclipse-workspace/CoreNG/asf/sam/drivers/spi/spi.h **** 		return 1;
 556              		.loc 3 408 0
 557 007e 0A69     		ldr	r2, [r1, #16]
 558 0080 9005     		lsls	r0, r2, #22
 559 0082 FAD5     		bpl	.L78
 560              	.LVL59:
 561              	.L43:
 562              	.LBE91:
 563              	.LBE94:
 564              	.LBE88:
 565              	.LBE87:
 321:../libraries/SharedSpi/SharedSpi.cpp **** #endif
 566              		.loc 1 321 0
 567 0084 094B     		ldr	r3, .L81
 568              		.loc 1 326 0
 569 0086 0020     		movs	r0, #0
 321:../libraries/SharedSpi/SharedSpi.cpp **** #endif
 570              		.loc 1 321 0
 571 0088 9B68     		ldr	r3, [r3, #8]
 572 008a F0BD     		pop	{r4, r5, r6, r7, pc}
 573              	.LVL60:
 574              	.L46:
 575              		.cfi_def_cfa_offset 0
 576              		.cfi_restore 4
 577              		.cfi_restore 5
 578              		.cfi_restore 6
 579              		.cfi_restore 7
 580              		.cfi_restore 14
 315:../libraries/SharedSpi/SharedSpi.cpp **** 	{
 581              		.loc 1 315 0
 582 008c 09B1     		cbz	r1, .L79
 583              		.loc 1 326 0
 584 008e 0020     		movs	r0, #0
 585              	.LVL61:
 327:../libraries/SharedSpi/SharedSpi.cpp **** }
 586              		.loc 1 327 0
 587 0090 7047     		bx	lr
 588              	.LVL62:
 589              	.L79:
 590              	.LBB98:
 275:../libraries/SharedSpi/SharedSpi.cpp **** 	{
 591              		.loc 1 275 0
 592 0092 43F69923 		movw	r3, #15001
ARM GAS  /tmp/ccHBIC16.s 			page 27


 593              	.LBE98:
 594              	.LBB99:
 595              	.LBB97:
 596              	.LBB95:
 597              	.LBB92:
 408:/home/torbjorn/eclipse-workspace/CoreNG/asf/sam/drivers/spi/spi.h **** 		return 1;
 598              		.loc 3 408 0
 599 0096 0549     		ldr	r1, .L81
 600              	.LVL63:
 601 0098 01E0     		b	.L63
 602              	.LVL64:
 603              	.L80:
 604              	.LBE92:
 605              	.LBE95:
  88:../libraries/SharedSpi/SharedSpi.cpp **** 		{
 606              		.loc 1 88 0
 607 009a 013B     		subs	r3, r3, #1
 608              	.LVL65:
 609 009c 02D0     		beq	.L64
 610              	.LVL66:
 611              	.L63:
 612              	.LBB96:
 613              	.LBB93:
 408:/home/torbjorn/eclipse-workspace/CoreNG/asf/sam/drivers/spi/spi.h **** 		return 1;
 614              		.loc 3 408 0
 615 009e 0A69     		ldr	r2, [r1, #16]
 616 00a0 9205     		lsls	r2, r2, #22
 617 00a2 FAD5     		bpl	.L80
 618              	.LVL67:
 619              	.L64:
 620              	.LBE93:
 621              	.LBE96:
 622              	.LBE97:
 623              	.LBE99:
 321:../libraries/SharedSpi/SharedSpi.cpp **** #endif
 624              		.loc 1 321 0
 625 00a4 014B     		ldr	r3, .L81
 326:../libraries/SharedSpi/SharedSpi.cpp **** }
 626              		.loc 1 326 0
 627 00a6 0020     		movs	r0, #0
 628              	.LVL68:
 321:../libraries/SharedSpi/SharedSpi.cpp **** #endif
 629              		.loc 1 321 0
 630 00a8 9B68     		ldr	r3, [r3, #8]
 631 00aa 7047     		bx	lr
 632              	.L82:
 633              		.align	2
 634              	.L81:
 635 00ac 00800040 		.word	1073774592
 636              		.cfi_endproc
 637              	.LFE534:
 638              		.size	sspi_transceive_packet, .-sspi_transceive_packet
 639              		.section	.bss._ZL28cpu_irq_prev_interrupt_state,"aw",%nobits
 640              		.type	_ZL28cpu_irq_prev_interrupt_state, %object
 641              		.size	_ZL28cpu_irq_prev_interrupt_state, 1
 642              	_ZL28cpu_irq_prev_interrupt_state:
 643 0000 00       		.space	1
ARM GAS  /tmp/ccHBIC16.s 			page 28


 644              		.section	.bss._ZL32cpu_irq_critical_section_counter,"aw",%nobits
 645              		.align	2
 646              		.type	_ZL32cpu_irq_critical_section_counter, %object
 647              		.size	_ZL32cpu_irq_critical_section_counter, 4
 648              	_ZL32cpu_irq_critical_section_counter:
 649 0000 00000000 		.space	4
 650              		.section	.bss._ZZ16sspi_master_initE13commsInitDone,"aw",%nobits
 651              		.set	.LANCHOR0,. + 0
 652              		.type	_ZZ16sspi_master_initE13commsInitDone, %object
 653              		.size	_ZZ16sspi_master_initE13commsInitDone, 1
 654              	_ZZ16sspi_master_initE13commsInitDone:
 655 0000 00       		.space	1
 656              		.text
 657              	.Letext0:
 658              		.file 4 "/usr/lib/gcc/arm-none-eabi/6.3.1/include/stddef.h"
 659              		.file 5 "/usr/include/newlib/machine/_default_types.h"
 660              		.file 6 "/usr/include/newlib/sys/_stdint.h"
 661              		.file 7 "/usr/include/newlib/stdint.h"
 662              		.file 8 "/home/torbjorn/eclipse-workspace/CoreNG/asf/thirdparty/CMSIS/Include/core_cm7.h"
 663              		.file 9 "/home/torbjorn/eclipse-workspace/CoreNG/variants/same70/system_same70.h"
 664              		.file 10 "/home/torbjorn/eclipse-workspace/CoreNG/asf/sam/utils/cmsis/same70/include/component/pio
 665              		.file 11 "/home/torbjorn/eclipse-workspace/CoreNG/asf/sam/utils/cmsis/same70/include/component/spi
 666              		.file 12 "/usr/include/newlib/sys/lock.h"
 667              		.file 13 "/usr/include/newlib/sys/_types.h"
 668              		.file 14 "/usr/include/newlib/sys/reent.h"
 669              		.file 15 "/usr/include/newlib/c++/6.3.1/cstdlib"
 670              		.file 16 "/usr/include/newlib/c++/6.3.1/cmath"
 671              		.file 17 "/usr/include/newlib/c++/6.3.1/cstdint"
 672              		.file 18 "/usr/include/newlib/c++/6.3.1/cstddef"
 673              		.file 19 "/usr/include/newlib/c++/6.3.1/arm-none-eabi/thumb/v7e-m/fpv5/hard/bits/c++config.h"
 674              		.file 20 "/usr/include/newlib/stdlib.h"
 675              		.file 21 "/usr/include/newlib/c++/6.3.1/stdlib.h"
 676              		.file 22 "/home/torbjorn/eclipse-workspace/CoreNG/asf/common/utils/interrupt/interrupt_sam_nvic.h"
 677              		.file 23 "/usr/include/newlib/math.h"
 678              		.file 24 "/usr/include/newlib/c++/6.3.1/math.h"
 679              		.file 25 "/home/torbjorn/eclipse-workspace/CoreNG/asf/sam/drivers/pio/pio.h"
 680              		.file 26 "/home/torbjorn/eclipse-workspace/CoreNG/cores/arduino/Core.h"
 681              		.file 27 "/usr/include/newlib/ctype.h"
 682              		.file 28 "/home/torbjorn/eclipse-workspace/CoreNG/cores/arduino/RingBuffer.h"
 683              		.file 29 "/home/torbjorn/eclipse-workspace/CoreNG/cores/arduino/UARTClass.h"
 684              		.file 30 "/usr/include/newlib/time.h"
 685              		.file 31 "/home/torbjorn/eclipse-workspace/CoreNG/variants/same70/variant.h"
 686              		.file 32 "/home/torbjorn/eclipse-workspace/CoreNG/cores/arduino/USB/USBSerial.h"
 687              		.file 33 "../libraries/SharedSpi/SharedSpi.h"
 688              		.file 34 "/home/torbjorn/eclipse-workspace/CoreNG/cores/arduino/Print.h"
 689              		.file 35 "/home/torbjorn/eclipse-workspace/CoreNG/asf/sam/drivers/pmc/pmc.h"
 690              		.file 36 "<built-in>"