ARM GAS  /tmp/ccRqcMej.s 			page 1


   1              		.cpu cortex-m7
   2              		.eabi_attribute 28, 1
   3              		.eabi_attribute 20, 1
   4              		.eabi_attribute 21, 1
   5              		.eabi_attribute 23, 3
   6              		.eabi_attribute 24, 1
   7              		.eabi_attribute 25, 1
   8              		.eabi_attribute 26, 1
   9              		.eabi_attribute 30, 2
  10              		.eabi_attribute 34, 1
  11              		.eabi_attribute 18, 4
  12              		.file	"sleep.c"
  13              		.text
  14              	.Ltext0:
  15              		.cfi_sections	.debug_frame
  16              		.section	.text.pmc_sleep,"ax",%progbits
  17              		.align	1
  18              		.p2align 2,,3
  19              		.global	pmc_sleep
  20              		.syntax unified
  21              		.thumb
  22              		.thumb_func
  23              		.fpu fpv5-d16
  24              		.type	pmc_sleep, %function
  25              	pmc_sleep:
  26              	.LFB144:
  27              		.file 1 "../asf/sam/drivers/pmc/sleep.c"
   1:../asf/sam/drivers/pmc/sleep.c **** /**
   2:../asf/sam/drivers/pmc/sleep.c ****  * \file
   3:../asf/sam/drivers/pmc/sleep.c ****  *
   4:../asf/sam/drivers/pmc/sleep.c ****  * \brief Sleep mode access
   5:../asf/sam/drivers/pmc/sleep.c ****  *
   6:../asf/sam/drivers/pmc/sleep.c ****  * Copyright (c) 2012-2016 Atmel Corporation. All rights reserved.
   7:../asf/sam/drivers/pmc/sleep.c ****  *
   8:../asf/sam/drivers/pmc/sleep.c ****  * \asf_license_start
   9:../asf/sam/drivers/pmc/sleep.c ****  *
  10:../asf/sam/drivers/pmc/sleep.c ****  * \page License
  11:../asf/sam/drivers/pmc/sleep.c ****  *
  12:../asf/sam/drivers/pmc/sleep.c ****  * Redistribution and use in source and binary forms, with or without
  13:../asf/sam/drivers/pmc/sleep.c ****  * modification, are permitted provided that the following conditions are met:
  14:../asf/sam/drivers/pmc/sleep.c ****  *
  15:../asf/sam/drivers/pmc/sleep.c ****  * 1. Redistributions of source code must retain the above copyright notice,
  16:../asf/sam/drivers/pmc/sleep.c ****  *    this list of conditions and the following disclaimer.
  17:../asf/sam/drivers/pmc/sleep.c ****  *
  18:../asf/sam/drivers/pmc/sleep.c ****  * 2. Redistributions in binary form must reproduce the above copyright notice,
  19:../asf/sam/drivers/pmc/sleep.c ****  *    this list of conditions and the following disclaimer in the documentation
  20:../asf/sam/drivers/pmc/sleep.c ****  *    and/or other materials provided with the distribution.
  21:../asf/sam/drivers/pmc/sleep.c ****  *
  22:../asf/sam/drivers/pmc/sleep.c ****  * 3. The name of Atmel may not be used to endorse or promote products derived
  23:../asf/sam/drivers/pmc/sleep.c ****  *    from this software without specific prior written permission.
  24:../asf/sam/drivers/pmc/sleep.c ****  *
  25:../asf/sam/drivers/pmc/sleep.c ****  * 4. This software may only be redistributed and used in connection with an
  26:../asf/sam/drivers/pmc/sleep.c ****  *    Atmel microcontroller product.
  27:../asf/sam/drivers/pmc/sleep.c ****  *
  28:../asf/sam/drivers/pmc/sleep.c ****  * THIS SOFTWARE IS PROVIDED BY ATMEL "AS IS" AND ANY EXPRESS OR IMPLIED
  29:../asf/sam/drivers/pmc/sleep.c ****  * WARRANTIES, INCLUDING, BUT NOT LIMITED TO, THE IMPLIED WARRANTIES OF
  30:../asf/sam/drivers/pmc/sleep.c ****  * MERCHANTABILITY, FITNESS FOR A PARTICULAR PURPOSE AND NON-INFRINGEMENT ARE
ARM GAS  /tmp/ccRqcMej.s 			page 2


  31:../asf/sam/drivers/pmc/sleep.c ****  * EXPRESSLY AND SPECIFICALLY DISCLAIMED. IN NO EVENT SHALL ATMEL BE LIABLE FOR
  32:../asf/sam/drivers/pmc/sleep.c ****  * ANY DIRECT, INDIRECT, INCIDENTAL, SPECIAL, EXEMPLARY, OR CONSEQUENTIAL
  33:../asf/sam/drivers/pmc/sleep.c ****  * DAMAGES (INCLUDING, BUT NOT LIMITED TO, PROCUREMENT OF SUBSTITUTE GOODS
  34:../asf/sam/drivers/pmc/sleep.c ****  * OR SERVICES; LOSS OF USE, DATA, OR PROFITS; OR BUSINESS INTERRUPTION)
  35:../asf/sam/drivers/pmc/sleep.c ****  * HOWEVER CAUSED AND ON ANY THEORY OF LIABILITY, WHETHER IN CONTRACT,
  36:../asf/sam/drivers/pmc/sleep.c ****  * STRICT LIABILITY, OR TORT (INCLUDING NEGLIGENCE OR OTHERWISE) ARISING IN
  37:../asf/sam/drivers/pmc/sleep.c ****  * ANY WAY OUT OF THE USE OF THIS SOFTWARE, EVEN IF ADVISED OF THE
  38:../asf/sam/drivers/pmc/sleep.c ****  * POSSIBILITY OF SUCH DAMAGE.
  39:../asf/sam/drivers/pmc/sleep.c ****  *
  40:../asf/sam/drivers/pmc/sleep.c ****  * \asf_license_stop
  41:../asf/sam/drivers/pmc/sleep.c ****  *
  42:../asf/sam/drivers/pmc/sleep.c ****  */
  43:../asf/sam/drivers/pmc/sleep.c **** /*
  44:../asf/sam/drivers/pmc/sleep.c ****  * Support and FAQ: visit <a href="http://www.atmel.com/design-support/">Atmel Support</a>
  45:../asf/sam/drivers/pmc/sleep.c ****  */
  46:../asf/sam/drivers/pmc/sleep.c **** 
  47:../asf/sam/drivers/pmc/sleep.c **** #include <compiler.h>
  48:../asf/sam/drivers/pmc/sleep.c **** #include "sleep.h"
  49:../asf/sam/drivers/pmc/sleep.c **** 
  50:../asf/sam/drivers/pmc/sleep.c **** /* SAM3,SAM4,SAMG,SAMV,SAMS and SAME series */
  51:../asf/sam/drivers/pmc/sleep.c **** #if (SAM3S || SAM3N || SAM3XA || SAM3U || SAM4S || SAM4E || SAM4N || SAM4C || \
  52:../asf/sam/drivers/pmc/sleep.c **** 		SAM4CM || SAMG || SAM4CP || SAMV71 || SAMV70 || SAMS70 || SAME70)
  53:../asf/sam/drivers/pmc/sleep.c **** # include "pmc.h"
  54:../asf/sam/drivers/pmc/sleep.c **** # include "board.h"
  55:../asf/sam/drivers/pmc/sleep.c **** 
  56:../asf/sam/drivers/pmc/sleep.c **** /* Checking board configuration of main clock xtal statup time */
  57:../asf/sam/drivers/pmc/sleep.c **** #if !defined(BOARD_OSC_STARTUP_US)
  58:../asf/sam/drivers/pmc/sleep.c **** # warning The board main clock xtal statup time has not been defined. Using default settings.
  59:../asf/sam/drivers/pmc/sleep.c **** # define BOARD_OSC_STARTUP_US    (15625UL)
  60:../asf/sam/drivers/pmc/sleep.c **** #endif
  61:../asf/sam/drivers/pmc/sleep.c **** 
  62:../asf/sam/drivers/pmc/sleep.c **** #if !defined(EFC0)
  63:../asf/sam/drivers/pmc/sleep.c **** # define EFC0 EFC
  64:../asf/sam/drivers/pmc/sleep.c **** #endif
  65:../asf/sam/drivers/pmc/sleep.c **** 
  66:../asf/sam/drivers/pmc/sleep.c **** /**
  67:../asf/sam/drivers/pmc/sleep.c ****  * Save clock settings and shutdown PLLs
  68:../asf/sam/drivers/pmc/sleep.c ****  */
  69:../asf/sam/drivers/pmc/sleep.c **** __always_inline static void pmc_save_clock_settings(
  70:../asf/sam/drivers/pmc/sleep.c **** 		uint32_t *p_osc_setting,
  71:../asf/sam/drivers/pmc/sleep.c **** 		uint32_t *p_pll0_setting,
  72:../asf/sam/drivers/pmc/sleep.c **** 		uint32_t *p_pll1_setting,
  73:../asf/sam/drivers/pmc/sleep.c **** 		uint32_t *p_mck_setting,
  74:../asf/sam/drivers/pmc/sleep.c **** 		uint32_t *p_fmr_setting,
  75:../asf/sam/drivers/pmc/sleep.c **** #if defined(EFC1)
  76:../asf/sam/drivers/pmc/sleep.c **** 		uint32_t *p_fmr_setting1,
  77:../asf/sam/drivers/pmc/sleep.c **** #endif
  78:../asf/sam/drivers/pmc/sleep.c **** 		const bool disable_xtal)
  79:../asf/sam/drivers/pmc/sleep.c **** {
  80:../asf/sam/drivers/pmc/sleep.c **** 	uint32_t mor  = PMC->CKGR_MOR;
  81:../asf/sam/drivers/pmc/sleep.c **** 	uint32_t mckr = PMC->PMC_MCKR;
  82:../asf/sam/drivers/pmc/sleep.c **** 	uint32_t fmr  = EFC0->EEFC_FMR;
  83:../asf/sam/drivers/pmc/sleep.c **** # if defined(EFC1)
  84:../asf/sam/drivers/pmc/sleep.c **** 	uint32_t fmr1 = EFC1->EEFC_FMR;
  85:../asf/sam/drivers/pmc/sleep.c **** # endif
  86:../asf/sam/drivers/pmc/sleep.c **** 
  87:../asf/sam/drivers/pmc/sleep.c **** 	if (p_osc_setting) {
ARM GAS  /tmp/ccRqcMej.s 			page 3


  88:../asf/sam/drivers/pmc/sleep.c **** 		*p_osc_setting = mor;
  89:../asf/sam/drivers/pmc/sleep.c **** 	}
  90:../asf/sam/drivers/pmc/sleep.c **** 	if (p_pll0_setting) {
  91:../asf/sam/drivers/pmc/sleep.c **** 		*p_pll0_setting = PMC->CKGR_PLLAR;
  92:../asf/sam/drivers/pmc/sleep.c **** 	}
  93:../asf/sam/drivers/pmc/sleep.c **** 	if (p_pll1_setting) {
  94:../asf/sam/drivers/pmc/sleep.c **** #if (SAM3S || SAM4S || SAM4C || SAM4CM || SAM4CP)
  95:../asf/sam/drivers/pmc/sleep.c **** 		*p_pll1_setting = PMC->CKGR_PLLBR;
  96:../asf/sam/drivers/pmc/sleep.c **** #elif (SAM3U || SAM3XA)
  97:../asf/sam/drivers/pmc/sleep.c **** 		*p_pll1_setting = PMC->CKGR_UCKR;
  98:../asf/sam/drivers/pmc/sleep.c **** #else
  99:../asf/sam/drivers/pmc/sleep.c **** 		*p_pll1_setting = 0;
 100:../asf/sam/drivers/pmc/sleep.c **** #endif
 101:../asf/sam/drivers/pmc/sleep.c **** 	}
 102:../asf/sam/drivers/pmc/sleep.c **** 	if (p_mck_setting) {
 103:../asf/sam/drivers/pmc/sleep.c **** 		*p_mck_setting  = mckr;
 104:../asf/sam/drivers/pmc/sleep.c **** 	}
 105:../asf/sam/drivers/pmc/sleep.c **** 	if (p_fmr_setting) {
 106:../asf/sam/drivers/pmc/sleep.c **** 		*p_fmr_setting  = fmr;
 107:../asf/sam/drivers/pmc/sleep.c **** 	}
 108:../asf/sam/drivers/pmc/sleep.c **** #if defined(EFC1)
 109:../asf/sam/drivers/pmc/sleep.c **** 	if (p_fmr_setting1) {
 110:../asf/sam/drivers/pmc/sleep.c **** 		*p_fmr_setting1 = fmr1;
 111:../asf/sam/drivers/pmc/sleep.c **** 	}
 112:../asf/sam/drivers/pmc/sleep.c **** #endif
 113:../asf/sam/drivers/pmc/sleep.c **** 
 114:../asf/sam/drivers/pmc/sleep.c **** 	/* Enable FAST RC */
 115:../asf/sam/drivers/pmc/sleep.c **** 	PMC->CKGR_MOR = CKGR_MOR_KEY_PASSWD | mor | CKGR_MOR_MOSCRCEN;
 116:../asf/sam/drivers/pmc/sleep.c **** 	/* if MCK source is PLL, switch to mainck */
 117:../asf/sam/drivers/pmc/sleep.c **** 	if ((mckr & PMC_MCKR_CSS_Msk) > PMC_MCKR_CSS_MAIN_CLK) {
 118:../asf/sam/drivers/pmc/sleep.c **** 		/* MCK -> MAINCK */
 119:../asf/sam/drivers/pmc/sleep.c **** 		mckr = (mckr & (~PMC_MCKR_CSS_Msk)) | PMC_MCKR_CSS_MAIN_CLK;
 120:../asf/sam/drivers/pmc/sleep.c **** 		PMC->PMC_MCKR = mckr;
 121:../asf/sam/drivers/pmc/sleep.c **** 		while(!(PMC->PMC_SR & PMC_SR_MCKRDY));
 122:../asf/sam/drivers/pmc/sleep.c **** 	}
 123:../asf/sam/drivers/pmc/sleep.c **** 	/* MCK prescale -> 1 */
 124:../asf/sam/drivers/pmc/sleep.c **** 	if (mckr & PMC_MCKR_PRES_Msk) {
 125:../asf/sam/drivers/pmc/sleep.c **** 		mckr = (mckr & (~PMC_MCKR_PRES_Msk));
 126:../asf/sam/drivers/pmc/sleep.c **** 		PMC->PMC_MCKR = mckr;
 127:../asf/sam/drivers/pmc/sleep.c **** 		while(!(PMC->PMC_SR & PMC_SR_MCKRDY));
 128:../asf/sam/drivers/pmc/sleep.c **** 	}
 129:../asf/sam/drivers/pmc/sleep.c **** 	/* Disable PLLs */
 130:../asf/sam/drivers/pmc/sleep.c **** 	pmc_disable_pllack();
 131:../asf/sam/drivers/pmc/sleep.c **** #if (SAM3S || SAM4S || SAM4C || SAM4CM || SAM4CP)
 132:../asf/sam/drivers/pmc/sleep.c **** 	pmc_disable_pllbck();
 133:../asf/sam/drivers/pmc/sleep.c **** #elif (SAM3U || SAM3XA)
 134:../asf/sam/drivers/pmc/sleep.c **** 	pmc_disable_upll_clock();
 135:../asf/sam/drivers/pmc/sleep.c **** #endif
 136:../asf/sam/drivers/pmc/sleep.c **** 
 137:../asf/sam/drivers/pmc/sleep.c **** 	/* Prepare for entering WAIT mode */
 138:../asf/sam/drivers/pmc/sleep.c **** 	/* Wait fast RC ready */
 139:../asf/sam/drivers/pmc/sleep.c **** 	while (!(PMC->PMC_SR & PMC_SR_MOSCRCS));
 140:../asf/sam/drivers/pmc/sleep.c **** 
 141:../asf/sam/drivers/pmc/sleep.c **** 	/* Switch mainck to FAST RC */
 142:../asf/sam/drivers/pmc/sleep.c **** #if SAMG
 143:../asf/sam/drivers/pmc/sleep.c **** 	/**
 144:../asf/sam/drivers/pmc/sleep.c **** 	 * For the sleepwalking feature, we need an accurate RC clock. Only 24M and
ARM GAS  /tmp/ccRqcMej.s 			page 4


 145:../asf/sam/drivers/pmc/sleep.c **** 	 * 16M are trimmed in production. Here we select the 24M.
 146:../asf/sam/drivers/pmc/sleep.c **** 	 * And so wait state need to be 1.
 147:../asf/sam/drivers/pmc/sleep.c **** 	 */
 148:../asf/sam/drivers/pmc/sleep.c **** 	EFC0->EEFC_FMR = (fmr & (~EEFC_FMR_FWS_Msk)) | EEFC_FMR_FWS(1);
 149:../asf/sam/drivers/pmc/sleep.c **** 
 150:../asf/sam/drivers/pmc/sleep.c **** 	PMC->CKGR_MOR = (PMC->CKGR_MOR & ~CKGR_MOR_MOSCSEL) | CKGR_MOR_MOSCRCF_24_MHz |
 151:../asf/sam/drivers/pmc/sleep.c **** 			CKGR_MOR_KEY_PASSWD;
 152:../asf/sam/drivers/pmc/sleep.c **** #else
 153:../asf/sam/drivers/pmc/sleep.c **** 	PMC->CKGR_MOR = (PMC->CKGR_MOR & ~CKGR_MOR_MOSCSEL) |
 154:../asf/sam/drivers/pmc/sleep.c **** 			CKGR_MOR_KEY_PASSWD;
 155:../asf/sam/drivers/pmc/sleep.c **** #endif
 156:../asf/sam/drivers/pmc/sleep.c **** 	while (!(PMC->PMC_SR & PMC_SR_MOSCSELS));
 157:../asf/sam/drivers/pmc/sleep.c **** 
 158:../asf/sam/drivers/pmc/sleep.c **** #if (!SAMG)
 159:../asf/sam/drivers/pmc/sleep.c **** 	/* FWS update */
 160:../asf/sam/drivers/pmc/sleep.c **** 	EFC0->EEFC_FMR = fmr & (~EEFC_FMR_FWS_Msk);
 161:../asf/sam/drivers/pmc/sleep.c **** #if defined(EFC1)
 162:../asf/sam/drivers/pmc/sleep.c **** 	EFC1->EEFC_FMR = fmr1 & (~EEFC_FMR_FWS_Msk);
 163:../asf/sam/drivers/pmc/sleep.c **** #endif
 164:../asf/sam/drivers/pmc/sleep.c **** #endif
 165:../asf/sam/drivers/pmc/sleep.c **** 
 166:../asf/sam/drivers/pmc/sleep.c **** 	/* Disable XTALs */
 167:../asf/sam/drivers/pmc/sleep.c **** 	if (disable_xtal) {
 168:../asf/sam/drivers/pmc/sleep.c **** 		PMC->CKGR_MOR = (PMC->CKGR_MOR & ~CKGR_MOR_MOSCXTEN) |
 169:../asf/sam/drivers/pmc/sleep.c **** 				CKGR_MOR_KEY_PASSWD;
 170:../asf/sam/drivers/pmc/sleep.c **** 	}
 171:../asf/sam/drivers/pmc/sleep.c **** }
 172:../asf/sam/drivers/pmc/sleep.c **** 
 173:../asf/sam/drivers/pmc/sleep.c **** /**
 174:../asf/sam/drivers/pmc/sleep.c ****  * Restore clock settings
 175:../asf/sam/drivers/pmc/sleep.c ****  */
 176:../asf/sam/drivers/pmc/sleep.c **** __always_inline static void pmc_restore_clock_setting(
 177:../asf/sam/drivers/pmc/sleep.c **** 		const uint32_t osc_setting,
 178:../asf/sam/drivers/pmc/sleep.c **** 		const uint32_t pll0_setting,
 179:../asf/sam/drivers/pmc/sleep.c **** 		const uint32_t pll1_setting,
 180:../asf/sam/drivers/pmc/sleep.c **** 		const uint32_t mck_setting,
 181:../asf/sam/drivers/pmc/sleep.c **** 		const uint32_t fmr_setting
 182:../asf/sam/drivers/pmc/sleep.c **** #if defined(EFC1)
 183:../asf/sam/drivers/pmc/sleep.c **** 		, const uint32_t fmr_setting1
 184:../asf/sam/drivers/pmc/sleep.c **** #endif
 185:../asf/sam/drivers/pmc/sleep.c **** 		)
 186:../asf/sam/drivers/pmc/sleep.c **** {
 187:../asf/sam/drivers/pmc/sleep.c **** 	uint32_t mckr;
 188:../asf/sam/drivers/pmc/sleep.c **** 	uint32_t pll_sr = 0;
 189:../asf/sam/drivers/pmc/sleep.c **** 
 190:../asf/sam/drivers/pmc/sleep.c **** 	/* Switch mainck to external xtal */
 191:../asf/sam/drivers/pmc/sleep.c **** 	if (CKGR_MOR_MOSCXTBY == (osc_setting & CKGR_MOR_MOSCXTBY)) {
 192:../asf/sam/drivers/pmc/sleep.c **** 		/* Bypass mode */
 193:../asf/sam/drivers/pmc/sleep.c **** 		PMC->CKGR_MOR = (PMC->CKGR_MOR & ~CKGR_MOR_MOSCXTEN) |
 194:../asf/sam/drivers/pmc/sleep.c **** 				CKGR_MOR_KEY_PASSWD | CKGR_MOR_MOSCXTBY |
 195:../asf/sam/drivers/pmc/sleep.c **** 				CKGR_MOR_MOSCSEL;
 196:../asf/sam/drivers/pmc/sleep.c **** 		PMC->CKGR_MOR = (PMC->CKGR_MOR & ~CKGR_MOR_MOSCRCEN &
 197:../asf/sam/drivers/pmc/sleep.c **** 					~CKGR_MOR_MOSCRCF_Msk)
 198:../asf/sam/drivers/pmc/sleep.c **** 				| CKGR_MOR_KEY_PASSWD;
 199:../asf/sam/drivers/pmc/sleep.c **** 	} else if (CKGR_MOR_MOSCXTEN == (osc_setting & CKGR_MOR_MOSCXTEN)) {
 200:../asf/sam/drivers/pmc/sleep.c **** 		/* Enable External XTAL */
 201:../asf/sam/drivers/pmc/sleep.c **** 		if (!(PMC->CKGR_MOR & CKGR_MOR_MOSCXTEN)) {
ARM GAS  /tmp/ccRqcMej.s 			page 5


 202:../asf/sam/drivers/pmc/sleep.c **** 			PMC->CKGR_MOR = (PMC->CKGR_MOR & ~CKGR_MOR_MOSCXTBY) |
 203:../asf/sam/drivers/pmc/sleep.c **** 					CKGR_MOR_KEY_PASSWD | CKGR_MOR_MOSCXTEN;
 204:../asf/sam/drivers/pmc/sleep.c **** 			/* Wait the Xtal to stabilize */
 205:../asf/sam/drivers/pmc/sleep.c **** 			while (!(PMC->PMC_SR & PMC_SR_MOSCXTS));
 206:../asf/sam/drivers/pmc/sleep.c **** 		}
 207:../asf/sam/drivers/pmc/sleep.c **** 		/* Select External XTAL */
 208:../asf/sam/drivers/pmc/sleep.c **** 		if (!(PMC->CKGR_MOR & CKGR_MOR_MOSCSEL)) {
 209:../asf/sam/drivers/pmc/sleep.c **** 			PMC->CKGR_MOR |= CKGR_MOR_KEY_PASSWD | CKGR_MOR_MOSCSEL;
 210:../asf/sam/drivers/pmc/sleep.c **** 			while (!(PMC->PMC_SR & PMC_SR_MOSCSELS));
 211:../asf/sam/drivers/pmc/sleep.c **** 		}
 212:../asf/sam/drivers/pmc/sleep.c **** 		/* Disable Fast RC */
 213:../asf/sam/drivers/pmc/sleep.c **** 		PMC->CKGR_MOR = (PMC->CKGR_MOR & ~CKGR_MOR_MOSCRCEN &
 214:../asf/sam/drivers/pmc/sleep.c **** 						~CKGR_MOR_MOSCRCF_Msk)
 215:../asf/sam/drivers/pmc/sleep.c **** 					| CKGR_MOR_KEY_PASSWD;
 216:../asf/sam/drivers/pmc/sleep.c **** 	}
 217:../asf/sam/drivers/pmc/sleep.c **** 
 218:../asf/sam/drivers/pmc/sleep.c **** 	if (pll0_setting & CKGR_PLLAR_MULA_Msk) {
 219:../asf/sam/drivers/pmc/sleep.c **** #if (SAM4C || SAM4CM || SAMG || SAM4CP)
 220:../asf/sam/drivers/pmc/sleep.c **** 		PMC->CKGR_PLLAR = pll0_setting;
 221:../asf/sam/drivers/pmc/sleep.c **** #else
 222:../asf/sam/drivers/pmc/sleep.c **** 		PMC->CKGR_PLLAR = CKGR_PLLAR_ONE | pll0_setting;
 223:../asf/sam/drivers/pmc/sleep.c **** #endif
 224:../asf/sam/drivers/pmc/sleep.c **** 		pll_sr |= PMC_SR_LOCKA;
 225:../asf/sam/drivers/pmc/sleep.c **** 	}
 226:../asf/sam/drivers/pmc/sleep.c **** #if (SAM3S || SAM4S || SAM4C || SAM4CM || SAM4CP)
 227:../asf/sam/drivers/pmc/sleep.c **** 	if (pll1_setting & CKGR_PLLBR_MULB_Msk) {
 228:../asf/sam/drivers/pmc/sleep.c **** 		PMC->CKGR_PLLBR = pll1_setting;
 229:../asf/sam/drivers/pmc/sleep.c **** 		pll_sr |= PMC_SR_LOCKB;
 230:../asf/sam/drivers/pmc/sleep.c **** 	}
 231:../asf/sam/drivers/pmc/sleep.c **** #elif (SAM3U || SAM3XA)
 232:../asf/sam/drivers/pmc/sleep.c **** 	if (pll1_setting & CKGR_UCKR_UPLLEN) {
 233:../asf/sam/drivers/pmc/sleep.c **** 		PMC->CKGR_UCKR = pll1_setting;
 234:../asf/sam/drivers/pmc/sleep.c **** 		pll_sr |= PMC_SR_LOCKU;
 235:../asf/sam/drivers/pmc/sleep.c **** 	}
 236:../asf/sam/drivers/pmc/sleep.c **** #else
 237:../asf/sam/drivers/pmc/sleep.c **** 	UNUSED(pll1_setting);
 238:../asf/sam/drivers/pmc/sleep.c **** #endif
 239:../asf/sam/drivers/pmc/sleep.c **** 	/* Wait MCK source ready */
 240:../asf/sam/drivers/pmc/sleep.c **** 	switch(mck_setting & PMC_MCKR_CSS_Msk) {
 241:../asf/sam/drivers/pmc/sleep.c **** 	case PMC_MCKR_CSS_PLLA_CLK:
 242:../asf/sam/drivers/pmc/sleep.c **** 		while (!(PMC->PMC_SR & PMC_SR_LOCKA));
 243:../asf/sam/drivers/pmc/sleep.c **** 		break;
 244:../asf/sam/drivers/pmc/sleep.c **** #if (SAM3S || SAM4S || SAM4C || SAM4CM || SAM4CP)
 245:../asf/sam/drivers/pmc/sleep.c **** 	case PMC_MCKR_CSS_PLLB_CLK:
 246:../asf/sam/drivers/pmc/sleep.c **** 		while (!(PMC->PMC_SR & PMC_SR_LOCKB));
 247:../asf/sam/drivers/pmc/sleep.c **** 		break;
 248:../asf/sam/drivers/pmc/sleep.c **** #elif (SAM3U || SAM3XA)
 249:../asf/sam/drivers/pmc/sleep.c **** 	case PMC_MCKR_CSS_UPLL_CLK:
 250:../asf/sam/drivers/pmc/sleep.c **** 		while (!(PMC->PMC_SR & PMC_SR_LOCKU));
 251:../asf/sam/drivers/pmc/sleep.c **** 		break;
 252:../asf/sam/drivers/pmc/sleep.c **** #endif
 253:../asf/sam/drivers/pmc/sleep.c **** 	}
 254:../asf/sam/drivers/pmc/sleep.c **** 
 255:../asf/sam/drivers/pmc/sleep.c **** 	/* Switch to faster clock */
 256:../asf/sam/drivers/pmc/sleep.c **** 	mckr = PMC->PMC_MCKR;
 257:../asf/sam/drivers/pmc/sleep.c **** 
 258:../asf/sam/drivers/pmc/sleep.c **** 	/* Set PRES */
ARM GAS  /tmp/ccRqcMej.s 			page 6


 259:../asf/sam/drivers/pmc/sleep.c **** 	PMC->PMC_MCKR = (mckr & ~PMC_MCKR_PRES_Msk)
 260:../asf/sam/drivers/pmc/sleep.c **** 		| (mck_setting & PMC_MCKR_PRES_Msk);
 261:../asf/sam/drivers/pmc/sleep.c **** 	while (!(PMC->PMC_SR & PMC_SR_MCKRDY));
 262:../asf/sam/drivers/pmc/sleep.c **** 
 263:../asf/sam/drivers/pmc/sleep.c **** 	/* Restore flash wait states */
 264:../asf/sam/drivers/pmc/sleep.c **** 	EFC0->EEFC_FMR = fmr_setting;
 265:../asf/sam/drivers/pmc/sleep.c **** #if defined(EFC1)
 266:../asf/sam/drivers/pmc/sleep.c **** 	EFC1->EEFC_FMR = fmr_setting1;
 267:../asf/sam/drivers/pmc/sleep.c **** #endif
 268:../asf/sam/drivers/pmc/sleep.c **** 
 269:../asf/sam/drivers/pmc/sleep.c **** 	/* Set CSS and others */
 270:../asf/sam/drivers/pmc/sleep.c **** 	PMC->PMC_MCKR = mck_setting;
 271:../asf/sam/drivers/pmc/sleep.c **** 	while (!(PMC->PMC_SR & PMC_SR_MCKRDY));
 272:../asf/sam/drivers/pmc/sleep.c **** 
 273:../asf/sam/drivers/pmc/sleep.c **** 	/* Waiting all restored PLLs ready */
 274:../asf/sam/drivers/pmc/sleep.c **** 	while (!(PMC->PMC_SR & pll_sr));
 275:../asf/sam/drivers/pmc/sleep.c **** }
 276:../asf/sam/drivers/pmc/sleep.c **** 
 277:../asf/sam/drivers/pmc/sleep.c **** /** If clocks are switched for some sleep mode */
 278:../asf/sam/drivers/pmc/sleep.c **** static volatile bool b_is_sleep_clock_used = false;
 279:../asf/sam/drivers/pmc/sleep.c **** /** Callback invoked once when clocks are restored */
 280:../asf/sam/drivers/pmc/sleep.c **** static pmc_callback_wakeup_clocks_restored_t callback_clocks_restored = NULL;
 281:../asf/sam/drivers/pmc/sleep.c **** 
 282:../asf/sam/drivers/pmc/sleep.c **** void pmc_sleep(int sleep_mode)
 283:../asf/sam/drivers/pmc/sleep.c **** {
  28              		.loc 1 283 0
  29              		.cfi_startproc
  30              		@ args = 0, pretend = 0, frame = 0
  31              		@ frame_needed = 0, uses_anonymous_args = 0
  32              	.LVL0:
  33 0000 2DE9F84F 		push	{r3, r4, r5, r6, r7, r8, r9, r10, fp, lr}
  34              		.cfi_def_cfa_offset 40
  35              		.cfi_offset 3, -40
  36              		.cfi_offset 4, -36
  37              		.cfi_offset 5, -32
  38              		.cfi_offset 6, -28
  39              		.cfi_offset 7, -24
  40              		.cfi_offset 8, -20
  41              		.cfi_offset 9, -16
  42              		.cfi_offset 10, -12
  43              		.cfi_offset 11, -8
  44              		.cfi_offset 14, -4
 284:../asf/sam/drivers/pmc/sleep.c **** 	switch (sleep_mode) {
  45              		.loc 1 284 0
  46 0004 431E     		subs	r3, r0, #1
  47 0006 042B     		cmp	r3, #4
  48 0008 13D8     		bhi	.L1
  49 000a DFE803F0 		tbb	[pc, r3]
  50              	.L4:
  51 000e B5       		.byte	(.L3-.L4)/2
  52 000f B5       		.byte	(.L3-.L4)/2
  53 0010 14       		.byte	(.L5-.L4)/2
  54 0011 14       		.byte	(.L5-.L4)/2
  55 0012 03       		.byte	(.L6-.L4)/2
  56 0013 00       		.p2align 1
  57              	.L6:
 285:../asf/sam/drivers/pmc/sleep.c **** 	case SAM_PM_SMODE_SLEEP_WFI:
ARM GAS  /tmp/ccRqcMej.s 			page 7


 286:../asf/sam/drivers/pmc/sleep.c **** 	case SAM_PM_SMODE_SLEEP_WFE:
 287:../asf/sam/drivers/pmc/sleep.c **** #if (SAM4S || SAM4E || SAM4N || SAM4C || SAM4CM || SAM4CP || SAMG || SAMV71 || SAMV70 || SAMS70 || 
 288:../asf/sam/drivers/pmc/sleep.c **** 		SCB->SCR &= (uint32_t)~SCR_SLEEPDEEP;
 289:../asf/sam/drivers/pmc/sleep.c **** 		cpu_irq_enable();
 290:../asf/sam/drivers/pmc/sleep.c **** 		__DSB();
 291:../asf/sam/drivers/pmc/sleep.c **** 		__WFI();
 292:../asf/sam/drivers/pmc/sleep.c **** 		break;
 293:../asf/sam/drivers/pmc/sleep.c **** #else
 294:../asf/sam/drivers/pmc/sleep.c **** 		PMC->PMC_FSMR &= (uint32_t)~PMC_FSMR_LPM;
 295:../asf/sam/drivers/pmc/sleep.c **** 		SCB->SCR &= (uint32_t)~SCR_SLEEPDEEP;
 296:../asf/sam/drivers/pmc/sleep.c **** 		cpu_irq_enable();
 297:../asf/sam/drivers/pmc/sleep.c **** 		if (sleep_mode == SAM_PM_SMODE_SLEEP_WFI) {
 298:../asf/sam/drivers/pmc/sleep.c **** 			__DSB();
 299:../asf/sam/drivers/pmc/sleep.c **** 			__WFI();
 300:../asf/sam/drivers/pmc/sleep.c **** 		} else {
 301:../asf/sam/drivers/pmc/sleep.c **** 			__DSB();
 302:../asf/sam/drivers/pmc/sleep.c **** 			__WFE();
 303:../asf/sam/drivers/pmc/sleep.c **** 		}
 304:../asf/sam/drivers/pmc/sleep.c **** 		break;
 305:../asf/sam/drivers/pmc/sleep.c **** #endif
 306:../asf/sam/drivers/pmc/sleep.c **** 
 307:../asf/sam/drivers/pmc/sleep.c **** 	case SAM_PM_SMODE_WAIT_FAST:
 308:../asf/sam/drivers/pmc/sleep.c **** 	case SAM_PM_SMODE_WAIT: {
 309:../asf/sam/drivers/pmc/sleep.c **** 		uint32_t mor, pllr0, pllr1, mckr;
 310:../asf/sam/drivers/pmc/sleep.c **** 		uint32_t fmr;
 311:../asf/sam/drivers/pmc/sleep.c **** #if defined(EFC1)
 312:../asf/sam/drivers/pmc/sleep.c **** 		uint32_t fmr1;
 313:../asf/sam/drivers/pmc/sleep.c **** #endif
 314:../asf/sam/drivers/pmc/sleep.c **** #if (SAM4S || SAM4E || SAM4N || SAM4C || SAM4CM || SAM4CP || SAMG || SAMV71 || SAMV70 || SAMS70 || 
 315:../asf/sam/drivers/pmc/sleep.c **** 		(sleep_mode == SAM_PM_SMODE_WAIT_FAST) ?
 316:../asf/sam/drivers/pmc/sleep.c **** 				pmc_set_flash_in_wait_mode(PMC_FSMR_FLPM_FLASH_STANDBY) :
 317:../asf/sam/drivers/pmc/sleep.c **** 				pmc_set_flash_in_wait_mode(PMC_FSMR_FLPM_FLASH_DEEP_POWERDOWN);
 318:../asf/sam/drivers/pmc/sleep.c **** #endif
 319:../asf/sam/drivers/pmc/sleep.c **** 		cpu_irq_disable();
 320:../asf/sam/drivers/pmc/sleep.c **** 		b_is_sleep_clock_used = true;
 321:../asf/sam/drivers/pmc/sleep.c **** 
 322:../asf/sam/drivers/pmc/sleep.c **** #if (SAM4C || SAM4CM || SAM4CP)
 323:../asf/sam/drivers/pmc/sleep.c **** 		/* Backup the sub-system 1 status and stop sub-system 1 */
 324:../asf/sam/drivers/pmc/sleep.c **** 		uint32_t cpclk_backup = PMC->PMC_SCSR &
 325:../asf/sam/drivers/pmc/sleep.c **** 				(PMC_SCSR_CPCK | PMC_SCSR_CPBMCK);
 326:../asf/sam/drivers/pmc/sleep.c **** 		PMC->PMC_SCDR = cpclk_backup | PMC_SCDR_CPKEY_PASSWD;
 327:../asf/sam/drivers/pmc/sleep.c **** #endif
 328:../asf/sam/drivers/pmc/sleep.c **** 		pmc_save_clock_settings(&mor, &pllr0, &pllr1, &mckr, &fmr,
 329:../asf/sam/drivers/pmc/sleep.c **** #if defined(EFC1)
 330:../asf/sam/drivers/pmc/sleep.c **** 				&fmr1,
 331:../asf/sam/drivers/pmc/sleep.c **** #endif
 332:../asf/sam/drivers/pmc/sleep.c **** 				(sleep_mode == SAM_PM_SMODE_WAIT));
 333:../asf/sam/drivers/pmc/sleep.c **** 
 334:../asf/sam/drivers/pmc/sleep.c **** 		/* Enter wait mode */
 335:../asf/sam/drivers/pmc/sleep.c **** 		cpu_irq_enable();
 336:../asf/sam/drivers/pmc/sleep.c **** 
 337:../asf/sam/drivers/pmc/sleep.c **** 		pmc_enable_waitmode();
 338:../asf/sam/drivers/pmc/sleep.c **** 
 339:../asf/sam/drivers/pmc/sleep.c **** 		cpu_irq_disable();
 340:../asf/sam/drivers/pmc/sleep.c **** 		pmc_restore_clock_setting(mor, pllr0, pllr1, mckr, fmr
 341:../asf/sam/drivers/pmc/sleep.c **** #if defined(EFC1)
 342:../asf/sam/drivers/pmc/sleep.c **** 				, fmr1
ARM GAS  /tmp/ccRqcMej.s 			page 8


 343:../asf/sam/drivers/pmc/sleep.c **** #endif
 344:../asf/sam/drivers/pmc/sleep.c **** 				);
 345:../asf/sam/drivers/pmc/sleep.c **** 
 346:../asf/sam/drivers/pmc/sleep.c **** #if (SAM4C || SAM4CM || SAM4CP)
 347:../asf/sam/drivers/pmc/sleep.c **** 		/* Restore the sub-system 1 */
 348:../asf/sam/drivers/pmc/sleep.c **** 		PMC->PMC_SCER = cpclk_backup | PMC_SCER_CPKEY_PASSWD;
 349:../asf/sam/drivers/pmc/sleep.c **** #endif
 350:../asf/sam/drivers/pmc/sleep.c **** 		b_is_sleep_clock_used = false;
 351:../asf/sam/drivers/pmc/sleep.c **** 		if (callback_clocks_restored) {
 352:../asf/sam/drivers/pmc/sleep.c **** 			callback_clocks_restored();
 353:../asf/sam/drivers/pmc/sleep.c **** 			callback_clocks_restored = NULL;
 354:../asf/sam/drivers/pmc/sleep.c **** 		}
 355:../asf/sam/drivers/pmc/sleep.c **** 		cpu_irq_enable();
 356:../asf/sam/drivers/pmc/sleep.c **** 
 357:../asf/sam/drivers/pmc/sleep.c **** 		break;
 358:../asf/sam/drivers/pmc/sleep.c **** 	}
 359:../asf/sam/drivers/pmc/sleep.c **** #if (!(SAMG51 || SAMG53 || SAMG54))
 360:../asf/sam/drivers/pmc/sleep.c **** 	case SAM_PM_SMODE_BACKUP:
 361:../asf/sam/drivers/pmc/sleep.c **** 		SCB->SCR |= SCR_SLEEPDEEP;
  58              		.loc 1 361 0
  59 0014 774A     		ldr	r2, .L65
 362:../asf/sam/drivers/pmc/sleep.c **** #if (SAM4S || SAM4E || SAM4N || SAM4C || SAM4CM || SAM4CP || SAMG55 || SAMV71 || SAMV70 || SAMS70 |
 363:../asf/sam/drivers/pmc/sleep.c **** 		SUPC->SUPC_CR = SUPC_CR_KEY_PASSWD | SUPC_CR_VROFF_STOP_VREG;
 364:../asf/sam/drivers/pmc/sleep.c **** 		cpu_irq_enable();
  60              		.loc 1 364 0
  61 0016 0120     		movs	r0, #1
  62              	.LVL1:
 363:../asf/sam/drivers/pmc/sleep.c **** 		cpu_irq_enable();
  63              		.loc 1 363 0
  64 0018 774C     		ldr	r4, .L65+4
 361:../asf/sam/drivers/pmc/sleep.c **** #if (SAM4S || SAM4E || SAM4N || SAM4C || SAM4CM || SAM4CP || SAMG55 || SAMV71 || SAMV70 || SAMS70 |
  65              		.loc 1 361 0
  66 001a 1369     		ldr	r3, [r2, #16]
  67              	.LVL2:
 363:../asf/sam/drivers/pmc/sleep.c **** 		cpu_irq_enable();
  68              		.loc 1 363 0
  69 001c 774D     		ldr	r5, .L65+8
 361:../asf/sam/drivers/pmc/sleep.c **** #if (SAM4S || SAM4E || SAM4N || SAM4C || SAM4CM || SAM4CP || SAMG55 || SAMV71 || SAMV70 || SAMS70 |
  70              		.loc 1 361 0
  71 001e 43F00403 		orr	r3, r3, #4
  72              		.loc 1 364 0
  73 0022 7749     		ldr	r1, .L65+12
 361:../asf/sam/drivers/pmc/sleep.c **** #if (SAM4S || SAM4E || SAM4N || SAM4C || SAM4CM || SAM4CP || SAMG55 || SAMV71 || SAMV70 || SAMS70 |
  74              		.loc 1 361 0
  75 0024 1361     		str	r3, [r2, #16]
 363:../asf/sam/drivers/pmc/sleep.c **** 		cpu_irq_enable();
  76              		.loc 1 363 0
  77 0026 2560     		str	r5, [r4]
  78              		.loc 1 364 0
  79 0028 0870     		strb	r0, [r1]
  80              	.LBB41:
  81              	.LBB42:
  82              		.file 2 "/home/torbjorn/eclipse-workspace/CoreNG/asf/thirdparty/CMSIS/Include/core_cmInstr.h"
   1:/home/torbjorn/eclipse-workspace/CoreNG/asf/thirdparty/CMSIS/Include/core_cmInstr.h **** /**************************************************************************//**
   2:/home/torbjorn/eclipse-workspace/CoreNG/asf/thirdparty/CMSIS/Include/core_cmInstr.h ****  * @file     core_cmInstr.h
   3:/home/torbjorn/eclipse-workspace/CoreNG/asf/thirdparty/CMSIS/Include/core_cmInstr.h ****  * @brief    CMSIS Cortex-M Core Instruction Access Header File
   4:/home/torbjorn/eclipse-workspace/CoreNG/asf/thirdparty/CMSIS/Include/core_cmInstr.h ****  * @version  V4.00
ARM GAS  /tmp/ccRqcMej.s 			page 9


   5:/home/torbjorn/eclipse-workspace/CoreNG/asf/thirdparty/CMSIS/Include/core_cmInstr.h ****  * @date     28. August 2014
   6:/home/torbjorn/eclipse-workspace/CoreNG/asf/thirdparty/CMSIS/Include/core_cmInstr.h ****  *
   7:/home/torbjorn/eclipse-workspace/CoreNG/asf/thirdparty/CMSIS/Include/core_cmInstr.h ****  * @note
   8:/home/torbjorn/eclipse-workspace/CoreNG/asf/thirdparty/CMSIS/Include/core_cmInstr.h ****  *
   9:/home/torbjorn/eclipse-workspace/CoreNG/asf/thirdparty/CMSIS/Include/core_cmInstr.h ****  ******************************************************************************/
  10:/home/torbjorn/eclipse-workspace/CoreNG/asf/thirdparty/CMSIS/Include/core_cmInstr.h **** /* Copyright (c) 2009 - 2014 ARM LIMITED
  11:/home/torbjorn/eclipse-workspace/CoreNG/asf/thirdparty/CMSIS/Include/core_cmInstr.h **** 
  12:/home/torbjorn/eclipse-workspace/CoreNG/asf/thirdparty/CMSIS/Include/core_cmInstr.h ****    All rights reserved.
  13:/home/torbjorn/eclipse-workspace/CoreNG/asf/thirdparty/CMSIS/Include/core_cmInstr.h ****    Redistribution and use in source and binary forms, with or without
  14:/home/torbjorn/eclipse-workspace/CoreNG/asf/thirdparty/CMSIS/Include/core_cmInstr.h ****    modification, are permitted provided that the following conditions are met:
  15:/home/torbjorn/eclipse-workspace/CoreNG/asf/thirdparty/CMSIS/Include/core_cmInstr.h ****    - Redistributions of source code must retain the above copyright
  16:/home/torbjorn/eclipse-workspace/CoreNG/asf/thirdparty/CMSIS/Include/core_cmInstr.h ****      notice, this list of conditions and the following disclaimer.
  17:/home/torbjorn/eclipse-workspace/CoreNG/asf/thirdparty/CMSIS/Include/core_cmInstr.h ****    - Redistributions in binary form must reproduce the above copyright
  18:/home/torbjorn/eclipse-workspace/CoreNG/asf/thirdparty/CMSIS/Include/core_cmInstr.h ****      notice, this list of conditions and the following disclaimer in the
  19:/home/torbjorn/eclipse-workspace/CoreNG/asf/thirdparty/CMSIS/Include/core_cmInstr.h ****      documentation and/or other materials provided with the distribution.
  20:/home/torbjorn/eclipse-workspace/CoreNG/asf/thirdparty/CMSIS/Include/core_cmInstr.h ****    - Neither the name of ARM nor the names of its contributors may be used
  21:/home/torbjorn/eclipse-workspace/CoreNG/asf/thirdparty/CMSIS/Include/core_cmInstr.h ****      to endorse or promote products derived from this software without
  22:/home/torbjorn/eclipse-workspace/CoreNG/asf/thirdparty/CMSIS/Include/core_cmInstr.h ****      specific prior written permission.
  23:/home/torbjorn/eclipse-workspace/CoreNG/asf/thirdparty/CMSIS/Include/core_cmInstr.h ****    *
  24:/home/torbjorn/eclipse-workspace/CoreNG/asf/thirdparty/CMSIS/Include/core_cmInstr.h ****    THIS SOFTWARE IS PROVIDED BY THE COPYRIGHT HOLDERS AND CONTRIBUTORS "AS IS"
  25:/home/torbjorn/eclipse-workspace/CoreNG/asf/thirdparty/CMSIS/Include/core_cmInstr.h ****    AND ANY EXPRESS OR IMPLIED WARRANTIES, INCLUDING, BUT NOT LIMITED TO, THE
  26:/home/torbjorn/eclipse-workspace/CoreNG/asf/thirdparty/CMSIS/Include/core_cmInstr.h ****    IMPLIED WARRANTIES OF MERCHANTABILITY AND FITNESS FOR A PARTICULAR PURPOSE
  27:/home/torbjorn/eclipse-workspace/CoreNG/asf/thirdparty/CMSIS/Include/core_cmInstr.h ****    ARE DISCLAIMED. IN NO EVENT SHALL COPYRIGHT HOLDERS AND CONTRIBUTORS BE
  28:/home/torbjorn/eclipse-workspace/CoreNG/asf/thirdparty/CMSIS/Include/core_cmInstr.h ****    LIABLE FOR ANY DIRECT, INDIRECT, INCIDENTAL, SPECIAL, EXEMPLARY, OR
  29:/home/torbjorn/eclipse-workspace/CoreNG/asf/thirdparty/CMSIS/Include/core_cmInstr.h ****    CONSEQUENTIAL DAMAGES (INCLUDING, BUT NOT LIMITED TO, PROCUREMENT OF
  30:/home/torbjorn/eclipse-workspace/CoreNG/asf/thirdparty/CMSIS/Include/core_cmInstr.h ****    SUBSTITUTE GOODS OR SERVICES; LOSS OF USE, DATA, OR PROFITS; OR BUSINESS
  31:/home/torbjorn/eclipse-workspace/CoreNG/asf/thirdparty/CMSIS/Include/core_cmInstr.h ****    INTERRUPTION) HOWEVER CAUSED AND ON ANY THEORY OF LIABILITY, WHETHER IN
  32:/home/torbjorn/eclipse-workspace/CoreNG/asf/thirdparty/CMSIS/Include/core_cmInstr.h ****    CONTRACT, STRICT LIABILITY, OR TORT (INCLUDING NEGLIGENCE OR OTHERWISE)
  33:/home/torbjorn/eclipse-workspace/CoreNG/asf/thirdparty/CMSIS/Include/core_cmInstr.h ****    ARISING IN ANY WAY OUT OF THE USE OF THIS SOFTWARE, EVEN IF ADVISED OF THE
  34:/home/torbjorn/eclipse-workspace/CoreNG/asf/thirdparty/CMSIS/Include/core_cmInstr.h ****    POSSIBILITY OF SUCH DAMAGE.
  35:/home/torbjorn/eclipse-workspace/CoreNG/asf/thirdparty/CMSIS/Include/core_cmInstr.h ****    ---------------------------------------------------------------------------*/
  36:/home/torbjorn/eclipse-workspace/CoreNG/asf/thirdparty/CMSIS/Include/core_cmInstr.h **** 
  37:/home/torbjorn/eclipse-workspace/CoreNG/asf/thirdparty/CMSIS/Include/core_cmInstr.h **** 
  38:/home/torbjorn/eclipse-workspace/CoreNG/asf/thirdparty/CMSIS/Include/core_cmInstr.h **** #ifndef __CORE_CMINSTR_H
  39:/home/torbjorn/eclipse-workspace/CoreNG/asf/thirdparty/CMSIS/Include/core_cmInstr.h **** #define __CORE_CMINSTR_H
  40:/home/torbjorn/eclipse-workspace/CoreNG/asf/thirdparty/CMSIS/Include/core_cmInstr.h **** 
  41:/home/torbjorn/eclipse-workspace/CoreNG/asf/thirdparty/CMSIS/Include/core_cmInstr.h **** 
  42:/home/torbjorn/eclipse-workspace/CoreNG/asf/thirdparty/CMSIS/Include/core_cmInstr.h **** /* ##########################  Core Instruction Access  ######################### */
  43:/home/torbjorn/eclipse-workspace/CoreNG/asf/thirdparty/CMSIS/Include/core_cmInstr.h **** /** \defgroup CMSIS_Core_InstructionInterface CMSIS Core Instruction Interface
  44:/home/torbjorn/eclipse-workspace/CoreNG/asf/thirdparty/CMSIS/Include/core_cmInstr.h ****   Access to dedicated instructions
  45:/home/torbjorn/eclipse-workspace/CoreNG/asf/thirdparty/CMSIS/Include/core_cmInstr.h ****   @{
  46:/home/torbjorn/eclipse-workspace/CoreNG/asf/thirdparty/CMSIS/Include/core_cmInstr.h **** */
  47:/home/torbjorn/eclipse-workspace/CoreNG/asf/thirdparty/CMSIS/Include/core_cmInstr.h **** 
  48:/home/torbjorn/eclipse-workspace/CoreNG/asf/thirdparty/CMSIS/Include/core_cmInstr.h **** #if   defined ( __CC_ARM ) /*------------------RealView Compiler -----------------*/
  49:/home/torbjorn/eclipse-workspace/CoreNG/asf/thirdparty/CMSIS/Include/core_cmInstr.h **** /* ARM armcc specific functions */
  50:/home/torbjorn/eclipse-workspace/CoreNG/asf/thirdparty/CMSIS/Include/core_cmInstr.h **** 
  51:/home/torbjorn/eclipse-workspace/CoreNG/asf/thirdparty/CMSIS/Include/core_cmInstr.h **** #if (__ARMCC_VERSION < 400677)
  52:/home/torbjorn/eclipse-workspace/CoreNG/asf/thirdparty/CMSIS/Include/core_cmInstr.h ****   #error "Please use ARM Compiler Toolchain V4.0.677 or later!"
  53:/home/torbjorn/eclipse-workspace/CoreNG/asf/thirdparty/CMSIS/Include/core_cmInstr.h **** #endif
  54:/home/torbjorn/eclipse-workspace/CoreNG/asf/thirdparty/CMSIS/Include/core_cmInstr.h **** 
  55:/home/torbjorn/eclipse-workspace/CoreNG/asf/thirdparty/CMSIS/Include/core_cmInstr.h **** 
  56:/home/torbjorn/eclipse-workspace/CoreNG/asf/thirdparty/CMSIS/Include/core_cmInstr.h **** /** \brief  No Operation
  57:/home/torbjorn/eclipse-workspace/CoreNG/asf/thirdparty/CMSIS/Include/core_cmInstr.h **** 
  58:/home/torbjorn/eclipse-workspace/CoreNG/asf/thirdparty/CMSIS/Include/core_cmInstr.h ****     No Operation does nothing. This instruction can be used for code alignment purposes.
  59:/home/torbjorn/eclipse-workspace/CoreNG/asf/thirdparty/CMSIS/Include/core_cmInstr.h ****  */
  60:/home/torbjorn/eclipse-workspace/CoreNG/asf/thirdparty/CMSIS/Include/core_cmInstr.h **** #define __NOP                             __nop
  61:/home/torbjorn/eclipse-workspace/CoreNG/asf/thirdparty/CMSIS/Include/core_cmInstr.h **** 
ARM GAS  /tmp/ccRqcMej.s 			page 10


  62:/home/torbjorn/eclipse-workspace/CoreNG/asf/thirdparty/CMSIS/Include/core_cmInstr.h **** 
  63:/home/torbjorn/eclipse-workspace/CoreNG/asf/thirdparty/CMSIS/Include/core_cmInstr.h **** /** \brief  Wait For Interrupt
  64:/home/torbjorn/eclipse-workspace/CoreNG/asf/thirdparty/CMSIS/Include/core_cmInstr.h **** 
  65:/home/torbjorn/eclipse-workspace/CoreNG/asf/thirdparty/CMSIS/Include/core_cmInstr.h ****     Wait For Interrupt is a hint instruction that suspends execution
  66:/home/torbjorn/eclipse-workspace/CoreNG/asf/thirdparty/CMSIS/Include/core_cmInstr.h ****     until one of a number of events occurs.
  67:/home/torbjorn/eclipse-workspace/CoreNG/asf/thirdparty/CMSIS/Include/core_cmInstr.h ****  */
  68:/home/torbjorn/eclipse-workspace/CoreNG/asf/thirdparty/CMSIS/Include/core_cmInstr.h **** #define __WFI                             __wfi
  69:/home/torbjorn/eclipse-workspace/CoreNG/asf/thirdparty/CMSIS/Include/core_cmInstr.h **** 
  70:/home/torbjorn/eclipse-workspace/CoreNG/asf/thirdparty/CMSIS/Include/core_cmInstr.h **** 
  71:/home/torbjorn/eclipse-workspace/CoreNG/asf/thirdparty/CMSIS/Include/core_cmInstr.h **** /** \brief  Wait For Event
  72:/home/torbjorn/eclipse-workspace/CoreNG/asf/thirdparty/CMSIS/Include/core_cmInstr.h **** 
  73:/home/torbjorn/eclipse-workspace/CoreNG/asf/thirdparty/CMSIS/Include/core_cmInstr.h ****     Wait For Event is a hint instruction that permits the processor to enter
  74:/home/torbjorn/eclipse-workspace/CoreNG/asf/thirdparty/CMSIS/Include/core_cmInstr.h ****     a low-power state until one of a number of events occurs.
  75:/home/torbjorn/eclipse-workspace/CoreNG/asf/thirdparty/CMSIS/Include/core_cmInstr.h ****  */
  76:/home/torbjorn/eclipse-workspace/CoreNG/asf/thirdparty/CMSIS/Include/core_cmInstr.h **** #define __WFE                             __wfe
  77:/home/torbjorn/eclipse-workspace/CoreNG/asf/thirdparty/CMSIS/Include/core_cmInstr.h **** 
  78:/home/torbjorn/eclipse-workspace/CoreNG/asf/thirdparty/CMSIS/Include/core_cmInstr.h **** 
  79:/home/torbjorn/eclipse-workspace/CoreNG/asf/thirdparty/CMSIS/Include/core_cmInstr.h **** /** \brief  Send Event
  80:/home/torbjorn/eclipse-workspace/CoreNG/asf/thirdparty/CMSIS/Include/core_cmInstr.h **** 
  81:/home/torbjorn/eclipse-workspace/CoreNG/asf/thirdparty/CMSIS/Include/core_cmInstr.h ****     Send Event is a hint instruction. It causes an event to be signaled to the CPU.
  82:/home/torbjorn/eclipse-workspace/CoreNG/asf/thirdparty/CMSIS/Include/core_cmInstr.h ****  */
  83:/home/torbjorn/eclipse-workspace/CoreNG/asf/thirdparty/CMSIS/Include/core_cmInstr.h **** #define __SEV                             __sev
  84:/home/torbjorn/eclipse-workspace/CoreNG/asf/thirdparty/CMSIS/Include/core_cmInstr.h **** 
  85:/home/torbjorn/eclipse-workspace/CoreNG/asf/thirdparty/CMSIS/Include/core_cmInstr.h **** 
  86:/home/torbjorn/eclipse-workspace/CoreNG/asf/thirdparty/CMSIS/Include/core_cmInstr.h **** /** \brief  Instruction Synchronization Barrier
  87:/home/torbjorn/eclipse-workspace/CoreNG/asf/thirdparty/CMSIS/Include/core_cmInstr.h **** 
  88:/home/torbjorn/eclipse-workspace/CoreNG/asf/thirdparty/CMSIS/Include/core_cmInstr.h ****     Instruction Synchronization Barrier flushes the pipeline in the processor,
  89:/home/torbjorn/eclipse-workspace/CoreNG/asf/thirdparty/CMSIS/Include/core_cmInstr.h ****     so that all instructions following the ISB are fetched from cache or
  90:/home/torbjorn/eclipse-workspace/CoreNG/asf/thirdparty/CMSIS/Include/core_cmInstr.h ****     memory, after the instruction has been completed.
  91:/home/torbjorn/eclipse-workspace/CoreNG/asf/thirdparty/CMSIS/Include/core_cmInstr.h ****  */
  92:/home/torbjorn/eclipse-workspace/CoreNG/asf/thirdparty/CMSIS/Include/core_cmInstr.h **** #define __ISB()                           __isb(0xF)
  93:/home/torbjorn/eclipse-workspace/CoreNG/asf/thirdparty/CMSIS/Include/core_cmInstr.h **** 
  94:/home/torbjorn/eclipse-workspace/CoreNG/asf/thirdparty/CMSIS/Include/core_cmInstr.h **** 
  95:/home/torbjorn/eclipse-workspace/CoreNG/asf/thirdparty/CMSIS/Include/core_cmInstr.h **** /** \brief  Data Synchronization Barrier
  96:/home/torbjorn/eclipse-workspace/CoreNG/asf/thirdparty/CMSIS/Include/core_cmInstr.h **** 
  97:/home/torbjorn/eclipse-workspace/CoreNG/asf/thirdparty/CMSIS/Include/core_cmInstr.h ****     This function acts as a special kind of Data Memory Barrier.
  98:/home/torbjorn/eclipse-workspace/CoreNG/asf/thirdparty/CMSIS/Include/core_cmInstr.h ****     It completes when all explicit memory accesses before this instruction complete.
  99:/home/torbjorn/eclipse-workspace/CoreNG/asf/thirdparty/CMSIS/Include/core_cmInstr.h ****  */
 100:/home/torbjorn/eclipse-workspace/CoreNG/asf/thirdparty/CMSIS/Include/core_cmInstr.h **** #define __DSB()                           __dsb(0xF)
 101:/home/torbjorn/eclipse-workspace/CoreNG/asf/thirdparty/CMSIS/Include/core_cmInstr.h **** 
 102:/home/torbjorn/eclipse-workspace/CoreNG/asf/thirdparty/CMSIS/Include/core_cmInstr.h **** 
 103:/home/torbjorn/eclipse-workspace/CoreNG/asf/thirdparty/CMSIS/Include/core_cmInstr.h **** /** \brief  Data Memory Barrier
 104:/home/torbjorn/eclipse-workspace/CoreNG/asf/thirdparty/CMSIS/Include/core_cmInstr.h **** 
 105:/home/torbjorn/eclipse-workspace/CoreNG/asf/thirdparty/CMSIS/Include/core_cmInstr.h ****     This function ensures the apparent order of the explicit memory operations before
 106:/home/torbjorn/eclipse-workspace/CoreNG/asf/thirdparty/CMSIS/Include/core_cmInstr.h ****     and after the instruction, without ensuring their completion.
 107:/home/torbjorn/eclipse-workspace/CoreNG/asf/thirdparty/CMSIS/Include/core_cmInstr.h ****  */
 108:/home/torbjorn/eclipse-workspace/CoreNG/asf/thirdparty/CMSIS/Include/core_cmInstr.h **** #define __DMB()                           __dmb(0xF)
 109:/home/torbjorn/eclipse-workspace/CoreNG/asf/thirdparty/CMSIS/Include/core_cmInstr.h **** 
 110:/home/torbjorn/eclipse-workspace/CoreNG/asf/thirdparty/CMSIS/Include/core_cmInstr.h **** 
 111:/home/torbjorn/eclipse-workspace/CoreNG/asf/thirdparty/CMSIS/Include/core_cmInstr.h **** /** \brief  Reverse byte order (32 bit)
 112:/home/torbjorn/eclipse-workspace/CoreNG/asf/thirdparty/CMSIS/Include/core_cmInstr.h **** 
 113:/home/torbjorn/eclipse-workspace/CoreNG/asf/thirdparty/CMSIS/Include/core_cmInstr.h ****     This function reverses the byte order in integer value.
 114:/home/torbjorn/eclipse-workspace/CoreNG/asf/thirdparty/CMSIS/Include/core_cmInstr.h **** 
 115:/home/torbjorn/eclipse-workspace/CoreNG/asf/thirdparty/CMSIS/Include/core_cmInstr.h ****     \param [in]    value  Value to reverse
 116:/home/torbjorn/eclipse-workspace/CoreNG/asf/thirdparty/CMSIS/Include/core_cmInstr.h ****     \return               Reversed value
 117:/home/torbjorn/eclipse-workspace/CoreNG/asf/thirdparty/CMSIS/Include/core_cmInstr.h ****  */
 118:/home/torbjorn/eclipse-workspace/CoreNG/asf/thirdparty/CMSIS/Include/core_cmInstr.h **** #define __REV                             __rev
ARM GAS  /tmp/ccRqcMej.s 			page 11


 119:/home/torbjorn/eclipse-workspace/CoreNG/asf/thirdparty/CMSIS/Include/core_cmInstr.h **** 
 120:/home/torbjorn/eclipse-workspace/CoreNG/asf/thirdparty/CMSIS/Include/core_cmInstr.h **** 
 121:/home/torbjorn/eclipse-workspace/CoreNG/asf/thirdparty/CMSIS/Include/core_cmInstr.h **** /** \brief  Reverse byte order (16 bit)
 122:/home/torbjorn/eclipse-workspace/CoreNG/asf/thirdparty/CMSIS/Include/core_cmInstr.h **** 
 123:/home/torbjorn/eclipse-workspace/CoreNG/asf/thirdparty/CMSIS/Include/core_cmInstr.h ****     This function reverses the byte order in two unsigned short values.
 124:/home/torbjorn/eclipse-workspace/CoreNG/asf/thirdparty/CMSIS/Include/core_cmInstr.h **** 
 125:/home/torbjorn/eclipse-workspace/CoreNG/asf/thirdparty/CMSIS/Include/core_cmInstr.h ****     \param [in]    value  Value to reverse
 126:/home/torbjorn/eclipse-workspace/CoreNG/asf/thirdparty/CMSIS/Include/core_cmInstr.h ****     \return               Reversed value
 127:/home/torbjorn/eclipse-workspace/CoreNG/asf/thirdparty/CMSIS/Include/core_cmInstr.h ****  */
 128:/home/torbjorn/eclipse-workspace/CoreNG/asf/thirdparty/CMSIS/Include/core_cmInstr.h **** #ifndef __NO_EMBEDDED_ASM
 129:/home/torbjorn/eclipse-workspace/CoreNG/asf/thirdparty/CMSIS/Include/core_cmInstr.h **** __attribute__((section(".rev16_text"))) __STATIC_INLINE __ASM uint32_t __REV16(uint32_t value)
 130:/home/torbjorn/eclipse-workspace/CoreNG/asf/thirdparty/CMSIS/Include/core_cmInstr.h **** {
 131:/home/torbjorn/eclipse-workspace/CoreNG/asf/thirdparty/CMSIS/Include/core_cmInstr.h ****   rev16 r0, r0
 132:/home/torbjorn/eclipse-workspace/CoreNG/asf/thirdparty/CMSIS/Include/core_cmInstr.h ****   bx lr
 133:/home/torbjorn/eclipse-workspace/CoreNG/asf/thirdparty/CMSIS/Include/core_cmInstr.h **** }
 134:/home/torbjorn/eclipse-workspace/CoreNG/asf/thirdparty/CMSIS/Include/core_cmInstr.h **** #endif
 135:/home/torbjorn/eclipse-workspace/CoreNG/asf/thirdparty/CMSIS/Include/core_cmInstr.h **** 
 136:/home/torbjorn/eclipse-workspace/CoreNG/asf/thirdparty/CMSIS/Include/core_cmInstr.h **** /** \brief  Reverse byte order in signed short value
 137:/home/torbjorn/eclipse-workspace/CoreNG/asf/thirdparty/CMSIS/Include/core_cmInstr.h **** 
 138:/home/torbjorn/eclipse-workspace/CoreNG/asf/thirdparty/CMSIS/Include/core_cmInstr.h ****     This function reverses the byte order in a signed short value with sign extension to integer.
 139:/home/torbjorn/eclipse-workspace/CoreNG/asf/thirdparty/CMSIS/Include/core_cmInstr.h **** 
 140:/home/torbjorn/eclipse-workspace/CoreNG/asf/thirdparty/CMSIS/Include/core_cmInstr.h ****     \param [in]    value  Value to reverse
 141:/home/torbjorn/eclipse-workspace/CoreNG/asf/thirdparty/CMSIS/Include/core_cmInstr.h ****     \return               Reversed value
 142:/home/torbjorn/eclipse-workspace/CoreNG/asf/thirdparty/CMSIS/Include/core_cmInstr.h ****  */
 143:/home/torbjorn/eclipse-workspace/CoreNG/asf/thirdparty/CMSIS/Include/core_cmInstr.h **** #ifndef __NO_EMBEDDED_ASM
 144:/home/torbjorn/eclipse-workspace/CoreNG/asf/thirdparty/CMSIS/Include/core_cmInstr.h **** __attribute__((section(".revsh_text"))) __STATIC_INLINE __ASM int32_t __REVSH(int32_t value)
 145:/home/torbjorn/eclipse-workspace/CoreNG/asf/thirdparty/CMSIS/Include/core_cmInstr.h **** {
 146:/home/torbjorn/eclipse-workspace/CoreNG/asf/thirdparty/CMSIS/Include/core_cmInstr.h ****   revsh r0, r0
 147:/home/torbjorn/eclipse-workspace/CoreNG/asf/thirdparty/CMSIS/Include/core_cmInstr.h ****   bx lr
 148:/home/torbjorn/eclipse-workspace/CoreNG/asf/thirdparty/CMSIS/Include/core_cmInstr.h **** }
 149:/home/torbjorn/eclipse-workspace/CoreNG/asf/thirdparty/CMSIS/Include/core_cmInstr.h **** #endif
 150:/home/torbjorn/eclipse-workspace/CoreNG/asf/thirdparty/CMSIS/Include/core_cmInstr.h **** 
 151:/home/torbjorn/eclipse-workspace/CoreNG/asf/thirdparty/CMSIS/Include/core_cmInstr.h **** 
 152:/home/torbjorn/eclipse-workspace/CoreNG/asf/thirdparty/CMSIS/Include/core_cmInstr.h **** /** \brief  Rotate Right in unsigned value (32 bit)
 153:/home/torbjorn/eclipse-workspace/CoreNG/asf/thirdparty/CMSIS/Include/core_cmInstr.h **** 
 154:/home/torbjorn/eclipse-workspace/CoreNG/asf/thirdparty/CMSIS/Include/core_cmInstr.h ****     This function Rotate Right (immediate) provides the value of the contents of a register rotated
 155:/home/torbjorn/eclipse-workspace/CoreNG/asf/thirdparty/CMSIS/Include/core_cmInstr.h **** 
 156:/home/torbjorn/eclipse-workspace/CoreNG/asf/thirdparty/CMSIS/Include/core_cmInstr.h ****     \param [in]    value  Value to rotate
 157:/home/torbjorn/eclipse-workspace/CoreNG/asf/thirdparty/CMSIS/Include/core_cmInstr.h ****     \param [in]    value  Number of Bits to rotate
 158:/home/torbjorn/eclipse-workspace/CoreNG/asf/thirdparty/CMSIS/Include/core_cmInstr.h ****     \return               Rotated value
 159:/home/torbjorn/eclipse-workspace/CoreNG/asf/thirdparty/CMSIS/Include/core_cmInstr.h ****  */
 160:/home/torbjorn/eclipse-workspace/CoreNG/asf/thirdparty/CMSIS/Include/core_cmInstr.h **** #define __ROR                             __ror
 161:/home/torbjorn/eclipse-workspace/CoreNG/asf/thirdparty/CMSIS/Include/core_cmInstr.h **** 
 162:/home/torbjorn/eclipse-workspace/CoreNG/asf/thirdparty/CMSIS/Include/core_cmInstr.h **** 
 163:/home/torbjorn/eclipse-workspace/CoreNG/asf/thirdparty/CMSIS/Include/core_cmInstr.h **** /** \brief  Breakpoint
 164:/home/torbjorn/eclipse-workspace/CoreNG/asf/thirdparty/CMSIS/Include/core_cmInstr.h **** 
 165:/home/torbjorn/eclipse-workspace/CoreNG/asf/thirdparty/CMSIS/Include/core_cmInstr.h ****     This function causes the processor to enter Debug state.
 166:/home/torbjorn/eclipse-workspace/CoreNG/asf/thirdparty/CMSIS/Include/core_cmInstr.h ****     Debug tools can use this to investigate system state when the instruction at a particular addre
 167:/home/torbjorn/eclipse-workspace/CoreNG/asf/thirdparty/CMSIS/Include/core_cmInstr.h **** 
 168:/home/torbjorn/eclipse-workspace/CoreNG/asf/thirdparty/CMSIS/Include/core_cmInstr.h ****     \param [in]    value  is ignored by the processor.
 169:/home/torbjorn/eclipse-workspace/CoreNG/asf/thirdparty/CMSIS/Include/core_cmInstr.h ****                    If required, a debugger can use it to store additional information about the bre
 170:/home/torbjorn/eclipse-workspace/CoreNG/asf/thirdparty/CMSIS/Include/core_cmInstr.h ****  */
 171:/home/torbjorn/eclipse-workspace/CoreNG/asf/thirdparty/CMSIS/Include/core_cmInstr.h **** #define __BKPT(value)                       __breakpoint(value)
 172:/home/torbjorn/eclipse-workspace/CoreNG/asf/thirdparty/CMSIS/Include/core_cmInstr.h **** 
 173:/home/torbjorn/eclipse-workspace/CoreNG/asf/thirdparty/CMSIS/Include/core_cmInstr.h **** 
 174:/home/torbjorn/eclipse-workspace/CoreNG/asf/thirdparty/CMSIS/Include/core_cmInstr.h **** #if       (__CORTEX_M >= 0x03) || (__CORTEX_SC >= 300)
 175:/home/torbjorn/eclipse-workspace/CoreNG/asf/thirdparty/CMSIS/Include/core_cmInstr.h **** 
ARM GAS  /tmp/ccRqcMej.s 			page 12


 176:/home/torbjorn/eclipse-workspace/CoreNG/asf/thirdparty/CMSIS/Include/core_cmInstr.h **** /** \brief  Reverse bit order of value
 177:/home/torbjorn/eclipse-workspace/CoreNG/asf/thirdparty/CMSIS/Include/core_cmInstr.h **** 
 178:/home/torbjorn/eclipse-workspace/CoreNG/asf/thirdparty/CMSIS/Include/core_cmInstr.h ****     This function reverses the bit order of the given value.
 179:/home/torbjorn/eclipse-workspace/CoreNG/asf/thirdparty/CMSIS/Include/core_cmInstr.h **** 
 180:/home/torbjorn/eclipse-workspace/CoreNG/asf/thirdparty/CMSIS/Include/core_cmInstr.h ****     \param [in]    value  Value to reverse
 181:/home/torbjorn/eclipse-workspace/CoreNG/asf/thirdparty/CMSIS/Include/core_cmInstr.h ****     \return               Reversed value
 182:/home/torbjorn/eclipse-workspace/CoreNG/asf/thirdparty/CMSIS/Include/core_cmInstr.h ****  */
 183:/home/torbjorn/eclipse-workspace/CoreNG/asf/thirdparty/CMSIS/Include/core_cmInstr.h **** #define __RBIT                            __rbit
 184:/home/torbjorn/eclipse-workspace/CoreNG/asf/thirdparty/CMSIS/Include/core_cmInstr.h **** 
 185:/home/torbjorn/eclipse-workspace/CoreNG/asf/thirdparty/CMSIS/Include/core_cmInstr.h **** 
 186:/home/torbjorn/eclipse-workspace/CoreNG/asf/thirdparty/CMSIS/Include/core_cmInstr.h **** /** \brief  LDR Exclusive (8 bit)
 187:/home/torbjorn/eclipse-workspace/CoreNG/asf/thirdparty/CMSIS/Include/core_cmInstr.h **** 
 188:/home/torbjorn/eclipse-workspace/CoreNG/asf/thirdparty/CMSIS/Include/core_cmInstr.h ****     This function executes a exclusive LDR instruction for 8 bit value.
 189:/home/torbjorn/eclipse-workspace/CoreNG/asf/thirdparty/CMSIS/Include/core_cmInstr.h **** 
 190:/home/torbjorn/eclipse-workspace/CoreNG/asf/thirdparty/CMSIS/Include/core_cmInstr.h ****     \param [in]    ptr  Pointer to data
 191:/home/torbjorn/eclipse-workspace/CoreNG/asf/thirdparty/CMSIS/Include/core_cmInstr.h ****     \return             value of type uint8_t at (*ptr)
 192:/home/torbjorn/eclipse-workspace/CoreNG/asf/thirdparty/CMSIS/Include/core_cmInstr.h ****  */
 193:/home/torbjorn/eclipse-workspace/CoreNG/asf/thirdparty/CMSIS/Include/core_cmInstr.h **** #define __LDREXB(ptr)                     ((uint8_t ) __ldrex(ptr))
 194:/home/torbjorn/eclipse-workspace/CoreNG/asf/thirdparty/CMSIS/Include/core_cmInstr.h **** 
 195:/home/torbjorn/eclipse-workspace/CoreNG/asf/thirdparty/CMSIS/Include/core_cmInstr.h **** 
 196:/home/torbjorn/eclipse-workspace/CoreNG/asf/thirdparty/CMSIS/Include/core_cmInstr.h **** /** \brief  LDR Exclusive (16 bit)
 197:/home/torbjorn/eclipse-workspace/CoreNG/asf/thirdparty/CMSIS/Include/core_cmInstr.h **** 
 198:/home/torbjorn/eclipse-workspace/CoreNG/asf/thirdparty/CMSIS/Include/core_cmInstr.h ****     This function executes a exclusive LDR instruction for 16 bit values.
 199:/home/torbjorn/eclipse-workspace/CoreNG/asf/thirdparty/CMSIS/Include/core_cmInstr.h **** 
 200:/home/torbjorn/eclipse-workspace/CoreNG/asf/thirdparty/CMSIS/Include/core_cmInstr.h ****     \param [in]    ptr  Pointer to data
 201:/home/torbjorn/eclipse-workspace/CoreNG/asf/thirdparty/CMSIS/Include/core_cmInstr.h ****     \return        value of type uint16_t at (*ptr)
 202:/home/torbjorn/eclipse-workspace/CoreNG/asf/thirdparty/CMSIS/Include/core_cmInstr.h ****  */
 203:/home/torbjorn/eclipse-workspace/CoreNG/asf/thirdparty/CMSIS/Include/core_cmInstr.h **** #define __LDREXH(ptr)                     ((uint16_t) __ldrex(ptr))
 204:/home/torbjorn/eclipse-workspace/CoreNG/asf/thirdparty/CMSIS/Include/core_cmInstr.h **** 
 205:/home/torbjorn/eclipse-workspace/CoreNG/asf/thirdparty/CMSIS/Include/core_cmInstr.h **** 
 206:/home/torbjorn/eclipse-workspace/CoreNG/asf/thirdparty/CMSIS/Include/core_cmInstr.h **** /** \brief  LDR Exclusive (32 bit)
 207:/home/torbjorn/eclipse-workspace/CoreNG/asf/thirdparty/CMSIS/Include/core_cmInstr.h **** 
 208:/home/torbjorn/eclipse-workspace/CoreNG/asf/thirdparty/CMSIS/Include/core_cmInstr.h ****     This function executes a exclusive LDR instruction for 32 bit values.
 209:/home/torbjorn/eclipse-workspace/CoreNG/asf/thirdparty/CMSIS/Include/core_cmInstr.h **** 
 210:/home/torbjorn/eclipse-workspace/CoreNG/asf/thirdparty/CMSIS/Include/core_cmInstr.h ****     \param [in]    ptr  Pointer to data
 211:/home/torbjorn/eclipse-workspace/CoreNG/asf/thirdparty/CMSIS/Include/core_cmInstr.h ****     \return        value of type uint32_t at (*ptr)
 212:/home/torbjorn/eclipse-workspace/CoreNG/asf/thirdparty/CMSIS/Include/core_cmInstr.h ****  */
 213:/home/torbjorn/eclipse-workspace/CoreNG/asf/thirdparty/CMSIS/Include/core_cmInstr.h **** #define __LDREXW(ptr)                     ((uint32_t ) __ldrex(ptr))
 214:/home/torbjorn/eclipse-workspace/CoreNG/asf/thirdparty/CMSIS/Include/core_cmInstr.h **** 
 215:/home/torbjorn/eclipse-workspace/CoreNG/asf/thirdparty/CMSIS/Include/core_cmInstr.h **** 
 216:/home/torbjorn/eclipse-workspace/CoreNG/asf/thirdparty/CMSIS/Include/core_cmInstr.h **** /** \brief  STR Exclusive (8 bit)
 217:/home/torbjorn/eclipse-workspace/CoreNG/asf/thirdparty/CMSIS/Include/core_cmInstr.h **** 
 218:/home/torbjorn/eclipse-workspace/CoreNG/asf/thirdparty/CMSIS/Include/core_cmInstr.h ****     This function executes a exclusive STR instruction for 8 bit values.
 219:/home/torbjorn/eclipse-workspace/CoreNG/asf/thirdparty/CMSIS/Include/core_cmInstr.h **** 
 220:/home/torbjorn/eclipse-workspace/CoreNG/asf/thirdparty/CMSIS/Include/core_cmInstr.h ****     \param [in]  value  Value to store
 221:/home/torbjorn/eclipse-workspace/CoreNG/asf/thirdparty/CMSIS/Include/core_cmInstr.h ****     \param [in]    ptr  Pointer to location
 222:/home/torbjorn/eclipse-workspace/CoreNG/asf/thirdparty/CMSIS/Include/core_cmInstr.h ****     \return          0  Function succeeded
 223:/home/torbjorn/eclipse-workspace/CoreNG/asf/thirdparty/CMSIS/Include/core_cmInstr.h ****     \return          1  Function failed
 224:/home/torbjorn/eclipse-workspace/CoreNG/asf/thirdparty/CMSIS/Include/core_cmInstr.h ****  */
 225:/home/torbjorn/eclipse-workspace/CoreNG/asf/thirdparty/CMSIS/Include/core_cmInstr.h **** #define __STREXB(value, ptr)              __strex(value, ptr)
 226:/home/torbjorn/eclipse-workspace/CoreNG/asf/thirdparty/CMSIS/Include/core_cmInstr.h **** 
 227:/home/torbjorn/eclipse-workspace/CoreNG/asf/thirdparty/CMSIS/Include/core_cmInstr.h **** 
 228:/home/torbjorn/eclipse-workspace/CoreNG/asf/thirdparty/CMSIS/Include/core_cmInstr.h **** /** \brief  STR Exclusive (16 bit)
 229:/home/torbjorn/eclipse-workspace/CoreNG/asf/thirdparty/CMSIS/Include/core_cmInstr.h **** 
 230:/home/torbjorn/eclipse-workspace/CoreNG/asf/thirdparty/CMSIS/Include/core_cmInstr.h ****     This function executes a exclusive STR instruction for 16 bit values.
 231:/home/torbjorn/eclipse-workspace/CoreNG/asf/thirdparty/CMSIS/Include/core_cmInstr.h **** 
 232:/home/torbjorn/eclipse-workspace/CoreNG/asf/thirdparty/CMSIS/Include/core_cmInstr.h ****     \param [in]  value  Value to store
ARM GAS  /tmp/ccRqcMej.s 			page 13


 233:/home/torbjorn/eclipse-workspace/CoreNG/asf/thirdparty/CMSIS/Include/core_cmInstr.h ****     \param [in]    ptr  Pointer to location
 234:/home/torbjorn/eclipse-workspace/CoreNG/asf/thirdparty/CMSIS/Include/core_cmInstr.h ****     \return          0  Function succeeded
 235:/home/torbjorn/eclipse-workspace/CoreNG/asf/thirdparty/CMSIS/Include/core_cmInstr.h ****     \return          1  Function failed
 236:/home/torbjorn/eclipse-workspace/CoreNG/asf/thirdparty/CMSIS/Include/core_cmInstr.h ****  */
 237:/home/torbjorn/eclipse-workspace/CoreNG/asf/thirdparty/CMSIS/Include/core_cmInstr.h **** #define __STREXH(value, ptr)              __strex(value, ptr)
 238:/home/torbjorn/eclipse-workspace/CoreNG/asf/thirdparty/CMSIS/Include/core_cmInstr.h **** 
 239:/home/torbjorn/eclipse-workspace/CoreNG/asf/thirdparty/CMSIS/Include/core_cmInstr.h **** 
 240:/home/torbjorn/eclipse-workspace/CoreNG/asf/thirdparty/CMSIS/Include/core_cmInstr.h **** /** \brief  STR Exclusive (32 bit)
 241:/home/torbjorn/eclipse-workspace/CoreNG/asf/thirdparty/CMSIS/Include/core_cmInstr.h **** 
 242:/home/torbjorn/eclipse-workspace/CoreNG/asf/thirdparty/CMSIS/Include/core_cmInstr.h ****     This function executes a exclusive STR instruction for 32 bit values.
 243:/home/torbjorn/eclipse-workspace/CoreNG/asf/thirdparty/CMSIS/Include/core_cmInstr.h **** 
 244:/home/torbjorn/eclipse-workspace/CoreNG/asf/thirdparty/CMSIS/Include/core_cmInstr.h ****     \param [in]  value  Value to store
 245:/home/torbjorn/eclipse-workspace/CoreNG/asf/thirdparty/CMSIS/Include/core_cmInstr.h ****     \param [in]    ptr  Pointer to location
 246:/home/torbjorn/eclipse-workspace/CoreNG/asf/thirdparty/CMSIS/Include/core_cmInstr.h ****     \return          0  Function succeeded
 247:/home/torbjorn/eclipse-workspace/CoreNG/asf/thirdparty/CMSIS/Include/core_cmInstr.h ****     \return          1  Function failed
 248:/home/torbjorn/eclipse-workspace/CoreNG/asf/thirdparty/CMSIS/Include/core_cmInstr.h ****  */
 249:/home/torbjorn/eclipse-workspace/CoreNG/asf/thirdparty/CMSIS/Include/core_cmInstr.h **** #define __STREXW(value, ptr)              __strex(value, ptr)
 250:/home/torbjorn/eclipse-workspace/CoreNG/asf/thirdparty/CMSIS/Include/core_cmInstr.h **** 
 251:/home/torbjorn/eclipse-workspace/CoreNG/asf/thirdparty/CMSIS/Include/core_cmInstr.h **** 
 252:/home/torbjorn/eclipse-workspace/CoreNG/asf/thirdparty/CMSIS/Include/core_cmInstr.h **** /** \brief  Remove the exclusive lock
 253:/home/torbjorn/eclipse-workspace/CoreNG/asf/thirdparty/CMSIS/Include/core_cmInstr.h **** 
 254:/home/torbjorn/eclipse-workspace/CoreNG/asf/thirdparty/CMSIS/Include/core_cmInstr.h ****     This function removes the exclusive lock which is created by LDREX.
 255:/home/torbjorn/eclipse-workspace/CoreNG/asf/thirdparty/CMSIS/Include/core_cmInstr.h **** 
 256:/home/torbjorn/eclipse-workspace/CoreNG/asf/thirdparty/CMSIS/Include/core_cmInstr.h ****  */
 257:/home/torbjorn/eclipse-workspace/CoreNG/asf/thirdparty/CMSIS/Include/core_cmInstr.h **** #define __CLREX                           __clrex
 258:/home/torbjorn/eclipse-workspace/CoreNG/asf/thirdparty/CMSIS/Include/core_cmInstr.h **** 
 259:/home/torbjorn/eclipse-workspace/CoreNG/asf/thirdparty/CMSIS/Include/core_cmInstr.h **** 
 260:/home/torbjorn/eclipse-workspace/CoreNG/asf/thirdparty/CMSIS/Include/core_cmInstr.h **** /** \brief  Signed Saturate
 261:/home/torbjorn/eclipse-workspace/CoreNG/asf/thirdparty/CMSIS/Include/core_cmInstr.h **** 
 262:/home/torbjorn/eclipse-workspace/CoreNG/asf/thirdparty/CMSIS/Include/core_cmInstr.h ****     This function saturates a signed value.
 263:/home/torbjorn/eclipse-workspace/CoreNG/asf/thirdparty/CMSIS/Include/core_cmInstr.h **** 
 264:/home/torbjorn/eclipse-workspace/CoreNG/asf/thirdparty/CMSIS/Include/core_cmInstr.h ****     \param [in]  value  Value to be saturated
 265:/home/torbjorn/eclipse-workspace/CoreNG/asf/thirdparty/CMSIS/Include/core_cmInstr.h ****     \param [in]    sat  Bit position to saturate to (1..32)
 266:/home/torbjorn/eclipse-workspace/CoreNG/asf/thirdparty/CMSIS/Include/core_cmInstr.h ****     \return             Saturated value
 267:/home/torbjorn/eclipse-workspace/CoreNG/asf/thirdparty/CMSIS/Include/core_cmInstr.h ****  */
 268:/home/torbjorn/eclipse-workspace/CoreNG/asf/thirdparty/CMSIS/Include/core_cmInstr.h **** #define __SSAT                            __ssat
 269:/home/torbjorn/eclipse-workspace/CoreNG/asf/thirdparty/CMSIS/Include/core_cmInstr.h **** 
 270:/home/torbjorn/eclipse-workspace/CoreNG/asf/thirdparty/CMSIS/Include/core_cmInstr.h **** 
 271:/home/torbjorn/eclipse-workspace/CoreNG/asf/thirdparty/CMSIS/Include/core_cmInstr.h **** /** \brief  Unsigned Saturate
 272:/home/torbjorn/eclipse-workspace/CoreNG/asf/thirdparty/CMSIS/Include/core_cmInstr.h **** 
 273:/home/torbjorn/eclipse-workspace/CoreNG/asf/thirdparty/CMSIS/Include/core_cmInstr.h ****     This function saturates an unsigned value.
 274:/home/torbjorn/eclipse-workspace/CoreNG/asf/thirdparty/CMSIS/Include/core_cmInstr.h **** 
 275:/home/torbjorn/eclipse-workspace/CoreNG/asf/thirdparty/CMSIS/Include/core_cmInstr.h ****     \param [in]  value  Value to be saturated
 276:/home/torbjorn/eclipse-workspace/CoreNG/asf/thirdparty/CMSIS/Include/core_cmInstr.h ****     \param [in]    sat  Bit position to saturate to (0..31)
 277:/home/torbjorn/eclipse-workspace/CoreNG/asf/thirdparty/CMSIS/Include/core_cmInstr.h ****     \return             Saturated value
 278:/home/torbjorn/eclipse-workspace/CoreNG/asf/thirdparty/CMSIS/Include/core_cmInstr.h ****  */
 279:/home/torbjorn/eclipse-workspace/CoreNG/asf/thirdparty/CMSIS/Include/core_cmInstr.h **** #define __USAT                            __usat
 280:/home/torbjorn/eclipse-workspace/CoreNG/asf/thirdparty/CMSIS/Include/core_cmInstr.h **** 
 281:/home/torbjorn/eclipse-workspace/CoreNG/asf/thirdparty/CMSIS/Include/core_cmInstr.h **** 
 282:/home/torbjorn/eclipse-workspace/CoreNG/asf/thirdparty/CMSIS/Include/core_cmInstr.h **** /** \brief  Count leading zeros
 283:/home/torbjorn/eclipse-workspace/CoreNG/asf/thirdparty/CMSIS/Include/core_cmInstr.h **** 
 284:/home/torbjorn/eclipse-workspace/CoreNG/asf/thirdparty/CMSIS/Include/core_cmInstr.h ****     This function counts the number of leading zeros of a data value.
 285:/home/torbjorn/eclipse-workspace/CoreNG/asf/thirdparty/CMSIS/Include/core_cmInstr.h **** 
 286:/home/torbjorn/eclipse-workspace/CoreNG/asf/thirdparty/CMSIS/Include/core_cmInstr.h ****     \param [in]  value  Value to count the leading zeros
 287:/home/torbjorn/eclipse-workspace/CoreNG/asf/thirdparty/CMSIS/Include/core_cmInstr.h ****     \return             number of leading zeros in value
 288:/home/torbjorn/eclipse-workspace/CoreNG/asf/thirdparty/CMSIS/Include/core_cmInstr.h ****  */
 289:/home/torbjorn/eclipse-workspace/CoreNG/asf/thirdparty/CMSIS/Include/core_cmInstr.h **** #define __CLZ                             __clz
ARM GAS  /tmp/ccRqcMej.s 			page 14


 290:/home/torbjorn/eclipse-workspace/CoreNG/asf/thirdparty/CMSIS/Include/core_cmInstr.h **** 
 291:/home/torbjorn/eclipse-workspace/CoreNG/asf/thirdparty/CMSIS/Include/core_cmInstr.h **** 
 292:/home/torbjorn/eclipse-workspace/CoreNG/asf/thirdparty/CMSIS/Include/core_cmInstr.h **** /** \brief  Rotate Right with Extend (32 bit)
 293:/home/torbjorn/eclipse-workspace/CoreNG/asf/thirdparty/CMSIS/Include/core_cmInstr.h **** 
 294:/home/torbjorn/eclipse-workspace/CoreNG/asf/thirdparty/CMSIS/Include/core_cmInstr.h ****     This function moves each bit of a bitstring right by one bit. The carry input is shifted in at 
 295:/home/torbjorn/eclipse-workspace/CoreNG/asf/thirdparty/CMSIS/Include/core_cmInstr.h **** 
 296:/home/torbjorn/eclipse-workspace/CoreNG/asf/thirdparty/CMSIS/Include/core_cmInstr.h ****     \param [in]    value  Value to rotate
 297:/home/torbjorn/eclipse-workspace/CoreNG/asf/thirdparty/CMSIS/Include/core_cmInstr.h ****     \return               Rotated value
 298:/home/torbjorn/eclipse-workspace/CoreNG/asf/thirdparty/CMSIS/Include/core_cmInstr.h ****  */
 299:/home/torbjorn/eclipse-workspace/CoreNG/asf/thirdparty/CMSIS/Include/core_cmInstr.h **** #ifndef __NO_EMBEDDED_ASM
 300:/home/torbjorn/eclipse-workspace/CoreNG/asf/thirdparty/CMSIS/Include/core_cmInstr.h **** __attribute__((section(".rrx_text"))) __STATIC_INLINE __ASM uint32_t __RRX(uint32_t value)
 301:/home/torbjorn/eclipse-workspace/CoreNG/asf/thirdparty/CMSIS/Include/core_cmInstr.h **** {
 302:/home/torbjorn/eclipse-workspace/CoreNG/asf/thirdparty/CMSIS/Include/core_cmInstr.h ****   rrx r0, r0
 303:/home/torbjorn/eclipse-workspace/CoreNG/asf/thirdparty/CMSIS/Include/core_cmInstr.h ****   bx lr
 304:/home/torbjorn/eclipse-workspace/CoreNG/asf/thirdparty/CMSIS/Include/core_cmInstr.h **** }
 305:/home/torbjorn/eclipse-workspace/CoreNG/asf/thirdparty/CMSIS/Include/core_cmInstr.h **** #endif
 306:/home/torbjorn/eclipse-workspace/CoreNG/asf/thirdparty/CMSIS/Include/core_cmInstr.h **** 
 307:/home/torbjorn/eclipse-workspace/CoreNG/asf/thirdparty/CMSIS/Include/core_cmInstr.h **** 
 308:/home/torbjorn/eclipse-workspace/CoreNG/asf/thirdparty/CMSIS/Include/core_cmInstr.h **** /** \brief  LDRT Unprivileged (8 bit)
 309:/home/torbjorn/eclipse-workspace/CoreNG/asf/thirdparty/CMSIS/Include/core_cmInstr.h **** 
 310:/home/torbjorn/eclipse-workspace/CoreNG/asf/thirdparty/CMSIS/Include/core_cmInstr.h ****     This function executes a Unprivileged LDRT instruction for 8 bit value.
 311:/home/torbjorn/eclipse-workspace/CoreNG/asf/thirdparty/CMSIS/Include/core_cmInstr.h **** 
 312:/home/torbjorn/eclipse-workspace/CoreNG/asf/thirdparty/CMSIS/Include/core_cmInstr.h ****     \param [in]    ptr  Pointer to data
 313:/home/torbjorn/eclipse-workspace/CoreNG/asf/thirdparty/CMSIS/Include/core_cmInstr.h ****     \return             value of type uint8_t at (*ptr)
 314:/home/torbjorn/eclipse-workspace/CoreNG/asf/thirdparty/CMSIS/Include/core_cmInstr.h ****  */
 315:/home/torbjorn/eclipse-workspace/CoreNG/asf/thirdparty/CMSIS/Include/core_cmInstr.h **** #define __LDRBT(ptr)                      ((uint8_t )  __ldrt(ptr))
 316:/home/torbjorn/eclipse-workspace/CoreNG/asf/thirdparty/CMSIS/Include/core_cmInstr.h **** 
 317:/home/torbjorn/eclipse-workspace/CoreNG/asf/thirdparty/CMSIS/Include/core_cmInstr.h **** 
 318:/home/torbjorn/eclipse-workspace/CoreNG/asf/thirdparty/CMSIS/Include/core_cmInstr.h **** /** \brief  LDRT Unprivileged (16 bit)
 319:/home/torbjorn/eclipse-workspace/CoreNG/asf/thirdparty/CMSIS/Include/core_cmInstr.h **** 
 320:/home/torbjorn/eclipse-workspace/CoreNG/asf/thirdparty/CMSIS/Include/core_cmInstr.h ****     This function executes a Unprivileged LDRT instruction for 16 bit values.
 321:/home/torbjorn/eclipse-workspace/CoreNG/asf/thirdparty/CMSIS/Include/core_cmInstr.h **** 
 322:/home/torbjorn/eclipse-workspace/CoreNG/asf/thirdparty/CMSIS/Include/core_cmInstr.h ****     \param [in]    ptr  Pointer to data
 323:/home/torbjorn/eclipse-workspace/CoreNG/asf/thirdparty/CMSIS/Include/core_cmInstr.h ****     \return        value of type uint16_t at (*ptr)
 324:/home/torbjorn/eclipse-workspace/CoreNG/asf/thirdparty/CMSIS/Include/core_cmInstr.h ****  */
 325:/home/torbjorn/eclipse-workspace/CoreNG/asf/thirdparty/CMSIS/Include/core_cmInstr.h **** #define __LDRHT(ptr)                      ((uint16_t)  __ldrt(ptr))
 326:/home/torbjorn/eclipse-workspace/CoreNG/asf/thirdparty/CMSIS/Include/core_cmInstr.h **** 
 327:/home/torbjorn/eclipse-workspace/CoreNG/asf/thirdparty/CMSIS/Include/core_cmInstr.h **** 
 328:/home/torbjorn/eclipse-workspace/CoreNG/asf/thirdparty/CMSIS/Include/core_cmInstr.h **** /** \brief  LDRT Unprivileged (32 bit)
 329:/home/torbjorn/eclipse-workspace/CoreNG/asf/thirdparty/CMSIS/Include/core_cmInstr.h **** 
 330:/home/torbjorn/eclipse-workspace/CoreNG/asf/thirdparty/CMSIS/Include/core_cmInstr.h ****     This function executes a Unprivileged LDRT instruction for 32 bit values.
 331:/home/torbjorn/eclipse-workspace/CoreNG/asf/thirdparty/CMSIS/Include/core_cmInstr.h **** 
 332:/home/torbjorn/eclipse-workspace/CoreNG/asf/thirdparty/CMSIS/Include/core_cmInstr.h ****     \param [in]    ptr  Pointer to data
 333:/home/torbjorn/eclipse-workspace/CoreNG/asf/thirdparty/CMSIS/Include/core_cmInstr.h ****     \return        value of type uint32_t at (*ptr)
 334:/home/torbjorn/eclipse-workspace/CoreNG/asf/thirdparty/CMSIS/Include/core_cmInstr.h ****  */
 335:/home/torbjorn/eclipse-workspace/CoreNG/asf/thirdparty/CMSIS/Include/core_cmInstr.h **** #define __LDRT(ptr)                       ((uint32_t ) __ldrt(ptr))
 336:/home/torbjorn/eclipse-workspace/CoreNG/asf/thirdparty/CMSIS/Include/core_cmInstr.h **** 
 337:/home/torbjorn/eclipse-workspace/CoreNG/asf/thirdparty/CMSIS/Include/core_cmInstr.h **** 
 338:/home/torbjorn/eclipse-workspace/CoreNG/asf/thirdparty/CMSIS/Include/core_cmInstr.h **** /** \brief  STRT Unprivileged (8 bit)
 339:/home/torbjorn/eclipse-workspace/CoreNG/asf/thirdparty/CMSIS/Include/core_cmInstr.h **** 
 340:/home/torbjorn/eclipse-workspace/CoreNG/asf/thirdparty/CMSIS/Include/core_cmInstr.h ****     This function executes a Unprivileged STRT instruction for 8 bit values.
 341:/home/torbjorn/eclipse-workspace/CoreNG/asf/thirdparty/CMSIS/Include/core_cmInstr.h **** 
 342:/home/torbjorn/eclipse-workspace/CoreNG/asf/thirdparty/CMSIS/Include/core_cmInstr.h ****     \param [in]  value  Value to store
 343:/home/torbjorn/eclipse-workspace/CoreNG/asf/thirdparty/CMSIS/Include/core_cmInstr.h ****     \param [in]    ptr  Pointer to location
 344:/home/torbjorn/eclipse-workspace/CoreNG/asf/thirdparty/CMSIS/Include/core_cmInstr.h ****  */
 345:/home/torbjorn/eclipse-workspace/CoreNG/asf/thirdparty/CMSIS/Include/core_cmInstr.h **** #define __STRBT(value, ptr)               __strt(value, ptr)
 346:/home/torbjorn/eclipse-workspace/CoreNG/asf/thirdparty/CMSIS/Include/core_cmInstr.h **** 
ARM GAS  /tmp/ccRqcMej.s 			page 15


 347:/home/torbjorn/eclipse-workspace/CoreNG/asf/thirdparty/CMSIS/Include/core_cmInstr.h **** 
 348:/home/torbjorn/eclipse-workspace/CoreNG/asf/thirdparty/CMSIS/Include/core_cmInstr.h **** /** \brief  STRT Unprivileged (16 bit)
 349:/home/torbjorn/eclipse-workspace/CoreNG/asf/thirdparty/CMSIS/Include/core_cmInstr.h **** 
 350:/home/torbjorn/eclipse-workspace/CoreNG/asf/thirdparty/CMSIS/Include/core_cmInstr.h ****     This function executes a Unprivileged STRT instruction for 16 bit values.
 351:/home/torbjorn/eclipse-workspace/CoreNG/asf/thirdparty/CMSIS/Include/core_cmInstr.h **** 
 352:/home/torbjorn/eclipse-workspace/CoreNG/asf/thirdparty/CMSIS/Include/core_cmInstr.h ****     \param [in]  value  Value to store
 353:/home/torbjorn/eclipse-workspace/CoreNG/asf/thirdparty/CMSIS/Include/core_cmInstr.h ****     \param [in]    ptr  Pointer to location
 354:/home/torbjorn/eclipse-workspace/CoreNG/asf/thirdparty/CMSIS/Include/core_cmInstr.h ****  */
 355:/home/torbjorn/eclipse-workspace/CoreNG/asf/thirdparty/CMSIS/Include/core_cmInstr.h **** #define __STRHT(value, ptr)               __strt(value, ptr)
 356:/home/torbjorn/eclipse-workspace/CoreNG/asf/thirdparty/CMSIS/Include/core_cmInstr.h **** 
 357:/home/torbjorn/eclipse-workspace/CoreNG/asf/thirdparty/CMSIS/Include/core_cmInstr.h **** 
 358:/home/torbjorn/eclipse-workspace/CoreNG/asf/thirdparty/CMSIS/Include/core_cmInstr.h **** /** \brief  STRT Unprivileged (32 bit)
 359:/home/torbjorn/eclipse-workspace/CoreNG/asf/thirdparty/CMSIS/Include/core_cmInstr.h **** 
 360:/home/torbjorn/eclipse-workspace/CoreNG/asf/thirdparty/CMSIS/Include/core_cmInstr.h ****     This function executes a Unprivileged STRT instruction for 32 bit values.
 361:/home/torbjorn/eclipse-workspace/CoreNG/asf/thirdparty/CMSIS/Include/core_cmInstr.h **** 
 362:/home/torbjorn/eclipse-workspace/CoreNG/asf/thirdparty/CMSIS/Include/core_cmInstr.h ****     \param [in]  value  Value to store
 363:/home/torbjorn/eclipse-workspace/CoreNG/asf/thirdparty/CMSIS/Include/core_cmInstr.h ****     \param [in]    ptr  Pointer to location
 364:/home/torbjorn/eclipse-workspace/CoreNG/asf/thirdparty/CMSIS/Include/core_cmInstr.h ****  */
 365:/home/torbjorn/eclipse-workspace/CoreNG/asf/thirdparty/CMSIS/Include/core_cmInstr.h **** #define __STRT(value, ptr)                __strt(value, ptr)
 366:/home/torbjorn/eclipse-workspace/CoreNG/asf/thirdparty/CMSIS/Include/core_cmInstr.h **** 
 367:/home/torbjorn/eclipse-workspace/CoreNG/asf/thirdparty/CMSIS/Include/core_cmInstr.h **** #endif /* (__CORTEX_M >= 0x03) || (__CORTEX_SC >= 300) */
 368:/home/torbjorn/eclipse-workspace/CoreNG/asf/thirdparty/CMSIS/Include/core_cmInstr.h **** 
 369:/home/torbjorn/eclipse-workspace/CoreNG/asf/thirdparty/CMSIS/Include/core_cmInstr.h **** 
 370:/home/torbjorn/eclipse-workspace/CoreNG/asf/thirdparty/CMSIS/Include/core_cmInstr.h **** #elif defined ( __GNUC__ ) /*------------------ GNU Compiler ---------------------*/
 371:/home/torbjorn/eclipse-workspace/CoreNG/asf/thirdparty/CMSIS/Include/core_cmInstr.h **** /* GNU gcc specific functions */
 372:/home/torbjorn/eclipse-workspace/CoreNG/asf/thirdparty/CMSIS/Include/core_cmInstr.h **** 
 373:/home/torbjorn/eclipse-workspace/CoreNG/asf/thirdparty/CMSIS/Include/core_cmInstr.h **** /* Define macros for porting to both thumb1 and thumb2.
 374:/home/torbjorn/eclipse-workspace/CoreNG/asf/thirdparty/CMSIS/Include/core_cmInstr.h ****  * For thumb1, use low register (r0-r7), specified by constrant "l"
 375:/home/torbjorn/eclipse-workspace/CoreNG/asf/thirdparty/CMSIS/Include/core_cmInstr.h ****  * Otherwise, use general registers, specified by constrant "r" */
 376:/home/torbjorn/eclipse-workspace/CoreNG/asf/thirdparty/CMSIS/Include/core_cmInstr.h **** #if defined (__thumb__) && !defined (__thumb2__)
 377:/home/torbjorn/eclipse-workspace/CoreNG/asf/thirdparty/CMSIS/Include/core_cmInstr.h **** #define __CMSIS_GCC_OUT_REG(r) "=l" (r)
 378:/home/torbjorn/eclipse-workspace/CoreNG/asf/thirdparty/CMSIS/Include/core_cmInstr.h **** #define __CMSIS_GCC_USE_REG(r) "l" (r)
 379:/home/torbjorn/eclipse-workspace/CoreNG/asf/thirdparty/CMSIS/Include/core_cmInstr.h **** #else
 380:/home/torbjorn/eclipse-workspace/CoreNG/asf/thirdparty/CMSIS/Include/core_cmInstr.h **** #define __CMSIS_GCC_OUT_REG(r) "=r" (r)
 381:/home/torbjorn/eclipse-workspace/CoreNG/asf/thirdparty/CMSIS/Include/core_cmInstr.h **** #define __CMSIS_GCC_USE_REG(r) "r" (r)
 382:/home/torbjorn/eclipse-workspace/CoreNG/asf/thirdparty/CMSIS/Include/core_cmInstr.h **** #endif
 383:/home/torbjorn/eclipse-workspace/CoreNG/asf/thirdparty/CMSIS/Include/core_cmInstr.h **** 
 384:/home/torbjorn/eclipse-workspace/CoreNG/asf/thirdparty/CMSIS/Include/core_cmInstr.h **** /** \brief  No Operation
 385:/home/torbjorn/eclipse-workspace/CoreNG/asf/thirdparty/CMSIS/Include/core_cmInstr.h **** 
 386:/home/torbjorn/eclipse-workspace/CoreNG/asf/thirdparty/CMSIS/Include/core_cmInstr.h ****     No Operation does nothing. This instruction can be used for code alignment purposes.
 387:/home/torbjorn/eclipse-workspace/CoreNG/asf/thirdparty/CMSIS/Include/core_cmInstr.h ****  */
 388:/home/torbjorn/eclipse-workspace/CoreNG/asf/thirdparty/CMSIS/Include/core_cmInstr.h **** __attribute__( ( always_inline ) ) __STATIC_INLINE void __NOP(void)
 389:/home/torbjorn/eclipse-workspace/CoreNG/asf/thirdparty/CMSIS/Include/core_cmInstr.h **** {
 390:/home/torbjorn/eclipse-workspace/CoreNG/asf/thirdparty/CMSIS/Include/core_cmInstr.h ****   __ASM volatile ("nop");
 391:/home/torbjorn/eclipse-workspace/CoreNG/asf/thirdparty/CMSIS/Include/core_cmInstr.h **** }
 392:/home/torbjorn/eclipse-workspace/CoreNG/asf/thirdparty/CMSIS/Include/core_cmInstr.h **** 
 393:/home/torbjorn/eclipse-workspace/CoreNG/asf/thirdparty/CMSIS/Include/core_cmInstr.h **** 
 394:/home/torbjorn/eclipse-workspace/CoreNG/asf/thirdparty/CMSIS/Include/core_cmInstr.h **** /** \brief  Wait For Interrupt
 395:/home/torbjorn/eclipse-workspace/CoreNG/asf/thirdparty/CMSIS/Include/core_cmInstr.h **** 
 396:/home/torbjorn/eclipse-workspace/CoreNG/asf/thirdparty/CMSIS/Include/core_cmInstr.h ****     Wait For Interrupt is a hint instruction that suspends execution
 397:/home/torbjorn/eclipse-workspace/CoreNG/asf/thirdparty/CMSIS/Include/core_cmInstr.h ****     until one of a number of events occurs.
 398:/home/torbjorn/eclipse-workspace/CoreNG/asf/thirdparty/CMSIS/Include/core_cmInstr.h ****  */
 399:/home/torbjorn/eclipse-workspace/CoreNG/asf/thirdparty/CMSIS/Include/core_cmInstr.h **** __attribute__( ( always_inline ) ) __STATIC_INLINE void __WFI(void)
 400:/home/torbjorn/eclipse-workspace/CoreNG/asf/thirdparty/CMSIS/Include/core_cmInstr.h **** {
 401:/home/torbjorn/eclipse-workspace/CoreNG/asf/thirdparty/CMSIS/Include/core_cmInstr.h ****   __ASM volatile ("wfi");
 402:/home/torbjorn/eclipse-workspace/CoreNG/asf/thirdparty/CMSIS/Include/core_cmInstr.h **** }
 403:/home/torbjorn/eclipse-workspace/CoreNG/asf/thirdparty/CMSIS/Include/core_cmInstr.h **** 
ARM GAS  /tmp/ccRqcMej.s 			page 16


 404:/home/torbjorn/eclipse-workspace/CoreNG/asf/thirdparty/CMSIS/Include/core_cmInstr.h **** 
 405:/home/torbjorn/eclipse-workspace/CoreNG/asf/thirdparty/CMSIS/Include/core_cmInstr.h **** /** \brief  Wait For Event
 406:/home/torbjorn/eclipse-workspace/CoreNG/asf/thirdparty/CMSIS/Include/core_cmInstr.h **** 
 407:/home/torbjorn/eclipse-workspace/CoreNG/asf/thirdparty/CMSIS/Include/core_cmInstr.h ****     Wait For Event is a hint instruction that permits the processor to enter
 408:/home/torbjorn/eclipse-workspace/CoreNG/asf/thirdparty/CMSIS/Include/core_cmInstr.h ****     a low-power state until one of a number of events occurs.
 409:/home/torbjorn/eclipse-workspace/CoreNG/asf/thirdparty/CMSIS/Include/core_cmInstr.h ****  */
 410:/home/torbjorn/eclipse-workspace/CoreNG/asf/thirdparty/CMSIS/Include/core_cmInstr.h **** __attribute__( ( always_inline ) ) __STATIC_INLINE void __WFE(void)
 411:/home/torbjorn/eclipse-workspace/CoreNG/asf/thirdparty/CMSIS/Include/core_cmInstr.h **** {
 412:/home/torbjorn/eclipse-workspace/CoreNG/asf/thirdparty/CMSIS/Include/core_cmInstr.h ****   __ASM volatile ("wfe");
 413:/home/torbjorn/eclipse-workspace/CoreNG/asf/thirdparty/CMSIS/Include/core_cmInstr.h **** }
 414:/home/torbjorn/eclipse-workspace/CoreNG/asf/thirdparty/CMSIS/Include/core_cmInstr.h **** 
 415:/home/torbjorn/eclipse-workspace/CoreNG/asf/thirdparty/CMSIS/Include/core_cmInstr.h **** 
 416:/home/torbjorn/eclipse-workspace/CoreNG/asf/thirdparty/CMSIS/Include/core_cmInstr.h **** /** \brief  Send Event
 417:/home/torbjorn/eclipse-workspace/CoreNG/asf/thirdparty/CMSIS/Include/core_cmInstr.h **** 
 418:/home/torbjorn/eclipse-workspace/CoreNG/asf/thirdparty/CMSIS/Include/core_cmInstr.h ****     Send Event is a hint instruction. It causes an event to be signaled to the CPU.
 419:/home/torbjorn/eclipse-workspace/CoreNG/asf/thirdparty/CMSIS/Include/core_cmInstr.h ****  */
 420:/home/torbjorn/eclipse-workspace/CoreNG/asf/thirdparty/CMSIS/Include/core_cmInstr.h **** __attribute__( ( always_inline ) ) __STATIC_INLINE void __SEV(void)
 421:/home/torbjorn/eclipse-workspace/CoreNG/asf/thirdparty/CMSIS/Include/core_cmInstr.h **** {
 422:/home/torbjorn/eclipse-workspace/CoreNG/asf/thirdparty/CMSIS/Include/core_cmInstr.h ****   __ASM volatile ("sev");
 423:/home/torbjorn/eclipse-workspace/CoreNG/asf/thirdparty/CMSIS/Include/core_cmInstr.h **** }
 424:/home/torbjorn/eclipse-workspace/CoreNG/asf/thirdparty/CMSIS/Include/core_cmInstr.h **** 
 425:/home/torbjorn/eclipse-workspace/CoreNG/asf/thirdparty/CMSIS/Include/core_cmInstr.h **** 
 426:/home/torbjorn/eclipse-workspace/CoreNG/asf/thirdparty/CMSIS/Include/core_cmInstr.h **** /** \brief  Instruction Synchronization Barrier
 427:/home/torbjorn/eclipse-workspace/CoreNG/asf/thirdparty/CMSIS/Include/core_cmInstr.h **** 
 428:/home/torbjorn/eclipse-workspace/CoreNG/asf/thirdparty/CMSIS/Include/core_cmInstr.h ****     Instruction Synchronization Barrier flushes the pipeline in the processor,
 429:/home/torbjorn/eclipse-workspace/CoreNG/asf/thirdparty/CMSIS/Include/core_cmInstr.h ****     so that all instructions following the ISB are fetched from cache or
 430:/home/torbjorn/eclipse-workspace/CoreNG/asf/thirdparty/CMSIS/Include/core_cmInstr.h ****     memory, after the instruction has been completed.
 431:/home/torbjorn/eclipse-workspace/CoreNG/asf/thirdparty/CMSIS/Include/core_cmInstr.h ****  */
 432:/home/torbjorn/eclipse-workspace/CoreNG/asf/thirdparty/CMSIS/Include/core_cmInstr.h **** __attribute__( ( always_inline ) ) __STATIC_INLINE void __ISB(void)
 433:/home/torbjorn/eclipse-workspace/CoreNG/asf/thirdparty/CMSIS/Include/core_cmInstr.h **** {
 434:/home/torbjorn/eclipse-workspace/CoreNG/asf/thirdparty/CMSIS/Include/core_cmInstr.h ****   __ASM volatile ("isb");
 435:/home/torbjorn/eclipse-workspace/CoreNG/asf/thirdparty/CMSIS/Include/core_cmInstr.h **** }
 436:/home/torbjorn/eclipse-workspace/CoreNG/asf/thirdparty/CMSIS/Include/core_cmInstr.h **** 
 437:/home/torbjorn/eclipse-workspace/CoreNG/asf/thirdparty/CMSIS/Include/core_cmInstr.h **** 
 438:/home/torbjorn/eclipse-workspace/CoreNG/asf/thirdparty/CMSIS/Include/core_cmInstr.h **** /** \brief  Data Synchronization Barrier
 439:/home/torbjorn/eclipse-workspace/CoreNG/asf/thirdparty/CMSIS/Include/core_cmInstr.h **** 
 440:/home/torbjorn/eclipse-workspace/CoreNG/asf/thirdparty/CMSIS/Include/core_cmInstr.h ****     This function acts as a special kind of Data Memory Barrier.
 441:/home/torbjorn/eclipse-workspace/CoreNG/asf/thirdparty/CMSIS/Include/core_cmInstr.h ****     It completes when all explicit memory accesses before this instruction complete.
 442:/home/torbjorn/eclipse-workspace/CoreNG/asf/thirdparty/CMSIS/Include/core_cmInstr.h ****  */
 443:/home/torbjorn/eclipse-workspace/CoreNG/asf/thirdparty/CMSIS/Include/core_cmInstr.h **** __attribute__( ( always_inline ) ) __STATIC_INLINE void __DSB(void)
 444:/home/torbjorn/eclipse-workspace/CoreNG/asf/thirdparty/CMSIS/Include/core_cmInstr.h **** {
 445:/home/torbjorn/eclipse-workspace/CoreNG/asf/thirdparty/CMSIS/Include/core_cmInstr.h ****   __ASM volatile ("dsb");
 446:/home/torbjorn/eclipse-workspace/CoreNG/asf/thirdparty/CMSIS/Include/core_cmInstr.h **** }
 447:/home/torbjorn/eclipse-workspace/CoreNG/asf/thirdparty/CMSIS/Include/core_cmInstr.h **** 
 448:/home/torbjorn/eclipse-workspace/CoreNG/asf/thirdparty/CMSIS/Include/core_cmInstr.h **** 
 449:/home/torbjorn/eclipse-workspace/CoreNG/asf/thirdparty/CMSIS/Include/core_cmInstr.h **** /** \brief  Data Memory Barrier
 450:/home/torbjorn/eclipse-workspace/CoreNG/asf/thirdparty/CMSIS/Include/core_cmInstr.h **** 
 451:/home/torbjorn/eclipse-workspace/CoreNG/asf/thirdparty/CMSIS/Include/core_cmInstr.h ****     This function ensures the apparent order of the explicit memory operations before
 452:/home/torbjorn/eclipse-workspace/CoreNG/asf/thirdparty/CMSIS/Include/core_cmInstr.h ****     and after the instruction, without ensuring their completion.
 453:/home/torbjorn/eclipse-workspace/CoreNG/asf/thirdparty/CMSIS/Include/core_cmInstr.h ****  */
 454:/home/torbjorn/eclipse-workspace/CoreNG/asf/thirdparty/CMSIS/Include/core_cmInstr.h **** __attribute__( ( always_inline ) ) __STATIC_INLINE void __DMB(void)
 455:/home/torbjorn/eclipse-workspace/CoreNG/asf/thirdparty/CMSIS/Include/core_cmInstr.h **** {
 456:/home/torbjorn/eclipse-workspace/CoreNG/asf/thirdparty/CMSIS/Include/core_cmInstr.h ****   __ASM volatile ("dmb");
  83              		.loc 2 456 0
  84              		.syntax unified
  85              	@ 456 "/home/torbjorn/eclipse-workspace/CoreNG/asf/thirdparty/CMSIS/Include/core_cmInstr.h" 1
  86 002a BFF35F8F 		dmb
ARM GAS  /tmp/ccRqcMej.s 			page 17


  87              	@ 0 "" 2
  88              		.thumb
  89              		.syntax unified
  90              	.LBE42:
  91              	.LBE41:
  92              	.LBB43:
  93              	.LBB44:
  94              		.file 3 "/home/torbjorn/eclipse-workspace/CoreNG/asf/thirdparty/CMSIS/Include/core_cmFunc.h"
   1:/home/torbjorn/eclipse-workspace/CoreNG/asf/thirdparty/CMSIS/Include/core_cmFunc.h **** /**************************************************************************//**
   2:/home/torbjorn/eclipse-workspace/CoreNG/asf/thirdparty/CMSIS/Include/core_cmFunc.h ****  * @file     core_cmFunc.h
   3:/home/torbjorn/eclipse-workspace/CoreNG/asf/thirdparty/CMSIS/Include/core_cmFunc.h ****  * @brief    CMSIS Cortex-M Core Function Access Header File
   4:/home/torbjorn/eclipse-workspace/CoreNG/asf/thirdparty/CMSIS/Include/core_cmFunc.h ****  * @version  V4.00
   5:/home/torbjorn/eclipse-workspace/CoreNG/asf/thirdparty/CMSIS/Include/core_cmFunc.h ****  * @date     28. August 2014
   6:/home/torbjorn/eclipse-workspace/CoreNG/asf/thirdparty/CMSIS/Include/core_cmFunc.h ****  *
   7:/home/torbjorn/eclipse-workspace/CoreNG/asf/thirdparty/CMSIS/Include/core_cmFunc.h ****  * @note
   8:/home/torbjorn/eclipse-workspace/CoreNG/asf/thirdparty/CMSIS/Include/core_cmFunc.h ****  *
   9:/home/torbjorn/eclipse-workspace/CoreNG/asf/thirdparty/CMSIS/Include/core_cmFunc.h ****  ******************************************************************************/
  10:/home/torbjorn/eclipse-workspace/CoreNG/asf/thirdparty/CMSIS/Include/core_cmFunc.h **** /* Copyright (c) 2009 - 2014 ARM LIMITED
  11:/home/torbjorn/eclipse-workspace/CoreNG/asf/thirdparty/CMSIS/Include/core_cmFunc.h **** 
  12:/home/torbjorn/eclipse-workspace/CoreNG/asf/thirdparty/CMSIS/Include/core_cmFunc.h ****    All rights reserved.
  13:/home/torbjorn/eclipse-workspace/CoreNG/asf/thirdparty/CMSIS/Include/core_cmFunc.h ****    Redistribution and use in source and binary forms, with or without
  14:/home/torbjorn/eclipse-workspace/CoreNG/asf/thirdparty/CMSIS/Include/core_cmFunc.h ****    modification, are permitted provided that the following conditions are met:
  15:/home/torbjorn/eclipse-workspace/CoreNG/asf/thirdparty/CMSIS/Include/core_cmFunc.h ****    - Redistributions of source code must retain the above copyright
  16:/home/torbjorn/eclipse-workspace/CoreNG/asf/thirdparty/CMSIS/Include/core_cmFunc.h ****      notice, this list of conditions and the following disclaimer.
  17:/home/torbjorn/eclipse-workspace/CoreNG/asf/thirdparty/CMSIS/Include/core_cmFunc.h ****    - Redistributions in binary form must reproduce the above copyright
  18:/home/torbjorn/eclipse-workspace/CoreNG/asf/thirdparty/CMSIS/Include/core_cmFunc.h ****      notice, this list of conditions and the following disclaimer in the
  19:/home/torbjorn/eclipse-workspace/CoreNG/asf/thirdparty/CMSIS/Include/core_cmFunc.h ****      documentation and/or other materials provided with the distribution.
  20:/home/torbjorn/eclipse-workspace/CoreNG/asf/thirdparty/CMSIS/Include/core_cmFunc.h ****    - Neither the name of ARM nor the names of its contributors may be used
  21:/home/torbjorn/eclipse-workspace/CoreNG/asf/thirdparty/CMSIS/Include/core_cmFunc.h ****      to endorse or promote products derived from this software without
  22:/home/torbjorn/eclipse-workspace/CoreNG/asf/thirdparty/CMSIS/Include/core_cmFunc.h ****      specific prior written permission.
  23:/home/torbjorn/eclipse-workspace/CoreNG/asf/thirdparty/CMSIS/Include/core_cmFunc.h ****    *
  24:/home/torbjorn/eclipse-workspace/CoreNG/asf/thirdparty/CMSIS/Include/core_cmFunc.h ****    THIS SOFTWARE IS PROVIDED BY THE COPYRIGHT HOLDERS AND CONTRIBUTORS "AS IS"
  25:/home/torbjorn/eclipse-workspace/CoreNG/asf/thirdparty/CMSIS/Include/core_cmFunc.h ****    AND ANY EXPRESS OR IMPLIED WARRANTIES, INCLUDING, BUT NOT LIMITED TO, THE
  26:/home/torbjorn/eclipse-workspace/CoreNG/asf/thirdparty/CMSIS/Include/core_cmFunc.h ****    IMPLIED WARRANTIES OF MERCHANTABILITY AND FITNESS FOR A PARTICULAR PURPOSE
  27:/home/torbjorn/eclipse-workspace/CoreNG/asf/thirdparty/CMSIS/Include/core_cmFunc.h ****    ARE DISCLAIMED. IN NO EVENT SHALL COPYRIGHT HOLDERS AND CONTRIBUTORS BE
  28:/home/torbjorn/eclipse-workspace/CoreNG/asf/thirdparty/CMSIS/Include/core_cmFunc.h ****    LIABLE FOR ANY DIRECT, INDIRECT, INCIDENTAL, SPECIAL, EXEMPLARY, OR
  29:/home/torbjorn/eclipse-workspace/CoreNG/asf/thirdparty/CMSIS/Include/core_cmFunc.h ****    CONSEQUENTIAL DAMAGES (INCLUDING, BUT NOT LIMITED TO, PROCUREMENT OF
  30:/home/torbjorn/eclipse-workspace/CoreNG/asf/thirdparty/CMSIS/Include/core_cmFunc.h ****    SUBSTITUTE GOODS OR SERVICES; LOSS OF USE, DATA, OR PROFITS; OR BUSINESS
  31:/home/torbjorn/eclipse-workspace/CoreNG/asf/thirdparty/CMSIS/Include/core_cmFunc.h ****    INTERRUPTION) HOWEVER CAUSED AND ON ANY THEORY OF LIABILITY, WHETHER IN
  32:/home/torbjorn/eclipse-workspace/CoreNG/asf/thirdparty/CMSIS/Include/core_cmFunc.h ****    CONTRACT, STRICT LIABILITY, OR TORT (INCLUDING NEGLIGENCE OR OTHERWISE)
  33:/home/torbjorn/eclipse-workspace/CoreNG/asf/thirdparty/CMSIS/Include/core_cmFunc.h ****    ARISING IN ANY WAY OUT OF THE USE OF THIS SOFTWARE, EVEN IF ADVISED OF THE
  34:/home/torbjorn/eclipse-workspace/CoreNG/asf/thirdparty/CMSIS/Include/core_cmFunc.h ****    POSSIBILITY OF SUCH DAMAGE.
  35:/home/torbjorn/eclipse-workspace/CoreNG/asf/thirdparty/CMSIS/Include/core_cmFunc.h ****    ---------------------------------------------------------------------------*/
  36:/home/torbjorn/eclipse-workspace/CoreNG/asf/thirdparty/CMSIS/Include/core_cmFunc.h **** 
  37:/home/torbjorn/eclipse-workspace/CoreNG/asf/thirdparty/CMSIS/Include/core_cmFunc.h **** 
  38:/home/torbjorn/eclipse-workspace/CoreNG/asf/thirdparty/CMSIS/Include/core_cmFunc.h **** #ifndef __CORE_CMFUNC_H
  39:/home/torbjorn/eclipse-workspace/CoreNG/asf/thirdparty/CMSIS/Include/core_cmFunc.h **** #define __CORE_CMFUNC_H
  40:/home/torbjorn/eclipse-workspace/CoreNG/asf/thirdparty/CMSIS/Include/core_cmFunc.h **** 
  41:/home/torbjorn/eclipse-workspace/CoreNG/asf/thirdparty/CMSIS/Include/core_cmFunc.h **** 
  42:/home/torbjorn/eclipse-workspace/CoreNG/asf/thirdparty/CMSIS/Include/core_cmFunc.h **** /* ###########################  Core Function Access  ########################### */
  43:/home/torbjorn/eclipse-workspace/CoreNG/asf/thirdparty/CMSIS/Include/core_cmFunc.h **** /** \ingroup  CMSIS_Core_FunctionInterface
  44:/home/torbjorn/eclipse-workspace/CoreNG/asf/thirdparty/CMSIS/Include/core_cmFunc.h ****     \defgroup CMSIS_Core_RegAccFunctions CMSIS Core Register Access Functions
  45:/home/torbjorn/eclipse-workspace/CoreNG/asf/thirdparty/CMSIS/Include/core_cmFunc.h ****   @{
  46:/home/torbjorn/eclipse-workspace/CoreNG/asf/thirdparty/CMSIS/Include/core_cmFunc.h ****  */
  47:/home/torbjorn/eclipse-workspace/CoreNG/asf/thirdparty/CMSIS/Include/core_cmFunc.h **** 
  48:/home/torbjorn/eclipse-workspace/CoreNG/asf/thirdparty/CMSIS/Include/core_cmFunc.h **** #if   defined ( __CC_ARM ) /*------------------RealView Compiler -----------------*/
  49:/home/torbjorn/eclipse-workspace/CoreNG/asf/thirdparty/CMSIS/Include/core_cmFunc.h **** /* ARM armcc specific functions */
ARM GAS  /tmp/ccRqcMej.s 			page 18


  50:/home/torbjorn/eclipse-workspace/CoreNG/asf/thirdparty/CMSIS/Include/core_cmFunc.h **** 
  51:/home/torbjorn/eclipse-workspace/CoreNG/asf/thirdparty/CMSIS/Include/core_cmFunc.h **** #if (__ARMCC_VERSION < 400677)
  52:/home/torbjorn/eclipse-workspace/CoreNG/asf/thirdparty/CMSIS/Include/core_cmFunc.h ****   #error "Please use ARM Compiler Toolchain V4.0.677 or later!"
  53:/home/torbjorn/eclipse-workspace/CoreNG/asf/thirdparty/CMSIS/Include/core_cmFunc.h **** #endif
  54:/home/torbjorn/eclipse-workspace/CoreNG/asf/thirdparty/CMSIS/Include/core_cmFunc.h **** 
  55:/home/torbjorn/eclipse-workspace/CoreNG/asf/thirdparty/CMSIS/Include/core_cmFunc.h **** /* intrinsic void __enable_irq();     */
  56:/home/torbjorn/eclipse-workspace/CoreNG/asf/thirdparty/CMSIS/Include/core_cmFunc.h **** /* intrinsic void __disable_irq();    */
  57:/home/torbjorn/eclipse-workspace/CoreNG/asf/thirdparty/CMSIS/Include/core_cmFunc.h **** 
  58:/home/torbjorn/eclipse-workspace/CoreNG/asf/thirdparty/CMSIS/Include/core_cmFunc.h **** /** \brief  Get Control Register
  59:/home/torbjorn/eclipse-workspace/CoreNG/asf/thirdparty/CMSIS/Include/core_cmFunc.h **** 
  60:/home/torbjorn/eclipse-workspace/CoreNG/asf/thirdparty/CMSIS/Include/core_cmFunc.h ****     This function returns the content of the Control Register.
  61:/home/torbjorn/eclipse-workspace/CoreNG/asf/thirdparty/CMSIS/Include/core_cmFunc.h **** 
  62:/home/torbjorn/eclipse-workspace/CoreNG/asf/thirdparty/CMSIS/Include/core_cmFunc.h ****     \return               Control Register value
  63:/home/torbjorn/eclipse-workspace/CoreNG/asf/thirdparty/CMSIS/Include/core_cmFunc.h ****  */
  64:/home/torbjorn/eclipse-workspace/CoreNG/asf/thirdparty/CMSIS/Include/core_cmFunc.h **** __STATIC_INLINE uint32_t __get_CONTROL(void)
  65:/home/torbjorn/eclipse-workspace/CoreNG/asf/thirdparty/CMSIS/Include/core_cmFunc.h **** {
  66:/home/torbjorn/eclipse-workspace/CoreNG/asf/thirdparty/CMSIS/Include/core_cmFunc.h ****   register uint32_t __regControl         __ASM("control");
  67:/home/torbjorn/eclipse-workspace/CoreNG/asf/thirdparty/CMSIS/Include/core_cmFunc.h ****   return(__regControl);
  68:/home/torbjorn/eclipse-workspace/CoreNG/asf/thirdparty/CMSIS/Include/core_cmFunc.h **** }
  69:/home/torbjorn/eclipse-workspace/CoreNG/asf/thirdparty/CMSIS/Include/core_cmFunc.h **** 
  70:/home/torbjorn/eclipse-workspace/CoreNG/asf/thirdparty/CMSIS/Include/core_cmFunc.h **** 
  71:/home/torbjorn/eclipse-workspace/CoreNG/asf/thirdparty/CMSIS/Include/core_cmFunc.h **** /** \brief  Set Control Register
  72:/home/torbjorn/eclipse-workspace/CoreNG/asf/thirdparty/CMSIS/Include/core_cmFunc.h **** 
  73:/home/torbjorn/eclipse-workspace/CoreNG/asf/thirdparty/CMSIS/Include/core_cmFunc.h ****     This function writes the given value to the Control Register.
  74:/home/torbjorn/eclipse-workspace/CoreNG/asf/thirdparty/CMSIS/Include/core_cmFunc.h **** 
  75:/home/torbjorn/eclipse-workspace/CoreNG/asf/thirdparty/CMSIS/Include/core_cmFunc.h ****     \param [in]    control  Control Register value to set
  76:/home/torbjorn/eclipse-workspace/CoreNG/asf/thirdparty/CMSIS/Include/core_cmFunc.h ****  */
  77:/home/torbjorn/eclipse-workspace/CoreNG/asf/thirdparty/CMSIS/Include/core_cmFunc.h **** __STATIC_INLINE void __set_CONTROL(uint32_t control)
  78:/home/torbjorn/eclipse-workspace/CoreNG/asf/thirdparty/CMSIS/Include/core_cmFunc.h **** {
  79:/home/torbjorn/eclipse-workspace/CoreNG/asf/thirdparty/CMSIS/Include/core_cmFunc.h ****   register uint32_t __regControl         __ASM("control");
  80:/home/torbjorn/eclipse-workspace/CoreNG/asf/thirdparty/CMSIS/Include/core_cmFunc.h ****   __regControl = control;
  81:/home/torbjorn/eclipse-workspace/CoreNG/asf/thirdparty/CMSIS/Include/core_cmFunc.h **** }
  82:/home/torbjorn/eclipse-workspace/CoreNG/asf/thirdparty/CMSIS/Include/core_cmFunc.h **** 
  83:/home/torbjorn/eclipse-workspace/CoreNG/asf/thirdparty/CMSIS/Include/core_cmFunc.h **** 
  84:/home/torbjorn/eclipse-workspace/CoreNG/asf/thirdparty/CMSIS/Include/core_cmFunc.h **** /** \brief  Get IPSR Register
  85:/home/torbjorn/eclipse-workspace/CoreNG/asf/thirdparty/CMSIS/Include/core_cmFunc.h **** 
  86:/home/torbjorn/eclipse-workspace/CoreNG/asf/thirdparty/CMSIS/Include/core_cmFunc.h ****     This function returns the content of the IPSR Register.
  87:/home/torbjorn/eclipse-workspace/CoreNG/asf/thirdparty/CMSIS/Include/core_cmFunc.h **** 
  88:/home/torbjorn/eclipse-workspace/CoreNG/asf/thirdparty/CMSIS/Include/core_cmFunc.h ****     \return               IPSR Register value
  89:/home/torbjorn/eclipse-workspace/CoreNG/asf/thirdparty/CMSIS/Include/core_cmFunc.h ****  */
  90:/home/torbjorn/eclipse-workspace/CoreNG/asf/thirdparty/CMSIS/Include/core_cmFunc.h **** __STATIC_INLINE uint32_t __get_IPSR(void)
  91:/home/torbjorn/eclipse-workspace/CoreNG/asf/thirdparty/CMSIS/Include/core_cmFunc.h **** {
  92:/home/torbjorn/eclipse-workspace/CoreNG/asf/thirdparty/CMSIS/Include/core_cmFunc.h ****   register uint32_t __regIPSR          __ASM("ipsr");
  93:/home/torbjorn/eclipse-workspace/CoreNG/asf/thirdparty/CMSIS/Include/core_cmFunc.h ****   return(__regIPSR);
  94:/home/torbjorn/eclipse-workspace/CoreNG/asf/thirdparty/CMSIS/Include/core_cmFunc.h **** }
  95:/home/torbjorn/eclipse-workspace/CoreNG/asf/thirdparty/CMSIS/Include/core_cmFunc.h **** 
  96:/home/torbjorn/eclipse-workspace/CoreNG/asf/thirdparty/CMSIS/Include/core_cmFunc.h **** 
  97:/home/torbjorn/eclipse-workspace/CoreNG/asf/thirdparty/CMSIS/Include/core_cmFunc.h **** /** \brief  Get APSR Register
  98:/home/torbjorn/eclipse-workspace/CoreNG/asf/thirdparty/CMSIS/Include/core_cmFunc.h **** 
  99:/home/torbjorn/eclipse-workspace/CoreNG/asf/thirdparty/CMSIS/Include/core_cmFunc.h ****     This function returns the content of the APSR Register.
 100:/home/torbjorn/eclipse-workspace/CoreNG/asf/thirdparty/CMSIS/Include/core_cmFunc.h **** 
 101:/home/torbjorn/eclipse-workspace/CoreNG/asf/thirdparty/CMSIS/Include/core_cmFunc.h ****     \return               APSR Register value
 102:/home/torbjorn/eclipse-workspace/CoreNG/asf/thirdparty/CMSIS/Include/core_cmFunc.h ****  */
 103:/home/torbjorn/eclipse-workspace/CoreNG/asf/thirdparty/CMSIS/Include/core_cmFunc.h **** __STATIC_INLINE uint32_t __get_APSR(void)
 104:/home/torbjorn/eclipse-workspace/CoreNG/asf/thirdparty/CMSIS/Include/core_cmFunc.h **** {
 105:/home/torbjorn/eclipse-workspace/CoreNG/asf/thirdparty/CMSIS/Include/core_cmFunc.h ****   register uint32_t __regAPSR          __ASM("apsr");
 106:/home/torbjorn/eclipse-workspace/CoreNG/asf/thirdparty/CMSIS/Include/core_cmFunc.h ****   return(__regAPSR);
ARM GAS  /tmp/ccRqcMej.s 			page 19


 107:/home/torbjorn/eclipse-workspace/CoreNG/asf/thirdparty/CMSIS/Include/core_cmFunc.h **** }
 108:/home/torbjorn/eclipse-workspace/CoreNG/asf/thirdparty/CMSIS/Include/core_cmFunc.h **** 
 109:/home/torbjorn/eclipse-workspace/CoreNG/asf/thirdparty/CMSIS/Include/core_cmFunc.h **** 
 110:/home/torbjorn/eclipse-workspace/CoreNG/asf/thirdparty/CMSIS/Include/core_cmFunc.h **** /** \brief  Get xPSR Register
 111:/home/torbjorn/eclipse-workspace/CoreNG/asf/thirdparty/CMSIS/Include/core_cmFunc.h **** 
 112:/home/torbjorn/eclipse-workspace/CoreNG/asf/thirdparty/CMSIS/Include/core_cmFunc.h ****     This function returns the content of the xPSR Register.
 113:/home/torbjorn/eclipse-workspace/CoreNG/asf/thirdparty/CMSIS/Include/core_cmFunc.h **** 
 114:/home/torbjorn/eclipse-workspace/CoreNG/asf/thirdparty/CMSIS/Include/core_cmFunc.h ****     \return               xPSR Register value
 115:/home/torbjorn/eclipse-workspace/CoreNG/asf/thirdparty/CMSIS/Include/core_cmFunc.h ****  */
 116:/home/torbjorn/eclipse-workspace/CoreNG/asf/thirdparty/CMSIS/Include/core_cmFunc.h **** __STATIC_INLINE uint32_t __get_xPSR(void)
 117:/home/torbjorn/eclipse-workspace/CoreNG/asf/thirdparty/CMSIS/Include/core_cmFunc.h **** {
 118:/home/torbjorn/eclipse-workspace/CoreNG/asf/thirdparty/CMSIS/Include/core_cmFunc.h ****   register uint32_t __regXPSR          __ASM("xpsr");
 119:/home/torbjorn/eclipse-workspace/CoreNG/asf/thirdparty/CMSIS/Include/core_cmFunc.h ****   return(__regXPSR);
 120:/home/torbjorn/eclipse-workspace/CoreNG/asf/thirdparty/CMSIS/Include/core_cmFunc.h **** }
 121:/home/torbjorn/eclipse-workspace/CoreNG/asf/thirdparty/CMSIS/Include/core_cmFunc.h **** 
 122:/home/torbjorn/eclipse-workspace/CoreNG/asf/thirdparty/CMSIS/Include/core_cmFunc.h **** 
 123:/home/torbjorn/eclipse-workspace/CoreNG/asf/thirdparty/CMSIS/Include/core_cmFunc.h **** /** \brief  Get Process Stack Pointer
 124:/home/torbjorn/eclipse-workspace/CoreNG/asf/thirdparty/CMSIS/Include/core_cmFunc.h **** 
 125:/home/torbjorn/eclipse-workspace/CoreNG/asf/thirdparty/CMSIS/Include/core_cmFunc.h ****     This function returns the current value of the Process Stack Pointer (PSP).
 126:/home/torbjorn/eclipse-workspace/CoreNG/asf/thirdparty/CMSIS/Include/core_cmFunc.h **** 
 127:/home/torbjorn/eclipse-workspace/CoreNG/asf/thirdparty/CMSIS/Include/core_cmFunc.h ****     \return               PSP Register value
 128:/home/torbjorn/eclipse-workspace/CoreNG/asf/thirdparty/CMSIS/Include/core_cmFunc.h ****  */
 129:/home/torbjorn/eclipse-workspace/CoreNG/asf/thirdparty/CMSIS/Include/core_cmFunc.h **** __STATIC_INLINE uint32_t __get_PSP(void)
 130:/home/torbjorn/eclipse-workspace/CoreNG/asf/thirdparty/CMSIS/Include/core_cmFunc.h **** {
 131:/home/torbjorn/eclipse-workspace/CoreNG/asf/thirdparty/CMSIS/Include/core_cmFunc.h ****   register uint32_t __regProcessStackPointer  __ASM("psp");
 132:/home/torbjorn/eclipse-workspace/CoreNG/asf/thirdparty/CMSIS/Include/core_cmFunc.h ****   return(__regProcessStackPointer);
 133:/home/torbjorn/eclipse-workspace/CoreNG/asf/thirdparty/CMSIS/Include/core_cmFunc.h **** }
 134:/home/torbjorn/eclipse-workspace/CoreNG/asf/thirdparty/CMSIS/Include/core_cmFunc.h **** 
 135:/home/torbjorn/eclipse-workspace/CoreNG/asf/thirdparty/CMSIS/Include/core_cmFunc.h **** 
 136:/home/torbjorn/eclipse-workspace/CoreNG/asf/thirdparty/CMSIS/Include/core_cmFunc.h **** /** \brief  Set Process Stack Pointer
 137:/home/torbjorn/eclipse-workspace/CoreNG/asf/thirdparty/CMSIS/Include/core_cmFunc.h **** 
 138:/home/torbjorn/eclipse-workspace/CoreNG/asf/thirdparty/CMSIS/Include/core_cmFunc.h ****     This function assigns the given value to the Process Stack Pointer (PSP).
 139:/home/torbjorn/eclipse-workspace/CoreNG/asf/thirdparty/CMSIS/Include/core_cmFunc.h **** 
 140:/home/torbjorn/eclipse-workspace/CoreNG/asf/thirdparty/CMSIS/Include/core_cmFunc.h ****     \param [in]    topOfProcStack  Process Stack Pointer value to set
 141:/home/torbjorn/eclipse-workspace/CoreNG/asf/thirdparty/CMSIS/Include/core_cmFunc.h ****  */
 142:/home/torbjorn/eclipse-workspace/CoreNG/asf/thirdparty/CMSIS/Include/core_cmFunc.h **** __STATIC_INLINE void __set_PSP(uint32_t topOfProcStack)
 143:/home/torbjorn/eclipse-workspace/CoreNG/asf/thirdparty/CMSIS/Include/core_cmFunc.h **** {
 144:/home/torbjorn/eclipse-workspace/CoreNG/asf/thirdparty/CMSIS/Include/core_cmFunc.h ****   register uint32_t __regProcessStackPointer  __ASM("psp");
 145:/home/torbjorn/eclipse-workspace/CoreNG/asf/thirdparty/CMSIS/Include/core_cmFunc.h ****   __regProcessStackPointer = topOfProcStack;
 146:/home/torbjorn/eclipse-workspace/CoreNG/asf/thirdparty/CMSIS/Include/core_cmFunc.h **** }
 147:/home/torbjorn/eclipse-workspace/CoreNG/asf/thirdparty/CMSIS/Include/core_cmFunc.h **** 
 148:/home/torbjorn/eclipse-workspace/CoreNG/asf/thirdparty/CMSIS/Include/core_cmFunc.h **** 
 149:/home/torbjorn/eclipse-workspace/CoreNG/asf/thirdparty/CMSIS/Include/core_cmFunc.h **** /** \brief  Get Main Stack Pointer
 150:/home/torbjorn/eclipse-workspace/CoreNG/asf/thirdparty/CMSIS/Include/core_cmFunc.h **** 
 151:/home/torbjorn/eclipse-workspace/CoreNG/asf/thirdparty/CMSIS/Include/core_cmFunc.h ****     This function returns the current value of the Main Stack Pointer (MSP).
 152:/home/torbjorn/eclipse-workspace/CoreNG/asf/thirdparty/CMSIS/Include/core_cmFunc.h **** 
 153:/home/torbjorn/eclipse-workspace/CoreNG/asf/thirdparty/CMSIS/Include/core_cmFunc.h ****     \return               MSP Register value
 154:/home/torbjorn/eclipse-workspace/CoreNG/asf/thirdparty/CMSIS/Include/core_cmFunc.h ****  */
 155:/home/torbjorn/eclipse-workspace/CoreNG/asf/thirdparty/CMSIS/Include/core_cmFunc.h **** __STATIC_INLINE uint32_t __get_MSP(void)
 156:/home/torbjorn/eclipse-workspace/CoreNG/asf/thirdparty/CMSIS/Include/core_cmFunc.h **** {
 157:/home/torbjorn/eclipse-workspace/CoreNG/asf/thirdparty/CMSIS/Include/core_cmFunc.h ****   register uint32_t __regMainStackPointer     __ASM("msp");
 158:/home/torbjorn/eclipse-workspace/CoreNG/asf/thirdparty/CMSIS/Include/core_cmFunc.h ****   return(__regMainStackPointer);
 159:/home/torbjorn/eclipse-workspace/CoreNG/asf/thirdparty/CMSIS/Include/core_cmFunc.h **** }
 160:/home/torbjorn/eclipse-workspace/CoreNG/asf/thirdparty/CMSIS/Include/core_cmFunc.h **** 
 161:/home/torbjorn/eclipse-workspace/CoreNG/asf/thirdparty/CMSIS/Include/core_cmFunc.h **** 
 162:/home/torbjorn/eclipse-workspace/CoreNG/asf/thirdparty/CMSIS/Include/core_cmFunc.h **** /** \brief  Set Main Stack Pointer
 163:/home/torbjorn/eclipse-workspace/CoreNG/asf/thirdparty/CMSIS/Include/core_cmFunc.h **** 
ARM GAS  /tmp/ccRqcMej.s 			page 20


 164:/home/torbjorn/eclipse-workspace/CoreNG/asf/thirdparty/CMSIS/Include/core_cmFunc.h ****     This function assigns the given value to the Main Stack Pointer (MSP).
 165:/home/torbjorn/eclipse-workspace/CoreNG/asf/thirdparty/CMSIS/Include/core_cmFunc.h **** 
 166:/home/torbjorn/eclipse-workspace/CoreNG/asf/thirdparty/CMSIS/Include/core_cmFunc.h ****     \param [in]    topOfMainStack  Main Stack Pointer value to set
 167:/home/torbjorn/eclipse-workspace/CoreNG/asf/thirdparty/CMSIS/Include/core_cmFunc.h ****  */
 168:/home/torbjorn/eclipse-workspace/CoreNG/asf/thirdparty/CMSIS/Include/core_cmFunc.h **** __STATIC_INLINE void __set_MSP(uint32_t topOfMainStack)
 169:/home/torbjorn/eclipse-workspace/CoreNG/asf/thirdparty/CMSIS/Include/core_cmFunc.h **** {
 170:/home/torbjorn/eclipse-workspace/CoreNG/asf/thirdparty/CMSIS/Include/core_cmFunc.h ****   register uint32_t __regMainStackPointer     __ASM("msp");
 171:/home/torbjorn/eclipse-workspace/CoreNG/asf/thirdparty/CMSIS/Include/core_cmFunc.h ****   __regMainStackPointer = topOfMainStack;
 172:/home/torbjorn/eclipse-workspace/CoreNG/asf/thirdparty/CMSIS/Include/core_cmFunc.h **** }
 173:/home/torbjorn/eclipse-workspace/CoreNG/asf/thirdparty/CMSIS/Include/core_cmFunc.h **** 
 174:/home/torbjorn/eclipse-workspace/CoreNG/asf/thirdparty/CMSIS/Include/core_cmFunc.h **** 
 175:/home/torbjorn/eclipse-workspace/CoreNG/asf/thirdparty/CMSIS/Include/core_cmFunc.h **** /** \brief  Get Priority Mask
 176:/home/torbjorn/eclipse-workspace/CoreNG/asf/thirdparty/CMSIS/Include/core_cmFunc.h **** 
 177:/home/torbjorn/eclipse-workspace/CoreNG/asf/thirdparty/CMSIS/Include/core_cmFunc.h ****     This function returns the current state of the priority mask bit from the Priority Mask Registe
 178:/home/torbjorn/eclipse-workspace/CoreNG/asf/thirdparty/CMSIS/Include/core_cmFunc.h **** 
 179:/home/torbjorn/eclipse-workspace/CoreNG/asf/thirdparty/CMSIS/Include/core_cmFunc.h ****     \return               Priority Mask value
 180:/home/torbjorn/eclipse-workspace/CoreNG/asf/thirdparty/CMSIS/Include/core_cmFunc.h ****  */
 181:/home/torbjorn/eclipse-workspace/CoreNG/asf/thirdparty/CMSIS/Include/core_cmFunc.h **** __STATIC_INLINE uint32_t __get_PRIMASK(void)
 182:/home/torbjorn/eclipse-workspace/CoreNG/asf/thirdparty/CMSIS/Include/core_cmFunc.h **** {
 183:/home/torbjorn/eclipse-workspace/CoreNG/asf/thirdparty/CMSIS/Include/core_cmFunc.h ****   register uint32_t __regPriMask         __ASM("primask");
 184:/home/torbjorn/eclipse-workspace/CoreNG/asf/thirdparty/CMSIS/Include/core_cmFunc.h ****   return(__regPriMask);
 185:/home/torbjorn/eclipse-workspace/CoreNG/asf/thirdparty/CMSIS/Include/core_cmFunc.h **** }
 186:/home/torbjorn/eclipse-workspace/CoreNG/asf/thirdparty/CMSIS/Include/core_cmFunc.h **** 
 187:/home/torbjorn/eclipse-workspace/CoreNG/asf/thirdparty/CMSIS/Include/core_cmFunc.h **** 
 188:/home/torbjorn/eclipse-workspace/CoreNG/asf/thirdparty/CMSIS/Include/core_cmFunc.h **** /** \brief  Set Priority Mask
 189:/home/torbjorn/eclipse-workspace/CoreNG/asf/thirdparty/CMSIS/Include/core_cmFunc.h **** 
 190:/home/torbjorn/eclipse-workspace/CoreNG/asf/thirdparty/CMSIS/Include/core_cmFunc.h ****     This function assigns the given value to the Priority Mask Register.
 191:/home/torbjorn/eclipse-workspace/CoreNG/asf/thirdparty/CMSIS/Include/core_cmFunc.h **** 
 192:/home/torbjorn/eclipse-workspace/CoreNG/asf/thirdparty/CMSIS/Include/core_cmFunc.h ****     \param [in]    priMask  Priority Mask
 193:/home/torbjorn/eclipse-workspace/CoreNG/asf/thirdparty/CMSIS/Include/core_cmFunc.h ****  */
 194:/home/torbjorn/eclipse-workspace/CoreNG/asf/thirdparty/CMSIS/Include/core_cmFunc.h **** __STATIC_INLINE void __set_PRIMASK(uint32_t priMask)
 195:/home/torbjorn/eclipse-workspace/CoreNG/asf/thirdparty/CMSIS/Include/core_cmFunc.h **** {
 196:/home/torbjorn/eclipse-workspace/CoreNG/asf/thirdparty/CMSIS/Include/core_cmFunc.h ****   register uint32_t __regPriMask         __ASM("primask");
 197:/home/torbjorn/eclipse-workspace/CoreNG/asf/thirdparty/CMSIS/Include/core_cmFunc.h ****   __regPriMask = (priMask);
 198:/home/torbjorn/eclipse-workspace/CoreNG/asf/thirdparty/CMSIS/Include/core_cmFunc.h **** }
 199:/home/torbjorn/eclipse-workspace/CoreNG/asf/thirdparty/CMSIS/Include/core_cmFunc.h **** 
 200:/home/torbjorn/eclipse-workspace/CoreNG/asf/thirdparty/CMSIS/Include/core_cmFunc.h **** 
 201:/home/torbjorn/eclipse-workspace/CoreNG/asf/thirdparty/CMSIS/Include/core_cmFunc.h **** #if       (__CORTEX_M >= 0x03) || (__CORTEX_SC >= 300)
 202:/home/torbjorn/eclipse-workspace/CoreNG/asf/thirdparty/CMSIS/Include/core_cmFunc.h **** 
 203:/home/torbjorn/eclipse-workspace/CoreNG/asf/thirdparty/CMSIS/Include/core_cmFunc.h **** /** \brief  Enable FIQ
 204:/home/torbjorn/eclipse-workspace/CoreNG/asf/thirdparty/CMSIS/Include/core_cmFunc.h **** 
 205:/home/torbjorn/eclipse-workspace/CoreNG/asf/thirdparty/CMSIS/Include/core_cmFunc.h ****     This function enables FIQ interrupts by clearing the F-bit in the CPSR.
 206:/home/torbjorn/eclipse-workspace/CoreNG/asf/thirdparty/CMSIS/Include/core_cmFunc.h ****     Can only be executed in Privileged modes.
 207:/home/torbjorn/eclipse-workspace/CoreNG/asf/thirdparty/CMSIS/Include/core_cmFunc.h ****  */
 208:/home/torbjorn/eclipse-workspace/CoreNG/asf/thirdparty/CMSIS/Include/core_cmFunc.h **** #define __enable_fault_irq                __enable_fiq
 209:/home/torbjorn/eclipse-workspace/CoreNG/asf/thirdparty/CMSIS/Include/core_cmFunc.h **** 
 210:/home/torbjorn/eclipse-workspace/CoreNG/asf/thirdparty/CMSIS/Include/core_cmFunc.h **** 
 211:/home/torbjorn/eclipse-workspace/CoreNG/asf/thirdparty/CMSIS/Include/core_cmFunc.h **** /** \brief  Disable FIQ
 212:/home/torbjorn/eclipse-workspace/CoreNG/asf/thirdparty/CMSIS/Include/core_cmFunc.h **** 
 213:/home/torbjorn/eclipse-workspace/CoreNG/asf/thirdparty/CMSIS/Include/core_cmFunc.h ****     This function disables FIQ interrupts by setting the F-bit in the CPSR.
 214:/home/torbjorn/eclipse-workspace/CoreNG/asf/thirdparty/CMSIS/Include/core_cmFunc.h ****     Can only be executed in Privileged modes.
 215:/home/torbjorn/eclipse-workspace/CoreNG/asf/thirdparty/CMSIS/Include/core_cmFunc.h ****  */
 216:/home/torbjorn/eclipse-workspace/CoreNG/asf/thirdparty/CMSIS/Include/core_cmFunc.h **** #define __disable_fault_irq               __disable_fiq
 217:/home/torbjorn/eclipse-workspace/CoreNG/asf/thirdparty/CMSIS/Include/core_cmFunc.h **** 
 218:/home/torbjorn/eclipse-workspace/CoreNG/asf/thirdparty/CMSIS/Include/core_cmFunc.h **** 
 219:/home/torbjorn/eclipse-workspace/CoreNG/asf/thirdparty/CMSIS/Include/core_cmFunc.h **** /** \brief  Get Base Priority
 220:/home/torbjorn/eclipse-workspace/CoreNG/asf/thirdparty/CMSIS/Include/core_cmFunc.h **** 
ARM GAS  /tmp/ccRqcMej.s 			page 21


 221:/home/torbjorn/eclipse-workspace/CoreNG/asf/thirdparty/CMSIS/Include/core_cmFunc.h ****     This function returns the current value of the Base Priority register.
 222:/home/torbjorn/eclipse-workspace/CoreNG/asf/thirdparty/CMSIS/Include/core_cmFunc.h **** 
 223:/home/torbjorn/eclipse-workspace/CoreNG/asf/thirdparty/CMSIS/Include/core_cmFunc.h ****     \return               Base Priority register value
 224:/home/torbjorn/eclipse-workspace/CoreNG/asf/thirdparty/CMSIS/Include/core_cmFunc.h ****  */
 225:/home/torbjorn/eclipse-workspace/CoreNG/asf/thirdparty/CMSIS/Include/core_cmFunc.h **** __STATIC_INLINE uint32_t  __get_BASEPRI(void)
 226:/home/torbjorn/eclipse-workspace/CoreNG/asf/thirdparty/CMSIS/Include/core_cmFunc.h **** {
 227:/home/torbjorn/eclipse-workspace/CoreNG/asf/thirdparty/CMSIS/Include/core_cmFunc.h ****   register uint32_t __regBasePri         __ASM("basepri");
 228:/home/torbjorn/eclipse-workspace/CoreNG/asf/thirdparty/CMSIS/Include/core_cmFunc.h ****   return(__regBasePri);
 229:/home/torbjorn/eclipse-workspace/CoreNG/asf/thirdparty/CMSIS/Include/core_cmFunc.h **** }
 230:/home/torbjorn/eclipse-workspace/CoreNG/asf/thirdparty/CMSIS/Include/core_cmFunc.h **** 
 231:/home/torbjorn/eclipse-workspace/CoreNG/asf/thirdparty/CMSIS/Include/core_cmFunc.h **** 
 232:/home/torbjorn/eclipse-workspace/CoreNG/asf/thirdparty/CMSIS/Include/core_cmFunc.h **** /** \brief  Set Base Priority
 233:/home/torbjorn/eclipse-workspace/CoreNG/asf/thirdparty/CMSIS/Include/core_cmFunc.h **** 
 234:/home/torbjorn/eclipse-workspace/CoreNG/asf/thirdparty/CMSIS/Include/core_cmFunc.h ****     This function assigns the given value to the Base Priority register.
 235:/home/torbjorn/eclipse-workspace/CoreNG/asf/thirdparty/CMSIS/Include/core_cmFunc.h **** 
 236:/home/torbjorn/eclipse-workspace/CoreNG/asf/thirdparty/CMSIS/Include/core_cmFunc.h ****     \param [in]    basePri  Base Priority value to set
 237:/home/torbjorn/eclipse-workspace/CoreNG/asf/thirdparty/CMSIS/Include/core_cmFunc.h ****  */
 238:/home/torbjorn/eclipse-workspace/CoreNG/asf/thirdparty/CMSIS/Include/core_cmFunc.h **** __STATIC_INLINE void __set_BASEPRI(uint32_t basePri)
 239:/home/torbjorn/eclipse-workspace/CoreNG/asf/thirdparty/CMSIS/Include/core_cmFunc.h **** {
 240:/home/torbjorn/eclipse-workspace/CoreNG/asf/thirdparty/CMSIS/Include/core_cmFunc.h ****   register uint32_t __regBasePri         __ASM("basepri");
 241:/home/torbjorn/eclipse-workspace/CoreNG/asf/thirdparty/CMSIS/Include/core_cmFunc.h ****   __regBasePri = (basePri & 0xff);
 242:/home/torbjorn/eclipse-workspace/CoreNG/asf/thirdparty/CMSIS/Include/core_cmFunc.h **** }
 243:/home/torbjorn/eclipse-workspace/CoreNG/asf/thirdparty/CMSIS/Include/core_cmFunc.h **** 
 244:/home/torbjorn/eclipse-workspace/CoreNG/asf/thirdparty/CMSIS/Include/core_cmFunc.h **** 
 245:/home/torbjorn/eclipse-workspace/CoreNG/asf/thirdparty/CMSIS/Include/core_cmFunc.h **** /** \brief  Get Fault Mask
 246:/home/torbjorn/eclipse-workspace/CoreNG/asf/thirdparty/CMSIS/Include/core_cmFunc.h **** 
 247:/home/torbjorn/eclipse-workspace/CoreNG/asf/thirdparty/CMSIS/Include/core_cmFunc.h ****     This function returns the current value of the Fault Mask register.
 248:/home/torbjorn/eclipse-workspace/CoreNG/asf/thirdparty/CMSIS/Include/core_cmFunc.h **** 
 249:/home/torbjorn/eclipse-workspace/CoreNG/asf/thirdparty/CMSIS/Include/core_cmFunc.h ****     \return               Fault Mask register value
 250:/home/torbjorn/eclipse-workspace/CoreNG/asf/thirdparty/CMSIS/Include/core_cmFunc.h ****  */
 251:/home/torbjorn/eclipse-workspace/CoreNG/asf/thirdparty/CMSIS/Include/core_cmFunc.h **** __STATIC_INLINE uint32_t __get_FAULTMASK(void)
 252:/home/torbjorn/eclipse-workspace/CoreNG/asf/thirdparty/CMSIS/Include/core_cmFunc.h **** {
 253:/home/torbjorn/eclipse-workspace/CoreNG/asf/thirdparty/CMSIS/Include/core_cmFunc.h ****   register uint32_t __regFaultMask       __ASM("faultmask");
 254:/home/torbjorn/eclipse-workspace/CoreNG/asf/thirdparty/CMSIS/Include/core_cmFunc.h ****   return(__regFaultMask);
 255:/home/torbjorn/eclipse-workspace/CoreNG/asf/thirdparty/CMSIS/Include/core_cmFunc.h **** }
 256:/home/torbjorn/eclipse-workspace/CoreNG/asf/thirdparty/CMSIS/Include/core_cmFunc.h **** 
 257:/home/torbjorn/eclipse-workspace/CoreNG/asf/thirdparty/CMSIS/Include/core_cmFunc.h **** 
 258:/home/torbjorn/eclipse-workspace/CoreNG/asf/thirdparty/CMSIS/Include/core_cmFunc.h **** /** \brief  Set Fault Mask
 259:/home/torbjorn/eclipse-workspace/CoreNG/asf/thirdparty/CMSIS/Include/core_cmFunc.h **** 
 260:/home/torbjorn/eclipse-workspace/CoreNG/asf/thirdparty/CMSIS/Include/core_cmFunc.h ****     This function assigns the given value to the Fault Mask register.
 261:/home/torbjorn/eclipse-workspace/CoreNG/asf/thirdparty/CMSIS/Include/core_cmFunc.h **** 
 262:/home/torbjorn/eclipse-workspace/CoreNG/asf/thirdparty/CMSIS/Include/core_cmFunc.h ****     \param [in]    faultMask  Fault Mask value to set
 263:/home/torbjorn/eclipse-workspace/CoreNG/asf/thirdparty/CMSIS/Include/core_cmFunc.h ****  */
 264:/home/torbjorn/eclipse-workspace/CoreNG/asf/thirdparty/CMSIS/Include/core_cmFunc.h **** __STATIC_INLINE void __set_FAULTMASK(uint32_t faultMask)
 265:/home/torbjorn/eclipse-workspace/CoreNG/asf/thirdparty/CMSIS/Include/core_cmFunc.h **** {
 266:/home/torbjorn/eclipse-workspace/CoreNG/asf/thirdparty/CMSIS/Include/core_cmFunc.h ****   register uint32_t __regFaultMask       __ASM("faultmask");
 267:/home/torbjorn/eclipse-workspace/CoreNG/asf/thirdparty/CMSIS/Include/core_cmFunc.h ****   __regFaultMask = (faultMask & (uint32_t)1);
 268:/home/torbjorn/eclipse-workspace/CoreNG/asf/thirdparty/CMSIS/Include/core_cmFunc.h **** }
 269:/home/torbjorn/eclipse-workspace/CoreNG/asf/thirdparty/CMSIS/Include/core_cmFunc.h **** 
 270:/home/torbjorn/eclipse-workspace/CoreNG/asf/thirdparty/CMSIS/Include/core_cmFunc.h **** #endif /* (__CORTEX_M >= 0x03) || (__CORTEX_SC >= 300) */
 271:/home/torbjorn/eclipse-workspace/CoreNG/asf/thirdparty/CMSIS/Include/core_cmFunc.h **** 
 272:/home/torbjorn/eclipse-workspace/CoreNG/asf/thirdparty/CMSIS/Include/core_cmFunc.h **** 
 273:/home/torbjorn/eclipse-workspace/CoreNG/asf/thirdparty/CMSIS/Include/core_cmFunc.h **** #if       (__CORTEX_M == 0x04) || (__CORTEX_M == 0x07)
 274:/home/torbjorn/eclipse-workspace/CoreNG/asf/thirdparty/CMSIS/Include/core_cmFunc.h **** 
 275:/home/torbjorn/eclipse-workspace/CoreNG/asf/thirdparty/CMSIS/Include/core_cmFunc.h **** /** \brief  Get FPSCR
 276:/home/torbjorn/eclipse-workspace/CoreNG/asf/thirdparty/CMSIS/Include/core_cmFunc.h **** 
 277:/home/torbjorn/eclipse-workspace/CoreNG/asf/thirdparty/CMSIS/Include/core_cmFunc.h ****     This function returns the current value of the Floating Point Status/Control register.
ARM GAS  /tmp/ccRqcMej.s 			page 22


 278:/home/torbjorn/eclipse-workspace/CoreNG/asf/thirdparty/CMSIS/Include/core_cmFunc.h **** 
 279:/home/torbjorn/eclipse-workspace/CoreNG/asf/thirdparty/CMSIS/Include/core_cmFunc.h ****     \return               Floating Point Status/Control register value
 280:/home/torbjorn/eclipse-workspace/CoreNG/asf/thirdparty/CMSIS/Include/core_cmFunc.h ****  */
 281:/home/torbjorn/eclipse-workspace/CoreNG/asf/thirdparty/CMSIS/Include/core_cmFunc.h **** __STATIC_INLINE uint32_t __get_FPSCR(void)
 282:/home/torbjorn/eclipse-workspace/CoreNG/asf/thirdparty/CMSIS/Include/core_cmFunc.h **** {
 283:/home/torbjorn/eclipse-workspace/CoreNG/asf/thirdparty/CMSIS/Include/core_cmFunc.h **** #if (__FPU_PRESENT == 1) && (__FPU_USED == 1)
 284:/home/torbjorn/eclipse-workspace/CoreNG/asf/thirdparty/CMSIS/Include/core_cmFunc.h ****   register uint32_t __regfpscr         __ASM("fpscr");
 285:/home/torbjorn/eclipse-workspace/CoreNG/asf/thirdparty/CMSIS/Include/core_cmFunc.h ****   return(__regfpscr);
 286:/home/torbjorn/eclipse-workspace/CoreNG/asf/thirdparty/CMSIS/Include/core_cmFunc.h **** #else
 287:/home/torbjorn/eclipse-workspace/CoreNG/asf/thirdparty/CMSIS/Include/core_cmFunc.h ****    return(0);
 288:/home/torbjorn/eclipse-workspace/CoreNG/asf/thirdparty/CMSIS/Include/core_cmFunc.h **** #endif
 289:/home/torbjorn/eclipse-workspace/CoreNG/asf/thirdparty/CMSIS/Include/core_cmFunc.h **** }
 290:/home/torbjorn/eclipse-workspace/CoreNG/asf/thirdparty/CMSIS/Include/core_cmFunc.h **** 
 291:/home/torbjorn/eclipse-workspace/CoreNG/asf/thirdparty/CMSIS/Include/core_cmFunc.h **** 
 292:/home/torbjorn/eclipse-workspace/CoreNG/asf/thirdparty/CMSIS/Include/core_cmFunc.h **** /** \brief  Set FPSCR
 293:/home/torbjorn/eclipse-workspace/CoreNG/asf/thirdparty/CMSIS/Include/core_cmFunc.h **** 
 294:/home/torbjorn/eclipse-workspace/CoreNG/asf/thirdparty/CMSIS/Include/core_cmFunc.h ****     This function assigns the given value to the Floating Point Status/Control register.
 295:/home/torbjorn/eclipse-workspace/CoreNG/asf/thirdparty/CMSIS/Include/core_cmFunc.h **** 
 296:/home/torbjorn/eclipse-workspace/CoreNG/asf/thirdparty/CMSIS/Include/core_cmFunc.h ****     \param [in]    fpscr  Floating Point Status/Control value to set
 297:/home/torbjorn/eclipse-workspace/CoreNG/asf/thirdparty/CMSIS/Include/core_cmFunc.h ****  */
 298:/home/torbjorn/eclipse-workspace/CoreNG/asf/thirdparty/CMSIS/Include/core_cmFunc.h **** __STATIC_INLINE void __set_FPSCR(uint32_t fpscr)
 299:/home/torbjorn/eclipse-workspace/CoreNG/asf/thirdparty/CMSIS/Include/core_cmFunc.h **** {
 300:/home/torbjorn/eclipse-workspace/CoreNG/asf/thirdparty/CMSIS/Include/core_cmFunc.h **** #if (__FPU_PRESENT == 1) && (__FPU_USED == 1)
 301:/home/torbjorn/eclipse-workspace/CoreNG/asf/thirdparty/CMSIS/Include/core_cmFunc.h ****   register uint32_t __regfpscr         __ASM("fpscr");
 302:/home/torbjorn/eclipse-workspace/CoreNG/asf/thirdparty/CMSIS/Include/core_cmFunc.h ****   __regfpscr = (fpscr);
 303:/home/torbjorn/eclipse-workspace/CoreNG/asf/thirdparty/CMSIS/Include/core_cmFunc.h **** #endif
 304:/home/torbjorn/eclipse-workspace/CoreNG/asf/thirdparty/CMSIS/Include/core_cmFunc.h **** }
 305:/home/torbjorn/eclipse-workspace/CoreNG/asf/thirdparty/CMSIS/Include/core_cmFunc.h **** 
 306:/home/torbjorn/eclipse-workspace/CoreNG/asf/thirdparty/CMSIS/Include/core_cmFunc.h **** #endif /* (__CORTEX_M == 0x04) || (__CORTEX_M == 0x07) */
 307:/home/torbjorn/eclipse-workspace/CoreNG/asf/thirdparty/CMSIS/Include/core_cmFunc.h **** 
 308:/home/torbjorn/eclipse-workspace/CoreNG/asf/thirdparty/CMSIS/Include/core_cmFunc.h **** 
 309:/home/torbjorn/eclipse-workspace/CoreNG/asf/thirdparty/CMSIS/Include/core_cmFunc.h **** #elif defined ( __GNUC__ ) /*------------------ GNU Compiler ---------------------*/
 310:/home/torbjorn/eclipse-workspace/CoreNG/asf/thirdparty/CMSIS/Include/core_cmFunc.h **** /* GNU gcc specific functions */
 311:/home/torbjorn/eclipse-workspace/CoreNG/asf/thirdparty/CMSIS/Include/core_cmFunc.h **** 
 312:/home/torbjorn/eclipse-workspace/CoreNG/asf/thirdparty/CMSIS/Include/core_cmFunc.h **** /** \brief  Enable IRQ Interrupts
 313:/home/torbjorn/eclipse-workspace/CoreNG/asf/thirdparty/CMSIS/Include/core_cmFunc.h **** 
 314:/home/torbjorn/eclipse-workspace/CoreNG/asf/thirdparty/CMSIS/Include/core_cmFunc.h ****   This function enables IRQ interrupts by clearing the I-bit in the CPSR.
 315:/home/torbjorn/eclipse-workspace/CoreNG/asf/thirdparty/CMSIS/Include/core_cmFunc.h ****   Can only be executed in Privileged modes.
 316:/home/torbjorn/eclipse-workspace/CoreNG/asf/thirdparty/CMSIS/Include/core_cmFunc.h ****  */
 317:/home/torbjorn/eclipse-workspace/CoreNG/asf/thirdparty/CMSIS/Include/core_cmFunc.h **** __attribute__( ( always_inline ) ) __STATIC_INLINE void __enable_irq(void)
 318:/home/torbjorn/eclipse-workspace/CoreNG/asf/thirdparty/CMSIS/Include/core_cmFunc.h **** {
 319:/home/torbjorn/eclipse-workspace/CoreNG/asf/thirdparty/CMSIS/Include/core_cmFunc.h ****   __ASM volatile ("cpsie i" : : : "memory");
  95              		.loc 3 319 0
  96              		.syntax unified
  97              	@ 319 "/home/torbjorn/eclipse-workspace/CoreNG/asf/thirdparty/CMSIS/Include/core_cmFunc.h" 1
  98 002e 62B6     		cpsie i
  99              	@ 0 "" 2
 100              		.thumb
 101              		.syntax unified
 102              	.LBE44:
 103              	.LBE43:
 104              	.LBB45:
 105              	.LBB46:
 401:/home/torbjorn/eclipse-workspace/CoreNG/asf/thirdparty/CMSIS/Include/core_cmInstr.h **** }
 106              		.loc 2 401 0
 107              		.syntax unified
 108              	@ 401 "/home/torbjorn/eclipse-workspace/CoreNG/asf/thirdparty/CMSIS/Include/core_cmInstr.h" 1
ARM GAS  /tmp/ccRqcMej.s 			page 23


 109 0030 30BF     		wfi
 110              	@ 0 "" 2
 111              		.thumb
 112              		.syntax unified
 113              	.L1:
 114 0032 BDE8F88F 		pop	{r3, r4, r5, r6, r7, r8, r9, r10, fp, pc}
 115              	.LVL3:
 116              	.L5:
 117              	.LBE46:
 118              	.LBE45:
 119              	.LBB47:
 316:../asf/sam/drivers/pmc/sleep.c **** 				pmc_set_flash_in_wait_mode(PMC_FSMR_FLPM_FLASH_DEEP_POWERDOWN);
 120              		.loc 1 316 0
 121 0036 0328     		cmp	r0, #3
 122 0038 0446     		mov	r4, r0
 123 003a 0CBF     		ite	eq
 124 003c 0020     		moveq	r0, #0
 125              	.LVL4:
 317:../asf/sam/drivers/pmc/sleep.c **** #endif
 126              		.loc 1 317 0
 127 003e 4FF40010 		movne	r0, #2097152
 128 0042 FFF7FEFF 		bl	pmc_set_flash_in_wait_mode
 129              	.LVL5:
 130              	.LBB48:
 131              	.LBB49:
 320:/home/torbjorn/eclipse-workspace/CoreNG/asf/thirdparty/CMSIS/Include/core_cmFunc.h **** }
 321:/home/torbjorn/eclipse-workspace/CoreNG/asf/thirdparty/CMSIS/Include/core_cmFunc.h **** 
 322:/home/torbjorn/eclipse-workspace/CoreNG/asf/thirdparty/CMSIS/Include/core_cmFunc.h **** 
 323:/home/torbjorn/eclipse-workspace/CoreNG/asf/thirdparty/CMSIS/Include/core_cmFunc.h **** /** \brief  Disable IRQ Interrupts
 324:/home/torbjorn/eclipse-workspace/CoreNG/asf/thirdparty/CMSIS/Include/core_cmFunc.h **** 
 325:/home/torbjorn/eclipse-workspace/CoreNG/asf/thirdparty/CMSIS/Include/core_cmFunc.h ****   This function disables IRQ interrupts by setting the I-bit in the CPSR.
 326:/home/torbjorn/eclipse-workspace/CoreNG/asf/thirdparty/CMSIS/Include/core_cmFunc.h ****   Can only be executed in Privileged modes.
 327:/home/torbjorn/eclipse-workspace/CoreNG/asf/thirdparty/CMSIS/Include/core_cmFunc.h ****  */
 328:/home/torbjorn/eclipse-workspace/CoreNG/asf/thirdparty/CMSIS/Include/core_cmFunc.h **** __attribute__( ( always_inline ) ) __STATIC_INLINE void __disable_irq(void)
 329:/home/torbjorn/eclipse-workspace/CoreNG/asf/thirdparty/CMSIS/Include/core_cmFunc.h **** {
 330:/home/torbjorn/eclipse-workspace/CoreNG/asf/thirdparty/CMSIS/Include/core_cmFunc.h ****   __ASM volatile ("cpsid i" : : : "memory");
 132              		.loc 3 330 0
 133              		.syntax unified
 134              	@ 330 "/home/torbjorn/eclipse-workspace/CoreNG/asf/thirdparty/CMSIS/Include/core_cmFunc.h" 1
 135 0046 72B6     		cpsid i
 136              	@ 0 "" 2
 137              		.thumb
 138              		.syntax unified
 139              	.LBE49:
 140              	.LBE48:
 141              	.LBB50:
 142              	.LBB51:
 143              		.loc 2 456 0
 144              		.syntax unified
 145              	@ 456 "/home/torbjorn/eclipse-workspace/CoreNG/asf/thirdparty/CMSIS/Include/core_cmInstr.h" 1
 146 0048 BFF35F8F 		dmb
 147              	@ 0 "" 2
 148              		.thumb
 149              		.syntax unified
 150              	.LBE51:
 151              	.LBE50:
 152              	.LBB52:
ARM GAS  /tmp/ccRqcMej.s 			page 24


 153              	.LBB53:
  80:../asf/sam/drivers/pmc/sleep.c **** 	uint32_t mckr = PMC->PMC_MCKR;
 154              		.loc 1 80 0
 155 004c 6D4B     		ldr	r3, .L65+16
 156              	.LBE53:
 157              	.LBE52:
 319:../asf/sam/drivers/pmc/sleep.c **** 		b_is_sleep_clock_used = true;
 158              		.loc 1 319 0
 159 004e 0022     		movs	r2, #0
 320:../asf/sam/drivers/pmc/sleep.c **** 
 160              		.loc 1 320 0
 161 0050 0121     		movs	r1, #1
 319:../asf/sam/drivers/pmc/sleep.c **** 		b_is_sleep_clock_used = true;
 162              		.loc 1 319 0
 163 0052 6B4D     		ldr	r5, .L65+12
 320:../asf/sam/drivers/pmc/sleep.c **** 
 164              		.loc 1 320 0
 165 0054 6C4F     		ldr	r7, .L65+20
 319:../asf/sam/drivers/pmc/sleep.c **** 		b_is_sleep_clock_used = true;
 166              		.loc 1 319 0
 167 0056 2A70     		strb	r2, [r5]
 320:../asf/sam/drivers/pmc/sleep.c **** 
 168              		.loc 1 320 0
 169 0058 3970     		strb	r1, [r7]
 170              	.LVL6:
 171              	.LBB57:
 172              	.LBB54:
  80:../asf/sam/drivers/pmc/sleep.c **** 	uint32_t mckr = PMC->PMC_MCKR;
 173              		.loc 1 80 0
 174 005a D3F82080 		ldr	r8, [r3, #32]
 175              	.LVL7:
  81:../asf/sam/drivers/pmc/sleep.c **** 	uint32_t fmr  = EFC0->EEFC_FMR;
 176              		.loc 1 81 0
 177 005e D3F830B0 		ldr	fp, [r3, #48]
 178              	.LVL8:
 115:../asf/sam/drivers/pmc/sleep.c **** 	/* if MCK source is PLL, switch to mainck */
 179              		.loc 1 115 0
 180 0062 6A4A     		ldr	r2, .L65+24
 117:../asf/sam/drivers/pmc/sleep.c **** 		/* MCK -> MAINCK */
 181              		.loc 1 117 0
 182 0064 0BF0030A 		and	r10, fp, #3
  82:../asf/sam/drivers/pmc/sleep.c **** # if defined(EFC1)
 183              		.loc 1 82 0
 184 0068 6949     		ldr	r1, .L65+28
 115:../asf/sam/drivers/pmc/sleep.c **** 	/* if MCK source is PLL, switch to mainck */
 185              		.loc 1 115 0
 186 006a 48EA0202 		orr	r2, r8, r2
 117:../asf/sam/drivers/pmc/sleep.c **** 		/* MCK -> MAINCK */
 187              		.loc 1 117 0
 188 006e BAF1010F 		cmp	r10, #1
  82:../asf/sam/drivers/pmc/sleep.c **** # if defined(EFC1)
 189              		.loc 1 82 0
 190 0072 D1F80090 		ldr	r9, [r1]
 191              	.LVL9:
  91:../asf/sam/drivers/pmc/sleep.c **** 	}
 192              		.loc 1 91 0
 193 0076 9E6A     		ldr	r6, [r3, #40]
ARM GAS  /tmp/ccRqcMej.s 			page 25


 194              	.LVL10:
 115:../asf/sam/drivers/pmc/sleep.c **** 	/* if MCK source is PLL, switch to mainck */
 195              		.loc 1 115 0
 196 0078 1A62     		str	r2, [r3, #32]
 117:../asf/sam/drivers/pmc/sleep.c **** 		/* MCK -> MAINCK */
 197              		.loc 1 117 0
 198 007a 40F28D80 		bls	.L32
 119:../asf/sam/drivers/pmc/sleep.c **** 		PMC->PMC_MCKR = mckr;
 199              		.loc 1 119 0
 200 007e 2BF00301 		bic	r1, fp, #3
 121:../asf/sam/drivers/pmc/sleep.c **** 	}
 201              		.loc 1 121 0
 202 0082 1A46     		mov	r2, r3
 119:../asf/sam/drivers/pmc/sleep.c **** 		PMC->PMC_MCKR = mckr;
 203              		.loc 1 119 0
 204 0084 41F00101 		orr	r1, r1, #1
 205              	.LVL11:
 120:../asf/sam/drivers/pmc/sleep.c **** 		while(!(PMC->PMC_SR & PMC_SR_MCKRDY));
 206              		.loc 1 120 0
 207 0088 1963     		str	r1, [r3, #48]
 208              	.L10:
 121:../asf/sam/drivers/pmc/sleep.c **** 	}
 209              		.loc 1 121 0
 210 008a 936E     		ldr	r3, [r2, #104]
 211 008c 1B07     		lsls	r3, r3, #28
 212 008e FCD5     		bpl	.L10
 213              	.L9:
 124:../asf/sam/drivers/pmc/sleep.c **** 		mckr = (mckr & (~PMC_MCKR_PRES_Msk));
 214              		.loc 1 124 0
 215 0090 11F0700F 		tst	r1, #112
 216 0094 07D0     		beq	.L14
 126:../asf/sam/drivers/pmc/sleep.c **** 		while(!(PMC->PMC_SR & PMC_SR_MCKRDY));
 217              		.loc 1 126 0
 218 0096 5B4B     		ldr	r3, .L65+16
 125:../asf/sam/drivers/pmc/sleep.c **** 		PMC->PMC_MCKR = mckr;
 219              		.loc 1 125 0
 220 0098 21F07001 		bic	r1, r1, #112
 221              	.LVL12:
 127:../asf/sam/drivers/pmc/sleep.c **** 	}
 222              		.loc 1 127 0
 223 009c 1A46     		mov	r2, r3
 126:../asf/sam/drivers/pmc/sleep.c **** 		while(!(PMC->PMC_SR & PMC_SR_MCKRDY));
 224              		.loc 1 126 0
 225 009e 1963     		str	r1, [r3, #48]
 226              	.L13:
 127:../asf/sam/drivers/pmc/sleep.c **** 	}
 227              		.loc 1 127 0
 228 00a0 936E     		ldr	r3, [r2, #104]
 229 00a2 1807     		lsls	r0, r3, #28
 230 00a4 FCD5     		bpl	.L13
 231              	.L14:
 130:../asf/sam/drivers/pmc/sleep.c **** #if (SAM3S || SAM4S || SAM4C || SAM4CM || SAM4CP)
 232              		.loc 1 130 0
 233 00a6 FFF7FEFF 		bl	pmc_disable_pllack
 234              	.LVL13:
 139:../asf/sam/drivers/pmc/sleep.c **** 
 235              		.loc 1 139 0
ARM GAS  /tmp/ccRqcMej.s 			page 26


 236 00aa 564A     		ldr	r2, .L65+16
 237              	.L12:
 238 00ac 936E     		ldr	r3, [r2, #104]
 239 00ae 9903     		lsls	r1, r3, #14
 240 00b0 FCD5     		bpl	.L12
 153:../asf/sam/drivers/pmc/sleep.c **** 			CKGR_MOR_KEY_PASSWD;
 241              		.loc 1 153 0
 242 00b2 106A     		ldr	r0, [r2, #32]
 243 00b4 574B     		ldr	r3, .L65+32
 156:../asf/sam/drivers/pmc/sleep.c **** 
 244              		.loc 1 156 0
 245 00b6 5349     		ldr	r1, .L65+16
 153:../asf/sam/drivers/pmc/sleep.c **** 			CKGR_MOR_KEY_PASSWD;
 246              		.loc 1 153 0
 247 00b8 0340     		ands	r3, r3, r0
 248 00ba 43F45C13 		orr	r3, r3, #3604480
 249 00be 1362     		str	r3, [r2, #32]
 250              	.L15:
 156:../asf/sam/drivers/pmc/sleep.c **** 
 251              		.loc 1 156 0
 252 00c0 8B6E     		ldr	r3, [r1, #104]
 253 00c2 DB03     		lsls	r3, r3, #15
 254 00c4 FCD5     		bpl	.L15
 160:../asf/sam/drivers/pmc/sleep.c **** #if defined(EFC1)
 255              		.loc 1 160 0
 256 00c6 29F47063 		bic	r3, r9, #3840
 257 00ca 514A     		ldr	r2, .L65+28
 167:../asf/sam/drivers/pmc/sleep.c **** 		PMC->CKGR_MOR = (PMC->CKGR_MOR & ~CKGR_MOR_MOSCXTEN) |
 258              		.loc 1 167 0
 259 00cc 042C     		cmp	r4, #4
 160:../asf/sam/drivers/pmc/sleep.c **** #if defined(EFC1)
 260              		.loc 1 160 0
 261 00ce 1360     		str	r3, [r2]
 167:../asf/sam/drivers/pmc/sleep.c **** 		PMC->CKGR_MOR = (PMC->CKGR_MOR & ~CKGR_MOR_MOSCXTEN) |
 262              		.loc 1 167 0
 263 00d0 00F08980 		beq	.L64
 264              	.L16:
 265              	.LVL14:
 266              	.LBE54:
 267              	.LBE57:
 335:../asf/sam/drivers/pmc/sleep.c **** 
 268              		.loc 1 335 0
 269 00d4 0123     		movs	r3, #1
 270 00d6 2B70     		strb	r3, [r5]
 271              	.LBB58:
 272              	.LBB59:
 273              		.loc 2 456 0
 274              		.syntax unified
 275              	@ 456 "/home/torbjorn/eclipse-workspace/CoreNG/asf/thirdparty/CMSIS/Include/core_cmInstr.h" 1
 276 00d8 BFF35F8F 		dmb
 277              	@ 0 "" 2
 278              		.thumb
 279              		.syntax unified
 280              	.LBE59:
 281              	.LBE58:
 282              	.LBB60:
 283              	.LBB61:
ARM GAS  /tmp/ccRqcMej.s 			page 27


 319:/home/torbjorn/eclipse-workspace/CoreNG/asf/thirdparty/CMSIS/Include/core_cmFunc.h **** }
 284              		.loc 3 319 0
 285              		.syntax unified
 286              	@ 319 "/home/torbjorn/eclipse-workspace/CoreNG/asf/thirdparty/CMSIS/Include/core_cmFunc.h" 1
 287 00dc 62B6     		cpsie i
 288              	@ 0 "" 2
 289              		.thumb
 290              		.syntax unified
 291              	.LBE61:
 292              	.LBE60:
 337:../asf/sam/drivers/pmc/sleep.c **** 
 293              		.loc 1 337 0
 294 00de FFF7FEFF 		bl	pmc_enable_waitmode
 295              	.LVL15:
 296              	.LBB62:
 297              	.LBB63:
 298              		.loc 3 330 0
 299              		.syntax unified
 300              	@ 330 "/home/torbjorn/eclipse-workspace/CoreNG/asf/thirdparty/CMSIS/Include/core_cmFunc.h" 1
 301 00e2 72B6     		cpsid i
 302              	@ 0 "" 2
 303              		.thumb
 304              		.syntax unified
 305              	.LBE63:
 306              	.LBE62:
 307              	.LBB64:
 308              	.LBB65:
 309              		.loc 2 456 0
 310              		.syntax unified
 311              	@ 456 "/home/torbjorn/eclipse-workspace/CoreNG/asf/thirdparty/CMSIS/Include/core_cmInstr.h" 1
 312 00e4 BFF35F8F 		dmb
 313              	@ 0 "" 2
 314              		.thumb
 315              		.syntax unified
 316              	.LBE65:
 317              	.LBE64:
 339:../asf/sam/drivers/pmc/sleep.c **** 		pmc_restore_clock_setting(mor, pllr0, pllr1, mckr, fmr
 318              		.loc 1 339 0
 319 00e8 0023     		movs	r3, #0
 320              	.LBB66:
 321              	.LBB67:
 191:../asf/sam/drivers/pmc/sleep.c **** 		/* Bypass mode */
 322              		.loc 1 191 0
 323 00ea 18F0020F 		tst	r8, #2
 324              	.LBE67:
 325              	.LBE66:
 339:../asf/sam/drivers/pmc/sleep.c **** 		pmc_restore_clock_setting(mor, pllr0, pllr1, mckr, fmr
 326              		.loc 1 339 0
 327 00ee 2B70     		strb	r3, [r5]
 328              	.LVL16:
 329              	.LBB70:
 330              	.LBB68:
 191:../asf/sam/drivers/pmc/sleep.c **** 		/* Bypass mode */
 331              		.loc 1 191 0
 332 00f0 54D0     		beq	.L17
 193:../asf/sam/drivers/pmc/sleep.c **** 				CKGR_MOR_KEY_PASSWD | CKGR_MOR_MOSCXTBY |
 333              		.loc 1 193 0
ARM GAS  /tmp/ccRqcMej.s 			page 28


 334 00f2 444A     		ldr	r2, .L65+16
 194:../asf/sam/drivers/pmc/sleep.c **** 				CKGR_MOR_MOSCSEL;
 335              		.loc 1 194 0
 336 00f4 4848     		ldr	r0, .L65+36
 193:../asf/sam/drivers/pmc/sleep.c **** 				CKGR_MOR_KEY_PASSWD | CKGR_MOR_MOSCXTBY |
 337              		.loc 1 193 0
 338 00f6 136A     		ldr	r3, [r2, #32]
 194:../asf/sam/drivers/pmc/sleep.c **** 				CKGR_MOR_MOSCSEL;
 339              		.loc 1 194 0
 340 00f8 4849     		ldr	r1, .L65+40
 341 00fa 1840     		ands	r0, r0, r3
 198:../asf/sam/drivers/pmc/sleep.c **** 	} else if (CKGR_MOR_MOSCXTEN == (osc_setting & CKGR_MOR_MOSCXTEN)) {
 342              		.loc 1 198 0
 343 00fc 484B     		ldr	r3, .L65+44
 194:../asf/sam/drivers/pmc/sleep.c **** 				CKGR_MOR_MOSCSEL;
 344              		.loc 1 194 0
 345 00fe 0143     		orrs	r1, r1, r0
 193:../asf/sam/drivers/pmc/sleep.c **** 				CKGR_MOR_KEY_PASSWD | CKGR_MOR_MOSCXTBY |
 346              		.loc 1 193 0
 347 0100 1162     		str	r1, [r2, #32]
 196:../asf/sam/drivers/pmc/sleep.c **** 					~CKGR_MOR_MOSCRCF_Msk)
 348              		.loc 1 196 0
 349 0102 116A     		ldr	r1, [r2, #32]
 198:../asf/sam/drivers/pmc/sleep.c **** 	} else if (CKGR_MOR_MOSCXTEN == (osc_setting & CKGR_MOR_MOSCXTEN)) {
 350              		.loc 1 198 0
 351 0104 0B40     		ands	r3, r3, r1
 352 0106 43F45C13 		orr	r3, r3, #3604480
 196:../asf/sam/drivers/pmc/sleep.c **** 					~CKGR_MOR_MOSCRCF_Msk)
 353              		.loc 1 196 0
 354 010a 1362     		str	r3, [r2, #32]
 355              	.LVL17:
 356              	.L18:
 218:../asf/sam/drivers/pmc/sleep.c **** #if (SAM4C || SAM4CM || SAMG || SAM4CP)
 357              		.loc 1 218 0
 358 010c 454A     		ldr	r2, .L65+48
 359 010e 3240     		ands	r2, r2, r6
 360 0110 22B1     		cbz	r2, .L25
 222:../asf/sam/drivers/pmc/sleep.c **** #endif
 361              		.loc 1 222 0
 362 0112 46F00056 		orr	r6, r6, #536870912
 363              	.LVL18:
 364 0116 3B4B     		ldr	r3, .L65+16
 224:../asf/sam/drivers/pmc/sleep.c **** 	}
 365              		.loc 1 224 0
 366 0118 0222     		movs	r2, #2
 222:../asf/sam/drivers/pmc/sleep.c **** #endif
 367              		.loc 1 222 0
 368 011a 9E62     		str	r6, [r3, #40]
 369              	.LVL19:
 370              	.L25:
 240:../asf/sam/drivers/pmc/sleep.c **** 	case PMC_MCKR_CSS_PLLA_CLK:
 371              		.loc 1 240 0
 372 011c BAF1020F 		cmp	r10, #2
 373 0120 03D1     		bne	.L26
 242:../asf/sam/drivers/pmc/sleep.c **** 		break;
 374              		.loc 1 242 0
 375 0122 3849     		ldr	r1, .L65+16
ARM GAS  /tmp/ccRqcMej.s 			page 29


 376              	.L27:
 377 0124 8B6E     		ldr	r3, [r1, #104]
 378 0126 9C07     		lsls	r4, r3, #30
 379 0128 FCD5     		bpl	.L27
 380              	.L26:
 256:../asf/sam/drivers/pmc/sleep.c **** 
 381              		.loc 1 256 0
 382 012a 364C     		ldr	r4, .L65+16
 260:../asf/sam/drivers/pmc/sleep.c **** 	while (!(PMC->PMC_SR & PMC_SR_MCKRDY));
 383              		.loc 1 260 0
 384 012c 0BF07003 		and	r3, fp, #112
 256:../asf/sam/drivers/pmc/sleep.c **** 
 385              		.loc 1 256 0
 386 0130 206B     		ldr	r0, [r4, #48]
 387              	.LVL20:
 261:../asf/sam/drivers/pmc/sleep.c **** 
 388              		.loc 1 261 0
 389 0132 2146     		mov	r1, r4
 259:../asf/sam/drivers/pmc/sleep.c **** 		| (mck_setting & PMC_MCKR_PRES_Msk);
 390              		.loc 1 259 0
 391 0134 20F07000 		bic	r0, r0, #112
 392              	.LVL21:
 260:../asf/sam/drivers/pmc/sleep.c **** 	while (!(PMC->PMC_SR & PMC_SR_MCKRDY));
 393              		.loc 1 260 0
 394 0138 0343     		orrs	r3, r3, r0
 259:../asf/sam/drivers/pmc/sleep.c **** 		| (mck_setting & PMC_MCKR_PRES_Msk);
 395              		.loc 1 259 0
 396 013a 2363     		str	r3, [r4, #48]
 397              	.L28:
 261:../asf/sam/drivers/pmc/sleep.c **** 
 398              		.loc 1 261 0
 399 013c 8B6E     		ldr	r3, [r1, #104]
 400 013e 1807     		lsls	r0, r3, #28
 401 0140 FCD5     		bpl	.L28
 264:../asf/sam/drivers/pmc/sleep.c **** #if defined(EFC1)
 402              		.loc 1 264 0
 403 0142 334B     		ldr	r3, .L65+28
 271:../asf/sam/drivers/pmc/sleep.c **** 
 404              		.loc 1 271 0
 405 0144 2F48     		ldr	r0, .L65+16
 264:../asf/sam/drivers/pmc/sleep.c **** #if defined(EFC1)
 406              		.loc 1 264 0
 407 0146 C3F80090 		str	r9, [r3]
 270:../asf/sam/drivers/pmc/sleep.c **** 	while (!(PMC->PMC_SR & PMC_SR_MCKRDY));
 408              		.loc 1 270 0
 409 014a C1F830B0 		str	fp, [r1, #48]
 410              	.L29:
 271:../asf/sam/drivers/pmc/sleep.c **** 
 411              		.loc 1 271 0
 412 014e 836E     		ldr	r3, [r0, #104]
 413 0150 1B07     		lsls	r3, r3, #28
 414 0152 FCD5     		bpl	.L29
 274:../asf/sam/drivers/pmc/sleep.c **** }
 415              		.loc 1 274 0
 416 0154 2B49     		ldr	r1, .L65+16
 417              	.L49:
 418 0156 8B6E     		ldr	r3, [r1, #104]
ARM GAS  /tmp/ccRqcMej.s 			page 30


 419 0158 1342     		tst	r3, r2
 420 015a FCD0     		beq	.L49
 421              	.LVL22:
 422              	.LBE68:
 423              	.LBE70:
 351:../asf/sam/drivers/pmc/sleep.c **** 			callback_clocks_restored();
 424              		.loc 1 351 0
 425 015c 324C     		ldr	r4, .L65+52
 350:../asf/sam/drivers/pmc/sleep.c **** 		if (callback_clocks_restored) {
 426              		.loc 1 350 0
 427 015e 0026     		movs	r6, #0
 351:../asf/sam/drivers/pmc/sleep.c **** 			callback_clocks_restored();
 428              		.loc 1 351 0
 429 0160 2368     		ldr	r3, [r4]
 350:../asf/sam/drivers/pmc/sleep.c **** 		if (callback_clocks_restored) {
 430              		.loc 1 350 0
 431 0162 3E70     		strb	r6, [r7]
 351:../asf/sam/drivers/pmc/sleep.c **** 			callback_clocks_restored();
 432              		.loc 1 351 0
 433 0164 0BB1     		cbz	r3, .L31
 352:../asf/sam/drivers/pmc/sleep.c **** 			callback_clocks_restored = NULL;
 434              		.loc 1 352 0
 435 0166 9847     		blx	r3
 436              	.LVL23:
 353:../asf/sam/drivers/pmc/sleep.c **** 		}
 437              		.loc 1 353 0
 438 0168 2660     		str	r6, [r4]
 439              	.L31:
 355:../asf/sam/drivers/pmc/sleep.c **** 
 440              		.loc 1 355 0
 441 016a 0123     		movs	r3, #1
 442 016c 2B70     		strb	r3, [r5]
 443              	.LBB71:
 444              	.LBB72:
 445              		.loc 2 456 0
 446              		.syntax unified
 447              	@ 456 "/home/torbjorn/eclipse-workspace/CoreNG/asf/thirdparty/CMSIS/Include/core_cmInstr.h" 1
 448 016e BFF35F8F 		dmb
 449              	@ 0 "" 2
 450              		.thumb
 451              		.syntax unified
 452              	.LBE72:
 453              	.LBE71:
 454              	.LBB73:
 455              	.LBB74:
 319:/home/torbjorn/eclipse-workspace/CoreNG/asf/thirdparty/CMSIS/Include/core_cmFunc.h **** }
 456              		.loc 3 319 0
 457              		.syntax unified
 458              	@ 319 "/home/torbjorn/eclipse-workspace/CoreNG/asf/thirdparty/CMSIS/Include/core_cmFunc.h" 1
 459 0172 62B6     		cpsie i
 460              	@ 0 "" 2
 461              	.LVL24:
 462              		.thumb
 463              		.syntax unified
 464 0174 BDE8F88F 		pop	{r3, r4, r5, r6, r7, r8, r9, r10, fp, pc}
 465              	.LVL25:
 466              	.L3:
ARM GAS  /tmp/ccRqcMej.s 			page 31


 467              	.LBE74:
 468              	.LBE73:
 469              	.LBE47:
 288:../asf/sam/drivers/pmc/sleep.c **** 		cpu_irq_enable();
 470              		.loc 1 288 0
 471 0178 1E4A     		ldr	r2, .L65
 289:../asf/sam/drivers/pmc/sleep.c **** 		__DSB();
 472              		.loc 1 289 0
 473 017a 0120     		movs	r0, #1
 474              	.LVL26:
 475 017c 2049     		ldr	r1, .L65+12
 288:../asf/sam/drivers/pmc/sleep.c **** 		cpu_irq_enable();
 476              		.loc 1 288 0
 477 017e 1369     		ldr	r3, [r2, #16]
 478              	.LVL27:
 479 0180 23F00403 		bic	r3, r3, #4
 480 0184 1361     		str	r3, [r2, #16]
 289:../asf/sam/drivers/pmc/sleep.c **** 		__DSB();
 481              		.loc 1 289 0
 482 0186 0870     		strb	r0, [r1]
 483              	.LBB78:
 484              	.LBB79:
 485              		.loc 2 456 0
 486              		.syntax unified
 487              	@ 456 "/home/torbjorn/eclipse-workspace/CoreNG/asf/thirdparty/CMSIS/Include/core_cmInstr.h" 1
 488 0188 BFF35F8F 		dmb
 489              	@ 0 "" 2
 490              		.thumb
 491              		.syntax unified
 492              	.LBE79:
 493              	.LBE78:
 494              	.LBB80:
 495              	.LBB81:
 319:/home/torbjorn/eclipse-workspace/CoreNG/asf/thirdparty/CMSIS/Include/core_cmFunc.h **** }
 496              		.loc 3 319 0
 497              		.syntax unified
 498              	@ 319 "/home/torbjorn/eclipse-workspace/CoreNG/asf/thirdparty/CMSIS/Include/core_cmFunc.h" 1
 499 018c 62B6     		cpsie i
 500              	@ 0 "" 2
 501              		.thumb
 502              		.syntax unified
 503              	.LBE81:
 504              	.LBE80:
 505              	.LBB82:
 506              	.LBB83:
 445:/home/torbjorn/eclipse-workspace/CoreNG/asf/thirdparty/CMSIS/Include/core_cmInstr.h **** }
 507              		.loc 2 445 0
 508              		.syntax unified
 509              	@ 445 "/home/torbjorn/eclipse-workspace/CoreNG/asf/thirdparty/CMSIS/Include/core_cmInstr.h" 1
 510 018e BFF34F8F 		dsb
 511              	@ 0 "" 2
 512              		.thumb
 513              		.syntax unified
 514              	.LBE83:
 515              	.LBE82:
 516              	.LBB84:
 517              	.LBB85:
ARM GAS  /tmp/ccRqcMej.s 			page 32


 401:/home/torbjorn/eclipse-workspace/CoreNG/asf/thirdparty/CMSIS/Include/core_cmInstr.h **** }
 518              		.loc 2 401 0
 519              		.syntax unified
 520              	@ 401 "/home/torbjorn/eclipse-workspace/CoreNG/asf/thirdparty/CMSIS/Include/core_cmInstr.h" 1
 521 0192 30BF     		wfi
 522              	@ 0 "" 2
 523              		.thumb
 524              		.syntax unified
 525 0194 BDE8F88F 		pop	{r3, r4, r5, r6, r7, r8, r9, r10, fp, pc}
 526              	.LVL28:
 527              	.L32:
 528              	.LBE85:
 529              	.LBE84:
 530              	.LBB86:
 531              	.LBB75:
 532              	.LBB55:
 117:../asf/sam/drivers/pmc/sleep.c **** 		/* MCK -> MAINCK */
 533              		.loc 1 117 0
 534 0198 5946     		mov	r1, fp
 535 019a 79E7     		b	.L9
 536              	.LVL29:
 537              	.L17:
 538              	.LBE55:
 539              	.LBE75:
 540              	.LBB76:
 541              	.LBB69:
 199:../asf/sam/drivers/pmc/sleep.c **** 		/* Enable External XTAL */
 542              		.loc 1 199 0
 543 019c 18F0010F 		tst	r8, #1
 544 01a0 B4D0     		beq	.L18
 201:../asf/sam/drivers/pmc/sleep.c **** 			PMC->CKGR_MOR = (PMC->CKGR_MOR & ~CKGR_MOR_MOSCXTBY) |
 545              		.loc 1 201 0
 546 01a2 184B     		ldr	r3, .L65+16
 547 01a4 1A6A     		ldr	r2, [r3, #32]
 548 01a6 D407     		lsls	r4, r2, #31
 549              	.LVL30:
 550 01a8 09D4     		bmi	.L23
 202:../asf/sam/drivers/pmc/sleep.c **** 					CKGR_MOR_KEY_PASSWD | CKGR_MOR_MOSCXTEN;
 551              		.loc 1 202 0
 552 01aa 196A     		ldr	r1, [r3, #32]
 205:../asf/sam/drivers/pmc/sleep.c **** 		}
 553              		.loc 1 205 0
 554 01ac 1A46     		mov	r2, r3
 203:../asf/sam/drivers/pmc/sleep.c **** 			/* Wait the Xtal to stabilize */
 555              		.loc 1 203 0
 556 01ae 1F48     		ldr	r0, .L65+56
 557 01b0 0840     		ands	r0, r0, r1
 558 01b2 1F49     		ldr	r1, .L65+60
 559 01b4 0143     		orrs	r1, r1, r0
 202:../asf/sam/drivers/pmc/sleep.c **** 					CKGR_MOR_KEY_PASSWD | CKGR_MOR_MOSCXTEN;
 560              		.loc 1 202 0
 561 01b6 1962     		str	r1, [r3, #32]
 562              	.L22:
 205:../asf/sam/drivers/pmc/sleep.c **** 		}
 563              		.loc 1 205 0
 564 01b8 936E     		ldr	r3, [r2, #104]
 565 01ba D907     		lsls	r1, r3, #31
ARM GAS  /tmp/ccRqcMej.s 			page 33


 566 01bc FCD5     		bpl	.L22
 567              	.L23:
 208:../asf/sam/drivers/pmc/sleep.c **** 			PMC->CKGR_MOR |= CKGR_MOR_KEY_PASSWD | CKGR_MOR_MOSCSEL;
 568              		.loc 1 208 0
 569 01be 114B     		ldr	r3, .L65+16
 570 01c0 1A6A     		ldr	r2, [r3, #32]
 571 01c2 D001     		lsls	r0, r2, #7
 572 01c4 07D4     		bmi	.L21
 209:../asf/sam/drivers/pmc/sleep.c **** 			while (!(PMC->PMC_SR & PMC_SR_MOSCSELS));
 573              		.loc 1 209 0
 574 01c6 186A     		ldr	r0, [r3, #32]
 210:../asf/sam/drivers/pmc/sleep.c **** 		}
 575              		.loc 1 210 0
 576 01c8 1A46     		mov	r2, r3
 209:../asf/sam/drivers/pmc/sleep.c **** 			while (!(PMC->PMC_SR & PMC_SR_MOSCSELS));
 577              		.loc 1 209 0
 578 01ca 1A49     		ldr	r1, .L65+64
 579 01cc 0143     		orrs	r1, r1, r0
 580 01ce 1962     		str	r1, [r3, #32]
 581              	.L24:
 210:../asf/sam/drivers/pmc/sleep.c **** 		}
 582              		.loc 1 210 0
 583 01d0 936E     		ldr	r3, [r2, #104]
 584 01d2 DB03     		lsls	r3, r3, #15
 585 01d4 FCD5     		bpl	.L24
 586              	.L21:
 213:../asf/sam/drivers/pmc/sleep.c **** 						~CKGR_MOR_MOSCRCF_Msk)
 587              		.loc 1 213 0
 588 01d6 0B4A     		ldr	r2, .L65+16
 215:../asf/sam/drivers/pmc/sleep.c **** 	}
 589              		.loc 1 215 0
 590 01d8 114B     		ldr	r3, .L65+44
 213:../asf/sam/drivers/pmc/sleep.c **** 						~CKGR_MOR_MOSCRCF_Msk)
 591              		.loc 1 213 0
 592 01da 116A     		ldr	r1, [r2, #32]
 215:../asf/sam/drivers/pmc/sleep.c **** 	}
 593              		.loc 1 215 0
 594 01dc 0B40     		ands	r3, r3, r1
 595 01de 43F45C13 		orr	r3, r3, #3604480
 213:../asf/sam/drivers/pmc/sleep.c **** 						~CKGR_MOR_MOSCRCF_Msk)
 596              		.loc 1 213 0
 597 01e2 1362     		str	r3, [r2, #32]
 598 01e4 92E7     		b	.L18
 599              	.LVL31:
 600              	.L64:
 601              	.LBE69:
 602              	.LBE76:
 603              	.LBB77:
 604              	.LBB56:
 168:../asf/sam/drivers/pmc/sleep.c **** 				CKGR_MOR_KEY_PASSWD;
 605              		.loc 1 168 0
 606 01e6 0A6A     		ldr	r2, [r1, #32]
 607 01e8 134B     		ldr	r3, .L65+68
 608 01ea 1340     		ands	r3, r3, r2
 609 01ec 43F45C13 		orr	r3, r3, #3604480
 610 01f0 0B62     		str	r3, [r1, #32]
 611 01f2 6FE7     		b	.L16
ARM GAS  /tmp/ccRqcMej.s 			page 34


 612              	.L66:
 613              		.align	2
 614              	.L65:
 615 01f4 00ED00E0 		.word	-536810240
 616 01f8 10180E40 		.word	1074665488
 617 01fc 040000A5 		.word	-1526726652
 618 0200 00000000 		.word	g_interrupt_enabled
 619 0204 00060E40 		.word	1074660864
 620 0208 00000000 		.word	.LANCHOR0
 621 020c 08003700 		.word	3604488
 622 0210 000C0E40 		.word	1074662400
 623 0214 FFFFC8FE 		.word	-20381697
 624 0218 FCFFC8FE 		.word	-20381700
 625 021c 02003701 		.word	20381698
 626 0220 87FFC8FF 		.word	-3604601
 627 0224 0000FF07 		.word	134152192
 628 0228 00000000 		.word	.LANCHOR1
 629 022c FCFFC8FF 		.word	-3604484
 630 0230 01003700 		.word	3604481
 631 0234 00003701 		.word	20381696
 632 0238 FEFFC8FF 		.word	-3604482
 633              	.LBE56:
 634              	.LBE77:
 635              	.LBE86:
 636              		.cfi_endproc
 637              	.LFE144:
 638              		.size	pmc_sleep, .-pmc_sleep
 639              		.section	.text.pmc_is_wakeup_clocks_restored,"ax",%progbits
 640              		.align	1
 641              		.p2align 2,,3
 642              		.global	pmc_is_wakeup_clocks_restored
 643              		.syntax unified
 644              		.thumb
 645              		.thumb_func
 646              		.fpu fpv5-d16
 647              		.type	pmc_is_wakeup_clocks_restored, %function
 648              	pmc_is_wakeup_clocks_restored:
 649              	.LFB145:
 365:../asf/sam/drivers/pmc/sleep.c **** 		__WFI() ;
 366:../asf/sam/drivers/pmc/sleep.c **** #else
 367:../asf/sam/drivers/pmc/sleep.c **** 		cpu_irq_enable();
 368:../asf/sam/drivers/pmc/sleep.c **** 		__WFE() ;
 369:../asf/sam/drivers/pmc/sleep.c **** #endif
 370:../asf/sam/drivers/pmc/sleep.c **** 		break;
 371:../asf/sam/drivers/pmc/sleep.c **** #endif
 372:../asf/sam/drivers/pmc/sleep.c **** 	}
 373:../asf/sam/drivers/pmc/sleep.c **** }
 374:../asf/sam/drivers/pmc/sleep.c **** 
 375:../asf/sam/drivers/pmc/sleep.c **** bool pmc_is_wakeup_clocks_restored(void)
 376:../asf/sam/drivers/pmc/sleep.c **** {
 650              		.loc 1 376 0
 651              		.cfi_startproc
 652              		@ args = 0, pretend = 0, frame = 0
 653              		@ frame_needed = 0, uses_anonymous_args = 0
 654              		@ link register save eliminated.
 377:../asf/sam/drivers/pmc/sleep.c **** 	return !b_is_sleep_clock_used;
 655              		.loc 1 377 0
ARM GAS  /tmp/ccRqcMej.s 			page 35


 656 0000 024B     		ldr	r3, .L68
 657 0002 1878     		ldrb	r0, [r3]	@ zero_extendqisi2
 378:../asf/sam/drivers/pmc/sleep.c **** }
 658              		.loc 1 378 0
 659 0004 80F00100 		eor	r0, r0, #1
 660 0008 7047     		bx	lr
 661              	.L69:
 662 000a 00BF     		.align	2
 663              	.L68:
 664 000c 00000000 		.word	.LANCHOR0
 665              		.cfi_endproc
 666              	.LFE145:
 667              		.size	pmc_is_wakeup_clocks_restored, .-pmc_is_wakeup_clocks_restored
 668              		.section	.text.pmc_wait_wakeup_clocks_restore,"ax",%progbits
 669              		.align	1
 670              		.p2align 2,,3
 671              		.global	pmc_wait_wakeup_clocks_restore
 672              		.syntax unified
 673              		.thumb
 674              		.thumb_func
 675              		.fpu fpv5-d16
 676              		.type	pmc_wait_wakeup_clocks_restore, %function
 677              	pmc_wait_wakeup_clocks_restore:
 678              	.LFB146:
 379:../asf/sam/drivers/pmc/sleep.c **** 
 380:../asf/sam/drivers/pmc/sleep.c **** void pmc_wait_wakeup_clocks_restore(
 381:../asf/sam/drivers/pmc/sleep.c **** 		pmc_callback_wakeup_clocks_restored_t callback)
 382:../asf/sam/drivers/pmc/sleep.c **** {
 679              		.loc 1 382 0
 680              		.cfi_startproc
 681              		@ args = 0, pretend = 0, frame = 0
 682              		@ frame_needed = 0, uses_anonymous_args = 0
 683              		@ link register save eliminated.
 684              	.LVL32:
 383:../asf/sam/drivers/pmc/sleep.c **** 	if (b_is_sleep_clock_used) {
 685              		.loc 1 383 0
 686 0000 074B     		ldr	r3, .L77
 687 0002 1B78     		ldrb	r3, [r3]	@ zero_extendqisi2
 688 0004 13B9     		cbnz	r3, .L76
 384:../asf/sam/drivers/pmc/sleep.c **** 		cpu_irq_disable();
 385:../asf/sam/drivers/pmc/sleep.c **** 		callback_clocks_restored = callback;
 386:../asf/sam/drivers/pmc/sleep.c **** 	} else if (callback) {
 689              		.loc 1 386 0
 690 0006 00B1     		cbz	r0, .L70
 387:../asf/sam/drivers/pmc/sleep.c **** 		callback();
 691              		.loc 1 387 0
 692 0008 0047     		bx	r0	@ indirect register sibling call
 693              	.LVL33:
 694              	.L70:
 695 000a 7047     		bx	lr
 696              	.L76:
 697              	.LBB87:
 698              	.LBB88:
 699              		.loc 3 330 0
 700              		.syntax unified
 701              	@ 330 "/home/torbjorn/eclipse-workspace/CoreNG/asf/thirdparty/CMSIS/Include/core_cmFunc.h" 1
 702 000c 72B6     		cpsid i
ARM GAS  /tmp/ccRqcMej.s 			page 36


 703              	@ 0 "" 2
 704              		.thumb
 705              		.syntax unified
 706              	.LBE88:
 707              	.LBE87:
 708              	.LBB89:
 709              	.LBB90:
 710              		.loc 2 456 0
 711              		.syntax unified
 712              	@ 456 "/home/torbjorn/eclipse-workspace/CoreNG/asf/thirdparty/CMSIS/Include/core_cmInstr.h" 1
 713 000e BFF35F8F 		dmb
 714              	@ 0 "" 2
 715              		.thumb
 716              		.syntax unified
 717              	.LBE90:
 718              	.LBE89:
 385:../asf/sam/drivers/pmc/sleep.c **** 	} else if (callback) {
 719              		.loc 1 385 0
 720 0012 0449     		ldr	r1, .L77+4
 384:../asf/sam/drivers/pmc/sleep.c **** 		cpu_irq_disable();
 721              		.loc 1 384 0
 722 0014 0022     		movs	r2, #0
 723 0016 044B     		ldr	r3, .L77+8
 385:../asf/sam/drivers/pmc/sleep.c **** 	} else if (callback) {
 724              		.loc 1 385 0
 725 0018 0860     		str	r0, [r1]
 384:../asf/sam/drivers/pmc/sleep.c **** 		cpu_irq_disable();
 726              		.loc 1 384 0
 727 001a 1A70     		strb	r2, [r3]
 728 001c 7047     		bx	lr
 729              	.L78:
 730 001e 00BF     		.align	2
 731              	.L77:
 732 0020 00000000 		.word	.LANCHOR0
 733 0024 00000000 		.word	.LANCHOR1
 734 0028 00000000 		.word	g_interrupt_enabled
 735              		.cfi_endproc
 736              	.LFE146:
 737              		.size	pmc_wait_wakeup_clocks_restore, .-pmc_wait_wakeup_clocks_restore
 738              		.section	.bss.b_is_sleep_clock_used,"aw",%nobits
 739              		.set	.LANCHOR0,. + 0
 740              		.type	b_is_sleep_clock_used, %object
 741              		.size	b_is_sleep_clock_used, 1
 742              	b_is_sleep_clock_used:
 743 0000 00       		.space	1
 744              		.section	.bss.callback_clocks_restored,"aw",%nobits
 745              		.align	2
 746              		.set	.LANCHOR1,. + 0
 747              		.type	callback_clocks_restored, %object
 748              		.size	callback_clocks_restored, 4
 749              	callback_clocks_restored:
 750 0000 00000000 		.space	4
 751              		.section	.bss.cpu_irq_critical_section_counter,"aw",%nobits
 752              		.align	2
 753              		.type	cpu_irq_critical_section_counter, %object
 754              		.size	cpu_irq_critical_section_counter, 4
 755              	cpu_irq_critical_section_counter:
ARM GAS  /tmp/ccRqcMej.s 			page 37


 756 0000 00000000 		.space	4
 757              		.section	.bss.cpu_irq_prev_interrupt_state,"aw",%nobits
 758              		.type	cpu_irq_prev_interrupt_state, %object
 759              		.size	cpu_irq_prev_interrupt_state, 1
 760              	cpu_irq_prev_interrupt_state:
 761 0000 00       		.space	1
 762              		.text
 763              	.Letext0:
 764              		.file 4 "/usr/include/newlib/machine/_default_types.h"
 765              		.file 5 "/usr/include/newlib/sys/_stdint.h"
 766              		.file 6 "/home/torbjorn/eclipse-workspace/CoreNG/asf/thirdparty/CMSIS/Include/core_cm7.h"
 767              		.file 7 "/home/torbjorn/eclipse-workspace/CoreNG/variants/same70/system_same70.h"
 768              		.file 8 "/home/torbjorn/eclipse-workspace/CoreNG/asf/sam/utils/cmsis/same70/include/component/efc.
 769              		.file 9 "/home/torbjorn/eclipse-workspace/CoreNG/asf/sam/utils/cmsis/same70/include/component/pmc.
 770              		.file 10 "/home/torbjorn/eclipse-workspace/CoreNG/asf/sam/utils/cmsis/same70/include/component/sup
 771              		.file 11 "/usr/include/newlib/sys/lock.h"
 772              		.file 12 "/usr/include/newlib/sys/_types.h"
 773              		.file 13 "/usr/lib/gcc/arm-none-eabi/6.3.1/include/stddef.h"
 774              		.file 14 "/usr/include/newlib/sys/reent.h"
 775              		.file 15 "/usr/include/newlib/stdlib.h"
 776              		.file 16 "/home/torbjorn/eclipse-workspace/CoreNG/asf/common/utils/interrupt/interrupt_sam_nvic.h"
 777              		.file 17 "../asf/sam/drivers/pmc/sleep.h"
 778              		.file 18 "../asf/sam/drivers/pmc/pmc.h"