ARM GAS  /tmp/ccVHQYWs.s 			page 1


   1              		.cpu cortex-m7
   2              		.eabi_attribute 28, 1
   3              		.eabi_attribute 20, 1
   4              		.eabi_attribute 21, 1
   5              		.eabi_attribute 23, 3
   6              		.eabi_attribute 24, 1
   7              		.eabi_attribute 25, 1
   8              		.eabi_attribute 26, 1
   9              		.eabi_attribute 30, 2
  10              		.eabi_attribute 34, 1
  11              		.eabi_attribute 18, 4
  12              		.file	"startup_same70.c"
  13              		.text
  14              	.Ltext0:
  15              		.cfi_sections	.debug_frame
  16              		.section	.text.Dummy_Handler,"ax",%progbits
  17              		.align	1
  18              		.p2align 2,,3
  19              		.global	Dummy_Handler
  20              		.syntax unified
  21              		.thumb
  22              		.thumb_func
  23              		.fpu fpv5-d16
  24              		.type	Dummy_Handler, %function
  25              	Dummy_Handler:
  26              	.LFB147:
  27              		.file 1 "../variants/same70/startup_same70.c"
   1:../variants/same70/startup_same70.c **** /**
   2:../variants/same70/startup_same70.c ****  * \file
   3:../variants/same70/startup_same70.c ****  *
   4:../variants/same70/startup_same70.c ****  * Copyright (c) 2015 Atmel Corporation. All rights reserved.
   5:../variants/same70/startup_same70.c ****  *
   6:../variants/same70/startup_same70.c ****  * \asf_license_start
   7:../variants/same70/startup_same70.c ****  *
   8:../variants/same70/startup_same70.c ****  * \page License
   9:../variants/same70/startup_same70.c ****  *
  10:../variants/same70/startup_same70.c ****  * Redistribution and use in source and binary forms, with or without
  11:../variants/same70/startup_same70.c ****  * modification, are permitted provided that the following conditions are met:
  12:../variants/same70/startup_same70.c ****  *
  13:../variants/same70/startup_same70.c ****  * 1. Redistributions of source code must retain the above copyright notice,
  14:../variants/same70/startup_same70.c ****  *    this list of conditions and the following disclaimer.
  15:../variants/same70/startup_same70.c ****  *
  16:../variants/same70/startup_same70.c ****  * 2. Redistributions in binary form must reproduce the above copyright notice,
  17:../variants/same70/startup_same70.c ****  *    this list of conditions and the following disclaimer in the documentation
  18:../variants/same70/startup_same70.c ****  *    and/or other materials provided with the distribution.
  19:../variants/same70/startup_same70.c ****  *
  20:../variants/same70/startup_same70.c ****  * 3. The name of Atmel may not be used to endorse or promote products derived
  21:../variants/same70/startup_same70.c ****  *    from this software without specific prior written permission.
  22:../variants/same70/startup_same70.c ****  *
  23:../variants/same70/startup_same70.c ****  * 4. This software may only be redistributed and used in connection with an
  24:../variants/same70/startup_same70.c ****  *    Atmel microcontroller product.
  25:../variants/same70/startup_same70.c ****  *
  26:../variants/same70/startup_same70.c ****  * THIS SOFTWARE IS PROVIDED BY ATMEL "AS IS" AND ANY EXPRESS OR IMPLIED
  27:../variants/same70/startup_same70.c ****  * WARRANTIES, INCLUDING, BUT NOT LIMITED TO, THE IMPLIED WARRANTIES OF
  28:../variants/same70/startup_same70.c ****  * MERCHANTABILITY, FITNESS FOR A PARTICULAR PURPOSE AND NON-INFRINGEMENT ARE
  29:../variants/same70/startup_same70.c ****  * EXPRESSLY AND SPECIFICALLY DISCLAIMED. IN NO EVENT SHALL ATMEL BE LIABLE FOR
  30:../variants/same70/startup_same70.c ****  * ANY DIRECT, INDIRECT, INCIDENTAL, SPECIAL, EXEMPLARY, OR CONSEQUENTIAL
ARM GAS  /tmp/ccVHQYWs.s 			page 2


  31:../variants/same70/startup_same70.c ****  * DAMAGES (INCLUDING, BUT NOT LIMITED TO, PROCUREMENT OF SUBSTITUTE GOODS
  32:../variants/same70/startup_same70.c ****  * OR SERVICES; LOSS OF USE, DATA, OR PROFITS; OR BUSINESS INTERRUPTION)
  33:../variants/same70/startup_same70.c ****  * HOWEVER CAUSED AND ON ANY THEORY OF LIABILITY, WHETHER IN CONTRACT,
  34:../variants/same70/startup_same70.c ****  * STRICT LIABILITY, OR TORT (INCLUDING NEGLIGENCE OR OTHERWISE) ARISING IN
  35:../variants/same70/startup_same70.c ****  * ANY WAY OUT OF THE USE OF THIS SOFTWARE, EVEN IF ADVISED OF THE
  36:../variants/same70/startup_same70.c ****  * POSSIBILITY OF SUCH DAMAGE.
  37:../variants/same70/startup_same70.c ****  *
  38:../variants/same70/startup_same70.c ****  * \asf_license_stop
  39:../variants/same70/startup_same70.c ****  *
  40:../variants/same70/startup_same70.c ****  */
  41:../variants/same70/startup_same70.c **** /*
  42:../variants/same70/startup_same70.c ****  * Support and FAQ: visit <a href="http://www.atmel.com/design-support/">Atmel Support</a>
  43:../variants/same70/startup_same70.c ****  */
  44:../variants/same70/startup_same70.c **** 
  45:../variants/same70/startup_same70.c **** #include "same70.h"
  46:../variants/same70/startup_same70.c **** #include "system_same70.h"
  47:../variants/same70/startup_same70.c **** #include "wdt/wdt.h"
  48:../variants/same70/startup_same70.c **** 
  49:../variants/same70/startup_same70.c **** #if __FPU_USED /* CMSIS defined value to indicate usage of FPU */
  50:../variants/same70/startup_same70.c **** #include "fpu/fpu.h"
  51:../variants/same70/startup_same70.c **** #endif
  52:../variants/same70/startup_same70.c **** 
  53:../variants/same70/startup_same70.c **** extern void __libc_init_array(void);
  54:../variants/same70/startup_same70.c **** extern void init(void);
  55:../variants/same70/startup_same70.c **** extern void UrgentInit(void);
  56:../variants/same70/startup_same70.c **** extern void AppMain();
  57:../variants/same70/startup_same70.c **** 
  58:../variants/same70/startup_same70.c **** /* Initialize segments */
  59:../variants/same70/startup_same70.c **** extern uint32_t _sfixed;
  60:../variants/same70/startup_same70.c **** //extern uint32_t _efixed;
  61:../variants/same70/startup_same70.c **** extern uint32_t _etext;
  62:../variants/same70/startup_same70.c **** extern uint32_t _srelocate;
  63:../variants/same70/startup_same70.c **** extern uint32_t _erelocate;
  64:../variants/same70/startup_same70.c **** extern uint32_t _szero;
  65:../variants/same70/startup_same70.c **** extern uint32_t _ezero;
  66:../variants/same70/startup_same70.c **** //extern uint32_t _sstack;
  67:../variants/same70/startup_same70.c **** extern uint32_t _estack;
  68:../variants/same70/startup_same70.c **** 
  69:../variants/same70/startup_same70.c **** /* Default empty handler */
  70:../variants/same70/startup_same70.c **** void Dummy_Handler(void);
  71:../variants/same70/startup_same70.c **** 
  72:../variants/same70/startup_same70.c **** /* Calls to the core */
  73:../variants/same70/startup_same70.c **** extern int sysTickHook(void);
  74:../variants/same70/startup_same70.c **** extern void TimeTick_Increment(void);
  75:../variants/same70/startup_same70.c **** 
  76:../variants/same70/startup_same70.c **** /* Cortex-M7 core handlers */
  77:../variants/same70/startup_same70.c **** void NMI_Handler        ( void ) __attribute__ ((weak, alias("Dummy_Handler")));
  78:../variants/same70/startup_same70.c **** void HardFault_Handler  ( void ) __attribute__ ((weak, alias("Dummy_Handler")));
  79:../variants/same70/startup_same70.c **** void MemManage_Handler  ( void ) __attribute__ ((weak, alias("Dummy_Handler")));
  80:../variants/same70/startup_same70.c **** void BusFault_Handler   ( void ) __attribute__ ((weak, alias("Dummy_Handler")));
  81:../variants/same70/startup_same70.c **** void UsageFault_Handler ( void ) __attribute__ ((weak, alias("Dummy_Handler")));
  82:../variants/same70/startup_same70.c **** 
  83:../variants/same70/startup_same70.c **** #ifndef RTOS
  84:../variants/same70/startup_same70.c **** void SVC_Handler        ( void ) __attribute__ ((weak, alias("Dummy_Handler")));
  85:../variants/same70/startup_same70.c **** void PendSV_Handler     ( void ) __attribute__ ((weak, alias("Dummy_Handler")));
  86:../variants/same70/startup_same70.c **** #endif
  87:../variants/same70/startup_same70.c **** 
ARM GAS  /tmp/ccVHQYWs.s 			page 3


  88:../variants/same70/startup_same70.c **** void DebugMon_Handler   ( void ) __attribute__ ((weak, alias("Dummy_Handler")));
  89:../variants/same70/startup_same70.c **** 
  90:../variants/same70/startup_same70.c **** #ifdef RTOS
  91:../variants/same70/startup_same70.c **** void vApplicationTickHook(void)
  92:../variants/same70/startup_same70.c **** #else
  93:../variants/same70/startup_same70.c **** void SysTick_Handler(void)
  94:../variants/same70/startup_same70.c **** #endif
  95:../variants/same70/startup_same70.c **** {
  96:../variants/same70/startup_same70.c **** 	if (sysTickHook())
  97:../variants/same70/startup_same70.c **** 		return;
  98:../variants/same70/startup_same70.c **** 
  99:../variants/same70/startup_same70.c **** 	wdt_restart(WDT);							// kick the watchdog
 100:../variants/same70/startup_same70.c **** 	TimeTick_Increment();						// increment tick count each ms
 101:../variants/same70/startup_same70.c **** }
 102:../variants/same70/startup_same70.c **** 
 103:../variants/same70/startup_same70.c **** /* Peripherals handlers */
 104:../variants/same70/startup_same70.c **** void SUPC_Handler   ( void ) __attribute__ ((weak, alias("Dummy_Handler")));
 105:../variants/same70/startup_same70.c **** void RSTC_Handler   ( void ) __attribute__ ((weak, alias("Dummy_Handler")));
 106:../variants/same70/startup_same70.c **** void RTC_Handler    ( void ) __attribute__ ((weak, alias("Dummy_Handler")));
 107:../variants/same70/startup_same70.c **** void RTT_Handler    ( void ) __attribute__ ((weak, alias("Dummy_Handler")));
 108:../variants/same70/startup_same70.c **** void WDT_Handler    ( void ) __attribute__ ((weak, alias("Dummy_Handler")));
 109:../variants/same70/startup_same70.c **** void PMC_Handler    ( void ) __attribute__ ((weak, alias("Dummy_Handler")));
 110:../variants/same70/startup_same70.c **** void EFC_Handler    ( void ) __attribute__ ((weak, alias("Dummy_Handler")));
 111:../variants/same70/startup_same70.c **** void UART0_Handler  ( void ) __attribute__ ((weak, alias("Dummy_Handler")));
 112:../variants/same70/startup_same70.c **** void UART1_Handler  ( void ) __attribute__ ((weak, alias("Dummy_Handler")));
 113:../variants/same70/startup_same70.c **** void PIOA_Handler   ( void ) __attribute__ ((weak, alias("Dummy_Handler")));
 114:../variants/same70/startup_same70.c **** void PIOB_Handler   ( void ) __attribute__ ((weak, alias("Dummy_Handler")));
 115:../variants/same70/startup_same70.c **** #ifdef _SAME70_PIOC_INSTANCE_
 116:../variants/same70/startup_same70.c **** void PIOC_Handler   ( void ) __attribute__ ((weak, alias("Dummy_Handler")));
 117:../variants/same70/startup_same70.c **** #endif /* _SAME70_PIOC_INSTANCE_ */
 118:../variants/same70/startup_same70.c **** void USART0_Handler ( void ) __attribute__ ((weak, alias("Dummy_Handler")));
 119:../variants/same70/startup_same70.c **** void USART1_Handler ( void ) __attribute__ ((weak, alias("Dummy_Handler")));
 120:../variants/same70/startup_same70.c **** void USART2_Handler ( void ) __attribute__ ((weak, alias("Dummy_Handler")));
 121:../variants/same70/startup_same70.c **** void PIOD_Handler   ( void ) __attribute__ ((weak, alias("Dummy_Handler")));
 122:../variants/same70/startup_same70.c **** #ifdef _SAME70_PIOE_INSTANCE_
 123:../variants/same70/startup_same70.c **** void PIOE_Handler   ( void ) __attribute__ ((weak, alias("Dummy_Handler")));
 124:../variants/same70/startup_same70.c **** #endif /* _SAME70_PIOE_INSTANCE_ */
 125:../variants/same70/startup_same70.c **** #ifdef _SAME70_HSMCI_INSTANCE_
 126:../variants/same70/startup_same70.c **** void HSMCI_Handler  ( void ) __attribute__ ((weak, alias("Dummy_Handler")));
 127:../variants/same70/startup_same70.c **** #endif /* _SAME70_HSMCI_INSTANCE_ */
 128:../variants/same70/startup_same70.c **** void TWIHS0_Handler ( void ) __attribute__ ((weak, alias("Dummy_Handler")));
 129:../variants/same70/startup_same70.c **** void TWIHS1_Handler ( void ) __attribute__ ((weak, alias("Dummy_Handler")));
 130:../variants/same70/startup_same70.c **** void SPI0_Handler   ( void ) __attribute__ ((weak, alias("Dummy_Handler")));
 131:../variants/same70/startup_same70.c **** void SSC_Handler    ( void ) __attribute__ ((weak, alias("Dummy_Handler")));
 132:../variants/same70/startup_same70.c **** void TC0_Handler    ( void ) __attribute__ ((weak, alias("Dummy_Handler")));
 133:../variants/same70/startup_same70.c **** void TC1_Handler    ( void ) __attribute__ ((weak, alias("Dummy_Handler")));
 134:../variants/same70/startup_same70.c **** void TC2_Handler    ( void ) __attribute__ ((weak, alias("Dummy_Handler")));
 135:../variants/same70/startup_same70.c **** #ifdef _SAME70_TC1_INSTANCE_
 136:../variants/same70/startup_same70.c **** void TC3_Handler    ( void ) __attribute__ ((weak, alias("Dummy_Handler")));
 137:../variants/same70/startup_same70.c **** #endif /* _SAME70_TC1_INSTANCE_ */
 138:../variants/same70/startup_same70.c **** #ifdef _SAME70_TC1_INSTANCE_
 139:../variants/same70/startup_same70.c **** void TC4_Handler    ( void ) __attribute__ ((weak, alias("Dummy_Handler")));
 140:../variants/same70/startup_same70.c **** #endif /* _SAME70_TC1_INSTANCE_ */
 141:../variants/same70/startup_same70.c **** #ifdef _SAME70_TC1_INSTANCE_
 142:../variants/same70/startup_same70.c **** void TC5_Handler    ( void ) __attribute__ ((weak, alias("Dummy_Handler")));
 143:../variants/same70/startup_same70.c **** #endif /* _SAME70_TC1_INSTANCE_ */
 144:../variants/same70/startup_same70.c **** void AFEC0_Handler  ( void ) __attribute__ ((weak, alias("Dummy_Handler")));
ARM GAS  /tmp/ccVHQYWs.s 			page 4


 145:../variants/same70/startup_same70.c **** #ifdef _SAME70_DACC_INSTANCE_
 146:../variants/same70/startup_same70.c **** void DACC_Handler   ( void ) __attribute__ ((weak, alias("Dummy_Handler")));
 147:../variants/same70/startup_same70.c **** #endif /* _SAME70_DACC_INSTANCE_ */
 148:../variants/same70/startup_same70.c **** void PWM0_Handler   ( void ) __attribute__ ((weak, alias("Dummy_Handler")));
 149:../variants/same70/startup_same70.c **** void ICM_Handler    ( void ) __attribute__ ((weak, alias("Dummy_Handler")));
 150:../variants/same70/startup_same70.c **** void ACC_Handler    ( void ) __attribute__ ((weak, alias("Dummy_Handler")));
 151:../variants/same70/startup_same70.c **** void USBHS_Handler  ( void ) __attribute__ ((weak, alias("Dummy_Handler")));
 152:../variants/same70/startup_same70.c **** void MCAN0_Handler  ( void ) __attribute__ ((weak, alias("Dummy_Handler")));
 153:../variants/same70/startup_same70.c **** void MCAN1_Handler  ( void ) __attribute__ ((weak, alias("Dummy_Handler")));
 154:../variants/same70/startup_same70.c **** void GMAC_Handler   ( void ) __attribute__ ((weak, alias("Dummy_Handler")));
 155:../variants/same70/startup_same70.c **** void AFEC1_Handler  ( void ) __attribute__ ((weak, alias("Dummy_Handler")));
 156:../variants/same70/startup_same70.c **** #ifdef _SAME70_TWIHS2_INSTANCE_
 157:../variants/same70/startup_same70.c **** void TWIHS2_Handler ( void ) __attribute__ ((weak, alias("Dummy_Handler")));
 158:../variants/same70/startup_same70.c **** #endif /* _SAME70_TWIHS2_INSTANCE_ */
 159:../variants/same70/startup_same70.c **** void SPI1_Handler   ( void ) __attribute__ ((weak, alias("Dummy_Handler")));
 160:../variants/same70/startup_same70.c **** void QSPI_Handler   ( void ) __attribute__ ((weak, alias("Dummy_Handler")));
 161:../variants/same70/startup_same70.c **** void UART2_Handler  ( void ) __attribute__ ((weak, alias("Dummy_Handler")));
 162:../variants/same70/startup_same70.c **** void UART3_Handler  ( void ) __attribute__ ((weak, alias("Dummy_Handler")));
 163:../variants/same70/startup_same70.c **** void UART4_Handler  ( void ) __attribute__ ((weak, alias("Dummy_Handler")));
 164:../variants/same70/startup_same70.c **** #ifdef _SAME70_TC2_INSTANCE_
 165:../variants/same70/startup_same70.c **** void TC6_Handler    ( void ) __attribute__ ((weak, alias("Dummy_Handler")));
 166:../variants/same70/startup_same70.c **** #endif /* _SAME70_TC2_INSTANCE_ */
 167:../variants/same70/startup_same70.c **** #ifdef _SAME70_TC2_INSTANCE_
 168:../variants/same70/startup_same70.c **** void TC7_Handler    ( void ) __attribute__ ((weak, alias("Dummy_Handler")));
 169:../variants/same70/startup_same70.c **** #endif /* _SAME70_TC2_INSTANCE_ */
 170:../variants/same70/startup_same70.c **** #ifdef _SAME70_TC2_INSTANCE_
 171:../variants/same70/startup_same70.c **** void TC8_Handler    ( void ) __attribute__ ((weak, alias("Dummy_Handler")));
 172:../variants/same70/startup_same70.c **** #endif /* _SAME70_TC2_INSTANCE_ */
 173:../variants/same70/startup_same70.c **** void TC9_Handler    ( void ) __attribute__ ((weak, alias("Dummy_Handler")));
 174:../variants/same70/startup_same70.c **** void TC10_Handler   ( void ) __attribute__ ((weak, alias("Dummy_Handler")));
 175:../variants/same70/startup_same70.c **** void TC11_Handler   ( void ) __attribute__ ((weak, alias("Dummy_Handler")));
 176:../variants/same70/startup_same70.c **** void AES_Handler    ( void ) __attribute__ ((weak, alias("Dummy_Handler")));
 177:../variants/same70/startup_same70.c **** void TRNG_Handler   ( void ) __attribute__ ((weak, alias("Dummy_Handler")));
 178:../variants/same70/startup_same70.c **** void XDMAC_Handler  ( void ) __attribute__ ((weak, alias("Dummy_Handler")));
 179:../variants/same70/startup_same70.c **** void ISI_Handler    ( void ) __attribute__ ((weak, alias("Dummy_Handler")));
 180:../variants/same70/startup_same70.c **** void PWM1_Handler   ( void ) __attribute__ ((weak, alias("Dummy_Handler")));
 181:../variants/same70/startup_same70.c **** #ifdef _SAME70_SDRAMC_INSTANCE_
 182:../variants/same70/startup_same70.c **** void SDRAMC_Handler ( void ) __attribute__ ((weak, alias("Dummy_Handler")));
 183:../variants/same70/startup_same70.c **** #endif /* _SAME70_SDRAMC_INSTANCE_ */
 184:../variants/same70/startup_same70.c **** void RSWDT_Handler  ( void ) __attribute__ ((weak, alias("Dummy_Handler")));
 185:../variants/same70/startup_same70.c **** 
 186:../variants/same70/startup_same70.c **** /* Exception Table */
 187:../variants/same70/startup_same70.c **** __attribute__ ((section(".vectors")))
 188:../variants/same70/startup_same70.c **** const DeviceVectors exception_table = {
 189:../variants/same70/startup_same70.c **** 
 190:../variants/same70/startup_same70.c ****         /* Configure Initial Stack Pointer, using linker-generated symbols */
 191:../variants/same70/startup_same70.c ****         .pvStack = (void*) (&_estack),
 192:../variants/same70/startup_same70.c **** 
 193:../variants/same70/startup_same70.c ****         .pfnReset_Handler      = (void*) Reset_Handler,
 194:../variants/same70/startup_same70.c ****         .pfnNMI_Handler        = (void*) NMI_Handler,
 195:../variants/same70/startup_same70.c ****         .pfnHardFault_Handler  = (void*) HardFault_Handler,
 196:../variants/same70/startup_same70.c ****         .pfnMemManage_Handler  = (void*) MemManage_Handler,
 197:../variants/same70/startup_same70.c ****         .pfnBusFault_Handler   = (void*) BusFault_Handler,
 198:../variants/same70/startup_same70.c ****         .pfnUsageFault_Handler = (void*) UsageFault_Handler,
 199:../variants/same70/startup_same70.c ****         .pfnReserved1_Handler  = (void*) (0UL),          /* Reserved */
 200:../variants/same70/startup_same70.c ****         .pfnReserved2_Handler  = (void*) (0UL),          /* Reserved */
 201:../variants/same70/startup_same70.c ****         .pfnReserved3_Handler  = (void*) (0UL),          /* Reserved */
ARM GAS  /tmp/ccVHQYWs.s 			page 5


 202:../variants/same70/startup_same70.c ****         .pfnReserved4_Handler  = (void*) (0UL),          /* Reserved */
 203:../variants/same70/startup_same70.c ****         .pfnSVC_Handler        = (void*) SVC_Handler,
 204:../variants/same70/startup_same70.c ****         .pfnDebugMon_Handler   = (void*) DebugMon_Handler,
 205:../variants/same70/startup_same70.c ****         .pfnReserved5_Handler  = (void*) (0UL),          /* Reserved */
 206:../variants/same70/startup_same70.c ****         .pfnPendSV_Handler     = (void*) PendSV_Handler,
 207:../variants/same70/startup_same70.c ****         .pfnSysTick_Handler    = (void*) SysTick_Handler,
 208:../variants/same70/startup_same70.c **** 
 209:../variants/same70/startup_same70.c ****         /* Configurable interrupts */
 210:../variants/same70/startup_same70.c ****         .pfnSUPC_Handler   = (void*) SUPC_Handler,   /* 0  Supply Controller */
 211:../variants/same70/startup_same70.c ****         .pfnRSTC_Handler   = (void*) RSTC_Handler,   /* 1  Reset Controller */
 212:../variants/same70/startup_same70.c ****         .pfnRTC_Handler    = (void*) RTC_Handler,    /* 2  Real Time Clock */
 213:../variants/same70/startup_same70.c ****         .pfnRTT_Handler    = (void*) RTT_Handler,    /* 3  Real Time Timer */
 214:../variants/same70/startup_same70.c ****         .pfnWDT_Handler    = (void*) WDT_Handler,    /* 4  Watchdog Timer */
 215:../variants/same70/startup_same70.c ****         .pfnPMC_Handler    = (void*) PMC_Handler,    /* 5  Power Management Controller */
 216:../variants/same70/startup_same70.c ****         .pfnEFC_Handler    = (void*) EFC_Handler,    /* 6  Enhanced Embedded Flash Controller */
 217:../variants/same70/startup_same70.c ****         .pfnUART0_Handler  = (void*) UART0_Handler,  /* 7  UART 0 */
 218:../variants/same70/startup_same70.c ****         .pfnUART1_Handler  = (void*) UART1_Handler,  /* 8  UART 1 */
 219:../variants/same70/startup_same70.c ****         .pvReserved9       = (void*) (0UL),          /* 9  Reserved */
 220:../variants/same70/startup_same70.c ****         .pfnPIOA_Handler   = (void*) PIOA_Handler,   /* 10 Parallel I/O Controller A */
 221:../variants/same70/startup_same70.c ****         .pfnPIOB_Handler   = (void*) PIOB_Handler,   /* 11 Parallel I/O Controller B */
 222:../variants/same70/startup_same70.c **** #ifdef _SAME70_PIOC_INSTANCE_
 223:../variants/same70/startup_same70.c ****         .pfnPIOC_Handler   = (void*) PIOC_Handler,   /* 12 Parallel I/O Controller C */
 224:../variants/same70/startup_same70.c **** #else
 225:../variants/same70/startup_same70.c ****         .pvReserved12      = (void*) (0UL),          /* 12 Reserved */
 226:../variants/same70/startup_same70.c **** #endif /* _SAME70_PIOC_INSTANCE_ */
 227:../variants/same70/startup_same70.c ****         .pfnUSART0_Handler = (void*) USART0_Handler, /* 13 USART 0 */
 228:../variants/same70/startup_same70.c ****         .pfnUSART1_Handler = (void*) USART1_Handler, /* 14 USART 1 */
 229:../variants/same70/startup_same70.c ****         .pfnUSART2_Handler = (void*) USART2_Handler, /* 15 USART 2 */
 230:../variants/same70/startup_same70.c ****         .pfnPIOD_Handler   = (void*) PIOD_Handler,   /* 16 Parallel I/O Controller D */
 231:../variants/same70/startup_same70.c **** #ifdef _SAME70_PIOE_INSTANCE_
 232:../variants/same70/startup_same70.c ****         .pfnPIOE_Handler   = (void*) PIOE_Handler,   /* 17 Parallel I/O Controller E */
 233:../variants/same70/startup_same70.c **** #else
 234:../variants/same70/startup_same70.c ****         .pvReserved17      = (void*) (0UL),          /* 17 Reserved */
 235:../variants/same70/startup_same70.c **** #endif /* _SAME70_PIOE_INSTANCE_ */
 236:../variants/same70/startup_same70.c **** #ifdef _SAME70_HSMCI_INSTANCE_
 237:../variants/same70/startup_same70.c ****         .pfnHSMCI_Handler  = (void*) HSMCI_Handler,  /* 18 Multimedia Card Interface */
 238:../variants/same70/startup_same70.c **** #else
 239:../variants/same70/startup_same70.c ****         .pvReserved18      = (void*) (0UL),          /* 18 Reserved */
 240:../variants/same70/startup_same70.c **** #endif /* _SAME70_HSMCI_INSTANCE_ */
 241:../variants/same70/startup_same70.c ****         .pfnTWIHS0_Handler = (void*) TWIHS0_Handler, /* 19 Two Wire Interface 0 HS */
 242:../variants/same70/startup_same70.c ****         .pfnTWIHS1_Handler = (void*) TWIHS1_Handler, /* 20 Two Wire Interface 1 HS */
 243:../variants/same70/startup_same70.c ****         .pfnSPI0_Handler   = (void*) SPI0_Handler,   /* 21 Serial Peripheral Interface 0 */
 244:../variants/same70/startup_same70.c ****         .pfnSSC_Handler    = (void*) SSC_Handler,    /* 22 Synchronous Serial Controller */
 245:../variants/same70/startup_same70.c ****         .pfnTC0_Handler    = (void*) TC0_Handler,    /* 23 Timer/Counter 0 */
 246:../variants/same70/startup_same70.c ****         .pfnTC1_Handler    = (void*) TC1_Handler,    /* 24 Timer/Counter 1 */
 247:../variants/same70/startup_same70.c ****         .pfnTC2_Handler    = (void*) TC2_Handler,    /* 25 Timer/Counter 2 */
 248:../variants/same70/startup_same70.c **** #ifdef _SAME70_TC1_INSTANCE_
 249:../variants/same70/startup_same70.c ****         .pfnTC3_Handler    = (void*) TC3_Handler,    /* 26 Timer/Counter 3 */
 250:../variants/same70/startup_same70.c **** #else
 251:../variants/same70/startup_same70.c ****         .pvReserved26      = (void*) (0UL),          /* 26 Reserved */
 252:../variants/same70/startup_same70.c **** #endif /* _SAME70_TC1_INSTANCE_ */
 253:../variants/same70/startup_same70.c **** #ifdef _SAME70_TC1_INSTANCE_
 254:../variants/same70/startup_same70.c ****         .pfnTC4_Handler    = (void*) TC4_Handler,    /* 27 Timer/Counter 4 */
 255:../variants/same70/startup_same70.c **** #else
 256:../variants/same70/startup_same70.c ****         .pvReserved27      = (void*) (0UL),          /* 27 Reserved */
 257:../variants/same70/startup_same70.c **** #endif /* _SAME70_TC1_INSTANCE_ */
 258:../variants/same70/startup_same70.c **** #ifdef _SAME70_TC1_INSTANCE_
ARM GAS  /tmp/ccVHQYWs.s 			page 6


 259:../variants/same70/startup_same70.c ****         .pfnTC5_Handler    = (void*) TC5_Handler,    /* 28 Timer/Counter 5 */
 260:../variants/same70/startup_same70.c **** #else
 261:../variants/same70/startup_same70.c ****         .pvReserved28      = (void*) (0UL),          /* 28 Reserved */
 262:../variants/same70/startup_same70.c **** #endif /* _SAME70_TC1_INSTANCE_ */
 263:../variants/same70/startup_same70.c ****         .pfnAFEC0_Handler  = (void*) AFEC0_Handler,  /* 29 Analog Front End 0 */
 264:../variants/same70/startup_same70.c **** #ifdef _SAME70_DACC_INSTANCE_
 265:../variants/same70/startup_same70.c ****         .pfnDACC_Handler   = (void*) DACC_Handler,   /* 30 Digital To Analog Converter */
 266:../variants/same70/startup_same70.c **** #else
 267:../variants/same70/startup_same70.c ****         .pvReserved30      = (void*) (0UL),          /* 30 Reserved */
 268:../variants/same70/startup_same70.c **** #endif /* _SAME70_DACC_INSTANCE_ */
 269:../variants/same70/startup_same70.c ****         .pfnPWM0_Handler   = (void*) PWM0_Handler,   /* 31 Pulse Width Modulation 0 */
 270:../variants/same70/startup_same70.c ****         .pfnICM_Handler    = (void*) ICM_Handler,    /* 32 Integrity Check Monitor */
 271:../variants/same70/startup_same70.c ****         .pfnACC_Handler    = (void*) ACC_Handler,    /* 33 Analog Comparator */
 272:../variants/same70/startup_same70.c ****         .pfnUSBHS_Handler  = (void*) USBHS_Handler,  /* 34 USB Host / Device Controller */
 273:../variants/same70/startup_same70.c ****         .pfnMCAN0_Handler  = (void*) MCAN0_Handler,  /* 35 MCAN Controller 0 */
 274:../variants/same70/startup_same70.c ****         .pvReserved36      = (void*) (0UL),          /* 36 Reserved */
 275:../variants/same70/startup_same70.c ****         .pfnMCAN1_Handler  = (void*) MCAN1_Handler,  /* 37 MCAN Controller 1 */
 276:../variants/same70/startup_same70.c ****         .pvReserved38      = (void*) (0UL),          /* 38 Reserved */
 277:../variants/same70/startup_same70.c ****         .pfnGMAC_Handler   = (void*) GMAC_Handler,   /* 39 Ethernet MAC */
 278:../variants/same70/startup_same70.c ****         .pfnAFEC1_Handler  = (void*) AFEC1_Handler,  /* 40 Analog Front End 1 */
 279:../variants/same70/startup_same70.c **** #ifdef _SAME70_TWIHS2_INSTANCE_
 280:../variants/same70/startup_same70.c ****         .pfnTWIHS2_Handler = (void*) TWIHS2_Handler, /* 41 Two Wire Interface 2 HS */
 281:../variants/same70/startup_same70.c **** #else
 282:../variants/same70/startup_same70.c ****         .pvReserved41      = (void*) (0UL),          /* 41 Reserved */
 283:../variants/same70/startup_same70.c **** #endif /* _SAME70_TWIHS2_INSTANCE_ */
 284:../variants/same70/startup_same70.c ****         .pfnSPI1_Handler   = (void*) SPI1_Handler,   /* 42 Serial Peripheral Interface 1 */
 285:../variants/same70/startup_same70.c ****         .pfnQSPI_Handler   = (void*) QSPI_Handler,   /* 43 Quad I/O Serial Peripheral Interface */
 286:../variants/same70/startup_same70.c ****         .pfnUART2_Handler  = (void*) UART2_Handler,  /* 44 UART 2 */
 287:../variants/same70/startup_same70.c ****         .pfnUART3_Handler  = (void*) UART3_Handler,  /* 45 UART 3 */
 288:../variants/same70/startup_same70.c ****         .pfnUART4_Handler  = (void*) UART4_Handler,  /* 46 UART 4 */
 289:../variants/same70/startup_same70.c **** #ifdef _SAME70_TC2_INSTANCE_
 290:../variants/same70/startup_same70.c ****         .pfnTC6_Handler    = (void*) TC6_Handler,    /* 47 Timer/Counter 6 */
 291:../variants/same70/startup_same70.c **** #else
 292:../variants/same70/startup_same70.c ****         .pvReserved47      = (void*) (0UL),          /* 47 Reserved */
 293:../variants/same70/startup_same70.c **** #endif /* _SAME70_TC2_INSTANCE_ */
 294:../variants/same70/startup_same70.c **** #ifdef _SAME70_TC2_INSTANCE_
 295:../variants/same70/startup_same70.c ****         .pfnTC7_Handler    = (void*) TC7_Handler,    /* 48 Timer/Counter 7 */
 296:../variants/same70/startup_same70.c **** #else
 297:../variants/same70/startup_same70.c ****         .pvReserved48      = (void*) (0UL),          /* 48 Reserved */
 298:../variants/same70/startup_same70.c **** #endif /* _SAME70_TC2_INSTANCE_ */
 299:../variants/same70/startup_same70.c **** #ifdef _SAME70_TC2_INSTANCE_
 300:../variants/same70/startup_same70.c ****         .pfnTC8_Handler    = (void*) TC8_Handler,    /* 49 Timer/Counter 8 */
 301:../variants/same70/startup_same70.c **** #else
 302:../variants/same70/startup_same70.c ****         .pvReserved49      = (void*) (0UL),          /* 49 Reserved */
 303:../variants/same70/startup_same70.c **** #endif /* _SAME70_TC2_INSTANCE_ */
 304:../variants/same70/startup_same70.c ****         .pfnTC9_Handler    = (void*) TC9_Handler,    /* 50 Timer/Counter 9 */
 305:../variants/same70/startup_same70.c ****         .pfnTC10_Handler   = (void*) TC10_Handler,   /* 51 Timer/Counter 10 */
 306:../variants/same70/startup_same70.c ****         .pfnTC11_Handler   = (void*) TC11_Handler,   /* 52 Timer/Counter 11 */
 307:../variants/same70/startup_same70.c ****         .pvReserved53      = (void*) (0UL),          /* 53 Reserved */
 308:../variants/same70/startup_same70.c ****         .pvReserved54      = (void*) (0UL),          /* 54 Reserved */
 309:../variants/same70/startup_same70.c ****         .pvReserved55      = (void*) (0UL),          /* 55 Reserved */
 310:../variants/same70/startup_same70.c ****         .pfnAES_Handler    = (void*) AES_Handler,    /* 56 AES */
 311:../variants/same70/startup_same70.c ****         .pfnTRNG_Handler   = (void*) TRNG_Handler,   /* 57 True Random Generator */
 312:../variants/same70/startup_same70.c ****         .pfnXDMAC_Handler  = (void*) XDMAC_Handler,  /* 58 DMA */
 313:../variants/same70/startup_same70.c ****         .pfnISI_Handler    = (void*) ISI_Handler,    /* 59 Camera Interface */
 314:../variants/same70/startup_same70.c ****         .pfnPWM1_Handler   = (void*) PWM1_Handler,   /* 60 Pulse Width Modulation 1 */
 315:../variants/same70/startup_same70.c ****         .pvReserved61      = (void*) (0UL),          /* 61 Reserved */
ARM GAS  /tmp/ccVHQYWs.s 			page 7


 316:../variants/same70/startup_same70.c **** #ifdef _SAME70_SDRAMC_INSTANCE_
 317:../variants/same70/startup_same70.c ****         .pfnSDRAMC_Handler = (void*) SDRAMC_Handler, /* 62 SDRAM Controller */
 318:../variants/same70/startup_same70.c **** #else
 319:../variants/same70/startup_same70.c ****         .pvReserved62      = (void*) (0UL),          /* 62 Reserved */
 320:../variants/same70/startup_same70.c **** #endif /* _SAME70_SDRAMC_INSTANCE_ */
 321:../variants/same70/startup_same70.c ****         .pfnRSWDT_Handler  = (void*) RSWDT_Handler   /* 63 Reinforced Secure Watchdog Timer */
 322:../variants/same70/startup_same70.c **** };
 323:../variants/same70/startup_same70.c **** 
 324:../variants/same70/startup_same70.c **** /**
 325:../variants/same70/startup_same70.c ****  * \brief This is the code that gets called on processor reset.
 326:../variants/same70/startup_same70.c ****  * To initialize the device, and call the main() routine.
 327:../variants/same70/startup_same70.c ****  */
 328:../variants/same70/startup_same70.c **** void Reset_Handler(void)
 329:../variants/same70/startup_same70.c **** {
 330:../variants/same70/startup_same70.c **** 	uint32_t *pSrc, *pDest;
 331:../variants/same70/startup_same70.c **** 
 332:../variants/same70/startup_same70.c **** 	/* Initialize the relocate segment */
 333:../variants/same70/startup_same70.c **** 	pSrc = &_etext;
 334:../variants/same70/startup_same70.c **** 	pDest = &_srelocate;
 335:../variants/same70/startup_same70.c **** 
 336:../variants/same70/startup_same70.c **** 	if (pSrc != pDest) {
 337:../variants/same70/startup_same70.c **** 		for (; pDest < &_erelocate;) {
 338:../variants/same70/startup_same70.c **** 			*pDest++ = *pSrc++;
 339:../variants/same70/startup_same70.c **** 		}
 340:../variants/same70/startup_same70.c **** 	}
 341:../variants/same70/startup_same70.c **** 
 342:../variants/same70/startup_same70.c **** 	/* Clear the zero segment */
 343:../variants/same70/startup_same70.c **** 	for (pDest = &_szero; pDest < &_ezero;) {
 344:../variants/same70/startup_same70.c **** 		*pDest++ = 0;
 345:../variants/same70/startup_same70.c **** 	}
 346:../variants/same70/startup_same70.c **** 
 347:../variants/same70/startup_same70.c **** 	/* Set the vector table base address */
 348:../variants/same70/startup_same70.c **** 	pSrc = (uint32_t *) & _sfixed;
 349:../variants/same70/startup_same70.c **** 	SCB->VTOR = ((uint32_t) pSrc & SCB_VTOR_TBLOFF_Msk);
 350:../variants/same70/startup_same70.c **** 
 351:../variants/same70/startup_same70.c **** #if __FPU_USED
 352:../variants/same70/startup_same70.c **** 	fpu_enable();
 353:../variants/same70/startup_same70.c **** #else
 354:../variants/same70/startup_same70.c **** # warning Compiling without FPU support
 355:../variants/same70/startup_same70.c **** #endif
 356:../variants/same70/startup_same70.c **** 
 357:../variants/same70/startup_same70.c **** 	SystemInit();			// set up the clock
 358:../variants/same70/startup_same70.c **** 	UrgentInit();			// initialise anything in the main application that can't wait
 359:../variants/same70/startup_same70.c **** 	__libc_init_array();	// initialize C library and call C++ constructors for static data
 360:../variants/same70/startup_same70.c **** 	init();					// initialise variant
 361:../variants/same70/startup_same70.c **** 
 362:../variants/same70/startup_same70.c **** #ifndef RTOS
 363:../variants/same70/startup_same70.c **** 	// Set Systick to 1ms interval, common to all SAME70 variants
 364:../variants/same70/startup_same70.c **** 	if (SysTick_Config(SystemCoreClock / 1000))
 365:../variants/same70/startup_same70.c **** 	{
 366:../variants/same70/startup_same70.c **** 		// Capture error
 367:../variants/same70/startup_same70.c **** 		while (true);
 368:../variants/same70/startup_same70.c **** 	}
 369:../variants/same70/startup_same70.c **** #endif
 370:../variants/same70/startup_same70.c **** 
 371:../variants/same70/startup_same70.c **** 	AppMain();
 372:../variants/same70/startup_same70.c **** }
ARM GAS  /tmp/ccVHQYWs.s 			page 8


 373:../variants/same70/startup_same70.c **** 
 374:../variants/same70/startup_same70.c **** /**
 375:../variants/same70/startup_same70.c ****  * \brief Default interrupt handler for unused IRQs.
 376:../variants/same70/startup_same70.c ****  */
 377:../variants/same70/startup_same70.c **** void Dummy_Handler(void)
 378:../variants/same70/startup_same70.c **** {
  28              		.loc 1 378 0
  29              		.cfi_startproc
  30              		@ Volatile: function does not return.
  31              		@ args = 0, pretend = 0, frame = 0
  32              		@ frame_needed = 0, uses_anonymous_args = 0
  33              		@ link register save eliminated.
  34              	.L2:
  35 0000 FEE7     		b	.L2
  36              		.cfi_endproc
  37              	.LFE147:
  38              		.size	Dummy_Handler, .-Dummy_Handler
  39              		.weak	RSWDT_Handler
  40              		.thumb_set RSWDT_Handler,Dummy_Handler
  41              		.weak	SDRAMC_Handler
  42              		.thumb_set SDRAMC_Handler,Dummy_Handler
  43              		.weak	PWM1_Handler
  44              		.thumb_set PWM1_Handler,Dummy_Handler
  45              		.weak	ISI_Handler
  46              		.thumb_set ISI_Handler,Dummy_Handler
  47              		.weak	XDMAC_Handler
  48              		.thumb_set XDMAC_Handler,Dummy_Handler
  49              		.weak	TRNG_Handler
  50              		.thumb_set TRNG_Handler,Dummy_Handler
  51              		.weak	AES_Handler
  52              		.thumb_set AES_Handler,Dummy_Handler
  53              		.weak	TC11_Handler
  54              		.thumb_set TC11_Handler,Dummy_Handler
  55              		.weak	TC10_Handler
  56              		.thumb_set TC10_Handler,Dummy_Handler
  57              		.weak	TC9_Handler
  58              		.thumb_set TC9_Handler,Dummy_Handler
  59              		.weak	TC8_Handler
  60              		.thumb_set TC8_Handler,Dummy_Handler
  61              		.weak	TC7_Handler
  62              		.thumb_set TC7_Handler,Dummy_Handler
  63              		.weak	TC6_Handler
  64              		.thumb_set TC6_Handler,Dummy_Handler
  65              		.weak	UART4_Handler
  66              		.thumb_set UART4_Handler,Dummy_Handler
  67              		.weak	UART3_Handler
  68              		.thumb_set UART3_Handler,Dummy_Handler
  69              		.weak	UART2_Handler
  70              		.thumb_set UART2_Handler,Dummy_Handler
  71              		.weak	QSPI_Handler
  72              		.thumb_set QSPI_Handler,Dummy_Handler
  73              		.weak	SPI1_Handler
  74              		.thumb_set SPI1_Handler,Dummy_Handler
  75              		.weak	TWIHS2_Handler
  76              		.thumb_set TWIHS2_Handler,Dummy_Handler
  77              		.weak	AFEC1_Handler
  78              		.thumb_set AFEC1_Handler,Dummy_Handler
ARM GAS  /tmp/ccVHQYWs.s 			page 9


  79              		.weak	GMAC_Handler
  80              		.thumb_set GMAC_Handler,Dummy_Handler
  81              		.weak	MCAN1_Handler
  82              		.thumb_set MCAN1_Handler,Dummy_Handler
  83              		.weak	MCAN0_Handler
  84              		.thumb_set MCAN0_Handler,Dummy_Handler
  85              		.weak	USBHS_Handler
  86              		.thumb_set USBHS_Handler,Dummy_Handler
  87              		.weak	ACC_Handler
  88              		.thumb_set ACC_Handler,Dummy_Handler
  89              		.weak	ICM_Handler
  90              		.thumb_set ICM_Handler,Dummy_Handler
  91              		.weak	PWM0_Handler
  92              		.thumb_set PWM0_Handler,Dummy_Handler
  93              		.weak	DACC_Handler
  94              		.thumb_set DACC_Handler,Dummy_Handler
  95              		.weak	AFEC0_Handler
  96              		.thumb_set AFEC0_Handler,Dummy_Handler
  97              		.weak	TC5_Handler
  98              		.thumb_set TC5_Handler,Dummy_Handler
  99              		.weak	TC4_Handler
 100              		.thumb_set TC4_Handler,Dummy_Handler
 101              		.weak	TC3_Handler
 102              		.thumb_set TC3_Handler,Dummy_Handler
 103              		.weak	TC2_Handler
 104              		.thumb_set TC2_Handler,Dummy_Handler
 105              		.weak	TC1_Handler
 106              		.thumb_set TC1_Handler,Dummy_Handler
 107              		.weak	TC0_Handler
 108              		.thumb_set TC0_Handler,Dummy_Handler
 109              		.weak	SSC_Handler
 110              		.thumb_set SSC_Handler,Dummy_Handler
 111              		.weak	SPI0_Handler
 112              		.thumb_set SPI0_Handler,Dummy_Handler
 113              		.weak	TWIHS1_Handler
 114              		.thumb_set TWIHS1_Handler,Dummy_Handler
 115              		.weak	TWIHS0_Handler
 116              		.thumb_set TWIHS0_Handler,Dummy_Handler
 117              		.weak	HSMCI_Handler
 118              		.thumb_set HSMCI_Handler,Dummy_Handler
 119              		.weak	PIOE_Handler
 120              		.thumb_set PIOE_Handler,Dummy_Handler
 121              		.weak	PIOD_Handler
 122              		.thumb_set PIOD_Handler,Dummy_Handler
 123              		.weak	USART2_Handler
 124              		.thumb_set USART2_Handler,Dummy_Handler
 125              		.weak	USART1_Handler
 126              		.thumb_set USART1_Handler,Dummy_Handler
 127              		.weak	USART0_Handler
 128              		.thumb_set USART0_Handler,Dummy_Handler
 129              		.weak	PIOC_Handler
 130              		.thumb_set PIOC_Handler,Dummy_Handler
 131              		.weak	PIOB_Handler
 132              		.thumb_set PIOB_Handler,Dummy_Handler
 133              		.weak	PIOA_Handler
 134              		.thumb_set PIOA_Handler,Dummy_Handler
 135              		.weak	UART1_Handler
ARM GAS  /tmp/ccVHQYWs.s 			page 10


 136              		.thumb_set UART1_Handler,Dummy_Handler
 137              		.weak	UART0_Handler
 138              		.thumb_set UART0_Handler,Dummy_Handler
 139              		.weak	EFC_Handler
 140              		.thumb_set EFC_Handler,Dummy_Handler
 141              		.weak	PMC_Handler
 142              		.thumb_set PMC_Handler,Dummy_Handler
 143              		.weak	WDT_Handler
 144              		.thumb_set WDT_Handler,Dummy_Handler
 145              		.weak	RTT_Handler
 146              		.thumb_set RTT_Handler,Dummy_Handler
 147              		.weak	RTC_Handler
 148              		.thumb_set RTC_Handler,Dummy_Handler
 149              		.weak	RSTC_Handler
 150              		.thumb_set RSTC_Handler,Dummy_Handler
 151              		.weak	SUPC_Handler
 152              		.thumb_set SUPC_Handler,Dummy_Handler
 153              		.weak	DebugMon_Handler
 154              		.thumb_set DebugMon_Handler,Dummy_Handler
 155              		.weak	PendSV_Handler
 156              		.thumb_set PendSV_Handler,Dummy_Handler
 157              		.weak	SVC_Handler
 158              		.thumb_set SVC_Handler,Dummy_Handler
 159              		.weak	UsageFault_Handler
 160              		.thumb_set UsageFault_Handler,Dummy_Handler
 161              		.weak	BusFault_Handler
 162              		.thumb_set BusFault_Handler,Dummy_Handler
 163              		.weak	MemManage_Handler
 164              		.thumb_set MemManage_Handler,Dummy_Handler
 165              		.weak	HardFault_Handler
 166              		.thumb_set HardFault_Handler,Dummy_Handler
 167              		.weak	NMI_Handler
 168              		.thumb_set NMI_Handler,Dummy_Handler
 169 0002 00BF     		.section	.text.Reset_Handler,"ax",%progbits
 170              		.align	1
 171              		.p2align 2,,3
 172              		.global	Reset_Handler
 173              		.syntax unified
 174              		.thumb
 175              		.thumb_func
 176              		.fpu fpv5-d16
 177              		.type	Reset_Handler, %function
 178              	Reset_Handler:
 179              	.LFB146:
 329:../variants/same70/startup_same70.c **** 	uint32_t *pSrc, *pDest;
 180              		.loc 1 329 0
 181              		.cfi_startproc
 182              		@ args = 0, pretend = 0, frame = 0
 183              		@ frame_needed = 0, uses_anonymous_args = 0
 184              	.LVL0:
 336:../variants/same70/startup_same70.c **** 		for (; pDest < &_erelocate;) {
 185              		.loc 1 336 0
 186 0000 2F49     		ldr	r1, .L18
 187 0002 304A     		ldr	r2, .L18+4
 188 0004 9142     		cmp	r1, r2
 329:../variants/same70/startup_same70.c **** 	uint32_t *pSrc, *pDest;
 189              		.loc 1 329 0
ARM GAS  /tmp/ccVHQYWs.s 			page 11


 190 0006 38B5     		push	{r3, r4, r5, lr}
 191              		.cfi_def_cfa_offset 16
 192              		.cfi_offset 3, -16
 193              		.cfi_offset 4, -12
 194              		.cfi_offset 5, -8
 195              		.cfi_offset 14, -4
 336:../variants/same70/startup_same70.c **** 		for (; pDest < &_erelocate;) {
 196              		.loc 1 336 0
 197 0008 0ED0     		beq	.L7
 337:../variants/same70/startup_same70.c **** 			*pDest++ = *pSrc++;
 198              		.loc 1 337 0
 199 000a 2F48     		ldr	r0, .L18+8
 200 000c 8242     		cmp	r2, r0
 201 000e 0BD2     		bcs	.L7
 202 0010 D343     		mvns	r3, r2
 203 0012 0344     		add	r3, r3, r0
 204 0014 23F00303 		bic	r3, r3, #3
 205 0018 0433     		adds	r3, r3, #4
 206 001a 1344     		add	r3, r3, r2
 207              	.LVL1:
 208              	.L8:
 338:../variants/same70/startup_same70.c **** 		}
 209              		.loc 1 338 0
 210 001c 51F8040B 		ldr	r0, [r1], #4
 211              	.LVL2:
 212 0020 42F8040B 		str	r0, [r2], #4
 213              	.LVL3:
 337:../variants/same70/startup_same70.c **** 			*pDest++ = *pSrc++;
 214              		.loc 1 337 0
 215 0024 9A42     		cmp	r2, r3
 216 0026 F9D1     		bne	.L8
 217              	.LVL4:
 218              	.L7:
 343:../variants/same70/startup_same70.c **** 		*pDest++ = 0;
 219              		.loc 1 343 0
 220 0028 284A     		ldr	r2, .L18+12
 221 002a 2949     		ldr	r1, .L18+16
 222 002c 8A42     		cmp	r2, r1
 223 002e 0AD2     		bcs	.L6
 224 0030 D343     		mvns	r3, r2
 344:../variants/same70/startup_same70.c **** 	}
 225              		.loc 1 344 0
 226 0032 0020     		movs	r0, #0
 227 0034 0B44     		add	r3, r3, r1
 228 0036 23F00303 		bic	r3, r3, #3
 229 003a 0433     		adds	r3, r3, #4
 230 003c 1344     		add	r3, r3, r2
 231              	.LVL5:
 232              	.L11:
 233 003e 42F8040B 		str	r0, [r2], #4
 234              	.LVL6:
 343:../variants/same70/startup_same70.c **** 		*pDest++ = 0;
 235              		.loc 1 343 0
 236 0042 9A42     		cmp	r2, r3
 237 0044 FBD1     		bne	.L11
 238              	.LVL7:
 239              	.L6:
ARM GAS  /tmp/ccVHQYWs.s 			page 12


 349:../variants/same70/startup_same70.c **** 
 240              		.loc 1 349 0
 241 0046 234B     		ldr	r3, .L18+20
 242 0048 234A     		ldr	r2, .L18+24
 243 004a 23F07F03 		bic	r3, r3, #127
 244 004e 9360     		str	r3, [r2, #8]
 245              	.LBB54:
 246              	.LBB55:
 247              	.LBB56:
 248              	.LBB57:
 249              	.LBB58:
 250              	.LBB59:
 251              		.file 2 "/home/torbjorn/eclipse-workspace/CoreNG/asf/thirdparty/CMSIS/Include/core_cmFunc.h"
   1:/home/torbjorn/eclipse-workspace/CoreNG/asf/thirdparty/CMSIS/Include/core_cmFunc.h **** /**************************************************************************//**
   2:/home/torbjorn/eclipse-workspace/CoreNG/asf/thirdparty/CMSIS/Include/core_cmFunc.h ****  * @file     core_cmFunc.h
   3:/home/torbjorn/eclipse-workspace/CoreNG/asf/thirdparty/CMSIS/Include/core_cmFunc.h ****  * @brief    CMSIS Cortex-M Core Function Access Header File
   4:/home/torbjorn/eclipse-workspace/CoreNG/asf/thirdparty/CMSIS/Include/core_cmFunc.h ****  * @version  V4.00
   5:/home/torbjorn/eclipse-workspace/CoreNG/asf/thirdparty/CMSIS/Include/core_cmFunc.h ****  * @date     28. August 2014
   6:/home/torbjorn/eclipse-workspace/CoreNG/asf/thirdparty/CMSIS/Include/core_cmFunc.h ****  *
   7:/home/torbjorn/eclipse-workspace/CoreNG/asf/thirdparty/CMSIS/Include/core_cmFunc.h ****  * @note
   8:/home/torbjorn/eclipse-workspace/CoreNG/asf/thirdparty/CMSIS/Include/core_cmFunc.h ****  *
   9:/home/torbjorn/eclipse-workspace/CoreNG/asf/thirdparty/CMSIS/Include/core_cmFunc.h ****  ******************************************************************************/
  10:/home/torbjorn/eclipse-workspace/CoreNG/asf/thirdparty/CMSIS/Include/core_cmFunc.h **** /* Copyright (c) 2009 - 2014 ARM LIMITED
  11:/home/torbjorn/eclipse-workspace/CoreNG/asf/thirdparty/CMSIS/Include/core_cmFunc.h **** 
  12:/home/torbjorn/eclipse-workspace/CoreNG/asf/thirdparty/CMSIS/Include/core_cmFunc.h ****    All rights reserved.
  13:/home/torbjorn/eclipse-workspace/CoreNG/asf/thirdparty/CMSIS/Include/core_cmFunc.h ****    Redistribution and use in source and binary forms, with or without
  14:/home/torbjorn/eclipse-workspace/CoreNG/asf/thirdparty/CMSIS/Include/core_cmFunc.h ****    modification, are permitted provided that the following conditions are met:
  15:/home/torbjorn/eclipse-workspace/CoreNG/asf/thirdparty/CMSIS/Include/core_cmFunc.h ****    - Redistributions of source code must retain the above copyright
  16:/home/torbjorn/eclipse-workspace/CoreNG/asf/thirdparty/CMSIS/Include/core_cmFunc.h ****      notice, this list of conditions and the following disclaimer.
  17:/home/torbjorn/eclipse-workspace/CoreNG/asf/thirdparty/CMSIS/Include/core_cmFunc.h ****    - Redistributions in binary form must reproduce the above copyright
  18:/home/torbjorn/eclipse-workspace/CoreNG/asf/thirdparty/CMSIS/Include/core_cmFunc.h ****      notice, this list of conditions and the following disclaimer in the
  19:/home/torbjorn/eclipse-workspace/CoreNG/asf/thirdparty/CMSIS/Include/core_cmFunc.h ****      documentation and/or other materials provided with the distribution.
  20:/home/torbjorn/eclipse-workspace/CoreNG/asf/thirdparty/CMSIS/Include/core_cmFunc.h ****    - Neither the name of ARM nor the names of its contributors may be used
  21:/home/torbjorn/eclipse-workspace/CoreNG/asf/thirdparty/CMSIS/Include/core_cmFunc.h ****      to endorse or promote products derived from this software without
  22:/home/torbjorn/eclipse-workspace/CoreNG/asf/thirdparty/CMSIS/Include/core_cmFunc.h ****      specific prior written permission.
  23:/home/torbjorn/eclipse-workspace/CoreNG/asf/thirdparty/CMSIS/Include/core_cmFunc.h ****    *
  24:/home/torbjorn/eclipse-workspace/CoreNG/asf/thirdparty/CMSIS/Include/core_cmFunc.h ****    THIS SOFTWARE IS PROVIDED BY THE COPYRIGHT HOLDERS AND CONTRIBUTORS "AS IS"
  25:/home/torbjorn/eclipse-workspace/CoreNG/asf/thirdparty/CMSIS/Include/core_cmFunc.h ****    AND ANY EXPRESS OR IMPLIED WARRANTIES, INCLUDING, BUT NOT LIMITED TO, THE
  26:/home/torbjorn/eclipse-workspace/CoreNG/asf/thirdparty/CMSIS/Include/core_cmFunc.h ****    IMPLIED WARRANTIES OF MERCHANTABILITY AND FITNESS FOR A PARTICULAR PURPOSE
  27:/home/torbjorn/eclipse-workspace/CoreNG/asf/thirdparty/CMSIS/Include/core_cmFunc.h ****    ARE DISCLAIMED. IN NO EVENT SHALL COPYRIGHT HOLDERS AND CONTRIBUTORS BE
  28:/home/torbjorn/eclipse-workspace/CoreNG/asf/thirdparty/CMSIS/Include/core_cmFunc.h ****    LIABLE FOR ANY DIRECT, INDIRECT, INCIDENTAL, SPECIAL, EXEMPLARY, OR
  29:/home/torbjorn/eclipse-workspace/CoreNG/asf/thirdparty/CMSIS/Include/core_cmFunc.h ****    CONSEQUENTIAL DAMAGES (INCLUDING, BUT NOT LIMITED TO, PROCUREMENT OF
  30:/home/torbjorn/eclipse-workspace/CoreNG/asf/thirdparty/CMSIS/Include/core_cmFunc.h ****    SUBSTITUTE GOODS OR SERVICES; LOSS OF USE, DATA, OR PROFITS; OR BUSINESS
  31:/home/torbjorn/eclipse-workspace/CoreNG/asf/thirdparty/CMSIS/Include/core_cmFunc.h ****    INTERRUPTION) HOWEVER CAUSED AND ON ANY THEORY OF LIABILITY, WHETHER IN
  32:/home/torbjorn/eclipse-workspace/CoreNG/asf/thirdparty/CMSIS/Include/core_cmFunc.h ****    CONTRACT, STRICT LIABILITY, OR TORT (INCLUDING NEGLIGENCE OR OTHERWISE)
  33:/home/torbjorn/eclipse-workspace/CoreNG/asf/thirdparty/CMSIS/Include/core_cmFunc.h ****    ARISING IN ANY WAY OUT OF THE USE OF THIS SOFTWARE, EVEN IF ADVISED OF THE
  34:/home/torbjorn/eclipse-workspace/CoreNG/asf/thirdparty/CMSIS/Include/core_cmFunc.h ****    POSSIBILITY OF SUCH DAMAGE.
  35:/home/torbjorn/eclipse-workspace/CoreNG/asf/thirdparty/CMSIS/Include/core_cmFunc.h ****    ---------------------------------------------------------------------------*/
  36:/home/torbjorn/eclipse-workspace/CoreNG/asf/thirdparty/CMSIS/Include/core_cmFunc.h **** 
  37:/home/torbjorn/eclipse-workspace/CoreNG/asf/thirdparty/CMSIS/Include/core_cmFunc.h **** 
  38:/home/torbjorn/eclipse-workspace/CoreNG/asf/thirdparty/CMSIS/Include/core_cmFunc.h **** #ifndef __CORE_CMFUNC_H
  39:/home/torbjorn/eclipse-workspace/CoreNG/asf/thirdparty/CMSIS/Include/core_cmFunc.h **** #define __CORE_CMFUNC_H
  40:/home/torbjorn/eclipse-workspace/CoreNG/asf/thirdparty/CMSIS/Include/core_cmFunc.h **** 
  41:/home/torbjorn/eclipse-workspace/CoreNG/asf/thirdparty/CMSIS/Include/core_cmFunc.h **** 
  42:/home/torbjorn/eclipse-workspace/CoreNG/asf/thirdparty/CMSIS/Include/core_cmFunc.h **** /* ###########################  Core Function Access  ########################### */
  43:/home/torbjorn/eclipse-workspace/CoreNG/asf/thirdparty/CMSIS/Include/core_cmFunc.h **** /** \ingroup  CMSIS_Core_FunctionInterface
  44:/home/torbjorn/eclipse-workspace/CoreNG/asf/thirdparty/CMSIS/Include/core_cmFunc.h ****     \defgroup CMSIS_Core_RegAccFunctions CMSIS Core Register Access Functions
ARM GAS  /tmp/ccVHQYWs.s 			page 13


  45:/home/torbjorn/eclipse-workspace/CoreNG/asf/thirdparty/CMSIS/Include/core_cmFunc.h ****   @{
  46:/home/torbjorn/eclipse-workspace/CoreNG/asf/thirdparty/CMSIS/Include/core_cmFunc.h ****  */
  47:/home/torbjorn/eclipse-workspace/CoreNG/asf/thirdparty/CMSIS/Include/core_cmFunc.h **** 
  48:/home/torbjorn/eclipse-workspace/CoreNG/asf/thirdparty/CMSIS/Include/core_cmFunc.h **** #if   defined ( __CC_ARM ) /*------------------RealView Compiler -----------------*/
  49:/home/torbjorn/eclipse-workspace/CoreNG/asf/thirdparty/CMSIS/Include/core_cmFunc.h **** /* ARM armcc specific functions */
  50:/home/torbjorn/eclipse-workspace/CoreNG/asf/thirdparty/CMSIS/Include/core_cmFunc.h **** 
  51:/home/torbjorn/eclipse-workspace/CoreNG/asf/thirdparty/CMSIS/Include/core_cmFunc.h **** #if (__ARMCC_VERSION < 400677)
  52:/home/torbjorn/eclipse-workspace/CoreNG/asf/thirdparty/CMSIS/Include/core_cmFunc.h ****   #error "Please use ARM Compiler Toolchain V4.0.677 or later!"
  53:/home/torbjorn/eclipse-workspace/CoreNG/asf/thirdparty/CMSIS/Include/core_cmFunc.h **** #endif
  54:/home/torbjorn/eclipse-workspace/CoreNG/asf/thirdparty/CMSIS/Include/core_cmFunc.h **** 
  55:/home/torbjorn/eclipse-workspace/CoreNG/asf/thirdparty/CMSIS/Include/core_cmFunc.h **** /* intrinsic void __enable_irq();     */
  56:/home/torbjorn/eclipse-workspace/CoreNG/asf/thirdparty/CMSIS/Include/core_cmFunc.h **** /* intrinsic void __disable_irq();    */
  57:/home/torbjorn/eclipse-workspace/CoreNG/asf/thirdparty/CMSIS/Include/core_cmFunc.h **** 
  58:/home/torbjorn/eclipse-workspace/CoreNG/asf/thirdparty/CMSIS/Include/core_cmFunc.h **** /** \brief  Get Control Register
  59:/home/torbjorn/eclipse-workspace/CoreNG/asf/thirdparty/CMSIS/Include/core_cmFunc.h **** 
  60:/home/torbjorn/eclipse-workspace/CoreNG/asf/thirdparty/CMSIS/Include/core_cmFunc.h ****     This function returns the content of the Control Register.
  61:/home/torbjorn/eclipse-workspace/CoreNG/asf/thirdparty/CMSIS/Include/core_cmFunc.h **** 
  62:/home/torbjorn/eclipse-workspace/CoreNG/asf/thirdparty/CMSIS/Include/core_cmFunc.h ****     \return               Control Register value
  63:/home/torbjorn/eclipse-workspace/CoreNG/asf/thirdparty/CMSIS/Include/core_cmFunc.h ****  */
  64:/home/torbjorn/eclipse-workspace/CoreNG/asf/thirdparty/CMSIS/Include/core_cmFunc.h **** __STATIC_INLINE uint32_t __get_CONTROL(void)
  65:/home/torbjorn/eclipse-workspace/CoreNG/asf/thirdparty/CMSIS/Include/core_cmFunc.h **** {
  66:/home/torbjorn/eclipse-workspace/CoreNG/asf/thirdparty/CMSIS/Include/core_cmFunc.h ****   register uint32_t __regControl         __ASM("control");
  67:/home/torbjorn/eclipse-workspace/CoreNG/asf/thirdparty/CMSIS/Include/core_cmFunc.h ****   return(__regControl);
  68:/home/torbjorn/eclipse-workspace/CoreNG/asf/thirdparty/CMSIS/Include/core_cmFunc.h **** }
  69:/home/torbjorn/eclipse-workspace/CoreNG/asf/thirdparty/CMSIS/Include/core_cmFunc.h **** 
  70:/home/torbjorn/eclipse-workspace/CoreNG/asf/thirdparty/CMSIS/Include/core_cmFunc.h **** 
  71:/home/torbjorn/eclipse-workspace/CoreNG/asf/thirdparty/CMSIS/Include/core_cmFunc.h **** /** \brief  Set Control Register
  72:/home/torbjorn/eclipse-workspace/CoreNG/asf/thirdparty/CMSIS/Include/core_cmFunc.h **** 
  73:/home/torbjorn/eclipse-workspace/CoreNG/asf/thirdparty/CMSIS/Include/core_cmFunc.h ****     This function writes the given value to the Control Register.
  74:/home/torbjorn/eclipse-workspace/CoreNG/asf/thirdparty/CMSIS/Include/core_cmFunc.h **** 
  75:/home/torbjorn/eclipse-workspace/CoreNG/asf/thirdparty/CMSIS/Include/core_cmFunc.h ****     \param [in]    control  Control Register value to set
  76:/home/torbjorn/eclipse-workspace/CoreNG/asf/thirdparty/CMSIS/Include/core_cmFunc.h ****  */
  77:/home/torbjorn/eclipse-workspace/CoreNG/asf/thirdparty/CMSIS/Include/core_cmFunc.h **** __STATIC_INLINE void __set_CONTROL(uint32_t control)
  78:/home/torbjorn/eclipse-workspace/CoreNG/asf/thirdparty/CMSIS/Include/core_cmFunc.h **** {
  79:/home/torbjorn/eclipse-workspace/CoreNG/asf/thirdparty/CMSIS/Include/core_cmFunc.h ****   register uint32_t __regControl         __ASM("control");
  80:/home/torbjorn/eclipse-workspace/CoreNG/asf/thirdparty/CMSIS/Include/core_cmFunc.h ****   __regControl = control;
  81:/home/torbjorn/eclipse-workspace/CoreNG/asf/thirdparty/CMSIS/Include/core_cmFunc.h **** }
  82:/home/torbjorn/eclipse-workspace/CoreNG/asf/thirdparty/CMSIS/Include/core_cmFunc.h **** 
  83:/home/torbjorn/eclipse-workspace/CoreNG/asf/thirdparty/CMSIS/Include/core_cmFunc.h **** 
  84:/home/torbjorn/eclipse-workspace/CoreNG/asf/thirdparty/CMSIS/Include/core_cmFunc.h **** /** \brief  Get IPSR Register
  85:/home/torbjorn/eclipse-workspace/CoreNG/asf/thirdparty/CMSIS/Include/core_cmFunc.h **** 
  86:/home/torbjorn/eclipse-workspace/CoreNG/asf/thirdparty/CMSIS/Include/core_cmFunc.h ****     This function returns the content of the IPSR Register.
  87:/home/torbjorn/eclipse-workspace/CoreNG/asf/thirdparty/CMSIS/Include/core_cmFunc.h **** 
  88:/home/torbjorn/eclipse-workspace/CoreNG/asf/thirdparty/CMSIS/Include/core_cmFunc.h ****     \return               IPSR Register value
  89:/home/torbjorn/eclipse-workspace/CoreNG/asf/thirdparty/CMSIS/Include/core_cmFunc.h ****  */
  90:/home/torbjorn/eclipse-workspace/CoreNG/asf/thirdparty/CMSIS/Include/core_cmFunc.h **** __STATIC_INLINE uint32_t __get_IPSR(void)
  91:/home/torbjorn/eclipse-workspace/CoreNG/asf/thirdparty/CMSIS/Include/core_cmFunc.h **** {
  92:/home/torbjorn/eclipse-workspace/CoreNG/asf/thirdparty/CMSIS/Include/core_cmFunc.h ****   register uint32_t __regIPSR          __ASM("ipsr");
  93:/home/torbjorn/eclipse-workspace/CoreNG/asf/thirdparty/CMSIS/Include/core_cmFunc.h ****   return(__regIPSR);
  94:/home/torbjorn/eclipse-workspace/CoreNG/asf/thirdparty/CMSIS/Include/core_cmFunc.h **** }
  95:/home/torbjorn/eclipse-workspace/CoreNG/asf/thirdparty/CMSIS/Include/core_cmFunc.h **** 
  96:/home/torbjorn/eclipse-workspace/CoreNG/asf/thirdparty/CMSIS/Include/core_cmFunc.h **** 
  97:/home/torbjorn/eclipse-workspace/CoreNG/asf/thirdparty/CMSIS/Include/core_cmFunc.h **** /** \brief  Get APSR Register
  98:/home/torbjorn/eclipse-workspace/CoreNG/asf/thirdparty/CMSIS/Include/core_cmFunc.h **** 
  99:/home/torbjorn/eclipse-workspace/CoreNG/asf/thirdparty/CMSIS/Include/core_cmFunc.h ****     This function returns the content of the APSR Register.
 100:/home/torbjorn/eclipse-workspace/CoreNG/asf/thirdparty/CMSIS/Include/core_cmFunc.h **** 
 101:/home/torbjorn/eclipse-workspace/CoreNG/asf/thirdparty/CMSIS/Include/core_cmFunc.h ****     \return               APSR Register value
ARM GAS  /tmp/ccVHQYWs.s 			page 14


 102:/home/torbjorn/eclipse-workspace/CoreNG/asf/thirdparty/CMSIS/Include/core_cmFunc.h ****  */
 103:/home/torbjorn/eclipse-workspace/CoreNG/asf/thirdparty/CMSIS/Include/core_cmFunc.h **** __STATIC_INLINE uint32_t __get_APSR(void)
 104:/home/torbjorn/eclipse-workspace/CoreNG/asf/thirdparty/CMSIS/Include/core_cmFunc.h **** {
 105:/home/torbjorn/eclipse-workspace/CoreNG/asf/thirdparty/CMSIS/Include/core_cmFunc.h ****   register uint32_t __regAPSR          __ASM("apsr");
 106:/home/torbjorn/eclipse-workspace/CoreNG/asf/thirdparty/CMSIS/Include/core_cmFunc.h ****   return(__regAPSR);
 107:/home/torbjorn/eclipse-workspace/CoreNG/asf/thirdparty/CMSIS/Include/core_cmFunc.h **** }
 108:/home/torbjorn/eclipse-workspace/CoreNG/asf/thirdparty/CMSIS/Include/core_cmFunc.h **** 
 109:/home/torbjorn/eclipse-workspace/CoreNG/asf/thirdparty/CMSIS/Include/core_cmFunc.h **** 
 110:/home/torbjorn/eclipse-workspace/CoreNG/asf/thirdparty/CMSIS/Include/core_cmFunc.h **** /** \brief  Get xPSR Register
 111:/home/torbjorn/eclipse-workspace/CoreNG/asf/thirdparty/CMSIS/Include/core_cmFunc.h **** 
 112:/home/torbjorn/eclipse-workspace/CoreNG/asf/thirdparty/CMSIS/Include/core_cmFunc.h ****     This function returns the content of the xPSR Register.
 113:/home/torbjorn/eclipse-workspace/CoreNG/asf/thirdparty/CMSIS/Include/core_cmFunc.h **** 
 114:/home/torbjorn/eclipse-workspace/CoreNG/asf/thirdparty/CMSIS/Include/core_cmFunc.h ****     \return               xPSR Register value
 115:/home/torbjorn/eclipse-workspace/CoreNG/asf/thirdparty/CMSIS/Include/core_cmFunc.h ****  */
 116:/home/torbjorn/eclipse-workspace/CoreNG/asf/thirdparty/CMSIS/Include/core_cmFunc.h **** __STATIC_INLINE uint32_t __get_xPSR(void)
 117:/home/torbjorn/eclipse-workspace/CoreNG/asf/thirdparty/CMSIS/Include/core_cmFunc.h **** {
 118:/home/torbjorn/eclipse-workspace/CoreNG/asf/thirdparty/CMSIS/Include/core_cmFunc.h ****   register uint32_t __regXPSR          __ASM("xpsr");
 119:/home/torbjorn/eclipse-workspace/CoreNG/asf/thirdparty/CMSIS/Include/core_cmFunc.h ****   return(__regXPSR);
 120:/home/torbjorn/eclipse-workspace/CoreNG/asf/thirdparty/CMSIS/Include/core_cmFunc.h **** }
 121:/home/torbjorn/eclipse-workspace/CoreNG/asf/thirdparty/CMSIS/Include/core_cmFunc.h **** 
 122:/home/torbjorn/eclipse-workspace/CoreNG/asf/thirdparty/CMSIS/Include/core_cmFunc.h **** 
 123:/home/torbjorn/eclipse-workspace/CoreNG/asf/thirdparty/CMSIS/Include/core_cmFunc.h **** /** \brief  Get Process Stack Pointer
 124:/home/torbjorn/eclipse-workspace/CoreNG/asf/thirdparty/CMSIS/Include/core_cmFunc.h **** 
 125:/home/torbjorn/eclipse-workspace/CoreNG/asf/thirdparty/CMSIS/Include/core_cmFunc.h ****     This function returns the current value of the Process Stack Pointer (PSP).
 126:/home/torbjorn/eclipse-workspace/CoreNG/asf/thirdparty/CMSIS/Include/core_cmFunc.h **** 
 127:/home/torbjorn/eclipse-workspace/CoreNG/asf/thirdparty/CMSIS/Include/core_cmFunc.h ****     \return               PSP Register value
 128:/home/torbjorn/eclipse-workspace/CoreNG/asf/thirdparty/CMSIS/Include/core_cmFunc.h ****  */
 129:/home/torbjorn/eclipse-workspace/CoreNG/asf/thirdparty/CMSIS/Include/core_cmFunc.h **** __STATIC_INLINE uint32_t __get_PSP(void)
 130:/home/torbjorn/eclipse-workspace/CoreNG/asf/thirdparty/CMSIS/Include/core_cmFunc.h **** {
 131:/home/torbjorn/eclipse-workspace/CoreNG/asf/thirdparty/CMSIS/Include/core_cmFunc.h ****   register uint32_t __regProcessStackPointer  __ASM("psp");
 132:/home/torbjorn/eclipse-workspace/CoreNG/asf/thirdparty/CMSIS/Include/core_cmFunc.h ****   return(__regProcessStackPointer);
 133:/home/torbjorn/eclipse-workspace/CoreNG/asf/thirdparty/CMSIS/Include/core_cmFunc.h **** }
 134:/home/torbjorn/eclipse-workspace/CoreNG/asf/thirdparty/CMSIS/Include/core_cmFunc.h **** 
 135:/home/torbjorn/eclipse-workspace/CoreNG/asf/thirdparty/CMSIS/Include/core_cmFunc.h **** 
 136:/home/torbjorn/eclipse-workspace/CoreNG/asf/thirdparty/CMSIS/Include/core_cmFunc.h **** /** \brief  Set Process Stack Pointer
 137:/home/torbjorn/eclipse-workspace/CoreNG/asf/thirdparty/CMSIS/Include/core_cmFunc.h **** 
 138:/home/torbjorn/eclipse-workspace/CoreNG/asf/thirdparty/CMSIS/Include/core_cmFunc.h ****     This function assigns the given value to the Process Stack Pointer (PSP).
 139:/home/torbjorn/eclipse-workspace/CoreNG/asf/thirdparty/CMSIS/Include/core_cmFunc.h **** 
 140:/home/torbjorn/eclipse-workspace/CoreNG/asf/thirdparty/CMSIS/Include/core_cmFunc.h ****     \param [in]    topOfProcStack  Process Stack Pointer value to set
 141:/home/torbjorn/eclipse-workspace/CoreNG/asf/thirdparty/CMSIS/Include/core_cmFunc.h ****  */
 142:/home/torbjorn/eclipse-workspace/CoreNG/asf/thirdparty/CMSIS/Include/core_cmFunc.h **** __STATIC_INLINE void __set_PSP(uint32_t topOfProcStack)
 143:/home/torbjorn/eclipse-workspace/CoreNG/asf/thirdparty/CMSIS/Include/core_cmFunc.h **** {
 144:/home/torbjorn/eclipse-workspace/CoreNG/asf/thirdparty/CMSIS/Include/core_cmFunc.h ****   register uint32_t __regProcessStackPointer  __ASM("psp");
 145:/home/torbjorn/eclipse-workspace/CoreNG/asf/thirdparty/CMSIS/Include/core_cmFunc.h ****   __regProcessStackPointer = topOfProcStack;
 146:/home/torbjorn/eclipse-workspace/CoreNG/asf/thirdparty/CMSIS/Include/core_cmFunc.h **** }
 147:/home/torbjorn/eclipse-workspace/CoreNG/asf/thirdparty/CMSIS/Include/core_cmFunc.h **** 
 148:/home/torbjorn/eclipse-workspace/CoreNG/asf/thirdparty/CMSIS/Include/core_cmFunc.h **** 
 149:/home/torbjorn/eclipse-workspace/CoreNG/asf/thirdparty/CMSIS/Include/core_cmFunc.h **** /** \brief  Get Main Stack Pointer
 150:/home/torbjorn/eclipse-workspace/CoreNG/asf/thirdparty/CMSIS/Include/core_cmFunc.h **** 
 151:/home/torbjorn/eclipse-workspace/CoreNG/asf/thirdparty/CMSIS/Include/core_cmFunc.h ****     This function returns the current value of the Main Stack Pointer (MSP).
 152:/home/torbjorn/eclipse-workspace/CoreNG/asf/thirdparty/CMSIS/Include/core_cmFunc.h **** 
 153:/home/torbjorn/eclipse-workspace/CoreNG/asf/thirdparty/CMSIS/Include/core_cmFunc.h ****     \return               MSP Register value
 154:/home/torbjorn/eclipse-workspace/CoreNG/asf/thirdparty/CMSIS/Include/core_cmFunc.h ****  */
 155:/home/torbjorn/eclipse-workspace/CoreNG/asf/thirdparty/CMSIS/Include/core_cmFunc.h **** __STATIC_INLINE uint32_t __get_MSP(void)
 156:/home/torbjorn/eclipse-workspace/CoreNG/asf/thirdparty/CMSIS/Include/core_cmFunc.h **** {
 157:/home/torbjorn/eclipse-workspace/CoreNG/asf/thirdparty/CMSIS/Include/core_cmFunc.h ****   register uint32_t __regMainStackPointer     __ASM("msp");
 158:/home/torbjorn/eclipse-workspace/CoreNG/asf/thirdparty/CMSIS/Include/core_cmFunc.h ****   return(__regMainStackPointer);
ARM GAS  /tmp/ccVHQYWs.s 			page 15


 159:/home/torbjorn/eclipse-workspace/CoreNG/asf/thirdparty/CMSIS/Include/core_cmFunc.h **** }
 160:/home/torbjorn/eclipse-workspace/CoreNG/asf/thirdparty/CMSIS/Include/core_cmFunc.h **** 
 161:/home/torbjorn/eclipse-workspace/CoreNG/asf/thirdparty/CMSIS/Include/core_cmFunc.h **** 
 162:/home/torbjorn/eclipse-workspace/CoreNG/asf/thirdparty/CMSIS/Include/core_cmFunc.h **** /** \brief  Set Main Stack Pointer
 163:/home/torbjorn/eclipse-workspace/CoreNG/asf/thirdparty/CMSIS/Include/core_cmFunc.h **** 
 164:/home/torbjorn/eclipse-workspace/CoreNG/asf/thirdparty/CMSIS/Include/core_cmFunc.h ****     This function assigns the given value to the Main Stack Pointer (MSP).
 165:/home/torbjorn/eclipse-workspace/CoreNG/asf/thirdparty/CMSIS/Include/core_cmFunc.h **** 
 166:/home/torbjorn/eclipse-workspace/CoreNG/asf/thirdparty/CMSIS/Include/core_cmFunc.h ****     \param [in]    topOfMainStack  Main Stack Pointer value to set
 167:/home/torbjorn/eclipse-workspace/CoreNG/asf/thirdparty/CMSIS/Include/core_cmFunc.h ****  */
 168:/home/torbjorn/eclipse-workspace/CoreNG/asf/thirdparty/CMSIS/Include/core_cmFunc.h **** __STATIC_INLINE void __set_MSP(uint32_t topOfMainStack)
 169:/home/torbjorn/eclipse-workspace/CoreNG/asf/thirdparty/CMSIS/Include/core_cmFunc.h **** {
 170:/home/torbjorn/eclipse-workspace/CoreNG/asf/thirdparty/CMSIS/Include/core_cmFunc.h ****   register uint32_t __regMainStackPointer     __ASM("msp");
 171:/home/torbjorn/eclipse-workspace/CoreNG/asf/thirdparty/CMSIS/Include/core_cmFunc.h ****   __regMainStackPointer = topOfMainStack;
 172:/home/torbjorn/eclipse-workspace/CoreNG/asf/thirdparty/CMSIS/Include/core_cmFunc.h **** }
 173:/home/torbjorn/eclipse-workspace/CoreNG/asf/thirdparty/CMSIS/Include/core_cmFunc.h **** 
 174:/home/torbjorn/eclipse-workspace/CoreNG/asf/thirdparty/CMSIS/Include/core_cmFunc.h **** 
 175:/home/torbjorn/eclipse-workspace/CoreNG/asf/thirdparty/CMSIS/Include/core_cmFunc.h **** /** \brief  Get Priority Mask
 176:/home/torbjorn/eclipse-workspace/CoreNG/asf/thirdparty/CMSIS/Include/core_cmFunc.h **** 
 177:/home/torbjorn/eclipse-workspace/CoreNG/asf/thirdparty/CMSIS/Include/core_cmFunc.h ****     This function returns the current state of the priority mask bit from the Priority Mask Registe
 178:/home/torbjorn/eclipse-workspace/CoreNG/asf/thirdparty/CMSIS/Include/core_cmFunc.h **** 
 179:/home/torbjorn/eclipse-workspace/CoreNG/asf/thirdparty/CMSIS/Include/core_cmFunc.h ****     \return               Priority Mask value
 180:/home/torbjorn/eclipse-workspace/CoreNG/asf/thirdparty/CMSIS/Include/core_cmFunc.h ****  */
 181:/home/torbjorn/eclipse-workspace/CoreNG/asf/thirdparty/CMSIS/Include/core_cmFunc.h **** __STATIC_INLINE uint32_t __get_PRIMASK(void)
 182:/home/torbjorn/eclipse-workspace/CoreNG/asf/thirdparty/CMSIS/Include/core_cmFunc.h **** {
 183:/home/torbjorn/eclipse-workspace/CoreNG/asf/thirdparty/CMSIS/Include/core_cmFunc.h ****   register uint32_t __regPriMask         __ASM("primask");
 184:/home/torbjorn/eclipse-workspace/CoreNG/asf/thirdparty/CMSIS/Include/core_cmFunc.h ****   return(__regPriMask);
 185:/home/torbjorn/eclipse-workspace/CoreNG/asf/thirdparty/CMSIS/Include/core_cmFunc.h **** }
 186:/home/torbjorn/eclipse-workspace/CoreNG/asf/thirdparty/CMSIS/Include/core_cmFunc.h **** 
 187:/home/torbjorn/eclipse-workspace/CoreNG/asf/thirdparty/CMSIS/Include/core_cmFunc.h **** 
 188:/home/torbjorn/eclipse-workspace/CoreNG/asf/thirdparty/CMSIS/Include/core_cmFunc.h **** /** \brief  Set Priority Mask
 189:/home/torbjorn/eclipse-workspace/CoreNG/asf/thirdparty/CMSIS/Include/core_cmFunc.h **** 
 190:/home/torbjorn/eclipse-workspace/CoreNG/asf/thirdparty/CMSIS/Include/core_cmFunc.h ****     This function assigns the given value to the Priority Mask Register.
 191:/home/torbjorn/eclipse-workspace/CoreNG/asf/thirdparty/CMSIS/Include/core_cmFunc.h **** 
 192:/home/torbjorn/eclipse-workspace/CoreNG/asf/thirdparty/CMSIS/Include/core_cmFunc.h ****     \param [in]    priMask  Priority Mask
 193:/home/torbjorn/eclipse-workspace/CoreNG/asf/thirdparty/CMSIS/Include/core_cmFunc.h ****  */
 194:/home/torbjorn/eclipse-workspace/CoreNG/asf/thirdparty/CMSIS/Include/core_cmFunc.h **** __STATIC_INLINE void __set_PRIMASK(uint32_t priMask)
 195:/home/torbjorn/eclipse-workspace/CoreNG/asf/thirdparty/CMSIS/Include/core_cmFunc.h **** {
 196:/home/torbjorn/eclipse-workspace/CoreNG/asf/thirdparty/CMSIS/Include/core_cmFunc.h ****   register uint32_t __regPriMask         __ASM("primask");
 197:/home/torbjorn/eclipse-workspace/CoreNG/asf/thirdparty/CMSIS/Include/core_cmFunc.h ****   __regPriMask = (priMask);
 198:/home/torbjorn/eclipse-workspace/CoreNG/asf/thirdparty/CMSIS/Include/core_cmFunc.h **** }
 199:/home/torbjorn/eclipse-workspace/CoreNG/asf/thirdparty/CMSIS/Include/core_cmFunc.h **** 
 200:/home/torbjorn/eclipse-workspace/CoreNG/asf/thirdparty/CMSIS/Include/core_cmFunc.h **** 
 201:/home/torbjorn/eclipse-workspace/CoreNG/asf/thirdparty/CMSIS/Include/core_cmFunc.h **** #if       (__CORTEX_M >= 0x03) || (__CORTEX_SC >= 300)
 202:/home/torbjorn/eclipse-workspace/CoreNG/asf/thirdparty/CMSIS/Include/core_cmFunc.h **** 
 203:/home/torbjorn/eclipse-workspace/CoreNG/asf/thirdparty/CMSIS/Include/core_cmFunc.h **** /** \brief  Enable FIQ
 204:/home/torbjorn/eclipse-workspace/CoreNG/asf/thirdparty/CMSIS/Include/core_cmFunc.h **** 
 205:/home/torbjorn/eclipse-workspace/CoreNG/asf/thirdparty/CMSIS/Include/core_cmFunc.h ****     This function enables FIQ interrupts by clearing the F-bit in the CPSR.
 206:/home/torbjorn/eclipse-workspace/CoreNG/asf/thirdparty/CMSIS/Include/core_cmFunc.h ****     Can only be executed in Privileged modes.
 207:/home/torbjorn/eclipse-workspace/CoreNG/asf/thirdparty/CMSIS/Include/core_cmFunc.h ****  */
 208:/home/torbjorn/eclipse-workspace/CoreNG/asf/thirdparty/CMSIS/Include/core_cmFunc.h **** #define __enable_fault_irq                __enable_fiq
 209:/home/torbjorn/eclipse-workspace/CoreNG/asf/thirdparty/CMSIS/Include/core_cmFunc.h **** 
 210:/home/torbjorn/eclipse-workspace/CoreNG/asf/thirdparty/CMSIS/Include/core_cmFunc.h **** 
 211:/home/torbjorn/eclipse-workspace/CoreNG/asf/thirdparty/CMSIS/Include/core_cmFunc.h **** /** \brief  Disable FIQ
 212:/home/torbjorn/eclipse-workspace/CoreNG/asf/thirdparty/CMSIS/Include/core_cmFunc.h **** 
 213:/home/torbjorn/eclipse-workspace/CoreNG/asf/thirdparty/CMSIS/Include/core_cmFunc.h ****     This function disables FIQ interrupts by setting the F-bit in the CPSR.
 214:/home/torbjorn/eclipse-workspace/CoreNG/asf/thirdparty/CMSIS/Include/core_cmFunc.h ****     Can only be executed in Privileged modes.
 215:/home/torbjorn/eclipse-workspace/CoreNG/asf/thirdparty/CMSIS/Include/core_cmFunc.h ****  */
ARM GAS  /tmp/ccVHQYWs.s 			page 16


 216:/home/torbjorn/eclipse-workspace/CoreNG/asf/thirdparty/CMSIS/Include/core_cmFunc.h **** #define __disable_fault_irq               __disable_fiq
 217:/home/torbjorn/eclipse-workspace/CoreNG/asf/thirdparty/CMSIS/Include/core_cmFunc.h **** 
 218:/home/torbjorn/eclipse-workspace/CoreNG/asf/thirdparty/CMSIS/Include/core_cmFunc.h **** 
 219:/home/torbjorn/eclipse-workspace/CoreNG/asf/thirdparty/CMSIS/Include/core_cmFunc.h **** /** \brief  Get Base Priority
 220:/home/torbjorn/eclipse-workspace/CoreNG/asf/thirdparty/CMSIS/Include/core_cmFunc.h **** 
 221:/home/torbjorn/eclipse-workspace/CoreNG/asf/thirdparty/CMSIS/Include/core_cmFunc.h ****     This function returns the current value of the Base Priority register.
 222:/home/torbjorn/eclipse-workspace/CoreNG/asf/thirdparty/CMSIS/Include/core_cmFunc.h **** 
 223:/home/torbjorn/eclipse-workspace/CoreNG/asf/thirdparty/CMSIS/Include/core_cmFunc.h ****     \return               Base Priority register value
 224:/home/torbjorn/eclipse-workspace/CoreNG/asf/thirdparty/CMSIS/Include/core_cmFunc.h ****  */
 225:/home/torbjorn/eclipse-workspace/CoreNG/asf/thirdparty/CMSIS/Include/core_cmFunc.h **** __STATIC_INLINE uint32_t  __get_BASEPRI(void)
 226:/home/torbjorn/eclipse-workspace/CoreNG/asf/thirdparty/CMSIS/Include/core_cmFunc.h **** {
 227:/home/torbjorn/eclipse-workspace/CoreNG/asf/thirdparty/CMSIS/Include/core_cmFunc.h ****   register uint32_t __regBasePri         __ASM("basepri");
 228:/home/torbjorn/eclipse-workspace/CoreNG/asf/thirdparty/CMSIS/Include/core_cmFunc.h ****   return(__regBasePri);
 229:/home/torbjorn/eclipse-workspace/CoreNG/asf/thirdparty/CMSIS/Include/core_cmFunc.h **** }
 230:/home/torbjorn/eclipse-workspace/CoreNG/asf/thirdparty/CMSIS/Include/core_cmFunc.h **** 
 231:/home/torbjorn/eclipse-workspace/CoreNG/asf/thirdparty/CMSIS/Include/core_cmFunc.h **** 
 232:/home/torbjorn/eclipse-workspace/CoreNG/asf/thirdparty/CMSIS/Include/core_cmFunc.h **** /** \brief  Set Base Priority
 233:/home/torbjorn/eclipse-workspace/CoreNG/asf/thirdparty/CMSIS/Include/core_cmFunc.h **** 
 234:/home/torbjorn/eclipse-workspace/CoreNG/asf/thirdparty/CMSIS/Include/core_cmFunc.h ****     This function assigns the given value to the Base Priority register.
 235:/home/torbjorn/eclipse-workspace/CoreNG/asf/thirdparty/CMSIS/Include/core_cmFunc.h **** 
 236:/home/torbjorn/eclipse-workspace/CoreNG/asf/thirdparty/CMSIS/Include/core_cmFunc.h ****     \param [in]    basePri  Base Priority value to set
 237:/home/torbjorn/eclipse-workspace/CoreNG/asf/thirdparty/CMSIS/Include/core_cmFunc.h ****  */
 238:/home/torbjorn/eclipse-workspace/CoreNG/asf/thirdparty/CMSIS/Include/core_cmFunc.h **** __STATIC_INLINE void __set_BASEPRI(uint32_t basePri)
 239:/home/torbjorn/eclipse-workspace/CoreNG/asf/thirdparty/CMSIS/Include/core_cmFunc.h **** {
 240:/home/torbjorn/eclipse-workspace/CoreNG/asf/thirdparty/CMSIS/Include/core_cmFunc.h ****   register uint32_t __regBasePri         __ASM("basepri");
 241:/home/torbjorn/eclipse-workspace/CoreNG/asf/thirdparty/CMSIS/Include/core_cmFunc.h ****   __regBasePri = (basePri & 0xff);
 242:/home/torbjorn/eclipse-workspace/CoreNG/asf/thirdparty/CMSIS/Include/core_cmFunc.h **** }
 243:/home/torbjorn/eclipse-workspace/CoreNG/asf/thirdparty/CMSIS/Include/core_cmFunc.h **** 
 244:/home/torbjorn/eclipse-workspace/CoreNG/asf/thirdparty/CMSIS/Include/core_cmFunc.h **** 
 245:/home/torbjorn/eclipse-workspace/CoreNG/asf/thirdparty/CMSIS/Include/core_cmFunc.h **** /** \brief  Get Fault Mask
 246:/home/torbjorn/eclipse-workspace/CoreNG/asf/thirdparty/CMSIS/Include/core_cmFunc.h **** 
 247:/home/torbjorn/eclipse-workspace/CoreNG/asf/thirdparty/CMSIS/Include/core_cmFunc.h ****     This function returns the current value of the Fault Mask register.
 248:/home/torbjorn/eclipse-workspace/CoreNG/asf/thirdparty/CMSIS/Include/core_cmFunc.h **** 
 249:/home/torbjorn/eclipse-workspace/CoreNG/asf/thirdparty/CMSIS/Include/core_cmFunc.h ****     \return               Fault Mask register value
 250:/home/torbjorn/eclipse-workspace/CoreNG/asf/thirdparty/CMSIS/Include/core_cmFunc.h ****  */
 251:/home/torbjorn/eclipse-workspace/CoreNG/asf/thirdparty/CMSIS/Include/core_cmFunc.h **** __STATIC_INLINE uint32_t __get_FAULTMASK(void)
 252:/home/torbjorn/eclipse-workspace/CoreNG/asf/thirdparty/CMSIS/Include/core_cmFunc.h **** {
 253:/home/torbjorn/eclipse-workspace/CoreNG/asf/thirdparty/CMSIS/Include/core_cmFunc.h ****   register uint32_t __regFaultMask       __ASM("faultmask");
 254:/home/torbjorn/eclipse-workspace/CoreNG/asf/thirdparty/CMSIS/Include/core_cmFunc.h ****   return(__regFaultMask);
 255:/home/torbjorn/eclipse-workspace/CoreNG/asf/thirdparty/CMSIS/Include/core_cmFunc.h **** }
 256:/home/torbjorn/eclipse-workspace/CoreNG/asf/thirdparty/CMSIS/Include/core_cmFunc.h **** 
 257:/home/torbjorn/eclipse-workspace/CoreNG/asf/thirdparty/CMSIS/Include/core_cmFunc.h **** 
 258:/home/torbjorn/eclipse-workspace/CoreNG/asf/thirdparty/CMSIS/Include/core_cmFunc.h **** /** \brief  Set Fault Mask
 259:/home/torbjorn/eclipse-workspace/CoreNG/asf/thirdparty/CMSIS/Include/core_cmFunc.h **** 
 260:/home/torbjorn/eclipse-workspace/CoreNG/asf/thirdparty/CMSIS/Include/core_cmFunc.h ****     This function assigns the given value to the Fault Mask register.
 261:/home/torbjorn/eclipse-workspace/CoreNG/asf/thirdparty/CMSIS/Include/core_cmFunc.h **** 
 262:/home/torbjorn/eclipse-workspace/CoreNG/asf/thirdparty/CMSIS/Include/core_cmFunc.h ****     \param [in]    faultMask  Fault Mask value to set
 263:/home/torbjorn/eclipse-workspace/CoreNG/asf/thirdparty/CMSIS/Include/core_cmFunc.h ****  */
 264:/home/torbjorn/eclipse-workspace/CoreNG/asf/thirdparty/CMSIS/Include/core_cmFunc.h **** __STATIC_INLINE void __set_FAULTMASK(uint32_t faultMask)
 265:/home/torbjorn/eclipse-workspace/CoreNG/asf/thirdparty/CMSIS/Include/core_cmFunc.h **** {
 266:/home/torbjorn/eclipse-workspace/CoreNG/asf/thirdparty/CMSIS/Include/core_cmFunc.h ****   register uint32_t __regFaultMask       __ASM("faultmask");
 267:/home/torbjorn/eclipse-workspace/CoreNG/asf/thirdparty/CMSIS/Include/core_cmFunc.h ****   __regFaultMask = (faultMask & (uint32_t)1);
 268:/home/torbjorn/eclipse-workspace/CoreNG/asf/thirdparty/CMSIS/Include/core_cmFunc.h **** }
 269:/home/torbjorn/eclipse-workspace/CoreNG/asf/thirdparty/CMSIS/Include/core_cmFunc.h **** 
 270:/home/torbjorn/eclipse-workspace/CoreNG/asf/thirdparty/CMSIS/Include/core_cmFunc.h **** #endif /* (__CORTEX_M >= 0x03) || (__CORTEX_SC >= 300) */
 271:/home/torbjorn/eclipse-workspace/CoreNG/asf/thirdparty/CMSIS/Include/core_cmFunc.h **** 
 272:/home/torbjorn/eclipse-workspace/CoreNG/asf/thirdparty/CMSIS/Include/core_cmFunc.h **** 
ARM GAS  /tmp/ccVHQYWs.s 			page 17


 273:/home/torbjorn/eclipse-workspace/CoreNG/asf/thirdparty/CMSIS/Include/core_cmFunc.h **** #if       (__CORTEX_M == 0x04) || (__CORTEX_M == 0x07)
 274:/home/torbjorn/eclipse-workspace/CoreNG/asf/thirdparty/CMSIS/Include/core_cmFunc.h **** 
 275:/home/torbjorn/eclipse-workspace/CoreNG/asf/thirdparty/CMSIS/Include/core_cmFunc.h **** /** \brief  Get FPSCR
 276:/home/torbjorn/eclipse-workspace/CoreNG/asf/thirdparty/CMSIS/Include/core_cmFunc.h **** 
 277:/home/torbjorn/eclipse-workspace/CoreNG/asf/thirdparty/CMSIS/Include/core_cmFunc.h ****     This function returns the current value of the Floating Point Status/Control register.
 278:/home/torbjorn/eclipse-workspace/CoreNG/asf/thirdparty/CMSIS/Include/core_cmFunc.h **** 
 279:/home/torbjorn/eclipse-workspace/CoreNG/asf/thirdparty/CMSIS/Include/core_cmFunc.h ****     \return               Floating Point Status/Control register value
 280:/home/torbjorn/eclipse-workspace/CoreNG/asf/thirdparty/CMSIS/Include/core_cmFunc.h ****  */
 281:/home/torbjorn/eclipse-workspace/CoreNG/asf/thirdparty/CMSIS/Include/core_cmFunc.h **** __STATIC_INLINE uint32_t __get_FPSCR(void)
 282:/home/torbjorn/eclipse-workspace/CoreNG/asf/thirdparty/CMSIS/Include/core_cmFunc.h **** {
 283:/home/torbjorn/eclipse-workspace/CoreNG/asf/thirdparty/CMSIS/Include/core_cmFunc.h **** #if (__FPU_PRESENT == 1) && (__FPU_USED == 1)
 284:/home/torbjorn/eclipse-workspace/CoreNG/asf/thirdparty/CMSIS/Include/core_cmFunc.h ****   register uint32_t __regfpscr         __ASM("fpscr");
 285:/home/torbjorn/eclipse-workspace/CoreNG/asf/thirdparty/CMSIS/Include/core_cmFunc.h ****   return(__regfpscr);
 286:/home/torbjorn/eclipse-workspace/CoreNG/asf/thirdparty/CMSIS/Include/core_cmFunc.h **** #else
 287:/home/torbjorn/eclipse-workspace/CoreNG/asf/thirdparty/CMSIS/Include/core_cmFunc.h ****    return(0);
 288:/home/torbjorn/eclipse-workspace/CoreNG/asf/thirdparty/CMSIS/Include/core_cmFunc.h **** #endif
 289:/home/torbjorn/eclipse-workspace/CoreNG/asf/thirdparty/CMSIS/Include/core_cmFunc.h **** }
 290:/home/torbjorn/eclipse-workspace/CoreNG/asf/thirdparty/CMSIS/Include/core_cmFunc.h **** 
 291:/home/torbjorn/eclipse-workspace/CoreNG/asf/thirdparty/CMSIS/Include/core_cmFunc.h **** 
 292:/home/torbjorn/eclipse-workspace/CoreNG/asf/thirdparty/CMSIS/Include/core_cmFunc.h **** /** \brief  Set FPSCR
 293:/home/torbjorn/eclipse-workspace/CoreNG/asf/thirdparty/CMSIS/Include/core_cmFunc.h **** 
 294:/home/torbjorn/eclipse-workspace/CoreNG/asf/thirdparty/CMSIS/Include/core_cmFunc.h ****     This function assigns the given value to the Floating Point Status/Control register.
 295:/home/torbjorn/eclipse-workspace/CoreNG/asf/thirdparty/CMSIS/Include/core_cmFunc.h **** 
 296:/home/torbjorn/eclipse-workspace/CoreNG/asf/thirdparty/CMSIS/Include/core_cmFunc.h ****     \param [in]    fpscr  Floating Point Status/Control value to set
 297:/home/torbjorn/eclipse-workspace/CoreNG/asf/thirdparty/CMSIS/Include/core_cmFunc.h ****  */
 298:/home/torbjorn/eclipse-workspace/CoreNG/asf/thirdparty/CMSIS/Include/core_cmFunc.h **** __STATIC_INLINE void __set_FPSCR(uint32_t fpscr)
 299:/home/torbjorn/eclipse-workspace/CoreNG/asf/thirdparty/CMSIS/Include/core_cmFunc.h **** {
 300:/home/torbjorn/eclipse-workspace/CoreNG/asf/thirdparty/CMSIS/Include/core_cmFunc.h **** #if (__FPU_PRESENT == 1) && (__FPU_USED == 1)
 301:/home/torbjorn/eclipse-workspace/CoreNG/asf/thirdparty/CMSIS/Include/core_cmFunc.h ****   register uint32_t __regfpscr         __ASM("fpscr");
 302:/home/torbjorn/eclipse-workspace/CoreNG/asf/thirdparty/CMSIS/Include/core_cmFunc.h ****   __regfpscr = (fpscr);
 303:/home/torbjorn/eclipse-workspace/CoreNG/asf/thirdparty/CMSIS/Include/core_cmFunc.h **** #endif
 304:/home/torbjorn/eclipse-workspace/CoreNG/asf/thirdparty/CMSIS/Include/core_cmFunc.h **** }
 305:/home/torbjorn/eclipse-workspace/CoreNG/asf/thirdparty/CMSIS/Include/core_cmFunc.h **** 
 306:/home/torbjorn/eclipse-workspace/CoreNG/asf/thirdparty/CMSIS/Include/core_cmFunc.h **** #endif /* (__CORTEX_M == 0x04) || (__CORTEX_M == 0x07) */
 307:/home/torbjorn/eclipse-workspace/CoreNG/asf/thirdparty/CMSIS/Include/core_cmFunc.h **** 
 308:/home/torbjorn/eclipse-workspace/CoreNG/asf/thirdparty/CMSIS/Include/core_cmFunc.h **** 
 309:/home/torbjorn/eclipse-workspace/CoreNG/asf/thirdparty/CMSIS/Include/core_cmFunc.h **** #elif defined ( __GNUC__ ) /*------------------ GNU Compiler ---------------------*/
 310:/home/torbjorn/eclipse-workspace/CoreNG/asf/thirdparty/CMSIS/Include/core_cmFunc.h **** /* GNU gcc specific functions */
 311:/home/torbjorn/eclipse-workspace/CoreNG/asf/thirdparty/CMSIS/Include/core_cmFunc.h **** 
 312:/home/torbjorn/eclipse-workspace/CoreNG/asf/thirdparty/CMSIS/Include/core_cmFunc.h **** /** \brief  Enable IRQ Interrupts
 313:/home/torbjorn/eclipse-workspace/CoreNG/asf/thirdparty/CMSIS/Include/core_cmFunc.h **** 
 314:/home/torbjorn/eclipse-workspace/CoreNG/asf/thirdparty/CMSIS/Include/core_cmFunc.h ****   This function enables IRQ interrupts by clearing the I-bit in the CPSR.
 315:/home/torbjorn/eclipse-workspace/CoreNG/asf/thirdparty/CMSIS/Include/core_cmFunc.h ****   Can only be executed in Privileged modes.
 316:/home/torbjorn/eclipse-workspace/CoreNG/asf/thirdparty/CMSIS/Include/core_cmFunc.h ****  */
 317:/home/torbjorn/eclipse-workspace/CoreNG/asf/thirdparty/CMSIS/Include/core_cmFunc.h **** __attribute__( ( always_inline ) ) __STATIC_INLINE void __enable_irq(void)
 318:/home/torbjorn/eclipse-workspace/CoreNG/asf/thirdparty/CMSIS/Include/core_cmFunc.h **** {
 319:/home/torbjorn/eclipse-workspace/CoreNG/asf/thirdparty/CMSIS/Include/core_cmFunc.h ****   __ASM volatile ("cpsie i" : : : "memory");
 320:/home/torbjorn/eclipse-workspace/CoreNG/asf/thirdparty/CMSIS/Include/core_cmFunc.h **** }
 321:/home/torbjorn/eclipse-workspace/CoreNG/asf/thirdparty/CMSIS/Include/core_cmFunc.h **** 
 322:/home/torbjorn/eclipse-workspace/CoreNG/asf/thirdparty/CMSIS/Include/core_cmFunc.h **** 
 323:/home/torbjorn/eclipse-workspace/CoreNG/asf/thirdparty/CMSIS/Include/core_cmFunc.h **** /** \brief  Disable IRQ Interrupts
 324:/home/torbjorn/eclipse-workspace/CoreNG/asf/thirdparty/CMSIS/Include/core_cmFunc.h **** 
 325:/home/torbjorn/eclipse-workspace/CoreNG/asf/thirdparty/CMSIS/Include/core_cmFunc.h ****   This function disables IRQ interrupts by setting the I-bit in the CPSR.
 326:/home/torbjorn/eclipse-workspace/CoreNG/asf/thirdparty/CMSIS/Include/core_cmFunc.h ****   Can only be executed in Privileged modes.
 327:/home/torbjorn/eclipse-workspace/CoreNG/asf/thirdparty/CMSIS/Include/core_cmFunc.h ****  */
 328:/home/torbjorn/eclipse-workspace/CoreNG/asf/thirdparty/CMSIS/Include/core_cmFunc.h **** __attribute__( ( always_inline ) ) __STATIC_INLINE void __disable_irq(void)
 329:/home/torbjorn/eclipse-workspace/CoreNG/asf/thirdparty/CMSIS/Include/core_cmFunc.h **** {
ARM GAS  /tmp/ccVHQYWs.s 			page 18


 330:/home/torbjorn/eclipse-workspace/CoreNG/asf/thirdparty/CMSIS/Include/core_cmFunc.h ****   __ASM volatile ("cpsid i" : : : "memory");
 331:/home/torbjorn/eclipse-workspace/CoreNG/asf/thirdparty/CMSIS/Include/core_cmFunc.h **** }
 332:/home/torbjorn/eclipse-workspace/CoreNG/asf/thirdparty/CMSIS/Include/core_cmFunc.h **** 
 333:/home/torbjorn/eclipse-workspace/CoreNG/asf/thirdparty/CMSIS/Include/core_cmFunc.h **** 
 334:/home/torbjorn/eclipse-workspace/CoreNG/asf/thirdparty/CMSIS/Include/core_cmFunc.h **** /** \brief  Get Control Register
 335:/home/torbjorn/eclipse-workspace/CoreNG/asf/thirdparty/CMSIS/Include/core_cmFunc.h **** 
 336:/home/torbjorn/eclipse-workspace/CoreNG/asf/thirdparty/CMSIS/Include/core_cmFunc.h ****     This function returns the content of the Control Register.
 337:/home/torbjorn/eclipse-workspace/CoreNG/asf/thirdparty/CMSIS/Include/core_cmFunc.h **** 
 338:/home/torbjorn/eclipse-workspace/CoreNG/asf/thirdparty/CMSIS/Include/core_cmFunc.h ****     \return               Control Register value
 339:/home/torbjorn/eclipse-workspace/CoreNG/asf/thirdparty/CMSIS/Include/core_cmFunc.h ****  */
 340:/home/torbjorn/eclipse-workspace/CoreNG/asf/thirdparty/CMSIS/Include/core_cmFunc.h **** __attribute__( ( always_inline ) ) __STATIC_INLINE uint32_t __get_CONTROL(void)
 341:/home/torbjorn/eclipse-workspace/CoreNG/asf/thirdparty/CMSIS/Include/core_cmFunc.h **** {
 342:/home/torbjorn/eclipse-workspace/CoreNG/asf/thirdparty/CMSIS/Include/core_cmFunc.h ****   uint32_t result;
 343:/home/torbjorn/eclipse-workspace/CoreNG/asf/thirdparty/CMSIS/Include/core_cmFunc.h **** 
 344:/home/torbjorn/eclipse-workspace/CoreNG/asf/thirdparty/CMSIS/Include/core_cmFunc.h ****   __ASM volatile ("MRS %0, control" : "=r" (result) );
 345:/home/torbjorn/eclipse-workspace/CoreNG/asf/thirdparty/CMSIS/Include/core_cmFunc.h ****   return(result);
 346:/home/torbjorn/eclipse-workspace/CoreNG/asf/thirdparty/CMSIS/Include/core_cmFunc.h **** }
 347:/home/torbjorn/eclipse-workspace/CoreNG/asf/thirdparty/CMSIS/Include/core_cmFunc.h **** 
 348:/home/torbjorn/eclipse-workspace/CoreNG/asf/thirdparty/CMSIS/Include/core_cmFunc.h **** 
 349:/home/torbjorn/eclipse-workspace/CoreNG/asf/thirdparty/CMSIS/Include/core_cmFunc.h **** /** \brief  Set Control Register
 350:/home/torbjorn/eclipse-workspace/CoreNG/asf/thirdparty/CMSIS/Include/core_cmFunc.h **** 
 351:/home/torbjorn/eclipse-workspace/CoreNG/asf/thirdparty/CMSIS/Include/core_cmFunc.h ****     This function writes the given value to the Control Register.
 352:/home/torbjorn/eclipse-workspace/CoreNG/asf/thirdparty/CMSIS/Include/core_cmFunc.h **** 
 353:/home/torbjorn/eclipse-workspace/CoreNG/asf/thirdparty/CMSIS/Include/core_cmFunc.h ****     \param [in]    control  Control Register value to set
 354:/home/torbjorn/eclipse-workspace/CoreNG/asf/thirdparty/CMSIS/Include/core_cmFunc.h ****  */
 355:/home/torbjorn/eclipse-workspace/CoreNG/asf/thirdparty/CMSIS/Include/core_cmFunc.h **** __attribute__( ( always_inline ) ) __STATIC_INLINE void __set_CONTROL(uint32_t control)
 356:/home/torbjorn/eclipse-workspace/CoreNG/asf/thirdparty/CMSIS/Include/core_cmFunc.h **** {
 357:/home/torbjorn/eclipse-workspace/CoreNG/asf/thirdparty/CMSIS/Include/core_cmFunc.h ****   __ASM volatile ("MSR control, %0" : : "r" (control) : "memory");
 358:/home/torbjorn/eclipse-workspace/CoreNG/asf/thirdparty/CMSIS/Include/core_cmFunc.h **** }
 359:/home/torbjorn/eclipse-workspace/CoreNG/asf/thirdparty/CMSIS/Include/core_cmFunc.h **** 
 360:/home/torbjorn/eclipse-workspace/CoreNG/asf/thirdparty/CMSIS/Include/core_cmFunc.h **** 
 361:/home/torbjorn/eclipse-workspace/CoreNG/asf/thirdparty/CMSIS/Include/core_cmFunc.h **** /** \brief  Get IPSR Register
 362:/home/torbjorn/eclipse-workspace/CoreNG/asf/thirdparty/CMSIS/Include/core_cmFunc.h **** 
 363:/home/torbjorn/eclipse-workspace/CoreNG/asf/thirdparty/CMSIS/Include/core_cmFunc.h ****     This function returns the content of the IPSR Register.
 364:/home/torbjorn/eclipse-workspace/CoreNG/asf/thirdparty/CMSIS/Include/core_cmFunc.h **** 
 365:/home/torbjorn/eclipse-workspace/CoreNG/asf/thirdparty/CMSIS/Include/core_cmFunc.h ****     \return               IPSR Register value
 366:/home/torbjorn/eclipse-workspace/CoreNG/asf/thirdparty/CMSIS/Include/core_cmFunc.h ****  */
 367:/home/torbjorn/eclipse-workspace/CoreNG/asf/thirdparty/CMSIS/Include/core_cmFunc.h **** __attribute__( ( always_inline ) ) __STATIC_INLINE uint32_t __get_IPSR(void)
 368:/home/torbjorn/eclipse-workspace/CoreNG/asf/thirdparty/CMSIS/Include/core_cmFunc.h **** {
 369:/home/torbjorn/eclipse-workspace/CoreNG/asf/thirdparty/CMSIS/Include/core_cmFunc.h ****   uint32_t result;
 370:/home/torbjorn/eclipse-workspace/CoreNG/asf/thirdparty/CMSIS/Include/core_cmFunc.h **** 
 371:/home/torbjorn/eclipse-workspace/CoreNG/asf/thirdparty/CMSIS/Include/core_cmFunc.h ****   __ASM volatile ("MRS %0, ipsr" : "=r" (result) );
 372:/home/torbjorn/eclipse-workspace/CoreNG/asf/thirdparty/CMSIS/Include/core_cmFunc.h ****   return(result);
 373:/home/torbjorn/eclipse-workspace/CoreNG/asf/thirdparty/CMSIS/Include/core_cmFunc.h **** }
 374:/home/torbjorn/eclipse-workspace/CoreNG/asf/thirdparty/CMSIS/Include/core_cmFunc.h **** 
 375:/home/torbjorn/eclipse-workspace/CoreNG/asf/thirdparty/CMSIS/Include/core_cmFunc.h **** 
 376:/home/torbjorn/eclipse-workspace/CoreNG/asf/thirdparty/CMSIS/Include/core_cmFunc.h **** /** \brief  Get APSR Register
 377:/home/torbjorn/eclipse-workspace/CoreNG/asf/thirdparty/CMSIS/Include/core_cmFunc.h **** 
 378:/home/torbjorn/eclipse-workspace/CoreNG/asf/thirdparty/CMSIS/Include/core_cmFunc.h ****     This function returns the content of the APSR Register.
 379:/home/torbjorn/eclipse-workspace/CoreNG/asf/thirdparty/CMSIS/Include/core_cmFunc.h **** 
 380:/home/torbjorn/eclipse-workspace/CoreNG/asf/thirdparty/CMSIS/Include/core_cmFunc.h ****     \return               APSR Register value
 381:/home/torbjorn/eclipse-workspace/CoreNG/asf/thirdparty/CMSIS/Include/core_cmFunc.h ****  */
 382:/home/torbjorn/eclipse-workspace/CoreNG/asf/thirdparty/CMSIS/Include/core_cmFunc.h **** __attribute__( ( always_inline ) ) __STATIC_INLINE uint32_t __get_APSR(void)
 383:/home/torbjorn/eclipse-workspace/CoreNG/asf/thirdparty/CMSIS/Include/core_cmFunc.h **** {
 384:/home/torbjorn/eclipse-workspace/CoreNG/asf/thirdparty/CMSIS/Include/core_cmFunc.h ****   uint32_t result;
 385:/home/torbjorn/eclipse-workspace/CoreNG/asf/thirdparty/CMSIS/Include/core_cmFunc.h **** 
 386:/home/torbjorn/eclipse-workspace/CoreNG/asf/thirdparty/CMSIS/Include/core_cmFunc.h ****   __ASM volatile ("MRS %0, apsr" : "=r" (result) );
ARM GAS  /tmp/ccVHQYWs.s 			page 19


 387:/home/torbjorn/eclipse-workspace/CoreNG/asf/thirdparty/CMSIS/Include/core_cmFunc.h ****   return(result);
 388:/home/torbjorn/eclipse-workspace/CoreNG/asf/thirdparty/CMSIS/Include/core_cmFunc.h **** }
 389:/home/torbjorn/eclipse-workspace/CoreNG/asf/thirdparty/CMSIS/Include/core_cmFunc.h **** 
 390:/home/torbjorn/eclipse-workspace/CoreNG/asf/thirdparty/CMSIS/Include/core_cmFunc.h **** 
 391:/home/torbjorn/eclipse-workspace/CoreNG/asf/thirdparty/CMSIS/Include/core_cmFunc.h **** /** \brief  Get xPSR Register
 392:/home/torbjorn/eclipse-workspace/CoreNG/asf/thirdparty/CMSIS/Include/core_cmFunc.h **** 
 393:/home/torbjorn/eclipse-workspace/CoreNG/asf/thirdparty/CMSIS/Include/core_cmFunc.h ****     This function returns the content of the xPSR Register.
 394:/home/torbjorn/eclipse-workspace/CoreNG/asf/thirdparty/CMSIS/Include/core_cmFunc.h **** 
 395:/home/torbjorn/eclipse-workspace/CoreNG/asf/thirdparty/CMSIS/Include/core_cmFunc.h ****     \return               xPSR Register value
 396:/home/torbjorn/eclipse-workspace/CoreNG/asf/thirdparty/CMSIS/Include/core_cmFunc.h ****  */
 397:/home/torbjorn/eclipse-workspace/CoreNG/asf/thirdparty/CMSIS/Include/core_cmFunc.h **** __attribute__( ( always_inline ) ) __STATIC_INLINE uint32_t __get_xPSR(void)
 398:/home/torbjorn/eclipse-workspace/CoreNG/asf/thirdparty/CMSIS/Include/core_cmFunc.h **** {
 399:/home/torbjorn/eclipse-workspace/CoreNG/asf/thirdparty/CMSIS/Include/core_cmFunc.h ****   uint32_t result;
 400:/home/torbjorn/eclipse-workspace/CoreNG/asf/thirdparty/CMSIS/Include/core_cmFunc.h **** 
 401:/home/torbjorn/eclipse-workspace/CoreNG/asf/thirdparty/CMSIS/Include/core_cmFunc.h ****   __ASM volatile ("MRS %0, xpsr" : "=r" (result) );
 402:/home/torbjorn/eclipse-workspace/CoreNG/asf/thirdparty/CMSIS/Include/core_cmFunc.h ****   return(result);
 403:/home/torbjorn/eclipse-workspace/CoreNG/asf/thirdparty/CMSIS/Include/core_cmFunc.h **** }
 404:/home/torbjorn/eclipse-workspace/CoreNG/asf/thirdparty/CMSIS/Include/core_cmFunc.h **** 
 405:/home/torbjorn/eclipse-workspace/CoreNG/asf/thirdparty/CMSIS/Include/core_cmFunc.h **** 
 406:/home/torbjorn/eclipse-workspace/CoreNG/asf/thirdparty/CMSIS/Include/core_cmFunc.h **** /** \brief  Get Process Stack Pointer
 407:/home/torbjorn/eclipse-workspace/CoreNG/asf/thirdparty/CMSIS/Include/core_cmFunc.h **** 
 408:/home/torbjorn/eclipse-workspace/CoreNG/asf/thirdparty/CMSIS/Include/core_cmFunc.h ****     This function returns the current value of the Process Stack Pointer (PSP).
 409:/home/torbjorn/eclipse-workspace/CoreNG/asf/thirdparty/CMSIS/Include/core_cmFunc.h **** 
 410:/home/torbjorn/eclipse-workspace/CoreNG/asf/thirdparty/CMSIS/Include/core_cmFunc.h ****     \return               PSP Register value
 411:/home/torbjorn/eclipse-workspace/CoreNG/asf/thirdparty/CMSIS/Include/core_cmFunc.h ****  */
 412:/home/torbjorn/eclipse-workspace/CoreNG/asf/thirdparty/CMSIS/Include/core_cmFunc.h **** __attribute__( ( always_inline ) ) __STATIC_INLINE uint32_t __get_PSP(void)
 413:/home/torbjorn/eclipse-workspace/CoreNG/asf/thirdparty/CMSIS/Include/core_cmFunc.h **** {
 414:/home/torbjorn/eclipse-workspace/CoreNG/asf/thirdparty/CMSIS/Include/core_cmFunc.h ****   register uint32_t result;
 415:/home/torbjorn/eclipse-workspace/CoreNG/asf/thirdparty/CMSIS/Include/core_cmFunc.h **** 
 416:/home/torbjorn/eclipse-workspace/CoreNG/asf/thirdparty/CMSIS/Include/core_cmFunc.h ****   __ASM volatile ("MRS %0, psp\n"  : "=r" (result) );
 417:/home/torbjorn/eclipse-workspace/CoreNG/asf/thirdparty/CMSIS/Include/core_cmFunc.h ****   return(result);
 418:/home/torbjorn/eclipse-workspace/CoreNG/asf/thirdparty/CMSIS/Include/core_cmFunc.h **** }
 419:/home/torbjorn/eclipse-workspace/CoreNG/asf/thirdparty/CMSIS/Include/core_cmFunc.h **** 
 420:/home/torbjorn/eclipse-workspace/CoreNG/asf/thirdparty/CMSIS/Include/core_cmFunc.h **** 
 421:/home/torbjorn/eclipse-workspace/CoreNG/asf/thirdparty/CMSIS/Include/core_cmFunc.h **** /** \brief  Set Process Stack Pointer
 422:/home/torbjorn/eclipse-workspace/CoreNG/asf/thirdparty/CMSIS/Include/core_cmFunc.h **** 
 423:/home/torbjorn/eclipse-workspace/CoreNG/asf/thirdparty/CMSIS/Include/core_cmFunc.h ****     This function assigns the given value to the Process Stack Pointer (PSP).
 424:/home/torbjorn/eclipse-workspace/CoreNG/asf/thirdparty/CMSIS/Include/core_cmFunc.h **** 
 425:/home/torbjorn/eclipse-workspace/CoreNG/asf/thirdparty/CMSIS/Include/core_cmFunc.h ****     \param [in]    topOfProcStack  Process Stack Pointer value to set
 426:/home/torbjorn/eclipse-workspace/CoreNG/asf/thirdparty/CMSIS/Include/core_cmFunc.h ****  */
 427:/home/torbjorn/eclipse-workspace/CoreNG/asf/thirdparty/CMSIS/Include/core_cmFunc.h **** __attribute__( ( always_inline ) ) __STATIC_INLINE void __set_PSP(uint32_t topOfProcStack)
 428:/home/torbjorn/eclipse-workspace/CoreNG/asf/thirdparty/CMSIS/Include/core_cmFunc.h **** {
 429:/home/torbjorn/eclipse-workspace/CoreNG/asf/thirdparty/CMSIS/Include/core_cmFunc.h ****   __ASM volatile ("MSR psp, %0\n" : : "r" (topOfProcStack) : "sp");
 430:/home/torbjorn/eclipse-workspace/CoreNG/asf/thirdparty/CMSIS/Include/core_cmFunc.h **** }
 431:/home/torbjorn/eclipse-workspace/CoreNG/asf/thirdparty/CMSIS/Include/core_cmFunc.h **** 
 432:/home/torbjorn/eclipse-workspace/CoreNG/asf/thirdparty/CMSIS/Include/core_cmFunc.h **** 
 433:/home/torbjorn/eclipse-workspace/CoreNG/asf/thirdparty/CMSIS/Include/core_cmFunc.h **** /** \brief  Get Main Stack Pointer
 434:/home/torbjorn/eclipse-workspace/CoreNG/asf/thirdparty/CMSIS/Include/core_cmFunc.h **** 
 435:/home/torbjorn/eclipse-workspace/CoreNG/asf/thirdparty/CMSIS/Include/core_cmFunc.h ****     This function returns the current value of the Main Stack Pointer (MSP).
 436:/home/torbjorn/eclipse-workspace/CoreNG/asf/thirdparty/CMSIS/Include/core_cmFunc.h **** 
 437:/home/torbjorn/eclipse-workspace/CoreNG/asf/thirdparty/CMSIS/Include/core_cmFunc.h ****     \return               MSP Register value
 438:/home/torbjorn/eclipse-workspace/CoreNG/asf/thirdparty/CMSIS/Include/core_cmFunc.h ****  */
 439:/home/torbjorn/eclipse-workspace/CoreNG/asf/thirdparty/CMSIS/Include/core_cmFunc.h **** __attribute__( ( always_inline ) ) __STATIC_INLINE uint32_t __get_MSP(void)
 440:/home/torbjorn/eclipse-workspace/CoreNG/asf/thirdparty/CMSIS/Include/core_cmFunc.h **** {
 441:/home/torbjorn/eclipse-workspace/CoreNG/asf/thirdparty/CMSIS/Include/core_cmFunc.h ****   register uint32_t result;
 442:/home/torbjorn/eclipse-workspace/CoreNG/asf/thirdparty/CMSIS/Include/core_cmFunc.h **** 
 443:/home/torbjorn/eclipse-workspace/CoreNG/asf/thirdparty/CMSIS/Include/core_cmFunc.h ****   __ASM volatile ("MRS %0, msp\n" : "=r" (result) );
ARM GAS  /tmp/ccVHQYWs.s 			page 20


 444:/home/torbjorn/eclipse-workspace/CoreNG/asf/thirdparty/CMSIS/Include/core_cmFunc.h ****   return(result);
 445:/home/torbjorn/eclipse-workspace/CoreNG/asf/thirdparty/CMSIS/Include/core_cmFunc.h **** }
 446:/home/torbjorn/eclipse-workspace/CoreNG/asf/thirdparty/CMSIS/Include/core_cmFunc.h **** 
 447:/home/torbjorn/eclipse-workspace/CoreNG/asf/thirdparty/CMSIS/Include/core_cmFunc.h **** 
 448:/home/torbjorn/eclipse-workspace/CoreNG/asf/thirdparty/CMSIS/Include/core_cmFunc.h **** /** \brief  Set Main Stack Pointer
 449:/home/torbjorn/eclipse-workspace/CoreNG/asf/thirdparty/CMSIS/Include/core_cmFunc.h **** 
 450:/home/torbjorn/eclipse-workspace/CoreNG/asf/thirdparty/CMSIS/Include/core_cmFunc.h ****     This function assigns the given value to the Main Stack Pointer (MSP).
 451:/home/torbjorn/eclipse-workspace/CoreNG/asf/thirdparty/CMSIS/Include/core_cmFunc.h **** 
 452:/home/torbjorn/eclipse-workspace/CoreNG/asf/thirdparty/CMSIS/Include/core_cmFunc.h ****     \param [in]    topOfMainStack  Main Stack Pointer value to set
 453:/home/torbjorn/eclipse-workspace/CoreNG/asf/thirdparty/CMSIS/Include/core_cmFunc.h ****  */
 454:/home/torbjorn/eclipse-workspace/CoreNG/asf/thirdparty/CMSIS/Include/core_cmFunc.h **** __attribute__( ( always_inline ) ) __STATIC_INLINE void __set_MSP(uint32_t topOfMainStack)
 455:/home/torbjorn/eclipse-workspace/CoreNG/asf/thirdparty/CMSIS/Include/core_cmFunc.h **** {
 456:/home/torbjorn/eclipse-workspace/CoreNG/asf/thirdparty/CMSIS/Include/core_cmFunc.h ****   __ASM volatile ("MSR msp, %0\n" : : "r" (topOfMainStack) : "sp");
 457:/home/torbjorn/eclipse-workspace/CoreNG/asf/thirdparty/CMSIS/Include/core_cmFunc.h **** }
 458:/home/torbjorn/eclipse-workspace/CoreNG/asf/thirdparty/CMSIS/Include/core_cmFunc.h **** 
 459:/home/torbjorn/eclipse-workspace/CoreNG/asf/thirdparty/CMSIS/Include/core_cmFunc.h **** 
 460:/home/torbjorn/eclipse-workspace/CoreNG/asf/thirdparty/CMSIS/Include/core_cmFunc.h **** /** \brief  Get Priority Mask
 461:/home/torbjorn/eclipse-workspace/CoreNG/asf/thirdparty/CMSIS/Include/core_cmFunc.h **** 
 462:/home/torbjorn/eclipse-workspace/CoreNG/asf/thirdparty/CMSIS/Include/core_cmFunc.h ****     This function returns the current state of the priority mask bit from the Priority Mask Registe
 463:/home/torbjorn/eclipse-workspace/CoreNG/asf/thirdparty/CMSIS/Include/core_cmFunc.h **** 
 464:/home/torbjorn/eclipse-workspace/CoreNG/asf/thirdparty/CMSIS/Include/core_cmFunc.h ****     \return               Priority Mask value
 465:/home/torbjorn/eclipse-workspace/CoreNG/asf/thirdparty/CMSIS/Include/core_cmFunc.h ****  */
 466:/home/torbjorn/eclipse-workspace/CoreNG/asf/thirdparty/CMSIS/Include/core_cmFunc.h **** __attribute__( ( always_inline ) ) __STATIC_INLINE uint32_t __get_PRIMASK(void)
 467:/home/torbjorn/eclipse-workspace/CoreNG/asf/thirdparty/CMSIS/Include/core_cmFunc.h **** {
 468:/home/torbjorn/eclipse-workspace/CoreNG/asf/thirdparty/CMSIS/Include/core_cmFunc.h ****   uint32_t result;
 469:/home/torbjorn/eclipse-workspace/CoreNG/asf/thirdparty/CMSIS/Include/core_cmFunc.h **** 
 470:/home/torbjorn/eclipse-workspace/CoreNG/asf/thirdparty/CMSIS/Include/core_cmFunc.h ****   __ASM volatile ("MRS %0, primask" : "=r" (result) );
 252              		.loc 2 470 0
 253              		.syntax unified
 254              	@ 470 "/home/torbjorn/eclipse-workspace/CoreNG/asf/thirdparty/CMSIS/Include/core_cmFunc.h" 1
 255 0050 EFF31083 		MRS r3, primask
 256              	@ 0 "" 2
 257              	.LVL8:
 258              		.thumb
 259              		.syntax unified
 260              	.LBE59:
 261              	.LBE58:
 262              	.LBB60:
 263              	.LBB61:
 330:/home/torbjorn/eclipse-workspace/CoreNG/asf/thirdparty/CMSIS/Include/core_cmFunc.h **** }
 264              		.loc 2 330 0
 265              		.syntax unified
 266              	@ 330 "/home/torbjorn/eclipse-workspace/CoreNG/asf/thirdparty/CMSIS/Include/core_cmFunc.h" 1
 267 0054 72B6     		cpsid i
 268              	@ 0 "" 2
 269              		.thumb
 270              		.syntax unified
 271              	.LBE61:
 272              	.LBE60:
 273              	.LBB62:
 274              	.LBB63:
 275              		.file 3 "/home/torbjorn/eclipse-workspace/CoreNG/asf/thirdparty/CMSIS/Include/core_cmInstr.h"
   1:/home/torbjorn/eclipse-workspace/CoreNG/asf/thirdparty/CMSIS/Include/core_cmInstr.h **** /**************************************************************************//**
   2:/home/torbjorn/eclipse-workspace/CoreNG/asf/thirdparty/CMSIS/Include/core_cmInstr.h ****  * @file     core_cmInstr.h
   3:/home/torbjorn/eclipse-workspace/CoreNG/asf/thirdparty/CMSIS/Include/core_cmInstr.h ****  * @brief    CMSIS Cortex-M Core Instruction Access Header File
   4:/home/torbjorn/eclipse-workspace/CoreNG/asf/thirdparty/CMSIS/Include/core_cmInstr.h ****  * @version  V4.00
   5:/home/torbjorn/eclipse-workspace/CoreNG/asf/thirdparty/CMSIS/Include/core_cmInstr.h ****  * @date     28. August 2014
ARM GAS  /tmp/ccVHQYWs.s 			page 21


   6:/home/torbjorn/eclipse-workspace/CoreNG/asf/thirdparty/CMSIS/Include/core_cmInstr.h ****  *
   7:/home/torbjorn/eclipse-workspace/CoreNG/asf/thirdparty/CMSIS/Include/core_cmInstr.h ****  * @note
   8:/home/torbjorn/eclipse-workspace/CoreNG/asf/thirdparty/CMSIS/Include/core_cmInstr.h ****  *
   9:/home/torbjorn/eclipse-workspace/CoreNG/asf/thirdparty/CMSIS/Include/core_cmInstr.h ****  ******************************************************************************/
  10:/home/torbjorn/eclipse-workspace/CoreNG/asf/thirdparty/CMSIS/Include/core_cmInstr.h **** /* Copyright (c) 2009 - 2014 ARM LIMITED
  11:/home/torbjorn/eclipse-workspace/CoreNG/asf/thirdparty/CMSIS/Include/core_cmInstr.h **** 
  12:/home/torbjorn/eclipse-workspace/CoreNG/asf/thirdparty/CMSIS/Include/core_cmInstr.h ****    All rights reserved.
  13:/home/torbjorn/eclipse-workspace/CoreNG/asf/thirdparty/CMSIS/Include/core_cmInstr.h ****    Redistribution and use in source and binary forms, with or without
  14:/home/torbjorn/eclipse-workspace/CoreNG/asf/thirdparty/CMSIS/Include/core_cmInstr.h ****    modification, are permitted provided that the following conditions are met:
  15:/home/torbjorn/eclipse-workspace/CoreNG/asf/thirdparty/CMSIS/Include/core_cmInstr.h ****    - Redistributions of source code must retain the above copyright
  16:/home/torbjorn/eclipse-workspace/CoreNG/asf/thirdparty/CMSIS/Include/core_cmInstr.h ****      notice, this list of conditions and the following disclaimer.
  17:/home/torbjorn/eclipse-workspace/CoreNG/asf/thirdparty/CMSIS/Include/core_cmInstr.h ****    - Redistributions in binary form must reproduce the above copyright
  18:/home/torbjorn/eclipse-workspace/CoreNG/asf/thirdparty/CMSIS/Include/core_cmInstr.h ****      notice, this list of conditions and the following disclaimer in the
  19:/home/torbjorn/eclipse-workspace/CoreNG/asf/thirdparty/CMSIS/Include/core_cmInstr.h ****      documentation and/or other materials provided with the distribution.
  20:/home/torbjorn/eclipse-workspace/CoreNG/asf/thirdparty/CMSIS/Include/core_cmInstr.h ****    - Neither the name of ARM nor the names of its contributors may be used
  21:/home/torbjorn/eclipse-workspace/CoreNG/asf/thirdparty/CMSIS/Include/core_cmInstr.h ****      to endorse or promote products derived from this software without
  22:/home/torbjorn/eclipse-workspace/CoreNG/asf/thirdparty/CMSIS/Include/core_cmInstr.h ****      specific prior written permission.
  23:/home/torbjorn/eclipse-workspace/CoreNG/asf/thirdparty/CMSIS/Include/core_cmInstr.h ****    *
  24:/home/torbjorn/eclipse-workspace/CoreNG/asf/thirdparty/CMSIS/Include/core_cmInstr.h ****    THIS SOFTWARE IS PROVIDED BY THE COPYRIGHT HOLDERS AND CONTRIBUTORS "AS IS"
  25:/home/torbjorn/eclipse-workspace/CoreNG/asf/thirdparty/CMSIS/Include/core_cmInstr.h ****    AND ANY EXPRESS OR IMPLIED WARRANTIES, INCLUDING, BUT NOT LIMITED TO, THE
  26:/home/torbjorn/eclipse-workspace/CoreNG/asf/thirdparty/CMSIS/Include/core_cmInstr.h ****    IMPLIED WARRANTIES OF MERCHANTABILITY AND FITNESS FOR A PARTICULAR PURPOSE
  27:/home/torbjorn/eclipse-workspace/CoreNG/asf/thirdparty/CMSIS/Include/core_cmInstr.h ****    ARE DISCLAIMED. IN NO EVENT SHALL COPYRIGHT HOLDERS AND CONTRIBUTORS BE
  28:/home/torbjorn/eclipse-workspace/CoreNG/asf/thirdparty/CMSIS/Include/core_cmInstr.h ****    LIABLE FOR ANY DIRECT, INDIRECT, INCIDENTAL, SPECIAL, EXEMPLARY, OR
  29:/home/torbjorn/eclipse-workspace/CoreNG/asf/thirdparty/CMSIS/Include/core_cmInstr.h ****    CONSEQUENTIAL DAMAGES (INCLUDING, BUT NOT LIMITED TO, PROCUREMENT OF
  30:/home/torbjorn/eclipse-workspace/CoreNG/asf/thirdparty/CMSIS/Include/core_cmInstr.h ****    SUBSTITUTE GOODS OR SERVICES; LOSS OF USE, DATA, OR PROFITS; OR BUSINESS
  31:/home/torbjorn/eclipse-workspace/CoreNG/asf/thirdparty/CMSIS/Include/core_cmInstr.h ****    INTERRUPTION) HOWEVER CAUSED AND ON ANY THEORY OF LIABILITY, WHETHER IN
  32:/home/torbjorn/eclipse-workspace/CoreNG/asf/thirdparty/CMSIS/Include/core_cmInstr.h ****    CONTRACT, STRICT LIABILITY, OR TORT (INCLUDING NEGLIGENCE OR OTHERWISE)
  33:/home/torbjorn/eclipse-workspace/CoreNG/asf/thirdparty/CMSIS/Include/core_cmInstr.h ****    ARISING IN ANY WAY OUT OF THE USE OF THIS SOFTWARE, EVEN IF ADVISED OF THE
  34:/home/torbjorn/eclipse-workspace/CoreNG/asf/thirdparty/CMSIS/Include/core_cmInstr.h ****    POSSIBILITY OF SUCH DAMAGE.
  35:/home/torbjorn/eclipse-workspace/CoreNG/asf/thirdparty/CMSIS/Include/core_cmInstr.h ****    ---------------------------------------------------------------------------*/
  36:/home/torbjorn/eclipse-workspace/CoreNG/asf/thirdparty/CMSIS/Include/core_cmInstr.h **** 
  37:/home/torbjorn/eclipse-workspace/CoreNG/asf/thirdparty/CMSIS/Include/core_cmInstr.h **** 
  38:/home/torbjorn/eclipse-workspace/CoreNG/asf/thirdparty/CMSIS/Include/core_cmInstr.h **** #ifndef __CORE_CMINSTR_H
  39:/home/torbjorn/eclipse-workspace/CoreNG/asf/thirdparty/CMSIS/Include/core_cmInstr.h **** #define __CORE_CMINSTR_H
  40:/home/torbjorn/eclipse-workspace/CoreNG/asf/thirdparty/CMSIS/Include/core_cmInstr.h **** 
  41:/home/torbjorn/eclipse-workspace/CoreNG/asf/thirdparty/CMSIS/Include/core_cmInstr.h **** 
  42:/home/torbjorn/eclipse-workspace/CoreNG/asf/thirdparty/CMSIS/Include/core_cmInstr.h **** /* ##########################  Core Instruction Access  ######################### */
  43:/home/torbjorn/eclipse-workspace/CoreNG/asf/thirdparty/CMSIS/Include/core_cmInstr.h **** /** \defgroup CMSIS_Core_InstructionInterface CMSIS Core Instruction Interface
  44:/home/torbjorn/eclipse-workspace/CoreNG/asf/thirdparty/CMSIS/Include/core_cmInstr.h ****   Access to dedicated instructions
  45:/home/torbjorn/eclipse-workspace/CoreNG/asf/thirdparty/CMSIS/Include/core_cmInstr.h ****   @{
  46:/home/torbjorn/eclipse-workspace/CoreNG/asf/thirdparty/CMSIS/Include/core_cmInstr.h **** */
  47:/home/torbjorn/eclipse-workspace/CoreNG/asf/thirdparty/CMSIS/Include/core_cmInstr.h **** 
  48:/home/torbjorn/eclipse-workspace/CoreNG/asf/thirdparty/CMSIS/Include/core_cmInstr.h **** #if   defined ( __CC_ARM ) /*------------------RealView Compiler -----------------*/
  49:/home/torbjorn/eclipse-workspace/CoreNG/asf/thirdparty/CMSIS/Include/core_cmInstr.h **** /* ARM armcc specific functions */
  50:/home/torbjorn/eclipse-workspace/CoreNG/asf/thirdparty/CMSIS/Include/core_cmInstr.h **** 
  51:/home/torbjorn/eclipse-workspace/CoreNG/asf/thirdparty/CMSIS/Include/core_cmInstr.h **** #if (__ARMCC_VERSION < 400677)
  52:/home/torbjorn/eclipse-workspace/CoreNG/asf/thirdparty/CMSIS/Include/core_cmInstr.h ****   #error "Please use ARM Compiler Toolchain V4.0.677 or later!"
  53:/home/torbjorn/eclipse-workspace/CoreNG/asf/thirdparty/CMSIS/Include/core_cmInstr.h **** #endif
  54:/home/torbjorn/eclipse-workspace/CoreNG/asf/thirdparty/CMSIS/Include/core_cmInstr.h **** 
  55:/home/torbjorn/eclipse-workspace/CoreNG/asf/thirdparty/CMSIS/Include/core_cmInstr.h **** 
  56:/home/torbjorn/eclipse-workspace/CoreNG/asf/thirdparty/CMSIS/Include/core_cmInstr.h **** /** \brief  No Operation
  57:/home/torbjorn/eclipse-workspace/CoreNG/asf/thirdparty/CMSIS/Include/core_cmInstr.h **** 
  58:/home/torbjorn/eclipse-workspace/CoreNG/asf/thirdparty/CMSIS/Include/core_cmInstr.h ****     No Operation does nothing. This instruction can be used for code alignment purposes.
  59:/home/torbjorn/eclipse-workspace/CoreNG/asf/thirdparty/CMSIS/Include/core_cmInstr.h ****  */
  60:/home/torbjorn/eclipse-workspace/CoreNG/asf/thirdparty/CMSIS/Include/core_cmInstr.h **** #define __NOP                             __nop
  61:/home/torbjorn/eclipse-workspace/CoreNG/asf/thirdparty/CMSIS/Include/core_cmInstr.h **** 
  62:/home/torbjorn/eclipse-workspace/CoreNG/asf/thirdparty/CMSIS/Include/core_cmInstr.h **** 
ARM GAS  /tmp/ccVHQYWs.s 			page 22


  63:/home/torbjorn/eclipse-workspace/CoreNG/asf/thirdparty/CMSIS/Include/core_cmInstr.h **** /** \brief  Wait For Interrupt
  64:/home/torbjorn/eclipse-workspace/CoreNG/asf/thirdparty/CMSIS/Include/core_cmInstr.h **** 
  65:/home/torbjorn/eclipse-workspace/CoreNG/asf/thirdparty/CMSIS/Include/core_cmInstr.h ****     Wait For Interrupt is a hint instruction that suspends execution
  66:/home/torbjorn/eclipse-workspace/CoreNG/asf/thirdparty/CMSIS/Include/core_cmInstr.h ****     until one of a number of events occurs.
  67:/home/torbjorn/eclipse-workspace/CoreNG/asf/thirdparty/CMSIS/Include/core_cmInstr.h ****  */
  68:/home/torbjorn/eclipse-workspace/CoreNG/asf/thirdparty/CMSIS/Include/core_cmInstr.h **** #define __WFI                             __wfi
  69:/home/torbjorn/eclipse-workspace/CoreNG/asf/thirdparty/CMSIS/Include/core_cmInstr.h **** 
  70:/home/torbjorn/eclipse-workspace/CoreNG/asf/thirdparty/CMSIS/Include/core_cmInstr.h **** 
  71:/home/torbjorn/eclipse-workspace/CoreNG/asf/thirdparty/CMSIS/Include/core_cmInstr.h **** /** \brief  Wait For Event
  72:/home/torbjorn/eclipse-workspace/CoreNG/asf/thirdparty/CMSIS/Include/core_cmInstr.h **** 
  73:/home/torbjorn/eclipse-workspace/CoreNG/asf/thirdparty/CMSIS/Include/core_cmInstr.h ****     Wait For Event is a hint instruction that permits the processor to enter
  74:/home/torbjorn/eclipse-workspace/CoreNG/asf/thirdparty/CMSIS/Include/core_cmInstr.h ****     a low-power state until one of a number of events occurs.
  75:/home/torbjorn/eclipse-workspace/CoreNG/asf/thirdparty/CMSIS/Include/core_cmInstr.h ****  */
  76:/home/torbjorn/eclipse-workspace/CoreNG/asf/thirdparty/CMSIS/Include/core_cmInstr.h **** #define __WFE                             __wfe
  77:/home/torbjorn/eclipse-workspace/CoreNG/asf/thirdparty/CMSIS/Include/core_cmInstr.h **** 
  78:/home/torbjorn/eclipse-workspace/CoreNG/asf/thirdparty/CMSIS/Include/core_cmInstr.h **** 
  79:/home/torbjorn/eclipse-workspace/CoreNG/asf/thirdparty/CMSIS/Include/core_cmInstr.h **** /** \brief  Send Event
  80:/home/torbjorn/eclipse-workspace/CoreNG/asf/thirdparty/CMSIS/Include/core_cmInstr.h **** 
  81:/home/torbjorn/eclipse-workspace/CoreNG/asf/thirdparty/CMSIS/Include/core_cmInstr.h ****     Send Event is a hint instruction. It causes an event to be signaled to the CPU.
  82:/home/torbjorn/eclipse-workspace/CoreNG/asf/thirdparty/CMSIS/Include/core_cmInstr.h ****  */
  83:/home/torbjorn/eclipse-workspace/CoreNG/asf/thirdparty/CMSIS/Include/core_cmInstr.h **** #define __SEV                             __sev
  84:/home/torbjorn/eclipse-workspace/CoreNG/asf/thirdparty/CMSIS/Include/core_cmInstr.h **** 
  85:/home/torbjorn/eclipse-workspace/CoreNG/asf/thirdparty/CMSIS/Include/core_cmInstr.h **** 
  86:/home/torbjorn/eclipse-workspace/CoreNG/asf/thirdparty/CMSIS/Include/core_cmInstr.h **** /** \brief  Instruction Synchronization Barrier
  87:/home/torbjorn/eclipse-workspace/CoreNG/asf/thirdparty/CMSIS/Include/core_cmInstr.h **** 
  88:/home/torbjorn/eclipse-workspace/CoreNG/asf/thirdparty/CMSIS/Include/core_cmInstr.h ****     Instruction Synchronization Barrier flushes the pipeline in the processor,
  89:/home/torbjorn/eclipse-workspace/CoreNG/asf/thirdparty/CMSIS/Include/core_cmInstr.h ****     so that all instructions following the ISB are fetched from cache or
  90:/home/torbjorn/eclipse-workspace/CoreNG/asf/thirdparty/CMSIS/Include/core_cmInstr.h ****     memory, after the instruction has been completed.
  91:/home/torbjorn/eclipse-workspace/CoreNG/asf/thirdparty/CMSIS/Include/core_cmInstr.h ****  */
  92:/home/torbjorn/eclipse-workspace/CoreNG/asf/thirdparty/CMSIS/Include/core_cmInstr.h **** #define __ISB()                           __isb(0xF)
  93:/home/torbjorn/eclipse-workspace/CoreNG/asf/thirdparty/CMSIS/Include/core_cmInstr.h **** 
  94:/home/torbjorn/eclipse-workspace/CoreNG/asf/thirdparty/CMSIS/Include/core_cmInstr.h **** 
  95:/home/torbjorn/eclipse-workspace/CoreNG/asf/thirdparty/CMSIS/Include/core_cmInstr.h **** /** \brief  Data Synchronization Barrier
  96:/home/torbjorn/eclipse-workspace/CoreNG/asf/thirdparty/CMSIS/Include/core_cmInstr.h **** 
  97:/home/torbjorn/eclipse-workspace/CoreNG/asf/thirdparty/CMSIS/Include/core_cmInstr.h ****     This function acts as a special kind of Data Memory Barrier.
  98:/home/torbjorn/eclipse-workspace/CoreNG/asf/thirdparty/CMSIS/Include/core_cmInstr.h ****     It completes when all explicit memory accesses before this instruction complete.
  99:/home/torbjorn/eclipse-workspace/CoreNG/asf/thirdparty/CMSIS/Include/core_cmInstr.h ****  */
 100:/home/torbjorn/eclipse-workspace/CoreNG/asf/thirdparty/CMSIS/Include/core_cmInstr.h **** #define __DSB()                           __dsb(0xF)
 101:/home/torbjorn/eclipse-workspace/CoreNG/asf/thirdparty/CMSIS/Include/core_cmInstr.h **** 
 102:/home/torbjorn/eclipse-workspace/CoreNG/asf/thirdparty/CMSIS/Include/core_cmInstr.h **** 
 103:/home/torbjorn/eclipse-workspace/CoreNG/asf/thirdparty/CMSIS/Include/core_cmInstr.h **** /** \brief  Data Memory Barrier
 104:/home/torbjorn/eclipse-workspace/CoreNG/asf/thirdparty/CMSIS/Include/core_cmInstr.h **** 
 105:/home/torbjorn/eclipse-workspace/CoreNG/asf/thirdparty/CMSIS/Include/core_cmInstr.h ****     This function ensures the apparent order of the explicit memory operations before
 106:/home/torbjorn/eclipse-workspace/CoreNG/asf/thirdparty/CMSIS/Include/core_cmInstr.h ****     and after the instruction, without ensuring their completion.
 107:/home/torbjorn/eclipse-workspace/CoreNG/asf/thirdparty/CMSIS/Include/core_cmInstr.h ****  */
 108:/home/torbjorn/eclipse-workspace/CoreNG/asf/thirdparty/CMSIS/Include/core_cmInstr.h **** #define __DMB()                           __dmb(0xF)
 109:/home/torbjorn/eclipse-workspace/CoreNG/asf/thirdparty/CMSIS/Include/core_cmInstr.h **** 
 110:/home/torbjorn/eclipse-workspace/CoreNG/asf/thirdparty/CMSIS/Include/core_cmInstr.h **** 
 111:/home/torbjorn/eclipse-workspace/CoreNG/asf/thirdparty/CMSIS/Include/core_cmInstr.h **** /** \brief  Reverse byte order (32 bit)
 112:/home/torbjorn/eclipse-workspace/CoreNG/asf/thirdparty/CMSIS/Include/core_cmInstr.h **** 
 113:/home/torbjorn/eclipse-workspace/CoreNG/asf/thirdparty/CMSIS/Include/core_cmInstr.h ****     This function reverses the byte order in integer value.
 114:/home/torbjorn/eclipse-workspace/CoreNG/asf/thirdparty/CMSIS/Include/core_cmInstr.h **** 
 115:/home/torbjorn/eclipse-workspace/CoreNG/asf/thirdparty/CMSIS/Include/core_cmInstr.h ****     \param [in]    value  Value to reverse
 116:/home/torbjorn/eclipse-workspace/CoreNG/asf/thirdparty/CMSIS/Include/core_cmInstr.h ****     \return               Reversed value
 117:/home/torbjorn/eclipse-workspace/CoreNG/asf/thirdparty/CMSIS/Include/core_cmInstr.h ****  */
 118:/home/torbjorn/eclipse-workspace/CoreNG/asf/thirdparty/CMSIS/Include/core_cmInstr.h **** #define __REV                             __rev
 119:/home/torbjorn/eclipse-workspace/CoreNG/asf/thirdparty/CMSIS/Include/core_cmInstr.h **** 
ARM GAS  /tmp/ccVHQYWs.s 			page 23


 120:/home/torbjorn/eclipse-workspace/CoreNG/asf/thirdparty/CMSIS/Include/core_cmInstr.h **** 
 121:/home/torbjorn/eclipse-workspace/CoreNG/asf/thirdparty/CMSIS/Include/core_cmInstr.h **** /** \brief  Reverse byte order (16 bit)
 122:/home/torbjorn/eclipse-workspace/CoreNG/asf/thirdparty/CMSIS/Include/core_cmInstr.h **** 
 123:/home/torbjorn/eclipse-workspace/CoreNG/asf/thirdparty/CMSIS/Include/core_cmInstr.h ****     This function reverses the byte order in two unsigned short values.
 124:/home/torbjorn/eclipse-workspace/CoreNG/asf/thirdparty/CMSIS/Include/core_cmInstr.h **** 
 125:/home/torbjorn/eclipse-workspace/CoreNG/asf/thirdparty/CMSIS/Include/core_cmInstr.h ****     \param [in]    value  Value to reverse
 126:/home/torbjorn/eclipse-workspace/CoreNG/asf/thirdparty/CMSIS/Include/core_cmInstr.h ****     \return               Reversed value
 127:/home/torbjorn/eclipse-workspace/CoreNG/asf/thirdparty/CMSIS/Include/core_cmInstr.h ****  */
 128:/home/torbjorn/eclipse-workspace/CoreNG/asf/thirdparty/CMSIS/Include/core_cmInstr.h **** #ifndef __NO_EMBEDDED_ASM
 129:/home/torbjorn/eclipse-workspace/CoreNG/asf/thirdparty/CMSIS/Include/core_cmInstr.h **** __attribute__((section(".rev16_text"))) __STATIC_INLINE __ASM uint32_t __REV16(uint32_t value)
 130:/home/torbjorn/eclipse-workspace/CoreNG/asf/thirdparty/CMSIS/Include/core_cmInstr.h **** {
 131:/home/torbjorn/eclipse-workspace/CoreNG/asf/thirdparty/CMSIS/Include/core_cmInstr.h ****   rev16 r0, r0
 132:/home/torbjorn/eclipse-workspace/CoreNG/asf/thirdparty/CMSIS/Include/core_cmInstr.h ****   bx lr
 133:/home/torbjorn/eclipse-workspace/CoreNG/asf/thirdparty/CMSIS/Include/core_cmInstr.h **** }
 134:/home/torbjorn/eclipse-workspace/CoreNG/asf/thirdparty/CMSIS/Include/core_cmInstr.h **** #endif
 135:/home/torbjorn/eclipse-workspace/CoreNG/asf/thirdparty/CMSIS/Include/core_cmInstr.h **** 
 136:/home/torbjorn/eclipse-workspace/CoreNG/asf/thirdparty/CMSIS/Include/core_cmInstr.h **** /** \brief  Reverse byte order in signed short value
 137:/home/torbjorn/eclipse-workspace/CoreNG/asf/thirdparty/CMSIS/Include/core_cmInstr.h **** 
 138:/home/torbjorn/eclipse-workspace/CoreNG/asf/thirdparty/CMSIS/Include/core_cmInstr.h ****     This function reverses the byte order in a signed short value with sign extension to integer.
 139:/home/torbjorn/eclipse-workspace/CoreNG/asf/thirdparty/CMSIS/Include/core_cmInstr.h **** 
 140:/home/torbjorn/eclipse-workspace/CoreNG/asf/thirdparty/CMSIS/Include/core_cmInstr.h ****     \param [in]    value  Value to reverse
 141:/home/torbjorn/eclipse-workspace/CoreNG/asf/thirdparty/CMSIS/Include/core_cmInstr.h ****     \return               Reversed value
 142:/home/torbjorn/eclipse-workspace/CoreNG/asf/thirdparty/CMSIS/Include/core_cmInstr.h ****  */
 143:/home/torbjorn/eclipse-workspace/CoreNG/asf/thirdparty/CMSIS/Include/core_cmInstr.h **** #ifndef __NO_EMBEDDED_ASM
 144:/home/torbjorn/eclipse-workspace/CoreNG/asf/thirdparty/CMSIS/Include/core_cmInstr.h **** __attribute__((section(".revsh_text"))) __STATIC_INLINE __ASM int32_t __REVSH(int32_t value)
 145:/home/torbjorn/eclipse-workspace/CoreNG/asf/thirdparty/CMSIS/Include/core_cmInstr.h **** {
 146:/home/torbjorn/eclipse-workspace/CoreNG/asf/thirdparty/CMSIS/Include/core_cmInstr.h ****   revsh r0, r0
 147:/home/torbjorn/eclipse-workspace/CoreNG/asf/thirdparty/CMSIS/Include/core_cmInstr.h ****   bx lr
 148:/home/torbjorn/eclipse-workspace/CoreNG/asf/thirdparty/CMSIS/Include/core_cmInstr.h **** }
 149:/home/torbjorn/eclipse-workspace/CoreNG/asf/thirdparty/CMSIS/Include/core_cmInstr.h **** #endif
 150:/home/torbjorn/eclipse-workspace/CoreNG/asf/thirdparty/CMSIS/Include/core_cmInstr.h **** 
 151:/home/torbjorn/eclipse-workspace/CoreNG/asf/thirdparty/CMSIS/Include/core_cmInstr.h **** 
 152:/home/torbjorn/eclipse-workspace/CoreNG/asf/thirdparty/CMSIS/Include/core_cmInstr.h **** /** \brief  Rotate Right in unsigned value (32 bit)
 153:/home/torbjorn/eclipse-workspace/CoreNG/asf/thirdparty/CMSIS/Include/core_cmInstr.h **** 
 154:/home/torbjorn/eclipse-workspace/CoreNG/asf/thirdparty/CMSIS/Include/core_cmInstr.h ****     This function Rotate Right (immediate) provides the value of the contents of a register rotated
 155:/home/torbjorn/eclipse-workspace/CoreNG/asf/thirdparty/CMSIS/Include/core_cmInstr.h **** 
 156:/home/torbjorn/eclipse-workspace/CoreNG/asf/thirdparty/CMSIS/Include/core_cmInstr.h ****     \param [in]    value  Value to rotate
 157:/home/torbjorn/eclipse-workspace/CoreNG/asf/thirdparty/CMSIS/Include/core_cmInstr.h ****     \param [in]    value  Number of Bits to rotate
 158:/home/torbjorn/eclipse-workspace/CoreNG/asf/thirdparty/CMSIS/Include/core_cmInstr.h ****     \return               Rotated value
 159:/home/torbjorn/eclipse-workspace/CoreNG/asf/thirdparty/CMSIS/Include/core_cmInstr.h ****  */
 160:/home/torbjorn/eclipse-workspace/CoreNG/asf/thirdparty/CMSIS/Include/core_cmInstr.h **** #define __ROR                             __ror
 161:/home/torbjorn/eclipse-workspace/CoreNG/asf/thirdparty/CMSIS/Include/core_cmInstr.h **** 
 162:/home/torbjorn/eclipse-workspace/CoreNG/asf/thirdparty/CMSIS/Include/core_cmInstr.h **** 
 163:/home/torbjorn/eclipse-workspace/CoreNG/asf/thirdparty/CMSIS/Include/core_cmInstr.h **** /** \brief  Breakpoint
 164:/home/torbjorn/eclipse-workspace/CoreNG/asf/thirdparty/CMSIS/Include/core_cmInstr.h **** 
 165:/home/torbjorn/eclipse-workspace/CoreNG/asf/thirdparty/CMSIS/Include/core_cmInstr.h ****     This function causes the processor to enter Debug state.
 166:/home/torbjorn/eclipse-workspace/CoreNG/asf/thirdparty/CMSIS/Include/core_cmInstr.h ****     Debug tools can use this to investigate system state when the instruction at a particular addre
 167:/home/torbjorn/eclipse-workspace/CoreNG/asf/thirdparty/CMSIS/Include/core_cmInstr.h **** 
 168:/home/torbjorn/eclipse-workspace/CoreNG/asf/thirdparty/CMSIS/Include/core_cmInstr.h ****     \param [in]    value  is ignored by the processor.
 169:/home/torbjorn/eclipse-workspace/CoreNG/asf/thirdparty/CMSIS/Include/core_cmInstr.h ****                    If required, a debugger can use it to store additional information about the bre
 170:/home/torbjorn/eclipse-workspace/CoreNG/asf/thirdparty/CMSIS/Include/core_cmInstr.h ****  */
 171:/home/torbjorn/eclipse-workspace/CoreNG/asf/thirdparty/CMSIS/Include/core_cmInstr.h **** #define __BKPT(value)                       __breakpoint(value)
 172:/home/torbjorn/eclipse-workspace/CoreNG/asf/thirdparty/CMSIS/Include/core_cmInstr.h **** 
 173:/home/torbjorn/eclipse-workspace/CoreNG/asf/thirdparty/CMSIS/Include/core_cmInstr.h **** 
 174:/home/torbjorn/eclipse-workspace/CoreNG/asf/thirdparty/CMSIS/Include/core_cmInstr.h **** #if       (__CORTEX_M >= 0x03) || (__CORTEX_SC >= 300)
 175:/home/torbjorn/eclipse-workspace/CoreNG/asf/thirdparty/CMSIS/Include/core_cmInstr.h **** 
 176:/home/torbjorn/eclipse-workspace/CoreNG/asf/thirdparty/CMSIS/Include/core_cmInstr.h **** /** \brief  Reverse bit order of value
ARM GAS  /tmp/ccVHQYWs.s 			page 24


 177:/home/torbjorn/eclipse-workspace/CoreNG/asf/thirdparty/CMSIS/Include/core_cmInstr.h **** 
 178:/home/torbjorn/eclipse-workspace/CoreNG/asf/thirdparty/CMSIS/Include/core_cmInstr.h ****     This function reverses the bit order of the given value.
 179:/home/torbjorn/eclipse-workspace/CoreNG/asf/thirdparty/CMSIS/Include/core_cmInstr.h **** 
 180:/home/torbjorn/eclipse-workspace/CoreNG/asf/thirdparty/CMSIS/Include/core_cmInstr.h ****     \param [in]    value  Value to reverse
 181:/home/torbjorn/eclipse-workspace/CoreNG/asf/thirdparty/CMSIS/Include/core_cmInstr.h ****     \return               Reversed value
 182:/home/torbjorn/eclipse-workspace/CoreNG/asf/thirdparty/CMSIS/Include/core_cmInstr.h ****  */
 183:/home/torbjorn/eclipse-workspace/CoreNG/asf/thirdparty/CMSIS/Include/core_cmInstr.h **** #define __RBIT                            __rbit
 184:/home/torbjorn/eclipse-workspace/CoreNG/asf/thirdparty/CMSIS/Include/core_cmInstr.h **** 
 185:/home/torbjorn/eclipse-workspace/CoreNG/asf/thirdparty/CMSIS/Include/core_cmInstr.h **** 
 186:/home/torbjorn/eclipse-workspace/CoreNG/asf/thirdparty/CMSIS/Include/core_cmInstr.h **** /** \brief  LDR Exclusive (8 bit)
 187:/home/torbjorn/eclipse-workspace/CoreNG/asf/thirdparty/CMSIS/Include/core_cmInstr.h **** 
 188:/home/torbjorn/eclipse-workspace/CoreNG/asf/thirdparty/CMSIS/Include/core_cmInstr.h ****     This function executes a exclusive LDR instruction for 8 bit value.
 189:/home/torbjorn/eclipse-workspace/CoreNG/asf/thirdparty/CMSIS/Include/core_cmInstr.h **** 
 190:/home/torbjorn/eclipse-workspace/CoreNG/asf/thirdparty/CMSIS/Include/core_cmInstr.h ****     \param [in]    ptr  Pointer to data
 191:/home/torbjorn/eclipse-workspace/CoreNG/asf/thirdparty/CMSIS/Include/core_cmInstr.h ****     \return             value of type uint8_t at (*ptr)
 192:/home/torbjorn/eclipse-workspace/CoreNG/asf/thirdparty/CMSIS/Include/core_cmInstr.h ****  */
 193:/home/torbjorn/eclipse-workspace/CoreNG/asf/thirdparty/CMSIS/Include/core_cmInstr.h **** #define __LDREXB(ptr)                     ((uint8_t ) __ldrex(ptr))
 194:/home/torbjorn/eclipse-workspace/CoreNG/asf/thirdparty/CMSIS/Include/core_cmInstr.h **** 
 195:/home/torbjorn/eclipse-workspace/CoreNG/asf/thirdparty/CMSIS/Include/core_cmInstr.h **** 
 196:/home/torbjorn/eclipse-workspace/CoreNG/asf/thirdparty/CMSIS/Include/core_cmInstr.h **** /** \brief  LDR Exclusive (16 bit)
 197:/home/torbjorn/eclipse-workspace/CoreNG/asf/thirdparty/CMSIS/Include/core_cmInstr.h **** 
 198:/home/torbjorn/eclipse-workspace/CoreNG/asf/thirdparty/CMSIS/Include/core_cmInstr.h ****     This function executes a exclusive LDR instruction for 16 bit values.
 199:/home/torbjorn/eclipse-workspace/CoreNG/asf/thirdparty/CMSIS/Include/core_cmInstr.h **** 
 200:/home/torbjorn/eclipse-workspace/CoreNG/asf/thirdparty/CMSIS/Include/core_cmInstr.h ****     \param [in]    ptr  Pointer to data
 201:/home/torbjorn/eclipse-workspace/CoreNG/asf/thirdparty/CMSIS/Include/core_cmInstr.h ****     \return        value of type uint16_t at (*ptr)
 202:/home/torbjorn/eclipse-workspace/CoreNG/asf/thirdparty/CMSIS/Include/core_cmInstr.h ****  */
 203:/home/torbjorn/eclipse-workspace/CoreNG/asf/thirdparty/CMSIS/Include/core_cmInstr.h **** #define __LDREXH(ptr)                     ((uint16_t) __ldrex(ptr))
 204:/home/torbjorn/eclipse-workspace/CoreNG/asf/thirdparty/CMSIS/Include/core_cmInstr.h **** 
 205:/home/torbjorn/eclipse-workspace/CoreNG/asf/thirdparty/CMSIS/Include/core_cmInstr.h **** 
 206:/home/torbjorn/eclipse-workspace/CoreNG/asf/thirdparty/CMSIS/Include/core_cmInstr.h **** /** \brief  LDR Exclusive (32 bit)
 207:/home/torbjorn/eclipse-workspace/CoreNG/asf/thirdparty/CMSIS/Include/core_cmInstr.h **** 
 208:/home/torbjorn/eclipse-workspace/CoreNG/asf/thirdparty/CMSIS/Include/core_cmInstr.h ****     This function executes a exclusive LDR instruction for 32 bit values.
 209:/home/torbjorn/eclipse-workspace/CoreNG/asf/thirdparty/CMSIS/Include/core_cmInstr.h **** 
 210:/home/torbjorn/eclipse-workspace/CoreNG/asf/thirdparty/CMSIS/Include/core_cmInstr.h ****     \param [in]    ptr  Pointer to data
 211:/home/torbjorn/eclipse-workspace/CoreNG/asf/thirdparty/CMSIS/Include/core_cmInstr.h ****     \return        value of type uint32_t at (*ptr)
 212:/home/torbjorn/eclipse-workspace/CoreNG/asf/thirdparty/CMSIS/Include/core_cmInstr.h ****  */
 213:/home/torbjorn/eclipse-workspace/CoreNG/asf/thirdparty/CMSIS/Include/core_cmInstr.h **** #define __LDREXW(ptr)                     ((uint32_t ) __ldrex(ptr))
 214:/home/torbjorn/eclipse-workspace/CoreNG/asf/thirdparty/CMSIS/Include/core_cmInstr.h **** 
 215:/home/torbjorn/eclipse-workspace/CoreNG/asf/thirdparty/CMSIS/Include/core_cmInstr.h **** 
 216:/home/torbjorn/eclipse-workspace/CoreNG/asf/thirdparty/CMSIS/Include/core_cmInstr.h **** /** \brief  STR Exclusive (8 bit)
 217:/home/torbjorn/eclipse-workspace/CoreNG/asf/thirdparty/CMSIS/Include/core_cmInstr.h **** 
 218:/home/torbjorn/eclipse-workspace/CoreNG/asf/thirdparty/CMSIS/Include/core_cmInstr.h ****     This function executes a exclusive STR instruction for 8 bit values.
 219:/home/torbjorn/eclipse-workspace/CoreNG/asf/thirdparty/CMSIS/Include/core_cmInstr.h **** 
 220:/home/torbjorn/eclipse-workspace/CoreNG/asf/thirdparty/CMSIS/Include/core_cmInstr.h ****     \param [in]  value  Value to store
 221:/home/torbjorn/eclipse-workspace/CoreNG/asf/thirdparty/CMSIS/Include/core_cmInstr.h ****     \param [in]    ptr  Pointer to location
 222:/home/torbjorn/eclipse-workspace/CoreNG/asf/thirdparty/CMSIS/Include/core_cmInstr.h ****     \return          0  Function succeeded
 223:/home/torbjorn/eclipse-workspace/CoreNG/asf/thirdparty/CMSIS/Include/core_cmInstr.h ****     \return          1  Function failed
 224:/home/torbjorn/eclipse-workspace/CoreNG/asf/thirdparty/CMSIS/Include/core_cmInstr.h ****  */
 225:/home/torbjorn/eclipse-workspace/CoreNG/asf/thirdparty/CMSIS/Include/core_cmInstr.h **** #define __STREXB(value, ptr)              __strex(value, ptr)
 226:/home/torbjorn/eclipse-workspace/CoreNG/asf/thirdparty/CMSIS/Include/core_cmInstr.h **** 
 227:/home/torbjorn/eclipse-workspace/CoreNG/asf/thirdparty/CMSIS/Include/core_cmInstr.h **** 
 228:/home/torbjorn/eclipse-workspace/CoreNG/asf/thirdparty/CMSIS/Include/core_cmInstr.h **** /** \brief  STR Exclusive (16 bit)
 229:/home/torbjorn/eclipse-workspace/CoreNG/asf/thirdparty/CMSIS/Include/core_cmInstr.h **** 
 230:/home/torbjorn/eclipse-workspace/CoreNG/asf/thirdparty/CMSIS/Include/core_cmInstr.h ****     This function executes a exclusive STR instruction for 16 bit values.
 231:/home/torbjorn/eclipse-workspace/CoreNG/asf/thirdparty/CMSIS/Include/core_cmInstr.h **** 
 232:/home/torbjorn/eclipse-workspace/CoreNG/asf/thirdparty/CMSIS/Include/core_cmInstr.h ****     \param [in]  value  Value to store
 233:/home/torbjorn/eclipse-workspace/CoreNG/asf/thirdparty/CMSIS/Include/core_cmInstr.h ****     \param [in]    ptr  Pointer to location
ARM GAS  /tmp/ccVHQYWs.s 			page 25


 234:/home/torbjorn/eclipse-workspace/CoreNG/asf/thirdparty/CMSIS/Include/core_cmInstr.h ****     \return          0  Function succeeded
 235:/home/torbjorn/eclipse-workspace/CoreNG/asf/thirdparty/CMSIS/Include/core_cmInstr.h ****     \return          1  Function failed
 236:/home/torbjorn/eclipse-workspace/CoreNG/asf/thirdparty/CMSIS/Include/core_cmInstr.h ****  */
 237:/home/torbjorn/eclipse-workspace/CoreNG/asf/thirdparty/CMSIS/Include/core_cmInstr.h **** #define __STREXH(value, ptr)              __strex(value, ptr)
 238:/home/torbjorn/eclipse-workspace/CoreNG/asf/thirdparty/CMSIS/Include/core_cmInstr.h **** 
 239:/home/torbjorn/eclipse-workspace/CoreNG/asf/thirdparty/CMSIS/Include/core_cmInstr.h **** 
 240:/home/torbjorn/eclipse-workspace/CoreNG/asf/thirdparty/CMSIS/Include/core_cmInstr.h **** /** \brief  STR Exclusive (32 bit)
 241:/home/torbjorn/eclipse-workspace/CoreNG/asf/thirdparty/CMSIS/Include/core_cmInstr.h **** 
 242:/home/torbjorn/eclipse-workspace/CoreNG/asf/thirdparty/CMSIS/Include/core_cmInstr.h ****     This function executes a exclusive STR instruction for 32 bit values.
 243:/home/torbjorn/eclipse-workspace/CoreNG/asf/thirdparty/CMSIS/Include/core_cmInstr.h **** 
 244:/home/torbjorn/eclipse-workspace/CoreNG/asf/thirdparty/CMSIS/Include/core_cmInstr.h ****     \param [in]  value  Value to store
 245:/home/torbjorn/eclipse-workspace/CoreNG/asf/thirdparty/CMSIS/Include/core_cmInstr.h ****     \param [in]    ptr  Pointer to location
 246:/home/torbjorn/eclipse-workspace/CoreNG/asf/thirdparty/CMSIS/Include/core_cmInstr.h ****     \return          0  Function succeeded
 247:/home/torbjorn/eclipse-workspace/CoreNG/asf/thirdparty/CMSIS/Include/core_cmInstr.h ****     \return          1  Function failed
 248:/home/torbjorn/eclipse-workspace/CoreNG/asf/thirdparty/CMSIS/Include/core_cmInstr.h ****  */
 249:/home/torbjorn/eclipse-workspace/CoreNG/asf/thirdparty/CMSIS/Include/core_cmInstr.h **** #define __STREXW(value, ptr)              __strex(value, ptr)
 250:/home/torbjorn/eclipse-workspace/CoreNG/asf/thirdparty/CMSIS/Include/core_cmInstr.h **** 
 251:/home/torbjorn/eclipse-workspace/CoreNG/asf/thirdparty/CMSIS/Include/core_cmInstr.h **** 
 252:/home/torbjorn/eclipse-workspace/CoreNG/asf/thirdparty/CMSIS/Include/core_cmInstr.h **** /** \brief  Remove the exclusive lock
 253:/home/torbjorn/eclipse-workspace/CoreNG/asf/thirdparty/CMSIS/Include/core_cmInstr.h **** 
 254:/home/torbjorn/eclipse-workspace/CoreNG/asf/thirdparty/CMSIS/Include/core_cmInstr.h ****     This function removes the exclusive lock which is created by LDREX.
 255:/home/torbjorn/eclipse-workspace/CoreNG/asf/thirdparty/CMSIS/Include/core_cmInstr.h **** 
 256:/home/torbjorn/eclipse-workspace/CoreNG/asf/thirdparty/CMSIS/Include/core_cmInstr.h ****  */
 257:/home/torbjorn/eclipse-workspace/CoreNG/asf/thirdparty/CMSIS/Include/core_cmInstr.h **** #define __CLREX                           __clrex
 258:/home/torbjorn/eclipse-workspace/CoreNG/asf/thirdparty/CMSIS/Include/core_cmInstr.h **** 
 259:/home/torbjorn/eclipse-workspace/CoreNG/asf/thirdparty/CMSIS/Include/core_cmInstr.h **** 
 260:/home/torbjorn/eclipse-workspace/CoreNG/asf/thirdparty/CMSIS/Include/core_cmInstr.h **** /** \brief  Signed Saturate
 261:/home/torbjorn/eclipse-workspace/CoreNG/asf/thirdparty/CMSIS/Include/core_cmInstr.h **** 
 262:/home/torbjorn/eclipse-workspace/CoreNG/asf/thirdparty/CMSIS/Include/core_cmInstr.h ****     This function saturates a signed value.
 263:/home/torbjorn/eclipse-workspace/CoreNG/asf/thirdparty/CMSIS/Include/core_cmInstr.h **** 
 264:/home/torbjorn/eclipse-workspace/CoreNG/asf/thirdparty/CMSIS/Include/core_cmInstr.h ****     \param [in]  value  Value to be saturated
 265:/home/torbjorn/eclipse-workspace/CoreNG/asf/thirdparty/CMSIS/Include/core_cmInstr.h ****     \param [in]    sat  Bit position to saturate to (1..32)
 266:/home/torbjorn/eclipse-workspace/CoreNG/asf/thirdparty/CMSIS/Include/core_cmInstr.h ****     \return             Saturated value
 267:/home/torbjorn/eclipse-workspace/CoreNG/asf/thirdparty/CMSIS/Include/core_cmInstr.h ****  */
 268:/home/torbjorn/eclipse-workspace/CoreNG/asf/thirdparty/CMSIS/Include/core_cmInstr.h **** #define __SSAT                            __ssat
 269:/home/torbjorn/eclipse-workspace/CoreNG/asf/thirdparty/CMSIS/Include/core_cmInstr.h **** 
 270:/home/torbjorn/eclipse-workspace/CoreNG/asf/thirdparty/CMSIS/Include/core_cmInstr.h **** 
 271:/home/torbjorn/eclipse-workspace/CoreNG/asf/thirdparty/CMSIS/Include/core_cmInstr.h **** /** \brief  Unsigned Saturate
 272:/home/torbjorn/eclipse-workspace/CoreNG/asf/thirdparty/CMSIS/Include/core_cmInstr.h **** 
 273:/home/torbjorn/eclipse-workspace/CoreNG/asf/thirdparty/CMSIS/Include/core_cmInstr.h ****     This function saturates an unsigned value.
 274:/home/torbjorn/eclipse-workspace/CoreNG/asf/thirdparty/CMSIS/Include/core_cmInstr.h **** 
 275:/home/torbjorn/eclipse-workspace/CoreNG/asf/thirdparty/CMSIS/Include/core_cmInstr.h ****     \param [in]  value  Value to be saturated
 276:/home/torbjorn/eclipse-workspace/CoreNG/asf/thirdparty/CMSIS/Include/core_cmInstr.h ****     \param [in]    sat  Bit position to saturate to (0..31)
 277:/home/torbjorn/eclipse-workspace/CoreNG/asf/thirdparty/CMSIS/Include/core_cmInstr.h ****     \return             Saturated value
 278:/home/torbjorn/eclipse-workspace/CoreNG/asf/thirdparty/CMSIS/Include/core_cmInstr.h ****  */
 279:/home/torbjorn/eclipse-workspace/CoreNG/asf/thirdparty/CMSIS/Include/core_cmInstr.h **** #define __USAT                            __usat
 280:/home/torbjorn/eclipse-workspace/CoreNG/asf/thirdparty/CMSIS/Include/core_cmInstr.h **** 
 281:/home/torbjorn/eclipse-workspace/CoreNG/asf/thirdparty/CMSIS/Include/core_cmInstr.h **** 
 282:/home/torbjorn/eclipse-workspace/CoreNG/asf/thirdparty/CMSIS/Include/core_cmInstr.h **** /** \brief  Count leading zeros
 283:/home/torbjorn/eclipse-workspace/CoreNG/asf/thirdparty/CMSIS/Include/core_cmInstr.h **** 
 284:/home/torbjorn/eclipse-workspace/CoreNG/asf/thirdparty/CMSIS/Include/core_cmInstr.h ****     This function counts the number of leading zeros of a data value.
 285:/home/torbjorn/eclipse-workspace/CoreNG/asf/thirdparty/CMSIS/Include/core_cmInstr.h **** 
 286:/home/torbjorn/eclipse-workspace/CoreNG/asf/thirdparty/CMSIS/Include/core_cmInstr.h ****     \param [in]  value  Value to count the leading zeros
 287:/home/torbjorn/eclipse-workspace/CoreNG/asf/thirdparty/CMSIS/Include/core_cmInstr.h ****     \return             number of leading zeros in value
 288:/home/torbjorn/eclipse-workspace/CoreNG/asf/thirdparty/CMSIS/Include/core_cmInstr.h ****  */
 289:/home/torbjorn/eclipse-workspace/CoreNG/asf/thirdparty/CMSIS/Include/core_cmInstr.h **** #define __CLZ                             __clz
 290:/home/torbjorn/eclipse-workspace/CoreNG/asf/thirdparty/CMSIS/Include/core_cmInstr.h **** 
ARM GAS  /tmp/ccVHQYWs.s 			page 26


 291:/home/torbjorn/eclipse-workspace/CoreNG/asf/thirdparty/CMSIS/Include/core_cmInstr.h **** 
 292:/home/torbjorn/eclipse-workspace/CoreNG/asf/thirdparty/CMSIS/Include/core_cmInstr.h **** /** \brief  Rotate Right with Extend (32 bit)
 293:/home/torbjorn/eclipse-workspace/CoreNG/asf/thirdparty/CMSIS/Include/core_cmInstr.h **** 
 294:/home/torbjorn/eclipse-workspace/CoreNG/asf/thirdparty/CMSIS/Include/core_cmInstr.h ****     This function moves each bit of a bitstring right by one bit. The carry input is shifted in at 
 295:/home/torbjorn/eclipse-workspace/CoreNG/asf/thirdparty/CMSIS/Include/core_cmInstr.h **** 
 296:/home/torbjorn/eclipse-workspace/CoreNG/asf/thirdparty/CMSIS/Include/core_cmInstr.h ****     \param [in]    value  Value to rotate
 297:/home/torbjorn/eclipse-workspace/CoreNG/asf/thirdparty/CMSIS/Include/core_cmInstr.h ****     \return               Rotated value
 298:/home/torbjorn/eclipse-workspace/CoreNG/asf/thirdparty/CMSIS/Include/core_cmInstr.h ****  */
 299:/home/torbjorn/eclipse-workspace/CoreNG/asf/thirdparty/CMSIS/Include/core_cmInstr.h **** #ifndef __NO_EMBEDDED_ASM
 300:/home/torbjorn/eclipse-workspace/CoreNG/asf/thirdparty/CMSIS/Include/core_cmInstr.h **** __attribute__((section(".rrx_text"))) __STATIC_INLINE __ASM uint32_t __RRX(uint32_t value)
 301:/home/torbjorn/eclipse-workspace/CoreNG/asf/thirdparty/CMSIS/Include/core_cmInstr.h **** {
 302:/home/torbjorn/eclipse-workspace/CoreNG/asf/thirdparty/CMSIS/Include/core_cmInstr.h ****   rrx r0, r0
 303:/home/torbjorn/eclipse-workspace/CoreNG/asf/thirdparty/CMSIS/Include/core_cmInstr.h ****   bx lr
 304:/home/torbjorn/eclipse-workspace/CoreNG/asf/thirdparty/CMSIS/Include/core_cmInstr.h **** }
 305:/home/torbjorn/eclipse-workspace/CoreNG/asf/thirdparty/CMSIS/Include/core_cmInstr.h **** #endif
 306:/home/torbjorn/eclipse-workspace/CoreNG/asf/thirdparty/CMSIS/Include/core_cmInstr.h **** 
 307:/home/torbjorn/eclipse-workspace/CoreNG/asf/thirdparty/CMSIS/Include/core_cmInstr.h **** 
 308:/home/torbjorn/eclipse-workspace/CoreNG/asf/thirdparty/CMSIS/Include/core_cmInstr.h **** /** \brief  LDRT Unprivileged (8 bit)
 309:/home/torbjorn/eclipse-workspace/CoreNG/asf/thirdparty/CMSIS/Include/core_cmInstr.h **** 
 310:/home/torbjorn/eclipse-workspace/CoreNG/asf/thirdparty/CMSIS/Include/core_cmInstr.h ****     This function executes a Unprivileged LDRT instruction for 8 bit value.
 311:/home/torbjorn/eclipse-workspace/CoreNG/asf/thirdparty/CMSIS/Include/core_cmInstr.h **** 
 312:/home/torbjorn/eclipse-workspace/CoreNG/asf/thirdparty/CMSIS/Include/core_cmInstr.h ****     \param [in]    ptr  Pointer to data
 313:/home/torbjorn/eclipse-workspace/CoreNG/asf/thirdparty/CMSIS/Include/core_cmInstr.h ****     \return             value of type uint8_t at (*ptr)
 314:/home/torbjorn/eclipse-workspace/CoreNG/asf/thirdparty/CMSIS/Include/core_cmInstr.h ****  */
 315:/home/torbjorn/eclipse-workspace/CoreNG/asf/thirdparty/CMSIS/Include/core_cmInstr.h **** #define __LDRBT(ptr)                      ((uint8_t )  __ldrt(ptr))
 316:/home/torbjorn/eclipse-workspace/CoreNG/asf/thirdparty/CMSIS/Include/core_cmInstr.h **** 
 317:/home/torbjorn/eclipse-workspace/CoreNG/asf/thirdparty/CMSIS/Include/core_cmInstr.h **** 
 318:/home/torbjorn/eclipse-workspace/CoreNG/asf/thirdparty/CMSIS/Include/core_cmInstr.h **** /** \brief  LDRT Unprivileged (16 bit)
 319:/home/torbjorn/eclipse-workspace/CoreNG/asf/thirdparty/CMSIS/Include/core_cmInstr.h **** 
 320:/home/torbjorn/eclipse-workspace/CoreNG/asf/thirdparty/CMSIS/Include/core_cmInstr.h ****     This function executes a Unprivileged LDRT instruction for 16 bit values.
 321:/home/torbjorn/eclipse-workspace/CoreNG/asf/thirdparty/CMSIS/Include/core_cmInstr.h **** 
 322:/home/torbjorn/eclipse-workspace/CoreNG/asf/thirdparty/CMSIS/Include/core_cmInstr.h ****     \param [in]    ptr  Pointer to data
 323:/home/torbjorn/eclipse-workspace/CoreNG/asf/thirdparty/CMSIS/Include/core_cmInstr.h ****     \return        value of type uint16_t at (*ptr)
 324:/home/torbjorn/eclipse-workspace/CoreNG/asf/thirdparty/CMSIS/Include/core_cmInstr.h ****  */
 325:/home/torbjorn/eclipse-workspace/CoreNG/asf/thirdparty/CMSIS/Include/core_cmInstr.h **** #define __LDRHT(ptr)                      ((uint16_t)  __ldrt(ptr))
 326:/home/torbjorn/eclipse-workspace/CoreNG/asf/thirdparty/CMSIS/Include/core_cmInstr.h **** 
 327:/home/torbjorn/eclipse-workspace/CoreNG/asf/thirdparty/CMSIS/Include/core_cmInstr.h **** 
 328:/home/torbjorn/eclipse-workspace/CoreNG/asf/thirdparty/CMSIS/Include/core_cmInstr.h **** /** \brief  LDRT Unprivileged (32 bit)
 329:/home/torbjorn/eclipse-workspace/CoreNG/asf/thirdparty/CMSIS/Include/core_cmInstr.h **** 
 330:/home/torbjorn/eclipse-workspace/CoreNG/asf/thirdparty/CMSIS/Include/core_cmInstr.h ****     This function executes a Unprivileged LDRT instruction for 32 bit values.
 331:/home/torbjorn/eclipse-workspace/CoreNG/asf/thirdparty/CMSIS/Include/core_cmInstr.h **** 
 332:/home/torbjorn/eclipse-workspace/CoreNG/asf/thirdparty/CMSIS/Include/core_cmInstr.h ****     \param [in]    ptr  Pointer to data
 333:/home/torbjorn/eclipse-workspace/CoreNG/asf/thirdparty/CMSIS/Include/core_cmInstr.h ****     \return        value of type uint32_t at (*ptr)
 334:/home/torbjorn/eclipse-workspace/CoreNG/asf/thirdparty/CMSIS/Include/core_cmInstr.h ****  */
 335:/home/torbjorn/eclipse-workspace/CoreNG/asf/thirdparty/CMSIS/Include/core_cmInstr.h **** #define __LDRT(ptr)                       ((uint32_t ) __ldrt(ptr))
 336:/home/torbjorn/eclipse-workspace/CoreNG/asf/thirdparty/CMSIS/Include/core_cmInstr.h **** 
 337:/home/torbjorn/eclipse-workspace/CoreNG/asf/thirdparty/CMSIS/Include/core_cmInstr.h **** 
 338:/home/torbjorn/eclipse-workspace/CoreNG/asf/thirdparty/CMSIS/Include/core_cmInstr.h **** /** \brief  STRT Unprivileged (8 bit)
 339:/home/torbjorn/eclipse-workspace/CoreNG/asf/thirdparty/CMSIS/Include/core_cmInstr.h **** 
 340:/home/torbjorn/eclipse-workspace/CoreNG/asf/thirdparty/CMSIS/Include/core_cmInstr.h ****     This function executes a Unprivileged STRT instruction for 8 bit values.
 341:/home/torbjorn/eclipse-workspace/CoreNG/asf/thirdparty/CMSIS/Include/core_cmInstr.h **** 
 342:/home/torbjorn/eclipse-workspace/CoreNG/asf/thirdparty/CMSIS/Include/core_cmInstr.h ****     \param [in]  value  Value to store
 343:/home/torbjorn/eclipse-workspace/CoreNG/asf/thirdparty/CMSIS/Include/core_cmInstr.h ****     \param [in]    ptr  Pointer to location
 344:/home/torbjorn/eclipse-workspace/CoreNG/asf/thirdparty/CMSIS/Include/core_cmInstr.h ****  */
 345:/home/torbjorn/eclipse-workspace/CoreNG/asf/thirdparty/CMSIS/Include/core_cmInstr.h **** #define __STRBT(value, ptr)               __strt(value, ptr)
 346:/home/torbjorn/eclipse-workspace/CoreNG/asf/thirdparty/CMSIS/Include/core_cmInstr.h **** 
 347:/home/torbjorn/eclipse-workspace/CoreNG/asf/thirdparty/CMSIS/Include/core_cmInstr.h **** 
ARM GAS  /tmp/ccVHQYWs.s 			page 27


 348:/home/torbjorn/eclipse-workspace/CoreNG/asf/thirdparty/CMSIS/Include/core_cmInstr.h **** /** \brief  STRT Unprivileged (16 bit)
 349:/home/torbjorn/eclipse-workspace/CoreNG/asf/thirdparty/CMSIS/Include/core_cmInstr.h **** 
 350:/home/torbjorn/eclipse-workspace/CoreNG/asf/thirdparty/CMSIS/Include/core_cmInstr.h ****     This function executes a Unprivileged STRT instruction for 16 bit values.
 351:/home/torbjorn/eclipse-workspace/CoreNG/asf/thirdparty/CMSIS/Include/core_cmInstr.h **** 
 352:/home/torbjorn/eclipse-workspace/CoreNG/asf/thirdparty/CMSIS/Include/core_cmInstr.h ****     \param [in]  value  Value to store
 353:/home/torbjorn/eclipse-workspace/CoreNG/asf/thirdparty/CMSIS/Include/core_cmInstr.h ****     \param [in]    ptr  Pointer to location
 354:/home/torbjorn/eclipse-workspace/CoreNG/asf/thirdparty/CMSIS/Include/core_cmInstr.h ****  */
 355:/home/torbjorn/eclipse-workspace/CoreNG/asf/thirdparty/CMSIS/Include/core_cmInstr.h **** #define __STRHT(value, ptr)               __strt(value, ptr)
 356:/home/torbjorn/eclipse-workspace/CoreNG/asf/thirdparty/CMSIS/Include/core_cmInstr.h **** 
 357:/home/torbjorn/eclipse-workspace/CoreNG/asf/thirdparty/CMSIS/Include/core_cmInstr.h **** 
 358:/home/torbjorn/eclipse-workspace/CoreNG/asf/thirdparty/CMSIS/Include/core_cmInstr.h **** /** \brief  STRT Unprivileged (32 bit)
 359:/home/torbjorn/eclipse-workspace/CoreNG/asf/thirdparty/CMSIS/Include/core_cmInstr.h **** 
 360:/home/torbjorn/eclipse-workspace/CoreNG/asf/thirdparty/CMSIS/Include/core_cmInstr.h ****     This function executes a Unprivileged STRT instruction for 32 bit values.
 361:/home/torbjorn/eclipse-workspace/CoreNG/asf/thirdparty/CMSIS/Include/core_cmInstr.h **** 
 362:/home/torbjorn/eclipse-workspace/CoreNG/asf/thirdparty/CMSIS/Include/core_cmInstr.h ****     \param [in]  value  Value to store
 363:/home/torbjorn/eclipse-workspace/CoreNG/asf/thirdparty/CMSIS/Include/core_cmInstr.h ****     \param [in]    ptr  Pointer to location
 364:/home/torbjorn/eclipse-workspace/CoreNG/asf/thirdparty/CMSIS/Include/core_cmInstr.h ****  */
 365:/home/torbjorn/eclipse-workspace/CoreNG/asf/thirdparty/CMSIS/Include/core_cmInstr.h **** #define __STRT(value, ptr)                __strt(value, ptr)
 366:/home/torbjorn/eclipse-workspace/CoreNG/asf/thirdparty/CMSIS/Include/core_cmInstr.h **** 
 367:/home/torbjorn/eclipse-workspace/CoreNG/asf/thirdparty/CMSIS/Include/core_cmInstr.h **** #endif /* (__CORTEX_M >= 0x03) || (__CORTEX_SC >= 300) */
 368:/home/torbjorn/eclipse-workspace/CoreNG/asf/thirdparty/CMSIS/Include/core_cmInstr.h **** 
 369:/home/torbjorn/eclipse-workspace/CoreNG/asf/thirdparty/CMSIS/Include/core_cmInstr.h **** 
 370:/home/torbjorn/eclipse-workspace/CoreNG/asf/thirdparty/CMSIS/Include/core_cmInstr.h **** #elif defined ( __GNUC__ ) /*------------------ GNU Compiler ---------------------*/
 371:/home/torbjorn/eclipse-workspace/CoreNG/asf/thirdparty/CMSIS/Include/core_cmInstr.h **** /* GNU gcc specific functions */
 372:/home/torbjorn/eclipse-workspace/CoreNG/asf/thirdparty/CMSIS/Include/core_cmInstr.h **** 
 373:/home/torbjorn/eclipse-workspace/CoreNG/asf/thirdparty/CMSIS/Include/core_cmInstr.h **** /* Define macros for porting to both thumb1 and thumb2.
 374:/home/torbjorn/eclipse-workspace/CoreNG/asf/thirdparty/CMSIS/Include/core_cmInstr.h ****  * For thumb1, use low register (r0-r7), specified by constrant "l"
 375:/home/torbjorn/eclipse-workspace/CoreNG/asf/thirdparty/CMSIS/Include/core_cmInstr.h ****  * Otherwise, use general registers, specified by constrant "r" */
 376:/home/torbjorn/eclipse-workspace/CoreNG/asf/thirdparty/CMSIS/Include/core_cmInstr.h **** #if defined (__thumb__) && !defined (__thumb2__)
 377:/home/torbjorn/eclipse-workspace/CoreNG/asf/thirdparty/CMSIS/Include/core_cmInstr.h **** #define __CMSIS_GCC_OUT_REG(r) "=l" (r)
 378:/home/torbjorn/eclipse-workspace/CoreNG/asf/thirdparty/CMSIS/Include/core_cmInstr.h **** #define __CMSIS_GCC_USE_REG(r) "l" (r)
 379:/home/torbjorn/eclipse-workspace/CoreNG/asf/thirdparty/CMSIS/Include/core_cmInstr.h **** #else
 380:/home/torbjorn/eclipse-workspace/CoreNG/asf/thirdparty/CMSIS/Include/core_cmInstr.h **** #define __CMSIS_GCC_OUT_REG(r) "=r" (r)
 381:/home/torbjorn/eclipse-workspace/CoreNG/asf/thirdparty/CMSIS/Include/core_cmInstr.h **** #define __CMSIS_GCC_USE_REG(r) "r" (r)
 382:/home/torbjorn/eclipse-workspace/CoreNG/asf/thirdparty/CMSIS/Include/core_cmInstr.h **** #endif
 383:/home/torbjorn/eclipse-workspace/CoreNG/asf/thirdparty/CMSIS/Include/core_cmInstr.h **** 
 384:/home/torbjorn/eclipse-workspace/CoreNG/asf/thirdparty/CMSIS/Include/core_cmInstr.h **** /** \brief  No Operation
 385:/home/torbjorn/eclipse-workspace/CoreNG/asf/thirdparty/CMSIS/Include/core_cmInstr.h **** 
 386:/home/torbjorn/eclipse-workspace/CoreNG/asf/thirdparty/CMSIS/Include/core_cmInstr.h ****     No Operation does nothing. This instruction can be used for code alignment purposes.
 387:/home/torbjorn/eclipse-workspace/CoreNG/asf/thirdparty/CMSIS/Include/core_cmInstr.h ****  */
 388:/home/torbjorn/eclipse-workspace/CoreNG/asf/thirdparty/CMSIS/Include/core_cmInstr.h **** __attribute__( ( always_inline ) ) __STATIC_INLINE void __NOP(void)
 389:/home/torbjorn/eclipse-workspace/CoreNG/asf/thirdparty/CMSIS/Include/core_cmInstr.h **** {
 390:/home/torbjorn/eclipse-workspace/CoreNG/asf/thirdparty/CMSIS/Include/core_cmInstr.h ****   __ASM volatile ("nop");
 391:/home/torbjorn/eclipse-workspace/CoreNG/asf/thirdparty/CMSIS/Include/core_cmInstr.h **** }
 392:/home/torbjorn/eclipse-workspace/CoreNG/asf/thirdparty/CMSIS/Include/core_cmInstr.h **** 
 393:/home/torbjorn/eclipse-workspace/CoreNG/asf/thirdparty/CMSIS/Include/core_cmInstr.h **** 
 394:/home/torbjorn/eclipse-workspace/CoreNG/asf/thirdparty/CMSIS/Include/core_cmInstr.h **** /** \brief  Wait For Interrupt
 395:/home/torbjorn/eclipse-workspace/CoreNG/asf/thirdparty/CMSIS/Include/core_cmInstr.h **** 
 396:/home/torbjorn/eclipse-workspace/CoreNG/asf/thirdparty/CMSIS/Include/core_cmInstr.h ****     Wait For Interrupt is a hint instruction that suspends execution
 397:/home/torbjorn/eclipse-workspace/CoreNG/asf/thirdparty/CMSIS/Include/core_cmInstr.h ****     until one of a number of events occurs.
 398:/home/torbjorn/eclipse-workspace/CoreNG/asf/thirdparty/CMSIS/Include/core_cmInstr.h ****  */
 399:/home/torbjorn/eclipse-workspace/CoreNG/asf/thirdparty/CMSIS/Include/core_cmInstr.h **** __attribute__( ( always_inline ) ) __STATIC_INLINE void __WFI(void)
 400:/home/torbjorn/eclipse-workspace/CoreNG/asf/thirdparty/CMSIS/Include/core_cmInstr.h **** {
 401:/home/torbjorn/eclipse-workspace/CoreNG/asf/thirdparty/CMSIS/Include/core_cmInstr.h ****   __ASM volatile ("wfi");
 402:/home/torbjorn/eclipse-workspace/CoreNG/asf/thirdparty/CMSIS/Include/core_cmInstr.h **** }
 403:/home/torbjorn/eclipse-workspace/CoreNG/asf/thirdparty/CMSIS/Include/core_cmInstr.h **** 
 404:/home/torbjorn/eclipse-workspace/CoreNG/asf/thirdparty/CMSIS/Include/core_cmInstr.h **** 
ARM GAS  /tmp/ccVHQYWs.s 			page 28


 405:/home/torbjorn/eclipse-workspace/CoreNG/asf/thirdparty/CMSIS/Include/core_cmInstr.h **** /** \brief  Wait For Event
 406:/home/torbjorn/eclipse-workspace/CoreNG/asf/thirdparty/CMSIS/Include/core_cmInstr.h **** 
 407:/home/torbjorn/eclipse-workspace/CoreNG/asf/thirdparty/CMSIS/Include/core_cmInstr.h ****     Wait For Event is a hint instruction that permits the processor to enter
 408:/home/torbjorn/eclipse-workspace/CoreNG/asf/thirdparty/CMSIS/Include/core_cmInstr.h ****     a low-power state until one of a number of events occurs.
 409:/home/torbjorn/eclipse-workspace/CoreNG/asf/thirdparty/CMSIS/Include/core_cmInstr.h ****  */
 410:/home/torbjorn/eclipse-workspace/CoreNG/asf/thirdparty/CMSIS/Include/core_cmInstr.h **** __attribute__( ( always_inline ) ) __STATIC_INLINE void __WFE(void)
 411:/home/torbjorn/eclipse-workspace/CoreNG/asf/thirdparty/CMSIS/Include/core_cmInstr.h **** {
 412:/home/torbjorn/eclipse-workspace/CoreNG/asf/thirdparty/CMSIS/Include/core_cmInstr.h ****   __ASM volatile ("wfe");
 413:/home/torbjorn/eclipse-workspace/CoreNG/asf/thirdparty/CMSIS/Include/core_cmInstr.h **** }
 414:/home/torbjorn/eclipse-workspace/CoreNG/asf/thirdparty/CMSIS/Include/core_cmInstr.h **** 
 415:/home/torbjorn/eclipse-workspace/CoreNG/asf/thirdparty/CMSIS/Include/core_cmInstr.h **** 
 416:/home/torbjorn/eclipse-workspace/CoreNG/asf/thirdparty/CMSIS/Include/core_cmInstr.h **** /** \brief  Send Event
 417:/home/torbjorn/eclipse-workspace/CoreNG/asf/thirdparty/CMSIS/Include/core_cmInstr.h **** 
 418:/home/torbjorn/eclipse-workspace/CoreNG/asf/thirdparty/CMSIS/Include/core_cmInstr.h ****     Send Event is a hint instruction. It causes an event to be signaled to the CPU.
 419:/home/torbjorn/eclipse-workspace/CoreNG/asf/thirdparty/CMSIS/Include/core_cmInstr.h ****  */
 420:/home/torbjorn/eclipse-workspace/CoreNG/asf/thirdparty/CMSIS/Include/core_cmInstr.h **** __attribute__( ( always_inline ) ) __STATIC_INLINE void __SEV(void)
 421:/home/torbjorn/eclipse-workspace/CoreNG/asf/thirdparty/CMSIS/Include/core_cmInstr.h **** {
 422:/home/torbjorn/eclipse-workspace/CoreNG/asf/thirdparty/CMSIS/Include/core_cmInstr.h ****   __ASM volatile ("sev");
 423:/home/torbjorn/eclipse-workspace/CoreNG/asf/thirdparty/CMSIS/Include/core_cmInstr.h **** }
 424:/home/torbjorn/eclipse-workspace/CoreNG/asf/thirdparty/CMSIS/Include/core_cmInstr.h **** 
 425:/home/torbjorn/eclipse-workspace/CoreNG/asf/thirdparty/CMSIS/Include/core_cmInstr.h **** 
 426:/home/torbjorn/eclipse-workspace/CoreNG/asf/thirdparty/CMSIS/Include/core_cmInstr.h **** /** \brief  Instruction Synchronization Barrier
 427:/home/torbjorn/eclipse-workspace/CoreNG/asf/thirdparty/CMSIS/Include/core_cmInstr.h **** 
 428:/home/torbjorn/eclipse-workspace/CoreNG/asf/thirdparty/CMSIS/Include/core_cmInstr.h ****     Instruction Synchronization Barrier flushes the pipeline in the processor,
 429:/home/torbjorn/eclipse-workspace/CoreNG/asf/thirdparty/CMSIS/Include/core_cmInstr.h ****     so that all instructions following the ISB are fetched from cache or
 430:/home/torbjorn/eclipse-workspace/CoreNG/asf/thirdparty/CMSIS/Include/core_cmInstr.h ****     memory, after the instruction has been completed.
 431:/home/torbjorn/eclipse-workspace/CoreNG/asf/thirdparty/CMSIS/Include/core_cmInstr.h ****  */
 432:/home/torbjorn/eclipse-workspace/CoreNG/asf/thirdparty/CMSIS/Include/core_cmInstr.h **** __attribute__( ( always_inline ) ) __STATIC_INLINE void __ISB(void)
 433:/home/torbjorn/eclipse-workspace/CoreNG/asf/thirdparty/CMSIS/Include/core_cmInstr.h **** {
 434:/home/torbjorn/eclipse-workspace/CoreNG/asf/thirdparty/CMSIS/Include/core_cmInstr.h ****   __ASM volatile ("isb");
 435:/home/torbjorn/eclipse-workspace/CoreNG/asf/thirdparty/CMSIS/Include/core_cmInstr.h **** }
 436:/home/torbjorn/eclipse-workspace/CoreNG/asf/thirdparty/CMSIS/Include/core_cmInstr.h **** 
 437:/home/torbjorn/eclipse-workspace/CoreNG/asf/thirdparty/CMSIS/Include/core_cmInstr.h **** 
 438:/home/torbjorn/eclipse-workspace/CoreNG/asf/thirdparty/CMSIS/Include/core_cmInstr.h **** /** \brief  Data Synchronization Barrier
 439:/home/torbjorn/eclipse-workspace/CoreNG/asf/thirdparty/CMSIS/Include/core_cmInstr.h **** 
 440:/home/torbjorn/eclipse-workspace/CoreNG/asf/thirdparty/CMSIS/Include/core_cmInstr.h ****     This function acts as a special kind of Data Memory Barrier.
 441:/home/torbjorn/eclipse-workspace/CoreNG/asf/thirdparty/CMSIS/Include/core_cmInstr.h ****     It completes when all explicit memory accesses before this instruction complete.
 442:/home/torbjorn/eclipse-workspace/CoreNG/asf/thirdparty/CMSIS/Include/core_cmInstr.h ****  */
 443:/home/torbjorn/eclipse-workspace/CoreNG/asf/thirdparty/CMSIS/Include/core_cmInstr.h **** __attribute__( ( always_inline ) ) __STATIC_INLINE void __DSB(void)
 444:/home/torbjorn/eclipse-workspace/CoreNG/asf/thirdparty/CMSIS/Include/core_cmInstr.h **** {
 445:/home/torbjorn/eclipse-workspace/CoreNG/asf/thirdparty/CMSIS/Include/core_cmInstr.h ****   __ASM volatile ("dsb");
 446:/home/torbjorn/eclipse-workspace/CoreNG/asf/thirdparty/CMSIS/Include/core_cmInstr.h **** }
 447:/home/torbjorn/eclipse-workspace/CoreNG/asf/thirdparty/CMSIS/Include/core_cmInstr.h **** 
 448:/home/torbjorn/eclipse-workspace/CoreNG/asf/thirdparty/CMSIS/Include/core_cmInstr.h **** 
 449:/home/torbjorn/eclipse-workspace/CoreNG/asf/thirdparty/CMSIS/Include/core_cmInstr.h **** /** \brief  Data Memory Barrier
 450:/home/torbjorn/eclipse-workspace/CoreNG/asf/thirdparty/CMSIS/Include/core_cmInstr.h **** 
 451:/home/torbjorn/eclipse-workspace/CoreNG/asf/thirdparty/CMSIS/Include/core_cmInstr.h ****     This function ensures the apparent order of the explicit memory operations before
 452:/home/torbjorn/eclipse-workspace/CoreNG/asf/thirdparty/CMSIS/Include/core_cmInstr.h ****     and after the instruction, without ensuring their completion.
 453:/home/torbjorn/eclipse-workspace/CoreNG/asf/thirdparty/CMSIS/Include/core_cmInstr.h ****  */
 454:/home/torbjorn/eclipse-workspace/CoreNG/asf/thirdparty/CMSIS/Include/core_cmInstr.h **** __attribute__( ( always_inline ) ) __STATIC_INLINE void __DMB(void)
 455:/home/torbjorn/eclipse-workspace/CoreNG/asf/thirdparty/CMSIS/Include/core_cmInstr.h **** {
 456:/home/torbjorn/eclipse-workspace/CoreNG/asf/thirdparty/CMSIS/Include/core_cmInstr.h ****   __ASM volatile ("dmb");
 276              		.loc 3 456 0
 277              		.syntax unified
 278              	@ 456 "/home/torbjorn/eclipse-workspace/CoreNG/asf/thirdparty/CMSIS/Include/core_cmInstr.h" 1
 279 0056 BFF35F8F 		dmb
 280              	@ 0 "" 2
ARM GAS  /tmp/ccVHQYWs.s 			page 29


 281              		.thumb
 282              		.syntax unified
 283              	.LBE63:
 284              	.LBE62:
 285              	.LBE57:
 286              	.LBE56:
 287              		.file 4 "/home/torbjorn/eclipse-workspace/CoreNG/asf/sam/utils/fpu/fpu.h"
   1:/home/torbjorn/eclipse-workspace/CoreNG/asf/sam/utils/fpu/fpu.h **** /**
   2:/home/torbjorn/eclipse-workspace/CoreNG/asf/sam/utils/fpu/fpu.h ****  * \file
   3:/home/torbjorn/eclipse-workspace/CoreNG/asf/sam/utils/fpu/fpu.h ****  *
   4:/home/torbjorn/eclipse-workspace/CoreNG/asf/sam/utils/fpu/fpu.h ****  * \brief FPU support for SAM.
   5:/home/torbjorn/eclipse-workspace/CoreNG/asf/sam/utils/fpu/fpu.h ****  *
   6:/home/torbjorn/eclipse-workspace/CoreNG/asf/sam/utils/fpu/fpu.h ****  * Copyright (c) 2014-2015 Atmel Corporation. All rights reserved.
   7:/home/torbjorn/eclipse-workspace/CoreNG/asf/sam/utils/fpu/fpu.h ****  *
   8:/home/torbjorn/eclipse-workspace/CoreNG/asf/sam/utils/fpu/fpu.h ****  * \asf_license_start
   9:/home/torbjorn/eclipse-workspace/CoreNG/asf/sam/utils/fpu/fpu.h ****  *
  10:/home/torbjorn/eclipse-workspace/CoreNG/asf/sam/utils/fpu/fpu.h ****  * \page License
  11:/home/torbjorn/eclipse-workspace/CoreNG/asf/sam/utils/fpu/fpu.h ****  *
  12:/home/torbjorn/eclipse-workspace/CoreNG/asf/sam/utils/fpu/fpu.h ****  * Redistribution and use in source and binary forms, with or without
  13:/home/torbjorn/eclipse-workspace/CoreNG/asf/sam/utils/fpu/fpu.h ****  * modification, are permitted provided that the following conditions are met:
  14:/home/torbjorn/eclipse-workspace/CoreNG/asf/sam/utils/fpu/fpu.h ****  *
  15:/home/torbjorn/eclipse-workspace/CoreNG/asf/sam/utils/fpu/fpu.h ****  * 1. Redistributions of source code must retain the above copyright notice,
  16:/home/torbjorn/eclipse-workspace/CoreNG/asf/sam/utils/fpu/fpu.h ****  *    this list of conditions and the following disclaimer.
  17:/home/torbjorn/eclipse-workspace/CoreNG/asf/sam/utils/fpu/fpu.h ****  *
  18:/home/torbjorn/eclipse-workspace/CoreNG/asf/sam/utils/fpu/fpu.h ****  * 2. Redistributions in binary form must reproduce the above copyright notice,
  19:/home/torbjorn/eclipse-workspace/CoreNG/asf/sam/utils/fpu/fpu.h ****  *    this list of conditions and the following disclaimer in the documentation
  20:/home/torbjorn/eclipse-workspace/CoreNG/asf/sam/utils/fpu/fpu.h ****  *    and/or other materials provided with the distribution.
  21:/home/torbjorn/eclipse-workspace/CoreNG/asf/sam/utils/fpu/fpu.h ****  *
  22:/home/torbjorn/eclipse-workspace/CoreNG/asf/sam/utils/fpu/fpu.h ****  * 3. The name of Atmel may not be used to endorse or promote products derived
  23:/home/torbjorn/eclipse-workspace/CoreNG/asf/sam/utils/fpu/fpu.h ****  *    from this software without specific prior written permission.
  24:/home/torbjorn/eclipse-workspace/CoreNG/asf/sam/utils/fpu/fpu.h ****  *
  25:/home/torbjorn/eclipse-workspace/CoreNG/asf/sam/utils/fpu/fpu.h ****  * 4. This software may only be redistributed and used in connection with an
  26:/home/torbjorn/eclipse-workspace/CoreNG/asf/sam/utils/fpu/fpu.h ****  *    Atmel microcontroller product.
  27:/home/torbjorn/eclipse-workspace/CoreNG/asf/sam/utils/fpu/fpu.h ****  *
  28:/home/torbjorn/eclipse-workspace/CoreNG/asf/sam/utils/fpu/fpu.h ****  * THIS SOFTWARE IS PROVIDED BY ATMEL "AS IS" AND ANY EXPRESS OR IMPLIED
  29:/home/torbjorn/eclipse-workspace/CoreNG/asf/sam/utils/fpu/fpu.h ****  * WARRANTIES, INCLUDING, BUT NOT LIMITED TO, THE IMPLIED WARRANTIES OF
  30:/home/torbjorn/eclipse-workspace/CoreNG/asf/sam/utils/fpu/fpu.h ****  * MERCHANTABILITY, FITNESS FOR A PARTICULAR PURPOSE AND NON-INFRINGEMENT ARE
  31:/home/torbjorn/eclipse-workspace/CoreNG/asf/sam/utils/fpu/fpu.h ****  * EXPRESSLY AND SPECIFICALLY DISCLAIMED. IN NO EVENT SHALL ATMEL BE LIABLE FOR
  32:/home/torbjorn/eclipse-workspace/CoreNG/asf/sam/utils/fpu/fpu.h ****  * ANY DIRECT, INDIRECT, INCIDENTAL, SPECIAL, EXEMPLARY, OR CONSEQUENTIAL
  33:/home/torbjorn/eclipse-workspace/CoreNG/asf/sam/utils/fpu/fpu.h ****  * DAMAGES (INCLUDING, BUT NOT LIMITED TO, PROCUREMENT OF SUBSTITUTE GOODS
  34:/home/torbjorn/eclipse-workspace/CoreNG/asf/sam/utils/fpu/fpu.h ****  * OR SERVICES; LOSS OF USE, DATA, OR PROFITS; OR BUSINESS INTERRUPTION)
  35:/home/torbjorn/eclipse-workspace/CoreNG/asf/sam/utils/fpu/fpu.h ****  * HOWEVER CAUSED AND ON ANY THEORY OF LIABILITY, WHETHER IN CONTRACT,
  36:/home/torbjorn/eclipse-workspace/CoreNG/asf/sam/utils/fpu/fpu.h ****  * STRICT LIABILITY, OR TORT (INCLUDING NEGLIGENCE OR OTHERWISE) ARISING IN
  37:/home/torbjorn/eclipse-workspace/CoreNG/asf/sam/utils/fpu/fpu.h ****  * ANY WAY OUT OF THE USE OF THIS SOFTWARE, EVEN IF ADVISED OF THE
  38:/home/torbjorn/eclipse-workspace/CoreNG/asf/sam/utils/fpu/fpu.h ****  * POSSIBILITY OF SUCH DAMAGE.
  39:/home/torbjorn/eclipse-workspace/CoreNG/asf/sam/utils/fpu/fpu.h ****  *
  40:/home/torbjorn/eclipse-workspace/CoreNG/asf/sam/utils/fpu/fpu.h ****  * \asf_license_stop
  41:/home/torbjorn/eclipse-workspace/CoreNG/asf/sam/utils/fpu/fpu.h ****  *
  42:/home/torbjorn/eclipse-workspace/CoreNG/asf/sam/utils/fpu/fpu.h ****  */
  43:/home/torbjorn/eclipse-workspace/CoreNG/asf/sam/utils/fpu/fpu.h **** /*
  44:/home/torbjorn/eclipse-workspace/CoreNG/asf/sam/utils/fpu/fpu.h ****  * Support and FAQ: visit <a href="http://www.atmel.com/design-support/">Atmel Support</a>
  45:/home/torbjorn/eclipse-workspace/CoreNG/asf/sam/utils/fpu/fpu.h ****  */
  46:/home/torbjorn/eclipse-workspace/CoreNG/asf/sam/utils/fpu/fpu.h **** 
  47:/home/torbjorn/eclipse-workspace/CoreNG/asf/sam/utils/fpu/fpu.h **** #ifndef _FPU_H_INCLUDED_
  48:/home/torbjorn/eclipse-workspace/CoreNG/asf/sam/utils/fpu/fpu.h **** #define _FPU_H_INCLUDED_
  49:/home/torbjorn/eclipse-workspace/CoreNG/asf/sam/utils/fpu/fpu.h **** 
  50:/home/torbjorn/eclipse-workspace/CoreNG/asf/sam/utils/fpu/fpu.h **** #include <compiler.h>
ARM GAS  /tmp/ccVHQYWs.s 			page 30


  51:/home/torbjorn/eclipse-workspace/CoreNG/asf/sam/utils/fpu/fpu.h **** 
  52:/home/torbjorn/eclipse-workspace/CoreNG/asf/sam/utils/fpu/fpu.h **** /** Address for ARM CPACR */
  53:/home/torbjorn/eclipse-workspace/CoreNG/asf/sam/utils/fpu/fpu.h **** #define ADDR_CPACR 0xE000ED88
  54:/home/torbjorn/eclipse-workspace/CoreNG/asf/sam/utils/fpu/fpu.h **** 
  55:/home/torbjorn/eclipse-workspace/CoreNG/asf/sam/utils/fpu/fpu.h **** /** CPACR Register */
  56:/home/torbjorn/eclipse-workspace/CoreNG/asf/sam/utils/fpu/fpu.h **** #define REG_CPACR  (*((volatile uint32_t *)ADDR_CPACR))
  57:/home/torbjorn/eclipse-workspace/CoreNG/asf/sam/utils/fpu/fpu.h **** 
  58:/home/torbjorn/eclipse-workspace/CoreNG/asf/sam/utils/fpu/fpu.h **** /**
  59:/home/torbjorn/eclipse-workspace/CoreNG/asf/sam/utils/fpu/fpu.h ****  * \brief Enable FPU
  60:/home/torbjorn/eclipse-workspace/CoreNG/asf/sam/utils/fpu/fpu.h ****  */
  61:/home/torbjorn/eclipse-workspace/CoreNG/asf/sam/utils/fpu/fpu.h **** __always_inline static void fpu_enable(void)
  62:/home/torbjorn/eclipse-workspace/CoreNG/asf/sam/utils/fpu/fpu.h **** {
  63:/home/torbjorn/eclipse-workspace/CoreNG/asf/sam/utils/fpu/fpu.h **** 	irqflags_t flags;
  64:/home/torbjorn/eclipse-workspace/CoreNG/asf/sam/utils/fpu/fpu.h **** 	flags = cpu_irq_save();
  65:/home/torbjorn/eclipse-workspace/CoreNG/asf/sam/utils/fpu/fpu.h **** 	REG_CPACR |=  (0xFu << 20);
 288              		.loc 4 65 0
 289 005a 2048     		ldr	r0, .L18+28
 290              	.LBB65:
 291              	.LBB64:
 292              		.file 5 "/home/torbjorn/eclipse-workspace/CoreNG/asf/common/utils/interrupt/interrupt_sam_nvic.h"
   1:/home/torbjorn/eclipse-workspace/CoreNG/asf/common/utils/interrupt/interrupt_sam_nvic.h **** /**
   2:/home/torbjorn/eclipse-workspace/CoreNG/asf/common/utils/interrupt/interrupt_sam_nvic.h ****  * \file
   3:/home/torbjorn/eclipse-workspace/CoreNG/asf/common/utils/interrupt/interrupt_sam_nvic.h ****  *
   4:/home/torbjorn/eclipse-workspace/CoreNG/asf/common/utils/interrupt/interrupt_sam_nvic.h ****  * \brief Global interrupt management for SAM D20, SAM3 and SAM4 (NVIC based)
   5:/home/torbjorn/eclipse-workspace/CoreNG/asf/common/utils/interrupt/interrupt_sam_nvic.h ****  *
   6:/home/torbjorn/eclipse-workspace/CoreNG/asf/common/utils/interrupt/interrupt_sam_nvic.h ****  * Copyright (c) 2012-2015 Atmel Corporation. All rights reserved.
   7:/home/torbjorn/eclipse-workspace/CoreNG/asf/common/utils/interrupt/interrupt_sam_nvic.h ****  *
   8:/home/torbjorn/eclipse-workspace/CoreNG/asf/common/utils/interrupt/interrupt_sam_nvic.h ****  * \asf_license_start
   9:/home/torbjorn/eclipse-workspace/CoreNG/asf/common/utils/interrupt/interrupt_sam_nvic.h ****  *
  10:/home/torbjorn/eclipse-workspace/CoreNG/asf/common/utils/interrupt/interrupt_sam_nvic.h ****  * \page License
  11:/home/torbjorn/eclipse-workspace/CoreNG/asf/common/utils/interrupt/interrupt_sam_nvic.h ****  *
  12:/home/torbjorn/eclipse-workspace/CoreNG/asf/common/utils/interrupt/interrupt_sam_nvic.h ****  * Redistribution and use in source and binary forms, with or without
  13:/home/torbjorn/eclipse-workspace/CoreNG/asf/common/utils/interrupt/interrupt_sam_nvic.h ****  * modification, are permitted provided that the following conditions are met:
  14:/home/torbjorn/eclipse-workspace/CoreNG/asf/common/utils/interrupt/interrupt_sam_nvic.h ****  *
  15:/home/torbjorn/eclipse-workspace/CoreNG/asf/common/utils/interrupt/interrupt_sam_nvic.h ****  * 1. Redistributions of source code must retain the above copyright notice,
  16:/home/torbjorn/eclipse-workspace/CoreNG/asf/common/utils/interrupt/interrupt_sam_nvic.h ****  *    this list of conditions and the following disclaimer.
  17:/home/torbjorn/eclipse-workspace/CoreNG/asf/common/utils/interrupt/interrupt_sam_nvic.h ****  *
  18:/home/torbjorn/eclipse-workspace/CoreNG/asf/common/utils/interrupt/interrupt_sam_nvic.h ****  * 2. Redistributions in binary form must reproduce the above copyright notice,
  19:/home/torbjorn/eclipse-workspace/CoreNG/asf/common/utils/interrupt/interrupt_sam_nvic.h ****  *    this list of conditions and the following disclaimer in the documentation
  20:/home/torbjorn/eclipse-workspace/CoreNG/asf/common/utils/interrupt/interrupt_sam_nvic.h ****  *    and/or other materials provided with the distribution.
  21:/home/torbjorn/eclipse-workspace/CoreNG/asf/common/utils/interrupt/interrupt_sam_nvic.h ****  *
  22:/home/torbjorn/eclipse-workspace/CoreNG/asf/common/utils/interrupt/interrupt_sam_nvic.h ****  * 3. The name of Atmel may not be used to endorse or promote products derived
  23:/home/torbjorn/eclipse-workspace/CoreNG/asf/common/utils/interrupt/interrupt_sam_nvic.h ****  *    from this software without specific prior written permission.
  24:/home/torbjorn/eclipse-workspace/CoreNG/asf/common/utils/interrupt/interrupt_sam_nvic.h ****  *
  25:/home/torbjorn/eclipse-workspace/CoreNG/asf/common/utils/interrupt/interrupt_sam_nvic.h ****  * 4. This software may only be redistributed and used in connection with an
  26:/home/torbjorn/eclipse-workspace/CoreNG/asf/common/utils/interrupt/interrupt_sam_nvic.h ****  *    Atmel microcontroller product.
  27:/home/torbjorn/eclipse-workspace/CoreNG/asf/common/utils/interrupt/interrupt_sam_nvic.h ****  *
  28:/home/torbjorn/eclipse-workspace/CoreNG/asf/common/utils/interrupt/interrupt_sam_nvic.h ****  * THIS SOFTWARE IS PROVIDED BY ATMEL "AS IS" AND ANY EXPRESS OR IMPLIED
  29:/home/torbjorn/eclipse-workspace/CoreNG/asf/common/utils/interrupt/interrupt_sam_nvic.h ****  * WARRANTIES, INCLUDING, BUT NOT LIMITED TO, THE IMPLIED WARRANTIES OF
  30:/home/torbjorn/eclipse-workspace/CoreNG/asf/common/utils/interrupt/interrupt_sam_nvic.h ****  * MERCHANTABILITY, FITNESS FOR A PARTICULAR PURPOSE AND NON-INFRINGEMENT ARE
  31:/home/torbjorn/eclipse-workspace/CoreNG/asf/common/utils/interrupt/interrupt_sam_nvic.h ****  * EXPRESSLY AND SPECIFICALLY DISCLAIMED. IN NO EVENT SHALL ATMEL BE LIABLE FOR
  32:/home/torbjorn/eclipse-workspace/CoreNG/asf/common/utils/interrupt/interrupt_sam_nvic.h ****  * ANY DIRECT, INDIRECT, INCIDENTAL, SPECIAL, EXEMPLARY, OR CONSEQUENTIAL
  33:/home/torbjorn/eclipse-workspace/CoreNG/asf/common/utils/interrupt/interrupt_sam_nvic.h ****  * DAMAGES (INCLUDING, BUT NOT LIMITED TO, PROCUREMENT OF SUBSTITUTE GOODS
  34:/home/torbjorn/eclipse-workspace/CoreNG/asf/common/utils/interrupt/interrupt_sam_nvic.h ****  * OR SERVICES; LOSS OF USE, DATA, OR PROFITS; OR BUSINESS INTERRUPTION)
  35:/home/torbjorn/eclipse-workspace/CoreNG/asf/common/utils/interrupt/interrupt_sam_nvic.h ****  * HOWEVER CAUSED AND ON ANY THEORY OF LIABILITY, WHETHER IN CONTRACT,
  36:/home/torbjorn/eclipse-workspace/CoreNG/asf/common/utils/interrupt/interrupt_sam_nvic.h ****  * STRICT LIABILITY, OR TORT (INCLUDING NEGLIGENCE OR OTHERWISE) ARISING IN
  37:/home/torbjorn/eclipse-workspace/CoreNG/asf/common/utils/interrupt/interrupt_sam_nvic.h ****  * ANY WAY OUT OF THE USE OF THIS SOFTWARE, EVEN IF ADVISED OF THE
ARM GAS  /tmp/ccVHQYWs.s 			page 31


  38:/home/torbjorn/eclipse-workspace/CoreNG/asf/common/utils/interrupt/interrupt_sam_nvic.h ****  * POSSIBILITY OF SUCH DAMAGE.
  39:/home/torbjorn/eclipse-workspace/CoreNG/asf/common/utils/interrupt/interrupt_sam_nvic.h ****  *
  40:/home/torbjorn/eclipse-workspace/CoreNG/asf/common/utils/interrupt/interrupt_sam_nvic.h ****  * \asf_license_stop
  41:/home/torbjorn/eclipse-workspace/CoreNG/asf/common/utils/interrupt/interrupt_sam_nvic.h ****  *
  42:/home/torbjorn/eclipse-workspace/CoreNG/asf/common/utils/interrupt/interrupt_sam_nvic.h ****  */
  43:/home/torbjorn/eclipse-workspace/CoreNG/asf/common/utils/interrupt/interrupt_sam_nvic.h **** /*
  44:/home/torbjorn/eclipse-workspace/CoreNG/asf/common/utils/interrupt/interrupt_sam_nvic.h ****  * Support and FAQ: visit <a href="http://www.atmel.com/design-support/">Atmel Support</a>
  45:/home/torbjorn/eclipse-workspace/CoreNG/asf/common/utils/interrupt/interrupt_sam_nvic.h ****  */
  46:/home/torbjorn/eclipse-workspace/CoreNG/asf/common/utils/interrupt/interrupt_sam_nvic.h **** 
  47:/home/torbjorn/eclipse-workspace/CoreNG/asf/common/utils/interrupt/interrupt_sam_nvic.h **** #ifndef UTILS_INTERRUPT_INTERRUPT_H
  48:/home/torbjorn/eclipse-workspace/CoreNG/asf/common/utils/interrupt/interrupt_sam_nvic.h **** #define UTILS_INTERRUPT_INTERRUPT_H
  49:/home/torbjorn/eclipse-workspace/CoreNG/asf/common/utils/interrupt/interrupt_sam_nvic.h **** 
  50:/home/torbjorn/eclipse-workspace/CoreNG/asf/common/utils/interrupt/interrupt_sam_nvic.h **** #include <compiler.h>
  51:/home/torbjorn/eclipse-workspace/CoreNG/asf/common/utils/interrupt/interrupt_sam_nvic.h **** #include <parts.h>
  52:/home/torbjorn/eclipse-workspace/CoreNG/asf/common/utils/interrupt/interrupt_sam_nvic.h **** 
  53:/home/torbjorn/eclipse-workspace/CoreNG/asf/common/utils/interrupt/interrupt_sam_nvic.h **** #ifdef __cplusplus
  54:/home/torbjorn/eclipse-workspace/CoreNG/asf/common/utils/interrupt/interrupt_sam_nvic.h **** extern "C" {
  55:/home/torbjorn/eclipse-workspace/CoreNG/asf/common/utils/interrupt/interrupt_sam_nvic.h **** #endif
  56:/home/torbjorn/eclipse-workspace/CoreNG/asf/common/utils/interrupt/interrupt_sam_nvic.h **** 
  57:/home/torbjorn/eclipse-workspace/CoreNG/asf/common/utils/interrupt/interrupt_sam_nvic.h **** /**
  58:/home/torbjorn/eclipse-workspace/CoreNG/asf/common/utils/interrupt/interrupt_sam_nvic.h ****  * \weakgroup interrupt_group
  59:/home/torbjorn/eclipse-workspace/CoreNG/asf/common/utils/interrupt/interrupt_sam_nvic.h ****  *
  60:/home/torbjorn/eclipse-workspace/CoreNG/asf/common/utils/interrupt/interrupt_sam_nvic.h ****  * @{
  61:/home/torbjorn/eclipse-workspace/CoreNG/asf/common/utils/interrupt/interrupt_sam_nvic.h ****  */
  62:/home/torbjorn/eclipse-workspace/CoreNG/asf/common/utils/interrupt/interrupt_sam_nvic.h **** 
  63:/home/torbjorn/eclipse-workspace/CoreNG/asf/common/utils/interrupt/interrupt_sam_nvic.h **** /**
  64:/home/torbjorn/eclipse-workspace/CoreNG/asf/common/utils/interrupt/interrupt_sam_nvic.h ****  * \name Interrupt Service Routine definition
  65:/home/torbjorn/eclipse-workspace/CoreNG/asf/common/utils/interrupt/interrupt_sam_nvic.h ****  *
  66:/home/torbjorn/eclipse-workspace/CoreNG/asf/common/utils/interrupt/interrupt_sam_nvic.h ****  * @{
  67:/home/torbjorn/eclipse-workspace/CoreNG/asf/common/utils/interrupt/interrupt_sam_nvic.h ****  */
  68:/home/torbjorn/eclipse-workspace/CoreNG/asf/common/utils/interrupt/interrupt_sam_nvic.h **** 
  69:/home/torbjorn/eclipse-workspace/CoreNG/asf/common/utils/interrupt/interrupt_sam_nvic.h **** /**
  70:/home/torbjorn/eclipse-workspace/CoreNG/asf/common/utils/interrupt/interrupt_sam_nvic.h ****  * \brief Define service routine
  71:/home/torbjorn/eclipse-workspace/CoreNG/asf/common/utils/interrupt/interrupt_sam_nvic.h ****  *
  72:/home/torbjorn/eclipse-workspace/CoreNG/asf/common/utils/interrupt/interrupt_sam_nvic.h ****  * \note For NVIC devices the interrupt service routines are predefined to
  73:/home/torbjorn/eclipse-workspace/CoreNG/asf/common/utils/interrupt/interrupt_sam_nvic.h ****  *       add to vector table in binary generation, so there is no service
  74:/home/torbjorn/eclipse-workspace/CoreNG/asf/common/utils/interrupt/interrupt_sam_nvic.h ****  *       register at run time. The routine collections are in exceptions.h.
  75:/home/torbjorn/eclipse-workspace/CoreNG/asf/common/utils/interrupt/interrupt_sam_nvic.h ****  *
  76:/home/torbjorn/eclipse-workspace/CoreNG/asf/common/utils/interrupt/interrupt_sam_nvic.h ****  * Usage:
  77:/home/torbjorn/eclipse-workspace/CoreNG/asf/common/utils/interrupt/interrupt_sam_nvic.h ****  * \code
  78:/home/torbjorn/eclipse-workspace/CoreNG/asf/common/utils/interrupt/interrupt_sam_nvic.h **** 	ISR(foo_irq_handler)
  79:/home/torbjorn/eclipse-workspace/CoreNG/asf/common/utils/interrupt/interrupt_sam_nvic.h **** 	{
  80:/home/torbjorn/eclipse-workspace/CoreNG/asf/common/utils/interrupt/interrupt_sam_nvic.h **** 	     // Function definition
  81:/home/torbjorn/eclipse-workspace/CoreNG/asf/common/utils/interrupt/interrupt_sam_nvic.h **** 	     ...
  82:/home/torbjorn/eclipse-workspace/CoreNG/asf/common/utils/interrupt/interrupt_sam_nvic.h **** 	}
  83:/home/torbjorn/eclipse-workspace/CoreNG/asf/common/utils/interrupt/interrupt_sam_nvic.h **** \endcode
  84:/home/torbjorn/eclipse-workspace/CoreNG/asf/common/utils/interrupt/interrupt_sam_nvic.h ****  *
  85:/home/torbjorn/eclipse-workspace/CoreNG/asf/common/utils/interrupt/interrupt_sam_nvic.h ****  * \param func Name for the function.
  86:/home/torbjorn/eclipse-workspace/CoreNG/asf/common/utils/interrupt/interrupt_sam_nvic.h ****  */
  87:/home/torbjorn/eclipse-workspace/CoreNG/asf/common/utils/interrupt/interrupt_sam_nvic.h **** #  define ISR(func)   \
  88:/home/torbjorn/eclipse-workspace/CoreNG/asf/common/utils/interrupt/interrupt_sam_nvic.h **** 	void func (void)
  89:/home/torbjorn/eclipse-workspace/CoreNG/asf/common/utils/interrupt/interrupt_sam_nvic.h **** 
  90:/home/torbjorn/eclipse-workspace/CoreNG/asf/common/utils/interrupt/interrupt_sam_nvic.h **** /**
  91:/home/torbjorn/eclipse-workspace/CoreNG/asf/common/utils/interrupt/interrupt_sam_nvic.h ****  * \brief Initialize interrupt vectors
  92:/home/torbjorn/eclipse-workspace/CoreNG/asf/common/utils/interrupt/interrupt_sam_nvic.h ****  *
  93:/home/torbjorn/eclipse-workspace/CoreNG/asf/common/utils/interrupt/interrupt_sam_nvic.h ****  * For NVIC the interrupt vectors are put in vector table. So nothing
  94:/home/torbjorn/eclipse-workspace/CoreNG/asf/common/utils/interrupt/interrupt_sam_nvic.h ****  * to do to initialize them, except defined the vector function with
ARM GAS  /tmp/ccVHQYWs.s 			page 32


  95:/home/torbjorn/eclipse-workspace/CoreNG/asf/common/utils/interrupt/interrupt_sam_nvic.h ****  * right name.
  96:/home/torbjorn/eclipse-workspace/CoreNG/asf/common/utils/interrupt/interrupt_sam_nvic.h ****  *
  97:/home/torbjorn/eclipse-workspace/CoreNG/asf/common/utils/interrupt/interrupt_sam_nvic.h ****  * This must be called prior to \ref irq_register_handler.
  98:/home/torbjorn/eclipse-workspace/CoreNG/asf/common/utils/interrupt/interrupt_sam_nvic.h ****  */
  99:/home/torbjorn/eclipse-workspace/CoreNG/asf/common/utils/interrupt/interrupt_sam_nvic.h **** #  define irq_initialize_vectors()   \
 100:/home/torbjorn/eclipse-workspace/CoreNG/asf/common/utils/interrupt/interrupt_sam_nvic.h **** 	do {                             \
 101:/home/torbjorn/eclipse-workspace/CoreNG/asf/common/utils/interrupt/interrupt_sam_nvic.h **** 	} while(0)
 102:/home/torbjorn/eclipse-workspace/CoreNG/asf/common/utils/interrupt/interrupt_sam_nvic.h **** 
 103:/home/torbjorn/eclipse-workspace/CoreNG/asf/common/utils/interrupt/interrupt_sam_nvic.h **** /**
 104:/home/torbjorn/eclipse-workspace/CoreNG/asf/common/utils/interrupt/interrupt_sam_nvic.h ****  * \brief Register handler for interrupt
 105:/home/torbjorn/eclipse-workspace/CoreNG/asf/common/utils/interrupt/interrupt_sam_nvic.h ****  *
 106:/home/torbjorn/eclipse-workspace/CoreNG/asf/common/utils/interrupt/interrupt_sam_nvic.h ****  * For NVIC the interrupt vectors are put in vector table. So nothing
 107:/home/torbjorn/eclipse-workspace/CoreNG/asf/common/utils/interrupt/interrupt_sam_nvic.h ****  * to do to register them, except defined the vector function with
 108:/home/torbjorn/eclipse-workspace/CoreNG/asf/common/utils/interrupt/interrupt_sam_nvic.h ****  * right name.
 109:/home/torbjorn/eclipse-workspace/CoreNG/asf/common/utils/interrupt/interrupt_sam_nvic.h ****  *
 110:/home/torbjorn/eclipse-workspace/CoreNG/asf/common/utils/interrupt/interrupt_sam_nvic.h ****  * Usage:
 111:/home/torbjorn/eclipse-workspace/CoreNG/asf/common/utils/interrupt/interrupt_sam_nvic.h ****  * \code
 112:/home/torbjorn/eclipse-workspace/CoreNG/asf/common/utils/interrupt/interrupt_sam_nvic.h **** 	irq_initialize_vectors();
 113:/home/torbjorn/eclipse-workspace/CoreNG/asf/common/utils/interrupt/interrupt_sam_nvic.h **** 	irq_register_handler(foo_irq_handler);
 114:/home/torbjorn/eclipse-workspace/CoreNG/asf/common/utils/interrupt/interrupt_sam_nvic.h **** \endcode
 115:/home/torbjorn/eclipse-workspace/CoreNG/asf/common/utils/interrupt/interrupt_sam_nvic.h ****  *
 116:/home/torbjorn/eclipse-workspace/CoreNG/asf/common/utils/interrupt/interrupt_sam_nvic.h ****  * \note The function \a func must be defined with the \ref ISR macro.
 117:/home/torbjorn/eclipse-workspace/CoreNG/asf/common/utils/interrupt/interrupt_sam_nvic.h ****  * \note The functions prototypes can be found in the device exception header
 118:/home/torbjorn/eclipse-workspace/CoreNG/asf/common/utils/interrupt/interrupt_sam_nvic.h ****  *       files (exceptions.h).
 119:/home/torbjorn/eclipse-workspace/CoreNG/asf/common/utils/interrupt/interrupt_sam_nvic.h ****  */
 120:/home/torbjorn/eclipse-workspace/CoreNG/asf/common/utils/interrupt/interrupt_sam_nvic.h **** #  define irq_register_handler(int_num, int_prio)                      \
 121:/home/torbjorn/eclipse-workspace/CoreNG/asf/common/utils/interrupt/interrupt_sam_nvic.h **** 	NVIC_ClearPendingIRQ(    (IRQn_Type)int_num);                      \
 122:/home/torbjorn/eclipse-workspace/CoreNG/asf/common/utils/interrupt/interrupt_sam_nvic.h **** 	NVIC_SetPriority(    (IRQn_Type)int_num, int_prio);                \
 123:/home/torbjorn/eclipse-workspace/CoreNG/asf/common/utils/interrupt/interrupt_sam_nvic.h **** 	NVIC_EnableIRQ(      (IRQn_Type)int_num);                          \
 124:/home/torbjorn/eclipse-workspace/CoreNG/asf/common/utils/interrupt/interrupt_sam_nvic.h **** 
 125:/home/torbjorn/eclipse-workspace/CoreNG/asf/common/utils/interrupt/interrupt_sam_nvic.h **** //@}
 126:/home/torbjorn/eclipse-workspace/CoreNG/asf/common/utils/interrupt/interrupt_sam_nvic.h **** 
 127:/home/torbjorn/eclipse-workspace/CoreNG/asf/common/utils/interrupt/interrupt_sam_nvic.h **** #  define cpu_irq_enable()                     \
 128:/home/torbjorn/eclipse-workspace/CoreNG/asf/common/utils/interrupt/interrupt_sam_nvic.h **** 	do {                                       \
 129:/home/torbjorn/eclipse-workspace/CoreNG/asf/common/utils/interrupt/interrupt_sam_nvic.h **** 		g_interrupt_enabled = true;            \
 130:/home/torbjorn/eclipse-workspace/CoreNG/asf/common/utils/interrupt/interrupt_sam_nvic.h **** 		__DMB();                               \
 131:/home/torbjorn/eclipse-workspace/CoreNG/asf/common/utils/interrupt/interrupt_sam_nvic.h **** 		__enable_irq();                        \
 132:/home/torbjorn/eclipse-workspace/CoreNG/asf/common/utils/interrupt/interrupt_sam_nvic.h **** 	} while (0)
 133:/home/torbjorn/eclipse-workspace/CoreNG/asf/common/utils/interrupt/interrupt_sam_nvic.h **** #  define cpu_irq_disable()                    \
 134:/home/torbjorn/eclipse-workspace/CoreNG/asf/common/utils/interrupt/interrupt_sam_nvic.h **** 	do {                                       \
 135:/home/torbjorn/eclipse-workspace/CoreNG/asf/common/utils/interrupt/interrupt_sam_nvic.h **** 		__disable_irq();                       \
 136:/home/torbjorn/eclipse-workspace/CoreNG/asf/common/utils/interrupt/interrupt_sam_nvic.h **** 		__DMB();                               \
 137:/home/torbjorn/eclipse-workspace/CoreNG/asf/common/utils/interrupt/interrupt_sam_nvic.h **** 		g_interrupt_enabled = false;           \
 138:/home/torbjorn/eclipse-workspace/CoreNG/asf/common/utils/interrupt/interrupt_sam_nvic.h **** 	} while (0)
 139:/home/torbjorn/eclipse-workspace/CoreNG/asf/common/utils/interrupt/interrupt_sam_nvic.h **** 
 140:/home/torbjorn/eclipse-workspace/CoreNG/asf/common/utils/interrupt/interrupt_sam_nvic.h **** typedef uint32_t irqflags_t;
 141:/home/torbjorn/eclipse-workspace/CoreNG/asf/common/utils/interrupt/interrupt_sam_nvic.h **** 
 142:/home/torbjorn/eclipse-workspace/CoreNG/asf/common/utils/interrupt/interrupt_sam_nvic.h **** #if !defined(__DOXYGEN__)
 143:/home/torbjorn/eclipse-workspace/CoreNG/asf/common/utils/interrupt/interrupt_sam_nvic.h **** extern volatile bool g_interrupt_enabled;
 144:/home/torbjorn/eclipse-workspace/CoreNG/asf/common/utils/interrupt/interrupt_sam_nvic.h **** #endif
 145:/home/torbjorn/eclipse-workspace/CoreNG/asf/common/utils/interrupt/interrupt_sam_nvic.h **** 
 146:/home/torbjorn/eclipse-workspace/CoreNG/asf/common/utils/interrupt/interrupt_sam_nvic.h **** #define cpu_irq_is_enabled()    (__get_PRIMASK() == 0)
 147:/home/torbjorn/eclipse-workspace/CoreNG/asf/common/utils/interrupt/interrupt_sam_nvic.h **** 
 148:/home/torbjorn/eclipse-workspace/CoreNG/asf/common/utils/interrupt/interrupt_sam_nvic.h **** static volatile uint32_t cpu_irq_critical_section_counter;
 149:/home/torbjorn/eclipse-workspace/CoreNG/asf/common/utils/interrupt/interrupt_sam_nvic.h **** static volatile bool     cpu_irq_prev_interrupt_state;
 150:/home/torbjorn/eclipse-workspace/CoreNG/asf/common/utils/interrupt/interrupt_sam_nvic.h **** 
 151:/home/torbjorn/eclipse-workspace/CoreNG/asf/common/utils/interrupt/interrupt_sam_nvic.h **** static inline irqflags_t cpu_irq_save(void)
ARM GAS  /tmp/ccVHQYWs.s 			page 33


 152:/home/torbjorn/eclipse-workspace/CoreNG/asf/common/utils/interrupt/interrupt_sam_nvic.h **** {
 153:/home/torbjorn/eclipse-workspace/CoreNG/asf/common/utils/interrupt/interrupt_sam_nvic.h **** 	irqflags_t flags = cpu_irq_is_enabled();
 154:/home/torbjorn/eclipse-workspace/CoreNG/asf/common/utils/interrupt/interrupt_sam_nvic.h **** 	cpu_irq_disable();
 293              		.loc 5 154 0
 294 005c 0022     		movs	r2, #0
 295 005e 2049     		ldr	r1, .L18+32
 296 0060 0A70     		strb	r2, [r1]
 297              	.LBE64:
 298              	.LBE65:
 299              		.loc 4 65 0
 300 0062 0268     		ldr	r2, [r0]
 301 0064 42F47002 		orr	r2, r2, #15728640
 302 0068 0260     		str	r2, [r0]
 303              	.LBB66:
 304              	.LBB67:
 445:/home/torbjorn/eclipse-workspace/CoreNG/asf/thirdparty/CMSIS/Include/core_cmInstr.h **** }
 305              		.loc 3 445 0
 306              		.syntax unified
 307              	@ 445 "/home/torbjorn/eclipse-workspace/CoreNG/asf/thirdparty/CMSIS/Include/core_cmInstr.h" 1
 308 006a BFF34F8F 		dsb
 309              	@ 0 "" 2
 310              		.thumb
 311              		.syntax unified
 312              	.LBE67:
 313              	.LBE66:
 314              	.LBB68:
 315              	.LBB69:
 434:/home/torbjorn/eclipse-workspace/CoreNG/asf/thirdparty/CMSIS/Include/core_cmInstr.h **** }
 316              		.loc 3 434 0
 317              		.syntax unified
 318              	@ 434 "/home/torbjorn/eclipse-workspace/CoreNG/asf/thirdparty/CMSIS/Include/core_cmInstr.h" 1
 319 006e BFF36F8F 		isb
 320              	@ 0 "" 2
 321              		.thumb
 322              		.syntax unified
 323              	.LBE69:
 324              	.LBE68:
 325              	.LBB70:
 326              	.LBB71:
 155:/home/torbjorn/eclipse-workspace/CoreNG/asf/common/utils/interrupt/interrupt_sam_nvic.h **** 	return flags;
 156:/home/torbjorn/eclipse-workspace/CoreNG/asf/common/utils/interrupt/interrupt_sam_nvic.h **** }
 157:/home/torbjorn/eclipse-workspace/CoreNG/asf/common/utils/interrupt/interrupt_sam_nvic.h **** 
 158:/home/torbjorn/eclipse-workspace/CoreNG/asf/common/utils/interrupt/interrupt_sam_nvic.h **** static inline bool cpu_irq_is_enabled_flags(irqflags_t flags)
 159:/home/torbjorn/eclipse-workspace/CoreNG/asf/common/utils/interrupt/interrupt_sam_nvic.h **** {
 160:/home/torbjorn/eclipse-workspace/CoreNG/asf/common/utils/interrupt/interrupt_sam_nvic.h **** 	return (flags);
 161:/home/torbjorn/eclipse-workspace/CoreNG/asf/common/utils/interrupt/interrupt_sam_nvic.h **** }
 162:/home/torbjorn/eclipse-workspace/CoreNG/asf/common/utils/interrupt/interrupt_sam_nvic.h **** 
 163:/home/torbjorn/eclipse-workspace/CoreNG/asf/common/utils/interrupt/interrupt_sam_nvic.h **** static inline void cpu_irq_restore(irqflags_t flags)
 164:/home/torbjorn/eclipse-workspace/CoreNG/asf/common/utils/interrupt/interrupt_sam_nvic.h **** {
 165:/home/torbjorn/eclipse-workspace/CoreNG/asf/common/utils/interrupt/interrupt_sam_nvic.h **** 	if (cpu_irq_is_enabled_flags(flags))
 327              		.loc 5 165 0
 328 0072 23B9     		cbnz	r3, .L10
 166:/home/torbjorn/eclipse-workspace/CoreNG/asf/common/utils/interrupt/interrupt_sam_nvic.h **** 		cpu_irq_enable();
 329              		.loc 5 166 0
 330 0074 0123     		movs	r3, #1
 331 0076 0B70     		strb	r3, [r1]
 332              	.LBB72:
ARM GAS  /tmp/ccVHQYWs.s 			page 34


 333              	.LBB73:
 334              		.loc 3 456 0
 335              		.syntax unified
 336              	@ 456 "/home/torbjorn/eclipse-workspace/CoreNG/asf/thirdparty/CMSIS/Include/core_cmInstr.h" 1
 337 0078 BFF35F8F 		dmb
 338              	@ 0 "" 2
 339              		.thumb
 340              		.syntax unified
 341              	.LBE73:
 342              	.LBE72:
 343              	.LBB74:
 344              	.LBB75:
 319:/home/torbjorn/eclipse-workspace/CoreNG/asf/thirdparty/CMSIS/Include/core_cmFunc.h **** }
 345              		.loc 2 319 0
 346              		.syntax unified
 347              	@ 319 "/home/torbjorn/eclipse-workspace/CoreNG/asf/thirdparty/CMSIS/Include/core_cmFunc.h" 1
 348 007c 62B6     		cpsie i
 349              	@ 0 "" 2
 350              		.thumb
 351              		.syntax unified
 352              	.L10:
 353              	.LBE75:
 354              	.LBE74:
 355              	.LBE71:
 356              	.LBE70:
 357              	.LBE55:
 358              	.LBE54:
 357:../variants/same70/startup_same70.c **** 	UrgentInit();			// initialise anything in the main application that can't wait
 359              		.loc 1 357 0
 360 007e FFF7FEFF 		bl	SystemInit
 361              	.LVL9:
 358:../variants/same70/startup_same70.c **** 	__libc_init_array();	// initialize C library and call C++ constructors for static data
 362              		.loc 1 358 0
 363 0082 FFF7FEFF 		bl	UrgentInit
 364              	.LVL10:
 359:../variants/same70/startup_same70.c **** 	init();					// initialise variant
 365              		.loc 1 359 0
 366 0086 FFF7FEFF 		bl	__libc_init_array
 367              	.LVL11:
 360:../variants/same70/startup_same70.c **** 
 368              		.loc 1 360 0
 369 008a FFF7FEFF 		bl	init
 370              	.LVL12:
 364:../variants/same70/startup_same70.c **** 	{
 371              		.loc 1 364 0
 372 008e 154B     		ldr	r3, .L18+36
 373              	.LVL13:
 374 0090 154A     		ldr	r2, .L18+40
 375 0092 1B68     		ldr	r3, [r3]
 376              	.LVL14:
 377 0094 A2FB0323 		umull	r2, r3, r2, r3
 378              	.LVL15:
 379 0098 9B09     		lsrs	r3, r3, #6
 380              	.LBB76:
 381              	.LBB77:
 382              		.file 6 "/home/torbjorn/eclipse-workspace/CoreNG/asf/thirdparty/CMSIS/Include/core_cm7.h"
   1:/home/torbjorn/eclipse-workspace/CoreNG/asf/thirdparty/CMSIS/Include/core_cm7.h **** /**************************************************************************//**
ARM GAS  /tmp/ccVHQYWs.s 			page 35


   2:/home/torbjorn/eclipse-workspace/CoreNG/asf/thirdparty/CMSIS/Include/core_cm7.h ****  * @file     core_cm7.h
   3:/home/torbjorn/eclipse-workspace/CoreNG/asf/thirdparty/CMSIS/Include/core_cm7.h ****  * @brief    CMSIS Cortex-M7 Core Peripheral Access Layer Header File
   4:/home/torbjorn/eclipse-workspace/CoreNG/asf/thirdparty/CMSIS/Include/core_cm7.h ****  * @version  V4.00
   5:/home/torbjorn/eclipse-workspace/CoreNG/asf/thirdparty/CMSIS/Include/core_cm7.h ****  * @date     01. September 2014
   6:/home/torbjorn/eclipse-workspace/CoreNG/asf/thirdparty/CMSIS/Include/core_cm7.h ****  *
   7:/home/torbjorn/eclipse-workspace/CoreNG/asf/thirdparty/CMSIS/Include/core_cm7.h ****  * @note
   8:/home/torbjorn/eclipse-workspace/CoreNG/asf/thirdparty/CMSIS/Include/core_cm7.h ****  *
   9:/home/torbjorn/eclipse-workspace/CoreNG/asf/thirdparty/CMSIS/Include/core_cm7.h ****  ******************************************************************************/
  10:/home/torbjorn/eclipse-workspace/CoreNG/asf/thirdparty/CMSIS/Include/core_cm7.h **** /* Copyright (c) 2009 - 2014 ARM LIMITED
  11:/home/torbjorn/eclipse-workspace/CoreNG/asf/thirdparty/CMSIS/Include/core_cm7.h **** 
  12:/home/torbjorn/eclipse-workspace/CoreNG/asf/thirdparty/CMSIS/Include/core_cm7.h ****    All rights reserved.
  13:/home/torbjorn/eclipse-workspace/CoreNG/asf/thirdparty/CMSIS/Include/core_cm7.h ****    Redistribution and use in source and binary forms, with or without
  14:/home/torbjorn/eclipse-workspace/CoreNG/asf/thirdparty/CMSIS/Include/core_cm7.h ****    modification, are permitted provided that the following conditions are met:
  15:/home/torbjorn/eclipse-workspace/CoreNG/asf/thirdparty/CMSIS/Include/core_cm7.h ****    - Redistributions of source code must retain the above copyright
  16:/home/torbjorn/eclipse-workspace/CoreNG/asf/thirdparty/CMSIS/Include/core_cm7.h ****      notice, this list of conditions and the following disclaimer.
  17:/home/torbjorn/eclipse-workspace/CoreNG/asf/thirdparty/CMSIS/Include/core_cm7.h ****    - Redistributions in binary form must reproduce the above copyright
  18:/home/torbjorn/eclipse-workspace/CoreNG/asf/thirdparty/CMSIS/Include/core_cm7.h ****      notice, this list of conditions and the following disclaimer in the
  19:/home/torbjorn/eclipse-workspace/CoreNG/asf/thirdparty/CMSIS/Include/core_cm7.h ****      documentation and/or other materials provided with the distribution.
  20:/home/torbjorn/eclipse-workspace/CoreNG/asf/thirdparty/CMSIS/Include/core_cm7.h ****    - Neither the name of ARM nor the names of its contributors may be used
  21:/home/torbjorn/eclipse-workspace/CoreNG/asf/thirdparty/CMSIS/Include/core_cm7.h ****      to endorse or promote products derived from this software without
  22:/home/torbjorn/eclipse-workspace/CoreNG/asf/thirdparty/CMSIS/Include/core_cm7.h ****      specific prior written permission.
  23:/home/torbjorn/eclipse-workspace/CoreNG/asf/thirdparty/CMSIS/Include/core_cm7.h ****    *
  24:/home/torbjorn/eclipse-workspace/CoreNG/asf/thirdparty/CMSIS/Include/core_cm7.h ****    THIS SOFTWARE IS PROVIDED BY THE COPYRIGHT HOLDERS AND CONTRIBUTORS "AS IS"
  25:/home/torbjorn/eclipse-workspace/CoreNG/asf/thirdparty/CMSIS/Include/core_cm7.h ****    AND ANY EXPRESS OR IMPLIED WARRANTIES, INCLUDING, BUT NOT LIMITED TO, THE
  26:/home/torbjorn/eclipse-workspace/CoreNG/asf/thirdparty/CMSIS/Include/core_cm7.h ****    IMPLIED WARRANTIES OF MERCHANTABILITY AND FITNESS FOR A PARTICULAR PURPOSE
  27:/home/torbjorn/eclipse-workspace/CoreNG/asf/thirdparty/CMSIS/Include/core_cm7.h ****    ARE DISCLAIMED. IN NO EVENT SHALL COPYRIGHT HOLDERS AND CONTRIBUTORS BE
  28:/home/torbjorn/eclipse-workspace/CoreNG/asf/thirdparty/CMSIS/Include/core_cm7.h ****    LIABLE FOR ANY DIRECT, INDIRECT, INCIDENTAL, SPECIAL, EXEMPLARY, OR
  29:/home/torbjorn/eclipse-workspace/CoreNG/asf/thirdparty/CMSIS/Include/core_cm7.h ****    CONSEQUENTIAL DAMAGES (INCLUDING, BUT NOT LIMITED TO, PROCUREMENT OF
  30:/home/torbjorn/eclipse-workspace/CoreNG/asf/thirdparty/CMSIS/Include/core_cm7.h ****    SUBSTITUTE GOODS OR SERVICES; LOSS OF USE, DATA, OR PROFITS; OR BUSINESS
  31:/home/torbjorn/eclipse-workspace/CoreNG/asf/thirdparty/CMSIS/Include/core_cm7.h ****    INTERRUPTION) HOWEVER CAUSED AND ON ANY THEORY OF LIABILITY, WHETHER IN
  32:/home/torbjorn/eclipse-workspace/CoreNG/asf/thirdparty/CMSIS/Include/core_cm7.h ****    CONTRACT, STRICT LIABILITY, OR TORT (INCLUDING NEGLIGENCE OR OTHERWISE)
  33:/home/torbjorn/eclipse-workspace/CoreNG/asf/thirdparty/CMSIS/Include/core_cm7.h ****    ARISING IN ANY WAY OUT OF THE USE OF THIS SOFTWARE, EVEN IF ADVISED OF THE
  34:/home/torbjorn/eclipse-workspace/CoreNG/asf/thirdparty/CMSIS/Include/core_cm7.h ****    POSSIBILITY OF SUCH DAMAGE.
  35:/home/torbjorn/eclipse-workspace/CoreNG/asf/thirdparty/CMSIS/Include/core_cm7.h ****    ---------------------------------------------------------------------------*/
  36:/home/torbjorn/eclipse-workspace/CoreNG/asf/thirdparty/CMSIS/Include/core_cm7.h **** 
  37:/home/torbjorn/eclipse-workspace/CoreNG/asf/thirdparty/CMSIS/Include/core_cm7.h **** 
  38:/home/torbjorn/eclipse-workspace/CoreNG/asf/thirdparty/CMSIS/Include/core_cm7.h **** #if defined ( __ICCARM__ )
  39:/home/torbjorn/eclipse-workspace/CoreNG/asf/thirdparty/CMSIS/Include/core_cm7.h ****  #pragma system_include  /* treat file as system include file for MISRA check */
  40:/home/torbjorn/eclipse-workspace/CoreNG/asf/thirdparty/CMSIS/Include/core_cm7.h **** #endif
  41:/home/torbjorn/eclipse-workspace/CoreNG/asf/thirdparty/CMSIS/Include/core_cm7.h **** 
  42:/home/torbjorn/eclipse-workspace/CoreNG/asf/thirdparty/CMSIS/Include/core_cm7.h **** #ifndef __CORE_CM7_H_GENERIC
  43:/home/torbjorn/eclipse-workspace/CoreNG/asf/thirdparty/CMSIS/Include/core_cm7.h **** #define __CORE_CM7_H_GENERIC
  44:/home/torbjorn/eclipse-workspace/CoreNG/asf/thirdparty/CMSIS/Include/core_cm7.h **** 
  45:/home/torbjorn/eclipse-workspace/CoreNG/asf/thirdparty/CMSIS/Include/core_cm7.h **** #ifdef __cplusplus
  46:/home/torbjorn/eclipse-workspace/CoreNG/asf/thirdparty/CMSIS/Include/core_cm7.h ****  extern "C" {
  47:/home/torbjorn/eclipse-workspace/CoreNG/asf/thirdparty/CMSIS/Include/core_cm7.h **** #endif
  48:/home/torbjorn/eclipse-workspace/CoreNG/asf/thirdparty/CMSIS/Include/core_cm7.h **** 
  49:/home/torbjorn/eclipse-workspace/CoreNG/asf/thirdparty/CMSIS/Include/core_cm7.h **** /** \page CMSIS_MISRA_Exceptions  MISRA-C:2004 Compliance Exceptions
  50:/home/torbjorn/eclipse-workspace/CoreNG/asf/thirdparty/CMSIS/Include/core_cm7.h ****   CMSIS violates the following MISRA-C:2004 rules:
  51:/home/torbjorn/eclipse-workspace/CoreNG/asf/thirdparty/CMSIS/Include/core_cm7.h **** 
  52:/home/torbjorn/eclipse-workspace/CoreNG/asf/thirdparty/CMSIS/Include/core_cm7.h ****    \li Required Rule 8.5, object/function definition in header file.<br>
  53:/home/torbjorn/eclipse-workspace/CoreNG/asf/thirdparty/CMSIS/Include/core_cm7.h ****      Function definitions in header files are used to allow 'inlining'.
  54:/home/torbjorn/eclipse-workspace/CoreNG/asf/thirdparty/CMSIS/Include/core_cm7.h **** 
  55:/home/torbjorn/eclipse-workspace/CoreNG/asf/thirdparty/CMSIS/Include/core_cm7.h ****    \li Required Rule 18.4, declaration of union type or object of union type: '{...}'.<br>
  56:/home/torbjorn/eclipse-workspace/CoreNG/asf/thirdparty/CMSIS/Include/core_cm7.h ****      Unions are used for effective representation of core registers.
  57:/home/torbjorn/eclipse-workspace/CoreNG/asf/thirdparty/CMSIS/Include/core_cm7.h **** 
  58:/home/torbjorn/eclipse-workspace/CoreNG/asf/thirdparty/CMSIS/Include/core_cm7.h ****    \li Advisory Rule 19.7, Function-like macro defined.<br>
ARM GAS  /tmp/ccVHQYWs.s 			page 36


  59:/home/torbjorn/eclipse-workspace/CoreNG/asf/thirdparty/CMSIS/Include/core_cm7.h ****      Function-like macros are used to allow more efficient code.
  60:/home/torbjorn/eclipse-workspace/CoreNG/asf/thirdparty/CMSIS/Include/core_cm7.h ****  */
  61:/home/torbjorn/eclipse-workspace/CoreNG/asf/thirdparty/CMSIS/Include/core_cm7.h **** 
  62:/home/torbjorn/eclipse-workspace/CoreNG/asf/thirdparty/CMSIS/Include/core_cm7.h **** 
  63:/home/torbjorn/eclipse-workspace/CoreNG/asf/thirdparty/CMSIS/Include/core_cm7.h **** /*******************************************************************************
  64:/home/torbjorn/eclipse-workspace/CoreNG/asf/thirdparty/CMSIS/Include/core_cm7.h ****  *                 CMSIS definitions
  65:/home/torbjorn/eclipse-workspace/CoreNG/asf/thirdparty/CMSIS/Include/core_cm7.h ****  ******************************************************************************/
  66:/home/torbjorn/eclipse-workspace/CoreNG/asf/thirdparty/CMSIS/Include/core_cm7.h **** /** \ingroup Cortex_M7
  67:/home/torbjorn/eclipse-workspace/CoreNG/asf/thirdparty/CMSIS/Include/core_cm7.h ****   @{
  68:/home/torbjorn/eclipse-workspace/CoreNG/asf/thirdparty/CMSIS/Include/core_cm7.h ****  */
  69:/home/torbjorn/eclipse-workspace/CoreNG/asf/thirdparty/CMSIS/Include/core_cm7.h **** 
  70:/home/torbjorn/eclipse-workspace/CoreNG/asf/thirdparty/CMSIS/Include/core_cm7.h **** /*  CMSIS CM7 definitions */
  71:/home/torbjorn/eclipse-workspace/CoreNG/asf/thirdparty/CMSIS/Include/core_cm7.h **** #define __CM7_CMSIS_VERSION_MAIN  (0x04)                                   /*!< [31:16] CMSIS HAL m
  72:/home/torbjorn/eclipse-workspace/CoreNG/asf/thirdparty/CMSIS/Include/core_cm7.h **** #define __CM7_CMSIS_VERSION_SUB   (0x00)                                   /*!< [15:0]  CMSIS HAL s
  73:/home/torbjorn/eclipse-workspace/CoreNG/asf/thirdparty/CMSIS/Include/core_cm7.h **** #define __CM7_CMSIS_VERSION       ((__CM7_CMSIS_VERSION_MAIN << 16) | \
  74:/home/torbjorn/eclipse-workspace/CoreNG/asf/thirdparty/CMSIS/Include/core_cm7.h ****                                     __CM7_CMSIS_VERSION_SUB          )     /*!< CMSIS HAL version n
  75:/home/torbjorn/eclipse-workspace/CoreNG/asf/thirdparty/CMSIS/Include/core_cm7.h **** 
  76:/home/torbjorn/eclipse-workspace/CoreNG/asf/thirdparty/CMSIS/Include/core_cm7.h **** #define __CORTEX_M                (0x07)                                   /*!< Cortex-M Core      
  77:/home/torbjorn/eclipse-workspace/CoreNG/asf/thirdparty/CMSIS/Include/core_cm7.h **** 
  78:/home/torbjorn/eclipse-workspace/CoreNG/asf/thirdparty/CMSIS/Include/core_cm7.h **** 
  79:/home/torbjorn/eclipse-workspace/CoreNG/asf/thirdparty/CMSIS/Include/core_cm7.h **** #if   defined ( __CC_ARM )
  80:/home/torbjorn/eclipse-workspace/CoreNG/asf/thirdparty/CMSIS/Include/core_cm7.h ****   #define __ASM            __asm                                      /*!< asm keyword for ARM Comp
  81:/home/torbjorn/eclipse-workspace/CoreNG/asf/thirdparty/CMSIS/Include/core_cm7.h ****   #define __INLINE         __inline                                   /*!< inline keyword for ARM C
  82:/home/torbjorn/eclipse-workspace/CoreNG/asf/thirdparty/CMSIS/Include/core_cm7.h ****   #define __STATIC_INLINE  static __inline
  83:/home/torbjorn/eclipse-workspace/CoreNG/asf/thirdparty/CMSIS/Include/core_cm7.h **** 
  84:/home/torbjorn/eclipse-workspace/CoreNG/asf/thirdparty/CMSIS/Include/core_cm7.h **** #elif defined ( __GNUC__ )
  85:/home/torbjorn/eclipse-workspace/CoreNG/asf/thirdparty/CMSIS/Include/core_cm7.h ****   #define __ASM            __asm                                      /*!< asm keyword for GNU Comp
  86:/home/torbjorn/eclipse-workspace/CoreNG/asf/thirdparty/CMSIS/Include/core_cm7.h ****   #define __INLINE         inline                                     /*!< inline keyword for GNU C
  87:/home/torbjorn/eclipse-workspace/CoreNG/asf/thirdparty/CMSIS/Include/core_cm7.h ****   #define __STATIC_INLINE  static inline
  88:/home/torbjorn/eclipse-workspace/CoreNG/asf/thirdparty/CMSIS/Include/core_cm7.h **** 
  89:/home/torbjorn/eclipse-workspace/CoreNG/asf/thirdparty/CMSIS/Include/core_cm7.h **** #elif defined ( __ICCARM__ )
  90:/home/torbjorn/eclipse-workspace/CoreNG/asf/thirdparty/CMSIS/Include/core_cm7.h ****   #define __ASM            __asm                                      /*!< asm keyword for IAR Comp
  91:/home/torbjorn/eclipse-workspace/CoreNG/asf/thirdparty/CMSIS/Include/core_cm7.h ****   #define __INLINE         inline                                     /*!< inline keyword for IAR C
  92:/home/torbjorn/eclipse-workspace/CoreNG/asf/thirdparty/CMSIS/Include/core_cm7.h ****   #define __STATIC_INLINE  static inline
  93:/home/torbjorn/eclipse-workspace/CoreNG/asf/thirdparty/CMSIS/Include/core_cm7.h **** 
  94:/home/torbjorn/eclipse-workspace/CoreNG/asf/thirdparty/CMSIS/Include/core_cm7.h **** #elif defined ( __TMS470__ )
  95:/home/torbjorn/eclipse-workspace/CoreNG/asf/thirdparty/CMSIS/Include/core_cm7.h ****   #define __ASM            __asm                                      /*!< asm keyword for TI CCS C
  96:/home/torbjorn/eclipse-workspace/CoreNG/asf/thirdparty/CMSIS/Include/core_cm7.h ****   #define __STATIC_INLINE  static inline
  97:/home/torbjorn/eclipse-workspace/CoreNG/asf/thirdparty/CMSIS/Include/core_cm7.h **** 
  98:/home/torbjorn/eclipse-workspace/CoreNG/asf/thirdparty/CMSIS/Include/core_cm7.h **** #elif defined ( __TASKING__ )
  99:/home/torbjorn/eclipse-workspace/CoreNG/asf/thirdparty/CMSIS/Include/core_cm7.h ****   #define __ASM            __asm                                      /*!< asm keyword for TASKING 
 100:/home/torbjorn/eclipse-workspace/CoreNG/asf/thirdparty/CMSIS/Include/core_cm7.h ****   #define __INLINE         inline                                     /*!< inline keyword for TASKI
 101:/home/torbjorn/eclipse-workspace/CoreNG/asf/thirdparty/CMSIS/Include/core_cm7.h ****   #define __STATIC_INLINE  static inline
 102:/home/torbjorn/eclipse-workspace/CoreNG/asf/thirdparty/CMSIS/Include/core_cm7.h **** 
 103:/home/torbjorn/eclipse-workspace/CoreNG/asf/thirdparty/CMSIS/Include/core_cm7.h **** #elif defined ( __CSMC__ )
 104:/home/torbjorn/eclipse-workspace/CoreNG/asf/thirdparty/CMSIS/Include/core_cm7.h ****   #define __packed
 105:/home/torbjorn/eclipse-workspace/CoreNG/asf/thirdparty/CMSIS/Include/core_cm7.h ****   #define __ASM            _asm                                      /*!< asm keyword for COSMIC Co
 106:/home/torbjorn/eclipse-workspace/CoreNG/asf/thirdparty/CMSIS/Include/core_cm7.h ****   #define __INLINE         inline                                    /*use -pc99 on compile line !<
 107:/home/torbjorn/eclipse-workspace/CoreNG/asf/thirdparty/CMSIS/Include/core_cm7.h ****   #define __STATIC_INLINE  static inline
 108:/home/torbjorn/eclipse-workspace/CoreNG/asf/thirdparty/CMSIS/Include/core_cm7.h **** 
 109:/home/torbjorn/eclipse-workspace/CoreNG/asf/thirdparty/CMSIS/Include/core_cm7.h **** #endif
 110:/home/torbjorn/eclipse-workspace/CoreNG/asf/thirdparty/CMSIS/Include/core_cm7.h **** 
 111:/home/torbjorn/eclipse-workspace/CoreNG/asf/thirdparty/CMSIS/Include/core_cm7.h **** /** __FPU_USED indicates whether an FPU is used or not.
 112:/home/torbjorn/eclipse-workspace/CoreNG/asf/thirdparty/CMSIS/Include/core_cm7.h ****     For this, __FPU_PRESENT has to be checked prior to making use of FPU specific registers and fun
 113:/home/torbjorn/eclipse-workspace/CoreNG/asf/thirdparty/CMSIS/Include/core_cm7.h **** */
 114:/home/torbjorn/eclipse-workspace/CoreNG/asf/thirdparty/CMSIS/Include/core_cm7.h **** #if defined ( __CC_ARM )
 115:/home/torbjorn/eclipse-workspace/CoreNG/asf/thirdparty/CMSIS/Include/core_cm7.h ****   #if defined __TARGET_FPU_VFP
ARM GAS  /tmp/ccVHQYWs.s 			page 37


 116:/home/torbjorn/eclipse-workspace/CoreNG/asf/thirdparty/CMSIS/Include/core_cm7.h ****     #if (__FPU_PRESENT == 1)
 117:/home/torbjorn/eclipse-workspace/CoreNG/asf/thirdparty/CMSIS/Include/core_cm7.h ****       #define __FPU_USED       1
 118:/home/torbjorn/eclipse-workspace/CoreNG/asf/thirdparty/CMSIS/Include/core_cm7.h ****     #else
 119:/home/torbjorn/eclipse-workspace/CoreNG/asf/thirdparty/CMSIS/Include/core_cm7.h ****       #warning "Compiler generates FPU instructions for a device without an FPU (check __FPU_PRESEN
 120:/home/torbjorn/eclipse-workspace/CoreNG/asf/thirdparty/CMSIS/Include/core_cm7.h ****       #define __FPU_USED       0
 121:/home/torbjorn/eclipse-workspace/CoreNG/asf/thirdparty/CMSIS/Include/core_cm7.h ****     #endif
 122:/home/torbjorn/eclipse-workspace/CoreNG/asf/thirdparty/CMSIS/Include/core_cm7.h ****   #else
 123:/home/torbjorn/eclipse-workspace/CoreNG/asf/thirdparty/CMSIS/Include/core_cm7.h ****     #define __FPU_USED         0
 124:/home/torbjorn/eclipse-workspace/CoreNG/asf/thirdparty/CMSIS/Include/core_cm7.h ****   #endif
 125:/home/torbjorn/eclipse-workspace/CoreNG/asf/thirdparty/CMSIS/Include/core_cm7.h **** 
 126:/home/torbjorn/eclipse-workspace/CoreNG/asf/thirdparty/CMSIS/Include/core_cm7.h **** #elif defined ( __GNUC__ )
 127:/home/torbjorn/eclipse-workspace/CoreNG/asf/thirdparty/CMSIS/Include/core_cm7.h ****   #if defined (__VFP_FP__) && !defined(__SOFTFP__)
 128:/home/torbjorn/eclipse-workspace/CoreNG/asf/thirdparty/CMSIS/Include/core_cm7.h ****     #if (__FPU_PRESENT == 1)
 129:/home/torbjorn/eclipse-workspace/CoreNG/asf/thirdparty/CMSIS/Include/core_cm7.h ****       #define __FPU_USED       1
 130:/home/torbjorn/eclipse-workspace/CoreNG/asf/thirdparty/CMSIS/Include/core_cm7.h ****     #else
 131:/home/torbjorn/eclipse-workspace/CoreNG/asf/thirdparty/CMSIS/Include/core_cm7.h ****       #warning "Compiler generates FPU instructions for a device without an FPU (check __FPU_PRESEN
 132:/home/torbjorn/eclipse-workspace/CoreNG/asf/thirdparty/CMSIS/Include/core_cm7.h ****       #define __FPU_USED       0
 133:/home/torbjorn/eclipse-workspace/CoreNG/asf/thirdparty/CMSIS/Include/core_cm7.h ****     #endif
 134:/home/torbjorn/eclipse-workspace/CoreNG/asf/thirdparty/CMSIS/Include/core_cm7.h ****   #else
 135:/home/torbjorn/eclipse-workspace/CoreNG/asf/thirdparty/CMSIS/Include/core_cm7.h ****     #define __FPU_USED         0
 136:/home/torbjorn/eclipse-workspace/CoreNG/asf/thirdparty/CMSIS/Include/core_cm7.h ****   #endif
 137:/home/torbjorn/eclipse-workspace/CoreNG/asf/thirdparty/CMSIS/Include/core_cm7.h **** 
 138:/home/torbjorn/eclipse-workspace/CoreNG/asf/thirdparty/CMSIS/Include/core_cm7.h **** #elif defined ( __ICCARM__ )
 139:/home/torbjorn/eclipse-workspace/CoreNG/asf/thirdparty/CMSIS/Include/core_cm7.h ****   #if defined __ARMVFP__
 140:/home/torbjorn/eclipse-workspace/CoreNG/asf/thirdparty/CMSIS/Include/core_cm7.h ****     #if (__FPU_PRESENT == 1)
 141:/home/torbjorn/eclipse-workspace/CoreNG/asf/thirdparty/CMSIS/Include/core_cm7.h ****       #define __FPU_USED       1
 142:/home/torbjorn/eclipse-workspace/CoreNG/asf/thirdparty/CMSIS/Include/core_cm7.h ****     #else
 143:/home/torbjorn/eclipse-workspace/CoreNG/asf/thirdparty/CMSIS/Include/core_cm7.h ****       #warning "Compiler generates FPU instructions for a device without an FPU (check __FPU_PRESEN
 144:/home/torbjorn/eclipse-workspace/CoreNG/asf/thirdparty/CMSIS/Include/core_cm7.h ****       #define __FPU_USED       0
 145:/home/torbjorn/eclipse-workspace/CoreNG/asf/thirdparty/CMSIS/Include/core_cm7.h ****     #endif
 146:/home/torbjorn/eclipse-workspace/CoreNG/asf/thirdparty/CMSIS/Include/core_cm7.h ****   #else
 147:/home/torbjorn/eclipse-workspace/CoreNG/asf/thirdparty/CMSIS/Include/core_cm7.h ****     #define __FPU_USED         0
 148:/home/torbjorn/eclipse-workspace/CoreNG/asf/thirdparty/CMSIS/Include/core_cm7.h ****   #endif
 149:/home/torbjorn/eclipse-workspace/CoreNG/asf/thirdparty/CMSIS/Include/core_cm7.h **** 
 150:/home/torbjorn/eclipse-workspace/CoreNG/asf/thirdparty/CMSIS/Include/core_cm7.h **** #elif defined ( __TMS470__ )
 151:/home/torbjorn/eclipse-workspace/CoreNG/asf/thirdparty/CMSIS/Include/core_cm7.h ****   #if defined __TI_VFP_SUPPORT__
 152:/home/torbjorn/eclipse-workspace/CoreNG/asf/thirdparty/CMSIS/Include/core_cm7.h ****     #if (__FPU_PRESENT == 1)
 153:/home/torbjorn/eclipse-workspace/CoreNG/asf/thirdparty/CMSIS/Include/core_cm7.h ****       #define __FPU_USED       1
 154:/home/torbjorn/eclipse-workspace/CoreNG/asf/thirdparty/CMSIS/Include/core_cm7.h ****     #else
 155:/home/torbjorn/eclipse-workspace/CoreNG/asf/thirdparty/CMSIS/Include/core_cm7.h ****       #warning "Compiler generates FPU instructions for a device without an FPU (check __FPU_PRESEN
 156:/home/torbjorn/eclipse-workspace/CoreNG/asf/thirdparty/CMSIS/Include/core_cm7.h ****       #define __FPU_USED       0
 157:/home/torbjorn/eclipse-workspace/CoreNG/asf/thirdparty/CMSIS/Include/core_cm7.h ****     #endif
 158:/home/torbjorn/eclipse-workspace/CoreNG/asf/thirdparty/CMSIS/Include/core_cm7.h ****   #else
 159:/home/torbjorn/eclipse-workspace/CoreNG/asf/thirdparty/CMSIS/Include/core_cm7.h ****     #define __FPU_USED         0
 160:/home/torbjorn/eclipse-workspace/CoreNG/asf/thirdparty/CMSIS/Include/core_cm7.h ****   #endif
 161:/home/torbjorn/eclipse-workspace/CoreNG/asf/thirdparty/CMSIS/Include/core_cm7.h **** 
 162:/home/torbjorn/eclipse-workspace/CoreNG/asf/thirdparty/CMSIS/Include/core_cm7.h **** #elif defined ( __TASKING__ )
 163:/home/torbjorn/eclipse-workspace/CoreNG/asf/thirdparty/CMSIS/Include/core_cm7.h ****   #if defined __FPU_VFP__
 164:/home/torbjorn/eclipse-workspace/CoreNG/asf/thirdparty/CMSIS/Include/core_cm7.h ****     #if (__FPU_PRESENT == 1)
 165:/home/torbjorn/eclipse-workspace/CoreNG/asf/thirdparty/CMSIS/Include/core_cm7.h ****       #define __FPU_USED       1
 166:/home/torbjorn/eclipse-workspace/CoreNG/asf/thirdparty/CMSIS/Include/core_cm7.h ****     #else
 167:/home/torbjorn/eclipse-workspace/CoreNG/asf/thirdparty/CMSIS/Include/core_cm7.h ****       #error "Compiler generates FPU instructions for a device without an FPU (check __FPU_PRESENT)
 168:/home/torbjorn/eclipse-workspace/CoreNG/asf/thirdparty/CMSIS/Include/core_cm7.h ****       #define __FPU_USED       0
 169:/home/torbjorn/eclipse-workspace/CoreNG/asf/thirdparty/CMSIS/Include/core_cm7.h ****     #endif
 170:/home/torbjorn/eclipse-workspace/CoreNG/asf/thirdparty/CMSIS/Include/core_cm7.h ****   #else
 171:/home/torbjorn/eclipse-workspace/CoreNG/asf/thirdparty/CMSIS/Include/core_cm7.h ****     #define __FPU_USED         0
 172:/home/torbjorn/eclipse-workspace/CoreNG/asf/thirdparty/CMSIS/Include/core_cm7.h ****   #endif
ARM GAS  /tmp/ccVHQYWs.s 			page 38


 173:/home/torbjorn/eclipse-workspace/CoreNG/asf/thirdparty/CMSIS/Include/core_cm7.h **** 
 174:/home/torbjorn/eclipse-workspace/CoreNG/asf/thirdparty/CMSIS/Include/core_cm7.h **** #elif defined ( __CSMC__ )		/* Cosmic */
 175:/home/torbjorn/eclipse-workspace/CoreNG/asf/thirdparty/CMSIS/Include/core_cm7.h ****   #if ( __CSMC__ & 0x400)		// FPU present for parser
 176:/home/torbjorn/eclipse-workspace/CoreNG/asf/thirdparty/CMSIS/Include/core_cm7.h ****     #if (__FPU_PRESENT == 1)
 177:/home/torbjorn/eclipse-workspace/CoreNG/asf/thirdparty/CMSIS/Include/core_cm7.h ****       #define __FPU_USED       1
 178:/home/torbjorn/eclipse-workspace/CoreNG/asf/thirdparty/CMSIS/Include/core_cm7.h ****     #else
 179:/home/torbjorn/eclipse-workspace/CoreNG/asf/thirdparty/CMSIS/Include/core_cm7.h ****       #error "Compiler generates FPU instructions for a device without an FPU (check __FPU_PRESENT)
 180:/home/torbjorn/eclipse-workspace/CoreNG/asf/thirdparty/CMSIS/Include/core_cm7.h ****       #define __FPU_USED       0
 181:/home/torbjorn/eclipse-workspace/CoreNG/asf/thirdparty/CMSIS/Include/core_cm7.h ****     #endif
 182:/home/torbjorn/eclipse-workspace/CoreNG/asf/thirdparty/CMSIS/Include/core_cm7.h ****   #else
 183:/home/torbjorn/eclipse-workspace/CoreNG/asf/thirdparty/CMSIS/Include/core_cm7.h ****     #define __FPU_USED         0
 184:/home/torbjorn/eclipse-workspace/CoreNG/asf/thirdparty/CMSIS/Include/core_cm7.h ****   #endif
 185:/home/torbjorn/eclipse-workspace/CoreNG/asf/thirdparty/CMSIS/Include/core_cm7.h **** #endif
 186:/home/torbjorn/eclipse-workspace/CoreNG/asf/thirdparty/CMSIS/Include/core_cm7.h **** 
 187:/home/torbjorn/eclipse-workspace/CoreNG/asf/thirdparty/CMSIS/Include/core_cm7.h **** #include <stdint.h>                      /* standard types definitions                      */
 188:/home/torbjorn/eclipse-workspace/CoreNG/asf/thirdparty/CMSIS/Include/core_cm7.h **** #include <core_cmInstr.h>                /* Core Instruction Access                         */
 189:/home/torbjorn/eclipse-workspace/CoreNG/asf/thirdparty/CMSIS/Include/core_cm7.h **** #include <core_cmFunc.h>                 /* Core Function Access                            */
 190:/home/torbjorn/eclipse-workspace/CoreNG/asf/thirdparty/CMSIS/Include/core_cm7.h **** #include <core_cmSimd.h>                 /* Compiler specific SIMD Intrinsics               */
 191:/home/torbjorn/eclipse-workspace/CoreNG/asf/thirdparty/CMSIS/Include/core_cm7.h **** 
 192:/home/torbjorn/eclipse-workspace/CoreNG/asf/thirdparty/CMSIS/Include/core_cm7.h **** #ifdef __cplusplus
 193:/home/torbjorn/eclipse-workspace/CoreNG/asf/thirdparty/CMSIS/Include/core_cm7.h **** }
 194:/home/torbjorn/eclipse-workspace/CoreNG/asf/thirdparty/CMSIS/Include/core_cm7.h **** #endif
 195:/home/torbjorn/eclipse-workspace/CoreNG/asf/thirdparty/CMSIS/Include/core_cm7.h **** 
 196:/home/torbjorn/eclipse-workspace/CoreNG/asf/thirdparty/CMSIS/Include/core_cm7.h **** #endif /* __CORE_CM7_H_GENERIC */
 197:/home/torbjorn/eclipse-workspace/CoreNG/asf/thirdparty/CMSIS/Include/core_cm7.h **** 
 198:/home/torbjorn/eclipse-workspace/CoreNG/asf/thirdparty/CMSIS/Include/core_cm7.h **** #ifndef __CMSIS_GENERIC
 199:/home/torbjorn/eclipse-workspace/CoreNG/asf/thirdparty/CMSIS/Include/core_cm7.h **** 
 200:/home/torbjorn/eclipse-workspace/CoreNG/asf/thirdparty/CMSIS/Include/core_cm7.h **** #ifndef __CORE_CM7_H_DEPENDANT
 201:/home/torbjorn/eclipse-workspace/CoreNG/asf/thirdparty/CMSIS/Include/core_cm7.h **** #define __CORE_CM7_H_DEPENDANT
 202:/home/torbjorn/eclipse-workspace/CoreNG/asf/thirdparty/CMSIS/Include/core_cm7.h **** 
 203:/home/torbjorn/eclipse-workspace/CoreNG/asf/thirdparty/CMSIS/Include/core_cm7.h **** #ifdef __cplusplus
 204:/home/torbjorn/eclipse-workspace/CoreNG/asf/thirdparty/CMSIS/Include/core_cm7.h ****  extern "C" {
 205:/home/torbjorn/eclipse-workspace/CoreNG/asf/thirdparty/CMSIS/Include/core_cm7.h **** #endif
 206:/home/torbjorn/eclipse-workspace/CoreNG/asf/thirdparty/CMSIS/Include/core_cm7.h **** 
 207:/home/torbjorn/eclipse-workspace/CoreNG/asf/thirdparty/CMSIS/Include/core_cm7.h **** /* check device defines and use defaults */
 208:/home/torbjorn/eclipse-workspace/CoreNG/asf/thirdparty/CMSIS/Include/core_cm7.h **** #if defined __CHECK_DEVICE_DEFINES
 209:/home/torbjorn/eclipse-workspace/CoreNG/asf/thirdparty/CMSIS/Include/core_cm7.h ****   #ifndef __CM7_REV
 210:/home/torbjorn/eclipse-workspace/CoreNG/asf/thirdparty/CMSIS/Include/core_cm7.h ****     #define __CM7_REV               0x0000
 211:/home/torbjorn/eclipse-workspace/CoreNG/asf/thirdparty/CMSIS/Include/core_cm7.h ****     #warning "__CM7_REV not defined in device header file; using default!"
 212:/home/torbjorn/eclipse-workspace/CoreNG/asf/thirdparty/CMSIS/Include/core_cm7.h ****   #endif
 213:/home/torbjorn/eclipse-workspace/CoreNG/asf/thirdparty/CMSIS/Include/core_cm7.h **** 
 214:/home/torbjorn/eclipse-workspace/CoreNG/asf/thirdparty/CMSIS/Include/core_cm7.h ****   #ifndef __FPU_PRESENT
 215:/home/torbjorn/eclipse-workspace/CoreNG/asf/thirdparty/CMSIS/Include/core_cm7.h ****     #define __FPU_PRESENT             0
 216:/home/torbjorn/eclipse-workspace/CoreNG/asf/thirdparty/CMSIS/Include/core_cm7.h ****     #warning "__FPU_PRESENT not defined in device header file; using default!"
 217:/home/torbjorn/eclipse-workspace/CoreNG/asf/thirdparty/CMSIS/Include/core_cm7.h ****   #endif
 218:/home/torbjorn/eclipse-workspace/CoreNG/asf/thirdparty/CMSIS/Include/core_cm7.h **** 
 219:/home/torbjorn/eclipse-workspace/CoreNG/asf/thirdparty/CMSIS/Include/core_cm7.h ****   #ifndef __MPU_PRESENT
 220:/home/torbjorn/eclipse-workspace/CoreNG/asf/thirdparty/CMSIS/Include/core_cm7.h ****     #define __MPU_PRESENT             0
 221:/home/torbjorn/eclipse-workspace/CoreNG/asf/thirdparty/CMSIS/Include/core_cm7.h ****     #warning "__MPU_PRESENT not defined in device header file; using default!"
 222:/home/torbjorn/eclipse-workspace/CoreNG/asf/thirdparty/CMSIS/Include/core_cm7.h ****   #endif
 223:/home/torbjorn/eclipse-workspace/CoreNG/asf/thirdparty/CMSIS/Include/core_cm7.h **** 
 224:/home/torbjorn/eclipse-workspace/CoreNG/asf/thirdparty/CMSIS/Include/core_cm7.h ****   #ifndef __ICACHE_PRESENT
 225:/home/torbjorn/eclipse-workspace/CoreNG/asf/thirdparty/CMSIS/Include/core_cm7.h ****     #define __ICACHE_PRESENT          0
 226:/home/torbjorn/eclipse-workspace/CoreNG/asf/thirdparty/CMSIS/Include/core_cm7.h ****     #warning "__ICACHE_PRESENT not defined in device header file; using default!"
 227:/home/torbjorn/eclipse-workspace/CoreNG/asf/thirdparty/CMSIS/Include/core_cm7.h ****   #endif
 228:/home/torbjorn/eclipse-workspace/CoreNG/asf/thirdparty/CMSIS/Include/core_cm7.h **** 
 229:/home/torbjorn/eclipse-workspace/CoreNG/asf/thirdparty/CMSIS/Include/core_cm7.h ****   #ifndef __DCACHE_PRESENT
ARM GAS  /tmp/ccVHQYWs.s 			page 39


 230:/home/torbjorn/eclipse-workspace/CoreNG/asf/thirdparty/CMSIS/Include/core_cm7.h ****     #define __DCACHE_PRESENT          0
 231:/home/torbjorn/eclipse-workspace/CoreNG/asf/thirdparty/CMSIS/Include/core_cm7.h ****     #warning "__DCACHE_PRESENT not defined in device header file; using default!"
 232:/home/torbjorn/eclipse-workspace/CoreNG/asf/thirdparty/CMSIS/Include/core_cm7.h ****   #endif
 233:/home/torbjorn/eclipse-workspace/CoreNG/asf/thirdparty/CMSIS/Include/core_cm7.h **** 
 234:/home/torbjorn/eclipse-workspace/CoreNG/asf/thirdparty/CMSIS/Include/core_cm7.h ****   #ifndef __DTCM_PRESENT
 235:/home/torbjorn/eclipse-workspace/CoreNG/asf/thirdparty/CMSIS/Include/core_cm7.h ****     #define __DTCM_PRESENT            0
 236:/home/torbjorn/eclipse-workspace/CoreNG/asf/thirdparty/CMSIS/Include/core_cm7.h ****     #warning "__DTCM_PRESENT        not defined in device header file; using default!"
 237:/home/torbjorn/eclipse-workspace/CoreNG/asf/thirdparty/CMSIS/Include/core_cm7.h ****   #endif
 238:/home/torbjorn/eclipse-workspace/CoreNG/asf/thirdparty/CMSIS/Include/core_cm7.h **** 
 239:/home/torbjorn/eclipse-workspace/CoreNG/asf/thirdparty/CMSIS/Include/core_cm7.h ****   #ifndef __NVIC_PRIO_BITS
 240:/home/torbjorn/eclipse-workspace/CoreNG/asf/thirdparty/CMSIS/Include/core_cm7.h ****     #define __NVIC_PRIO_BITS          3
 241:/home/torbjorn/eclipse-workspace/CoreNG/asf/thirdparty/CMSIS/Include/core_cm7.h ****     #warning "__NVIC_PRIO_BITS not defined in device header file; using default!"
 242:/home/torbjorn/eclipse-workspace/CoreNG/asf/thirdparty/CMSIS/Include/core_cm7.h ****   #endif
 243:/home/torbjorn/eclipse-workspace/CoreNG/asf/thirdparty/CMSIS/Include/core_cm7.h **** 
 244:/home/torbjorn/eclipse-workspace/CoreNG/asf/thirdparty/CMSIS/Include/core_cm7.h ****   #ifndef __Vendor_SysTickConfig
 245:/home/torbjorn/eclipse-workspace/CoreNG/asf/thirdparty/CMSIS/Include/core_cm7.h ****     #define __Vendor_SysTickConfig    0
 246:/home/torbjorn/eclipse-workspace/CoreNG/asf/thirdparty/CMSIS/Include/core_cm7.h ****     #warning "__Vendor_SysTickConfig not defined in device header file; using default!"
 247:/home/torbjorn/eclipse-workspace/CoreNG/asf/thirdparty/CMSIS/Include/core_cm7.h ****   #endif
 248:/home/torbjorn/eclipse-workspace/CoreNG/asf/thirdparty/CMSIS/Include/core_cm7.h **** #endif
 249:/home/torbjorn/eclipse-workspace/CoreNG/asf/thirdparty/CMSIS/Include/core_cm7.h **** 
 250:/home/torbjorn/eclipse-workspace/CoreNG/asf/thirdparty/CMSIS/Include/core_cm7.h **** /* IO definitions (access restrictions to peripheral registers) */
 251:/home/torbjorn/eclipse-workspace/CoreNG/asf/thirdparty/CMSIS/Include/core_cm7.h **** /**
 252:/home/torbjorn/eclipse-workspace/CoreNG/asf/thirdparty/CMSIS/Include/core_cm7.h ****     \defgroup CMSIS_glob_defs CMSIS Global Defines
 253:/home/torbjorn/eclipse-workspace/CoreNG/asf/thirdparty/CMSIS/Include/core_cm7.h **** 
 254:/home/torbjorn/eclipse-workspace/CoreNG/asf/thirdparty/CMSIS/Include/core_cm7.h ****     <strong>IO Type Qualifiers</strong> are used
 255:/home/torbjorn/eclipse-workspace/CoreNG/asf/thirdparty/CMSIS/Include/core_cm7.h ****     \li to specify the access to peripheral variables.
 256:/home/torbjorn/eclipse-workspace/CoreNG/asf/thirdparty/CMSIS/Include/core_cm7.h ****     \li for automatic generation of peripheral register debug information.
 257:/home/torbjorn/eclipse-workspace/CoreNG/asf/thirdparty/CMSIS/Include/core_cm7.h **** */
 258:/home/torbjorn/eclipse-workspace/CoreNG/asf/thirdparty/CMSIS/Include/core_cm7.h **** #ifdef __cplusplus
 259:/home/torbjorn/eclipse-workspace/CoreNG/asf/thirdparty/CMSIS/Include/core_cm7.h ****   #define   __I     volatile             /*!< Defines 'read only' permissions                 */
 260:/home/torbjorn/eclipse-workspace/CoreNG/asf/thirdparty/CMSIS/Include/core_cm7.h **** #else
 261:/home/torbjorn/eclipse-workspace/CoreNG/asf/thirdparty/CMSIS/Include/core_cm7.h ****   #define   __I     volatile const       /*!< Defines 'read only' permissions                 */
 262:/home/torbjorn/eclipse-workspace/CoreNG/asf/thirdparty/CMSIS/Include/core_cm7.h **** #endif
 263:/home/torbjorn/eclipse-workspace/CoreNG/asf/thirdparty/CMSIS/Include/core_cm7.h **** #define     __O     volatile             /*!< Defines 'write only' permissions                */
 264:/home/torbjorn/eclipse-workspace/CoreNG/asf/thirdparty/CMSIS/Include/core_cm7.h **** #define     __IO    volatile             /*!< Defines 'read / write' permissions              */
 265:/home/torbjorn/eclipse-workspace/CoreNG/asf/thirdparty/CMSIS/Include/core_cm7.h **** 
 266:/home/torbjorn/eclipse-workspace/CoreNG/asf/thirdparty/CMSIS/Include/core_cm7.h **** /*@} end of group Cortex_M7 */
 267:/home/torbjorn/eclipse-workspace/CoreNG/asf/thirdparty/CMSIS/Include/core_cm7.h **** 
 268:/home/torbjorn/eclipse-workspace/CoreNG/asf/thirdparty/CMSIS/Include/core_cm7.h **** 
 269:/home/torbjorn/eclipse-workspace/CoreNG/asf/thirdparty/CMSIS/Include/core_cm7.h **** 
 270:/home/torbjorn/eclipse-workspace/CoreNG/asf/thirdparty/CMSIS/Include/core_cm7.h **** /*******************************************************************************
 271:/home/torbjorn/eclipse-workspace/CoreNG/asf/thirdparty/CMSIS/Include/core_cm7.h ****  *                 Register Abstraction
 272:/home/torbjorn/eclipse-workspace/CoreNG/asf/thirdparty/CMSIS/Include/core_cm7.h ****   Core Register contain:
 273:/home/torbjorn/eclipse-workspace/CoreNG/asf/thirdparty/CMSIS/Include/core_cm7.h ****   - Core Register
 274:/home/torbjorn/eclipse-workspace/CoreNG/asf/thirdparty/CMSIS/Include/core_cm7.h ****   - Core NVIC Register
 275:/home/torbjorn/eclipse-workspace/CoreNG/asf/thirdparty/CMSIS/Include/core_cm7.h ****   - Core SCB Register
 276:/home/torbjorn/eclipse-workspace/CoreNG/asf/thirdparty/CMSIS/Include/core_cm7.h ****   - Core SysTick Register
 277:/home/torbjorn/eclipse-workspace/CoreNG/asf/thirdparty/CMSIS/Include/core_cm7.h ****   - Core Debug Register
 278:/home/torbjorn/eclipse-workspace/CoreNG/asf/thirdparty/CMSIS/Include/core_cm7.h ****   - Core MPU Register
 279:/home/torbjorn/eclipse-workspace/CoreNG/asf/thirdparty/CMSIS/Include/core_cm7.h ****   - Core FPU Register
 280:/home/torbjorn/eclipse-workspace/CoreNG/asf/thirdparty/CMSIS/Include/core_cm7.h ****  ******************************************************************************/
 281:/home/torbjorn/eclipse-workspace/CoreNG/asf/thirdparty/CMSIS/Include/core_cm7.h **** /** \defgroup CMSIS_core_register Defines and Type Definitions
 282:/home/torbjorn/eclipse-workspace/CoreNG/asf/thirdparty/CMSIS/Include/core_cm7.h ****     \brief Type definitions and defines for Cortex-M processor based devices.
 283:/home/torbjorn/eclipse-workspace/CoreNG/asf/thirdparty/CMSIS/Include/core_cm7.h **** */
 284:/home/torbjorn/eclipse-workspace/CoreNG/asf/thirdparty/CMSIS/Include/core_cm7.h **** 
 285:/home/torbjorn/eclipse-workspace/CoreNG/asf/thirdparty/CMSIS/Include/core_cm7.h **** /** \ingroup    CMSIS_core_register
 286:/home/torbjorn/eclipse-workspace/CoreNG/asf/thirdparty/CMSIS/Include/core_cm7.h ****     \defgroup   CMSIS_CORE  Status and Control Registers
ARM GAS  /tmp/ccVHQYWs.s 			page 40


 287:/home/torbjorn/eclipse-workspace/CoreNG/asf/thirdparty/CMSIS/Include/core_cm7.h ****     \brief  Core Register type definitions.
 288:/home/torbjorn/eclipse-workspace/CoreNG/asf/thirdparty/CMSIS/Include/core_cm7.h ****   @{
 289:/home/torbjorn/eclipse-workspace/CoreNG/asf/thirdparty/CMSIS/Include/core_cm7.h ****  */
 290:/home/torbjorn/eclipse-workspace/CoreNG/asf/thirdparty/CMSIS/Include/core_cm7.h **** 
 291:/home/torbjorn/eclipse-workspace/CoreNG/asf/thirdparty/CMSIS/Include/core_cm7.h **** /** \brief  Union type to access the Application Program Status Register (APSR).
 292:/home/torbjorn/eclipse-workspace/CoreNG/asf/thirdparty/CMSIS/Include/core_cm7.h ****  */
 293:/home/torbjorn/eclipse-workspace/CoreNG/asf/thirdparty/CMSIS/Include/core_cm7.h **** typedef union
 294:/home/torbjorn/eclipse-workspace/CoreNG/asf/thirdparty/CMSIS/Include/core_cm7.h **** {
 295:/home/torbjorn/eclipse-workspace/CoreNG/asf/thirdparty/CMSIS/Include/core_cm7.h ****   struct
 296:/home/torbjorn/eclipse-workspace/CoreNG/asf/thirdparty/CMSIS/Include/core_cm7.h ****   {
 297:/home/torbjorn/eclipse-workspace/CoreNG/asf/thirdparty/CMSIS/Include/core_cm7.h **** #if (__CORTEX_M != 0x07)
 298:/home/torbjorn/eclipse-workspace/CoreNG/asf/thirdparty/CMSIS/Include/core_cm7.h ****     uint32_t _reserved0:27;              /*!< bit:  0..26  Reserved                           */
 299:/home/torbjorn/eclipse-workspace/CoreNG/asf/thirdparty/CMSIS/Include/core_cm7.h **** #else
 300:/home/torbjorn/eclipse-workspace/CoreNG/asf/thirdparty/CMSIS/Include/core_cm7.h ****     uint32_t _reserved0:16;              /*!< bit:  0..15  Reserved                           */
 301:/home/torbjorn/eclipse-workspace/CoreNG/asf/thirdparty/CMSIS/Include/core_cm7.h ****     uint32_t GE:4;                       /*!< bit: 16..19  Greater than or Equal flags        */
 302:/home/torbjorn/eclipse-workspace/CoreNG/asf/thirdparty/CMSIS/Include/core_cm7.h ****     uint32_t _reserved1:7;               /*!< bit: 20..26  Reserved                           */
 303:/home/torbjorn/eclipse-workspace/CoreNG/asf/thirdparty/CMSIS/Include/core_cm7.h **** #endif
 304:/home/torbjorn/eclipse-workspace/CoreNG/asf/thirdparty/CMSIS/Include/core_cm7.h ****     uint32_t Q:1;                        /*!< bit:     27  Saturation condition flag          */
 305:/home/torbjorn/eclipse-workspace/CoreNG/asf/thirdparty/CMSIS/Include/core_cm7.h ****     uint32_t V:1;                        /*!< bit:     28  Overflow condition code flag       */
 306:/home/torbjorn/eclipse-workspace/CoreNG/asf/thirdparty/CMSIS/Include/core_cm7.h ****     uint32_t C:1;                        /*!< bit:     29  Carry condition code flag          */
 307:/home/torbjorn/eclipse-workspace/CoreNG/asf/thirdparty/CMSIS/Include/core_cm7.h ****     uint32_t Z:1;                        /*!< bit:     30  Zero condition code flag           */
 308:/home/torbjorn/eclipse-workspace/CoreNG/asf/thirdparty/CMSIS/Include/core_cm7.h ****     uint32_t N:1;                        /*!< bit:     31  Negative condition code flag       */
 309:/home/torbjorn/eclipse-workspace/CoreNG/asf/thirdparty/CMSIS/Include/core_cm7.h ****   } b;                                   /*!< Structure used for bit  access                  */
 310:/home/torbjorn/eclipse-workspace/CoreNG/asf/thirdparty/CMSIS/Include/core_cm7.h ****   uint32_t w;                            /*!< Type      used for word access                  */
 311:/home/torbjorn/eclipse-workspace/CoreNG/asf/thirdparty/CMSIS/Include/core_cm7.h **** } APSR_Type;
 312:/home/torbjorn/eclipse-workspace/CoreNG/asf/thirdparty/CMSIS/Include/core_cm7.h **** 
 313:/home/torbjorn/eclipse-workspace/CoreNG/asf/thirdparty/CMSIS/Include/core_cm7.h **** 
 314:/home/torbjorn/eclipse-workspace/CoreNG/asf/thirdparty/CMSIS/Include/core_cm7.h **** /** \brief  Union type to access the Interrupt Program Status Register (IPSR).
 315:/home/torbjorn/eclipse-workspace/CoreNG/asf/thirdparty/CMSIS/Include/core_cm7.h ****  */
 316:/home/torbjorn/eclipse-workspace/CoreNG/asf/thirdparty/CMSIS/Include/core_cm7.h **** typedef union
 317:/home/torbjorn/eclipse-workspace/CoreNG/asf/thirdparty/CMSIS/Include/core_cm7.h **** {
 318:/home/torbjorn/eclipse-workspace/CoreNG/asf/thirdparty/CMSIS/Include/core_cm7.h ****   struct
 319:/home/torbjorn/eclipse-workspace/CoreNG/asf/thirdparty/CMSIS/Include/core_cm7.h ****   {
 320:/home/torbjorn/eclipse-workspace/CoreNG/asf/thirdparty/CMSIS/Include/core_cm7.h ****     uint32_t ISR:9;                      /*!< bit:  0.. 8  Exception number                   */
 321:/home/torbjorn/eclipse-workspace/CoreNG/asf/thirdparty/CMSIS/Include/core_cm7.h ****     uint32_t _reserved0:23;              /*!< bit:  9..31  Reserved                           */
 322:/home/torbjorn/eclipse-workspace/CoreNG/asf/thirdparty/CMSIS/Include/core_cm7.h ****   } b;                                   /*!< Structure used for bit  access                  */
 323:/home/torbjorn/eclipse-workspace/CoreNG/asf/thirdparty/CMSIS/Include/core_cm7.h ****   uint32_t w;                            /*!< Type      used for word access                  */
 324:/home/torbjorn/eclipse-workspace/CoreNG/asf/thirdparty/CMSIS/Include/core_cm7.h **** } IPSR_Type;
 325:/home/torbjorn/eclipse-workspace/CoreNG/asf/thirdparty/CMSIS/Include/core_cm7.h **** 
 326:/home/torbjorn/eclipse-workspace/CoreNG/asf/thirdparty/CMSIS/Include/core_cm7.h **** 
 327:/home/torbjorn/eclipse-workspace/CoreNG/asf/thirdparty/CMSIS/Include/core_cm7.h **** /** \brief  Union type to access the Special-Purpose Program Status Registers (xPSR).
 328:/home/torbjorn/eclipse-workspace/CoreNG/asf/thirdparty/CMSIS/Include/core_cm7.h ****  */
 329:/home/torbjorn/eclipse-workspace/CoreNG/asf/thirdparty/CMSIS/Include/core_cm7.h **** typedef union
 330:/home/torbjorn/eclipse-workspace/CoreNG/asf/thirdparty/CMSIS/Include/core_cm7.h **** {
 331:/home/torbjorn/eclipse-workspace/CoreNG/asf/thirdparty/CMSIS/Include/core_cm7.h ****   struct
 332:/home/torbjorn/eclipse-workspace/CoreNG/asf/thirdparty/CMSIS/Include/core_cm7.h ****   {
 333:/home/torbjorn/eclipse-workspace/CoreNG/asf/thirdparty/CMSIS/Include/core_cm7.h ****     uint32_t ISR:9;                      /*!< bit:  0.. 8  Exception number                   */
 334:/home/torbjorn/eclipse-workspace/CoreNG/asf/thirdparty/CMSIS/Include/core_cm7.h **** #if (__CORTEX_M != 0x07)
 335:/home/torbjorn/eclipse-workspace/CoreNG/asf/thirdparty/CMSIS/Include/core_cm7.h ****     uint32_t _reserved0:15;              /*!< bit:  9..23  Reserved                           */
 336:/home/torbjorn/eclipse-workspace/CoreNG/asf/thirdparty/CMSIS/Include/core_cm7.h **** #else
 337:/home/torbjorn/eclipse-workspace/CoreNG/asf/thirdparty/CMSIS/Include/core_cm7.h ****     uint32_t _reserved0:7;               /*!< bit:  9..15  Reserved                           */
 338:/home/torbjorn/eclipse-workspace/CoreNG/asf/thirdparty/CMSIS/Include/core_cm7.h ****     uint32_t GE:4;                       /*!< bit: 16..19  Greater than or Equal flags        */
 339:/home/torbjorn/eclipse-workspace/CoreNG/asf/thirdparty/CMSIS/Include/core_cm7.h ****     uint32_t _reserved1:4;               /*!< bit: 20..23  Reserved                           */
 340:/home/torbjorn/eclipse-workspace/CoreNG/asf/thirdparty/CMSIS/Include/core_cm7.h **** #endif
 341:/home/torbjorn/eclipse-workspace/CoreNG/asf/thirdparty/CMSIS/Include/core_cm7.h ****     uint32_t T:1;                        /*!< bit:     24  Thumb bit        (read 0)          */
 342:/home/torbjorn/eclipse-workspace/CoreNG/asf/thirdparty/CMSIS/Include/core_cm7.h ****     uint32_t IT:2;                       /*!< bit: 25..26  saved IT state   (read 0)          */
 343:/home/torbjorn/eclipse-workspace/CoreNG/asf/thirdparty/CMSIS/Include/core_cm7.h ****     uint32_t Q:1;                        /*!< bit:     27  Saturation condition flag          */
ARM GAS  /tmp/ccVHQYWs.s 			page 41


 344:/home/torbjorn/eclipse-workspace/CoreNG/asf/thirdparty/CMSIS/Include/core_cm7.h ****     uint32_t V:1;                        /*!< bit:     28  Overflow condition code flag       */
 345:/home/torbjorn/eclipse-workspace/CoreNG/asf/thirdparty/CMSIS/Include/core_cm7.h ****     uint32_t C:1;                        /*!< bit:     29  Carry condition code flag          */
 346:/home/torbjorn/eclipse-workspace/CoreNG/asf/thirdparty/CMSIS/Include/core_cm7.h ****     uint32_t Z:1;                        /*!< bit:     30  Zero condition code flag           */
 347:/home/torbjorn/eclipse-workspace/CoreNG/asf/thirdparty/CMSIS/Include/core_cm7.h ****     uint32_t N:1;                        /*!< bit:     31  Negative condition code flag       */
 348:/home/torbjorn/eclipse-workspace/CoreNG/asf/thirdparty/CMSIS/Include/core_cm7.h ****   } b;                                   /*!< Structure used for bit  access                  */
 349:/home/torbjorn/eclipse-workspace/CoreNG/asf/thirdparty/CMSIS/Include/core_cm7.h ****   uint32_t w;                            /*!< Type      used for word access                  */
 350:/home/torbjorn/eclipse-workspace/CoreNG/asf/thirdparty/CMSIS/Include/core_cm7.h **** } xPSR_Type;
 351:/home/torbjorn/eclipse-workspace/CoreNG/asf/thirdparty/CMSIS/Include/core_cm7.h **** 
 352:/home/torbjorn/eclipse-workspace/CoreNG/asf/thirdparty/CMSIS/Include/core_cm7.h **** 
 353:/home/torbjorn/eclipse-workspace/CoreNG/asf/thirdparty/CMSIS/Include/core_cm7.h **** /** \brief  Union type to access the Control Registers (CONTROL).
 354:/home/torbjorn/eclipse-workspace/CoreNG/asf/thirdparty/CMSIS/Include/core_cm7.h ****  */
 355:/home/torbjorn/eclipse-workspace/CoreNG/asf/thirdparty/CMSIS/Include/core_cm7.h **** typedef union
 356:/home/torbjorn/eclipse-workspace/CoreNG/asf/thirdparty/CMSIS/Include/core_cm7.h **** {
 357:/home/torbjorn/eclipse-workspace/CoreNG/asf/thirdparty/CMSIS/Include/core_cm7.h ****   struct
 358:/home/torbjorn/eclipse-workspace/CoreNG/asf/thirdparty/CMSIS/Include/core_cm7.h ****   {
 359:/home/torbjorn/eclipse-workspace/CoreNG/asf/thirdparty/CMSIS/Include/core_cm7.h ****     uint32_t nPRIV:1;                    /*!< bit:      0  Execution privilege in Thread mode */
 360:/home/torbjorn/eclipse-workspace/CoreNG/asf/thirdparty/CMSIS/Include/core_cm7.h ****     uint32_t SPSEL:1;                    /*!< bit:      1  Stack to be used                   */
 361:/home/torbjorn/eclipse-workspace/CoreNG/asf/thirdparty/CMSIS/Include/core_cm7.h ****     uint32_t FPCA:1;                     /*!< bit:      2  FP extension active flag           */
 362:/home/torbjorn/eclipse-workspace/CoreNG/asf/thirdparty/CMSIS/Include/core_cm7.h ****     uint32_t _reserved0:29;              /*!< bit:  3..31  Reserved                           */
 363:/home/torbjorn/eclipse-workspace/CoreNG/asf/thirdparty/CMSIS/Include/core_cm7.h ****   } b;                                   /*!< Structure used for bit  access                  */
 364:/home/torbjorn/eclipse-workspace/CoreNG/asf/thirdparty/CMSIS/Include/core_cm7.h ****   uint32_t w;                            /*!< Type      used for word access                  */
 365:/home/torbjorn/eclipse-workspace/CoreNG/asf/thirdparty/CMSIS/Include/core_cm7.h **** } CONTROL_Type;
 366:/home/torbjorn/eclipse-workspace/CoreNG/asf/thirdparty/CMSIS/Include/core_cm7.h **** 
 367:/home/torbjorn/eclipse-workspace/CoreNG/asf/thirdparty/CMSIS/Include/core_cm7.h **** /*@} end of group CMSIS_CORE */
 368:/home/torbjorn/eclipse-workspace/CoreNG/asf/thirdparty/CMSIS/Include/core_cm7.h **** 
 369:/home/torbjorn/eclipse-workspace/CoreNG/asf/thirdparty/CMSIS/Include/core_cm7.h **** 
 370:/home/torbjorn/eclipse-workspace/CoreNG/asf/thirdparty/CMSIS/Include/core_cm7.h **** /** \ingroup    CMSIS_core_register
 371:/home/torbjorn/eclipse-workspace/CoreNG/asf/thirdparty/CMSIS/Include/core_cm7.h ****     \defgroup   CMSIS_NVIC  Nested Vectored Interrupt Controller (NVIC)
 372:/home/torbjorn/eclipse-workspace/CoreNG/asf/thirdparty/CMSIS/Include/core_cm7.h ****     \brief      Type definitions for the NVIC Registers
 373:/home/torbjorn/eclipse-workspace/CoreNG/asf/thirdparty/CMSIS/Include/core_cm7.h ****   @{
 374:/home/torbjorn/eclipse-workspace/CoreNG/asf/thirdparty/CMSIS/Include/core_cm7.h ****  */
 375:/home/torbjorn/eclipse-workspace/CoreNG/asf/thirdparty/CMSIS/Include/core_cm7.h **** 
 376:/home/torbjorn/eclipse-workspace/CoreNG/asf/thirdparty/CMSIS/Include/core_cm7.h **** /** \brief  Structure type to access the Nested Vectored Interrupt Controller (NVIC).
 377:/home/torbjorn/eclipse-workspace/CoreNG/asf/thirdparty/CMSIS/Include/core_cm7.h ****  */
 378:/home/torbjorn/eclipse-workspace/CoreNG/asf/thirdparty/CMSIS/Include/core_cm7.h **** typedef struct
 379:/home/torbjorn/eclipse-workspace/CoreNG/asf/thirdparty/CMSIS/Include/core_cm7.h **** {
 380:/home/torbjorn/eclipse-workspace/CoreNG/asf/thirdparty/CMSIS/Include/core_cm7.h ****   __IO uint32_t ISER[8];                 /*!< Offset: 0x000 (R/W)  Interrupt Set Enable Register   
 381:/home/torbjorn/eclipse-workspace/CoreNG/asf/thirdparty/CMSIS/Include/core_cm7.h ****        uint32_t RESERVED0[24];
 382:/home/torbjorn/eclipse-workspace/CoreNG/asf/thirdparty/CMSIS/Include/core_cm7.h ****   __IO uint32_t ICER[8];                 /*!< Offset: 0x080 (R/W)  Interrupt Clear Enable Register 
 383:/home/torbjorn/eclipse-workspace/CoreNG/asf/thirdparty/CMSIS/Include/core_cm7.h ****        uint32_t RSERVED1[24];
 384:/home/torbjorn/eclipse-workspace/CoreNG/asf/thirdparty/CMSIS/Include/core_cm7.h ****   __IO uint32_t ISPR[8];                 /*!< Offset: 0x100 (R/W)  Interrupt Set Pending Register  
 385:/home/torbjorn/eclipse-workspace/CoreNG/asf/thirdparty/CMSIS/Include/core_cm7.h ****        uint32_t RESERVED2[24];
 386:/home/torbjorn/eclipse-workspace/CoreNG/asf/thirdparty/CMSIS/Include/core_cm7.h ****   __IO uint32_t ICPR[8];                 /*!< Offset: 0x180 (R/W)  Interrupt Clear Pending Register
 387:/home/torbjorn/eclipse-workspace/CoreNG/asf/thirdparty/CMSIS/Include/core_cm7.h ****        uint32_t RESERVED3[24];
 388:/home/torbjorn/eclipse-workspace/CoreNG/asf/thirdparty/CMSIS/Include/core_cm7.h ****   __IO uint32_t IABR[8];                 /*!< Offset: 0x200 (R/W)  Interrupt Active bit Register   
 389:/home/torbjorn/eclipse-workspace/CoreNG/asf/thirdparty/CMSIS/Include/core_cm7.h ****        uint32_t RESERVED4[56];
 390:/home/torbjorn/eclipse-workspace/CoreNG/asf/thirdparty/CMSIS/Include/core_cm7.h ****   __IO uint8_t  IP[240];                 /*!< Offset: 0x300 (R/W)  Interrupt Priority Register (8Bi
 391:/home/torbjorn/eclipse-workspace/CoreNG/asf/thirdparty/CMSIS/Include/core_cm7.h ****        uint32_t RESERVED5[644];
 392:/home/torbjorn/eclipse-workspace/CoreNG/asf/thirdparty/CMSIS/Include/core_cm7.h ****   __O  uint32_t STIR;                    /*!< Offset: 0xE00 ( /W)  Software Trigger Interrupt Regis
 393:/home/torbjorn/eclipse-workspace/CoreNG/asf/thirdparty/CMSIS/Include/core_cm7.h **** }  NVIC_Type;
 394:/home/torbjorn/eclipse-workspace/CoreNG/asf/thirdparty/CMSIS/Include/core_cm7.h **** 
 395:/home/torbjorn/eclipse-workspace/CoreNG/asf/thirdparty/CMSIS/Include/core_cm7.h **** /* Software Triggered Interrupt Register Definitions */
 396:/home/torbjorn/eclipse-workspace/CoreNG/asf/thirdparty/CMSIS/Include/core_cm7.h **** #define NVIC_STIR_INTID_Pos                 0                                          /*!< STIR: I
 397:/home/torbjorn/eclipse-workspace/CoreNG/asf/thirdparty/CMSIS/Include/core_cm7.h **** #define NVIC_STIR_INTID_Msk                (0x1FFUL << NVIC_STIR_INTID_Pos)            /*!< STIR: I
 398:/home/torbjorn/eclipse-workspace/CoreNG/asf/thirdparty/CMSIS/Include/core_cm7.h **** 
 399:/home/torbjorn/eclipse-workspace/CoreNG/asf/thirdparty/CMSIS/Include/core_cm7.h **** /*@} end of group CMSIS_NVIC */
 400:/home/torbjorn/eclipse-workspace/CoreNG/asf/thirdparty/CMSIS/Include/core_cm7.h **** 
ARM GAS  /tmp/ccVHQYWs.s 			page 42


 401:/home/torbjorn/eclipse-workspace/CoreNG/asf/thirdparty/CMSIS/Include/core_cm7.h **** 
 402:/home/torbjorn/eclipse-workspace/CoreNG/asf/thirdparty/CMSIS/Include/core_cm7.h **** /** \ingroup  CMSIS_core_register
 403:/home/torbjorn/eclipse-workspace/CoreNG/asf/thirdparty/CMSIS/Include/core_cm7.h ****     \defgroup CMSIS_SCB     System Control Block (SCB)
 404:/home/torbjorn/eclipse-workspace/CoreNG/asf/thirdparty/CMSIS/Include/core_cm7.h ****     \brief      Type definitions for the System Control Block Registers
 405:/home/torbjorn/eclipse-workspace/CoreNG/asf/thirdparty/CMSIS/Include/core_cm7.h ****   @{
 406:/home/torbjorn/eclipse-workspace/CoreNG/asf/thirdparty/CMSIS/Include/core_cm7.h ****  */
 407:/home/torbjorn/eclipse-workspace/CoreNG/asf/thirdparty/CMSIS/Include/core_cm7.h **** 
 408:/home/torbjorn/eclipse-workspace/CoreNG/asf/thirdparty/CMSIS/Include/core_cm7.h **** /** \brief  Structure type to access the System Control Block (SCB).
 409:/home/torbjorn/eclipse-workspace/CoreNG/asf/thirdparty/CMSIS/Include/core_cm7.h ****  */
 410:/home/torbjorn/eclipse-workspace/CoreNG/asf/thirdparty/CMSIS/Include/core_cm7.h **** typedef struct
 411:/home/torbjorn/eclipse-workspace/CoreNG/asf/thirdparty/CMSIS/Include/core_cm7.h **** {
 412:/home/torbjorn/eclipse-workspace/CoreNG/asf/thirdparty/CMSIS/Include/core_cm7.h ****   __I  uint32_t CPUID;                   /*!< Offset: 0x000 (R/ )  CPUID Base Register             
 413:/home/torbjorn/eclipse-workspace/CoreNG/asf/thirdparty/CMSIS/Include/core_cm7.h ****   __IO uint32_t ICSR;                    /*!< Offset: 0x004 (R/W)  Interrupt Control and State Regi
 414:/home/torbjorn/eclipse-workspace/CoreNG/asf/thirdparty/CMSIS/Include/core_cm7.h ****   __IO uint32_t VTOR;                    /*!< Offset: 0x008 (R/W)  Vector Table Offset Register    
 415:/home/torbjorn/eclipse-workspace/CoreNG/asf/thirdparty/CMSIS/Include/core_cm7.h ****   __IO uint32_t AIRCR;                   /*!< Offset: 0x00C (R/W)  Application Interrupt and Reset 
 416:/home/torbjorn/eclipse-workspace/CoreNG/asf/thirdparty/CMSIS/Include/core_cm7.h ****   __IO uint32_t SCR;                     /*!< Offset: 0x010 (R/W)  System Control Register         
 417:/home/torbjorn/eclipse-workspace/CoreNG/asf/thirdparty/CMSIS/Include/core_cm7.h ****   __IO uint32_t CCR;                     /*!< Offset: 0x014 (R/W)  Configuration Control Register  
 418:/home/torbjorn/eclipse-workspace/CoreNG/asf/thirdparty/CMSIS/Include/core_cm7.h ****   __IO uint8_t  SHPR[12];                /*!< Offset: 0x018 (R/W)  System Handlers Priority Registe
 419:/home/torbjorn/eclipse-workspace/CoreNG/asf/thirdparty/CMSIS/Include/core_cm7.h ****   __IO uint32_t SHCSR;                   /*!< Offset: 0x024 (R/W)  System Handler Control and State
 420:/home/torbjorn/eclipse-workspace/CoreNG/asf/thirdparty/CMSIS/Include/core_cm7.h ****   __IO uint32_t CFSR;                    /*!< Offset: 0x028 (R/W)  Configurable Fault Status Regist
 421:/home/torbjorn/eclipse-workspace/CoreNG/asf/thirdparty/CMSIS/Include/core_cm7.h ****   __IO uint32_t HFSR;                    /*!< Offset: 0x02C (R/W)  HardFault Status Register       
