ARM GAS  /tmp/cc3a3SJ3.s 			page 1


   1              		.cpu cortex-m7
   2              		.eabi_attribute 28, 1
   3              		.eabi_attribute 20, 1
   4              		.eabi_attribute 21, 1
   5              		.eabi_attribute 23, 3
   6              		.eabi_attribute 24, 1
   7              		.eabi_attribute 25, 1
   8              		.eabi_attribute 26, 1
   9              		.eabi_attribute 30, 2
  10              		.eabi_attribute 34, 1
  11              		.eabi_attribute 18, 4
  12              		.file	"Stream.cpp"
  13              		.text
  14              	.Ltext0:
  15              		.cfi_sections	.debug_frame
  16              		.section	.text._ZNK6Stream8canWriteEv,"axG",%progbits,_ZNK6Stream8canWriteEv,comdat
  17              		.align	1
  18              		.p2align 2,,3
  19              		.weak	_ZNK6Stream8canWriteEv
  20              		.syntax unified
  21              		.thumb
  22              		.thumb_func
  23              		.fpu fpv5-d16
  24              		.type	_ZNK6Stream8canWriteEv, %function
  25              	_ZNK6Stream8canWriteEv:
  26              	.LFB484:
  27              		.file 1 "../cores/arduino/Stream.h"
   1:../cores/arduino/Stream.h **** /*
   2:../cores/arduino/Stream.h ****   Stream.h - base class for character-based streams.
   3:../cores/arduino/Stream.h ****   Copyright (c) 2010 David A. Mellis.  All right reserved.
   4:../cores/arduino/Stream.h **** 
   5:../cores/arduino/Stream.h ****   This library is free software; you can redistribute it and/or
   6:../cores/arduino/Stream.h ****   modify it under the terms of the GNU Lesser General Public
   7:../cores/arduino/Stream.h ****   License as published by the Free Software Foundation; either
   8:../cores/arduino/Stream.h ****   version 2.1 of the License, or (at your option) any later version.
   9:../cores/arduino/Stream.h **** 
  10:../cores/arduino/Stream.h ****   This library is distributed in the hope that it will be useful,
  11:../cores/arduino/Stream.h ****   but WITHOUT ANY WARRANTY; without even the implied warranty of
  12:../cores/arduino/Stream.h ****   MERCHANTABILITY or FITNESS FOR A PARTICULAR PURPOSE.  See the GNU
  13:../cores/arduino/Stream.h ****   Lesser General Public License for more details.
  14:../cores/arduino/Stream.h **** 
  15:../cores/arduino/Stream.h ****   You should have received a copy of the GNU Lesser General Public
  16:../cores/arduino/Stream.h ****   License along with this library; if not, write to the Free Software
  17:../cores/arduino/Stream.h ****   Foundation, Inc., 51 Franklin St, Fifth Floor, Boston, MA  02110-1301  USA
  18:../cores/arduino/Stream.h **** 
  19:../cores/arduino/Stream.h ****   parsing functions based on TextFinder library by Michael Margolis
  20:../cores/arduino/Stream.h **** */
  21:../cores/arduino/Stream.h **** 
  22:../cores/arduino/Stream.h **** #ifndef Stream_h
  23:../cores/arduino/Stream.h **** #define Stream_h
  24:../cores/arduino/Stream.h **** 
  25:../cores/arduino/Stream.h **** #include <inttypes.h>
  26:../cores/arduino/Stream.h **** #include "Print.h"
  27:../cores/arduino/Stream.h **** 
  28:../cores/arduino/Stream.h **** // compatability macros for testing
  29:../cores/arduino/Stream.h **** /*
  30:../cores/arduino/Stream.h **** #define   getInt()            parseInt()
ARM GAS  /tmp/cc3a3SJ3.s 			page 2


  31:../cores/arduino/Stream.h **** #define   getInt(skipChar)    parseInt(skipchar)
  32:../cores/arduino/Stream.h **** #define   getFloat()          parseFloat()
  33:../cores/arduino/Stream.h **** #define   getFloat(skipChar)  parseFloat(skipChar)
  34:../cores/arduino/Stream.h **** #define   getString( pre_string, post_string, buffer, length)
  35:../cores/arduino/Stream.h **** readBytesBetween( pre_string, terminator, buffer, length)
  36:../cores/arduino/Stream.h **** */
  37:../cores/arduino/Stream.h **** 
  38:../cores/arduino/Stream.h **** class Stream : public Print
  39:../cores/arduino/Stream.h **** {
  40:../cores/arduino/Stream.h **** protected:
  41:../cores/arduino/Stream.h **** 	unsigned long _timeout;      // number of milliseconds to wait for the next char before aborting t
  42:../cores/arduino/Stream.h **** 	unsigned long _startMillis;  // used for timeout measurement
  43:../cores/arduino/Stream.h **** 	int timedRead();    // private method to read stream with timeout
  44:../cores/arduino/Stream.h **** 	int timedPeek();    // private method to peek stream with timeout
  45:../cores/arduino/Stream.h **** 	int peekNextDigit(); // returns the next numeric digit in the stream or -1 if timeout
  46:../cores/arduino/Stream.h **** 
  47:../cores/arduino/Stream.h **** public:
  48:../cores/arduino/Stream.h **** 	virtual int available() = 0;
  49:../cores/arduino/Stream.h **** 	virtual int read() = 0;
  50:../cores/arduino/Stream.h **** 	virtual int peek() = 0;
  51:../cores/arduino/Stream.h **** 	virtual void flush() = 0;
  52:../cores/arduino/Stream.h **** 	virtual size_t canWrite() const { return 1; }	// DC42 added for Duet
  28              		.loc 1 52 0
  29              		.cfi_startproc
  30              		@ args = 0, pretend = 0, frame = 0
  31              		@ frame_needed = 0, uses_anonymous_args = 0
  32              		@ link register save eliminated.
  33              	.LVL0:
  34              		.loc 1 52 0
  35 0000 0120     		movs	r0, #1
  36              	.LVL1:
  37 0002 7047     		bx	lr
  38              		.cfi_endproc
  39              	.LFE484:
  40              		.size	_ZNK6Stream8canWriteEv, .-_ZNK6Stream8canWriteEv
  41              		.section	.text._ZN6Stream9timedReadEv,"ax",%progbits
  42              		.align	1
  43              		.p2align 2,,3
  44              		.global	_ZN6Stream9timedReadEv
  45              		.syntax unified
  46              		.thumb
  47              		.thumb_func
  48              		.fpu fpv5-d16
  49              		.type	_ZN6Stream9timedReadEv, %function
  50              	_ZN6Stream9timedReadEv:
  51              	.LFB525:
  52              		.file 2 "../cores/arduino/Stream.cpp"
   1:../cores/arduino/Stream.cpp **** /*
   2:../cores/arduino/Stream.cpp ****  Stream.cpp - adds parsing methods to Stream class
   3:../cores/arduino/Stream.cpp ****  Copyright (c) 2008 David A. Mellis.  All right reserved.
   4:../cores/arduino/Stream.cpp **** 
   5:../cores/arduino/Stream.cpp ****  This library is free software; you can redistribute it and/or
   6:../cores/arduino/Stream.cpp ****  modify it under the terms of the GNU Lesser General Public
   7:../cores/arduino/Stream.cpp ****  License as published by the Free Software Foundation; either
   8:../cores/arduino/Stream.cpp ****  version 2.1 of the License, or (at your option) any later version.
   9:../cores/arduino/Stream.cpp **** 
  10:../cores/arduino/Stream.cpp ****  This library is distributed in the hope that it will be useful,
ARM GAS  /tmp/cc3a3SJ3.s 			page 3


  11:../cores/arduino/Stream.cpp ****  but WITHOUT ANY WARRANTY; without even the implied warranty of
  12:../cores/arduino/Stream.cpp ****  MERCHANTABILITY or FITNESS FOR A PARTICULAR PURPOSE.  See the GNU
  13:../cores/arduino/Stream.cpp ****  Lesser General Public License for more details.
  14:../cores/arduino/Stream.cpp **** 
  15:../cores/arduino/Stream.cpp ****  You should have received a copy of the GNU Lesser General Public
  16:../cores/arduino/Stream.cpp ****  License along with this library; if not, write to the Free Software
  17:../cores/arduino/Stream.cpp ****  Foundation, Inc., 51 Franklin St, Fifth Floor, Boston, MA  02110-1301  USA
  18:../cores/arduino/Stream.cpp **** 
  19:../cores/arduino/Stream.cpp ****  Created July 2011
  20:../cores/arduino/Stream.cpp ****  parsing functions based on TextFinder library by Michael Margolis
  21:../cores/arduino/Stream.cpp ****  */
  22:../cores/arduino/Stream.cpp **** 
  23:../cores/arduino/Stream.cpp **** #include "Core.h"
  24:../cores/arduino/Stream.cpp **** #include "Stream.h"
  25:../cores/arduino/Stream.cpp **** 
  26:../cores/arduino/Stream.cpp **** #define PARSE_TIMEOUT 1000  // default number of milli-seconds to wait
  27:../cores/arduino/Stream.cpp **** #define NO_SKIP_CHAR  1  // a magic char not found in a valid ASCII numeric field
  28:../cores/arduino/Stream.cpp **** 
  29:../cores/arduino/Stream.cpp **** // private method to read stream with timeout
  30:../cores/arduino/Stream.cpp **** int Stream::timedRead()
  31:../cores/arduino/Stream.cpp **** {
  53              		.loc 2 31 0
  54              		.cfi_startproc
  55              		@ args = 0, pretend = 0, frame = 0
  56              		@ frame_needed = 0, uses_anonymous_args = 0
  57              	.LVL2:
  58 0000 10B5     		push	{r4, lr}
  59              		.cfi_def_cfa_offset 8
  60              		.cfi_offset 4, -8
  61              		.cfi_offset 14, -4
  62              		.loc 2 31 0
  63 0002 0446     		mov	r4, r0
  32:../cores/arduino/Stream.cpp ****   int c;
  33:../cores/arduino/Stream.cpp ****   _startMillis = millis();
  64              		.loc 2 33 0
  65 0004 FFF7FEFF 		bl	millis
  66              	.LVL3:
  67 0008 E060     		str	r0, [r4, #12]
  68 000a 06E0     		b	.L4
  69              	.LVL4:
  70              	.L9:
  34:../cores/arduino/Stream.cpp ****   do {
  35:../cores/arduino/Stream.cpp ****     c = read();
  36:../cores/arduino/Stream.cpp ****     if (c >= 0) return c;
  37:../cores/arduino/Stream.cpp ****   } while(millis() - _startMillis < _timeout);
  71              		.loc 2 37 0
  72 000c FFF7FEFF 		bl	millis
  73              	.LVL5:
  74 0010 E368     		ldr	r3, [r4, #12]
  34:../cores/arduino/Stream.cpp ****   do {
  75              		.loc 2 34 0
  76 0012 A268     		ldr	r2, [r4, #8]
  77              		.loc 2 37 0
  78 0014 C01A     		subs	r0, r0, r3
  34:../cores/arduino/Stream.cpp ****   do {
  79              		.loc 2 34 0
  80 0016 9042     		cmp	r0, r2
ARM GAS  /tmp/cc3a3SJ3.s 			page 4


  81 0018 06D2     		bcs	.L8
  82              	.L4:
  35:../cores/arduino/Stream.cpp ****     if (c >= 0) return c;
  83              		.loc 2 35 0
  84 001a 2368     		ldr	r3, [r4]
  85 001c 2046     		mov	r0, r4
  86 001e 5B69     		ldr	r3, [r3, #20]
  87 0020 9847     		blx	r3
  88              	.LVL6:
  36:../cores/arduino/Stream.cpp ****   } while(millis() - _startMillis < _timeout);
  89              		.loc 2 36 0
  90 0022 0028     		cmp	r0, #0
  91 0024 F2DB     		blt	.L9
  38:../cores/arduino/Stream.cpp ****   return -1;     // -1 indicates timeout
  39:../cores/arduino/Stream.cpp **** }
  92              		.loc 2 39 0
  93 0026 10BD     		pop	{r4, pc}
  94              	.LVL7:
  95              	.L8:
  38:../cores/arduino/Stream.cpp ****   return -1;     // -1 indicates timeout
  96              		.loc 2 38 0
  97 0028 4FF0FF30 		mov	r0, #-1
  98              		.loc 2 39 0
  99 002c 10BD     		pop	{r4, pc}
 100              		.cfi_endproc
 101              	.LFE525:
 102              		.size	_ZN6Stream9timedReadEv, .-_ZN6Stream9timedReadEv
 103 002e 00BF     		.section	.text._ZN6Stream9readBytesEPcj,"ax",%progbits
 104              		.align	1
 105              		.p2align 2,,3
 106              		.global	_ZN6Stream9readBytesEPcj
 107              		.syntax unified
 108              		.thumb
 109              		.thumb_func
 110              		.fpu fpv5-d16
 111              		.type	_ZN6Stream9readBytesEPcj, %function
 112              	_ZN6Stream9readBytesEPcj:
 113              	.LFB537:
  40:../cores/arduino/Stream.cpp **** 
  41:../cores/arduino/Stream.cpp **** // private method to peek stream with timeout
  42:../cores/arduino/Stream.cpp **** int Stream::timedPeek()
  43:../cores/arduino/Stream.cpp **** {
  44:../cores/arduino/Stream.cpp ****   int c;
  45:../cores/arduino/Stream.cpp ****   _startMillis = millis();
  46:../cores/arduino/Stream.cpp ****   do {
  47:../cores/arduino/Stream.cpp ****     c = peek();
  48:../cores/arduino/Stream.cpp ****     if (c >= 0) return c;
  49:../cores/arduino/Stream.cpp ****   } while(millis() - _startMillis < _timeout);
  50:../cores/arduino/Stream.cpp ****   return -1;     // -1 indicates timeout
  51:../cores/arduino/Stream.cpp **** }
  52:../cores/arduino/Stream.cpp **** 
  53:../cores/arduino/Stream.cpp **** // returns peek of the next digit in the stream or -1 if timeout
  54:../cores/arduino/Stream.cpp **** // discards non-numeric characters
  55:../cores/arduino/Stream.cpp **** int Stream::peekNextDigit()
  56:../cores/arduino/Stream.cpp **** {
  57:../cores/arduino/Stream.cpp ****   int c;
  58:../cores/arduino/Stream.cpp ****   while (1) {
ARM GAS  /tmp/cc3a3SJ3.s 			page 5


  59:../cores/arduino/Stream.cpp ****     c = timedPeek();
  60:../cores/arduino/Stream.cpp ****     if (c < 0) return c;  // timeout
  61:../cores/arduino/Stream.cpp ****     if (c == '-') return c;
  62:../cores/arduino/Stream.cpp ****     if (c >= '0' && c <= '9') return c;
  63:../cores/arduino/Stream.cpp ****     read();  // discard non-numeric
  64:../cores/arduino/Stream.cpp ****   }
  65:../cores/arduino/Stream.cpp **** }
  66:../cores/arduino/Stream.cpp **** 
  67:../cores/arduino/Stream.cpp **** // Public Methods
  68:../cores/arduino/Stream.cpp **** //////////////////////////////////////////////////////////////
  69:../cores/arduino/Stream.cpp **** 
  70:../cores/arduino/Stream.cpp **** void Stream::setTimeout(unsigned long timeout)  // sets the maximum number of milliseconds to wait
  71:../cores/arduino/Stream.cpp **** {
  72:../cores/arduino/Stream.cpp ****   _timeout = timeout;
  73:../cores/arduino/Stream.cpp **** }
  74:../cores/arduino/Stream.cpp **** 
  75:../cores/arduino/Stream.cpp ****  // find returns true if the target string is found
  76:../cores/arduino/Stream.cpp **** bool  Stream::find(char *target)
  77:../cores/arduino/Stream.cpp **** {
  78:../cores/arduino/Stream.cpp ****   return findUntil(target, (char*)"");
  79:../cores/arduino/Stream.cpp **** }
  80:../cores/arduino/Stream.cpp **** 
  81:../cores/arduino/Stream.cpp **** // reads data from the stream until the target string of given length is found
  82:../cores/arduino/Stream.cpp **** // returns true if target string is found, false if timed out
  83:../cores/arduino/Stream.cpp **** bool Stream::find(char *target, size_t length)
  84:../cores/arduino/Stream.cpp **** {
  85:../cores/arduino/Stream.cpp ****   return findUntil(target, length, NULL, 0);
  86:../cores/arduino/Stream.cpp **** }
  87:../cores/arduino/Stream.cpp **** 
  88:../cores/arduino/Stream.cpp **** // as find but search ends if the terminator string is found
  89:../cores/arduino/Stream.cpp **** bool  Stream::findUntil(char *target, char *terminator)
  90:../cores/arduino/Stream.cpp **** {
  91:../cores/arduino/Stream.cpp ****   return findUntil(target, strlen(target), terminator, strlen(terminator));
  92:../cores/arduino/Stream.cpp **** }
  93:../cores/arduino/Stream.cpp **** 
  94:../cores/arduino/Stream.cpp **** // reads data from the stream until the target string of the given length is found
  95:../cores/arduino/Stream.cpp **** // search terminated if the terminator string is found
  96:../cores/arduino/Stream.cpp **** // returns true if target string is found, false if terminated or timed out
  97:../cores/arduino/Stream.cpp **** bool Stream::findUntil(char *target, size_t targetLen, char *terminator, size_t termLen)
  98:../cores/arduino/Stream.cpp **** {
  99:../cores/arduino/Stream.cpp ****   size_t index = 0;  // maximum target string length is 64k bytes!
 100:../cores/arduino/Stream.cpp ****   size_t termIndex = 0;
 101:../cores/arduino/Stream.cpp ****   int c;
 102:../cores/arduino/Stream.cpp ****   
 103:../cores/arduino/Stream.cpp ****   if( *target == 0)
 104:../cores/arduino/Stream.cpp ****     return true;   // return true if target is a null string
 105:../cores/arduino/Stream.cpp ****   while( (c = timedRead()) > 0){
 106:../cores/arduino/Stream.cpp ****     
 107:../cores/arduino/Stream.cpp ****     if(c != target[index])
 108:../cores/arduino/Stream.cpp ****       index = 0; // reset index if any char does not match
 109:../cores/arduino/Stream.cpp ****     
 110:../cores/arduino/Stream.cpp ****     if( c == target[index]){
 111:../cores/arduino/Stream.cpp ****       //////Serial.print("found "); Serial.write(c); Serial.print("index now"); Serial.println(inde
 112:../cores/arduino/Stream.cpp ****       if(++index >= targetLen){ // return true if all chars in the target match
 113:../cores/arduino/Stream.cpp ****         return true;
 114:../cores/arduino/Stream.cpp ****       }
 115:../cores/arduino/Stream.cpp ****     }
ARM GAS  /tmp/cc3a3SJ3.s 			page 6


 116:../cores/arduino/Stream.cpp ****     
 117:../cores/arduino/Stream.cpp ****     if(termLen > 0 && c == terminator[termIndex]){
 118:../cores/arduino/Stream.cpp ****       if(++termIndex >= termLen)
 119:../cores/arduino/Stream.cpp ****         return false;       // return false if terminate string found before target string
 120:../cores/arduino/Stream.cpp ****     }
 121:../cores/arduino/Stream.cpp ****     else
 122:../cores/arduino/Stream.cpp ****       termIndex = 0;
 123:../cores/arduino/Stream.cpp ****   }
 124:../cores/arduino/Stream.cpp ****   return false;
 125:../cores/arduino/Stream.cpp **** }
 126:../cores/arduino/Stream.cpp **** 
 127:../cores/arduino/Stream.cpp **** 
 128:../cores/arduino/Stream.cpp **** // returns the first valid (long) integer value from the current position.
 129:../cores/arduino/Stream.cpp **** // initial characters that are not digits (or the minus sign) are skipped
 130:../cores/arduino/Stream.cpp **** // function is terminated by the first character that is not a digit.
 131:../cores/arduino/Stream.cpp **** long Stream::parseInt()
 132:../cores/arduino/Stream.cpp **** {
 133:../cores/arduino/Stream.cpp ****   return parseInt(NO_SKIP_CHAR); // terminate on first non-digit character (or timeout)
 134:../cores/arduino/Stream.cpp **** }
 135:../cores/arduino/Stream.cpp **** 
 136:../cores/arduino/Stream.cpp **** // as above but a given skipChar is ignored
 137:../cores/arduino/Stream.cpp **** // this allows format characters (typically commas) in values to be ignored
 138:../cores/arduino/Stream.cpp **** long Stream::parseInt(char skipChar)
 139:../cores/arduino/Stream.cpp **** {
 140:../cores/arduino/Stream.cpp ****   boolean isNegative = false;
 141:../cores/arduino/Stream.cpp ****   long value = 0;
 142:../cores/arduino/Stream.cpp **** 
 143:../cores/arduino/Stream.cpp ****   int c = peekNextDigit();
 144:../cores/arduino/Stream.cpp ****   // ignore non numeric leading characters
 145:../cores/arduino/Stream.cpp ****   if(c < 0)
 146:../cores/arduino/Stream.cpp ****   {
 147:../cores/arduino/Stream.cpp ****     return 0; // zero returned if timeout
 148:../cores/arduino/Stream.cpp ****   }
 149:../cores/arduino/Stream.cpp **** 
 150:../cores/arduino/Stream.cpp ****   do
 151:../cores/arduino/Stream.cpp ****   {
 152:../cores/arduino/Stream.cpp ****     if (c == skipChar)
 153:../cores/arduino/Stream.cpp ****     {
 154:../cores/arduino/Stream.cpp ****       // ignore this charactor
 155:../cores/arduino/Stream.cpp ****     }
 156:../cores/arduino/Stream.cpp ****     else if (c == '-')
 157:../cores/arduino/Stream.cpp ****     {
 158:../cores/arduino/Stream.cpp ****       isNegative = true;
 159:../cores/arduino/Stream.cpp ****     }
 160:../cores/arduino/Stream.cpp ****     else if (c >= '0' && c <= '9')        // is c a digit?
 161:../cores/arduino/Stream.cpp ****     {
 162:../cores/arduino/Stream.cpp ****       value = value * 10 + c - '0';
 163:../cores/arduino/Stream.cpp ****     }
 164:../cores/arduino/Stream.cpp ****     read();  // consume the character we got with peek
 165:../cores/arduino/Stream.cpp ****     c = timedPeek();
 166:../cores/arduino/Stream.cpp ****   }
 167:../cores/arduino/Stream.cpp ****   while( (c >= '0' && c <= '9') || c == skipChar );
 168:../cores/arduino/Stream.cpp **** 
 169:../cores/arduino/Stream.cpp ****   if (isNegative)
 170:../cores/arduino/Stream.cpp ****   {
 171:../cores/arduino/Stream.cpp ****     value = -value;
 172:../cores/arduino/Stream.cpp ****   }
ARM GAS  /tmp/cc3a3SJ3.s 			page 7


 173:../cores/arduino/Stream.cpp ****   return value;
 174:../cores/arduino/Stream.cpp **** }
 175:../cores/arduino/Stream.cpp **** 
 176:../cores/arduino/Stream.cpp **** 
 177:../cores/arduino/Stream.cpp **** // as parseInt but returns a floating point value
 178:../cores/arduino/Stream.cpp **** float Stream::parseFloat()
 179:../cores/arduino/Stream.cpp **** {
 180:../cores/arduino/Stream.cpp ****   return parseFloat(NO_SKIP_CHAR);
 181:../cores/arduino/Stream.cpp **** }
 182:../cores/arduino/Stream.cpp **** 
 183:../cores/arduino/Stream.cpp **** // as above but the given skipChar is ignored
 184:../cores/arduino/Stream.cpp **** // this allows format characters (typically commas) in values to be ignored
 185:../cores/arduino/Stream.cpp **** float Stream::parseFloat(char skipChar)
 186:../cores/arduino/Stream.cpp **** {
 187:../cores/arduino/Stream.cpp ****   boolean isNegative = false;
 188:../cores/arduino/Stream.cpp ****   boolean isFraction = false;
 189:../cores/arduino/Stream.cpp ****   long value = 0;
 190:../cores/arduino/Stream.cpp ****   float fraction = 1.0;
 191:../cores/arduino/Stream.cpp **** 
 192:../cores/arduino/Stream.cpp ****   int c = peekNextDigit();
 193:../cores/arduino/Stream.cpp ****     // ignore non numeric leading characters
 194:../cores/arduino/Stream.cpp ****   if (c < 0)
 195:../cores/arduino/Stream.cpp ****   {
 196:../cores/arduino/Stream.cpp ****     return 0; // zero returned if timeout
 197:../cores/arduino/Stream.cpp ****   }
 198:../cores/arduino/Stream.cpp **** 
 199:../cores/arduino/Stream.cpp ****   do
 200:../cores/arduino/Stream.cpp ****   {
 201:../cores/arduino/Stream.cpp ****     if (c == skipChar)
 202:../cores/arduino/Stream.cpp ****     {
 203:../cores/arduino/Stream.cpp ****       // ignore
 204:../cores/arduino/Stream.cpp ****     }
 205:../cores/arduino/Stream.cpp ****     else if (c == '-')
 206:../cores/arduino/Stream.cpp ****     {
 207:../cores/arduino/Stream.cpp ****       isNegative = true;
 208:../cores/arduino/Stream.cpp ****     }
 209:../cores/arduino/Stream.cpp ****     else if (c == '.')
 210:../cores/arduino/Stream.cpp ****     {
 211:../cores/arduino/Stream.cpp ****       isFraction = true;
 212:../cores/arduino/Stream.cpp ****     }
 213:../cores/arduino/Stream.cpp ****     else if (c >= '0' && c <= '9')      // is c a digit?
 214:../cores/arduino/Stream.cpp ****     {
 215:../cores/arduino/Stream.cpp ****       value = value * 10 + c - '0';
 216:../cores/arduino/Stream.cpp ****       if (isFraction)
 217:../cores/arduino/Stream.cpp ****       {
 218:../cores/arduino/Stream.cpp ****          fraction *= 0.1;
 219:../cores/arduino/Stream.cpp ****       }
 220:../cores/arduino/Stream.cpp ****     }
 221:../cores/arduino/Stream.cpp ****     read();  // consume the character we got with peek
 222:../cores/arduino/Stream.cpp ****     c = timedPeek();
 223:../cores/arduino/Stream.cpp ****   }
 224:../cores/arduino/Stream.cpp ****   while( (c >= '0' && c <= '9') || c == '.' || c == skipChar );
 225:../cores/arduino/Stream.cpp **** 
 226:../cores/arduino/Stream.cpp ****   if (isNegative)
 227:../cores/arduino/Stream.cpp ****   {
 228:../cores/arduino/Stream.cpp ****     value = -value;
 229:../cores/arduino/Stream.cpp ****   }
ARM GAS  /tmp/cc3a3SJ3.s 			page 8


 230:../cores/arduino/Stream.cpp ****   if (isFraction)
 231:../cores/arduino/Stream.cpp ****   {
 232:../cores/arduino/Stream.cpp ****     return value * fraction;
 233:../cores/arduino/Stream.cpp ****   }
 234:../cores/arduino/Stream.cpp ****   else
 235:../cores/arduino/Stream.cpp ****   {
 236:../cores/arduino/Stream.cpp ****     return value;
 237:../cores/arduino/Stream.cpp ****   }
 238:../cores/arduino/Stream.cpp **** }
 239:../cores/arduino/Stream.cpp **** 
 240:../cores/arduino/Stream.cpp **** // read characters from stream into buffer
 241:../cores/arduino/Stream.cpp **** // terminates if length characters have been read, or timeout (see setTimeout)
 242:../cores/arduino/Stream.cpp **** // returns the number of characters placed in the buffer
 243:../cores/arduino/Stream.cpp **** // the buffer is NOT null terminated.
 244:../cores/arduino/Stream.cpp **** //
 245:../cores/arduino/Stream.cpp **** size_t Stream::readBytes(char *buffer, size_t length)
 246:../cores/arduino/Stream.cpp **** {
 114              		.loc 2 246 0
 115              		.cfi_startproc
 116              		@ args = 0, pretend = 0, frame = 0
 117              		@ frame_needed = 0, uses_anonymous_args = 0
 118              	.LVL8:
 119 0000 F8B5     		push	{r3, r4, r5, r6, r7, lr}
 120              		.cfi_def_cfa_offset 24
 121              		.cfi_offset 3, -24
 122              		.cfi_offset 4, -20
 123              		.cfi_offset 5, -16
 124              		.cfi_offset 6, -12
 125              		.cfi_offset 7, -8
 126              		.cfi_offset 14, -4
 247:../cores/arduino/Stream.cpp ****   size_t count = 0;
 248:../cores/arduino/Stream.cpp ****   while (count < length)
 127              		.loc 2 248 0
 128 0002 1646     		mov	r6, r2
 129 0004 7AB1     		cbz	r2, .L13
 130 0006 0746     		mov	r7, r0
 131 0008 0D46     		mov	r5, r1
 132 000a 0024     		movs	r4, #0
 133 000c 04E0     		b	.L12
 134              	.LVL9:
 135              	.L16:
 136              	.LBB6:
 249:../cores/arduino/Stream.cpp ****   {
 250:../cores/arduino/Stream.cpp ****     int c = timedRead();
 251:../cores/arduino/Stream.cpp ****     if (c < 0) break;
 252:../cores/arduino/Stream.cpp ****     *buffer++ = (char)c;
 253:../cores/arduino/Stream.cpp ****     count++;
 137              		.loc 2 253 0
 138 000e 0134     		adds	r4, r4, #1
 139              	.LVL10:
 252:../cores/arduino/Stream.cpp ****     count++;
 140              		.loc 2 252 0
 141 0010 05F8010B 		strb	r0, [r5], #1
 142              	.LVL11:
 143              	.LBE6:
 248:../cores/arduino/Stream.cpp ****   {
 144              		.loc 2 248 0
ARM GAS  /tmp/cc3a3SJ3.s 			page 9


 145 0014 A642     		cmp	r6, r4
 146 0016 04D0     		beq	.L10
 147              	.LVL12:
 148              	.L12:
 149              	.LBB7:
 250:../cores/arduino/Stream.cpp ****     if (c < 0) break;
 150              		.loc 2 250 0
 151 0018 3846     		mov	r0, r7
 152 001a FFF7FEFF 		bl	_ZN6Stream9timedReadEv
 153              	.LVL13:
 251:../cores/arduino/Stream.cpp ****     *buffer++ = (char)c;
 154              		.loc 2 251 0
 155 001e 0028     		cmp	r0, #0
 156 0020 F5DA     		bge	.L16
 157              	.LVL14:
 158              	.L10:
 159              	.LBE7:
 254:../cores/arduino/Stream.cpp ****   }
 255:../cores/arduino/Stream.cpp ****   return count;
 256:../cores/arduino/Stream.cpp **** }
 160              		.loc 2 256 0
 161 0022 2046     		mov	r0, r4
 162 0024 F8BD     		pop	{r3, r4, r5, r6, r7, pc}
 163              	.LVL15:
 164              	.L13:
 247:../cores/arduino/Stream.cpp ****   while (count < length)
 165              		.loc 2 247 0
 166 0026 1446     		mov	r4, r2
 255:../cores/arduino/Stream.cpp **** }
 167              		.loc 2 255 0
 168 0028 FBE7     		b	.L10
 169              		.cfi_endproc
 170              	.LFE537:
 171              		.size	_ZN6Stream9readBytesEPcj, .-_ZN6Stream9readBytesEPcj
 172 002a 00BF     		.section	.text._ZN6Stream9findUntilEPcjS0_j.part.0,"ax",%progbits
 173              		.align	1
 174              		.p2align 2,,3
 175              		.syntax unified
 176              		.thumb
 177              		.thumb_func
 178              		.fpu fpv5-d16
 179              		.type	_ZN6Stream9findUntilEPcjS0_j.part.0, %function
 180              	_ZN6Stream9findUntilEPcjS0_j.part.0:
 181              	.LFB539:
  97:../cores/arduino/Stream.cpp **** {
 182              		.loc 2 97 0
 183              		.cfi_startproc
 184              		@ args = 4, pretend = 0, frame = 0
 185              		@ frame_needed = 0, uses_anonymous_args = 0
 186              	.LVL16:
 187 0000 2DE9F047 		push	{r4, r5, r6, r7, r8, r9, r10, lr}
 188              		.cfi_def_cfa_offset 32
 189              		.cfi_offset 4, -32
 190              		.cfi_offset 5, -28
 191              		.cfi_offset 6, -24
 192              		.cfi_offset 7, -20
 193              		.cfi_offset 8, -16
ARM GAS  /tmp/cc3a3SJ3.s 			page 10


 194              		.cfi_offset 9, -12
 195              		.cfi_offset 10, -8
 196              		.cfi_offset 14, -4
 122:../cores/arduino/Stream.cpp ****   }
 197              		.loc 2 122 0
 198 0004 0025     		movs	r5, #0
  97:../cores/arduino/Stream.cpp **** {
 199              		.loc 2 97 0
 200 0006 8046     		mov	r8, r0
 201 0008 0E46     		mov	r6, r1
 202 000a 9246     		mov	r10, r2
 203 000c 9946     		mov	r9, r3
 122:../cores/arduino/Stream.cpp ****   }
 204              		.loc 2 122 0
 205 000e 2C46     		mov	r4, r5
  97:../cores/arduino/Stream.cpp **** {
 206              		.loc 2 97 0
 207 0010 089F     		ldr	r7, [sp, #32]
 208              	.LVL17:
 209              	.L18:
 105:../cores/arduino/Stream.cpp ****     
 210              		.loc 2 105 0
 211 0012 4046     		mov	r0, r8
 212 0014 FFF7FEFF 		bl	_ZN6Stream9timedReadEv
 213              	.LVL18:
 214 0018 0028     		cmp	r0, #0
 215 001a 11DD     		ble	.L24
 216              	.L34:
 107:../cores/arduino/Stream.cpp ****       index = 0; // reset index if any char does not match
 217              		.loc 2 107 0
 218 001c 335D     		ldrb	r3, [r6, r4]	@ zero_extendqisi2
 219 001e 9842     		cmp	r0, r3
 220 0020 11D0     		beq	.L31
 221              	.LVL19:
 110:../cores/arduino/Stream.cpp ****       //////Serial.print("found "); Serial.write(c); Serial.print("index now"); Serial.println(inde
 222              		.loc 2 110 0
 223 0022 3378     		ldrb	r3, [r6]	@ zero_extendqisi2
 224 0024 9842     		cmp	r0, r3
 225 0026 18D0     		beq	.L32
 108:../cores/arduino/Stream.cpp ****     
 226              		.loc 2 108 0
 227 0028 0024     		movs	r4, #0
 228              	.LVL20:
 229              	.L22:
 117:../cores/arduino/Stream.cpp ****       if(++termIndex >= termLen)
 230              		.loc 2 117 0
 231 002a 1FB1     		cbz	r7, .L28
 232 002c 19F80530 		ldrb	r3, [r9, r5]	@ zero_extendqisi2
 233 0030 9842     		cmp	r0, r3
 234 0032 0ED0     		beq	.L33
 235              	.L28:
 105:../cores/arduino/Stream.cpp ****     
 236              		.loc 2 105 0
 237 0034 4046     		mov	r0, r8
 238              	.LVL21:
 122:../cores/arduino/Stream.cpp ****   }
 239              		.loc 2 122 0
ARM GAS  /tmp/cc3a3SJ3.s 			page 11


 240 0036 0025     		movs	r5, #0
 241              	.LVL22:
 105:../cores/arduino/Stream.cpp ****     
 242              		.loc 2 105 0
 243 0038 FFF7FEFF 		bl	_ZN6Stream9timedReadEv
 244              	.LVL23:
 245 003c 0028     		cmp	r0, #0
 246 003e EDDC     		bgt	.L34
 247              	.L24:
 124:../cores/arduino/Stream.cpp **** }
 248              		.loc 2 124 0
 249 0040 0020     		movs	r0, #0
 250              	.LVL24:
 251 0042 BDE8F087 		pop	{r4, r5, r6, r7, r8, r9, r10, pc}
 252              	.LVL25:
 253              	.L31:
 254 0046 0134     		adds	r4, r4, #1
 255              	.LVL26:
 256              	.L21:
 112:../cores/arduino/Stream.cpp ****         return true;
 257              		.loc 2 112 0
 258 0048 A245     		cmp	r10, r4
 259 004a EED8     		bhi	.L22
 113:../cores/arduino/Stream.cpp ****       }
 260              		.loc 2 113 0
 261 004c 0120     		movs	r0, #1
 262              	.LVL27:
 125:../cores/arduino/Stream.cpp **** 
 263              		.loc 2 125 0
 264 004e BDE8F087 		pop	{r4, r5, r6, r7, r8, r9, r10, pc}
 265              	.LVL28:
 266              	.L33:
 118:../cores/arduino/Stream.cpp ****         return false;       // return false if terminate string found before target string
 267              		.loc 2 118 0
 268 0052 0135     		adds	r5, r5, #1
 269              	.LVL29:
 270 0054 AF42     		cmp	r7, r5
 271 0056 DCD8     		bhi	.L18
 272 0058 F2E7     		b	.L24
 273              	.LVL30:
 274              	.L32:
 110:../cores/arduino/Stream.cpp ****       //////Serial.print("found "); Serial.write(c); Serial.print("index now"); Serial.println(inde
 275              		.loc 2 110 0
 276 005a 0124     		movs	r4, #1
 277 005c F4E7     		b	.L21
 278              		.cfi_endproc
 279              	.LFE539:
 280              		.size	_ZN6Stream9findUntilEPcjS0_j.part.0, .-_ZN6Stream9findUntilEPcjS0_j.part.0
 281 005e 00BF     		.section	.text._ZN6Stream9timedPeekEv,"ax",%progbits
 282              		.align	1
 283              		.p2align 2,,3
 284              		.global	_ZN6Stream9timedPeekEv
 285              		.syntax unified
 286              		.thumb
 287              		.thumb_func
 288              		.fpu fpv5-d16
 289              		.type	_ZN6Stream9timedPeekEv, %function
ARM GAS  /tmp/cc3a3SJ3.s 			page 12


 290              	_ZN6Stream9timedPeekEv:
 291              	.LFB526:
  43:../cores/arduino/Stream.cpp ****   int c;
 292              		.loc 2 43 0
 293              		.cfi_startproc
 294              		@ args = 0, pretend = 0, frame = 0
 295              		@ frame_needed = 0, uses_anonymous_args = 0
 296              	.LVL31:
 297 0000 10B5     		push	{r4, lr}
 298              		.cfi_def_cfa_offset 8
 299              		.cfi_offset 4, -8
 300              		.cfi_offset 14, -4
  43:../cores/arduino/Stream.cpp ****   int c;
 301              		.loc 2 43 0
 302 0002 0446     		mov	r4, r0
  45:../cores/arduino/Stream.cpp ****   do {
 303              		.loc 2 45 0
 304 0004 FFF7FEFF 		bl	millis
 305              	.LVL32:
 306 0008 E060     		str	r0, [r4, #12]
 307 000a 06E0     		b	.L37
 308              	.LVL33:
 309              	.L41:
  49:../cores/arduino/Stream.cpp ****   return -1;     // -1 indicates timeout
 310              		.loc 2 49 0
 311 000c FFF7FEFF 		bl	millis
 312              	.LVL34:
 313 0010 E368     		ldr	r3, [r4, #12]
  46:../cores/arduino/Stream.cpp ****     c = peek();
 314              		.loc 2 46 0
 315 0012 A268     		ldr	r2, [r4, #8]
  49:../cores/arduino/Stream.cpp ****   return -1;     // -1 indicates timeout
 316              		.loc 2 49 0
 317 0014 C01A     		subs	r0, r0, r3
  46:../cores/arduino/Stream.cpp ****     c = peek();
 318              		.loc 2 46 0
 319 0016 9042     		cmp	r0, r2
 320 0018 06D2     		bcs	.L40
 321              	.L37:
  47:../cores/arduino/Stream.cpp ****     if (c >= 0) return c;
 322              		.loc 2 47 0
 323 001a 2368     		ldr	r3, [r4]
 324 001c 2046     		mov	r0, r4
 325 001e 9B69     		ldr	r3, [r3, #24]
 326 0020 9847     		blx	r3
 327              	.LVL35:
  48:../cores/arduino/Stream.cpp ****   } while(millis() - _startMillis < _timeout);
 328              		.loc 2 48 0
 329 0022 0028     		cmp	r0, #0
 330 0024 F2DB     		blt	.L41
  51:../cores/arduino/Stream.cpp **** 
 331              		.loc 2 51 0
 332 0026 10BD     		pop	{r4, pc}
 333              	.LVL36:
 334              	.L40:
  50:../cores/arduino/Stream.cpp **** }
 335              		.loc 2 50 0
ARM GAS  /tmp/cc3a3SJ3.s 			page 13


 336 0028 4FF0FF30 		mov	r0, #-1
  51:../cores/arduino/Stream.cpp **** 
 337              		.loc 2 51 0
 338 002c 10BD     		pop	{r4, pc}
 339              		.cfi_endproc
 340              	.LFE526:
 341              		.size	_ZN6Stream9timedPeekEv, .-_ZN6Stream9timedPeekEv
 342 002e 00BF     		.section	.text._ZN6Stream13peekNextDigitEv,"ax",%progbits
 343              		.align	1
 344              		.p2align 2,,3
 345              		.global	_ZN6Stream13peekNextDigitEv
 346              		.syntax unified
 347              		.thumb
 348              		.thumb_func
 349              		.fpu fpv5-d16
 350              		.type	_ZN6Stream13peekNextDigitEv, %function
 351              	_ZN6Stream13peekNextDigitEv:
 352              	.LFB527:
  56:../cores/arduino/Stream.cpp ****   int c;
 353              		.loc 2 56 0
 354              		.cfi_startproc
 355              		@ args = 0, pretend = 0, frame = 0
 356              		@ frame_needed = 0, uses_anonymous_args = 0
 357              	.LVL37:
 358 0000 10B5     		push	{r4, lr}
 359              		.cfi_def_cfa_offset 8
 360              		.cfi_offset 4, -8
 361              		.cfi_offset 14, -4
  56:../cores/arduino/Stream.cpp ****   int c;
 362              		.loc 2 56 0
 363 0002 0446     		mov	r4, r0
 364 0004 06E0     		b	.L44
 365              	.LVL38:
 366              	.L49:
  61:../cores/arduino/Stream.cpp ****     if (c >= '0' && c <= '9') return c;
 367              		.loc 2 61 0
 368 0006 2D2B     		cmp	r3, #45
 369 0008 0CD0     		beq	.L42
  62:../cores/arduino/Stream.cpp ****     read();  // discard non-numeric
 370              		.loc 2 62 0
 371 000a 092A     		cmp	r2, #9
 372 000c 0AD9     		bls	.L42
  63:../cores/arduino/Stream.cpp ****   }
 373              		.loc 2 63 0
 374 000e 2368     		ldr	r3, [r4]
 375              	.LVL39:
 376 0010 5B69     		ldr	r3, [r3, #20]
 377 0012 9847     		blx	r3
 378              	.LVL40:
 379              	.L44:
  59:../cores/arduino/Stream.cpp ****     if (c < 0) return c;  // timeout
 380              		.loc 2 59 0
 381 0014 2046     		mov	r0, r4
 382 0016 FFF7FEFF 		bl	_ZN6Stream9timedPeekEv
 383              	.LVL41:
  60:../cores/arduino/Stream.cpp ****     if (c == '-') return c;
 384              		.loc 2 60 0
ARM GAS  /tmp/cc3a3SJ3.s 			page 14


 385 001a 031E     		subs	r3, r0, #0
  63:../cores/arduino/Stream.cpp ****   }
 386              		.loc 2 63 0
 387 001c 2046     		mov	r0, r4
 388              	.LVL42:
  62:../cores/arduino/Stream.cpp ****     read();  // discard non-numeric
 389              		.loc 2 62 0
 390 001e A3F13002 		sub	r2, r3, #48
  60:../cores/arduino/Stream.cpp ****     if (c == '-') return c;
 391              		.loc 2 60 0
 392 0022 F0DA     		bge	.L49
 393              	.LVL43:
 394              	.L42:
  65:../cores/arduino/Stream.cpp **** 
 395              		.loc 2 65 0
 396 0024 1846     		mov	r0, r3
 397              	.LVL44:
 398 0026 10BD     		pop	{r4, pc}
 399              		.cfi_endproc
 400              	.LFE527:
 401              		.size	_ZN6Stream13peekNextDigitEv, .-_ZN6Stream13peekNextDigitEv
 402              		.section	.text._ZN6Stream10setTimeoutEm,"ax",%progbits
 403              		.align	1
 404              		.p2align 2,,3
 405              		.global	_ZN6Stream10setTimeoutEm
 406              		.syntax unified
 407              		.thumb
 408              		.thumb_func
 409              		.fpu fpv5-d16
 410              		.type	_ZN6Stream10setTimeoutEm, %function
 411              	_ZN6Stream10setTimeoutEm:
 412              	.LFB528:
  71:../cores/arduino/Stream.cpp ****   _timeout = timeout;
 413              		.loc 2 71 0
 414              		.cfi_startproc
 415              		@ args = 0, pretend = 0, frame = 0
 416              		@ frame_needed = 0, uses_anonymous_args = 0
 417              		@ link register save eliminated.
 418              	.LVL45:
  72:../cores/arduino/Stream.cpp **** }
 419              		.loc 2 72 0
 420 0000 8160     		str	r1, [r0, #8]
 421 0002 7047     		bx	lr
 422              		.cfi_endproc
 423              	.LFE528:
 424              		.size	_ZN6Stream10setTimeoutEm, .-_ZN6Stream10setTimeoutEm
 425              		.section	.text._ZN6Stream4findEPcj,"ax",%progbits
 426              		.align	1
 427              		.p2align 2,,3
 428              		.global	_ZN6Stream4findEPcj
 429              		.syntax unified
 430              		.thumb
 431              		.thumb_func
 432              		.fpu fpv5-d16
 433              		.type	_ZN6Stream4findEPcj, %function
 434              	_ZN6Stream4findEPcj:
 435              	.LFB530:
ARM GAS  /tmp/cc3a3SJ3.s 			page 15


  84:../cores/arduino/Stream.cpp ****   return findUntil(target, length, NULL, 0);
 436              		.loc 2 84 0
 437              		.cfi_startproc
 438              		@ args = 0, pretend = 0, frame = 0
 439              		@ frame_needed = 0, uses_anonymous_args = 0
 440              	.LVL46:
 441              	.LBB8:
 442              	.LBB9:
 103:../cores/arduino/Stream.cpp ****     return true;   // return true if target is a null string
 443              		.loc 2 103 0
 444 0000 0B78     		ldrb	r3, [r1]	@ zero_extendqisi2
 445 0002 0BB9     		cbnz	r3, .L58
 104:../cores/arduino/Stream.cpp ****   while( (c = timedRead()) > 0){
 446              		.loc 2 104 0
 447 0004 0120     		movs	r0, #1
 448              	.LVL47:
 449 0006 7047     		bx	lr
 450              	.LVL48:
 451              	.L58:
 452              	.LBE9:
 453              	.LBE8:
  84:../cores/arduino/Stream.cpp ****   return findUntil(target, length, NULL, 0);
 454              		.loc 2 84 0
 455 0008 00B5     		push	{lr}
 456              		.cfi_def_cfa_offset 4
 457              		.cfi_offset 14, -4
 458              	.LBB12:
 459              	.LBB10:
 460 000a 0023     		movs	r3, #0
 461              	.LBE10:
 462              	.LBE12:
 463 000c 83B0     		sub	sp, sp, #12
 464              		.cfi_def_cfa_offset 16
 465              	.LBB13:
 466              	.LBB11:
 467 000e 0093     		str	r3, [sp]
 468 0010 FFF7FEFF 		bl	_ZN6Stream9findUntilEPcjS0_j.part.0
 469              	.LVL49:
 470              	.LBE11:
 471              	.LBE13:
  86:../cores/arduino/Stream.cpp **** 
 472              		.loc 2 86 0
 473 0014 03B0     		add	sp, sp, #12
 474              		.cfi_def_cfa_offset 4
 475              		@ sp needed
 476 0016 5DF804FB 		ldr	pc, [sp], #4
 477              		.cfi_endproc
 478              	.LFE530:
 479              		.size	_ZN6Stream4findEPcj, .-_ZN6Stream4findEPcj
 480 001a 00BF     		.section	.text._ZN6Stream9findUntilEPcS0_,"ax",%progbits
 481              		.align	1
 482              		.p2align 2,,3
 483              		.global	_ZN6Stream9findUntilEPcS0_
 484              		.syntax unified
 485              		.thumb
 486              		.thumb_func
 487              		.fpu fpv5-d16
ARM GAS  /tmp/cc3a3SJ3.s 			page 16


 488              		.type	_ZN6Stream9findUntilEPcS0_, %function
 489              	_ZN6Stream9findUntilEPcS0_:
 490              	.LFB531:
  90:../cores/arduino/Stream.cpp ****   return findUntil(target, strlen(target), terminator, strlen(terminator));
 491              		.loc 2 90 0
 492              		.cfi_startproc
 493              		@ args = 0, pretend = 0, frame = 0
 494              		@ frame_needed = 0, uses_anonymous_args = 0
 495              	.LVL50:
 496 0000 F0B5     		push	{r4, r5, r6, r7, lr}
 497              		.cfi_def_cfa_offset 20
 498              		.cfi_offset 4, -20
 499              		.cfi_offset 5, -16
 500              		.cfi_offset 6, -12
 501              		.cfi_offset 7, -8
 502              		.cfi_offset 14, -4
 503 0002 1546     		mov	r5, r2
 504 0004 0C46     		mov	r4, r1
 505 0006 83B0     		sub	sp, sp, #12
 506              		.cfi_def_cfa_offset 32
  90:../cores/arduino/Stream.cpp ****   return findUntil(target, strlen(target), terminator, strlen(terminator));
 507              		.loc 2 90 0
 508 0008 0646     		mov	r6, r0
  91:../cores/arduino/Stream.cpp **** }
 509              		.loc 2 91 0
 510 000a 0846     		mov	r0, r1
 511              	.LVL51:
 512 000c FFF7FEFF 		bl	strlen
 513              	.LVL52:
 514 0010 0746     		mov	r7, r0
 515 0012 2846     		mov	r0, r5
 516 0014 FFF7FEFF 		bl	strlen
 517              	.LVL53:
 518              	.LBB14:
 519              	.LBB15:
 103:../cores/arduino/Stream.cpp ****     return true;   // return true if target is a null string
 520              		.loc 2 103 0
 521 0018 2378     		ldrb	r3, [r4]	@ zero_extendqisi2
 522 001a 13B9     		cbnz	r3, .L63
 104:../cores/arduino/Stream.cpp ****   while( (c = timedRead()) > 0){
 523              		.loc 2 104 0
 524 001c 0120     		movs	r0, #1
 525              	.LVL54:
 526              	.LBE15:
 527              	.LBE14:
  92:../cores/arduino/Stream.cpp **** 
 528              		.loc 2 92 0
 529 001e 03B0     		add	sp, sp, #12
 530              		.cfi_remember_state
 531              		.cfi_def_cfa_offset 20
 532              		@ sp needed
 533 0020 F0BD     		pop	{r4, r5, r6, r7, pc}
 534              	.LVL55:
 535              	.L63:
 536              		.cfi_restore_state
 537              	.LBB17:
 538              	.LBB16:
ARM GAS  /tmp/cc3a3SJ3.s 			page 17


 539 0022 2B46     		mov	r3, r5
 540 0024 3A46     		mov	r2, r7
 541 0026 2146     		mov	r1, r4
 542 0028 0090     		str	r0, [sp]
 543 002a 3046     		mov	r0, r6
 544              	.LVL56:
 545 002c FFF7FEFF 		bl	_ZN6Stream9findUntilEPcjS0_j.part.0
 546              	.LVL57:
 547              	.LBE16:
 548              	.LBE17:
 549 0030 03B0     		add	sp, sp, #12
 550              		.cfi_def_cfa_offset 20
 551              		@ sp needed
 552 0032 F0BD     		pop	{r4, r5, r6, r7, pc}
 553              		.cfi_endproc
 554              	.LFE531:
 555              		.size	_ZN6Stream9findUntilEPcS0_, .-_ZN6Stream9findUntilEPcS0_
 556              		.section	.text._ZN6Stream4findEPc,"ax",%progbits
 557              		.align	1
 558              		.p2align 2,,3
 559              		.global	_ZN6Stream4findEPc
 560              		.syntax unified
 561              		.thumb
 562              		.thumb_func
 563              		.fpu fpv5-d16
 564              		.type	_ZN6Stream4findEPc, %function
 565              	_ZN6Stream4findEPc:
 566              	.LFB529:
  77:../cores/arduino/Stream.cpp ****   return findUntil(target, (char*)"");
 567              		.loc 2 77 0
 568              		.cfi_startproc
 569              		@ args = 0, pretend = 0, frame = 0
 570              		@ frame_needed = 0, uses_anonymous_args = 0
 571              		@ link register save eliminated.
 572              	.LVL58:
  78:../cores/arduino/Stream.cpp **** }
 573              		.loc 2 78 0
 574 0000 014A     		ldr	r2, .L65
 575 0002 FFF7FEBF 		b	_ZN6Stream9findUntilEPcS0_
 576              	.LVL59:
 577              	.L66:
 578 0006 00BF     		.align	2
 579              	.L65:
 580 0008 00000000 		.word	.LC0
 581              		.cfi_endproc
 582              	.LFE529:
 583              		.size	_ZN6Stream4findEPc, .-_ZN6Stream4findEPc
 584              		.section	.text._ZN6Stream9findUntilEPcjS0_j,"ax",%progbits
 585              		.align	1
 586              		.p2align 2,,3
 587              		.global	_ZN6Stream9findUntilEPcjS0_j
 588              		.syntax unified
 589              		.thumb
 590              		.thumb_func
 591              		.fpu fpv5-d16
 592              		.type	_ZN6Stream9findUntilEPcjS0_j, %function
 593              	_ZN6Stream9findUntilEPcjS0_j:
ARM GAS  /tmp/cc3a3SJ3.s 			page 18


 594              	.LFB532:
  98:../cores/arduino/Stream.cpp ****   size_t index = 0;  // maximum target string length is 64k bytes!
 595              		.loc 2 98 0
 596              		.cfi_startproc
 597              		@ args = 4, pretend = 0, frame = 0
 598              		@ frame_needed = 0, uses_anonymous_args = 0
 599              		@ link register save eliminated.
 600              	.LVL60:
 601 0000 30B4     		push	{r4, r5}
 602              		.cfi_def_cfa_offset 8
 603              		.cfi_offset 4, -8
 604              		.cfi_offset 5, -4
 103:../cores/arduino/Stream.cpp ****     return true;   // return true if target is a null string
 605              		.loc 2 103 0
 606 0002 0C78     		ldrb	r4, [r1]	@ zero_extendqisi2
 607 0004 14B1     		cbz	r4, .L68
 125:../cores/arduino/Stream.cpp **** 
 608              		.loc 2 125 0
 609 0006 30BC     		pop	{r4, r5}
 610              		.cfi_remember_state
 611              		.cfi_restore 5
 612              		.cfi_restore 4
 613              		.cfi_def_cfa_offset 0
 614              	.LVL61:
 615 0008 FFF7FEBF 		b	_ZN6Stream9findUntilEPcjS0_j.part.0
 616              	.LVL62:
 617              	.L68:
 618              		.cfi_restore_state
 619 000c 0120     		movs	r0, #1
 620              	.LVL63:
 621 000e 30BC     		pop	{r4, r5}
 622              		.cfi_restore 5
 623              		.cfi_restore 4
 624              		.cfi_def_cfa_offset 0
 625              	.LVL64:
 626 0010 7047     		bx	lr
 627              		.cfi_endproc
 628              	.LFE532:
 629              		.size	_ZN6Stream9findUntilEPcjS0_j, .-_ZN6Stream9findUntilEPcjS0_j
 630 0012 00BF     		.section	.text._ZN6Stream8parseIntEc,"ax",%progbits
 631              		.align	1
 632              		.p2align 2,,3
 633              		.global	_ZN6Stream8parseIntEc
 634              		.syntax unified
 635              		.thumb
 636              		.thumb_func
 637              		.fpu fpv5-d16
 638              		.type	_ZN6Stream8parseIntEc, %function
 639              	_ZN6Stream8parseIntEc:
 640              	.LFB534:
 139:../cores/arduino/Stream.cpp ****   boolean isNegative = false;
 641              		.loc 2 139 0
 642              		.cfi_startproc
 643              		@ args = 0, pretend = 0, frame = 0
 644              		@ frame_needed = 0, uses_anonymous_args = 0
 645              	.LVL65:
 646 0000 F8B5     		push	{r3, r4, r5, r6, r7, lr}
ARM GAS  /tmp/cc3a3SJ3.s 			page 19


 647              		.cfi_def_cfa_offset 24
 648              		.cfi_offset 3, -24
 649              		.cfi_offset 4, -20
 650              		.cfi_offset 5, -16
 651              		.cfi_offset 6, -12
 652              		.cfi_offset 7, -8
 653              		.cfi_offset 14, -4
 139:../cores/arduino/Stream.cpp ****   boolean isNegative = false;
 654              		.loc 2 139 0
 655 0002 0D46     		mov	r5, r1
 656 0004 0446     		mov	r4, r0
 143:../cores/arduino/Stream.cpp ****   // ignore non numeric leading characters
 657              		.loc 2 143 0
 658 0006 FFF7FEFF 		bl	_ZN6Stream13peekNextDigitEv
 659              	.LVL66:
 145:../cores/arduino/Stream.cpp ****   {
 660              		.loc 2 145 0
 661 000a 0028     		cmp	r0, #0
 147:../cores/arduino/Stream.cpp ****   }
 662              		.loc 2 147 0
 663 000c 4FF00006 		mov	r6, #0
 145:../cores/arduino/Stream.cpp ****   {
 664              		.loc 2 145 0
 665 0010 1DDB     		blt	.L70
 666 0012 3746     		mov	r7, r6
 667              	.LVL67:
 668              	.L80:
 152:../cores/arduino/Stream.cpp ****     {
 669              		.loc 2 152 0
 670 0014 A842     		cmp	r0, r5
 160:../cores/arduino/Stream.cpp ****     {
 671              		.loc 2 160 0
 672 0016 A0F13002 		sub	r2, r0, #48
 152:../cores/arduino/Stream.cpp ****     {
 673              		.loc 2 152 0
 674 001a 09D0     		beq	.L72
 156:../cores/arduino/Stream.cpp ****     {
 675              		.loc 2 156 0
 676 001c 2D28     		cmp	r0, #45
 677 001e 18D0     		beq	.L75
 162:../cores/arduino/Stream.cpp ****     }
 678              		.loc 2 162 0
 679 0020 06EB8603 		add	r3, r6, r6, lsl #2
 160:../cores/arduino/Stream.cpp ****     {
 680              		.loc 2 160 0
 681 0024 092A     		cmp	r2, #9
 162:../cores/arduino/Stream.cpp ****     }
 682              		.loc 2 162 0
 683 0026 00EB4300 		add	r0, r0, r3, lsl #1
 684              	.LVL68:
 160:../cores/arduino/Stream.cpp ****     {
 685              		.loc 2 160 0
 686 002a 01D8     		bhi	.L72
 162:../cores/arduino/Stream.cpp ****     }
 687              		.loc 2 162 0
 688 002c A0F13006 		sub	r6, r0, #48
 689              	.LVL69:
ARM GAS  /tmp/cc3a3SJ3.s 			page 20


 690              	.L72:
 164:../cores/arduino/Stream.cpp ****     c = timedPeek();
 691              		.loc 2 164 0
 692 0030 2368     		ldr	r3, [r4]
 693 0032 2046     		mov	r0, r4
 694 0034 5B69     		ldr	r3, [r3, #20]
 695 0036 9847     		blx	r3
 696              	.LVL70:
 165:../cores/arduino/Stream.cpp ****   }
 697              		.loc 2 165 0
 698 0038 2046     		mov	r0, r4
 699 003a FFF7FEFF 		bl	_ZN6Stream9timedPeekEv
 700              	.LVL71:
 167:../cores/arduino/Stream.cpp **** 
 701              		.loc 2 167 0
 702 003e A0F13003 		sub	r3, r0, #48
 703 0042 092B     		cmp	r3, #9
 704 0044 E6D9     		bls	.L80
 705 0046 A842     		cmp	r0, r5
 706 0048 E4D0     		beq	.L80
 169:../cores/arduino/Stream.cpp ****   {
 707              		.loc 2 169 0
 708 004a 07B1     		cbz	r7, .L70
 171:../cores/arduino/Stream.cpp ****   }
 709              		.loc 2 171 0
 710 004c 7642     		negs	r6, r6
 711              	.LVL72:
 712              	.L70:
 174:../cores/arduino/Stream.cpp **** 
 713              		.loc 2 174 0
 714 004e 3046     		mov	r0, r6
 715              	.LVL73:
 716 0050 F8BD     		pop	{r3, r4, r5, r6, r7, pc}
 717              	.LVL74:
 718              	.L75:
 158:../cores/arduino/Stream.cpp ****     }
 719              		.loc 2 158 0
 720 0052 0127     		movs	r7, #1
 721 0054 ECE7     		b	.L72
 722              		.cfi_endproc
 723              	.LFE534:
 724              		.size	_ZN6Stream8parseIntEc, .-_ZN6Stream8parseIntEc
 725 0056 00BF     		.section	.text._ZN6Stream8parseIntEv,"ax",%progbits
 726              		.align	1
 727              		.p2align 2,,3
 728              		.global	_ZN6Stream8parseIntEv
 729              		.syntax unified
 730              		.thumb
 731              		.thumb_func
 732              		.fpu fpv5-d16
 733              		.type	_ZN6Stream8parseIntEv, %function
 734              	_ZN6Stream8parseIntEv:
 735              	.LFB533:
 132:../cores/arduino/Stream.cpp ****   return parseInt(NO_SKIP_CHAR); // terminate on first non-digit character (or timeout)
 736              		.loc 2 132 0
 737              		.cfi_startproc
 738              		@ args = 0, pretend = 0, frame = 0
ARM GAS  /tmp/cc3a3SJ3.s 			page 21


 739              		@ frame_needed = 0, uses_anonymous_args = 0
 740              		@ link register save eliminated.
 741              	.LVL75:
 133:../cores/arduino/Stream.cpp **** }
 742              		.loc 2 133 0
 743 0000 0121     		movs	r1, #1
 744 0002 FFF7FEBF 		b	_ZN6Stream8parseIntEc
 745              	.LVL76:
 746              		.cfi_endproc
 747              	.LFE533:
 748              		.size	_ZN6Stream8parseIntEv, .-_ZN6Stream8parseIntEv
 749 0006 00BF     		.section	.text._ZN6Stream10parseFloatEc,"ax",%progbits
 750              		.align	1
 751              		.p2align 2,,3
 752              		.global	_ZN6Stream10parseFloatEc
 753              		.syntax unified
 754              		.thumb
 755              		.thumb_func
 756              		.fpu fpv5-d16
 757              		.type	_ZN6Stream10parseFloatEc, %function
 758              	_ZN6Stream10parseFloatEc:
 759              	.LFB536:
 186:../cores/arduino/Stream.cpp ****   boolean isNegative = false;
 760              		.loc 2 186 0
 761              		.cfi_startproc
 762              		@ args = 0, pretend = 0, frame = 0
 763              		@ frame_needed = 0, uses_anonymous_args = 0
 764              	.LVL77:
 765 0000 2DE9F041 		push	{r4, r5, r6, r7, r8, lr}
 766              		.cfi_def_cfa_offset 24
 767              		.cfi_offset 4, -24
 768              		.cfi_offset 5, -20
 769              		.cfi_offset 6, -16
 770              		.cfi_offset 7, -12
 771              		.cfi_offset 8, -8
 772              		.cfi_offset 14, -4
 773 0004 2DED028B 		vpush.64	{d8}
 774              		.cfi_def_cfa_offset 32
 775              		.cfi_offset 80, -32
 776              		.cfi_offset 81, -28
 186:../cores/arduino/Stream.cpp ****   boolean isNegative = false;
 777              		.loc 2 186 0
 778 0008 0D46     		mov	r5, r1
 779 000a 0446     		mov	r4, r0
 192:../cores/arduino/Stream.cpp ****     // ignore non numeric leading characters
 780              		.loc 2 192 0
 781 000c FFF7FEFF 		bl	_ZN6Stream13peekNextDigitEv
 782              	.LVL78:
 194:../cores/arduino/Stream.cpp ****   {
 783              		.loc 2 194 0
 784 0010 0028     		cmp	r0, #0
 785 0012 41DB     		blt	.L92
 786 0014 0026     		movs	r6, #0
 787 0016 B7EE008A 		vmov.f32	s16, #1.0e+0
 218:../cores/arduino/Stream.cpp ****       }
 788              		.loc 2 218 0
 789 001a DFED228A 		vldr.32	s17, .L108
ARM GAS  /tmp/cc3a3SJ3.s 			page 22


 194:../cores/arduino/Stream.cpp ****   {
 790              		.loc 2 194 0
 791 001e 3746     		mov	r7, r6
 792 0020 B046     		mov	r8, r6
 793              	.LVL79:
 794              	.L101:
 201:../cores/arduino/Stream.cpp ****     {
 795              		.loc 2 201 0
 796 0022 A842     		cmp	r0, r5
 797 0024 11D0     		beq	.L88
 205:../cores/arduino/Stream.cpp ****     {
 798              		.loc 2 205 0
 799 0026 2D28     		cmp	r0, #45
 213:../cores/arduino/Stream.cpp ****     {
 800              		.loc 2 213 0
 801 0028 A0F13002 		sub	r2, r0, #48
 205:../cores/arduino/Stream.cpp ****     {
 802              		.loc 2 205 0
 803 002c 29D0     		beq	.L93
 209:../cores/arduino/Stream.cpp ****     {
 804              		.loc 2 209 0
 805 002e 2E28     		cmp	r0, #46
 806 0030 2AD0     		beq	.L94
 215:../cores/arduino/Stream.cpp ****       if (isFraction)
 807              		.loc 2 215 0
 808 0032 06EB8603 		add	r3, r6, r6, lsl #2
 213:../cores/arduino/Stream.cpp ****     {
 809              		.loc 2 213 0
 810 0036 092A     		cmp	r2, #9
 215:../cores/arduino/Stream.cpp ****       if (isFraction)
 811              		.loc 2 215 0
 812 0038 00EB4300 		add	r0, r0, r3, lsl #1
 813              	.LVL80:
 213:../cores/arduino/Stream.cpp ****     {
 814              		.loc 2 213 0
 815 003c 05D8     		bhi	.L88
 215:../cores/arduino/Stream.cpp ****       if (isFraction)
 816              		.loc 2 215 0
 817 003e A0F13006 		sub	r6, r0, #48
 818              	.LVL81:
 216:../cores/arduino/Stream.cpp ****       {
 819              		.loc 2 216 0
 820 0042 17B1     		cbz	r7, .L88
 218:../cores/arduino/Stream.cpp ****       }
 821              		.loc 2 218 0
 822 0044 28EE288A 		vmul.f32	s16, s16, s17
 823              	.LVL82:
 824 0048 0127     		movs	r7, #1
 825              	.LVL83:
 826              	.L88:
 221:../cores/arduino/Stream.cpp ****     c = timedPeek();
 827              		.loc 2 221 0
 828 004a 2368     		ldr	r3, [r4]
 829 004c 2046     		mov	r0, r4
 830 004e 5B69     		ldr	r3, [r3, #20]
 831 0050 9847     		blx	r3
 832              	.LVL84:
ARM GAS  /tmp/cc3a3SJ3.s 			page 23


 222:../cores/arduino/Stream.cpp ****   }
 833              		.loc 2 222 0
 834 0052 2046     		mov	r0, r4
 835 0054 FFF7FEFF 		bl	_ZN6Stream9timedPeekEv
 836              	.LVL85:
 224:../cores/arduino/Stream.cpp **** 
 837              		.loc 2 224 0
 838 0058 8542     		cmp	r5, r0
 839 005a 18BF     		it	ne
 840 005c 2E28     		cmpne	r0, #46
 841 005e A0F13003 		sub	r3, r0, #48
 842 0062 DED0     		beq	.L101
 843 0064 092B     		cmp	r3, #9
 844 0066 DCD9     		bls	.L101
 226:../cores/arduino/Stream.cpp ****   {
 845              		.loc 2 226 0
 846 0068 B8F1000F 		cmp	r8, #0
 847 006c 00D0     		beq	.L90
 228:../cores/arduino/Stream.cpp ****   }
 848              		.loc 2 228 0
 849 006e 7642     		negs	r6, r6
 850              	.LVL86:
 851              	.L90:
 232:../cores/arduino/Stream.cpp ****   }
 852              		.loc 2 232 0
 853 0070 07EE906A 		vmov	s15, r6	@ int
 854 0074 B8EEE70A 		vcvt.f32.s32	s0, s15
 230:../cores/arduino/Stream.cpp ****   {
 855              		.loc 2 230 0
 856 0078 47B9     		cbnz	r7, .L107
 238:../cores/arduino/Stream.cpp **** 
 857              		.loc 2 238 0
 858 007a BDEC028B 		vldm	sp!, {d8}
 859              		.cfi_remember_state
 860              		.cfi_restore 80
 861              		.cfi_restore 81
 862              		.cfi_def_cfa_offset 24
 863              	.LVL87:
 864 007e BDE8F081 		pop	{r4, r5, r6, r7, r8, pc}
 865              	.LVL88:
 866              	.L93:
 867              		.cfi_restore_state
 207:../cores/arduino/Stream.cpp ****     }
 868              		.loc 2 207 0
 869 0082 4FF00108 		mov	r8, #1
 870 0086 E0E7     		b	.L88
 871              	.L94:
 211:../cores/arduino/Stream.cpp ****     }
 872              		.loc 2 211 0
 873 0088 0127     		movs	r7, #1
 874              	.LVL89:
 875 008a DEE7     		b	.L88
 876              	.LVL90:
 877              	.L107:
 232:../cores/arduino/Stream.cpp ****   }
 878              		.loc 2 232 0
 879 008c 20EE080A 		vmul.f32	s0, s0, s16
ARM GAS  /tmp/cc3a3SJ3.s 			page 24


 238:../cores/arduino/Stream.cpp **** 
 880              		.loc 2 238 0
 881 0090 BDEC028B 		vldm	sp!, {d8}
 882              		.cfi_remember_state
 883              		.cfi_restore 80
 884              		.cfi_restore 81
 885              		.cfi_def_cfa_offset 24
 886              	.LVL91:
 887 0094 BDE8F081 		pop	{r4, r5, r6, r7, r8, pc}
 888              	.LVL92:
 889              	.L92:
 890              		.cfi_restore_state
 891 0098 BDEC028B 		vldm	sp!, {d8}
 892              		.cfi_restore 80
 893              		.cfi_restore 81
 894              		.cfi_def_cfa_offset 24
 196:../cores/arduino/Stream.cpp ****   }
 895              		.loc 2 196 0
 896 009c 9FED020A 		vldr.32	s0, .L108+4
 238:../cores/arduino/Stream.cpp **** 
 897              		.loc 2 238 0
 898 00a0 BDE8F081 		pop	{r4, r5, r6, r7, r8, pc}
 899              	.LVL93:
 900              	.L109:
 901              		.align	2
 902              	.L108:
 903 00a4 CDCCCC3D 		.word	1036831949
 904 00a8 00000000 		.word	0
 905              		.cfi_endproc
 906              	.LFE536:
 907              		.size	_ZN6Stream10parseFloatEc, .-_ZN6Stream10parseFloatEc
 908              		.section	.text._ZN6Stream10parseFloatEv,"ax",%progbits
 909              		.align	1
 910              		.p2align 2,,3
 911              		.global	_ZN6Stream10parseFloatEv
 912              		.syntax unified
 913              		.thumb
 914              		.thumb_func
 915              		.fpu fpv5-d16
 916              		.type	_ZN6Stream10parseFloatEv, %function
 917              	_ZN6Stream10parseFloatEv:
 918              	.LFB535:
 179:../cores/arduino/Stream.cpp ****   return parseFloat(NO_SKIP_CHAR);
 919              		.loc 2 179 0
 920              		.cfi_startproc
 921              		@ args = 0, pretend = 0, frame = 0
 922              		@ frame_needed = 0, uses_anonymous_args = 0
 923              		@ link register save eliminated.
 924              	.LVL94:
 180:../cores/arduino/Stream.cpp **** }
 925              		.loc 2 180 0
 926 0000 0121     		movs	r1, #1
 927 0002 FFF7FEBF 		b	_ZN6Stream10parseFloatEc
 928              	.LVL95:
 929              		.cfi_endproc
 930              	.LFE535:
 931              		.size	_ZN6Stream10parseFloatEv, .-_ZN6Stream10parseFloatEv
ARM GAS  /tmp/cc3a3SJ3.s 			page 25


 932 0006 00BF     		.section	.text._ZN6Stream14readBytesUntilEcPcj,"ax",%progbits
 933              		.align	1
 934              		.p2align 2,,3
 935              		.global	_ZN6Stream14readBytesUntilEcPcj
 936              		.syntax unified
 937              		.thumb
 938              		.thumb_func
 939              		.fpu fpv5-d16
 940              		.type	_ZN6Stream14readBytesUntilEcPcj, %function
 941              	_ZN6Stream14readBytesUntilEcPcj:
 942              	.LFB538:
 257:../cores/arduino/Stream.cpp **** 
 258:../cores/arduino/Stream.cpp **** 
 259:../cores/arduino/Stream.cpp **** // as readBytes with terminator character
 260:../cores/arduino/Stream.cpp **** // terminates if length characters have been read, timeout, or if the terminator character  detecte
 261:../cores/arduino/Stream.cpp **** // returns the number of characters placed in the buffer (0 means no valid data found)
 262:../cores/arduino/Stream.cpp **** 
 263:../cores/arduino/Stream.cpp **** size_t Stream::readBytesUntil(char terminator, char *buffer, size_t length)
 264:../cores/arduino/Stream.cpp **** {
 943              		.loc 2 264 0
 944              		.cfi_startproc
 945              		@ args = 0, pretend = 0, frame = 0
 946              		@ frame_needed = 0, uses_anonymous_args = 0
 947              	.LVL96:
 948 0000 2DE9F041 		push	{r4, r5, r6, r7, r8, lr}
 949              		.cfi_def_cfa_offset 24
 950              		.cfi_offset 4, -24
 951              		.cfi_offset 5, -20
 952              		.cfi_offset 6, -16
 953              		.cfi_offset 7, -12
 954              		.cfi_offset 8, -8
 955              		.cfi_offset 14, -4
 265:../cores/arduino/Stream.cpp ****   if (length < 1) return 0;
 956              		.loc 2 265 0
 957 0004 1E46     		mov	r6, r3
 958 0006 9BB1     		cbz	r3, .L114
 959 0008 0746     		mov	r7, r0
 960 000a 8846     		mov	r8, r1
 961 000c 1546     		mov	r5, r2
 962 000e 0024     		movs	r4, #0
 963 0010 06E0     		b	.L113
 964              	.LVL97:
 965              	.L117:
 966              	.LBB18:
 266:../cores/arduino/Stream.cpp ****   size_t index = 0;
 267:../cores/arduino/Stream.cpp ****   while (index < length) {
 268:../cores/arduino/Stream.cpp ****     int c = timedRead();
 269:../cores/arduino/Stream.cpp ****     if (c < 0 || c == terminator) break;
 967              		.loc 2 269 0 discriminator 1
 968 0012 4045     		cmp	r0, r8
 969 0014 09D0     		beq	.L111
 270:../cores/arduino/Stream.cpp ****     *buffer++ = (char)c;
 271:../cores/arduino/Stream.cpp ****     index++;
 970              		.loc 2 271 0
 971 0016 0134     		adds	r4, r4, #1
 972              	.LVL98:
 270:../cores/arduino/Stream.cpp ****     *buffer++ = (char)c;
ARM GAS  /tmp/cc3a3SJ3.s 			page 26


 973              		.loc 2 270 0
 974 0018 05F8010B 		strb	r0, [r5], #1
 975              	.LVL99:
 976              	.LBE18:
 267:../cores/arduino/Stream.cpp ****     int c = timedRead();
 977              		.loc 2 267 0
 978 001c A642     		cmp	r6, r4
 979 001e 04D0     		beq	.L111
 980              	.LVL100:
 981              	.L113:
 982              	.LBB19:
 268:../cores/arduino/Stream.cpp ****     if (c < 0 || c == terminator) break;
 983              		.loc 2 268 0
 984 0020 3846     		mov	r0, r7
 985 0022 FFF7FEFF 		bl	_ZN6Stream9timedReadEv
 986              	.LVL101:
 269:../cores/arduino/Stream.cpp ****     *buffer++ = (char)c;
 987              		.loc 2 269 0
 988 0026 0028     		cmp	r0, #0
 989 0028 F3DA     		bge	.L117
 990              	.L111:
 991              	.LBE19:
 272:../cores/arduino/Stream.cpp ****   }
 273:../cores/arduino/Stream.cpp ****   return index; // return number of characters, not including null terminator
 274:../cores/arduino/Stream.cpp **** }
 992              		.loc 2 274 0
 993 002a 2046     		mov	r0, r4
 994              	.LVL102:
 995 002c BDE8F081 		pop	{r4, r5, r6, r7, r8, pc}
 996              	.LVL103:
 997              	.L114:
 265:../cores/arduino/Stream.cpp ****   size_t index = 0;
 998              		.loc 2 265 0
 999 0030 1C46     		mov	r4, r3
 1000              		.loc 2 274 0
 1001 0032 2046     		mov	r0, r4
 1002              	.LVL104:
 1003 0034 BDE8F081 		pop	{r4, r5, r6, r7, r8, pc}
 1004              		.cfi_endproc
 1005              	.LFE538:
 1006              		.size	_ZN6Stream14readBytesUntilEcPcj, .-_ZN6Stream14readBytesUntilEcPcj
 1007              		.global	_ZTV6Stream
 1008              		.section	.bss._ZL28cpu_irq_prev_interrupt_state,"aw",%nobits
 1009              		.type	_ZL28cpu_irq_prev_interrupt_state, %object
 1010              		.size	_ZL28cpu_irq_prev_interrupt_state, 1
 1011              	_ZL28cpu_irq_prev_interrupt_state:
 1012 0000 00       		.space	1
 1013              		.section	.bss._ZL32cpu_irq_critical_section_counter,"aw",%nobits
 1014              		.align	2
 1015              		.type	_ZL32cpu_irq_critical_section_counter, %object
 1016              		.size	_ZL32cpu_irq_critical_section_counter, 4
 1017              	_ZL32cpu_irq_critical_section_counter:
 1018 0000 00000000 		.space	4
 1019              		.section	.rodata._ZN6Stream4findEPc.str1.4,"aMS",%progbits,1
 1020              		.align	2
 1021              	.LC0:
 1022 0000 00       		.ascii	"\000"
ARM GAS  /tmp/cc3a3SJ3.s 			page 27


 1023              		.section	.rodata._ZTV6Stream,"a",%progbits
 1024              		.align	2
 1025              		.type	_ZTV6Stream, %object
 1026              		.size	_ZTV6Stream, 48
 1027              	_ZTV6Stream:
 1028 0000 00000000 		.word	0
 1029 0004 00000000 		.word	0
 1030 0008 00000000 		.word	0
 1031 000c 00000000 		.word	0
 1032 0010 00000000 		.word	__cxa_pure_virtual
 1033 0014 00000000 		.word	_ZN5Print5writeEPKhj
 1034 0018 00000000 		.word	__cxa_pure_virtual
 1035 001c 00000000 		.word	__cxa_pure_virtual
 1036 0020 00000000 		.word	__cxa_pure_virtual
 1037 0024 00000000 		.word	__cxa_pure_virtual
 1038 0028 00000000 		.word	_ZNK6Stream8canWriteEv
 1039 002c 00000000 		.word	_ZN6Stream9readBytesEPcj
 1040              		.text
 1041              	.Letext0:
 1042              		.file 3 "/usr/lib/gcc/arm-none-eabi/6.3.1/include/stddef.h"
 1043              		.file 4 "/usr/include/newlib/machine/_default_types.h"
 1044              		.file 5 "/usr/include/newlib/sys/_stdint.h"
 1045              		.file 6 "/usr/include/newlib/stdint.h"
 1046              		.file 7 "/home/torbjorn/eclipse-workspace/CoreNG/asf/thirdparty/CMSIS/Include/core_cm7.h"
 1047              		.file 8 "/home/torbjorn/eclipse-workspace/CoreNG/variants/same70/system_same70.h"
 1048              		.file 9 "/home/torbjorn/eclipse-workspace/CoreNG/asf/sam/utils/cmsis/same70/include/component/pio.
 1049              		.file 10 "/usr/include/newlib/sys/lock.h"
 1050              		.file 11 "/usr/include/newlib/sys/_types.h"
 1051              		.file 12 "/usr/include/newlib/sys/reent.h"
 1052              		.file 13 "/usr/include/newlib/c++/6.3.1/cstdlib"
 1053              		.file 14 "/usr/include/newlib/c++/6.3.1/cmath"
 1054              		.file 15 "/usr/include/newlib/c++/6.3.1/cstdint"
 1055              		.file 16 "/usr/include/newlib/c++/6.3.1/cstddef"
 1056              		.file 17 "/usr/include/newlib/c++/6.3.1/arm-none-eabi/thumb/v7e-m/fpv5/hard/bits/c++config.h"
 1057              		.file 18 "/usr/include/newlib/stdlib.h"
 1058              		.file 19 "/usr/include/newlib/c++/6.3.1/stdlib.h"
 1059              		.file 20 "/home/torbjorn/eclipse-workspace/CoreNG/asf/common/utils/interrupt/interrupt_sam_nvic.h"
 1060              		.file 21 "/usr/include/newlib/math.h"
 1061              		.file 22 "/usr/include/newlib/c++/6.3.1/math.h"
 1062              		.file 23 "/home/torbjorn/eclipse-workspace/CoreNG/asf/sam/drivers/pio/pio.h"
 1063              		.file 24 "../cores/arduino/wiring_constants.h"
 1064              		.file 25 "../cores/arduino/Core.h"
 1065              		.file 26 "/usr/include/newlib/ctype.h"
 1066              		.file 27 "/home/torbjorn/eclipse-workspace/CoreNG/cores/arduino/RingBuffer.h"
 1067              		.file 28 "/home/torbjorn/eclipse-workspace/CoreNG/cores/arduino/UARTClass.h"
 1068              		.file 29 "/usr/include/newlib/time.h"
 1069              		.file 30 "/home/torbjorn/eclipse-workspace/CoreNG/variants/same70/variant.h"
 1070              		.file 31 "../cores/arduino/USB/USBSerial.h"
 1071              		.file 32 "../cores/arduino/Print.h"
 1072              		.file 33 "/usr/include/newlib/string.h"
 1073              		.file 34 "../cores/arduino/wiring.h"
 1074              		.file 35 "<built-in>"