ARM GAS  /tmp/ccizFQRG.s 			page 1


   1              		.cpu cortex-m7
   2              		.eabi_attribute 28, 1
   3              		.eabi_attribute 20, 1
   4              		.eabi_attribute 21, 1
   5              		.eabi_attribute 23, 3
   6              		.eabi_attribute 24, 1
   7              		.eabi_attribute 25, 1
   8              		.eabi_attribute 26, 1
   9              		.eabi_attribute 30, 2
  10              		.eabi_attribute 34, 1
  11              		.eabi_attribute 18, 4
  12              		.file	"sysclk.c"
  13              		.text
  14              	.Ltext0:
  15              		.cfi_sections	.debug_frame
  16              		.section	.text.sysclk_set_prescalers,"ax",%progbits
  17              		.align	1
  18              		.p2align 2,,3
  19              		.global	sysclk_set_prescalers
  20              		.syntax unified
  21              		.thumb
  22              		.thumb_func
  23              		.fpu fpv5-d16
  24              		.type	sysclk_set_prescalers, %function
  25              	sysclk_set_prescalers:
  26              	.LFB162:
  27              		.file 1 "../asf/common/services/clock/same70/sysclk.c"
   1:../asf/common/services/clock/same70/sysclk.c **** /**
   2:../asf/common/services/clock/same70/sysclk.c ****  * \file
   3:../asf/common/services/clock/same70/sysclk.c ****  *
   4:../asf/common/services/clock/same70/sysclk.c ****  * \brief Chip-specific system clock management functions.
   5:../asf/common/services/clock/same70/sysclk.c ****  *
   6:../asf/common/services/clock/same70/sysclk.c ****  * Copyright (c) 2015 Atmel Corporation. All rights reserved.
   7:../asf/common/services/clock/same70/sysclk.c ****  *
   8:../asf/common/services/clock/same70/sysclk.c ****  * \asf_license_start
   9:../asf/common/services/clock/same70/sysclk.c ****  *
  10:../asf/common/services/clock/same70/sysclk.c ****  * \page License
  11:../asf/common/services/clock/same70/sysclk.c ****  *
  12:../asf/common/services/clock/same70/sysclk.c ****  * Redistribution and use in source and binary forms, with or without
  13:../asf/common/services/clock/same70/sysclk.c ****  * modification, are permitted provided that the following conditions are met:
  14:../asf/common/services/clock/same70/sysclk.c ****  *
  15:../asf/common/services/clock/same70/sysclk.c ****  * 1. Redistributions of source code must retain the above copyright notice,
  16:../asf/common/services/clock/same70/sysclk.c ****  *    this list of conditions and the following disclaimer.
  17:../asf/common/services/clock/same70/sysclk.c ****  *
  18:../asf/common/services/clock/same70/sysclk.c ****  * 2. Redistributions in binary form must reproduce the above copyright notice,
  19:../asf/common/services/clock/same70/sysclk.c ****  *    this list of conditions and the following disclaimer in the documentation
  20:../asf/common/services/clock/same70/sysclk.c ****  *    and/or other materials provided with the distribution.
  21:../asf/common/services/clock/same70/sysclk.c ****  *
  22:../asf/common/services/clock/same70/sysclk.c ****  * 3. The name of Atmel may not be used to endorse or promote products derived
  23:../asf/common/services/clock/same70/sysclk.c ****  *    from this software without specific prior written permission.
  24:../asf/common/services/clock/same70/sysclk.c ****  *
  25:../asf/common/services/clock/same70/sysclk.c ****  * 4. This software may only be redistributed and used in connection with an
  26:../asf/common/services/clock/same70/sysclk.c ****  *    Atmel microcontroller product.
  27:../asf/common/services/clock/same70/sysclk.c ****  *
  28:../asf/common/services/clock/same70/sysclk.c ****  * THIS SOFTWARE IS PROVIDED BY ATMEL "AS IS" AND ANY EXPRESS OR IMPLIED
  29:../asf/common/services/clock/same70/sysclk.c ****  * WARRANTIES, INCLUDING, BUT NOT LIMITED TO, THE IMPLIED WARRANTIES OF
  30:../asf/common/services/clock/same70/sysclk.c ****  * MERCHANTABILITY, FITNESS FOR A PARTICULAR PURPOSE AND NON-INFRINGEMENT ARE
ARM GAS  /tmp/ccizFQRG.s 			page 2


  31:../asf/common/services/clock/same70/sysclk.c ****  * EXPRESSLY AND SPECIFICALLY DISCLAIMED. IN NO EVENT SHALL ATMEL BE LIABLE FOR
  32:../asf/common/services/clock/same70/sysclk.c ****  * ANY DIRECT, INDIRECT, INCIDENTAL, SPECIAL, EXEMPLARY, OR CONSEQUENTIAL
  33:../asf/common/services/clock/same70/sysclk.c ****  * DAMAGES (INCLUDING, BUT NOT LIMITED TO, PROCUREMENT OF SUBSTITUTE GOODS
  34:../asf/common/services/clock/same70/sysclk.c ****  * OR SERVICES; LOSS OF USE, DATA, OR PROFITS; OR BUSINESS INTERRUPTION)
  35:../asf/common/services/clock/same70/sysclk.c ****  * HOWEVER CAUSED AND ON ANY THEORY OF LIABILITY, WHETHER IN CONTRACT,
  36:../asf/common/services/clock/same70/sysclk.c ****  * STRICT LIABILITY, OR TORT (INCLUDING NEGLIGENCE OR OTHERWISE) ARISING IN
  37:../asf/common/services/clock/same70/sysclk.c ****  * ANY WAY OUT OF THE USE OF THIS SOFTWARE, EVEN IF ADVISED OF THE
  38:../asf/common/services/clock/same70/sysclk.c ****  * POSSIBILITY OF SUCH DAMAGE.
  39:../asf/common/services/clock/same70/sysclk.c ****  *
  40:../asf/common/services/clock/same70/sysclk.c ****  * \asf_license_stop
  41:../asf/common/services/clock/same70/sysclk.c ****  *
  42:../asf/common/services/clock/same70/sysclk.c ****  */
  43:../asf/common/services/clock/same70/sysclk.c **** /*
  44:../asf/common/services/clock/same70/sysclk.c ****  * Support and FAQ: visit <a href="http://www.atmel.com/design-support/">Atmel Support</a>
  45:../asf/common/services/clock/same70/sysclk.c ****  */
  46:../asf/common/services/clock/same70/sysclk.c **** 
  47:../asf/common/services/clock/same70/sysclk.c **** #include <sysclk.h>
  48:../asf/common/services/clock/same70/sysclk.c **** 
  49:../asf/common/services/clock/same70/sysclk.c **** /// @cond 0
  50:../asf/common/services/clock/same70/sysclk.c **** /**INDENT-OFF**/
  51:../asf/common/services/clock/same70/sysclk.c **** #ifdef __cplusplus
  52:../asf/common/services/clock/same70/sysclk.c **** extern "C" {
  53:../asf/common/services/clock/same70/sysclk.c **** #endif
  54:../asf/common/services/clock/same70/sysclk.c **** /**INDENT-ON**/
  55:../asf/common/services/clock/same70/sysclk.c **** /// @endcond
  56:../asf/common/services/clock/same70/sysclk.c **** 
  57:../asf/common/services/clock/same70/sysclk.c **** /**
  58:../asf/common/services/clock/same70/sysclk.c ****  * \weakgroup sysclk_group
  59:../asf/common/services/clock/same70/sysclk.c ****  * @{
  60:../asf/common/services/clock/same70/sysclk.c ****  */
  61:../asf/common/services/clock/same70/sysclk.c **** 
  62:../asf/common/services/clock/same70/sysclk.c **** #if defined(CONFIG_SYSCLK_DEFAULT_RETURNS_SLOW_OSC)
  63:../asf/common/services/clock/same70/sysclk.c **** /**
  64:../asf/common/services/clock/same70/sysclk.c ****  * \brief boolean signalling that the sysclk_init is done.
  65:../asf/common/services/clock/same70/sysclk.c ****  */
  66:../asf/common/services/clock/same70/sysclk.c **** uint32_t sysclk_initialized = 0;
  67:../asf/common/services/clock/same70/sysclk.c **** #endif
  68:../asf/common/services/clock/same70/sysclk.c **** 
  69:../asf/common/services/clock/same70/sysclk.c **** /**
  70:../asf/common/services/clock/same70/sysclk.c ****  * \brief Set system clock prescaler configuration
  71:../asf/common/services/clock/same70/sysclk.c ****  *
  72:../asf/common/services/clock/same70/sysclk.c ****  * This function will change the system clock prescaler configuration to
  73:../asf/common/services/clock/same70/sysclk.c ****  * match the parameters.
  74:../asf/common/services/clock/same70/sysclk.c ****  *
  75:../asf/common/services/clock/same70/sysclk.c ****  * \note The parameters to this function are device-specific.
  76:../asf/common/services/clock/same70/sysclk.c ****  *
  77:../asf/common/services/clock/same70/sysclk.c ****  * \param ul_pres The CPU clock will be divided by \f$2^{mck\_pres}\f$
  78:../asf/common/services/clock/same70/sysclk.c ****  */
  79:../asf/common/services/clock/same70/sysclk.c **** void sysclk_set_prescalers(uint32_t ul_pres)
  80:../asf/common/services/clock/same70/sysclk.c **** {
  28              		.loc 1 80 0
  29              		.cfi_startproc
  30              		@ args = 0, pretend = 0, frame = 0
  31              		@ frame_needed = 0, uses_anonymous_args = 0
  32              	.LVL0:
  33 0000 08B5     		push	{r3, lr}
  34              		.cfi_def_cfa_offset 8
ARM GAS  /tmp/ccizFQRG.s 			page 3


  35              		.cfi_offset 3, -8
  36              		.cfi_offset 14, -4
  81:../asf/common/services/clock/same70/sysclk.c **** 	pmc_mck_set_prescaler(ul_pres);
  37              		.loc 1 81 0
  38 0002 FFF7FEFF 		bl	pmc_mck_set_prescaler
  39              	.LVL1:
  82:../asf/common/services/clock/same70/sysclk.c **** 	SystemCoreClockUpdate();
  83:../asf/common/services/clock/same70/sysclk.c **** }
  40              		.loc 1 83 0
  41 0006 BDE80840 		pop	{r3, lr}
  42              		.cfi_restore 14
  43              		.cfi_restore 3
  44              		.cfi_def_cfa_offset 0
  82:../asf/common/services/clock/same70/sysclk.c **** 	SystemCoreClockUpdate();
  45              		.loc 1 82 0
  46 000a FFF7FEBF 		b	SystemCoreClockUpdate
  47              	.LVL2:
  48              		.cfi_endproc
  49              	.LFE162:
  50              		.size	sysclk_set_prescalers, .-sysclk_set_prescalers
  51 000e 00BF     		.section	.text.sysclk_set_source,"ax",%progbits
  52              		.align	1
  53              		.p2align 2,,3
  54              		.global	sysclk_set_source
  55              		.syntax unified
  56              		.thumb
  57              		.thumb_func
  58              		.fpu fpv5-d16
  59              		.type	sysclk_set_source, %function
  60              	sysclk_set_source:
  61              	.LFB163:
  84:../asf/common/services/clock/same70/sysclk.c **** 
  85:../asf/common/services/clock/same70/sysclk.c **** /**
  86:../asf/common/services/clock/same70/sysclk.c ****  * \brief Change the source of the main system clock.
  87:../asf/common/services/clock/same70/sysclk.c ****  *
  88:../asf/common/services/clock/same70/sysclk.c ****  * \param ul_src The new system clock source. Must be one of the constants
  89:../asf/common/services/clock/same70/sysclk.c ****  * from the <em>System Clock Sources</em> section.
  90:../asf/common/services/clock/same70/sysclk.c ****  */
  91:../asf/common/services/clock/same70/sysclk.c **** void sysclk_set_source(uint32_t ul_src)
  92:../asf/common/services/clock/same70/sysclk.c **** {
  62              		.loc 1 92 0
  63              		.cfi_startproc
  64              		@ args = 0, pretend = 0, frame = 0
  65              		@ frame_needed = 0, uses_anonymous_args = 0
  66              	.LVL3:
  67 0000 08B5     		push	{r3, lr}
  68              		.cfi_def_cfa_offset 8
  69              		.cfi_offset 3, -8
  70              		.cfi_offset 14, -4
  93:../asf/common/services/clock/same70/sysclk.c **** 	switch (ul_src) {
  71              		.loc 1 93 0
  72 0002 0928     		cmp	r0, #9
  73 0004 09D8     		bhi	.L4
  74 0006 DFE800F0 		tbb	[pc, r0]
  75              	.L6:
  76 000a 1A       		.byte	(.L5-.L6)/2
  77 000b 1A       		.byte	(.L5-.L6)/2
ARM GAS  /tmp/ccizFQRG.s 			page 4


  78 000c 1A       		.byte	(.L5-.L6)/2
  79 000d 13       		.byte	(.L7-.L6)/2
  80 000e 13       		.byte	(.L7-.L6)/2
  81 000f 13       		.byte	(.L7-.L6)/2
  82 0010 13       		.byte	(.L7-.L6)/2
  83 0011 13       		.byte	(.L7-.L6)/2
  84 0012 0C       		.byte	(.L8-.L6)/2
  85 0013 05       		.byte	(.L9-.L6)/2
  86              		.p2align 1
  87              	.L9:
  94:../asf/common/services/clock/same70/sysclk.c **** 	case SYSCLK_SRC_SLCK_RC:
  95:../asf/common/services/clock/same70/sysclk.c **** 	case SYSCLK_SRC_SLCK_XTAL:
  96:../asf/common/services/clock/same70/sysclk.c **** 	case SYSCLK_SRC_SLCK_BYPASS:
  97:../asf/common/services/clock/same70/sysclk.c **** 		pmc_mck_set_source(PMC_MCKR_CSS_SLOW_CLK);
  98:../asf/common/services/clock/same70/sysclk.c **** 		break;
  99:../asf/common/services/clock/same70/sysclk.c **** 
 100:../asf/common/services/clock/same70/sysclk.c **** 	case SYSCLK_SRC_MAINCK_4M_RC:
 101:../asf/common/services/clock/same70/sysclk.c **** 	case SYSCLK_SRC_MAINCK_8M_RC:
 102:../asf/common/services/clock/same70/sysclk.c **** 	case SYSCLK_SRC_MAINCK_12M_RC:
 103:../asf/common/services/clock/same70/sysclk.c **** 	case SYSCLK_SRC_MAINCK_XTAL:
 104:../asf/common/services/clock/same70/sysclk.c **** 	case SYSCLK_SRC_MAINCK_BYPASS:
 105:../asf/common/services/clock/same70/sysclk.c **** 		pmc_mck_set_source(PMC_MCKR_CSS_MAIN_CLK);
 106:../asf/common/services/clock/same70/sysclk.c **** 		break;
 107:../asf/common/services/clock/same70/sysclk.c **** 
 108:../asf/common/services/clock/same70/sysclk.c **** 	case SYSCLK_SRC_PLLACK:
 109:../asf/common/services/clock/same70/sysclk.c **** 		pmc_mck_set_source(PMC_MCKR_CSS_PLLA_CLK);
 110:../asf/common/services/clock/same70/sysclk.c **** 		break;
 111:../asf/common/services/clock/same70/sysclk.c **** 
 112:../asf/common/services/clock/same70/sysclk.c **** 	case SYSCLK_SRC_UPLLCK:
 113:../asf/common/services/clock/same70/sysclk.c **** 		pmc_mck_set_source(PMC_MCKR_CSS_UPLL_CLK);
  88              		.loc 1 113 0
  89 0014 0320     		movs	r0, #3
  90              	.LVL4:
  91 0016 FFF7FEFF 		bl	pmc_mck_set_source
  92              	.LVL5:
  93              	.L4:
 114:../asf/common/services/clock/same70/sysclk.c **** 		break;
 115:../asf/common/services/clock/same70/sysclk.c **** 	}
 116:../asf/common/services/clock/same70/sysclk.c **** 
 117:../asf/common/services/clock/same70/sysclk.c **** 	SystemCoreClockUpdate();
 118:../asf/common/services/clock/same70/sysclk.c **** }
  94              		.loc 1 118 0
  95 001a BDE80840 		pop	{r3, lr}
  96              		.cfi_remember_state
  97              		.cfi_restore 14
  98              		.cfi_restore 3
  99              		.cfi_def_cfa_offset 0
 117:../asf/common/services/clock/same70/sysclk.c **** }
 100              		.loc 1 117 0
 101 001e FFF7FEBF 		b	SystemCoreClockUpdate
 102              	.LVL6:
 103              	.L8:
 104              		.cfi_restore_state
 109:../asf/common/services/clock/same70/sysclk.c **** 		break;
 105              		.loc 1 109 0
 106 0022 0220     		movs	r0, #2
 107              	.LVL7:
ARM GAS  /tmp/ccizFQRG.s 			page 5


 108 0024 FFF7FEFF 		bl	pmc_mck_set_source
 109              	.LVL8:
 110              		.loc 1 118 0
 111 0028 BDE80840 		pop	{r3, lr}
 112              		.cfi_remember_state
 113              		.cfi_restore 3
 114              		.cfi_restore 14
 115              		.cfi_def_cfa_offset 0
 117:../asf/common/services/clock/same70/sysclk.c **** }
 116              		.loc 1 117 0
 117 002c FFF7FEBF 		b	SystemCoreClockUpdate
 118              	.LVL9:
 119              	.L7:
 120              		.cfi_restore_state
 105:../asf/common/services/clock/same70/sysclk.c **** 		break;
 121              		.loc 1 105 0
 122 0030 0120     		movs	r0, #1
 123              	.LVL10:
 124 0032 FFF7FEFF 		bl	pmc_mck_set_source
 125              	.LVL11:
 126              		.loc 1 118 0
 127 0036 BDE80840 		pop	{r3, lr}
 128              		.cfi_remember_state
 129              		.cfi_restore 3
 130              		.cfi_restore 14
 131              		.cfi_def_cfa_offset 0
 117:../asf/common/services/clock/same70/sysclk.c **** }
 132              		.loc 1 117 0
 133 003a FFF7FEBF 		b	SystemCoreClockUpdate
 134              	.LVL12:
 135              	.L5:
 136              		.cfi_restore_state
  97:../asf/common/services/clock/same70/sysclk.c **** 		break;
 137              		.loc 1 97 0
 138 003e 0020     		movs	r0, #0
 139              	.LVL13:
 140 0040 FFF7FEFF 		bl	pmc_mck_set_source
 141              	.LVL14:
 142              		.loc 1 118 0
 143 0044 BDE80840 		pop	{r3, lr}
 144              		.cfi_restore 3
 145              		.cfi_restore 14
 146              		.cfi_def_cfa_offset 0
 117:../asf/common/services/clock/same70/sysclk.c **** }
 147              		.loc 1 117 0
 148 0048 FFF7FEBF 		b	SystemCoreClockUpdate
 149              	.LVL15:
 150              		.cfi_endproc
 151              	.LFE163:
 152              		.size	sysclk_set_source, .-sysclk_set_source
 153              		.section	.text.sysclk_enable_usb,"ax",%progbits
 154              		.align	1
 155              		.p2align 2,,3
 156              		.global	sysclk_enable_usb
 157              		.syntax unified
 158              		.thumb
 159              		.thumb_func
ARM GAS  /tmp/ccizFQRG.s 			page 6


 160              		.fpu fpv5-d16
 161              		.type	sysclk_enable_usb, %function
 162              	sysclk_enable_usb:
 163              	.LFB164:
 119:../asf/common/services/clock/same70/sysclk.c **** 
 120:../asf/common/services/clock/same70/sysclk.c **** #if defined(CONFIG_USBCLK_SOURCE) || defined(__DOXYGEN__)
 121:../asf/common/services/clock/same70/sysclk.c **** /**
 122:../asf/common/services/clock/same70/sysclk.c ****  * \brief Enable USB clock.
 123:../asf/common/services/clock/same70/sysclk.c ****  *
 124:../asf/common/services/clock/same70/sysclk.c ****  * \note The SAMV71 UDP hardware interprets div as div+1. For readability the hardware div+1
 125:../asf/common/services/clock/same70/sysclk.c ****  * is hidden in this implementation. Use div as div effective value.
 126:../asf/common/services/clock/same70/sysclk.c ****  *
 127:../asf/common/services/clock/same70/sysclk.c ****  * \param pll_id Source of the USB clock.
 128:../asf/common/services/clock/same70/sysclk.c ****  * \param div Actual clock divisor. Must be superior to 0.
 129:../asf/common/services/clock/same70/sysclk.c ****  */
 130:../asf/common/services/clock/same70/sysclk.c **** void sysclk_enable_usb(void)
 131:../asf/common/services/clock/same70/sysclk.c **** {
 164              		.loc 1 131 0
 165              		.cfi_startproc
 166              		@ args = 0, pretend = 0, frame = 0
 167              		@ frame_needed = 0, uses_anonymous_args = 0
 168 0000 08B5     		push	{r3, lr}
 169              		.cfi_def_cfa_offset 8
 170              		.cfi_offset 3, -8
 171              		.cfi_offset 14, -4
 132:../asf/common/services/clock/same70/sysclk.c **** 	Assert(CONFIG_USBCLK_DIV > 0);
 133:../asf/common/services/clock/same70/sysclk.c **** 
 134:../asf/common/services/clock/same70/sysclk.c **** #ifdef CONFIG_PLL0_SOURCE
 135:../asf/common/services/clock/same70/sysclk.c **** 	if (CONFIG_USBCLK_SOURCE == USBCLK_SRC_PLL0) {
 136:../asf/common/services/clock/same70/sysclk.c **** 		struct pll_config pllcfg;
 137:../asf/common/services/clock/same70/sysclk.c **** 
 138:../asf/common/services/clock/same70/sysclk.c **** 		pll_enable_source(CONFIG_PLL0_SOURCE);
 139:../asf/common/services/clock/same70/sysclk.c **** 		pll_config_defaults(&pllcfg, 0);
 140:../asf/common/services/clock/same70/sysclk.c **** 		pll_enable(&pllcfg, 0);
 141:../asf/common/services/clock/same70/sysclk.c **** 		pll_wait_for_lock(0);
 142:../asf/common/services/clock/same70/sysclk.c **** 		pmc_switch_udpck_to_pllack(CONFIG_USBCLK_DIV - 1);
 143:../asf/common/services/clock/same70/sysclk.c **** 		pmc_enable_udpck();
 144:../asf/common/services/clock/same70/sysclk.c **** 		return;
 145:../asf/common/services/clock/same70/sysclk.c **** 	}
 146:../asf/common/services/clock/same70/sysclk.c **** #endif
 147:../asf/common/services/clock/same70/sysclk.c **** 
 148:../asf/common/services/clock/same70/sysclk.c **** 	if (CONFIG_USBCLK_SOURCE == USBCLK_SRC_UPLL) {
 149:../asf/common/services/clock/same70/sysclk.c **** 
 150:../asf/common/services/clock/same70/sysclk.c **** 		pmc_enable_upll_clock();
 172              		.loc 1 150 0
 173 0002 FFF7FEFF 		bl	pmc_enable_upll_clock
 174              	.LVL16:
 151:../asf/common/services/clock/same70/sysclk.c **** 		pmc_switch_udpck_to_upllck(CONFIG_USBCLK_DIV - 1);
 175              		.loc 1 151 0
 176 0006 0020     		movs	r0, #0
 177 0008 FFF7FEFF 		bl	pmc_switch_udpck_to_upllck
 178              	.LVL17:
 152:../asf/common/services/clock/same70/sysclk.c **** 		pmc_enable_udpck();
 153:../asf/common/services/clock/same70/sysclk.c **** 		return;
 154:../asf/common/services/clock/same70/sysclk.c **** 	}
 155:../asf/common/services/clock/same70/sysclk.c **** }
 179              		.loc 1 155 0
ARM GAS  /tmp/ccizFQRG.s 			page 7


 180 000c BDE80840 		pop	{r3, lr}
 181              		.cfi_restore 14
 182              		.cfi_restore 3
 183              		.cfi_def_cfa_offset 0
 152:../asf/common/services/clock/same70/sysclk.c **** 		pmc_enable_udpck();
 184              		.loc 1 152 0
 185 0010 FFF7FEBF 		b	pmc_enable_udpck
 186              	.LVL18:
 187              		.cfi_endproc
 188              	.LFE164:
 189              		.size	sysclk_enable_usb, .-sysclk_enable_usb
 190              		.section	.text.sysclk_disable_usb,"ax",%progbits
 191              		.align	1
 192              		.p2align 2,,3
 193              		.global	sysclk_disable_usb
 194              		.syntax unified
 195              		.thumb
 196              		.thumb_func
 197              		.fpu fpv5-d16
 198              		.type	sysclk_disable_usb, %function
 199              	sysclk_disable_usb:
 200              	.LFB165:
 156:../asf/common/services/clock/same70/sysclk.c **** 
 157:../asf/common/services/clock/same70/sysclk.c **** /**
 158:../asf/common/services/clock/same70/sysclk.c ****  * \brief Disable the USB clock.
 159:../asf/common/services/clock/same70/sysclk.c ****  *
 160:../asf/common/services/clock/same70/sysclk.c ****  * \note This implementation does not switch off the PLL, it just turns off the USB clock.
 161:../asf/common/services/clock/same70/sysclk.c ****  */
 162:../asf/common/services/clock/same70/sysclk.c **** void sysclk_disable_usb(void)
 163:../asf/common/services/clock/same70/sysclk.c **** {
 201              		.loc 1 163 0
 202              		.cfi_startproc
 203              		@ args = 0, pretend = 0, frame = 0
 204              		@ frame_needed = 0, uses_anonymous_args = 0
 205              		@ link register save eliminated.
 164:../asf/common/services/clock/same70/sysclk.c **** 	pmc_disable_udpck();
 206              		.loc 1 164 0
 207 0000 FFF7FEBF 		b	pmc_disable_udpck
 208              	.LVL19:
 209              		.cfi_endproc
 210              	.LFE165:
 211              		.size	sysclk_disable_usb, .-sysclk_disable_usb
 212              		.section	.text.sysclk_init,"ax",%progbits
 213              		.align	1
 214              		.p2align 2,,3
 215              		.global	sysclk_init
 216              		.syntax unified
 217              		.thumb
 218              		.thumb_func
 219              		.fpu fpv5-d16
 220              		.type	sysclk_init, %function
 221              	sysclk_init:
 222              	.LFB166:
 165:../asf/common/services/clock/same70/sysclk.c **** }
 166:../asf/common/services/clock/same70/sysclk.c **** #endif // CONFIG_USBCLK_SOURCE
 167:../asf/common/services/clock/same70/sysclk.c **** 
 168:../asf/common/services/clock/same70/sysclk.c **** void sysclk_init(void)
ARM GAS  /tmp/ccizFQRG.s 			page 8


 169:../asf/common/services/clock/same70/sysclk.c **** {
 223              		.loc 1 169 0
 224              		.cfi_startproc
 225              		@ args = 0, pretend = 0, frame = 0
 226              		@ frame_needed = 0, uses_anonymous_args = 0
 170:../asf/common/services/clock/same70/sysclk.c **** 	struct pll_config pllcfg;
 171:../asf/common/services/clock/same70/sysclk.c **** 
 172:../asf/common/services/clock/same70/sysclk.c **** 	/* Set flash wait state to max in case the below clock switching. */
 173:../asf/common/services/clock/same70/sysclk.c **** 	system_init_flash(CHIP_FREQ_CPU_MAX);
 227              		.loc 1 173 0
 228 0000 1048     		ldr	r0, .L23
 169:../asf/common/services/clock/same70/sysclk.c **** 	struct pll_config pllcfg;
 229              		.loc 1 169 0
 230 0002 08B5     		push	{r3, lr}
 231              		.cfi_def_cfa_offset 8
 232              		.cfi_offset 3, -8
 233              		.cfi_offset 14, -4
 234              		.loc 1 173 0
 235 0004 FFF7FEFF 		bl	system_init_flash
 236              	.LVL20:
 237              	.LBB39:
 238              	.LBB40:
 239              	.LBB41:
 240              		.file 2 "/home/torbjorn/eclipse-workspace/CoreNG/asf/common/services/clock/same70/osc.h"
   1:/home/torbjorn/eclipse-workspace/CoreNG/asf/common/services/clock/same70/osc.h **** /**
   2:/home/torbjorn/eclipse-workspace/CoreNG/asf/common/services/clock/same70/osc.h ****  * \file
   3:/home/torbjorn/eclipse-workspace/CoreNG/asf/common/services/clock/same70/osc.h ****  *
   4:/home/torbjorn/eclipse-workspace/CoreNG/asf/common/services/clock/same70/osc.h ****  * \brief Chip-specific oscillator management functions.
   5:/home/torbjorn/eclipse-workspace/CoreNG/asf/common/services/clock/same70/osc.h ****  *
   6:/home/torbjorn/eclipse-workspace/CoreNG/asf/common/services/clock/same70/osc.h ****  * Copyright (c) 2015 Atmel Corporation. All rights reserved.
   7:/home/torbjorn/eclipse-workspace/CoreNG/asf/common/services/clock/same70/osc.h ****  *
   8:/home/torbjorn/eclipse-workspace/CoreNG/asf/common/services/clock/same70/osc.h ****  * \asf_license_start
   9:/home/torbjorn/eclipse-workspace/CoreNG/asf/common/services/clock/same70/osc.h ****  *
  10:/home/torbjorn/eclipse-workspace/CoreNG/asf/common/services/clock/same70/osc.h ****  * \page License
  11:/home/torbjorn/eclipse-workspace/CoreNG/asf/common/services/clock/same70/osc.h ****  *
  12:/home/torbjorn/eclipse-workspace/CoreNG/asf/common/services/clock/same70/osc.h ****  * Redistribution and use in source and binary forms, with or without
  13:/home/torbjorn/eclipse-workspace/CoreNG/asf/common/services/clock/same70/osc.h ****  * modification, are permitted provided that the following conditions are met:
  14:/home/torbjorn/eclipse-workspace/CoreNG/asf/common/services/clock/same70/osc.h ****  *
  15:/home/torbjorn/eclipse-workspace/CoreNG/asf/common/services/clock/same70/osc.h ****  * 1. Redistributions of source code must retain the above copyright notice,
  16:/home/torbjorn/eclipse-workspace/CoreNG/asf/common/services/clock/same70/osc.h ****  *    this list of conditions and the following disclaimer.
  17:/home/torbjorn/eclipse-workspace/CoreNG/asf/common/services/clock/same70/osc.h ****  *
  18:/home/torbjorn/eclipse-workspace/CoreNG/asf/common/services/clock/same70/osc.h ****  * 2. Redistributions in binary form must reproduce the above copyright notice,
  19:/home/torbjorn/eclipse-workspace/CoreNG/asf/common/services/clock/same70/osc.h ****  *    this list of conditions and the following disclaimer in the documentation
  20:/home/torbjorn/eclipse-workspace/CoreNG/asf/common/services/clock/same70/osc.h ****  *    and/or other materials provided with the distribution.
  21:/home/torbjorn/eclipse-workspace/CoreNG/asf/common/services/clock/same70/osc.h ****  *
  22:/home/torbjorn/eclipse-workspace/CoreNG/asf/common/services/clock/same70/osc.h ****  * 3. The name of Atmel may not be used to endorse or promote products derived
  23:/home/torbjorn/eclipse-workspace/CoreNG/asf/common/services/clock/same70/osc.h ****  *    from this software without specific prior written permission.
  24:/home/torbjorn/eclipse-workspace/CoreNG/asf/common/services/clock/same70/osc.h ****  *
  25:/home/torbjorn/eclipse-workspace/CoreNG/asf/common/services/clock/same70/osc.h ****  * 4. This software may only be redistributed and used in connection with an
  26:/home/torbjorn/eclipse-workspace/CoreNG/asf/common/services/clock/same70/osc.h ****  *    Atmel microcontroller product.
  27:/home/torbjorn/eclipse-workspace/CoreNG/asf/common/services/clock/same70/osc.h ****  *
  28:/home/torbjorn/eclipse-workspace/CoreNG/asf/common/services/clock/same70/osc.h ****  * THIS SOFTWARE IS PROVIDED BY ATMEL "AS IS" AND ANY EXPRESS OR IMPLIED
  29:/home/torbjorn/eclipse-workspace/CoreNG/asf/common/services/clock/same70/osc.h ****  * WARRANTIES, INCLUDING, BUT NOT LIMITED TO, THE IMPLIED WARRANTIES OF
  30:/home/torbjorn/eclipse-workspace/CoreNG/asf/common/services/clock/same70/osc.h ****  * MERCHANTABILITY, FITNESS FOR A PARTICULAR PURPOSE AND NON-INFRINGEMENT ARE
  31:/home/torbjorn/eclipse-workspace/CoreNG/asf/common/services/clock/same70/osc.h ****  * EXPRESSLY AND SPECIFICALLY DISCLAIMED. IN NO EVENT SHALL ATMEL BE LIABLE FOR
  32:/home/torbjorn/eclipse-workspace/CoreNG/asf/common/services/clock/same70/osc.h ****  * ANY DIRECT, INDIRECT, INCIDENTAL, SPECIAL, EXEMPLARY, OR CONSEQUENTIAL
  33:/home/torbjorn/eclipse-workspace/CoreNG/asf/common/services/clock/same70/osc.h ****  * DAMAGES (INCLUDING, BUT NOT LIMITED TO, PROCUREMENT OF SUBSTITUTE GOODS
ARM GAS  /tmp/ccizFQRG.s 			page 9


  34:/home/torbjorn/eclipse-workspace/CoreNG/asf/common/services/clock/same70/osc.h ****  * OR SERVICES; LOSS OF USE, DATA, OR PROFITS; OR BUSINESS INTERRUPTION)
  35:/home/torbjorn/eclipse-workspace/CoreNG/asf/common/services/clock/same70/osc.h ****  * HOWEVER CAUSED AND ON ANY THEORY OF LIABILITY, WHETHER IN CONTRACT,
  36:/home/torbjorn/eclipse-workspace/CoreNG/asf/common/services/clock/same70/osc.h ****  * STRICT LIABILITY, OR TORT (INCLUDING NEGLIGENCE OR OTHERWISE) ARISING IN
  37:/home/torbjorn/eclipse-workspace/CoreNG/asf/common/services/clock/same70/osc.h ****  * ANY WAY OUT OF THE USE OF THIS SOFTWARE, EVEN IF ADVISED OF THE
  38:/home/torbjorn/eclipse-workspace/CoreNG/asf/common/services/clock/same70/osc.h ****  * POSSIBILITY OF SUCH DAMAGE.
  39:/home/torbjorn/eclipse-workspace/CoreNG/asf/common/services/clock/same70/osc.h ****  *
  40:/home/torbjorn/eclipse-workspace/CoreNG/asf/common/services/clock/same70/osc.h ****  * \asf_license_stop
  41:/home/torbjorn/eclipse-workspace/CoreNG/asf/common/services/clock/same70/osc.h ****  *
  42:/home/torbjorn/eclipse-workspace/CoreNG/asf/common/services/clock/same70/osc.h ****  */
  43:/home/torbjorn/eclipse-workspace/CoreNG/asf/common/services/clock/same70/osc.h **** /*
  44:/home/torbjorn/eclipse-workspace/CoreNG/asf/common/services/clock/same70/osc.h ****  * Support and FAQ: visit <a href="http://www.atmel.com/design-support/">Atmel Support</a>
  45:/home/torbjorn/eclipse-workspace/CoreNG/asf/common/services/clock/same70/osc.h ****  */
  46:/home/torbjorn/eclipse-workspace/CoreNG/asf/common/services/clock/same70/osc.h **** 
  47:/home/torbjorn/eclipse-workspace/CoreNG/asf/common/services/clock/same70/osc.h **** #ifndef CHIP_OSC_H_INCLUDED
  48:/home/torbjorn/eclipse-workspace/CoreNG/asf/common/services/clock/same70/osc.h **** #define CHIP_OSC_H_INCLUDED
  49:/home/torbjorn/eclipse-workspace/CoreNG/asf/common/services/clock/same70/osc.h **** 
  50:/home/torbjorn/eclipse-workspace/CoreNG/asf/common/services/clock/same70/osc.h **** #include "board.h"
  51:/home/torbjorn/eclipse-workspace/CoreNG/asf/common/services/clock/same70/osc.h **** #include "pmc.h"
  52:/home/torbjorn/eclipse-workspace/CoreNG/asf/common/services/clock/same70/osc.h **** 
  53:/home/torbjorn/eclipse-workspace/CoreNG/asf/common/services/clock/same70/osc.h **** /// @cond 0
  54:/home/torbjorn/eclipse-workspace/CoreNG/asf/common/services/clock/same70/osc.h **** /**INDENT-OFF**/
  55:/home/torbjorn/eclipse-workspace/CoreNG/asf/common/services/clock/same70/osc.h **** #ifdef __cplusplus
  56:/home/torbjorn/eclipse-workspace/CoreNG/asf/common/services/clock/same70/osc.h **** extern "C" {
  57:/home/torbjorn/eclipse-workspace/CoreNG/asf/common/services/clock/same70/osc.h **** #endif
  58:/home/torbjorn/eclipse-workspace/CoreNG/asf/common/services/clock/same70/osc.h **** /**INDENT-ON**/
  59:/home/torbjorn/eclipse-workspace/CoreNG/asf/common/services/clock/same70/osc.h **** /// @endcond
  60:/home/torbjorn/eclipse-workspace/CoreNG/asf/common/services/clock/same70/osc.h **** 
  61:/home/torbjorn/eclipse-workspace/CoreNG/asf/common/services/clock/same70/osc.h **** /*
  62:/home/torbjorn/eclipse-workspace/CoreNG/asf/common/services/clock/same70/osc.h ****  * Below BOARD_XXX macros are related to the specific board, and
  63:/home/torbjorn/eclipse-workspace/CoreNG/asf/common/services/clock/same70/osc.h ****  * should be defined by the board code, otherwise default value are used.
  64:/home/torbjorn/eclipse-workspace/CoreNG/asf/common/services/clock/same70/osc.h ****  */
  65:/home/torbjorn/eclipse-workspace/CoreNG/asf/common/services/clock/same70/osc.h **** #if !defined(BOARD_FREQ_SLCK_XTAL)
  66:/home/torbjorn/eclipse-workspace/CoreNG/asf/common/services/clock/same70/osc.h **** #  warning The board slow clock xtal frequency has not been defined.
  67:/home/torbjorn/eclipse-workspace/CoreNG/asf/common/services/clock/same70/osc.h **** #  define BOARD_FREQ_SLCK_XTAL      (32768UL)
  68:/home/torbjorn/eclipse-workspace/CoreNG/asf/common/services/clock/same70/osc.h **** #endif
  69:/home/torbjorn/eclipse-workspace/CoreNG/asf/common/services/clock/same70/osc.h **** 
  70:/home/torbjorn/eclipse-workspace/CoreNG/asf/common/services/clock/same70/osc.h **** #if !defined(BOARD_FREQ_SLCK_BYPASS)
  71:/home/torbjorn/eclipse-workspace/CoreNG/asf/common/services/clock/same70/osc.h **** #  warning The board slow clock bypass frequency has not been defined.
  72:/home/torbjorn/eclipse-workspace/CoreNG/asf/common/services/clock/same70/osc.h **** #  define BOARD_FREQ_SLCK_BYPASS    (32768UL)
  73:/home/torbjorn/eclipse-workspace/CoreNG/asf/common/services/clock/same70/osc.h **** #endif
  74:/home/torbjorn/eclipse-workspace/CoreNG/asf/common/services/clock/same70/osc.h **** 
  75:/home/torbjorn/eclipse-workspace/CoreNG/asf/common/services/clock/same70/osc.h **** #if !defined(BOARD_FREQ_MAINCK_XTAL)
  76:/home/torbjorn/eclipse-workspace/CoreNG/asf/common/services/clock/same70/osc.h **** #  warning The board main clock xtal frequency has not been defined.
  77:/home/torbjorn/eclipse-workspace/CoreNG/asf/common/services/clock/same70/osc.h **** #  define BOARD_FREQ_MAINCK_XTAL    (12000000UL)
  78:/home/torbjorn/eclipse-workspace/CoreNG/asf/common/services/clock/same70/osc.h **** #endif
  79:/home/torbjorn/eclipse-workspace/CoreNG/asf/common/services/clock/same70/osc.h **** 
  80:/home/torbjorn/eclipse-workspace/CoreNG/asf/common/services/clock/same70/osc.h **** #if !defined(BOARD_FREQ_MAINCK_BYPASS)
  81:/home/torbjorn/eclipse-workspace/CoreNG/asf/common/services/clock/same70/osc.h **** #  warning The board main clock bypass frequency has not been defined.
  82:/home/torbjorn/eclipse-workspace/CoreNG/asf/common/services/clock/same70/osc.h **** #  define BOARD_FREQ_MAINCK_BYPASS  (12000000UL)
  83:/home/torbjorn/eclipse-workspace/CoreNG/asf/common/services/clock/same70/osc.h **** #endif
  84:/home/torbjorn/eclipse-workspace/CoreNG/asf/common/services/clock/same70/osc.h **** 
  85:/home/torbjorn/eclipse-workspace/CoreNG/asf/common/services/clock/same70/osc.h **** #if !defined(BOARD_OSC_STARTUP_US)
  86:/home/torbjorn/eclipse-workspace/CoreNG/asf/common/services/clock/same70/osc.h **** #  warning The board main clock xtal startup time has not been defined.
  87:/home/torbjorn/eclipse-workspace/CoreNG/asf/common/services/clock/same70/osc.h **** #  define BOARD_OSC_STARTUP_US      (15625UL)
  88:/home/torbjorn/eclipse-workspace/CoreNG/asf/common/services/clock/same70/osc.h **** #endif
  89:/home/torbjorn/eclipse-workspace/CoreNG/asf/common/services/clock/same70/osc.h **** 
  90:/home/torbjorn/eclipse-workspace/CoreNG/asf/common/services/clock/same70/osc.h **** /**
ARM GAS  /tmp/ccizFQRG.s 			page 10


  91:/home/torbjorn/eclipse-workspace/CoreNG/asf/common/services/clock/same70/osc.h ****  * \weakgroup osc_group
  92:/home/torbjorn/eclipse-workspace/CoreNG/asf/common/services/clock/same70/osc.h ****  * @{
  93:/home/torbjorn/eclipse-workspace/CoreNG/asf/common/services/clock/same70/osc.h ****  */
  94:/home/torbjorn/eclipse-workspace/CoreNG/asf/common/services/clock/same70/osc.h **** 
  95:/home/torbjorn/eclipse-workspace/CoreNG/asf/common/services/clock/same70/osc.h **** //! \name Oscillator identifiers
  96:/home/torbjorn/eclipse-workspace/CoreNG/asf/common/services/clock/same70/osc.h **** //@{
  97:/home/torbjorn/eclipse-workspace/CoreNG/asf/common/services/clock/same70/osc.h **** #define OSC_SLCK_32K_RC      0    //!< Internal 32kHz RC oscillator.
  98:/home/torbjorn/eclipse-workspace/CoreNG/asf/common/services/clock/same70/osc.h **** #define OSC_SLCK_32K_XTAL    1    //!< External 32kHz crystal oscillator.
  99:/home/torbjorn/eclipse-workspace/CoreNG/asf/common/services/clock/same70/osc.h **** #define OSC_SLCK_32K_BYPASS  2    //!< External 32kHz bypass oscillator.
 100:/home/torbjorn/eclipse-workspace/CoreNG/asf/common/services/clock/same70/osc.h **** #define OSC_MAINCK_4M_RC     3    //!< Internal 4MHz RC oscillator.
 101:/home/torbjorn/eclipse-workspace/CoreNG/asf/common/services/clock/same70/osc.h **** #define OSC_MAINCK_8M_RC     4    //!< Internal 8MHz RC oscillator.
 102:/home/torbjorn/eclipse-workspace/CoreNG/asf/common/services/clock/same70/osc.h **** #define OSC_MAINCK_12M_RC    5    //!< Internal 12MHz RC oscillator.
 103:/home/torbjorn/eclipse-workspace/CoreNG/asf/common/services/clock/same70/osc.h **** #define OSC_MAINCK_XTAL      6    //!< External crystal oscillator.
 104:/home/torbjorn/eclipse-workspace/CoreNG/asf/common/services/clock/same70/osc.h **** #define OSC_MAINCK_BYPASS    7    //!< External bypass oscillator.
 105:/home/torbjorn/eclipse-workspace/CoreNG/asf/common/services/clock/same70/osc.h **** //@}
 106:/home/torbjorn/eclipse-workspace/CoreNG/asf/common/services/clock/same70/osc.h **** 
 107:/home/torbjorn/eclipse-workspace/CoreNG/asf/common/services/clock/same70/osc.h **** //! \name Oscillator clock speed in hertz
 108:/home/torbjorn/eclipse-workspace/CoreNG/asf/common/services/clock/same70/osc.h **** //@{
 109:/home/torbjorn/eclipse-workspace/CoreNG/asf/common/services/clock/same70/osc.h **** #define OSC_SLCK_32K_RC_HZ      CHIP_FREQ_SLCK_RC         //!< Internal 32kHz RC oscillator.
 110:/home/torbjorn/eclipse-workspace/CoreNG/asf/common/services/clock/same70/osc.h **** #define OSC_SLCK_32K_XTAL_HZ    BOARD_FREQ_SLCK_XTAL      //!< External 32kHz crystal oscillator.
 111:/home/torbjorn/eclipse-workspace/CoreNG/asf/common/services/clock/same70/osc.h **** #define OSC_SLCK_32K_BYPASS_HZ  BOARD_FREQ_SLCK_BYPASS    //!< External 32kHz bypass oscillator.
 112:/home/torbjorn/eclipse-workspace/CoreNG/asf/common/services/clock/same70/osc.h **** #define OSC_MAINCK_4M_RC_HZ     CHIP_FREQ_MAINCK_RC_4MHZ  //!< Internal 4MHz RC oscillator.
 113:/home/torbjorn/eclipse-workspace/CoreNG/asf/common/services/clock/same70/osc.h **** #define OSC_MAINCK_8M_RC_HZ     CHIP_FREQ_MAINCK_RC_8MHZ  //!< Internal 8MHz RC oscillator.
 114:/home/torbjorn/eclipse-workspace/CoreNG/asf/common/services/clock/same70/osc.h **** #define OSC_MAINCK_12M_RC_HZ    CHIP_FREQ_MAINCK_RC_12MHZ //!< Internal 12MHz RC oscillator.
 115:/home/torbjorn/eclipse-workspace/CoreNG/asf/common/services/clock/same70/osc.h **** #define OSC_MAINCK_XTAL_HZ      BOARD_FREQ_MAINCK_XTAL    //!< External crystal oscillator.
 116:/home/torbjorn/eclipse-workspace/CoreNG/asf/common/services/clock/same70/osc.h **** #define OSC_MAINCK_BYPASS_HZ    BOARD_FREQ_MAINCK_BYPASS  //!< External bypass oscillator.
 117:/home/torbjorn/eclipse-workspace/CoreNG/asf/common/services/clock/same70/osc.h **** //@}
 118:/home/torbjorn/eclipse-workspace/CoreNG/asf/common/services/clock/same70/osc.h **** 
 119:/home/torbjorn/eclipse-workspace/CoreNG/asf/common/services/clock/same70/osc.h **** static inline void osc_enable(uint32_t ul_id)
 120:/home/torbjorn/eclipse-workspace/CoreNG/asf/common/services/clock/same70/osc.h **** {
 121:/home/torbjorn/eclipse-workspace/CoreNG/asf/common/services/clock/same70/osc.h **** 	switch (ul_id) {
 122:/home/torbjorn/eclipse-workspace/CoreNG/asf/common/services/clock/same70/osc.h **** 	case OSC_SLCK_32K_RC:
 123:/home/torbjorn/eclipse-workspace/CoreNG/asf/common/services/clock/same70/osc.h **** 		break;
 124:/home/torbjorn/eclipse-workspace/CoreNG/asf/common/services/clock/same70/osc.h **** 
 125:/home/torbjorn/eclipse-workspace/CoreNG/asf/common/services/clock/same70/osc.h **** 	case OSC_SLCK_32K_XTAL:
 126:/home/torbjorn/eclipse-workspace/CoreNG/asf/common/services/clock/same70/osc.h **** 		pmc_switch_sclk_to_32kxtal(PMC_OSC_XTAL);
 127:/home/torbjorn/eclipse-workspace/CoreNG/asf/common/services/clock/same70/osc.h **** 		break;
 128:/home/torbjorn/eclipse-workspace/CoreNG/asf/common/services/clock/same70/osc.h **** 
 129:/home/torbjorn/eclipse-workspace/CoreNG/asf/common/services/clock/same70/osc.h **** 	case OSC_SLCK_32K_BYPASS:
 130:/home/torbjorn/eclipse-workspace/CoreNG/asf/common/services/clock/same70/osc.h **** 		pmc_switch_sclk_to_32kxtal(PMC_OSC_BYPASS);
 131:/home/torbjorn/eclipse-workspace/CoreNG/asf/common/services/clock/same70/osc.h **** 		break;
 132:/home/torbjorn/eclipse-workspace/CoreNG/asf/common/services/clock/same70/osc.h **** 
 133:/home/torbjorn/eclipse-workspace/CoreNG/asf/common/services/clock/same70/osc.h **** 
 134:/home/torbjorn/eclipse-workspace/CoreNG/asf/common/services/clock/same70/osc.h **** 	case OSC_MAINCK_4M_RC:
 135:/home/torbjorn/eclipse-workspace/CoreNG/asf/common/services/clock/same70/osc.h **** 		pmc_switch_mainck_to_fastrc(CKGR_MOR_MOSCRCF_4_MHz);
 136:/home/torbjorn/eclipse-workspace/CoreNG/asf/common/services/clock/same70/osc.h **** 		break;
 137:/home/torbjorn/eclipse-workspace/CoreNG/asf/common/services/clock/same70/osc.h **** 
 138:/home/torbjorn/eclipse-workspace/CoreNG/asf/common/services/clock/same70/osc.h **** 	case OSC_MAINCK_8M_RC:
 139:/home/torbjorn/eclipse-workspace/CoreNG/asf/common/services/clock/same70/osc.h **** 		pmc_switch_mainck_to_fastrc(CKGR_MOR_MOSCRCF_8_MHz);
 140:/home/torbjorn/eclipse-workspace/CoreNG/asf/common/services/clock/same70/osc.h **** 		break;
 141:/home/torbjorn/eclipse-workspace/CoreNG/asf/common/services/clock/same70/osc.h **** 
 142:/home/torbjorn/eclipse-workspace/CoreNG/asf/common/services/clock/same70/osc.h **** 	case OSC_MAINCK_12M_RC:
 143:/home/torbjorn/eclipse-workspace/CoreNG/asf/common/services/clock/same70/osc.h **** 		pmc_switch_mainck_to_fastrc(CKGR_MOR_MOSCRCF_12_MHz);
 144:/home/torbjorn/eclipse-workspace/CoreNG/asf/common/services/clock/same70/osc.h **** 		break;
 145:/home/torbjorn/eclipse-workspace/CoreNG/asf/common/services/clock/same70/osc.h **** 
 146:/home/torbjorn/eclipse-workspace/CoreNG/asf/common/services/clock/same70/osc.h **** 
 147:/home/torbjorn/eclipse-workspace/CoreNG/asf/common/services/clock/same70/osc.h **** 	case OSC_MAINCK_XTAL:
ARM GAS  /tmp/ccizFQRG.s 			page 11


 148:/home/torbjorn/eclipse-workspace/CoreNG/asf/common/services/clock/same70/osc.h **** 		pmc_switch_mainck_to_xtal(PMC_OSC_XTAL,
 241              		.loc 2 148 0
 242 0008 3E21     		movs	r1, #62
 243 000a 0020     		movs	r0, #0
 244 000c FFF7FEFF 		bl	pmc_switch_mainck_to_xtal
 245              	.LVL21:
 246              	.L16:
 247              	.LBE41:
 248              	.LBE40:
 249              	.LBB42:
 250              	.LBB43:
 251              	.LBB44:
 252              	.LBB45:
 149:/home/torbjorn/eclipse-workspace/CoreNG/asf/common/services/clock/same70/osc.h **** 			pmc_us_to_moscxtst(BOARD_OSC_STARTUP_US,
 150:/home/torbjorn/eclipse-workspace/CoreNG/asf/common/services/clock/same70/osc.h **** 				OSC_SLCK_32K_RC_HZ));
 151:/home/torbjorn/eclipse-workspace/CoreNG/asf/common/services/clock/same70/osc.h **** 		break;
 152:/home/torbjorn/eclipse-workspace/CoreNG/asf/common/services/clock/same70/osc.h **** 
 153:/home/torbjorn/eclipse-workspace/CoreNG/asf/common/services/clock/same70/osc.h **** 	case OSC_MAINCK_BYPASS:
 154:/home/torbjorn/eclipse-workspace/CoreNG/asf/common/services/clock/same70/osc.h **** 		pmc_switch_mainck_to_xtal(PMC_OSC_BYPASS,
 155:/home/torbjorn/eclipse-workspace/CoreNG/asf/common/services/clock/same70/osc.h **** 			pmc_us_to_moscxtst(BOARD_OSC_STARTUP_US,
 156:/home/torbjorn/eclipse-workspace/CoreNG/asf/common/services/clock/same70/osc.h **** 				OSC_SLCK_32K_RC_HZ));
 157:/home/torbjorn/eclipse-workspace/CoreNG/asf/common/services/clock/same70/osc.h **** 		break;
 158:/home/torbjorn/eclipse-workspace/CoreNG/asf/common/services/clock/same70/osc.h **** 	}
 159:/home/torbjorn/eclipse-workspace/CoreNG/asf/common/services/clock/same70/osc.h **** }
 160:/home/torbjorn/eclipse-workspace/CoreNG/asf/common/services/clock/same70/osc.h **** 
 161:/home/torbjorn/eclipse-workspace/CoreNG/asf/common/services/clock/same70/osc.h **** static inline void osc_disable(uint32_t ul_id)
 162:/home/torbjorn/eclipse-workspace/CoreNG/asf/common/services/clock/same70/osc.h **** {
 163:/home/torbjorn/eclipse-workspace/CoreNG/asf/common/services/clock/same70/osc.h **** 	switch (ul_id) {
 164:/home/torbjorn/eclipse-workspace/CoreNG/asf/common/services/clock/same70/osc.h **** 	case OSC_SLCK_32K_RC:
 165:/home/torbjorn/eclipse-workspace/CoreNG/asf/common/services/clock/same70/osc.h **** 	case OSC_SLCK_32K_XTAL:
 166:/home/torbjorn/eclipse-workspace/CoreNG/asf/common/services/clock/same70/osc.h **** 	case OSC_SLCK_32K_BYPASS:
 167:/home/torbjorn/eclipse-workspace/CoreNG/asf/common/services/clock/same70/osc.h **** 		break;
 168:/home/torbjorn/eclipse-workspace/CoreNG/asf/common/services/clock/same70/osc.h **** 
 169:/home/torbjorn/eclipse-workspace/CoreNG/asf/common/services/clock/same70/osc.h **** 	case OSC_MAINCK_4M_RC:
 170:/home/torbjorn/eclipse-workspace/CoreNG/asf/common/services/clock/same70/osc.h **** 	case OSC_MAINCK_8M_RC:
 171:/home/torbjorn/eclipse-workspace/CoreNG/asf/common/services/clock/same70/osc.h **** 	case OSC_MAINCK_12M_RC:
 172:/home/torbjorn/eclipse-workspace/CoreNG/asf/common/services/clock/same70/osc.h **** 		pmc_osc_disable_fastrc();
 173:/home/torbjorn/eclipse-workspace/CoreNG/asf/common/services/clock/same70/osc.h **** 		break;
 174:/home/torbjorn/eclipse-workspace/CoreNG/asf/common/services/clock/same70/osc.h **** 
 175:/home/torbjorn/eclipse-workspace/CoreNG/asf/common/services/clock/same70/osc.h **** 	case OSC_MAINCK_XTAL:
 176:/home/torbjorn/eclipse-workspace/CoreNG/asf/common/services/clock/same70/osc.h **** 		pmc_osc_disable_xtal(PMC_OSC_XTAL);
 177:/home/torbjorn/eclipse-workspace/CoreNG/asf/common/services/clock/same70/osc.h **** 		break;
 178:/home/torbjorn/eclipse-workspace/CoreNG/asf/common/services/clock/same70/osc.h **** 
 179:/home/torbjorn/eclipse-workspace/CoreNG/asf/common/services/clock/same70/osc.h **** 	case OSC_MAINCK_BYPASS:
 180:/home/torbjorn/eclipse-workspace/CoreNG/asf/common/services/clock/same70/osc.h **** 		pmc_osc_disable_xtal(PMC_OSC_BYPASS);
 181:/home/torbjorn/eclipse-workspace/CoreNG/asf/common/services/clock/same70/osc.h **** 		break;
 182:/home/torbjorn/eclipse-workspace/CoreNG/asf/common/services/clock/same70/osc.h **** 	}
 183:/home/torbjorn/eclipse-workspace/CoreNG/asf/common/services/clock/same70/osc.h **** }
 184:/home/torbjorn/eclipse-workspace/CoreNG/asf/common/services/clock/same70/osc.h **** 
 185:/home/torbjorn/eclipse-workspace/CoreNG/asf/common/services/clock/same70/osc.h **** static inline bool osc_is_ready(uint32_t ul_id)
 186:/home/torbjorn/eclipse-workspace/CoreNG/asf/common/services/clock/same70/osc.h **** {
 187:/home/torbjorn/eclipse-workspace/CoreNG/asf/common/services/clock/same70/osc.h **** 	switch (ul_id) {
 188:/home/torbjorn/eclipse-workspace/CoreNG/asf/common/services/clock/same70/osc.h **** 	case OSC_SLCK_32K_RC:
 189:/home/torbjorn/eclipse-workspace/CoreNG/asf/common/services/clock/same70/osc.h **** 		return 1;
 190:/home/torbjorn/eclipse-workspace/CoreNG/asf/common/services/clock/same70/osc.h **** 
 191:/home/torbjorn/eclipse-workspace/CoreNG/asf/common/services/clock/same70/osc.h **** 	case OSC_SLCK_32K_XTAL:
 192:/home/torbjorn/eclipse-workspace/CoreNG/asf/common/services/clock/same70/osc.h **** 	case OSC_SLCK_32K_BYPASS:
ARM GAS  /tmp/ccizFQRG.s 			page 12


 193:/home/torbjorn/eclipse-workspace/CoreNG/asf/common/services/clock/same70/osc.h **** 		return pmc_osc_is_ready_32kxtal();
 194:/home/torbjorn/eclipse-workspace/CoreNG/asf/common/services/clock/same70/osc.h **** 
 195:/home/torbjorn/eclipse-workspace/CoreNG/asf/common/services/clock/same70/osc.h **** 	case OSC_MAINCK_4M_RC:
 196:/home/torbjorn/eclipse-workspace/CoreNG/asf/common/services/clock/same70/osc.h **** 	case OSC_MAINCK_8M_RC:
 197:/home/torbjorn/eclipse-workspace/CoreNG/asf/common/services/clock/same70/osc.h **** 	case OSC_MAINCK_12M_RC:
 198:/home/torbjorn/eclipse-workspace/CoreNG/asf/common/services/clock/same70/osc.h **** 	case OSC_MAINCK_XTAL:
 199:/home/torbjorn/eclipse-workspace/CoreNG/asf/common/services/clock/same70/osc.h **** 	case OSC_MAINCK_BYPASS:
 200:/home/torbjorn/eclipse-workspace/CoreNG/asf/common/services/clock/same70/osc.h **** 		return pmc_osc_is_ready_mainck();
 253              		.loc 2 200 0
 254 0010 FFF7FEFF 		bl	pmc_osc_is_ready_mainck
 255              	.LVL22:
 256              	.LBE45:
 257              	.LBE44:
 258              		.file 3 "/home/torbjorn/eclipse-workspace/CoreNG/asf/common/services/clock/osc.h"
   1:/home/torbjorn/eclipse-workspace/CoreNG/asf/common/services/clock/osc.h **** /**
   2:/home/torbjorn/eclipse-workspace/CoreNG/asf/common/services/clock/osc.h ****  * \file
   3:/home/torbjorn/eclipse-workspace/CoreNG/asf/common/services/clock/osc.h ****  *
   4:/home/torbjorn/eclipse-workspace/CoreNG/asf/common/services/clock/osc.h ****  * \brief Oscillator management
   5:/home/torbjorn/eclipse-workspace/CoreNG/asf/common/services/clock/osc.h ****  *
   6:/home/torbjorn/eclipse-workspace/CoreNG/asf/common/services/clock/osc.h ****  * Copyright (c) 2010-2015 Atmel Corporation. All rights reserved.
   7:/home/torbjorn/eclipse-workspace/CoreNG/asf/common/services/clock/osc.h ****  *
   8:/home/torbjorn/eclipse-workspace/CoreNG/asf/common/services/clock/osc.h ****  * \asf_license_start
   9:/home/torbjorn/eclipse-workspace/CoreNG/asf/common/services/clock/osc.h ****  *
  10:/home/torbjorn/eclipse-workspace/CoreNG/asf/common/services/clock/osc.h ****  * \page License
  11:/home/torbjorn/eclipse-workspace/CoreNG/asf/common/services/clock/osc.h ****  *
  12:/home/torbjorn/eclipse-workspace/CoreNG/asf/common/services/clock/osc.h ****  * Redistribution and use in source and binary forms, with or without
  13:/home/torbjorn/eclipse-workspace/CoreNG/asf/common/services/clock/osc.h ****  * modification, are permitted provided that the following conditions are met:
  14:/home/torbjorn/eclipse-workspace/CoreNG/asf/common/services/clock/osc.h ****  *
  15:/home/torbjorn/eclipse-workspace/CoreNG/asf/common/services/clock/osc.h ****  * 1. Redistributions of source code must retain the above copyright notice,
  16:/home/torbjorn/eclipse-workspace/CoreNG/asf/common/services/clock/osc.h ****  *    this list of conditions and the following disclaimer.
  17:/home/torbjorn/eclipse-workspace/CoreNG/asf/common/services/clock/osc.h ****  *
  18:/home/torbjorn/eclipse-workspace/CoreNG/asf/common/services/clock/osc.h ****  * 2. Redistributions in binary form must reproduce the above copyright notice,
  19:/home/torbjorn/eclipse-workspace/CoreNG/asf/common/services/clock/osc.h ****  *    this list of conditions and the following disclaimer in the documentation
  20:/home/torbjorn/eclipse-workspace/CoreNG/asf/common/services/clock/osc.h ****  *    and/or other materials provided with the distribution.
  21:/home/torbjorn/eclipse-workspace/CoreNG/asf/common/services/clock/osc.h ****  *
  22:/home/torbjorn/eclipse-workspace/CoreNG/asf/common/services/clock/osc.h ****  * 3. The name of Atmel may not be used to endorse or promote products derived
  23:/home/torbjorn/eclipse-workspace/CoreNG/asf/common/services/clock/osc.h ****  *    from this software without specific prior written permission.
  24:/home/torbjorn/eclipse-workspace/CoreNG/asf/common/services/clock/osc.h ****  *
  25:/home/torbjorn/eclipse-workspace/CoreNG/asf/common/services/clock/osc.h ****  * 4. This software may only be redistributed and used in connection with an
  26:/home/torbjorn/eclipse-workspace/CoreNG/asf/common/services/clock/osc.h ****  *    Atmel microcontroller product.
  27:/home/torbjorn/eclipse-workspace/CoreNG/asf/common/services/clock/osc.h ****  *
  28:/home/torbjorn/eclipse-workspace/CoreNG/asf/common/services/clock/osc.h ****  * THIS SOFTWARE IS PROVIDED BY ATMEL "AS IS" AND ANY EXPRESS OR IMPLIED
  29:/home/torbjorn/eclipse-workspace/CoreNG/asf/common/services/clock/osc.h ****  * WARRANTIES, INCLUDING, BUT NOT LIMITED TO, THE IMPLIED WARRANTIES OF
  30:/home/torbjorn/eclipse-workspace/CoreNG/asf/common/services/clock/osc.h ****  * MERCHANTABILITY, FITNESS FOR A PARTICULAR PURPOSE AND NON-INFRINGEMENT ARE
  31:/home/torbjorn/eclipse-workspace/CoreNG/asf/common/services/clock/osc.h ****  * EXPRESSLY AND SPECIFICALLY DISCLAIMED. IN NO EVENT SHALL ATMEL BE LIABLE FOR
  32:/home/torbjorn/eclipse-workspace/CoreNG/asf/common/services/clock/osc.h ****  * ANY DIRECT, INDIRECT, INCIDENTAL, SPECIAL, EXEMPLARY, OR CONSEQUENTIAL
  33:/home/torbjorn/eclipse-workspace/CoreNG/asf/common/services/clock/osc.h ****  * DAMAGES (INCLUDING, BUT NOT LIMITED TO, PROCUREMENT OF SUBSTITUTE GOODS
  34:/home/torbjorn/eclipse-workspace/CoreNG/asf/common/services/clock/osc.h ****  * OR SERVICES; LOSS OF USE, DATA, OR PROFITS; OR BUSINESS INTERRUPTION)
  35:/home/torbjorn/eclipse-workspace/CoreNG/asf/common/services/clock/osc.h ****  * HOWEVER CAUSED AND ON ANY THEORY OF LIABILITY, WHETHER IN CONTRACT,
  36:/home/torbjorn/eclipse-workspace/CoreNG/asf/common/services/clock/osc.h ****  * STRICT LIABILITY, OR TORT (INCLUDING NEGLIGENCE OR OTHERWISE) ARISING IN
  37:/home/torbjorn/eclipse-workspace/CoreNG/asf/common/services/clock/osc.h ****  * ANY WAY OUT OF THE USE OF THIS SOFTWARE, EVEN IF ADVISED OF THE
  38:/home/torbjorn/eclipse-workspace/CoreNG/asf/common/services/clock/osc.h ****  * POSSIBILITY OF SUCH DAMAGE.
  39:/home/torbjorn/eclipse-workspace/CoreNG/asf/common/services/clock/osc.h ****  *
  40:/home/torbjorn/eclipse-workspace/CoreNG/asf/common/services/clock/osc.h ****  * \asf_license_stop
  41:/home/torbjorn/eclipse-workspace/CoreNG/asf/common/services/clock/osc.h ****  *
  42:/home/torbjorn/eclipse-workspace/CoreNG/asf/common/services/clock/osc.h ****  */
  43:/home/torbjorn/eclipse-workspace/CoreNG/asf/common/services/clock/osc.h **** /*
ARM GAS  /tmp/ccizFQRG.s 			page 13


  44:/home/torbjorn/eclipse-workspace/CoreNG/asf/common/services/clock/osc.h ****  * Support and FAQ: visit <a href="http://www.atmel.com/design-support/">Atmel Support</a>
  45:/home/torbjorn/eclipse-workspace/CoreNG/asf/common/services/clock/osc.h ****  */
  46:/home/torbjorn/eclipse-workspace/CoreNG/asf/common/services/clock/osc.h **** #ifndef OSC_H_INCLUDED
  47:/home/torbjorn/eclipse-workspace/CoreNG/asf/common/services/clock/osc.h **** #define OSC_H_INCLUDED
  48:/home/torbjorn/eclipse-workspace/CoreNG/asf/common/services/clock/osc.h **** 
  49:/home/torbjorn/eclipse-workspace/CoreNG/asf/common/services/clock/osc.h **** #include "parts.h"
  50:/home/torbjorn/eclipse-workspace/CoreNG/asf/common/services/clock/osc.h **** #include "conf_clock.h"
  51:/home/torbjorn/eclipse-workspace/CoreNG/asf/common/services/clock/osc.h **** 
  52:/home/torbjorn/eclipse-workspace/CoreNG/asf/common/services/clock/osc.h **** #if SAM3S
  53:/home/torbjorn/eclipse-workspace/CoreNG/asf/common/services/clock/osc.h **** # include "sam3s/osc.h"
  54:/home/torbjorn/eclipse-workspace/CoreNG/asf/common/services/clock/osc.h **** #elif SAM3XA
  55:/home/torbjorn/eclipse-workspace/CoreNG/asf/common/services/clock/osc.h **** # include "sam3x/osc.h"
  56:/home/torbjorn/eclipse-workspace/CoreNG/asf/common/services/clock/osc.h **** #elif SAM3U
  57:/home/torbjorn/eclipse-workspace/CoreNG/asf/common/services/clock/osc.h **** # include "sam3u/osc.h"
  58:/home/torbjorn/eclipse-workspace/CoreNG/asf/common/services/clock/osc.h **** #elif SAM3N
  59:/home/torbjorn/eclipse-workspace/CoreNG/asf/common/services/clock/osc.h **** # include "sam3n/osc.h"
  60:/home/torbjorn/eclipse-workspace/CoreNG/asf/common/services/clock/osc.h **** #elif SAM4S
  61:/home/torbjorn/eclipse-workspace/CoreNG/asf/common/services/clock/osc.h **** # include "sam4s/osc.h"
  62:/home/torbjorn/eclipse-workspace/CoreNG/asf/common/services/clock/osc.h **** #elif SAM4E
  63:/home/torbjorn/eclipse-workspace/CoreNG/asf/common/services/clock/osc.h **** # include "sam4e/osc.h"
  64:/home/torbjorn/eclipse-workspace/CoreNG/asf/common/services/clock/osc.h **** #elif SAM4C
  65:/home/torbjorn/eclipse-workspace/CoreNG/asf/common/services/clock/osc.h **** # include "sam4c/osc.h"
  66:/home/torbjorn/eclipse-workspace/CoreNG/asf/common/services/clock/osc.h **** #elif SAM4CM
  67:/home/torbjorn/eclipse-workspace/CoreNG/asf/common/services/clock/osc.h **** # include "sam4cm/osc.h"
  68:/home/torbjorn/eclipse-workspace/CoreNG/asf/common/services/clock/osc.h **** #elif SAM4CP
  69:/home/torbjorn/eclipse-workspace/CoreNG/asf/common/services/clock/osc.h **** # include "sam4cp/osc.h"
  70:/home/torbjorn/eclipse-workspace/CoreNG/asf/common/services/clock/osc.h **** #elif SAM4L
  71:/home/torbjorn/eclipse-workspace/CoreNG/asf/common/services/clock/osc.h **** # include "sam4l/osc.h"
  72:/home/torbjorn/eclipse-workspace/CoreNG/asf/common/services/clock/osc.h **** #elif SAM4N
  73:/home/torbjorn/eclipse-workspace/CoreNG/asf/common/services/clock/osc.h **** # include "sam4n/osc.h"
  74:/home/torbjorn/eclipse-workspace/CoreNG/asf/common/services/clock/osc.h **** #elif SAMG
  75:/home/torbjorn/eclipse-workspace/CoreNG/asf/common/services/clock/osc.h **** # include "samg/osc.h"
  76:/home/torbjorn/eclipse-workspace/CoreNG/asf/common/services/clock/osc.h **** #elif SAMV71
  77:/home/torbjorn/eclipse-workspace/CoreNG/asf/common/services/clock/osc.h **** # include "samv71/osc.h"
  78:/home/torbjorn/eclipse-workspace/CoreNG/asf/common/services/clock/osc.h **** #elif SAMV70
  79:/home/torbjorn/eclipse-workspace/CoreNG/asf/common/services/clock/osc.h **** # include "samv70/osc.h"
  80:/home/torbjorn/eclipse-workspace/CoreNG/asf/common/services/clock/osc.h **** #elif SAME70
  81:/home/torbjorn/eclipse-workspace/CoreNG/asf/common/services/clock/osc.h **** # include "same70/osc.h"
  82:/home/torbjorn/eclipse-workspace/CoreNG/asf/common/services/clock/osc.h **** #elif SAMS70
  83:/home/torbjorn/eclipse-workspace/CoreNG/asf/common/services/clock/osc.h **** # include "sams70/osc.h"
  84:/home/torbjorn/eclipse-workspace/CoreNG/asf/common/services/clock/osc.h **** #elif (UC3A0 || UC3A1)
  85:/home/torbjorn/eclipse-workspace/CoreNG/asf/common/services/clock/osc.h **** # include "uc3a0_a1/osc.h"
  86:/home/torbjorn/eclipse-workspace/CoreNG/asf/common/services/clock/osc.h **** #elif UC3A3
  87:/home/torbjorn/eclipse-workspace/CoreNG/asf/common/services/clock/osc.h **** # include "uc3a3_a4/osc.h"
  88:/home/torbjorn/eclipse-workspace/CoreNG/asf/common/services/clock/osc.h **** #elif UC3B
  89:/home/torbjorn/eclipse-workspace/CoreNG/asf/common/services/clock/osc.h **** # include "uc3b0_b1/osc.h"
  90:/home/torbjorn/eclipse-workspace/CoreNG/asf/common/services/clock/osc.h **** #elif UC3C
  91:/home/torbjorn/eclipse-workspace/CoreNG/asf/common/services/clock/osc.h **** # include "uc3c/osc.h"
  92:/home/torbjorn/eclipse-workspace/CoreNG/asf/common/services/clock/osc.h **** #elif UC3D
  93:/home/torbjorn/eclipse-workspace/CoreNG/asf/common/services/clock/osc.h **** # include "uc3d/osc.h"
  94:/home/torbjorn/eclipse-workspace/CoreNG/asf/common/services/clock/osc.h **** #elif UC3L
  95:/home/torbjorn/eclipse-workspace/CoreNG/asf/common/services/clock/osc.h **** # include "uc3l/osc.h"
  96:/home/torbjorn/eclipse-workspace/CoreNG/asf/common/services/clock/osc.h **** #elif XMEGA
  97:/home/torbjorn/eclipse-workspace/CoreNG/asf/common/services/clock/osc.h **** # include "xmega/osc.h"
  98:/home/torbjorn/eclipse-workspace/CoreNG/asf/common/services/clock/osc.h **** #else
  99:/home/torbjorn/eclipse-workspace/CoreNG/asf/common/services/clock/osc.h **** # error Unsupported chip type
 100:/home/torbjorn/eclipse-workspace/CoreNG/asf/common/services/clock/osc.h **** #endif
ARM GAS  /tmp/ccizFQRG.s 			page 14


 101:/home/torbjorn/eclipse-workspace/CoreNG/asf/common/services/clock/osc.h **** 
 102:/home/torbjorn/eclipse-workspace/CoreNG/asf/common/services/clock/osc.h **** /**
 103:/home/torbjorn/eclipse-workspace/CoreNG/asf/common/services/clock/osc.h ****  * \ingroup clk_group
 104:/home/torbjorn/eclipse-workspace/CoreNG/asf/common/services/clock/osc.h ****  * \defgroup osc_group Oscillator Management
 105:/home/torbjorn/eclipse-workspace/CoreNG/asf/common/services/clock/osc.h ****  *
 106:/home/torbjorn/eclipse-workspace/CoreNG/asf/common/services/clock/osc.h ****  * This group contains functions and definitions related to configuring
 107:/home/torbjorn/eclipse-workspace/CoreNG/asf/common/services/clock/osc.h ****  * and enabling/disabling on-chip oscillators. Internal RC-oscillators,
 108:/home/torbjorn/eclipse-workspace/CoreNG/asf/common/services/clock/osc.h ****  * external crystal oscillators and external clock generators are
 109:/home/torbjorn/eclipse-workspace/CoreNG/asf/common/services/clock/osc.h ****  * supported by this module. What all of these have in common is that
 110:/home/torbjorn/eclipse-workspace/CoreNG/asf/common/services/clock/osc.h ****  * they swing at a fixed, nominal frequency which is normally not
 111:/home/torbjorn/eclipse-workspace/CoreNG/asf/common/services/clock/osc.h ****  * adjustable.
 112:/home/torbjorn/eclipse-workspace/CoreNG/asf/common/services/clock/osc.h ****  *
 113:/home/torbjorn/eclipse-workspace/CoreNG/asf/common/services/clock/osc.h ****  * \par Example: Enabling an oscillator
 114:/home/torbjorn/eclipse-workspace/CoreNG/asf/common/services/clock/osc.h ****  *
 115:/home/torbjorn/eclipse-workspace/CoreNG/asf/common/services/clock/osc.h ****  * The following example demonstrates how to enable the external
 116:/home/torbjorn/eclipse-workspace/CoreNG/asf/common/services/clock/osc.h ****  * oscillator on XMEGA A and wait for it to be ready to use. The
 117:/home/torbjorn/eclipse-workspace/CoreNG/asf/common/services/clock/osc.h ****  * oscillator identifiers are platform-specific, so while the same
 118:/home/torbjorn/eclipse-workspace/CoreNG/asf/common/services/clock/osc.h ****  * procedure is used on all platforms, the parameter to osc_enable()
 119:/home/torbjorn/eclipse-workspace/CoreNG/asf/common/services/clock/osc.h ****  * will be different from device to device.
 120:/home/torbjorn/eclipse-workspace/CoreNG/asf/common/services/clock/osc.h ****  * \code
 121:/home/torbjorn/eclipse-workspace/CoreNG/asf/common/services/clock/osc.h **** 	osc_enable(OSC_ID_XOSC);
 122:/home/torbjorn/eclipse-workspace/CoreNG/asf/common/services/clock/osc.h **** 	osc_wait_ready(OSC_ID_XOSC); \endcode
 123:/home/torbjorn/eclipse-workspace/CoreNG/asf/common/services/clock/osc.h ****  *
 124:/home/torbjorn/eclipse-workspace/CoreNG/asf/common/services/clock/osc.h ****  * \section osc_group_board Board-specific Definitions
 125:/home/torbjorn/eclipse-workspace/CoreNG/asf/common/services/clock/osc.h ****  * If external oscillators are used, the board code must provide the
 126:/home/torbjorn/eclipse-workspace/CoreNG/asf/common/services/clock/osc.h ****  * following definitions for each of those:
 127:/home/torbjorn/eclipse-workspace/CoreNG/asf/common/services/clock/osc.h ****  *   - \b BOARD_<osc name>_HZ: The nominal frequency of the oscillator.
 128:/home/torbjorn/eclipse-workspace/CoreNG/asf/common/services/clock/osc.h ****  *   - \b BOARD_<osc name>_STARTUP_US: The startup time of the
 129:/home/torbjorn/eclipse-workspace/CoreNG/asf/common/services/clock/osc.h ****  *     oscillator in microseconds.
 130:/home/torbjorn/eclipse-workspace/CoreNG/asf/common/services/clock/osc.h ****  *   - \b BOARD_<osc name>_TYPE: The type of oscillator connected, i.e.
 131:/home/torbjorn/eclipse-workspace/CoreNG/asf/common/services/clock/osc.h ****  *     whether it's a crystal or external clock, and sometimes what kind
 132:/home/torbjorn/eclipse-workspace/CoreNG/asf/common/services/clock/osc.h ****  *     of crystal it is. The meaning of this value is platform-specific.
 133:/home/torbjorn/eclipse-workspace/CoreNG/asf/common/services/clock/osc.h ****  *
 134:/home/torbjorn/eclipse-workspace/CoreNG/asf/common/services/clock/osc.h ****  * @{
 135:/home/torbjorn/eclipse-workspace/CoreNG/asf/common/services/clock/osc.h ****  */
 136:/home/torbjorn/eclipse-workspace/CoreNG/asf/common/services/clock/osc.h **** 
 137:/home/torbjorn/eclipse-workspace/CoreNG/asf/common/services/clock/osc.h **** //! \name Oscillator Management
 138:/home/torbjorn/eclipse-workspace/CoreNG/asf/common/services/clock/osc.h **** //@{
 139:/home/torbjorn/eclipse-workspace/CoreNG/asf/common/services/clock/osc.h **** /**
 140:/home/torbjorn/eclipse-workspace/CoreNG/asf/common/services/clock/osc.h ****  * \fn void osc_enable(uint8_t id)
 141:/home/torbjorn/eclipse-workspace/CoreNG/asf/common/services/clock/osc.h ****  * \brief Enable oscillator \a id
 142:/home/torbjorn/eclipse-workspace/CoreNG/asf/common/services/clock/osc.h ****  *
 143:/home/torbjorn/eclipse-workspace/CoreNG/asf/common/services/clock/osc.h ****  * The startup time and mode value is automatically determined based on
 144:/home/torbjorn/eclipse-workspace/CoreNG/asf/common/services/clock/osc.h ****  * definitions in the board code.
 145:/home/torbjorn/eclipse-workspace/CoreNG/asf/common/services/clock/osc.h ****  */
 146:/home/torbjorn/eclipse-workspace/CoreNG/asf/common/services/clock/osc.h **** /**
 147:/home/torbjorn/eclipse-workspace/CoreNG/asf/common/services/clock/osc.h ****  * \fn void osc_disable(uint8_t id)
 148:/home/torbjorn/eclipse-workspace/CoreNG/asf/common/services/clock/osc.h ****  * \brief Disable oscillator \a id
 149:/home/torbjorn/eclipse-workspace/CoreNG/asf/common/services/clock/osc.h ****  */
 150:/home/torbjorn/eclipse-workspace/CoreNG/asf/common/services/clock/osc.h **** /**
 151:/home/torbjorn/eclipse-workspace/CoreNG/asf/common/services/clock/osc.h ****  * \fn osc_is_ready(uint8_t id)
 152:/home/torbjorn/eclipse-workspace/CoreNG/asf/common/services/clock/osc.h ****  * \brief Determine whether oscillator \a id is ready.
 153:/home/torbjorn/eclipse-workspace/CoreNG/asf/common/services/clock/osc.h ****  * \retval true Oscillator \a id is running and ready to use as a clock
 154:/home/torbjorn/eclipse-workspace/CoreNG/asf/common/services/clock/osc.h ****  * source.
 155:/home/torbjorn/eclipse-workspace/CoreNG/asf/common/services/clock/osc.h ****  * \retval false Oscillator \a id is not running.
 156:/home/torbjorn/eclipse-workspace/CoreNG/asf/common/services/clock/osc.h ****  */
 157:/home/torbjorn/eclipse-workspace/CoreNG/asf/common/services/clock/osc.h **** /**
ARM GAS  /tmp/ccizFQRG.s 			page 15


 158:/home/torbjorn/eclipse-workspace/CoreNG/asf/common/services/clock/osc.h ****  * \fn uint32_t osc_get_rate(uint8_t id)
 159:/home/torbjorn/eclipse-workspace/CoreNG/asf/common/services/clock/osc.h ****  * \brief Return the frequency of oscillator \a id in Hz
 160:/home/torbjorn/eclipse-workspace/CoreNG/asf/common/services/clock/osc.h ****  */
 161:/home/torbjorn/eclipse-workspace/CoreNG/asf/common/services/clock/osc.h **** 
 162:/home/torbjorn/eclipse-workspace/CoreNG/asf/common/services/clock/osc.h **** #ifndef __ASSEMBLY__
 163:/home/torbjorn/eclipse-workspace/CoreNG/asf/common/services/clock/osc.h **** 
 164:/home/torbjorn/eclipse-workspace/CoreNG/asf/common/services/clock/osc.h **** /**
 165:/home/torbjorn/eclipse-workspace/CoreNG/asf/common/services/clock/osc.h ****  * \brief Wait until the oscillator identified by \a id is ready
 166:/home/torbjorn/eclipse-workspace/CoreNG/asf/common/services/clock/osc.h ****  *
 167:/home/torbjorn/eclipse-workspace/CoreNG/asf/common/services/clock/osc.h ****  * This function will busy-wait for the oscillator identified by \a id
 168:/home/torbjorn/eclipse-workspace/CoreNG/asf/common/services/clock/osc.h ****  * to become stable and ready to use as a clock source.
 169:/home/torbjorn/eclipse-workspace/CoreNG/asf/common/services/clock/osc.h ****  *
 170:/home/torbjorn/eclipse-workspace/CoreNG/asf/common/services/clock/osc.h ****  * \param id A number identifying the oscillator to wait for.
 171:/home/torbjorn/eclipse-workspace/CoreNG/asf/common/services/clock/osc.h ****  */
 172:/home/torbjorn/eclipse-workspace/CoreNG/asf/common/services/clock/osc.h **** static inline void osc_wait_ready(uint8_t id)
 173:/home/torbjorn/eclipse-workspace/CoreNG/asf/common/services/clock/osc.h **** {
 174:/home/torbjorn/eclipse-workspace/CoreNG/asf/common/services/clock/osc.h **** 	while (!osc_is_ready(id)) {
 259              		.loc 3 174 0
 260 0014 0028     		cmp	r0, #0
 261 0016 FBD0     		beq	.L16
 262              	.LVL23:
 263              	.LBE43:
 264              	.LBE42:
 265              	.LBE39:
 266              	.LBB46:
 267              	.LBB47:
 268              		.file 4 "/home/torbjorn/eclipse-workspace/CoreNG/asf/common/services/clock/same70/pll.h"
   1:/home/torbjorn/eclipse-workspace/CoreNG/asf/common/services/clock/same70/pll.h **** /**
   2:/home/torbjorn/eclipse-workspace/CoreNG/asf/common/services/clock/same70/pll.h ****  * \file
   3:/home/torbjorn/eclipse-workspace/CoreNG/asf/common/services/clock/same70/pll.h ****  *
   4:/home/torbjorn/eclipse-workspace/CoreNG/asf/common/services/clock/same70/pll.h ****  * \brief Chip-specific PLL definitions.
   5:/home/torbjorn/eclipse-workspace/CoreNG/asf/common/services/clock/same70/pll.h ****  *
   6:/home/torbjorn/eclipse-workspace/CoreNG/asf/common/services/clock/same70/pll.h ****  * Copyright (c) 2015 Atmel Corporation. All rights reserved.
   7:/home/torbjorn/eclipse-workspace/CoreNG/asf/common/services/clock/same70/pll.h ****  *
   8:/home/torbjorn/eclipse-workspace/CoreNG/asf/common/services/clock/same70/pll.h ****  * \asf_license_start
   9:/home/torbjorn/eclipse-workspace/CoreNG/asf/common/services/clock/same70/pll.h ****  *
  10:/home/torbjorn/eclipse-workspace/CoreNG/asf/common/services/clock/same70/pll.h ****  * \page License
  11:/home/torbjorn/eclipse-workspace/CoreNG/asf/common/services/clock/same70/pll.h ****  *
  12:/home/torbjorn/eclipse-workspace/CoreNG/asf/common/services/clock/same70/pll.h ****  * Redistribution and use in source and binary forms, with or without
  13:/home/torbjorn/eclipse-workspace/CoreNG/asf/common/services/clock/same70/pll.h ****  * modification, are permitted provided that the following conditions are met:
  14:/home/torbjorn/eclipse-workspace/CoreNG/asf/common/services/clock/same70/pll.h ****  *
  15:/home/torbjorn/eclipse-workspace/CoreNG/asf/common/services/clock/same70/pll.h ****  * 1. Redistributions of source code must retain the above copyright notice,
  16:/home/torbjorn/eclipse-workspace/CoreNG/asf/common/services/clock/same70/pll.h ****  *    this list of conditions and the following disclaimer.
  17:/home/torbjorn/eclipse-workspace/CoreNG/asf/common/services/clock/same70/pll.h ****  *
  18:/home/torbjorn/eclipse-workspace/CoreNG/asf/common/services/clock/same70/pll.h ****  * 2. Redistributions in binary form must reproduce the above copyright notice,
  19:/home/torbjorn/eclipse-workspace/CoreNG/asf/common/services/clock/same70/pll.h ****  *    this list of conditions and the following disclaimer in the documentation
  20:/home/torbjorn/eclipse-workspace/CoreNG/asf/common/services/clock/same70/pll.h ****  *    and/or other materials provided with the distribution.
  21:/home/torbjorn/eclipse-workspace/CoreNG/asf/common/services/clock/same70/pll.h ****  *
  22:/home/torbjorn/eclipse-workspace/CoreNG/asf/common/services/clock/same70/pll.h ****  * 3. The name of Atmel may not be used to endorse or promote products derived
  23:/home/torbjorn/eclipse-workspace/CoreNG/asf/common/services/clock/same70/pll.h ****  *    from this software without specific prior written permission.
  24:/home/torbjorn/eclipse-workspace/CoreNG/asf/common/services/clock/same70/pll.h ****  *
  25:/home/torbjorn/eclipse-workspace/CoreNG/asf/common/services/clock/same70/pll.h ****  * 4. This software may only be redistributed and used in connection with an
  26:/home/torbjorn/eclipse-workspace/CoreNG/asf/common/services/clock/same70/pll.h ****  *    Atmel microcontroller product.
  27:/home/torbjorn/eclipse-workspace/CoreNG/asf/common/services/clock/same70/pll.h ****  *
  28:/home/torbjorn/eclipse-workspace/CoreNG/asf/common/services/clock/same70/pll.h ****  * THIS SOFTWARE IS PROVIDED BY ATMEL "AS IS" AND ANY EXPRESS OR IMPLIED
  29:/home/torbjorn/eclipse-workspace/CoreNG/asf/common/services/clock/same70/pll.h ****  * WARRANTIES, INCLUDING, BUT NOT LIMITED TO, THE IMPLIED WARRANTIES OF
  30:/home/torbjorn/eclipse-workspace/CoreNG/asf/common/services/clock/same70/pll.h ****  * MERCHANTABILITY, FITNESS FOR A PARTICULAR PURPOSE AND NON-INFRINGEMENT ARE
ARM GAS  /tmp/ccizFQRG.s 			page 16


  31:/home/torbjorn/eclipse-workspace/CoreNG/asf/common/services/clock/same70/pll.h ****  * EXPRESSLY AND SPECIFICALLY DISCLAIMED. IN NO EVENT SHALL ATMEL BE LIABLE FOR
  32:/home/torbjorn/eclipse-workspace/CoreNG/asf/common/services/clock/same70/pll.h ****  * ANY DIRECT, INDIRECT, INCIDENTAL, SPECIAL, EXEMPLARY, OR CONSEQUENTIAL
  33:/home/torbjorn/eclipse-workspace/CoreNG/asf/common/services/clock/same70/pll.h ****  * DAMAGES (INCLUDING, BUT NOT LIMITED TO, PROCUREMENT OF SUBSTITUTE GOODS
  34:/home/torbjorn/eclipse-workspace/CoreNG/asf/common/services/clock/same70/pll.h ****  * OR SERVICES; LOSS OF USE, DATA, OR PROFITS; OR BUSINESS INTERRUPTION)
  35:/home/torbjorn/eclipse-workspace/CoreNG/asf/common/services/clock/same70/pll.h ****  * HOWEVER CAUSED AND ON ANY THEORY OF LIABILITY, WHETHER IN CONTRACT,
  36:/home/torbjorn/eclipse-workspace/CoreNG/asf/common/services/clock/same70/pll.h ****  * STRICT LIABILITY, OR TORT (INCLUDING NEGLIGENCE OR OTHERWISE) ARISING IN
  37:/home/torbjorn/eclipse-workspace/CoreNG/asf/common/services/clock/same70/pll.h ****  * ANY WAY OUT OF THE USE OF THIS SOFTWARE, EVEN IF ADVISED OF THE
  38:/home/torbjorn/eclipse-workspace/CoreNG/asf/common/services/clock/same70/pll.h ****  * POSSIBILITY OF SUCH DAMAGE.
  39:/home/torbjorn/eclipse-workspace/CoreNG/asf/common/services/clock/same70/pll.h ****  *
  40:/home/torbjorn/eclipse-workspace/CoreNG/asf/common/services/clock/same70/pll.h ****  * \asf_license_stop
  41:/home/torbjorn/eclipse-workspace/CoreNG/asf/common/services/clock/same70/pll.h ****  *
  42:/home/torbjorn/eclipse-workspace/CoreNG/asf/common/services/clock/same70/pll.h ****  */
  43:/home/torbjorn/eclipse-workspace/CoreNG/asf/common/services/clock/same70/pll.h **** /*
  44:/home/torbjorn/eclipse-workspace/CoreNG/asf/common/services/clock/same70/pll.h ****  * Support and FAQ: visit <a href="http://www.atmel.com/design-support/">Atmel Support</a>
  45:/home/torbjorn/eclipse-workspace/CoreNG/asf/common/services/clock/same70/pll.h ****  */
  46:/home/torbjorn/eclipse-workspace/CoreNG/asf/common/services/clock/same70/pll.h **** 
  47:/home/torbjorn/eclipse-workspace/CoreNG/asf/common/services/clock/same70/pll.h **** #ifndef CHIP_PLL_H_INCLUDED
  48:/home/torbjorn/eclipse-workspace/CoreNG/asf/common/services/clock/same70/pll.h **** #define CHIP_PLL_H_INCLUDED
  49:/home/torbjorn/eclipse-workspace/CoreNG/asf/common/services/clock/same70/pll.h **** 
  50:/home/torbjorn/eclipse-workspace/CoreNG/asf/common/services/clock/same70/pll.h **** #include <osc.h>
  51:/home/torbjorn/eclipse-workspace/CoreNG/asf/common/services/clock/same70/pll.h **** 
  52:/home/torbjorn/eclipse-workspace/CoreNG/asf/common/services/clock/same70/pll.h **** /// @cond 0
  53:/home/torbjorn/eclipse-workspace/CoreNG/asf/common/services/clock/same70/pll.h **** /**INDENT-OFF**/
  54:/home/torbjorn/eclipse-workspace/CoreNG/asf/common/services/clock/same70/pll.h **** #ifdef __cplusplus
  55:/home/torbjorn/eclipse-workspace/CoreNG/asf/common/services/clock/same70/pll.h **** extern "C" {
  56:/home/torbjorn/eclipse-workspace/CoreNG/asf/common/services/clock/same70/pll.h **** #endif
  57:/home/torbjorn/eclipse-workspace/CoreNG/asf/common/services/clock/same70/pll.h **** /**INDENT-ON**/
  58:/home/torbjorn/eclipse-workspace/CoreNG/asf/common/services/clock/same70/pll.h **** /// @endcond
  59:/home/torbjorn/eclipse-workspace/CoreNG/asf/common/services/clock/same70/pll.h **** 
  60:/home/torbjorn/eclipse-workspace/CoreNG/asf/common/services/clock/same70/pll.h **** /**
  61:/home/torbjorn/eclipse-workspace/CoreNG/asf/common/services/clock/same70/pll.h ****  * \weakgroup pll_group
  62:/home/torbjorn/eclipse-workspace/CoreNG/asf/common/services/clock/same70/pll.h ****  * @{
  63:/home/torbjorn/eclipse-workspace/CoreNG/asf/common/services/clock/same70/pll.h ****  */
  64:/home/torbjorn/eclipse-workspace/CoreNG/asf/common/services/clock/same70/pll.h **** 
  65:/home/torbjorn/eclipse-workspace/CoreNG/asf/common/services/clock/same70/pll.h **** #define PLL_OUTPUT_MIN_HZ       160000000
  66:/home/torbjorn/eclipse-workspace/CoreNG/asf/common/services/clock/same70/pll.h **** #define PLL_OUTPUT_MAX_HZ       500000000
  67:/home/torbjorn/eclipse-workspace/CoreNG/asf/common/services/clock/same70/pll.h **** 
  68:/home/torbjorn/eclipse-workspace/CoreNG/asf/common/services/clock/same70/pll.h **** #define PLL_INPUT_MIN_HZ        3000000
  69:/home/torbjorn/eclipse-workspace/CoreNG/asf/common/services/clock/same70/pll.h **** #define PLL_INPUT_MAX_HZ        32000000
  70:/home/torbjorn/eclipse-workspace/CoreNG/asf/common/services/clock/same70/pll.h **** 
  71:/home/torbjorn/eclipse-workspace/CoreNG/asf/common/services/clock/same70/pll.h **** #define NR_PLLS             2
  72:/home/torbjorn/eclipse-workspace/CoreNG/asf/common/services/clock/same70/pll.h **** #define PLLA_ID             0
  73:/home/torbjorn/eclipse-workspace/CoreNG/asf/common/services/clock/same70/pll.h **** #define UPLL_ID             1   //!< USB UTMI PLL.
  74:/home/torbjorn/eclipse-workspace/CoreNG/asf/common/services/clock/same70/pll.h **** 
  75:/home/torbjorn/eclipse-workspace/CoreNG/asf/common/services/clock/same70/pll.h **** #define PLL_UPLL_HZ     480000000
  76:/home/torbjorn/eclipse-workspace/CoreNG/asf/common/services/clock/same70/pll.h **** 
  77:/home/torbjorn/eclipse-workspace/CoreNG/asf/common/services/clock/same70/pll.h **** #define PLL_COUNT   0x3fU
  78:/home/torbjorn/eclipse-workspace/CoreNG/asf/common/services/clock/same70/pll.h **** 
  79:/home/torbjorn/eclipse-workspace/CoreNG/asf/common/services/clock/same70/pll.h **** enum pll_source {
  80:/home/torbjorn/eclipse-workspace/CoreNG/asf/common/services/clock/same70/pll.h **** 	PLL_SRC_MAINCK_4M_RC   = OSC_MAINCK_4M_RC,  //!< Internal 4MHz RC oscillator.
  81:/home/torbjorn/eclipse-workspace/CoreNG/asf/common/services/clock/same70/pll.h **** 	PLL_SRC_MAINCK_8M_RC   = OSC_MAINCK_8M_RC,  //!< Internal 8MHz RC oscillator.
  82:/home/torbjorn/eclipse-workspace/CoreNG/asf/common/services/clock/same70/pll.h **** 	PLL_SRC_MAINCK_12M_RC  = OSC_MAINCK_12M_RC, //!< Internal 12MHz RC oscillator.
  83:/home/torbjorn/eclipse-workspace/CoreNG/asf/common/services/clock/same70/pll.h **** 	PLL_SRC_MAINCK_XTAL    = OSC_MAINCK_XTAL,   //!< External crystal oscillator.
  84:/home/torbjorn/eclipse-workspace/CoreNG/asf/common/services/clock/same70/pll.h **** 	PLL_SRC_MAINCK_BYPASS  = OSC_MAINCK_BYPASS, //!< External bypass oscillator.
  85:/home/torbjorn/eclipse-workspace/CoreNG/asf/common/services/clock/same70/pll.h **** 	PLL_NR_SOURCES,                             //!< Number of PLL sources.
  86:/home/torbjorn/eclipse-workspace/CoreNG/asf/common/services/clock/same70/pll.h **** };
  87:/home/torbjorn/eclipse-workspace/CoreNG/asf/common/services/clock/same70/pll.h **** 
ARM GAS  /tmp/ccizFQRG.s 			page 17


  88:/home/torbjorn/eclipse-workspace/CoreNG/asf/common/services/clock/same70/pll.h **** struct pll_config {
  89:/home/torbjorn/eclipse-workspace/CoreNG/asf/common/services/clock/same70/pll.h **** 	uint32_t ctrl;
  90:/home/torbjorn/eclipse-workspace/CoreNG/asf/common/services/clock/same70/pll.h **** };
  91:/home/torbjorn/eclipse-workspace/CoreNG/asf/common/services/clock/same70/pll.h **** 
  92:/home/torbjorn/eclipse-workspace/CoreNG/asf/common/services/clock/same70/pll.h **** #define pll_get_default_rate(pll_id)                                     \
  93:/home/torbjorn/eclipse-workspace/CoreNG/asf/common/services/clock/same70/pll.h **** 	((osc_get_rate(CONFIG_PLL##pll_id##_SOURCE)                      \
  94:/home/torbjorn/eclipse-workspace/CoreNG/asf/common/services/clock/same70/pll.h **** 			* CONFIG_PLL##pll_id##_MUL)                      \
  95:/home/torbjorn/eclipse-workspace/CoreNG/asf/common/services/clock/same70/pll.h **** 			/ CONFIG_PLL##pll_id##_DIV)
  96:/home/torbjorn/eclipse-workspace/CoreNG/asf/common/services/clock/same70/pll.h **** 
  97:/home/torbjorn/eclipse-workspace/CoreNG/asf/common/services/clock/same70/pll.h **** /* Force UTMI PLL parameters (Hardware defined) */
  98:/home/torbjorn/eclipse-workspace/CoreNG/asf/common/services/clock/same70/pll.h **** #ifdef CONFIG_PLL1_SOURCE
  99:/home/torbjorn/eclipse-workspace/CoreNG/asf/common/services/clock/same70/pll.h **** # undef CONFIG_PLL1_SOURCE
 100:/home/torbjorn/eclipse-workspace/CoreNG/asf/common/services/clock/same70/pll.h **** #endif
 101:/home/torbjorn/eclipse-workspace/CoreNG/asf/common/services/clock/same70/pll.h **** #ifdef CONFIG_PLL1_MUL
 102:/home/torbjorn/eclipse-workspace/CoreNG/asf/common/services/clock/same70/pll.h **** # undef CONFIG_PLL1_MUL
 103:/home/torbjorn/eclipse-workspace/CoreNG/asf/common/services/clock/same70/pll.h **** #endif
 104:/home/torbjorn/eclipse-workspace/CoreNG/asf/common/services/clock/same70/pll.h **** #ifdef CONFIG_PLL1_DIV
 105:/home/torbjorn/eclipse-workspace/CoreNG/asf/common/services/clock/same70/pll.h **** # undef CONFIG_PLL1_DIV
 106:/home/torbjorn/eclipse-workspace/CoreNG/asf/common/services/clock/same70/pll.h **** #endif
 107:/home/torbjorn/eclipse-workspace/CoreNG/asf/common/services/clock/same70/pll.h **** #define CONFIG_PLL1_SOURCE  PLL_SRC_MAINCK_XTAL
 108:/home/torbjorn/eclipse-workspace/CoreNG/asf/common/services/clock/same70/pll.h **** #define CONFIG_PLL1_MUL     0
 109:/home/torbjorn/eclipse-workspace/CoreNG/asf/common/services/clock/same70/pll.h **** #define CONFIG_PLL1_DIV     0
 110:/home/torbjorn/eclipse-workspace/CoreNG/asf/common/services/clock/same70/pll.h **** 
 111:/home/torbjorn/eclipse-workspace/CoreNG/asf/common/services/clock/same70/pll.h **** /**
 112:/home/torbjorn/eclipse-workspace/CoreNG/asf/common/services/clock/same70/pll.h ****  * \note The SAMV71 PLL hardware interprets mul as mul+1. For readability the
 113:/home/torbjorn/eclipse-workspace/CoreNG/asf/common/services/clock/same70/pll.h ****  * hardware mul+1 is hidden in this implementation. Use mul as mul effective
 114:/home/torbjorn/eclipse-workspace/CoreNG/asf/common/services/clock/same70/pll.h ****  * value.
 115:/home/torbjorn/eclipse-workspace/CoreNG/asf/common/services/clock/same70/pll.h ****  */
 116:/home/torbjorn/eclipse-workspace/CoreNG/asf/common/services/clock/same70/pll.h **** static inline void pll_config_init(struct pll_config *p_cfg,
 117:/home/torbjorn/eclipse-workspace/CoreNG/asf/common/services/clock/same70/pll.h **** 		enum pll_source e_src, uint32_t ul_div, uint32_t ul_mul)
 118:/home/torbjorn/eclipse-workspace/CoreNG/asf/common/services/clock/same70/pll.h **** {
 119:/home/torbjorn/eclipse-workspace/CoreNG/asf/common/services/clock/same70/pll.h **** 	uint32_t vco_hz;
 120:/home/torbjorn/eclipse-workspace/CoreNG/asf/common/services/clock/same70/pll.h **** 
 121:/home/torbjorn/eclipse-workspace/CoreNG/asf/common/services/clock/same70/pll.h **** 	Assert(e_src < PLL_NR_SOURCES);
 122:/home/torbjorn/eclipse-workspace/CoreNG/asf/common/services/clock/same70/pll.h **** 
 123:/home/torbjorn/eclipse-workspace/CoreNG/asf/common/services/clock/same70/pll.h **** 	if (ul_div == 0 && ul_mul == 0) { /* Must only be true for UTMI PLL */
 124:/home/torbjorn/eclipse-workspace/CoreNG/asf/common/services/clock/same70/pll.h **** 		p_cfg->ctrl = CKGR_UCKR_UPLLCOUNT(PLL_COUNT);
 125:/home/torbjorn/eclipse-workspace/CoreNG/asf/common/services/clock/same70/pll.h **** 	} else { /* PLLA */
 126:/home/torbjorn/eclipse-workspace/CoreNG/asf/common/services/clock/same70/pll.h **** 	/* Calculate internal VCO frequency */
 127:/home/torbjorn/eclipse-workspace/CoreNG/asf/common/services/clock/same70/pll.h **** 	vco_hz = osc_get_rate(e_src) / ul_div;
 128:/home/torbjorn/eclipse-workspace/CoreNG/asf/common/services/clock/same70/pll.h **** 	Assert(vco_hz >= PLL_INPUT_MIN_HZ);
 129:/home/torbjorn/eclipse-workspace/CoreNG/asf/common/services/clock/same70/pll.h **** 	Assert(vco_hz <= PLL_INPUT_MAX_HZ);
 130:/home/torbjorn/eclipse-workspace/CoreNG/asf/common/services/clock/same70/pll.h **** 
 131:/home/torbjorn/eclipse-workspace/CoreNG/asf/common/services/clock/same70/pll.h **** 	vco_hz *= ul_mul;
 132:/home/torbjorn/eclipse-workspace/CoreNG/asf/common/services/clock/same70/pll.h **** 	Assert(vco_hz >= PLL_OUTPUT_MIN_HZ);
 133:/home/torbjorn/eclipse-workspace/CoreNG/asf/common/services/clock/same70/pll.h **** 	Assert(vco_hz <= PLL_OUTPUT_MAX_HZ);
 134:/home/torbjorn/eclipse-workspace/CoreNG/asf/common/services/clock/same70/pll.h **** 
 135:/home/torbjorn/eclipse-workspace/CoreNG/asf/common/services/clock/same70/pll.h **** 	/* PMC hardware will automatically make it mul+1 */
 136:/home/torbjorn/eclipse-workspace/CoreNG/asf/common/services/clock/same70/pll.h **** 		p_cfg->ctrl = CKGR_PLLAR_MULA(ul_mul - 1) | CKGR_PLLAR_DIVA(ul_div)  \
 137:/home/torbjorn/eclipse-workspace/CoreNG/asf/common/services/clock/same70/pll.h **** 		| CKGR_PLLAR_PLLACOUNT(PLL_COUNT);
 138:/home/torbjorn/eclipse-workspace/CoreNG/asf/common/services/clock/same70/pll.h **** 	}
 139:/home/torbjorn/eclipse-workspace/CoreNG/asf/common/services/clock/same70/pll.h **** }
 140:/home/torbjorn/eclipse-workspace/CoreNG/asf/common/services/clock/same70/pll.h **** 
 141:/home/torbjorn/eclipse-workspace/CoreNG/asf/common/services/clock/same70/pll.h **** #define pll_config_defaults(cfg, pll_id)                                 \
 142:/home/torbjorn/eclipse-workspace/CoreNG/asf/common/services/clock/same70/pll.h **** 	pll_config_init(cfg,                                             \
 143:/home/torbjorn/eclipse-workspace/CoreNG/asf/common/services/clock/same70/pll.h **** 			CONFIG_PLL##pll_id##_SOURCE,                     \
 144:/home/torbjorn/eclipse-workspace/CoreNG/asf/common/services/clock/same70/pll.h **** 			CONFIG_PLL##pll_id##_DIV,                        \
ARM GAS  /tmp/ccizFQRG.s 			page 18


 145:/home/torbjorn/eclipse-workspace/CoreNG/asf/common/services/clock/same70/pll.h **** 			CONFIG_PLL##pll_id##_MUL)
 146:/home/torbjorn/eclipse-workspace/CoreNG/asf/common/services/clock/same70/pll.h **** 
 147:/home/torbjorn/eclipse-workspace/CoreNG/asf/common/services/clock/same70/pll.h **** static inline void pll_config_read(struct pll_config *p_cfg, uint32_t ul_pll_id)
 148:/home/torbjorn/eclipse-workspace/CoreNG/asf/common/services/clock/same70/pll.h **** {
 149:/home/torbjorn/eclipse-workspace/CoreNG/asf/common/services/clock/same70/pll.h **** 	Assert(ul_pll_id < NR_PLLS);
 150:/home/torbjorn/eclipse-workspace/CoreNG/asf/common/services/clock/same70/pll.h **** 
 151:/home/torbjorn/eclipse-workspace/CoreNG/asf/common/services/clock/same70/pll.h **** 	if (ul_pll_id == PLLA_ID) {
 152:/home/torbjorn/eclipse-workspace/CoreNG/asf/common/services/clock/same70/pll.h **** 		p_cfg->ctrl = PMC->CKGR_PLLAR;
 153:/home/torbjorn/eclipse-workspace/CoreNG/asf/common/services/clock/same70/pll.h **** 	} else {
 154:/home/torbjorn/eclipse-workspace/CoreNG/asf/common/services/clock/same70/pll.h **** 		p_cfg->ctrl = PMC->CKGR_UCKR;
 155:/home/torbjorn/eclipse-workspace/CoreNG/asf/common/services/clock/same70/pll.h **** 	}
 156:/home/torbjorn/eclipse-workspace/CoreNG/asf/common/services/clock/same70/pll.h **** }
 157:/home/torbjorn/eclipse-workspace/CoreNG/asf/common/services/clock/same70/pll.h **** 
 158:/home/torbjorn/eclipse-workspace/CoreNG/asf/common/services/clock/same70/pll.h **** static inline void pll_config_write(const struct pll_config *p_cfg, uint32_t ul_pll_id)
 159:/home/torbjorn/eclipse-workspace/CoreNG/asf/common/services/clock/same70/pll.h **** {
 160:/home/torbjorn/eclipse-workspace/CoreNG/asf/common/services/clock/same70/pll.h **** 	Assert(ul_pll_id < NR_PLLS);
 161:/home/torbjorn/eclipse-workspace/CoreNG/asf/common/services/clock/same70/pll.h **** 
 162:/home/torbjorn/eclipse-workspace/CoreNG/asf/common/services/clock/same70/pll.h **** 	if (ul_pll_id == PLLA_ID) {
 163:/home/torbjorn/eclipse-workspace/CoreNG/asf/common/services/clock/same70/pll.h **** 		pmc_disable_pllack(); // Always stop PLL first!
 164:/home/torbjorn/eclipse-workspace/CoreNG/asf/common/services/clock/same70/pll.h **** 		PMC->CKGR_PLLAR = CKGR_PLLAR_ONE | p_cfg->ctrl;
 165:/home/torbjorn/eclipse-workspace/CoreNG/asf/common/services/clock/same70/pll.h **** 	} else {
 166:/home/torbjorn/eclipse-workspace/CoreNG/asf/common/services/clock/same70/pll.h **** 		PMC->CKGR_UCKR = p_cfg->ctrl;
 167:/home/torbjorn/eclipse-workspace/CoreNG/asf/common/services/clock/same70/pll.h **** 	}
 168:/home/torbjorn/eclipse-workspace/CoreNG/asf/common/services/clock/same70/pll.h **** }
 169:/home/torbjorn/eclipse-workspace/CoreNG/asf/common/services/clock/same70/pll.h **** 
 170:/home/torbjorn/eclipse-workspace/CoreNG/asf/common/services/clock/same70/pll.h **** static inline void pll_enable(const struct pll_config *p_cfg, uint32_t ul_pll_id)
 171:/home/torbjorn/eclipse-workspace/CoreNG/asf/common/services/clock/same70/pll.h **** {
 172:/home/torbjorn/eclipse-workspace/CoreNG/asf/common/services/clock/same70/pll.h **** 	Assert(ul_pll_id < NR_PLLS);
 173:/home/torbjorn/eclipse-workspace/CoreNG/asf/common/services/clock/same70/pll.h **** 
 174:/home/torbjorn/eclipse-workspace/CoreNG/asf/common/services/clock/same70/pll.h **** 	if (ul_pll_id == PLLA_ID) {
 175:/home/torbjorn/eclipse-workspace/CoreNG/asf/common/services/clock/same70/pll.h **** 		pmc_disable_pllack(); // Always stop PLL first!
 269              		.loc 4 175 0
 270 0018 FFF7FEFF 		bl	pmc_disable_pllack
 271              	.LVL24:
 176:/home/torbjorn/eclipse-workspace/CoreNG/asf/common/services/clock/same70/pll.h **** 		PMC->CKGR_PLLAR = CKGR_PLLAR_ONE | p_cfg->ctrl;
 272              		.loc 4 176 0
 273 001c 0A4B     		ldr	r3, .L23+4
 274 001e 0B4A     		ldr	r2, .L23+8
 275 0020 9A62     		str	r2, [r3, #40]
 276              	.L17:
 277              	.LVL25:
 278              	.LBE47:
 279              	.LBE46:
 280              	.LBB48:
 281              	.LBB49:
 282              	.LBB50:
 283              	.LBB51:
 177:/home/torbjorn/eclipse-workspace/CoreNG/asf/common/services/clock/same70/pll.h **** 	} else {
 178:/home/torbjorn/eclipse-workspace/CoreNG/asf/common/services/clock/same70/pll.h **** 		PMC->CKGR_UCKR = p_cfg->ctrl | CKGR_UCKR_UPLLEN;
 179:/home/torbjorn/eclipse-workspace/CoreNG/asf/common/services/clock/same70/pll.h **** 	}
 180:/home/torbjorn/eclipse-workspace/CoreNG/asf/common/services/clock/same70/pll.h **** }
 181:/home/torbjorn/eclipse-workspace/CoreNG/asf/common/services/clock/same70/pll.h **** 
 182:/home/torbjorn/eclipse-workspace/CoreNG/asf/common/services/clock/same70/pll.h **** /**
 183:/home/torbjorn/eclipse-workspace/CoreNG/asf/common/services/clock/same70/pll.h ****  * \note This will only disable the selected PLL, not the underlying oscillator (mainck).
 184:/home/torbjorn/eclipse-workspace/CoreNG/asf/common/services/clock/same70/pll.h ****  */
 185:/home/torbjorn/eclipse-workspace/CoreNG/asf/common/services/clock/same70/pll.h **** static inline void pll_disable(uint32_t ul_pll_id)
 186:/home/torbjorn/eclipse-workspace/CoreNG/asf/common/services/clock/same70/pll.h **** {
ARM GAS  /tmp/ccizFQRG.s 			page 19


 187:/home/torbjorn/eclipse-workspace/CoreNG/asf/common/services/clock/same70/pll.h **** 	Assert(ul_pll_id < NR_PLLS);
 188:/home/torbjorn/eclipse-workspace/CoreNG/asf/common/services/clock/same70/pll.h **** 
 189:/home/torbjorn/eclipse-workspace/CoreNG/asf/common/services/clock/same70/pll.h **** 	if (ul_pll_id == PLLA_ID) {
 190:/home/torbjorn/eclipse-workspace/CoreNG/asf/common/services/clock/same70/pll.h **** 		pmc_disable_pllack();
 191:/home/torbjorn/eclipse-workspace/CoreNG/asf/common/services/clock/same70/pll.h **** 	} else {
 192:/home/torbjorn/eclipse-workspace/CoreNG/asf/common/services/clock/same70/pll.h **** 		PMC->CKGR_UCKR &= ~CKGR_UCKR_UPLLEN;
 193:/home/torbjorn/eclipse-workspace/CoreNG/asf/common/services/clock/same70/pll.h **** 	}
 194:/home/torbjorn/eclipse-workspace/CoreNG/asf/common/services/clock/same70/pll.h **** }
 195:/home/torbjorn/eclipse-workspace/CoreNG/asf/common/services/clock/same70/pll.h **** 
 196:/home/torbjorn/eclipse-workspace/CoreNG/asf/common/services/clock/same70/pll.h **** static inline uint32_t pll_is_locked(uint32_t ul_pll_id)
 197:/home/torbjorn/eclipse-workspace/CoreNG/asf/common/services/clock/same70/pll.h **** {
 198:/home/torbjorn/eclipse-workspace/CoreNG/asf/common/services/clock/same70/pll.h **** 	Assert(ul_pll_id < NR_PLLS);
 199:/home/torbjorn/eclipse-workspace/CoreNG/asf/common/services/clock/same70/pll.h **** 
 200:/home/torbjorn/eclipse-workspace/CoreNG/asf/common/services/clock/same70/pll.h **** 	if (ul_pll_id == PLLA_ID) {
 201:/home/torbjorn/eclipse-workspace/CoreNG/asf/common/services/clock/same70/pll.h **** 	return pmc_is_locked_pllack();
 284              		.loc 4 201 0
 285 0022 FFF7FEFF 		bl	pmc_is_locked_pllack
 286              	.LVL26:
 287              	.LBE51:
 288              	.LBE50:
 289              		.file 5 "/home/torbjorn/eclipse-workspace/CoreNG/asf/common/services/clock/pll.h"
   1:/home/torbjorn/eclipse-workspace/CoreNG/asf/common/services/clock/pll.h **** /**
   2:/home/torbjorn/eclipse-workspace/CoreNG/asf/common/services/clock/pll.h ****  * \file
   3:/home/torbjorn/eclipse-workspace/CoreNG/asf/common/services/clock/pll.h ****  *
   4:/home/torbjorn/eclipse-workspace/CoreNG/asf/common/services/clock/pll.h ****  * \brief PLL management
   5:/home/torbjorn/eclipse-workspace/CoreNG/asf/common/services/clock/pll.h ****  *
   6:/home/torbjorn/eclipse-workspace/CoreNG/asf/common/services/clock/pll.h ****  * Copyright (c) 2010-2015 Atmel Corporation. All rights reserved.
   7:/home/torbjorn/eclipse-workspace/CoreNG/asf/common/services/clock/pll.h ****  *
   8:/home/torbjorn/eclipse-workspace/CoreNG/asf/common/services/clock/pll.h ****  * \asf_license_start
   9:/home/torbjorn/eclipse-workspace/CoreNG/asf/common/services/clock/pll.h ****  *
  10:/home/torbjorn/eclipse-workspace/CoreNG/asf/common/services/clock/pll.h ****  * \page License
  11:/home/torbjorn/eclipse-workspace/CoreNG/asf/common/services/clock/pll.h ****  *
  12:/home/torbjorn/eclipse-workspace/CoreNG/asf/common/services/clock/pll.h ****  * Redistribution and use in source and binary forms, with or without
  13:/home/torbjorn/eclipse-workspace/CoreNG/asf/common/services/clock/pll.h ****  * modification, are permitted provided that the following conditions are met:
  14:/home/torbjorn/eclipse-workspace/CoreNG/asf/common/services/clock/pll.h ****  *
  15:/home/torbjorn/eclipse-workspace/CoreNG/asf/common/services/clock/pll.h ****  * 1. Redistributions of source code must retain the above copyright notice,
  16:/home/torbjorn/eclipse-workspace/CoreNG/asf/common/services/clock/pll.h ****  *    this list of conditions and the following disclaimer.
  17:/home/torbjorn/eclipse-workspace/CoreNG/asf/common/services/clock/pll.h ****  *
  18:/home/torbjorn/eclipse-workspace/CoreNG/asf/common/services/clock/pll.h ****  * 2. Redistributions in binary form must reproduce the above copyright notice,
  19:/home/torbjorn/eclipse-workspace/CoreNG/asf/common/services/clock/pll.h ****  *    this list of conditions and the following disclaimer in the documentation
  20:/home/torbjorn/eclipse-workspace/CoreNG/asf/common/services/clock/pll.h ****  *    and/or other materials provided with the distribution.
  21:/home/torbjorn/eclipse-workspace/CoreNG/asf/common/services/clock/pll.h ****  *
  22:/home/torbjorn/eclipse-workspace/CoreNG/asf/common/services/clock/pll.h ****  * 3. The name of Atmel may not be used to endorse or promote products derived
  23:/home/torbjorn/eclipse-workspace/CoreNG/asf/common/services/clock/pll.h ****  *    from this software without specific prior written permission.
  24:/home/torbjorn/eclipse-workspace/CoreNG/asf/common/services/clock/pll.h ****  *
  25:/home/torbjorn/eclipse-workspace/CoreNG/asf/common/services/clock/pll.h ****  * 4. This software may only be redistributed and used in connection with an
  26:/home/torbjorn/eclipse-workspace/CoreNG/asf/common/services/clock/pll.h ****  *    Atmel microcontroller product.
  27:/home/torbjorn/eclipse-workspace/CoreNG/asf/common/services/clock/pll.h ****  *
  28:/home/torbjorn/eclipse-workspace/CoreNG/asf/common/services/clock/pll.h ****  * THIS SOFTWARE IS PROVIDED BY ATMEL "AS IS" AND ANY EXPRESS OR IMPLIED
  29:/home/torbjorn/eclipse-workspace/CoreNG/asf/common/services/clock/pll.h ****  * WARRANTIES, INCLUDING, BUT NOT LIMITED TO, THE IMPLIED WARRANTIES OF
  30:/home/torbjorn/eclipse-workspace/CoreNG/asf/common/services/clock/pll.h ****  * MERCHANTABILITY, FITNESS FOR A PARTICULAR PURPOSE AND NON-INFRINGEMENT ARE
  31:/home/torbjorn/eclipse-workspace/CoreNG/asf/common/services/clock/pll.h ****  * EXPRESSLY AND SPECIFICALLY DISCLAIMED. IN NO EVENT SHALL ATMEL BE LIABLE FOR
  32:/home/torbjorn/eclipse-workspace/CoreNG/asf/common/services/clock/pll.h ****  * ANY DIRECT, INDIRECT, INCIDENTAL, SPECIAL, EXEMPLARY, OR CONSEQUENTIAL
  33:/home/torbjorn/eclipse-workspace/CoreNG/asf/common/services/clock/pll.h ****  * DAMAGES (INCLUDING, BUT NOT LIMITED TO, PROCUREMENT OF SUBSTITUTE GOODS
  34:/home/torbjorn/eclipse-workspace/CoreNG/asf/common/services/clock/pll.h ****  * OR SERVICES; LOSS OF USE, DATA, OR PROFITS; OR BUSINESS INTERRUPTION)
  35:/home/torbjorn/eclipse-workspace/CoreNG/asf/common/services/clock/pll.h ****  * HOWEVER CAUSED AND ON ANY THEORY OF LIABILITY, WHETHER IN CONTRACT,
  36:/home/torbjorn/eclipse-workspace/CoreNG/asf/common/services/clock/pll.h ****  * STRICT LIABILITY, OR TORT (INCLUDING NEGLIGENCE OR OTHERWISE) ARISING IN
ARM GAS  /tmp/ccizFQRG.s 			page 20


  37:/home/torbjorn/eclipse-workspace/CoreNG/asf/common/services/clock/pll.h ****  * ANY WAY OUT OF THE USE OF THIS SOFTWARE, EVEN IF ADVISED OF THE
  38:/home/torbjorn/eclipse-workspace/CoreNG/asf/common/services/clock/pll.h ****  * POSSIBILITY OF SUCH DAMAGE.
  39:/home/torbjorn/eclipse-workspace/CoreNG/asf/common/services/clock/pll.h ****  *
  40:/home/torbjorn/eclipse-workspace/CoreNG/asf/common/services/clock/pll.h ****  * \asf_license_stop
  41:/home/torbjorn/eclipse-workspace/CoreNG/asf/common/services/clock/pll.h ****  *
  42:/home/torbjorn/eclipse-workspace/CoreNG/asf/common/services/clock/pll.h ****  */
  43:/home/torbjorn/eclipse-workspace/CoreNG/asf/common/services/clock/pll.h **** /*
  44:/home/torbjorn/eclipse-workspace/CoreNG/asf/common/services/clock/pll.h ****  * Support and FAQ: visit <a href="http://www.atmel.com/design-support/">Atmel Support</a>
  45:/home/torbjorn/eclipse-workspace/CoreNG/asf/common/services/clock/pll.h ****  */
  46:/home/torbjorn/eclipse-workspace/CoreNG/asf/common/services/clock/pll.h **** #ifndef CLK_PLL_H_INCLUDED
  47:/home/torbjorn/eclipse-workspace/CoreNG/asf/common/services/clock/pll.h **** #define CLK_PLL_H_INCLUDED
  48:/home/torbjorn/eclipse-workspace/CoreNG/asf/common/services/clock/pll.h **** 
  49:/home/torbjorn/eclipse-workspace/CoreNG/asf/common/services/clock/pll.h **** #include "parts.h"
  50:/home/torbjorn/eclipse-workspace/CoreNG/asf/common/services/clock/pll.h **** #include "conf_clock.h"
  51:/home/torbjorn/eclipse-workspace/CoreNG/asf/common/services/clock/pll.h **** 
  52:/home/torbjorn/eclipse-workspace/CoreNG/asf/common/services/clock/pll.h **** #if SAM3S
  53:/home/torbjorn/eclipse-workspace/CoreNG/asf/common/services/clock/pll.h **** # include "sam3s/pll.h"
  54:/home/torbjorn/eclipse-workspace/CoreNG/asf/common/services/clock/pll.h **** #elif SAM3XA
  55:/home/torbjorn/eclipse-workspace/CoreNG/asf/common/services/clock/pll.h **** # include "sam3x/pll.h"
  56:/home/torbjorn/eclipse-workspace/CoreNG/asf/common/services/clock/pll.h **** #elif SAM3U
  57:/home/torbjorn/eclipse-workspace/CoreNG/asf/common/services/clock/pll.h **** # include "sam3u/pll.h"
  58:/home/torbjorn/eclipse-workspace/CoreNG/asf/common/services/clock/pll.h **** #elif SAM3N
  59:/home/torbjorn/eclipse-workspace/CoreNG/asf/common/services/clock/pll.h **** # include "sam3n/pll.h"
  60:/home/torbjorn/eclipse-workspace/CoreNG/asf/common/services/clock/pll.h **** #elif SAM4S
  61:/home/torbjorn/eclipse-workspace/CoreNG/asf/common/services/clock/pll.h **** # include "sam4s/pll.h"
  62:/home/torbjorn/eclipse-workspace/CoreNG/asf/common/services/clock/pll.h **** #elif SAM4E
  63:/home/torbjorn/eclipse-workspace/CoreNG/asf/common/services/clock/pll.h **** # include "sam4e/pll.h"
  64:/home/torbjorn/eclipse-workspace/CoreNG/asf/common/services/clock/pll.h **** #elif SAM4C
  65:/home/torbjorn/eclipse-workspace/CoreNG/asf/common/services/clock/pll.h **** # include "sam4c/pll.h"
  66:/home/torbjorn/eclipse-workspace/CoreNG/asf/common/services/clock/pll.h **** #elif SAM4CM
  67:/home/torbjorn/eclipse-workspace/CoreNG/asf/common/services/clock/pll.h **** # include "sam4cm/pll.h"
  68:/home/torbjorn/eclipse-workspace/CoreNG/asf/common/services/clock/pll.h **** #elif SAM4CP
  69:/home/torbjorn/eclipse-workspace/CoreNG/asf/common/services/clock/pll.h **** # include "sam4cp/pll.h"
  70:/home/torbjorn/eclipse-workspace/CoreNG/asf/common/services/clock/pll.h **** #elif SAM4L
  71:/home/torbjorn/eclipse-workspace/CoreNG/asf/common/services/clock/pll.h **** # include "sam4l/pll.h"
  72:/home/torbjorn/eclipse-workspace/CoreNG/asf/common/services/clock/pll.h **** #elif SAM4N
  73:/home/torbjorn/eclipse-workspace/CoreNG/asf/common/services/clock/pll.h **** # include "sam4n/pll.h"
  74:/home/torbjorn/eclipse-workspace/CoreNG/asf/common/services/clock/pll.h **** #elif SAMG
  75:/home/torbjorn/eclipse-workspace/CoreNG/asf/common/services/clock/pll.h **** # include "samg/pll.h"
  76:/home/torbjorn/eclipse-workspace/CoreNG/asf/common/services/clock/pll.h **** #elif SAMV71
  77:/home/torbjorn/eclipse-workspace/CoreNG/asf/common/services/clock/pll.h **** # include "samv71/pll.h"
  78:/home/torbjorn/eclipse-workspace/CoreNG/asf/common/services/clock/pll.h **** #elif SAMV70
  79:/home/torbjorn/eclipse-workspace/CoreNG/asf/common/services/clock/pll.h **** # include "samv70/pll.h"
  80:/home/torbjorn/eclipse-workspace/CoreNG/asf/common/services/clock/pll.h **** #elif SAME70
  81:/home/torbjorn/eclipse-workspace/CoreNG/asf/common/services/clock/pll.h **** # include "same70/pll.h"
  82:/home/torbjorn/eclipse-workspace/CoreNG/asf/common/services/clock/pll.h **** #elif SAMS70
  83:/home/torbjorn/eclipse-workspace/CoreNG/asf/common/services/clock/pll.h **** # include "sams70/pll.h"
  84:/home/torbjorn/eclipse-workspace/CoreNG/asf/common/services/clock/pll.h **** #elif (UC3A0 || UC3A1)
  85:/home/torbjorn/eclipse-workspace/CoreNG/asf/common/services/clock/pll.h **** # include "uc3a0_a1/pll.h"
  86:/home/torbjorn/eclipse-workspace/CoreNG/asf/common/services/clock/pll.h **** #elif UC3A3
  87:/home/torbjorn/eclipse-workspace/CoreNG/asf/common/services/clock/pll.h **** # include "uc3a3_a4/pll.h"
  88:/home/torbjorn/eclipse-workspace/CoreNG/asf/common/services/clock/pll.h **** #elif UC3B
  89:/home/torbjorn/eclipse-workspace/CoreNG/asf/common/services/clock/pll.h **** # include "uc3b0_b1/pll.h"
  90:/home/torbjorn/eclipse-workspace/CoreNG/asf/common/services/clock/pll.h **** #elif UC3C
  91:/home/torbjorn/eclipse-workspace/CoreNG/asf/common/services/clock/pll.h **** # include "uc3c/pll.h"
  92:/home/torbjorn/eclipse-workspace/CoreNG/asf/common/services/clock/pll.h **** #elif UC3D
  93:/home/torbjorn/eclipse-workspace/CoreNG/asf/common/services/clock/pll.h **** # include "uc3d/pll.h"
ARM GAS  /tmp/ccizFQRG.s 			page 21


  94:/home/torbjorn/eclipse-workspace/CoreNG/asf/common/services/clock/pll.h **** #elif (UC3L0128 || UC3L0256 || UC3L3_L4)
  95:/home/torbjorn/eclipse-workspace/CoreNG/asf/common/services/clock/pll.h **** # include "uc3l/pll.h"
  96:/home/torbjorn/eclipse-workspace/CoreNG/asf/common/services/clock/pll.h **** #elif XMEGA
  97:/home/torbjorn/eclipse-workspace/CoreNG/asf/common/services/clock/pll.h **** # include "xmega/pll.h"
  98:/home/torbjorn/eclipse-workspace/CoreNG/asf/common/services/clock/pll.h **** #else
  99:/home/torbjorn/eclipse-workspace/CoreNG/asf/common/services/clock/pll.h **** # error Unsupported chip type
 100:/home/torbjorn/eclipse-workspace/CoreNG/asf/common/services/clock/pll.h **** #endif
 101:/home/torbjorn/eclipse-workspace/CoreNG/asf/common/services/clock/pll.h **** 
 102:/home/torbjorn/eclipse-workspace/CoreNG/asf/common/services/clock/pll.h **** /**
 103:/home/torbjorn/eclipse-workspace/CoreNG/asf/common/services/clock/pll.h ****  * \ingroup clk_group
 104:/home/torbjorn/eclipse-workspace/CoreNG/asf/common/services/clock/pll.h ****  * \defgroup pll_group PLL Management
 105:/home/torbjorn/eclipse-workspace/CoreNG/asf/common/services/clock/pll.h ****  *
 106:/home/torbjorn/eclipse-workspace/CoreNG/asf/common/services/clock/pll.h ****  * This group contains functions and definitions related to configuring
 107:/home/torbjorn/eclipse-workspace/CoreNG/asf/common/services/clock/pll.h ****  * and enabling/disabling on-chip PLLs. A PLL will take an input signal
 108:/home/torbjorn/eclipse-workspace/CoreNG/asf/common/services/clock/pll.h ****  * (the \em source), optionally divide the frequency by a configurable
 109:/home/torbjorn/eclipse-workspace/CoreNG/asf/common/services/clock/pll.h ****  * \em divider, and then multiply the frequency by a configurable \em
 110:/home/torbjorn/eclipse-workspace/CoreNG/asf/common/services/clock/pll.h ****  * multiplier.
 111:/home/torbjorn/eclipse-workspace/CoreNG/asf/common/services/clock/pll.h ****  *
 112:/home/torbjorn/eclipse-workspace/CoreNG/asf/common/services/clock/pll.h ****  * Some devices don't support input dividers; specifying any other
 113:/home/torbjorn/eclipse-workspace/CoreNG/asf/common/services/clock/pll.h ****  * divisor than 1 on these devices will result in an assertion failure.
 114:/home/torbjorn/eclipse-workspace/CoreNG/asf/common/services/clock/pll.h ****  * Other devices may have various restrictions to the frequency range of
 115:/home/torbjorn/eclipse-workspace/CoreNG/asf/common/services/clock/pll.h ****  * the input and output signals.
 116:/home/torbjorn/eclipse-workspace/CoreNG/asf/common/services/clock/pll.h ****  *
 117:/home/torbjorn/eclipse-workspace/CoreNG/asf/common/services/clock/pll.h ****  * \par Example: Setting up PLL0 with default parameters
 118:/home/torbjorn/eclipse-workspace/CoreNG/asf/common/services/clock/pll.h ****  *
 119:/home/torbjorn/eclipse-workspace/CoreNG/asf/common/services/clock/pll.h ****  * The following example shows how to configure and enable PLL0 using
 120:/home/torbjorn/eclipse-workspace/CoreNG/asf/common/services/clock/pll.h ****  * the default parameters specified using the configuration symbols
 121:/home/torbjorn/eclipse-workspace/CoreNG/asf/common/services/clock/pll.h ****  * listed above.
 122:/home/torbjorn/eclipse-workspace/CoreNG/asf/common/services/clock/pll.h ****  * \code
 123:/home/torbjorn/eclipse-workspace/CoreNG/asf/common/services/clock/pll.h **** 	pll_enable_config_defaults(0); \endcode
 124:/home/torbjorn/eclipse-workspace/CoreNG/asf/common/services/clock/pll.h ****  *
 125:/home/torbjorn/eclipse-workspace/CoreNG/asf/common/services/clock/pll.h ****  * To configure, enable PLL0 using the default parameters and to disable
 126:/home/torbjorn/eclipse-workspace/CoreNG/asf/common/services/clock/pll.h ****  * a specific feature like Wide Bandwidth Mode (a UC3A3-specific
 127:/home/torbjorn/eclipse-workspace/CoreNG/asf/common/services/clock/pll.h ****  * PLL option.), you can use this initialization process.
 128:/home/torbjorn/eclipse-workspace/CoreNG/asf/common/services/clock/pll.h ****  * \code
 129:/home/torbjorn/eclipse-workspace/CoreNG/asf/common/services/clock/pll.h **** 	struct pll_config pllcfg;
 130:/home/torbjorn/eclipse-workspace/CoreNG/asf/common/services/clock/pll.h **** 	if (pll_is_locked(pll_id)) {
 131:/home/torbjorn/eclipse-workspace/CoreNG/asf/common/services/clock/pll.h **** 		return; // Pll already running
 132:/home/torbjorn/eclipse-workspace/CoreNG/asf/common/services/clock/pll.h **** 	}
 133:/home/torbjorn/eclipse-workspace/CoreNG/asf/common/services/clock/pll.h **** 	pll_enable_source(CONFIG_PLL0_SOURCE);
 134:/home/torbjorn/eclipse-workspace/CoreNG/asf/common/services/clock/pll.h **** 	pll_config_defaults(&pllcfg, 0);
 135:/home/torbjorn/eclipse-workspace/CoreNG/asf/common/services/clock/pll.h **** 	pll_config_set_option(&pllcfg, PLL_OPT_WBM_DISABLE);
 136:/home/torbjorn/eclipse-workspace/CoreNG/asf/common/services/clock/pll.h **** 	pll_enable(&pllcfg, 0);
 137:/home/torbjorn/eclipse-workspace/CoreNG/asf/common/services/clock/pll.h **** 	pll_wait_for_lock(0); \endcode
 138:/home/torbjorn/eclipse-workspace/CoreNG/asf/common/services/clock/pll.h ****  *
 139:/home/torbjorn/eclipse-workspace/CoreNG/asf/common/services/clock/pll.h ****  * When the last function call returns, PLL0 is ready to be used as the
 140:/home/torbjorn/eclipse-workspace/CoreNG/asf/common/services/clock/pll.h ****  * main system clock source.
 141:/home/torbjorn/eclipse-workspace/CoreNG/asf/common/services/clock/pll.h ****  *
 142:/home/torbjorn/eclipse-workspace/CoreNG/asf/common/services/clock/pll.h ****  * \section pll_group_config Configuration Symbols
 143:/home/torbjorn/eclipse-workspace/CoreNG/asf/common/services/clock/pll.h ****  *
 144:/home/torbjorn/eclipse-workspace/CoreNG/asf/common/services/clock/pll.h ****  * Each PLL has a set of default parameters determined by the following
 145:/home/torbjorn/eclipse-workspace/CoreNG/asf/common/services/clock/pll.h ****  * configuration symbols in the application's configuration file:
 146:/home/torbjorn/eclipse-workspace/CoreNG/asf/common/services/clock/pll.h ****  *   - \b CONFIG_PLLn_SOURCE: The default clock source connected to the
 147:/home/torbjorn/eclipse-workspace/CoreNG/asf/common/services/clock/pll.h ****  *     input of PLL \a n. Must be one of the values defined by the
 148:/home/torbjorn/eclipse-workspace/CoreNG/asf/common/services/clock/pll.h ****  *     #pll_source enum.
 149:/home/torbjorn/eclipse-workspace/CoreNG/asf/common/services/clock/pll.h ****  *   - \b CONFIG_PLLn_MUL: The default multiplier (loop divider) of PLL
 150:/home/torbjorn/eclipse-workspace/CoreNG/asf/common/services/clock/pll.h ****  *     \a n.
ARM GAS  /tmp/ccizFQRG.s 			page 22


 151:/home/torbjorn/eclipse-workspace/CoreNG/asf/common/services/clock/pll.h ****  *   - \b CONFIG_PLLn_DIV: The default input divider of PLL \a n.
 152:/home/torbjorn/eclipse-workspace/CoreNG/asf/common/services/clock/pll.h ****  *
 153:/home/torbjorn/eclipse-workspace/CoreNG/asf/common/services/clock/pll.h ****  * These configuration symbols determine the result of calling
 154:/home/torbjorn/eclipse-workspace/CoreNG/asf/common/services/clock/pll.h ****  * pll_config_defaults() and pll_get_default_rate().
 155:/home/torbjorn/eclipse-workspace/CoreNG/asf/common/services/clock/pll.h ****  *
 156:/home/torbjorn/eclipse-workspace/CoreNG/asf/common/services/clock/pll.h ****  * @{
 157:/home/torbjorn/eclipse-workspace/CoreNG/asf/common/services/clock/pll.h ****  */
 158:/home/torbjorn/eclipse-workspace/CoreNG/asf/common/services/clock/pll.h **** 
 159:/home/torbjorn/eclipse-workspace/CoreNG/asf/common/services/clock/pll.h **** //! \name Chip-specific PLL characteristics
 160:/home/torbjorn/eclipse-workspace/CoreNG/asf/common/services/clock/pll.h **** //@{
 161:/home/torbjorn/eclipse-workspace/CoreNG/asf/common/services/clock/pll.h **** /**
 162:/home/torbjorn/eclipse-workspace/CoreNG/asf/common/services/clock/pll.h ****  * \def PLL_MAX_STARTUP_CYCLES
 163:/home/torbjorn/eclipse-workspace/CoreNG/asf/common/services/clock/pll.h ****  * \brief Maximum PLL startup time in number of slow clock cycles
 164:/home/torbjorn/eclipse-workspace/CoreNG/asf/common/services/clock/pll.h ****  */
 165:/home/torbjorn/eclipse-workspace/CoreNG/asf/common/services/clock/pll.h **** /**
 166:/home/torbjorn/eclipse-workspace/CoreNG/asf/common/services/clock/pll.h ****  * \def NR_PLLS
 167:/home/torbjorn/eclipse-workspace/CoreNG/asf/common/services/clock/pll.h ****  * \brief Number of on-chip PLLs
 168:/home/torbjorn/eclipse-workspace/CoreNG/asf/common/services/clock/pll.h ****  */
 169:/home/torbjorn/eclipse-workspace/CoreNG/asf/common/services/clock/pll.h **** 
 170:/home/torbjorn/eclipse-workspace/CoreNG/asf/common/services/clock/pll.h **** /**
 171:/home/torbjorn/eclipse-workspace/CoreNG/asf/common/services/clock/pll.h ****  * \def PLL_MIN_HZ
 172:/home/torbjorn/eclipse-workspace/CoreNG/asf/common/services/clock/pll.h ****  * \brief Minimum frequency that the PLL can generate
 173:/home/torbjorn/eclipse-workspace/CoreNG/asf/common/services/clock/pll.h ****  */
 174:/home/torbjorn/eclipse-workspace/CoreNG/asf/common/services/clock/pll.h **** /**
 175:/home/torbjorn/eclipse-workspace/CoreNG/asf/common/services/clock/pll.h ****  * \def PLL_MAX_HZ
 176:/home/torbjorn/eclipse-workspace/CoreNG/asf/common/services/clock/pll.h ****  * \brief Maximum frequency that the PLL can generate
 177:/home/torbjorn/eclipse-workspace/CoreNG/asf/common/services/clock/pll.h ****  */
 178:/home/torbjorn/eclipse-workspace/CoreNG/asf/common/services/clock/pll.h **** /**
 179:/home/torbjorn/eclipse-workspace/CoreNG/asf/common/services/clock/pll.h ****  * \def PLL_NR_OPTIONS
 180:/home/torbjorn/eclipse-workspace/CoreNG/asf/common/services/clock/pll.h ****  * \brief Number of PLL option bits
 181:/home/torbjorn/eclipse-workspace/CoreNG/asf/common/services/clock/pll.h ****  */
 182:/home/torbjorn/eclipse-workspace/CoreNG/asf/common/services/clock/pll.h **** //@}
 183:/home/torbjorn/eclipse-workspace/CoreNG/asf/common/services/clock/pll.h **** 
 184:/home/torbjorn/eclipse-workspace/CoreNG/asf/common/services/clock/pll.h **** /**
 185:/home/torbjorn/eclipse-workspace/CoreNG/asf/common/services/clock/pll.h ****  * \enum pll_source
 186:/home/torbjorn/eclipse-workspace/CoreNG/asf/common/services/clock/pll.h ****  * \brief PLL clock source
 187:/home/torbjorn/eclipse-workspace/CoreNG/asf/common/services/clock/pll.h ****  */
 188:/home/torbjorn/eclipse-workspace/CoreNG/asf/common/services/clock/pll.h **** 
 189:/home/torbjorn/eclipse-workspace/CoreNG/asf/common/services/clock/pll.h **** //! \name PLL configuration
 190:/home/torbjorn/eclipse-workspace/CoreNG/asf/common/services/clock/pll.h **** //@{
 191:/home/torbjorn/eclipse-workspace/CoreNG/asf/common/services/clock/pll.h **** 
 192:/home/torbjorn/eclipse-workspace/CoreNG/asf/common/services/clock/pll.h **** /**
 193:/home/torbjorn/eclipse-workspace/CoreNG/asf/common/services/clock/pll.h ****  * \struct pll_config
 194:/home/torbjorn/eclipse-workspace/CoreNG/asf/common/services/clock/pll.h ****  * \brief Hardware-specific representation of PLL configuration.
 195:/home/torbjorn/eclipse-workspace/CoreNG/asf/common/services/clock/pll.h ****  *
 196:/home/torbjorn/eclipse-workspace/CoreNG/asf/common/services/clock/pll.h ****  * This structure contains one or more device-specific values
 197:/home/torbjorn/eclipse-workspace/CoreNG/asf/common/services/clock/pll.h ****  * representing the current PLL configuration. The contents of this
 198:/home/torbjorn/eclipse-workspace/CoreNG/asf/common/services/clock/pll.h ****  * structure is typically different from platform to platform, and the
 199:/home/torbjorn/eclipse-workspace/CoreNG/asf/common/services/clock/pll.h ****  * user should not access any fields except through the PLL
 200:/home/torbjorn/eclipse-workspace/CoreNG/asf/common/services/clock/pll.h ****  * configuration API.
 201:/home/torbjorn/eclipse-workspace/CoreNG/asf/common/services/clock/pll.h ****  */
 202:/home/torbjorn/eclipse-workspace/CoreNG/asf/common/services/clock/pll.h **** 
 203:/home/torbjorn/eclipse-workspace/CoreNG/asf/common/services/clock/pll.h **** /**
 204:/home/torbjorn/eclipse-workspace/CoreNG/asf/common/services/clock/pll.h ****  * \fn void pll_config_init(struct pll_config *cfg,
 205:/home/torbjorn/eclipse-workspace/CoreNG/asf/common/services/clock/pll.h ****  *              enum pll_source src, unsigned int div, unsigned int mul)
 206:/home/torbjorn/eclipse-workspace/CoreNG/asf/common/services/clock/pll.h ****  * \brief Initialize PLL configuration from standard parameters.
 207:/home/torbjorn/eclipse-workspace/CoreNG/asf/common/services/clock/pll.h ****  *
ARM GAS  /tmp/ccizFQRG.s 			page 23


 208:/home/torbjorn/eclipse-workspace/CoreNG/asf/common/services/clock/pll.h ****  * \note This function may be defined inline because it is assumed to be
 209:/home/torbjorn/eclipse-workspace/CoreNG/asf/common/services/clock/pll.h ****  * called very few times, and usually with constant parameters. Inlining
 210:/home/torbjorn/eclipse-workspace/CoreNG/asf/common/services/clock/pll.h ****  * it will in such cases reduce the code size significantly.
 211:/home/torbjorn/eclipse-workspace/CoreNG/asf/common/services/clock/pll.h ****  *
 212:/home/torbjorn/eclipse-workspace/CoreNG/asf/common/services/clock/pll.h ****  * \param cfg The PLL configuration to be initialized.
 213:/home/torbjorn/eclipse-workspace/CoreNG/asf/common/services/clock/pll.h ****  * \param src The oscillator to be used as input to the PLL.
 214:/home/torbjorn/eclipse-workspace/CoreNG/asf/common/services/clock/pll.h ****  * \param div PLL input divider.
 215:/home/torbjorn/eclipse-workspace/CoreNG/asf/common/services/clock/pll.h ****  * \param mul PLL loop divider (i.e. multiplier).
 216:/home/torbjorn/eclipse-workspace/CoreNG/asf/common/services/clock/pll.h ****  *
 217:/home/torbjorn/eclipse-workspace/CoreNG/asf/common/services/clock/pll.h ****  * \return A configuration which will make the PLL run at
 218:/home/torbjorn/eclipse-workspace/CoreNG/asf/common/services/clock/pll.h ****  * (\a mul / \a div) times the frequency of \a src
 219:/home/torbjorn/eclipse-workspace/CoreNG/asf/common/services/clock/pll.h ****  */
 220:/home/torbjorn/eclipse-workspace/CoreNG/asf/common/services/clock/pll.h **** /**
 221:/home/torbjorn/eclipse-workspace/CoreNG/asf/common/services/clock/pll.h ****  * \def pll_config_defaults(cfg, pll_id)
 222:/home/torbjorn/eclipse-workspace/CoreNG/asf/common/services/clock/pll.h ****  * \brief Initialize PLL configuration using default parameters.
 223:/home/torbjorn/eclipse-workspace/CoreNG/asf/common/services/clock/pll.h ****  *
 224:/home/torbjorn/eclipse-workspace/CoreNG/asf/common/services/clock/pll.h ****  * After this function returns, \a cfg will contain a configuration
 225:/home/torbjorn/eclipse-workspace/CoreNG/asf/common/services/clock/pll.h ****  * which will make the PLL run at (CONFIG_PLLx_MUL / CONFIG_PLLx_DIV)
 226:/home/torbjorn/eclipse-workspace/CoreNG/asf/common/services/clock/pll.h ****  * times the frequency of CONFIG_PLLx_SOURCE.
 227:/home/torbjorn/eclipse-workspace/CoreNG/asf/common/services/clock/pll.h ****  *
 228:/home/torbjorn/eclipse-workspace/CoreNG/asf/common/services/clock/pll.h ****  * \param cfg The PLL configuration to be initialized.
 229:/home/torbjorn/eclipse-workspace/CoreNG/asf/common/services/clock/pll.h ****  * \param pll_id Use defaults for this PLL.
 230:/home/torbjorn/eclipse-workspace/CoreNG/asf/common/services/clock/pll.h ****  */
 231:/home/torbjorn/eclipse-workspace/CoreNG/asf/common/services/clock/pll.h **** /**
 232:/home/torbjorn/eclipse-workspace/CoreNG/asf/common/services/clock/pll.h ****  * \def pll_get_default_rate(pll_id)
 233:/home/torbjorn/eclipse-workspace/CoreNG/asf/common/services/clock/pll.h ****  * \brief Get the default rate in Hz of \a pll_id
 234:/home/torbjorn/eclipse-workspace/CoreNG/asf/common/services/clock/pll.h ****  */
 235:/home/torbjorn/eclipse-workspace/CoreNG/asf/common/services/clock/pll.h **** /**
 236:/home/torbjorn/eclipse-workspace/CoreNG/asf/common/services/clock/pll.h ****  * \fn void pll_config_set_option(struct pll_config *cfg,
 237:/home/torbjorn/eclipse-workspace/CoreNG/asf/common/services/clock/pll.h ****  *              unsigned int option)
 238:/home/torbjorn/eclipse-workspace/CoreNG/asf/common/services/clock/pll.h ****  * \brief Set the PLL option bit \a option in the configuration \a cfg.
 239:/home/torbjorn/eclipse-workspace/CoreNG/asf/common/services/clock/pll.h ****  *
 240:/home/torbjorn/eclipse-workspace/CoreNG/asf/common/services/clock/pll.h ****  * \param cfg The PLL configuration to be changed.
 241:/home/torbjorn/eclipse-workspace/CoreNG/asf/common/services/clock/pll.h ****  * \param option The PLL option bit to be set.
 242:/home/torbjorn/eclipse-workspace/CoreNG/asf/common/services/clock/pll.h ****  */
 243:/home/torbjorn/eclipse-workspace/CoreNG/asf/common/services/clock/pll.h **** /**
 244:/home/torbjorn/eclipse-workspace/CoreNG/asf/common/services/clock/pll.h ****  * \fn void pll_config_clear_option(struct pll_config *cfg,
 245:/home/torbjorn/eclipse-workspace/CoreNG/asf/common/services/clock/pll.h ****  *              unsigned int option)
 246:/home/torbjorn/eclipse-workspace/CoreNG/asf/common/services/clock/pll.h ****  * \brief Clear the PLL option bit \a option in the configuration \a cfg.
 247:/home/torbjorn/eclipse-workspace/CoreNG/asf/common/services/clock/pll.h ****  *
 248:/home/torbjorn/eclipse-workspace/CoreNG/asf/common/services/clock/pll.h ****  * \param cfg The PLL configuration to be changed.
 249:/home/torbjorn/eclipse-workspace/CoreNG/asf/common/services/clock/pll.h ****  * \param option The PLL option bit to be cleared.
 250:/home/torbjorn/eclipse-workspace/CoreNG/asf/common/services/clock/pll.h ****  */
 251:/home/torbjorn/eclipse-workspace/CoreNG/asf/common/services/clock/pll.h **** /**
 252:/home/torbjorn/eclipse-workspace/CoreNG/asf/common/services/clock/pll.h ****  * \fn void pll_config_read(struct pll_config *cfg, unsigned int pll_id)
 253:/home/torbjorn/eclipse-workspace/CoreNG/asf/common/services/clock/pll.h ****  * \brief Read the currently active configuration of \a pll_id.
 254:/home/torbjorn/eclipse-workspace/CoreNG/asf/common/services/clock/pll.h ****  *
 255:/home/torbjorn/eclipse-workspace/CoreNG/asf/common/services/clock/pll.h ****  * \param cfg The configuration object into which to store the currently
 256:/home/torbjorn/eclipse-workspace/CoreNG/asf/common/services/clock/pll.h ****  * active configuration.
 257:/home/torbjorn/eclipse-workspace/CoreNG/asf/common/services/clock/pll.h ****  * \param pll_id The ID of the PLL to be accessed.
 258:/home/torbjorn/eclipse-workspace/CoreNG/asf/common/services/clock/pll.h ****  */
 259:/home/torbjorn/eclipse-workspace/CoreNG/asf/common/services/clock/pll.h **** /**
 260:/home/torbjorn/eclipse-workspace/CoreNG/asf/common/services/clock/pll.h ****  * \fn void pll_config_write(const struct pll_config *cfg,
 261:/home/torbjorn/eclipse-workspace/CoreNG/asf/common/services/clock/pll.h ****  *              unsigned int pll_id)
 262:/home/torbjorn/eclipse-workspace/CoreNG/asf/common/services/clock/pll.h ****  * \brief Activate the configuration \a cfg on \a pll_id
 263:/home/torbjorn/eclipse-workspace/CoreNG/asf/common/services/clock/pll.h ****  *
 264:/home/torbjorn/eclipse-workspace/CoreNG/asf/common/services/clock/pll.h ****  * \param cfg The configuration object representing the PLL
ARM GAS  /tmp/ccizFQRG.s 			page 24


 265:/home/torbjorn/eclipse-workspace/CoreNG/asf/common/services/clock/pll.h ****  * configuration to be activated.
 266:/home/torbjorn/eclipse-workspace/CoreNG/asf/common/services/clock/pll.h ****  * \param pll_id The ID of the PLL to be updated.
 267:/home/torbjorn/eclipse-workspace/CoreNG/asf/common/services/clock/pll.h ****  */
 268:/home/torbjorn/eclipse-workspace/CoreNG/asf/common/services/clock/pll.h **** 
 269:/home/torbjorn/eclipse-workspace/CoreNG/asf/common/services/clock/pll.h **** //@}
 270:/home/torbjorn/eclipse-workspace/CoreNG/asf/common/services/clock/pll.h **** 
 271:/home/torbjorn/eclipse-workspace/CoreNG/asf/common/services/clock/pll.h **** //! \name Interaction with the PLL hardware
 272:/home/torbjorn/eclipse-workspace/CoreNG/asf/common/services/clock/pll.h **** //@{
 273:/home/torbjorn/eclipse-workspace/CoreNG/asf/common/services/clock/pll.h **** /**
 274:/home/torbjorn/eclipse-workspace/CoreNG/asf/common/services/clock/pll.h ****  * \fn void pll_enable(const struct pll_config *cfg,
 275:/home/torbjorn/eclipse-workspace/CoreNG/asf/common/services/clock/pll.h ****  *              unsigned int pll_id)
 276:/home/torbjorn/eclipse-workspace/CoreNG/asf/common/services/clock/pll.h ****  * \brief Activate the configuration \a cfg and enable PLL \a pll_id.
 277:/home/torbjorn/eclipse-workspace/CoreNG/asf/common/services/clock/pll.h ****  *
 278:/home/torbjorn/eclipse-workspace/CoreNG/asf/common/services/clock/pll.h ****  * \param cfg The PLL configuration to be activated.
 279:/home/torbjorn/eclipse-workspace/CoreNG/asf/common/services/clock/pll.h ****  * \param pll_id The ID of the PLL to be enabled.
 280:/home/torbjorn/eclipse-workspace/CoreNG/asf/common/services/clock/pll.h ****  */
 281:/home/torbjorn/eclipse-workspace/CoreNG/asf/common/services/clock/pll.h **** /**
 282:/home/torbjorn/eclipse-workspace/CoreNG/asf/common/services/clock/pll.h ****  * \fn void pll_disable(unsigned int pll_id)
 283:/home/torbjorn/eclipse-workspace/CoreNG/asf/common/services/clock/pll.h ****  * \brief Disable the PLL identified by \a pll_id.
 284:/home/torbjorn/eclipse-workspace/CoreNG/asf/common/services/clock/pll.h ****  *
 285:/home/torbjorn/eclipse-workspace/CoreNG/asf/common/services/clock/pll.h ****  * After this function is called, the PLL identified by \a pll_id will
 286:/home/torbjorn/eclipse-workspace/CoreNG/asf/common/services/clock/pll.h ****  * be disabled. The PLL configuration stored in hardware may be affected
 287:/home/torbjorn/eclipse-workspace/CoreNG/asf/common/services/clock/pll.h ****  * by this, so if the caller needs to restore the same configuration
 288:/home/torbjorn/eclipse-workspace/CoreNG/asf/common/services/clock/pll.h ****  * later, it should either do a pll_config_read() before disabling the
 289:/home/torbjorn/eclipse-workspace/CoreNG/asf/common/services/clock/pll.h ****  * PLL, or remember the last configuration written to the PLL.
 290:/home/torbjorn/eclipse-workspace/CoreNG/asf/common/services/clock/pll.h ****  *
 291:/home/torbjorn/eclipse-workspace/CoreNG/asf/common/services/clock/pll.h ****  * \param pll_id The ID of the PLL to be disabled.
 292:/home/torbjorn/eclipse-workspace/CoreNG/asf/common/services/clock/pll.h ****  */
 293:/home/torbjorn/eclipse-workspace/CoreNG/asf/common/services/clock/pll.h **** /**
 294:/home/torbjorn/eclipse-workspace/CoreNG/asf/common/services/clock/pll.h ****  * \fn bool pll_is_locked(unsigned int pll_id)
 295:/home/torbjorn/eclipse-workspace/CoreNG/asf/common/services/clock/pll.h ****  * \brief Determine whether the PLL is locked or not.
 296:/home/torbjorn/eclipse-workspace/CoreNG/asf/common/services/clock/pll.h ****  *
 297:/home/torbjorn/eclipse-workspace/CoreNG/asf/common/services/clock/pll.h ****  * \param pll_id The ID of the PLL to check.
 298:/home/torbjorn/eclipse-workspace/CoreNG/asf/common/services/clock/pll.h ****  *
 299:/home/torbjorn/eclipse-workspace/CoreNG/asf/common/services/clock/pll.h ****  * \retval true The PLL is locked and ready to use as a clock source
 300:/home/torbjorn/eclipse-workspace/CoreNG/asf/common/services/clock/pll.h ****  * \retval false The PLL is not yet locked, or has not been enabled.
 301:/home/torbjorn/eclipse-workspace/CoreNG/asf/common/services/clock/pll.h ****  */
 302:/home/torbjorn/eclipse-workspace/CoreNG/asf/common/services/clock/pll.h **** /**
 303:/home/torbjorn/eclipse-workspace/CoreNG/asf/common/services/clock/pll.h ****  * \fn void pll_enable_source(enum pll_source src)
 304:/home/torbjorn/eclipse-workspace/CoreNG/asf/common/services/clock/pll.h ****  * \brief Enable the source of the pll.
 305:/home/torbjorn/eclipse-workspace/CoreNG/asf/common/services/clock/pll.h ****  * The source is enabled, if the source is not already running.
 306:/home/torbjorn/eclipse-workspace/CoreNG/asf/common/services/clock/pll.h ****  *
 307:/home/torbjorn/eclipse-workspace/CoreNG/asf/common/services/clock/pll.h ****  * \param src The ID of the PLL source to enable.
 308:/home/torbjorn/eclipse-workspace/CoreNG/asf/common/services/clock/pll.h ****  */
 309:/home/torbjorn/eclipse-workspace/CoreNG/asf/common/services/clock/pll.h **** /**
 310:/home/torbjorn/eclipse-workspace/CoreNG/asf/common/services/clock/pll.h ****  * \fn void pll_enable_config_defaults(unsigned int pll_id)
 311:/home/torbjorn/eclipse-workspace/CoreNG/asf/common/services/clock/pll.h ****  * \brief Enable the pll with the default configuration.
 312:/home/torbjorn/eclipse-workspace/CoreNG/asf/common/services/clock/pll.h ****  * PLL is enabled, if the PLL is not already locked.
 313:/home/torbjorn/eclipse-workspace/CoreNG/asf/common/services/clock/pll.h ****  *
 314:/home/torbjorn/eclipse-workspace/CoreNG/asf/common/services/clock/pll.h ****  * \param pll_id The ID of the PLL to enable.
 315:/home/torbjorn/eclipse-workspace/CoreNG/asf/common/services/clock/pll.h ****  */
 316:/home/torbjorn/eclipse-workspace/CoreNG/asf/common/services/clock/pll.h **** 
 317:/home/torbjorn/eclipse-workspace/CoreNG/asf/common/services/clock/pll.h **** /**
 318:/home/torbjorn/eclipse-workspace/CoreNG/asf/common/services/clock/pll.h ****  * \brief Wait for PLL \a pll_id to become locked
 319:/home/torbjorn/eclipse-workspace/CoreNG/asf/common/services/clock/pll.h ****  *
 320:/home/torbjorn/eclipse-workspace/CoreNG/asf/common/services/clock/pll.h ****  * \todo Use a timeout to avoid waiting forever and hanging the system
 321:/home/torbjorn/eclipse-workspace/CoreNG/asf/common/services/clock/pll.h ****  *
ARM GAS  /tmp/ccizFQRG.s 			page 25


 322:/home/torbjorn/eclipse-workspace/CoreNG/asf/common/services/clock/pll.h ****  * \param pll_id The ID of the PLL to wait for.
 323:/home/torbjorn/eclipse-workspace/CoreNG/asf/common/services/clock/pll.h ****  *
 324:/home/torbjorn/eclipse-workspace/CoreNG/asf/common/services/clock/pll.h ****  * \retval STATUS_OK The PLL is now locked.
 325:/home/torbjorn/eclipse-workspace/CoreNG/asf/common/services/clock/pll.h ****  * \retval ERR_TIMEOUT Timed out waiting for PLL to become locked.
 326:/home/torbjorn/eclipse-workspace/CoreNG/asf/common/services/clock/pll.h ****  */
 327:/home/torbjorn/eclipse-workspace/CoreNG/asf/common/services/clock/pll.h **** static inline int pll_wait_for_lock(unsigned int pll_id)
 328:/home/torbjorn/eclipse-workspace/CoreNG/asf/common/services/clock/pll.h **** {
 329:/home/torbjorn/eclipse-workspace/CoreNG/asf/common/services/clock/pll.h **** 	Assert(pll_id < NR_PLLS);
 330:/home/torbjorn/eclipse-workspace/CoreNG/asf/common/services/clock/pll.h **** 
 331:/home/torbjorn/eclipse-workspace/CoreNG/asf/common/services/clock/pll.h **** 	while (!pll_is_locked(pll_id)) {
 290              		.loc 5 331 0
 291 0026 0028     		cmp	r0, #0
 292 0028 FBD0     		beq	.L17
 293              	.LBE49:
 294              	.LBE48:
 174:../asf/common/services/clock/same70/sysclk.c **** 
 175:../asf/common/services/clock/same70/sysclk.c **** 	/* Config system clock setting */
 176:../asf/common/services/clock/same70/sysclk.c **** 	if (CONFIG_SYSCLK_SOURCE == SYSCLK_SRC_SLCK_RC) {
 177:../asf/common/services/clock/same70/sysclk.c **** 		osc_enable(OSC_SLCK_32K_RC);
 178:../asf/common/services/clock/same70/sysclk.c **** 		osc_wait_ready(OSC_SLCK_32K_RC);
 179:../asf/common/services/clock/same70/sysclk.c **** 		pmc_switch_mck_to_sclk(CONFIG_SYSCLK_PRES);
 180:../asf/common/services/clock/same70/sysclk.c **** 	}
 181:../asf/common/services/clock/same70/sysclk.c **** 
 182:../asf/common/services/clock/same70/sysclk.c **** 	else if (CONFIG_SYSCLK_SOURCE == SYSCLK_SRC_SLCK_XTAL) {
 183:../asf/common/services/clock/same70/sysclk.c **** 		osc_enable(OSC_SLCK_32K_XTAL);
 184:../asf/common/services/clock/same70/sysclk.c **** 		osc_wait_ready(OSC_SLCK_32K_XTAL);
 185:../asf/common/services/clock/same70/sysclk.c **** 		pmc_switch_mck_to_sclk(CONFIG_SYSCLK_PRES);
 186:../asf/common/services/clock/same70/sysclk.c **** 	}
 187:../asf/common/services/clock/same70/sysclk.c **** 
 188:../asf/common/services/clock/same70/sysclk.c **** 	else if (CONFIG_SYSCLK_SOURCE == SYSCLK_SRC_SLCK_BYPASS) {
 189:../asf/common/services/clock/same70/sysclk.c **** 		osc_enable(OSC_SLCK_32K_BYPASS);
 190:../asf/common/services/clock/same70/sysclk.c **** 		osc_wait_ready(OSC_SLCK_32K_BYPASS);
 191:../asf/common/services/clock/same70/sysclk.c **** 		pmc_switch_mck_to_sclk(CONFIG_SYSCLK_PRES);
 192:../asf/common/services/clock/same70/sysclk.c **** 	}
 193:../asf/common/services/clock/same70/sysclk.c **** 
 194:../asf/common/services/clock/same70/sysclk.c **** 	else if (CONFIG_SYSCLK_SOURCE == SYSCLK_SRC_MAINCK_4M_RC) {
 195:../asf/common/services/clock/same70/sysclk.c **** 		/* Already running from SYSCLK_SRC_MAINCK_4M_RC */
 196:../asf/common/services/clock/same70/sysclk.c **** 	}
 197:../asf/common/services/clock/same70/sysclk.c **** 
 198:../asf/common/services/clock/same70/sysclk.c **** 	else if (CONFIG_SYSCLK_SOURCE == SYSCLK_SRC_MAINCK_8M_RC) {
 199:../asf/common/services/clock/same70/sysclk.c **** 		osc_enable(OSC_MAINCK_8M_RC);
 200:../asf/common/services/clock/same70/sysclk.c **** 		osc_wait_ready(OSC_MAINCK_8M_RC);
 201:../asf/common/services/clock/same70/sysclk.c **** 		pmc_switch_mck_to_mainck(CONFIG_SYSCLK_PRES);
 202:../asf/common/services/clock/same70/sysclk.c **** 	}
 203:../asf/common/services/clock/same70/sysclk.c **** 
 204:../asf/common/services/clock/same70/sysclk.c **** 	else if (CONFIG_SYSCLK_SOURCE == SYSCLK_SRC_MAINCK_12M_RC) {
 205:../asf/common/services/clock/same70/sysclk.c **** 		osc_enable(OSC_MAINCK_12M_RC);
 206:../asf/common/services/clock/same70/sysclk.c **** 		osc_wait_ready(OSC_MAINCK_12M_RC);
 207:../asf/common/services/clock/same70/sysclk.c **** 		pmc_switch_mck_to_mainck(CONFIG_SYSCLK_PRES);
 208:../asf/common/services/clock/same70/sysclk.c **** 	}
 209:../asf/common/services/clock/same70/sysclk.c **** 
 210:../asf/common/services/clock/same70/sysclk.c **** 	else if (CONFIG_SYSCLK_SOURCE == SYSCLK_SRC_MAINCK_XTAL) {
 211:../asf/common/services/clock/same70/sysclk.c **** 		osc_enable(OSC_MAINCK_XTAL);
 212:../asf/common/services/clock/same70/sysclk.c **** 		osc_wait_ready(OSC_MAINCK_XTAL);
 213:../asf/common/services/clock/same70/sysclk.c **** 		pmc_switch_mck_to_mainck(CONFIG_SYSCLK_PRES);
 214:../asf/common/services/clock/same70/sysclk.c **** 	}
 215:../asf/common/services/clock/same70/sysclk.c **** 
ARM GAS  /tmp/ccizFQRG.s 			page 26


 216:../asf/common/services/clock/same70/sysclk.c **** 	else if (CONFIG_SYSCLK_SOURCE == SYSCLK_SRC_MAINCK_BYPASS) {
 217:../asf/common/services/clock/same70/sysclk.c **** 		osc_enable(OSC_MAINCK_BYPASS);
 218:../asf/common/services/clock/same70/sysclk.c **** 		osc_wait_ready(OSC_MAINCK_BYPASS);
 219:../asf/common/services/clock/same70/sysclk.c **** 		pmc_switch_mck_to_mainck(CONFIG_SYSCLK_PRES);
 220:../asf/common/services/clock/same70/sysclk.c **** 	}
 221:../asf/common/services/clock/same70/sysclk.c **** 
 222:../asf/common/services/clock/same70/sysclk.c **** #ifdef CONFIG_PLL0_SOURCE
 223:../asf/common/services/clock/same70/sysclk.c **** 	else if (CONFIG_SYSCLK_SOURCE == SYSCLK_SRC_PLLACK) {
 224:../asf/common/services/clock/same70/sysclk.c **** 		pll_enable_source(CONFIG_PLL0_SOURCE);
 225:../asf/common/services/clock/same70/sysclk.c **** 		pll_config_defaults(&pllcfg, 0);
 226:../asf/common/services/clock/same70/sysclk.c **** 		pll_enable(&pllcfg, 0);
 227:../asf/common/services/clock/same70/sysclk.c **** 		pll_wait_for_lock(0);
 228:../asf/common/services/clock/same70/sysclk.c **** 		pmc_mck_set_division(CONFIG_SYSCLK_DIV);
 295              		.loc 1 228 0
 296 002a 0220     		movs	r0, #2
 297 002c FFF7FEFF 		bl	pmc_mck_set_division
 298              	.LVL27:
 229:../asf/common/services/clock/same70/sysclk.c **** 		pmc_switch_mck_to_pllack(CONFIG_SYSCLK_PRES);
 299              		.loc 1 229 0
 300 0030 0020     		movs	r0, #0
 301 0032 FFF7FEFF 		bl	pmc_switch_mck_to_pllack
 302              	.LVL28:
 230:../asf/common/services/clock/same70/sysclk.c **** 	}
 231:../asf/common/services/clock/same70/sysclk.c **** #endif
 232:../asf/common/services/clock/same70/sysclk.c **** 
 233:../asf/common/services/clock/same70/sysclk.c **** 	else if (CONFIG_SYSCLK_SOURCE == SYSCLK_SRC_UPLLCK) {
 234:../asf/common/services/clock/same70/sysclk.c **** 		pll_enable_source(CONFIG_PLL1_SOURCE);
 235:../asf/common/services/clock/same70/sysclk.c **** 		pll_config_defaults(&pllcfg, 1);
 236:../asf/common/services/clock/same70/sysclk.c **** 		pll_enable(&pllcfg, 1);
 237:../asf/common/services/clock/same70/sysclk.c **** 		pll_wait_for_lock(1);
 238:../asf/common/services/clock/same70/sysclk.c **** 		pmc_mck_set_division(CONFIG_SYSCLK_DIV);
 239:../asf/common/services/clock/same70/sysclk.c **** 		pmc_switch_mck_to_upllck(CONFIG_SYSCLK_PRES);
 240:../asf/common/services/clock/same70/sysclk.c **** 	}
 241:../asf/common/services/clock/same70/sysclk.c **** 	/* Update the SystemFrequency variable */
 242:../asf/common/services/clock/same70/sysclk.c **** 	SystemCoreClockUpdate();
 303              		.loc 1 242 0
 304 0036 FFF7FEFF 		bl	SystemCoreClockUpdate
 305              	.LVL29:
 243:../asf/common/services/clock/same70/sysclk.c **** 
 244:../asf/common/services/clock/same70/sysclk.c **** 	/* Set a flash wait state depending on the new cpu frequency */
 245:../asf/common/services/clock/same70/sysclk.c **** 	system_init_flash(sysclk_get_cpu_hz());
 306              		.loc 1 245 0
 307 003a 0248     		ldr	r0, .L23
 246:../asf/common/services/clock/same70/sysclk.c **** 
 247:../asf/common/services/clock/same70/sysclk.c **** #if (defined CONFIG_SYSCLK_DEFAULT_RETURNS_SLOW_OSC)
 248:../asf/common/services/clock/same70/sysclk.c **** 	/* Signal that the internal frequencies are setup */
 249:../asf/common/services/clock/same70/sysclk.c **** 	sysclk_initialized = 1;
 250:../asf/common/services/clock/same70/sysclk.c **** #endif
 251:../asf/common/services/clock/same70/sysclk.c **** }
 308              		.loc 1 251 0
 309 003c BDE80840 		pop	{r3, lr}
 310              		.cfi_restore 14
 311              		.cfi_restore 3
 312              		.cfi_def_cfa_offset 0
 245:../asf/common/services/clock/same70/sysclk.c **** 
 313              		.loc 1 245 0
 314 0040 FFF7FEBF 		b	system_init_flash
ARM GAS  /tmp/ccizFQRG.s 			page 27


 315              	.LVL30:
 316              	.L24:
 317              		.align	2
 318              	.L23:
 319 0044 00A3E111 		.word	300000000
 320 0048 00060E40 		.word	1074660864
 321 004c 013F1820 		.word	538459905
 322              		.cfi_endproc
 323              	.LFE166:
 324              		.size	sysclk_init, .-sysclk_init
 325              		.section	.bss.cpu_irq_critical_section_counter,"aw",%nobits
 326              		.align	2
 327              		.type	cpu_irq_critical_section_counter, %object
 328              		.size	cpu_irq_critical_section_counter, 4
 329              	cpu_irq_critical_section_counter:
 330 0000 00000000 		.space	4
 331              		.section	.bss.cpu_irq_prev_interrupt_state,"aw",%nobits
 332              		.type	cpu_irq_prev_interrupt_state, %object
 333              		.size	cpu_irq_prev_interrupt_state, 1
 334              	cpu_irq_prev_interrupt_state:
 335 0000 00       		.space	1
 336              		.text
 337              	.Letext0:
 338              		.file 6 "/usr/include/newlib/machine/_default_types.h"
 339              		.file 7 "/usr/include/newlib/sys/_stdint.h"
 340              		.file 8 "/home/torbjorn/eclipse-workspace/CoreNG/asf/thirdparty/CMSIS/Include/core_cm7.h"
 341              		.file 9 "/home/torbjorn/eclipse-workspace/CoreNG/variants/same70/system_same70.h"
 342              		.file 10 "/home/torbjorn/eclipse-workspace/CoreNG/asf/sam/utils/cmsis/same70/include/component/pmc
 343              		.file 11 "/usr/include/newlib/sys/lock.h"
 344              		.file 12 "/usr/include/newlib/sys/_types.h"
 345              		.file 13 "/usr/lib/gcc/arm-none-eabi/6.3.1/include/stddef.h"
 346              		.file 14 "/usr/include/newlib/sys/reent.h"
 347              		.file 15 "/usr/include/newlib/stdlib.h"
 348              		.file 16 "/home/torbjorn/eclipse-workspace/CoreNG/asf/common/utils/interrupt/interrupt_sam_nvic.h"
 349              		.file 17 "/home/torbjorn/eclipse-workspace/CoreNG/asf/common/services/clock/same70/sysclk.h"
 350              		.file 18 "/home/torbjorn/eclipse-workspace/CoreNG/asf/sam/drivers/pmc/pmc.h"