ARM GAS  /tmp/ccPSOZXt.s 			page 1


   1              		.cpu cortex-m7
   2              		.eabi_attribute 28, 1
   3              		.eabi_attribute 20, 1
   4              		.eabi_attribute 21, 1
   5              		.eabi_attribute 23, 3
   6              		.eabi_attribute 24, 1
   7              		.eabi_attribute 25, 1
   8              		.eabi_attribute 26, 1
   9              		.eabi_attribute 30, 2
  10              		.eabi_attribute 34, 1
  11              		.eabi_attribute 18, 4
  12              		.file	"uart.c"
  13              		.text
  14              	.Ltext0:
  15              		.cfi_sections	.debug_frame
  16              		.section	.text.uart_init,"ax",%progbits
  17              		.align	1
  18              		.p2align 2,,3
  19              		.global	uart_init
  20              		.syntax unified
  21              		.thumb
  22              		.thumb_func
  23              		.fpu fpv5-d16
  24              		.type	uart_init, %function
  25              	uart_init:
  26              	.LFB142:
  27              		.file 1 "../asf/sam/drivers/uart/uart.c"
   1:../asf/sam/drivers/uart/uart.c **** /**
   2:../asf/sam/drivers/uart/uart.c ****  * \file
   3:../asf/sam/drivers/uart/uart.c ****  *
   4:../asf/sam/drivers/uart/uart.c ****  * \brief Universal Asynchronous Receiver Transceiver (UART) driver for SAM.
   5:../asf/sam/drivers/uart/uart.c ****  *
   6:../asf/sam/drivers/uart/uart.c ****  * Copyright (c) 2011-2015 Atmel Corporation. All rights reserved.
   7:../asf/sam/drivers/uart/uart.c ****  *
   8:../asf/sam/drivers/uart/uart.c ****  * \asf_license_start
   9:../asf/sam/drivers/uart/uart.c ****  *
  10:../asf/sam/drivers/uart/uart.c ****  * \page License
  11:../asf/sam/drivers/uart/uart.c ****  *
  12:../asf/sam/drivers/uart/uart.c ****  * Redistribution and use in source and binary forms, with or without
  13:../asf/sam/drivers/uart/uart.c ****  * modification, are permitted provided that the following conditions are met:
  14:../asf/sam/drivers/uart/uart.c ****  *
  15:../asf/sam/drivers/uart/uart.c ****  * 1. Redistributions of source code must retain the above copyright notice,
  16:../asf/sam/drivers/uart/uart.c ****  *    this list of conditions and the following disclaimer.
  17:../asf/sam/drivers/uart/uart.c ****  *
  18:../asf/sam/drivers/uart/uart.c ****  * 2. Redistributions in binary form must reproduce the above copyright notice,
  19:../asf/sam/drivers/uart/uart.c ****  *    this list of conditions and the following disclaimer in the documentation
  20:../asf/sam/drivers/uart/uart.c ****  *    and/or other materials provided with the distribution.
  21:../asf/sam/drivers/uart/uart.c ****  *
  22:../asf/sam/drivers/uart/uart.c ****  * 3. The name of Atmel may not be used to endorse or promote products derived
  23:../asf/sam/drivers/uart/uart.c ****  *    from this software without specific prior written permission.
  24:../asf/sam/drivers/uart/uart.c ****  *
  25:../asf/sam/drivers/uart/uart.c ****  * 4. This software may only be redistributed and used in connection with an
  26:../asf/sam/drivers/uart/uart.c ****  *    Atmel microcontroller product.
  27:../asf/sam/drivers/uart/uart.c ****  *
  28:../asf/sam/drivers/uart/uart.c ****  * THIS SOFTWARE IS PROVIDED BY ATMEL "AS IS" AND ANY EXPRESS OR IMPLIED
  29:../asf/sam/drivers/uart/uart.c ****  * WARRANTIES, INCLUDING, BUT NOT LIMITED TO, THE IMPLIED WARRANTIES OF
  30:../asf/sam/drivers/uart/uart.c ****  * MERCHANTABILITY, FITNESS FOR A PARTICULAR PURPOSE AND NON-INFRINGEMENT ARE
ARM GAS  /tmp/ccPSOZXt.s 			page 2


  31:../asf/sam/drivers/uart/uart.c ****  * EXPRESSLY AND SPECIFICALLY DISCLAIMED. IN NO EVENT SHALL ATMEL BE LIABLE FOR
  32:../asf/sam/drivers/uart/uart.c ****  * ANY DIRECT, INDIRECT, INCIDENTAL, SPECIAL, EXEMPLARY, OR CONSEQUENTIAL
  33:../asf/sam/drivers/uart/uart.c ****  * DAMAGES (INCLUDING, BUT NOT LIMITED TO, PROCUREMENT OF SUBSTITUTE GOODS
  34:../asf/sam/drivers/uart/uart.c ****  * OR SERVICES; LOSS OF USE, DATA, OR PROFITS; OR BUSINESS INTERRUPTION)
  35:../asf/sam/drivers/uart/uart.c ****  * HOWEVER CAUSED AND ON ANY THEORY OF LIABILITY, WHETHER IN CONTRACT,
  36:../asf/sam/drivers/uart/uart.c ****  * STRICT LIABILITY, OR TORT (INCLUDING NEGLIGENCE OR OTHERWISE) ARISING IN
  37:../asf/sam/drivers/uart/uart.c ****  * ANY WAY OUT OF THE USE OF THIS SOFTWARE, EVEN IF ADVISED OF THE
  38:../asf/sam/drivers/uart/uart.c ****  * POSSIBILITY OF SUCH DAMAGE.
  39:../asf/sam/drivers/uart/uart.c ****  *
  40:../asf/sam/drivers/uart/uart.c ****  * \asf_license_stop
  41:../asf/sam/drivers/uart/uart.c ****  *
  42:../asf/sam/drivers/uart/uart.c ****  */
  43:../asf/sam/drivers/uart/uart.c **** /*
  44:../asf/sam/drivers/uart/uart.c ****  * Support and FAQ: visit <a href="http://www.atmel.com/design-support/">Atmel Support</a>
  45:../asf/sam/drivers/uart/uart.c ****  */
  46:../asf/sam/drivers/uart/uart.c **** 
  47:../asf/sam/drivers/uart/uart.c **** #include "uart.h"
  48:../asf/sam/drivers/uart/uart.c **** 
  49:../asf/sam/drivers/uart/uart.c **** /// @cond 0
  50:../asf/sam/drivers/uart/uart.c **** /**INDENT-OFF**/
  51:../asf/sam/drivers/uart/uart.c **** #ifdef __cplusplus
  52:../asf/sam/drivers/uart/uart.c **** extern "C" {
  53:../asf/sam/drivers/uart/uart.c **** #endif
  54:../asf/sam/drivers/uart/uart.c **** /**INDENT-ON**/
  55:../asf/sam/drivers/uart/uart.c **** /// @endcond
  56:../asf/sam/drivers/uart/uart.c **** 
  57:../asf/sam/drivers/uart/uart.c **** /**
  58:../asf/sam/drivers/uart/uart.c ****  * \defgroup sam_drivers_uart_group Universal Asynchronous Receiver Transceiver (UART)
  59:../asf/sam/drivers/uart/uart.c ****  *
  60:../asf/sam/drivers/uart/uart.c ****  * The Universal Asynchronous Receiver Transmitter features a two-pin UART that
  61:../asf/sam/drivers/uart/uart.c ****  * can be used for communication and trace purposes and offers an ideal medium
  62:../asf/sam/drivers/uart/uart.c ****  * for in-situ programming solutions. Moreover, the association with two
  63:../asf/sam/drivers/uart/uart.c ****  * peripheral DMA controller (PDC) channels permits packet handling for these
  64:../asf/sam/drivers/uart/uart.c ****  * tasks with processor time reduced to a minimum.
  65:../asf/sam/drivers/uart/uart.c ****  *
  66:../asf/sam/drivers/uart/uart.c ****  * \par Usage
  67:../asf/sam/drivers/uart/uart.c ****  *
  68:../asf/sam/drivers/uart/uart.c ****  * -# Enable the UART peripheral clock in the PMC.
  69:../asf/sam/drivers/uart/uart.c ****  * -# Enable the required UART PIOs (see pio.h).
  70:../asf/sam/drivers/uart/uart.c ****  * -# Configure the UART by calling uart_init.
  71:../asf/sam/drivers/uart/uart.c ****  * -# Send data through the UART using the uart_write.
  72:../asf/sam/drivers/uart/uart.c ****  * -# Receive data from the UART using the uart_read; the availability of data
  73:../asf/sam/drivers/uart/uart.c ****  *    can be polled with uart_is_rx_ready.
  74:../asf/sam/drivers/uart/uart.c ****  * -# Disable the transmitter and/or the receiver of the UART with
  75:../asf/sam/drivers/uart/uart.c ****  *    uart_disable_tx and uart_disable_rx.
  76:../asf/sam/drivers/uart/uart.c ****  *
  77:../asf/sam/drivers/uart/uart.c ****  * @{
  78:../asf/sam/drivers/uart/uart.c ****  */
  79:../asf/sam/drivers/uart/uart.c **** 
  80:../asf/sam/drivers/uart/uart.c **** /**
  81:../asf/sam/drivers/uart/uart.c ****  * \brief Configure UART with the specified parameters.
  82:../asf/sam/drivers/uart/uart.c ****  *
  83:../asf/sam/drivers/uart/uart.c ****  * \note The PMC and PIOs must be configured first.
  84:../asf/sam/drivers/uart/uart.c ****  *
  85:../asf/sam/drivers/uart/uart.c ****  * \param p_uart Pointer to a UART instance.
  86:../asf/sam/drivers/uart/uart.c ****  * \param p_uart_opt Pointer to sam_uart_opt_t instance.
  87:../asf/sam/drivers/uart/uart.c ****  *
ARM GAS  /tmp/ccPSOZXt.s 			page 3


  88:../asf/sam/drivers/uart/uart.c ****  * \retval 0 Success.
  89:../asf/sam/drivers/uart/uart.c ****  * \retval 1 Bad baud rate generator value.
  90:../asf/sam/drivers/uart/uart.c ****  */
  91:../asf/sam/drivers/uart/uart.c **** uint32_t uart_init(Uart *p_uart, const sam_uart_opt_t *p_uart_opt)
  92:../asf/sam/drivers/uart/uart.c **** {
  28              		.loc 1 92 0
  29              		.cfi_startproc
  30              		@ args = 0, pretend = 0, frame = 0
  31              		@ frame_needed = 0, uses_anonymous_args = 0
  32              		@ link register save eliminated.
  33              	.LVL0:
  34 0000 30B4     		push	{r4, r5}
  35              		.cfi_def_cfa_offset 8
  36              		.cfi_offset 4, -8
  37              		.cfi_offset 5, -4
  93:../asf/sam/drivers/uart/uart.c **** 	uint32_t cd = 0;
  94:../asf/sam/drivers/uart/uart.c **** 
  95:../asf/sam/drivers/uart/uart.c **** 	/* Reset and disable receiver & transmitter */
  96:../asf/sam/drivers/uart/uart.c **** 	p_uart->UART_CR = UART_CR_RSTRX | UART_CR_RSTTX
  97:../asf/sam/drivers/uart/uart.c **** 			| UART_CR_RXDIS | UART_CR_TXDIS;
  98:../asf/sam/drivers/uart/uart.c **** 
  99:../asf/sam/drivers/uart/uart.c **** 	/* Check and configure baudrate */
 100:../asf/sam/drivers/uart/uart.c **** 	/* Asynchronous, no oversampling */
 101:../asf/sam/drivers/uart/uart.c **** 	cd = (p_uart_opt->ul_mck / p_uart_opt->ul_baudrate) / UART_MCK_DIV;
  38              		.loc 1 101 0
  39 0002 91E81800 		ldm	r1, {r3, r4}
  92:../asf/sam/drivers/uart/uart.c **** 	uint32_t cd = 0;
  40              		.loc 1 92 0
  41 0006 0246     		mov	r2, r0
 102:../asf/sam/drivers/uart/uart.c **** 	if (cd < UART_MCK_DIV_MIN_FACTOR || cd > UART_MCK_DIV_MAX_FACTOR)
  42              		.loc 1 102 0
  43 0008 4FF6FE70 		movw	r0, #65534
  44              	.LVL1:
  96:../asf/sam/drivers/uart/uart.c **** 			| UART_CR_RXDIS | UART_CR_TXDIS;
  45              		.loc 1 96 0
  46 000c AC25     		movs	r5, #172
 101:../asf/sam/drivers/uart/uart.c **** 	if (cd < UART_MCK_DIV_MIN_FACTOR || cd > UART_MCK_DIV_MAX_FACTOR)
  47              		.loc 1 101 0
  48 000e B3FBF4F3 		udiv	r3, r3, r4
  49 0012 1B09     		lsrs	r3, r3, #4
  50              	.LVL2:
  96:../asf/sam/drivers/uart/uart.c **** 			| UART_CR_RXDIS | UART_CR_TXDIS;
  51              		.loc 1 96 0
  52 0014 1560     		str	r5, [r2]
  53              		.loc 1 102 0
  54 0016 5C1E     		subs	r4, r3, #1
  55 0018 8442     		cmp	r4, r0
  56 001a 07D8     		bhi	.L3
 103:../asf/sam/drivers/uart/uart.c **** 		return 1;
 104:../asf/sam/drivers/uart/uart.c **** 
 105:../asf/sam/drivers/uart/uart.c **** 	p_uart->UART_BRGR = cd;
 106:../asf/sam/drivers/uart/uart.c **** 	/* Configure mode */
 107:../asf/sam/drivers/uart/uart.c **** 	p_uart->UART_MR = p_uart_opt->ul_mode;
  57              		.loc 1 107 0
  58 001c 8C68     		ldr	r4, [r1, #8]
 108:../asf/sam/drivers/uart/uart.c **** 
 109:../asf/sam/drivers/uart/uart.c **** #if (!SAMV71 && !SAMV70 && !SAME70 && !SAMS70)
ARM GAS  /tmp/ccPSOZXt.s 			page 4


 110:../asf/sam/drivers/uart/uart.c **** 	/* Disable PDC channel */
 111:../asf/sam/drivers/uart/uart.c **** 	p_uart->UART_PTCR = UART_PTCR_RXTDIS | UART_PTCR_TXTDIS;
 112:../asf/sam/drivers/uart/uart.c **** #endif
 113:../asf/sam/drivers/uart/uart.c **** 
 114:../asf/sam/drivers/uart/uart.c **** 	/* Enable receiver and transmitter */
 115:../asf/sam/drivers/uart/uart.c **** 	p_uart->UART_CR = UART_CR_RXEN | UART_CR_TXEN;
  59              		.loc 1 115 0
  60 001e 5021     		movs	r1, #80
  61              	.LVL3:
 105:../asf/sam/drivers/uart/uart.c **** 	/* Configure mode */
  62              		.loc 1 105 0
  63 0020 1362     		str	r3, [r2, #32]
 116:../asf/sam/drivers/uart/uart.c **** 
 117:../asf/sam/drivers/uart/uart.c **** 	return 0;
  64              		.loc 1 117 0
  65 0022 0020     		movs	r0, #0
 107:../asf/sam/drivers/uart/uart.c **** 
  66              		.loc 1 107 0
  67 0024 5460     		str	r4, [r2, #4]
 115:../asf/sam/drivers/uart/uart.c **** 
  68              		.loc 1 115 0
  69 0026 1160     		str	r1, [r2]
 118:../asf/sam/drivers/uart/uart.c **** }
  70              		.loc 1 118 0
  71 0028 30BC     		pop	{r4, r5}
  72              		.cfi_remember_state
  73              		.cfi_restore 5
  74              		.cfi_restore 4
  75              		.cfi_def_cfa_offset 0
  76 002a 7047     		bx	lr
  77              	.LVL4:
  78              	.L3:
  79              		.cfi_restore_state
 103:../asf/sam/drivers/uart/uart.c **** 
  80              		.loc 1 103 0
  81 002c 0120     		movs	r0, #1
  82              		.loc 1 118 0
  83 002e 30BC     		pop	{r4, r5}
  84              		.cfi_restore 4
  85              		.cfi_restore 5
  86              		.cfi_def_cfa_offset 0
  87 0030 7047     		bx	lr
  88              		.cfi_endproc
  89              	.LFE142:
  90              		.size	uart_init, .-uart_init
  91 0032 00BF     		.section	.text.uart_enable_tx,"ax",%progbits
  92              		.align	1
  93              		.p2align 2,,3
  94              		.global	uart_enable_tx
  95              		.syntax unified
  96              		.thumb
  97              		.thumb_func
  98              		.fpu fpv5-d16
  99              		.type	uart_enable_tx, %function
 100              	uart_enable_tx:
 101              	.LFB143:
 119:../asf/sam/drivers/uart/uart.c **** 
ARM GAS  /tmp/ccPSOZXt.s 			page 5


 120:../asf/sam/drivers/uart/uart.c **** /**
 121:../asf/sam/drivers/uart/uart.c ****  * \brief Enable UART transmitter.
 122:../asf/sam/drivers/uart/uart.c ****  *
 123:../asf/sam/drivers/uart/uart.c ****  * \param p_uart Pointer to a UART instance.
 124:../asf/sam/drivers/uart/uart.c ****  */
 125:../asf/sam/drivers/uart/uart.c **** void uart_enable_tx(Uart *p_uart)
 126:../asf/sam/drivers/uart/uart.c **** {
 102              		.loc 1 126 0
 103              		.cfi_startproc
 104              		@ args = 0, pretend = 0, frame = 0
 105              		@ frame_needed = 0, uses_anonymous_args = 0
 106              		@ link register save eliminated.
 107              	.LVL5:
 127:../asf/sam/drivers/uart/uart.c **** 	/* Enable transmitter */
 128:../asf/sam/drivers/uart/uart.c **** 	p_uart->UART_CR = UART_CR_TXEN;
 108              		.loc 1 128 0
 109 0000 4023     		movs	r3, #64
 110 0002 0360     		str	r3, [r0]
 111 0004 7047     		bx	lr
 112              		.cfi_endproc
 113              	.LFE143:
 114              		.size	uart_enable_tx, .-uart_enable_tx
 115 0006 00BF     		.section	.text.uart_disable_tx,"ax",%progbits
 116              		.align	1
 117              		.p2align 2,,3
 118              		.global	uart_disable_tx
 119              		.syntax unified
 120              		.thumb
 121              		.thumb_func
 122              		.fpu fpv5-d16
 123              		.type	uart_disable_tx, %function
 124              	uart_disable_tx:
 125              	.LFB144:
 129:../asf/sam/drivers/uart/uart.c **** }
 130:../asf/sam/drivers/uart/uart.c **** 
 131:../asf/sam/drivers/uart/uart.c **** /**
 132:../asf/sam/drivers/uart/uart.c ****  * \brief Disable UART transmitter.
 133:../asf/sam/drivers/uart/uart.c ****  *
 134:../asf/sam/drivers/uart/uart.c ****  * \param p_uart Pointer to a UART instance.
 135:../asf/sam/drivers/uart/uart.c ****  */
 136:../asf/sam/drivers/uart/uart.c **** void uart_disable_tx(Uart *p_uart)
 137:../asf/sam/drivers/uart/uart.c **** {
 126              		.loc 1 137 0
 127              		.cfi_startproc
 128              		@ args = 0, pretend = 0, frame = 0
 129              		@ frame_needed = 0, uses_anonymous_args = 0
 130              		@ link register save eliminated.
 131              	.LVL6:
 138:../asf/sam/drivers/uart/uart.c **** 	/* Disable transmitter */
 139:../asf/sam/drivers/uart/uart.c **** 	p_uart->UART_CR = UART_CR_TXDIS;
 132              		.loc 1 139 0
 133 0000 8023     		movs	r3, #128
 134 0002 0360     		str	r3, [r0]
 135 0004 7047     		bx	lr
 136              		.cfi_endproc
 137              	.LFE144:
 138              		.size	uart_disable_tx, .-uart_disable_tx
ARM GAS  /tmp/ccPSOZXt.s 			page 6


 139 0006 00BF     		.section	.text.uart_reset_tx,"ax",%progbits
 140              		.align	1
 141              		.p2align 2,,3
 142              		.global	uart_reset_tx
 143              		.syntax unified
 144              		.thumb
 145              		.thumb_func
 146              		.fpu fpv5-d16
 147              		.type	uart_reset_tx, %function
 148              	uart_reset_tx:
 149              	.LFB145:
 140:../asf/sam/drivers/uart/uart.c **** }
 141:../asf/sam/drivers/uart/uart.c **** 
 142:../asf/sam/drivers/uart/uart.c **** /**
 143:../asf/sam/drivers/uart/uart.c ****  * \brief Reset UART transmitter.
 144:../asf/sam/drivers/uart/uart.c ****  *
 145:../asf/sam/drivers/uart/uart.c ****  * \param p_uart Pointer to a UART instance.
 146:../asf/sam/drivers/uart/uart.c ****  */
 147:../asf/sam/drivers/uart/uart.c **** void uart_reset_tx(Uart *p_uart)
 148:../asf/sam/drivers/uart/uart.c **** {
 150              		.loc 1 148 0
 151              		.cfi_startproc
 152              		@ args = 0, pretend = 0, frame = 0
 153              		@ frame_needed = 0, uses_anonymous_args = 0
 154              		@ link register save eliminated.
 155              	.LVL7:
 149:../asf/sam/drivers/uart/uart.c **** 	/* Reset transmitter */
 150:../asf/sam/drivers/uart/uart.c **** 	p_uart->UART_CR = UART_CR_RSTTX | UART_CR_TXDIS;
 156              		.loc 1 150 0
 157 0000 8823     		movs	r3, #136
 158 0002 0360     		str	r3, [r0]
 159 0004 7047     		bx	lr
 160              		.cfi_endproc
 161              	.LFE145:
 162              		.size	uart_reset_tx, .-uart_reset_tx
 163 0006 00BF     		.section	.text.uart_enable_rx,"ax",%progbits
 164              		.align	1
 165              		.p2align 2,,3
 166              		.global	uart_enable_rx
 167              		.syntax unified
 168              		.thumb
 169              		.thumb_func
 170              		.fpu fpv5-d16
 171              		.type	uart_enable_rx, %function
 172              	uart_enable_rx:
 173              	.LFB146:
 151:../asf/sam/drivers/uart/uart.c **** }
 152:../asf/sam/drivers/uart/uart.c **** 
 153:../asf/sam/drivers/uart/uart.c **** /**
 154:../asf/sam/drivers/uart/uart.c ****  * \brief Enable UART receiver.
 155:../asf/sam/drivers/uart/uart.c ****  *
 156:../asf/sam/drivers/uart/uart.c ****  * \param p_uart Pointer to a UART instance.
 157:../asf/sam/drivers/uart/uart.c ****  */
 158:../asf/sam/drivers/uart/uart.c **** void uart_enable_rx(Uart *p_uart)
 159:../asf/sam/drivers/uart/uart.c **** {
 174              		.loc 1 159 0
 175              		.cfi_startproc
ARM GAS  /tmp/ccPSOZXt.s 			page 7


 176              		@ args = 0, pretend = 0, frame = 0
 177              		@ frame_needed = 0, uses_anonymous_args = 0
 178              		@ link register save eliminated.
 179              	.LVL8:
 160:../asf/sam/drivers/uart/uart.c **** 	/* Enable receiver */
 161:../asf/sam/drivers/uart/uart.c **** 	p_uart->UART_CR = UART_CR_RXEN;
 180              		.loc 1 161 0
 181 0000 1023     		movs	r3, #16
 182 0002 0360     		str	r3, [r0]
 183 0004 7047     		bx	lr
 184              		.cfi_endproc
 185              	.LFE146:
 186              		.size	uart_enable_rx, .-uart_enable_rx
 187 0006 00BF     		.section	.text.uart_disable_rx,"ax",%progbits
 188              		.align	1
 189              		.p2align 2,,3
 190              		.global	uart_disable_rx
 191              		.syntax unified
 192              		.thumb
 193              		.thumb_func
 194              		.fpu fpv5-d16
 195              		.type	uart_disable_rx, %function
 196              	uart_disable_rx:
 197              	.LFB147:
 162:../asf/sam/drivers/uart/uart.c **** }
 163:../asf/sam/drivers/uart/uart.c **** 
 164:../asf/sam/drivers/uart/uart.c **** /**
 165:../asf/sam/drivers/uart/uart.c ****  * \brief Disable UART receiver.
 166:../asf/sam/drivers/uart/uart.c ****  *
 167:../asf/sam/drivers/uart/uart.c ****  * \param p_uart Pointer to a UART instance.
 168:../asf/sam/drivers/uart/uart.c ****  */
 169:../asf/sam/drivers/uart/uart.c **** void uart_disable_rx(Uart *p_uart)
 170:../asf/sam/drivers/uart/uart.c **** {
 198              		.loc 1 170 0
 199              		.cfi_startproc
 200              		@ args = 0, pretend = 0, frame = 0
 201              		@ frame_needed = 0, uses_anonymous_args = 0
 202              		@ link register save eliminated.
 203              	.LVL9:
 171:../asf/sam/drivers/uart/uart.c **** 	/* Disable receiver */
 172:../asf/sam/drivers/uart/uart.c **** 	p_uart->UART_CR = UART_CR_RXDIS;
 204              		.loc 1 172 0
 205 0000 2023     		movs	r3, #32
 206 0002 0360     		str	r3, [r0]
 207 0004 7047     		bx	lr
 208              		.cfi_endproc
 209              	.LFE147:
 210              		.size	uart_disable_rx, .-uart_disable_rx
 211 0006 00BF     		.section	.text.uart_reset_rx,"ax",%progbits
 212              		.align	1
 213              		.p2align 2,,3
 214              		.global	uart_reset_rx
 215              		.syntax unified
 216              		.thumb
 217              		.thumb_func
 218              		.fpu fpv5-d16
 219              		.type	uart_reset_rx, %function
ARM GAS  /tmp/ccPSOZXt.s 			page 8


 220              	uart_reset_rx:
 221              	.LFB148:
 173:../asf/sam/drivers/uart/uart.c **** }
 174:../asf/sam/drivers/uart/uart.c **** 
 175:../asf/sam/drivers/uart/uart.c **** /**
 176:../asf/sam/drivers/uart/uart.c ****  * \brief Reset UART receiver.
 177:../asf/sam/drivers/uart/uart.c ****  *
 178:../asf/sam/drivers/uart/uart.c ****  * \param p_uart Pointer to a UART instance.
 179:../asf/sam/drivers/uart/uart.c ****  */
 180:../asf/sam/drivers/uart/uart.c **** void uart_reset_rx(Uart *p_uart)
 181:../asf/sam/drivers/uart/uart.c **** {
 222              		.loc 1 181 0
 223              		.cfi_startproc
 224              		@ args = 0, pretend = 0, frame = 0
 225              		@ frame_needed = 0, uses_anonymous_args = 0
 226              		@ link register save eliminated.
 227              	.LVL10:
 182:../asf/sam/drivers/uart/uart.c **** 	/* Reset receiver */
 183:../asf/sam/drivers/uart/uart.c **** 	p_uart->UART_CR = UART_CR_RSTRX | UART_CR_RXDIS;
 228              		.loc 1 183 0
 229 0000 2423     		movs	r3, #36
 230 0002 0360     		str	r3, [r0]
 231 0004 7047     		bx	lr
 232              		.cfi_endproc
 233              	.LFE148:
 234              		.size	uart_reset_rx, .-uart_reset_rx
 235 0006 00BF     		.section	.text.uart_enable,"ax",%progbits
 236              		.align	1
 237              		.p2align 2,,3
 238              		.global	uart_enable
 239              		.syntax unified
 240              		.thumb
 241              		.thumb_func
 242              		.fpu fpv5-d16
 243              		.type	uart_enable, %function
 244              	uart_enable:
 245              	.LFB149:
 184:../asf/sam/drivers/uart/uart.c **** }
 185:../asf/sam/drivers/uart/uart.c **** 
 186:../asf/sam/drivers/uart/uart.c **** /**
 187:../asf/sam/drivers/uart/uart.c ****  * \brief Enable UART receiver and transmitter.
 188:../asf/sam/drivers/uart/uart.c ****  *
 189:../asf/sam/drivers/uart/uart.c ****  * \param p_uart Pointer to a UART instance.
 190:../asf/sam/drivers/uart/uart.c ****  */
 191:../asf/sam/drivers/uart/uart.c **** void uart_enable(Uart *p_uart)
 192:../asf/sam/drivers/uart/uart.c **** {
 246              		.loc 1 192 0
 247              		.cfi_startproc
 248              		@ args = 0, pretend = 0, frame = 0
 249              		@ frame_needed = 0, uses_anonymous_args = 0
 250              		@ link register save eliminated.
 251              	.LVL11:
 193:../asf/sam/drivers/uart/uart.c **** 	/* Enable receiver and transmitter */
 194:../asf/sam/drivers/uart/uart.c **** 	p_uart->UART_CR = UART_CR_RXEN | UART_CR_TXEN;
 252              		.loc 1 194 0
 253 0000 5023     		movs	r3, #80
 254 0002 0360     		str	r3, [r0]
ARM GAS  /tmp/ccPSOZXt.s 			page 9


 255 0004 7047     		bx	lr
 256              		.cfi_endproc
 257              	.LFE149:
 258              		.size	uart_enable, .-uart_enable
 259 0006 00BF     		.section	.text.uart_disable,"ax",%progbits
 260              		.align	1
 261              		.p2align 2,,3
 262              		.global	uart_disable
 263              		.syntax unified
 264              		.thumb
 265              		.thumb_func
 266              		.fpu fpv5-d16
 267              		.type	uart_disable, %function
 268              	uart_disable:
 269              	.LFB150:
 195:../asf/sam/drivers/uart/uart.c **** }
 196:../asf/sam/drivers/uart/uart.c **** 
 197:../asf/sam/drivers/uart/uart.c **** /**
 198:../asf/sam/drivers/uart/uart.c ****  * \brief Disable UART receiver and transmitter.
 199:../asf/sam/drivers/uart/uart.c ****  *
 200:../asf/sam/drivers/uart/uart.c ****  * \param p_uart Pointer to a UART instance.
 201:../asf/sam/drivers/uart/uart.c ****  */
 202:../asf/sam/drivers/uart/uart.c **** void uart_disable(Uart *p_uart)
 203:../asf/sam/drivers/uart/uart.c **** {
 270              		.loc 1 203 0
 271              		.cfi_startproc
 272              		@ args = 0, pretend = 0, frame = 0
 273              		@ frame_needed = 0, uses_anonymous_args = 0
 274              		@ link register save eliminated.
 275              	.LVL12:
 204:../asf/sam/drivers/uart/uart.c **** 	/* Disable receiver and transmitter */
 205:../asf/sam/drivers/uart/uart.c **** 	p_uart->UART_CR = UART_CR_RXDIS | UART_CR_TXDIS;
 276              		.loc 1 205 0
 277 0000 A023     		movs	r3, #160
 278 0002 0360     		str	r3, [r0]
 279 0004 7047     		bx	lr
 280              		.cfi_endproc
 281              	.LFE150:
 282              		.size	uart_disable, .-uart_disable
 283 0006 00BF     		.section	.text.uart_reset,"ax",%progbits
 284              		.align	1
 285              		.p2align 2,,3
 286              		.global	uart_reset
 287              		.syntax unified
 288              		.thumb
 289              		.thumb_func
 290              		.fpu fpv5-d16
 291              		.type	uart_reset, %function
 292              	uart_reset:
 293              	.LFB151:
 206:../asf/sam/drivers/uart/uart.c **** }
 207:../asf/sam/drivers/uart/uart.c **** 
 208:../asf/sam/drivers/uart/uart.c **** /**
 209:../asf/sam/drivers/uart/uart.c ****  * \brief Reset UART receiver and transmitter.
 210:../asf/sam/drivers/uart/uart.c ****  *
 211:../asf/sam/drivers/uart/uart.c ****  * \param p_uart Pointer to a UART instance.
 212:../asf/sam/drivers/uart/uart.c ****  */
ARM GAS  /tmp/ccPSOZXt.s 			page 10


 213:../asf/sam/drivers/uart/uart.c **** void uart_reset(Uart *p_uart)
 214:../asf/sam/drivers/uart/uart.c **** {
 294              		.loc 1 214 0
 295              		.cfi_startproc
 296              		@ args = 0, pretend = 0, frame = 0
 297              		@ frame_needed = 0, uses_anonymous_args = 0
 298              		@ link register save eliminated.
 299              	.LVL13:
 215:../asf/sam/drivers/uart/uart.c **** 	/* Reset and disable receiver & transmitter */
 216:../asf/sam/drivers/uart/uart.c **** 	p_uart->UART_CR = UART_CR_RSTRX | UART_CR_RSTTX
 300              		.loc 1 216 0
 301 0000 AC23     		movs	r3, #172
 302 0002 0360     		str	r3, [r0]
 303 0004 7047     		bx	lr
 304              		.cfi_endproc
 305              	.LFE151:
 306              		.size	uart_reset, .-uart_reset
 307 0006 00BF     		.section	.text.uart_enable_interrupt,"ax",%progbits
 308              		.align	1
 309              		.p2align 2,,3
 310              		.global	uart_enable_interrupt
 311              		.syntax unified
 312              		.thumb
 313              		.thumb_func
 314              		.fpu fpv5-d16
 315              		.type	uart_enable_interrupt, %function
 316              	uart_enable_interrupt:
 317              	.LFB152:
 217:../asf/sam/drivers/uart/uart.c **** 			| UART_CR_RXDIS | UART_CR_TXDIS;
 218:../asf/sam/drivers/uart/uart.c **** }
 219:../asf/sam/drivers/uart/uart.c **** 
 220:../asf/sam/drivers/uart/uart.c **** /** \brief Enable UART interrupts.
 221:../asf/sam/drivers/uart/uart.c ****  *
 222:../asf/sam/drivers/uart/uart.c ****  * \param p_uart Pointer to a UART instance.
 223:../asf/sam/drivers/uart/uart.c ****  *  \param ul_sources Interrupts to be enabled.
 224:../asf/sam/drivers/uart/uart.c ****  */
 225:../asf/sam/drivers/uart/uart.c **** void uart_enable_interrupt(Uart *p_uart, uint32_t ul_sources)
 226:../asf/sam/drivers/uart/uart.c **** {
 318              		.loc 1 226 0
 319              		.cfi_startproc
 320              		@ args = 0, pretend = 0, frame = 0
 321              		@ frame_needed = 0, uses_anonymous_args = 0
 322              		@ link register save eliminated.
 323              	.LVL14:
 227:../asf/sam/drivers/uart/uart.c **** 	p_uart->UART_IER = ul_sources;
 324              		.loc 1 227 0
 325 0000 8160     		str	r1, [r0, #8]
 326 0002 7047     		bx	lr
 327              		.cfi_endproc
 328              	.LFE152:
 329              		.size	uart_enable_interrupt, .-uart_enable_interrupt
 330              		.section	.text.uart_disable_interrupt,"ax",%progbits
 331              		.align	1
 332              		.p2align 2,,3
 333              		.global	uart_disable_interrupt
 334              		.syntax unified
 335              		.thumb
ARM GAS  /tmp/ccPSOZXt.s 			page 11


 336              		.thumb_func
 337              		.fpu fpv5-d16
 338              		.type	uart_disable_interrupt, %function
 339              	uart_disable_interrupt:
 340              	.LFB153:
 228:../asf/sam/drivers/uart/uart.c **** }
 229:../asf/sam/drivers/uart/uart.c **** 
 230:../asf/sam/drivers/uart/uart.c **** /** \brief Disable UART interrupts.
 231:../asf/sam/drivers/uart/uart.c ****  *
 232:../asf/sam/drivers/uart/uart.c ****  * \param p_uart Pointer to a UART instance.
 233:../asf/sam/drivers/uart/uart.c ****  *  \param ul_sources Interrupts to be disabled.
 234:../asf/sam/drivers/uart/uart.c ****  */
 235:../asf/sam/drivers/uart/uart.c **** void uart_disable_interrupt(Uart *p_uart, uint32_t ul_sources)
 236:../asf/sam/drivers/uart/uart.c **** {
 341              		.loc 1 236 0
 342              		.cfi_startproc
 343              		@ args = 0, pretend = 0, frame = 0
 344              		@ frame_needed = 0, uses_anonymous_args = 0
 345              		@ link register save eliminated.
 346              	.LVL15:
 237:../asf/sam/drivers/uart/uart.c **** 	p_uart->UART_IDR = ul_sources;
 347              		.loc 1 237 0
 348 0000 C160     		str	r1, [r0, #12]
 349 0002 7047     		bx	lr
 350              		.cfi_endproc
 351              	.LFE153:
 352              		.size	uart_disable_interrupt, .-uart_disable_interrupt
 353              		.section	.text.uart_get_interrupt_mask,"ax",%progbits
 354              		.align	1
 355              		.p2align 2,,3
 356              		.global	uart_get_interrupt_mask
 357              		.syntax unified
 358              		.thumb
 359              		.thumb_func
 360              		.fpu fpv5-d16
 361              		.type	uart_get_interrupt_mask, %function
 362              	uart_get_interrupt_mask:
 363              	.LFB154:
 238:../asf/sam/drivers/uart/uart.c **** }
 239:../asf/sam/drivers/uart/uart.c **** 
 240:../asf/sam/drivers/uart/uart.c **** /** \brief Read UART interrupt mask.
 241:../asf/sam/drivers/uart/uart.c ****  *
 242:../asf/sam/drivers/uart/uart.c ****  * \param p_uart Pointer to a UART instance.
 243:../asf/sam/drivers/uart/uart.c ****  *
 244:../asf/sam/drivers/uart/uart.c ****  *  \return The interrupt mask value.
 245:../asf/sam/drivers/uart/uart.c ****  */
 246:../asf/sam/drivers/uart/uart.c **** uint32_t uart_get_interrupt_mask(Uart *p_uart)
 247:../asf/sam/drivers/uart/uart.c **** {
 364              		.loc 1 247 0
 365              		.cfi_startproc
 366              		@ args = 0, pretend = 0, frame = 0
 367              		@ frame_needed = 0, uses_anonymous_args = 0
 368              		@ link register save eliminated.
 369              	.LVL16:
 248:../asf/sam/drivers/uart/uart.c **** 	return p_uart->UART_IMR;
 370              		.loc 1 248 0
 371 0000 0069     		ldr	r0, [r0, #16]
ARM GAS  /tmp/ccPSOZXt.s 			page 12


 372              	.LVL17:
 249:../asf/sam/drivers/uart/uart.c **** }
 373              		.loc 1 249 0
 374 0002 7047     		bx	lr
 375              		.cfi_endproc
 376              	.LFE154:
 377              		.size	uart_get_interrupt_mask, .-uart_get_interrupt_mask
 378              		.section	.text.uart_get_status,"ax",%progbits
 379              		.align	1
 380              		.p2align 2,,3
 381              		.global	uart_get_status
 382              		.syntax unified
 383              		.thumb
 384              		.thumb_func
 385              		.fpu fpv5-d16
 386              		.type	uart_get_status, %function
 387              	uart_get_status:
 388              	.LFB155:
 250:../asf/sam/drivers/uart/uart.c **** 
 251:../asf/sam/drivers/uart/uart.c **** /**
 252:../asf/sam/drivers/uart/uart.c ****  * \brief Get current status.
 253:../asf/sam/drivers/uart/uart.c ****  *
 254:../asf/sam/drivers/uart/uart.c ****  * \param p_uart Pointer to a UART instance.
 255:../asf/sam/drivers/uart/uart.c ****  *
 256:../asf/sam/drivers/uart/uart.c ****  * \return The current UART status.
 257:../asf/sam/drivers/uart/uart.c ****  */
 258:../asf/sam/drivers/uart/uart.c **** uint32_t uart_get_status(Uart *p_uart)
 259:../asf/sam/drivers/uart/uart.c **** {
 389              		.loc 1 259 0
 390              		.cfi_startproc
 391              		@ args = 0, pretend = 0, frame = 0
 392              		@ frame_needed = 0, uses_anonymous_args = 0
 393              		@ link register save eliminated.
 394              	.LVL18:
 260:../asf/sam/drivers/uart/uart.c **** 	return p_uart->UART_SR;
 395              		.loc 1 260 0
 396 0000 4069     		ldr	r0, [r0, #20]
 397              	.LVL19:
 261:../asf/sam/drivers/uart/uart.c **** }
 398              		.loc 1 261 0
 399 0002 7047     		bx	lr
 400              		.cfi_endproc
 401              	.LFE155:
 402              		.size	uart_get_status, .-uart_get_status
 403              		.section	.text.uart_reset_status,"ax",%progbits
 404              		.align	1
 405              		.p2align 2,,3
 406              		.global	uart_reset_status
 407              		.syntax unified
 408              		.thumb
 409              		.thumb_func
 410              		.fpu fpv5-d16
 411              		.type	uart_reset_status, %function
 412              	uart_reset_status:
 413              	.LFB156:
 262:../asf/sam/drivers/uart/uart.c **** 
 263:../asf/sam/drivers/uart/uart.c **** /**
ARM GAS  /tmp/ccPSOZXt.s 			page 13


 264:../asf/sam/drivers/uart/uart.c ****  * \brief Reset status bits.
 265:../asf/sam/drivers/uart/uart.c ****  *
 266:../asf/sam/drivers/uart/uart.c ****  * \param p_uart Pointer to a UART instance.
 267:../asf/sam/drivers/uart/uart.c ****  */
 268:../asf/sam/drivers/uart/uart.c **** void uart_reset_status(Uart *p_uart)
 269:../asf/sam/drivers/uart/uart.c **** {
 414              		.loc 1 269 0
 415              		.cfi_startproc
 416              		@ args = 0, pretend = 0, frame = 0
 417              		@ frame_needed = 0, uses_anonymous_args = 0
 418              		@ link register save eliminated.
 419              	.LVL20:
 270:../asf/sam/drivers/uart/uart.c **** 	p_uart->UART_CR = UART_CR_RSTSTA;
 420              		.loc 1 270 0
 421 0000 4FF48073 		mov	r3, #256
 422 0004 0360     		str	r3, [r0]
 423 0006 7047     		bx	lr
 424              		.cfi_endproc
 425              	.LFE156:
 426              		.size	uart_reset_status, .-uart_reset_status
 427              		.section	.text.uart_is_tx_ready,"ax",%progbits
 428              		.align	1
 429              		.p2align 2,,3
 430              		.global	uart_is_tx_ready
 431              		.syntax unified
 432              		.thumb
 433              		.thumb_func
 434              		.fpu fpv5-d16
 435              		.type	uart_is_tx_ready, %function
 436              	uart_is_tx_ready:
 437              	.LFB157:
 271:../asf/sam/drivers/uart/uart.c **** }
 272:../asf/sam/drivers/uart/uart.c **** 
 273:../asf/sam/drivers/uart/uart.c **** /**
 274:../asf/sam/drivers/uart/uart.c ****  * \brief Check if Transmit is Ready.
 275:../asf/sam/drivers/uart/uart.c ****  * Check if data has been loaded in UART_THR and is waiting to be loaded in the
 276:../asf/sam/drivers/uart/uart.c ****  * Transmit Shift Register (TSR).
 277:../asf/sam/drivers/uart/uart.c ****  *
 278:../asf/sam/drivers/uart/uart.c ****  * \param p_uart Pointer to a UART instance.
 279:../asf/sam/drivers/uart/uart.c ****  *
 280:../asf/sam/drivers/uart/uart.c ****  * \retval 1 Data has been transmitted.
 281:../asf/sam/drivers/uart/uart.c ****  * \retval 0 Transmit is not ready, data pending.
 282:../asf/sam/drivers/uart/uart.c ****  */
 283:../asf/sam/drivers/uart/uart.c **** uint32_t uart_is_tx_ready(Uart *p_uart)
 284:../asf/sam/drivers/uart/uart.c **** {
 438              		.loc 1 284 0
 439              		.cfi_startproc
 440              		@ args = 0, pretend = 0, frame = 0
 441              		@ frame_needed = 0, uses_anonymous_args = 0
 442              		@ link register save eliminated.
 443              	.LVL21:
 285:../asf/sam/drivers/uart/uart.c **** 	return (p_uart->UART_SR & UART_SR_TXRDY) > 0;
 444              		.loc 1 285 0
 445 0000 4069     		ldr	r0, [r0, #20]
 446              	.LVL22:
 286:../asf/sam/drivers/uart/uart.c **** }
 447              		.loc 1 286 0
ARM GAS  /tmp/ccPSOZXt.s 			page 14


 448 0002 C0F34000 		ubfx	r0, r0, #1, #1
 449 0006 7047     		bx	lr
 450              		.cfi_endproc
 451              	.LFE157:
 452              		.size	uart_is_tx_ready, .-uart_is_tx_ready
 453              		.section	.text.uart_is_tx_empty,"ax",%progbits
 454              		.align	1
 455              		.p2align 2,,3
 456              		.global	uart_is_tx_empty
 457              		.syntax unified
 458              		.thumb
 459              		.thumb_func
 460              		.fpu fpv5-d16
 461              		.type	uart_is_tx_empty, %function
 462              	uart_is_tx_empty:
 463              	.LFB167:
 464              		.cfi_startproc
 465              		@ args = 0, pretend = 0, frame = 0
 466              		@ frame_needed = 0, uses_anonymous_args = 0
 467              		@ link register save eliminated.
 468 0000 4069     		ldr	r0, [r0, #20]
 469 0002 C0F34020 		ubfx	r0, r0, #9, #1
 470 0006 7047     		bx	lr
 471              		.cfi_endproc
 472              	.LFE167:
 473              		.size	uart_is_tx_empty, .-uart_is_tx_empty
 474              		.section	.text.uart_is_rx_ready,"ax",%progbits
 475              		.align	1
 476              		.p2align 2,,3
 477              		.global	uart_is_rx_ready
 478              		.syntax unified
 479              		.thumb
 480              		.thumb_func
 481              		.fpu fpv5-d16
 482              		.type	uart_is_rx_ready, %function
 483              	uart_is_rx_ready:
 484              	.LFB159:
 287:../asf/sam/drivers/uart/uart.c **** 
 288:../asf/sam/drivers/uart/uart.c **** /**
 289:../asf/sam/drivers/uart/uart.c ****  * \brief Check if Transmit Hold Register is empty.
 290:../asf/sam/drivers/uart/uart.c ****  * Check if the last data written in UART_THR has been loaded in TSR and the
 291:../asf/sam/drivers/uart/uart.c ****  * last data loaded in TSR has been transmitted.
 292:../asf/sam/drivers/uart/uart.c ****  *
 293:../asf/sam/drivers/uart/uart.c ****  * \param p_uart Pointer to a UART instance.
 294:../asf/sam/drivers/uart/uart.c ****  *
 295:../asf/sam/drivers/uart/uart.c ****  * \retval 1 Transmitter is empty.
 296:../asf/sam/drivers/uart/uart.c ****  * \retval 0 Transmitter is not empty.
 297:../asf/sam/drivers/uart/uart.c ****  */
 298:../asf/sam/drivers/uart/uart.c **** uint32_t uart_is_tx_empty(Uart *p_uart)
 299:../asf/sam/drivers/uart/uart.c **** {
 300:../asf/sam/drivers/uart/uart.c **** 	return (p_uart->UART_SR & UART_SR_TXEMPTY) > 0;
 301:../asf/sam/drivers/uart/uart.c **** }
 302:../asf/sam/drivers/uart/uart.c **** 
 303:../asf/sam/drivers/uart/uart.c **** /**
 304:../asf/sam/drivers/uart/uart.c ****  * \brief Check if Received data is ready.
 305:../asf/sam/drivers/uart/uart.c ****  * Check if data has been received and loaded in UART_RHR.
 306:../asf/sam/drivers/uart/uart.c ****  *
ARM GAS  /tmp/ccPSOZXt.s 			page 15


 307:../asf/sam/drivers/uart/uart.c ****  * \param p_uart Pointer to a UART instance.
 308:../asf/sam/drivers/uart/uart.c ****  *
 309:../asf/sam/drivers/uart/uart.c ****  * \retval 1 One data has been received.
 310:../asf/sam/drivers/uart/uart.c ****  * \retval 0 No data has been received.
 311:../asf/sam/drivers/uart/uart.c ****  */
 312:../asf/sam/drivers/uart/uart.c **** uint32_t uart_is_rx_ready(Uart *p_uart)
 313:../asf/sam/drivers/uart/uart.c **** {
 485              		.loc 1 313 0
 486              		.cfi_startproc
 487              		@ args = 0, pretend = 0, frame = 0
 488              		@ frame_needed = 0, uses_anonymous_args = 0
 489              		@ link register save eliminated.
 490              	.LVL23:
 314:../asf/sam/drivers/uart/uart.c **** 	return (p_uart->UART_SR & UART_SR_RXRDY) > 0;
 491              		.loc 1 314 0
 492 0000 4069     		ldr	r0, [r0, #20]
 493              	.LVL24:
 315:../asf/sam/drivers/uart/uart.c **** }
 494              		.loc 1 315 0
 495 0002 00F00100 		and	r0, r0, #1
 496 0006 7047     		bx	lr
 497              		.cfi_endproc
 498              	.LFE159:
 499              		.size	uart_is_rx_ready, .-uart_is_rx_ready
 500              		.section	.text.uart_is_tx_buf_empty,"ax",%progbits
 501              		.align	1
 502              		.p2align 2,,3
 503              		.global	uart_is_tx_buf_empty
 504              		.syntax unified
 505              		.thumb
 506              		.thumb_func
 507              		.fpu fpv5-d16
 508              		.type	uart_is_tx_buf_empty, %function
 509              	uart_is_tx_buf_empty:
 510              	.LFB160:
 316:../asf/sam/drivers/uart/uart.c **** 
 317:../asf/sam/drivers/uart/uart.c **** /**
 318:../asf/sam/drivers/uart/uart.c ****  * \brief Check if both transmit buffers are sent out.
 319:../asf/sam/drivers/uart/uart.c ****  *
 320:../asf/sam/drivers/uart/uart.c ****  * \param p_uart Pointer to a UART instance.
 321:../asf/sam/drivers/uart/uart.c ****  *
 322:../asf/sam/drivers/uart/uart.c ****  * \retval 1 Transmit buffer is empty.
 323:../asf/sam/drivers/uart/uart.c ****  * \retval 0 Transmit buffer is not empty.
 324:../asf/sam/drivers/uart/uart.c ****  */
 325:../asf/sam/drivers/uart/uart.c **** uint32_t uart_is_tx_buf_empty(Uart *p_uart)
 326:../asf/sam/drivers/uart/uart.c **** {
 511              		.loc 1 326 0
 512              		.cfi_startproc
 513              		@ args = 0, pretend = 0, frame = 0
 514              		@ frame_needed = 0, uses_anonymous_args = 0
 515              		@ link register save eliminated.
 516              	.LVL25:
 327:../asf/sam/drivers/uart/uart.c **** 	return (p_uart->UART_SR & UART_SR_TXEMPTY) > 0;
 517              		.loc 1 327 0
 518 0000 4069     		ldr	r0, [r0, #20]
 519              	.LVL26:
 328:../asf/sam/drivers/uart/uart.c **** }
ARM GAS  /tmp/ccPSOZXt.s 			page 16


 520              		.loc 1 328 0
 521 0002 C0F34020 		ubfx	r0, r0, #9, #1
 522 0006 7047     		bx	lr
 523              		.cfi_endproc
 524              	.LFE160:
 525              		.size	uart_is_tx_buf_empty, .-uart_is_tx_buf_empty
 526              		.section	.text.uart_set_clock_divisor,"ax",%progbits
 527              		.align	1
 528              		.p2align 2,,3
 529              		.global	uart_set_clock_divisor
 530              		.syntax unified
 531              		.thumb
 532              		.thumb_func
 533              		.fpu fpv5-d16
 534              		.type	uart_set_clock_divisor, %function
 535              	uart_set_clock_divisor:
 536              	.LFB161:
 329:../asf/sam/drivers/uart/uart.c **** 
 330:../asf/sam/drivers/uart/uart.c **** /**
 331:../asf/sam/drivers/uart/uart.c ****  * \brief Set UART clock divisor value
 332:../asf/sam/drivers/uart/uart.c ****  *
 333:../asf/sam/drivers/uart/uart.c ****  * \param p_uart Pointer to a UART instance.
 334:../asf/sam/drivers/uart/uart.c ****  * \param us_divisor Value to be set.
 335:../asf/sam/drivers/uart/uart.c ****  *
 336:../asf/sam/drivers/uart/uart.c ****  */
 337:../asf/sam/drivers/uart/uart.c **** void uart_set_clock_divisor(Uart *p_uart, uint16_t us_divisor)
 338:../asf/sam/drivers/uart/uart.c **** {
 537              		.loc 1 338 0
 538              		.cfi_startproc
 539              		@ args = 0, pretend = 0, frame = 0
 540              		@ frame_needed = 0, uses_anonymous_args = 0
 541              		@ link register save eliminated.
 542              	.LVL27:
 339:../asf/sam/drivers/uart/uart.c **** 	p_uart->UART_BRGR = us_divisor;
 543              		.loc 1 339 0
 544 0000 0162     		str	r1, [r0, #32]
 545 0002 7047     		bx	lr
 546              		.cfi_endproc
 547              	.LFE161:
 548              		.size	uart_set_clock_divisor, .-uart_set_clock_divisor
 549              		.section	.text.uart_write,"ax",%progbits
 550              		.align	1
 551              		.p2align 2,,3
 552              		.global	uart_write
 553              		.syntax unified
 554              		.thumb
 555              		.thumb_func
 556              		.fpu fpv5-d16
 557              		.type	uart_write, %function
 558              	uart_write:
 559              	.LFB162:
 340:../asf/sam/drivers/uart/uart.c **** }
 341:../asf/sam/drivers/uart/uart.c **** 
 342:../asf/sam/drivers/uart/uart.c **** /**
 343:../asf/sam/drivers/uart/uart.c ****  * \brief Write to UART Transmit Holding Register
 344:../asf/sam/drivers/uart/uart.c ****  * Before writing user should check if tx is ready (or empty).
 345:../asf/sam/drivers/uart/uart.c ****  *
ARM GAS  /tmp/ccPSOZXt.s 			page 17


 346:../asf/sam/drivers/uart/uart.c ****  * \param p_uart Pointer to a UART instance.
 347:../asf/sam/drivers/uart/uart.c ****  * \param data Data to be sent.
 348:../asf/sam/drivers/uart/uart.c ****  *
 349:../asf/sam/drivers/uart/uart.c ****  * \retval 0 Success.
 350:../asf/sam/drivers/uart/uart.c ****  * \retval 1 I/O Failure, UART is not ready.
 351:../asf/sam/drivers/uart/uart.c ****  */
 352:../asf/sam/drivers/uart/uart.c **** uint32_t uart_write(Uart *p_uart, const uint8_t uc_data)
 353:../asf/sam/drivers/uart/uart.c **** {
 560              		.loc 1 353 0
 561              		.cfi_startproc
 562              		@ args = 0, pretend = 0, frame = 0
 563              		@ frame_needed = 0, uses_anonymous_args = 0
 564              		@ link register save eliminated.
 565              	.LVL28:
 354:../asf/sam/drivers/uart/uart.c **** 	/* Check if the transmitter is ready */
 355:../asf/sam/drivers/uart/uart.c **** 	if (!(p_uart->UART_SR & UART_SR_TXRDY))
 566              		.loc 1 355 0
 567 0000 4369     		ldr	r3, [r0, #20]
 568 0002 9B07     		lsls	r3, r3, #30
 569 0004 02D5     		bpl	.L27
 356:../asf/sam/drivers/uart/uart.c **** 		return 1;
 357:../asf/sam/drivers/uart/uart.c **** 
 358:../asf/sam/drivers/uart/uart.c **** 	/* Send character */
 359:../asf/sam/drivers/uart/uart.c **** 	p_uart->UART_THR = uc_data;
 570              		.loc 1 359 0
 571 0006 C161     		str	r1, [r0, #28]
 360:../asf/sam/drivers/uart/uart.c **** 	return 0;
 572              		.loc 1 360 0
 573 0008 0020     		movs	r0, #0
 574              	.LVL29:
 575 000a 7047     		bx	lr
 576              	.LVL30:
 577              	.L27:
 356:../asf/sam/drivers/uart/uart.c **** 		return 1;
 578              		.loc 1 356 0
 579 000c 0120     		movs	r0, #1
 580              	.LVL31:
 361:../asf/sam/drivers/uart/uart.c **** }
 581              		.loc 1 361 0
 582 000e 7047     		bx	lr
 583              		.cfi_endproc
 584              	.LFE162:
 585              		.size	uart_write, .-uart_write
 586              		.section	.text.uart_read,"ax",%progbits
 587              		.align	1
 588              		.p2align 2,,3
 589              		.global	uart_read
 590              		.syntax unified
 591              		.thumb
 592              		.thumb_func
 593              		.fpu fpv5-d16
 594              		.type	uart_read, %function
 595              	uart_read:
 596              	.LFB163:
 362:../asf/sam/drivers/uart/uart.c **** 
 363:../asf/sam/drivers/uart/uart.c **** /**
 364:../asf/sam/drivers/uart/uart.c ****  * \brief Read from UART Receive Holding Register.
ARM GAS  /tmp/ccPSOZXt.s 			page 18


 365:../asf/sam/drivers/uart/uart.c ****  * Before reading user should check if rx is ready.
 366:../asf/sam/drivers/uart/uart.c ****  *
 367:../asf/sam/drivers/uart/uart.c ****  * \param p_uart Pointer to a UART instance.
 368:../asf/sam/drivers/uart/uart.c ****  *
 369:../asf/sam/drivers/uart/uart.c ****  * \retval 0 Success.
 370:../asf/sam/drivers/uart/uart.c ****  * \retval 1 I/O Failure, UART is not ready.
 371:../asf/sam/drivers/uart/uart.c ****  */
 372:../asf/sam/drivers/uart/uart.c **** uint32_t uart_read(Uart *p_uart, uint8_t *puc_data)
 373:../asf/sam/drivers/uart/uart.c **** {
 597              		.loc 1 373 0
 598              		.cfi_startproc
 599              		@ args = 0, pretend = 0, frame = 0
 600              		@ frame_needed = 0, uses_anonymous_args = 0
 601              		@ link register save eliminated.
 602              	.LVL32:
 374:../asf/sam/drivers/uart/uart.c **** 	/* Check if the receiver is ready */
 375:../asf/sam/drivers/uart/uart.c **** 	if ((p_uart->UART_SR & UART_SR_RXRDY) == 0)
 603              		.loc 1 375 0
 604 0000 4369     		ldr	r3, [r0, #20]
 605 0002 DB07     		lsls	r3, r3, #31
 606 0004 03D5     		bpl	.L30
 376:../asf/sam/drivers/uart/uart.c **** 		return 1;
 377:../asf/sam/drivers/uart/uart.c **** 
 378:../asf/sam/drivers/uart/uart.c **** 	/* Read character */
 379:../asf/sam/drivers/uart/uart.c **** 	*puc_data = (uint8_t) p_uart->UART_RHR;
 607              		.loc 1 379 0
 608 0006 8369     		ldr	r3, [r0, #24]
 380:../asf/sam/drivers/uart/uart.c **** 	return 0;
 609              		.loc 1 380 0
 610 0008 0020     		movs	r0, #0
 611              	.LVL33:
 379:../asf/sam/drivers/uart/uart.c **** 	return 0;
 612              		.loc 1 379 0
 613 000a 0B70     		strb	r3, [r1]
 614              		.loc 1 380 0
 615 000c 7047     		bx	lr
 616              	.LVL34:
 617              	.L30:
 376:../asf/sam/drivers/uart/uart.c **** 		return 1;
 618              		.loc 1 376 0
 619 000e 0120     		movs	r0, #1
 620              	.LVL35:
 381:../asf/sam/drivers/uart/uart.c **** }
 621              		.loc 1 381 0
 622 0010 7047     		bx	lr
 623              		.cfi_endproc
 624              	.LFE163:
 625              		.size	uart_read, .-uart_read
 626 0012 00BF     		.section	.text.uart_set_sleepwalking,"ax",%progbits
 627              		.align	1
 628              		.p2align 2,,3
 629              		.global	uart_set_sleepwalking
 630              		.syntax unified
 631              		.thumb
 632              		.thumb_func
 633              		.fpu fpv5-d16
 634              		.type	uart_set_sleepwalking, %function
ARM GAS  /tmp/ccPSOZXt.s 			page 19


 635              	uart_set_sleepwalking:
 636              	.LFB164:
 382:../asf/sam/drivers/uart/uart.c **** 
 383:../asf/sam/drivers/uart/uart.c **** #if (!SAMV71 && !SAMV70 && !SAME70 && !SAMS70)
 384:../asf/sam/drivers/uart/uart.c **** /**
 385:../asf/sam/drivers/uart/uart.c ****  * \brief Check if one receive buffer is filled.
 386:../asf/sam/drivers/uart/uart.c ****  *
 387:../asf/sam/drivers/uart/uart.c ****  * \param p_uart Pointer to a UART instance.
 388:../asf/sam/drivers/uart/uart.c ****  *
 389:../asf/sam/drivers/uart/uart.c ****  * \retval 1 Receive is completed.
 390:../asf/sam/drivers/uart/uart.c ****  * \retval 0 Receive is still pending.
 391:../asf/sam/drivers/uart/uart.c ****  */
 392:../asf/sam/drivers/uart/uart.c **** uint32_t uart_is_rx_buf_end(Uart *p_uart)
 393:../asf/sam/drivers/uart/uart.c **** {
 394:../asf/sam/drivers/uart/uart.c **** 	return (p_uart->UART_SR & UART_SR_ENDRX) > 0;
 395:../asf/sam/drivers/uart/uart.c **** }
 396:../asf/sam/drivers/uart/uart.c **** 
 397:../asf/sam/drivers/uart/uart.c **** /**
 398:../asf/sam/drivers/uart/uart.c ****  * \brief Check if one transmit buffer is sent out.
 399:../asf/sam/drivers/uart/uart.c ****  *
 400:../asf/sam/drivers/uart/uart.c ****  * \param p_uart Pointer to a UART instance.
 401:../asf/sam/drivers/uart/uart.c ****  *
 402:../asf/sam/drivers/uart/uart.c ****  * \retval 1 Transmit is completed.
 403:../asf/sam/drivers/uart/uart.c ****  * \retval 0 Transmit is still pending.
 404:../asf/sam/drivers/uart/uart.c ****  */
 405:../asf/sam/drivers/uart/uart.c **** uint32_t uart_is_tx_buf_end(Uart *p_uart)
 406:../asf/sam/drivers/uart/uart.c **** {
 407:../asf/sam/drivers/uart/uart.c **** 	return (p_uart->UART_SR & UART_SR_ENDTX) > 0;
 408:../asf/sam/drivers/uart/uart.c **** }
 409:../asf/sam/drivers/uart/uart.c **** 
 410:../asf/sam/drivers/uart/uart.c **** /**
 411:../asf/sam/drivers/uart/uart.c ****  * \brief Check if both receive buffers are full.
 412:../asf/sam/drivers/uart/uart.c ****  *
 413:../asf/sam/drivers/uart/uart.c ****  * \param p_uart Pointer to a UART instance.
 414:../asf/sam/drivers/uart/uart.c ****  *
 415:../asf/sam/drivers/uart/uart.c ****  * \retval 1 Receive buffers are full.
 416:../asf/sam/drivers/uart/uart.c ****  * \retval 0 Receive buffers are not full.
 417:../asf/sam/drivers/uart/uart.c ****  */
 418:../asf/sam/drivers/uart/uart.c **** uint32_t uart_is_rx_buf_full(Uart *p_uart)
 419:../asf/sam/drivers/uart/uart.c **** {
 420:../asf/sam/drivers/uart/uart.c **** 	return (p_uart->UART_SR & UART_SR_RXBUFF) > 0;
 421:../asf/sam/drivers/uart/uart.c **** }
 422:../asf/sam/drivers/uart/uart.c **** 
 423:../asf/sam/drivers/uart/uart.c **** /**
 424:../asf/sam/drivers/uart/uart.c ****  * \brief Get UART PDC base address.
 425:../asf/sam/drivers/uart/uart.c ****  *
 426:../asf/sam/drivers/uart/uart.c ****  * \param p_uart Pointer to a UART instance.
 427:../asf/sam/drivers/uart/uart.c ****  *
 428:../asf/sam/drivers/uart/uart.c ****  * \return UART PDC registers base for PDC driver to access.
 429:../asf/sam/drivers/uart/uart.c ****  */
 430:../asf/sam/drivers/uart/uart.c **** Pdc *uart_get_pdc_base(Uart *p_uart)
 431:../asf/sam/drivers/uart/uart.c **** {
 432:../asf/sam/drivers/uart/uart.c **** 	Pdc *p_pdc_base;
 433:../asf/sam/drivers/uart/uart.c **** 
 434:../asf/sam/drivers/uart/uart.c **** #if (SAM3S || SAM3N || SAM4S || SAM4E || SAM4N || SAM4C || SAMG || SAM4CP || SAM4CM)
 435:../asf/sam/drivers/uart/uart.c **** 	if (p_uart == UART0)
 436:../asf/sam/drivers/uart/uart.c **** 		p_pdc_base = PDC_UART0;
ARM GAS  /tmp/ccPSOZXt.s 			page 20


 437:../asf/sam/drivers/uart/uart.c **** #elif (SAM3XA || SAM3U)
 438:../asf/sam/drivers/uart/uart.c **** 	if (p_uart == UART)
 439:../asf/sam/drivers/uart/uart.c **** 		p_pdc_base = PDC_UART;
 440:../asf/sam/drivers/uart/uart.c **** #else
 441:../asf/sam/drivers/uart/uart.c **** #error "Unsupported device"
 442:../asf/sam/drivers/uart/uart.c **** #endif
 443:../asf/sam/drivers/uart/uart.c **** 
 444:../asf/sam/drivers/uart/uart.c **** #if (SAM3S || SAM4S || SAM4E || SAM4N || SAM4C || SAMG || SAM4CP || SAM4CM)
 445:../asf/sam/drivers/uart/uart.c **** 	if (p_uart == UART1)
 446:../asf/sam/drivers/uart/uart.c **** 		p_pdc_base = PDC_UART1;
 447:../asf/sam/drivers/uart/uart.c **** #endif
 448:../asf/sam/drivers/uart/uart.c **** 
 449:../asf/sam/drivers/uart/uart.c **** #if (SAM4N)
 450:../asf/sam/drivers/uart/uart.c **** 	if (p_uart == UART2)
 451:../asf/sam/drivers/uart/uart.c **** 		p_pdc_base = PDC_UART2;
 452:../asf/sam/drivers/uart/uart.c **** #endif
 453:../asf/sam/drivers/uart/uart.c **** 
 454:../asf/sam/drivers/uart/uart.c **** 	return p_pdc_base;
 455:../asf/sam/drivers/uart/uart.c **** }
 456:../asf/sam/drivers/uart/uart.c **** #endif
 457:../asf/sam/drivers/uart/uart.c **** 
 458:../asf/sam/drivers/uart/uart.c **** #if (SAM4C || SAM4CP || SAM4CM)
 459:../asf/sam/drivers/uart/uart.c **** /**
 460:../asf/sam/drivers/uart/uart.c ****  * \brief Enable UART optical interface.
 461:../asf/sam/drivers/uart/uart.c ****  *
 462:../asf/sam/drivers/uart/uart.c ****  * \param p_uart Pointer to a UART instance.
 463:../asf/sam/drivers/uart/uart.c ****  */
 464:../asf/sam/drivers/uart/uart.c **** void uart_enable_optical_interface(Uart *p_uart)
 465:../asf/sam/drivers/uart/uart.c **** {
 466:../asf/sam/drivers/uart/uart.c **** 	Assert(p_uart == UART1);
 467:../asf/sam/drivers/uart/uart.c **** 	p_uart->UART_MR |= UART_MR_OPT_EN;
 468:../asf/sam/drivers/uart/uart.c **** }
 469:../asf/sam/drivers/uart/uart.c **** 
 470:../asf/sam/drivers/uart/uart.c **** /**
 471:../asf/sam/drivers/uart/uart.c ****  * \brief Disable UART optical interface.
 472:../asf/sam/drivers/uart/uart.c ****  *
 473:../asf/sam/drivers/uart/uart.c ****  * \param p_uart Pointer to a UART instance.
 474:../asf/sam/drivers/uart/uart.c ****  */
 475:../asf/sam/drivers/uart/uart.c **** void uart_disable_optical_interface(Uart *p_uart)
 476:../asf/sam/drivers/uart/uart.c **** {
 477:../asf/sam/drivers/uart/uart.c **** 	Assert(p_uart == UART1);
 478:../asf/sam/drivers/uart/uart.c **** 	p_uart->UART_MR &= ~UART_MR_OPT_EN;
 479:../asf/sam/drivers/uart/uart.c **** }
 480:../asf/sam/drivers/uart/uart.c **** 
 481:../asf/sam/drivers/uart/uart.c **** /**
 482:../asf/sam/drivers/uart/uart.c ****  * \brief Enable UART optical interface.
 483:../asf/sam/drivers/uart/uart.c ****  *
 484:../asf/sam/drivers/uart/uart.c ****  * \param p_uart Pointer to a UART instance.
 485:../asf/sam/drivers/uart/uart.c ****  * \param cfg Pointer to a UART optical interface configuration.
 486:../asf/sam/drivers/uart/uart.c ****  */
 487:../asf/sam/drivers/uart/uart.c **** void uart_config_optical_interface(Uart *p_uart,
 488:../asf/sam/drivers/uart/uart.c **** 		struct uart_config_optical *cfg)
 489:../asf/sam/drivers/uart/uart.c **** {
 490:../asf/sam/drivers/uart/uart.c **** 	Assert(p_uart == UART1);
 491:../asf/sam/drivers/uart/uart.c **** 	uint32_t reg = p_uart->UART_MR;
 492:../asf/sam/drivers/uart/uart.c **** 
 493:../asf/sam/drivers/uart/uart.c **** 	reg &= ~(UART_MR_OPT_RXINV | UART_MR_OPT_MDINV | UART_MR_FILTER
ARM GAS  /tmp/ccPSOZXt.s 			page 21


 494:../asf/sam/drivers/uart/uart.c **** 			| UART_MR_OPT_CLKDIV_Msk | UART_MR_OPT_DUTY_Msk
 495:../asf/sam/drivers/uart/uart.c **** 			| UART_MR_OPT_CMPTH_Msk);
 496:../asf/sam/drivers/uart/uart.c **** 	reg |= (cfg->rx_inverted ? UART_MR_OPT_RXINV : 0)
 497:../asf/sam/drivers/uart/uart.c **** 			| (cfg->tx_inverted ? UART_MR_OPT_MDINV : 0)
 498:../asf/sam/drivers/uart/uart.c **** 			| (cfg->rx_filter ? UART_MR_FILTER : 0)
 499:../asf/sam/drivers/uart/uart.c **** 			| UART_MR_OPT_CLKDIV(cfg->clk_div)
 500:../asf/sam/drivers/uart/uart.c **** 			| cfg->duty | cfg->threshold;
 501:../asf/sam/drivers/uart/uart.c **** 
 502:../asf/sam/drivers/uart/uart.c **** 	p_uart->UART_MR = reg;
 503:../asf/sam/drivers/uart/uart.c **** }
 504:../asf/sam/drivers/uart/uart.c **** #endif
 505:../asf/sam/drivers/uart/uart.c **** 
 506:../asf/sam/drivers/uart/uart.c **** #if (SAMG53 || SAMG54 || SAMV71 || SAMV70 || SAME70 || SAMS70)
 507:../asf/sam/drivers/uart/uart.c **** /**
 508:../asf/sam/drivers/uart/uart.c ****  * \brief Set sleepwalking match mode.
 509:../asf/sam/drivers/uart/uart.c ****  *
 510:../asf/sam/drivers/uart/uart.c ****  * \param p_uart Pointer to a UART instance.
 511:../asf/sam/drivers/uart/uart.c ****  * \param ul_low_value First comparison value for received character.
 512:../asf/sam/drivers/uart/uart.c ****  * \param ul_high_value Second comparison value for received character.
 513:../asf/sam/drivers/uart/uart.c ****  * \param cmpmode ture for start condition, false for flag only.
 514:../asf/sam/drivers/uart/uart.c ****  * \param cmppar ture for parity check, false for no.
 515:../asf/sam/drivers/uart/uart.c ****  */
 516:../asf/sam/drivers/uart/uart.c **** void uart_set_sleepwalking(Uart *p_uart, uint8_t ul_low_value,
 517:../asf/sam/drivers/uart/uart.c **** 		bool cmpmode, bool cmppar, uint8_t ul_high_value)
 518:../asf/sam/drivers/uart/uart.c **** {
 637              		.loc 1 518 0
 638              		.cfi_startproc
 639              		@ args = 4, pretend = 0, frame = 0
 640              		@ frame_needed = 0, uses_anonymous_args = 0
 641              		@ link register save eliminated.
 642              	.LVL36:
 519:../asf/sam/drivers/uart/uart.c **** 	Assert(ul_low_value <= ul_high_value);
 520:../asf/sam/drivers/uart/uart.c **** 
 521:../asf/sam/drivers/uart/uart.c **** 	uint32_t temp = 0;
 522:../asf/sam/drivers/uart/uart.c **** 
 523:../asf/sam/drivers/uart/uart.c **** 	if (cmpmode) {
 524:../asf/sam/drivers/uart/uart.c **** 		temp |= UART_CMPR_CMPMODE_START_CONDITION;
 643              		.loc 1 524 0
 644 0000 002A     		cmp	r2, #0
 518:../asf/sam/drivers/uart/uart.c **** 	Assert(ul_low_value <= ul_high_value);
 645              		.loc 1 518 0
 646 0002 10B4     		push	{r4}
 647              		.cfi_def_cfa_offset 4
 648              		.cfi_offset 4, -4
 649              		.loc 1 524 0
 650 0004 08BF     		it	eq
 651 0006 0022     		moveq	r2, #0
 652              	.LVL37:
 518:../asf/sam/drivers/uart/uart.c **** 	Assert(ul_low_value <= ul_high_value);
 653              		.loc 1 518 0
 654 0008 9DF80440 		ldrb	r4, [sp, #4]	@ zero_extendqisi2
 655              		.loc 1 524 0
 656 000c 18BF     		it	ne
 657 000e 4FF48052 		movne	r2, #4096
 658              	.LVL38:
 525:../asf/sam/drivers/uart/uart.c **** 	}
 526:../asf/sam/drivers/uart/uart.c **** 
ARM GAS  /tmp/ccPSOZXt.s 			page 22


 527:../asf/sam/drivers/uart/uart.c **** 	if (cmppar) {
 659              		.loc 1 527 0
 660 0012 0BB1     		cbz	r3, .L33
 528:../asf/sam/drivers/uart/uart.c **** 		temp |= UART_CMPR_CMPPAR;
 661              		.loc 1 528 0
 662 0014 42F48042 		orr	r2, r2, #16384
 663              	.LVL39:
 664              	.L33:
 529:../asf/sam/drivers/uart/uart.c **** 	}
 530:../asf/sam/drivers/uart/uart.c **** 
 531:../asf/sam/drivers/uart/uart.c **** 	temp |= UART_CMPR_VAL1(ul_low_value);
 532:../asf/sam/drivers/uart/uart.c **** 
 533:../asf/sam/drivers/uart/uart.c **** 	temp |= UART_CMPR_VAL2(ul_high_value);
 665              		.loc 1 533 0
 666 0018 41EA0441 		orr	r1, r1, r4, lsl #16
 667              	.LVL40:
 534:../asf/sam/drivers/uart/uart.c **** 
 535:../asf/sam/drivers/uart/uart.c **** 	p_uart->UART_CMPR= temp;
 536:../asf/sam/drivers/uart/uart.c **** }
 668              		.loc 1 536 0
 669 001c 5DF8044B 		ldr	r4, [sp], #4
 670              		.cfi_restore 4
 671              		.cfi_def_cfa_offset 0
 672              	.LVL41:
 533:../asf/sam/drivers/uart/uart.c **** 
 673              		.loc 1 533 0
 674 0020 1143     		orrs	r1, r1, r2
 675              	.LVL42:
 535:../asf/sam/drivers/uart/uart.c **** }
 676              		.loc 1 535 0
 677 0022 4162     		str	r1, [r0, #36]
 678              		.loc 1 536 0
 679 0024 7047     		bx	lr
 680              		.cfi_endproc
 681              	.LFE164:
 682              		.size	uart_set_sleepwalking, .-uart_set_sleepwalking
 683 0026 00BF     		.section	.text.uart_set_write_protection,"ax",%progbits
 684              		.align	1
 685              		.p2align 2,,3
 686              		.global	uart_set_write_protection
 687              		.syntax unified
 688              		.thumb
 689              		.thumb_func
 690              		.fpu fpv5-d16
 691              		.type	uart_set_write_protection, %function
 692              	uart_set_write_protection:
 693              	.LFB165:
 537:../asf/sam/drivers/uart/uart.c **** 
 538:../asf/sam/drivers/uart/uart.c **** /**
 539:../asf/sam/drivers/uart/uart.c ****  * \brief Enables/Disables write protection mode.
 540:../asf/sam/drivers/uart/uart.c ****  *
 541:../asf/sam/drivers/uart/uart.c ****  * \param p_uart Pointer to a UART instance.
 542:../asf/sam/drivers/uart/uart.c ****  * \param flag ture for enable, false for disable.
 543:../asf/sam/drivers/uart/uart.c ****  */
 544:../asf/sam/drivers/uart/uart.c **** void uart_set_write_protection(Uart *p_uart, bool flag)
 545:../asf/sam/drivers/uart/uart.c **** {
 694              		.loc 1 545 0
ARM GAS  /tmp/ccPSOZXt.s 			page 23


 695              		.cfi_startproc
 696              		@ args = 0, pretend = 0, frame = 0
 697              		@ frame_needed = 0, uses_anonymous_args = 0
 698              		@ link register save eliminated.
 699              	.LVL43:
 546:../asf/sam/drivers/uart/uart.c **** 	if (flag) {
 700              		.loc 1 546 0
 701 0000 19B9     		cbnz	r1, .L42
 547:../asf/sam/drivers/uart/uart.c **** 		p_uart->UART_WPMR = UART_WPMR_WPKEY_PASSWD | UART_WPMR_WPEN;
 548:../asf/sam/drivers/uart/uart.c **** 	} else {
 549:../asf/sam/drivers/uart/uart.c **** 		p_uart->UART_WPMR = UART_WPMR_WPKEY_PASSWD;
 702              		.loc 1 549 0
 703 0002 044B     		ldr	r3, .L43
 704 0004 C0F8E430 		str	r3, [r0, #228]
 705 0008 7047     		bx	lr
 706              	.L42:
 547:../asf/sam/drivers/uart/uart.c **** 		p_uart->UART_WPMR = UART_WPMR_WPKEY_PASSWD | UART_WPMR_WPEN;
 707              		.loc 1 547 0
 708 000a 034B     		ldr	r3, .L43+4
 709 000c C0F8E430 		str	r3, [r0, #228]
 710 0010 7047     		bx	lr
 711              	.L44:
 712 0012 00BF     		.align	2
 713              	.L43:
 714 0014 00524155 		.word	1430344192
 715 0018 01524155 		.word	1430344193
 716              		.cfi_endproc
 717              	.LFE165:
 718              		.size	uart_set_write_protection, .-uart_set_write_protection
 719              		.section	.bss.cpu_irq_critical_section_counter,"aw",%nobits
 720              		.align	2
 721              		.type	cpu_irq_critical_section_counter, %object
 722              		.size	cpu_irq_critical_section_counter, 4
 723              	cpu_irq_critical_section_counter:
 724 0000 00000000 		.space	4
 725              		.section	.bss.cpu_irq_prev_interrupt_state,"aw",%nobits
 726              		.type	cpu_irq_prev_interrupt_state, %object
 727              		.size	cpu_irq_prev_interrupt_state, 1
 728              	cpu_irq_prev_interrupt_state:
 729 0000 00       		.space	1
 730              		.text
 731              	.Letext0:
 732              		.file 2 "/usr/include/newlib/machine/_default_types.h"
 733              		.file 3 "/usr/include/newlib/sys/_stdint.h"
 734              		.file 4 "/home/torbjorn/eclipse-workspace/CoreNG/asf/thirdparty/CMSIS/Include/core_cm7.h"
 735              		.file 5 "/home/torbjorn/eclipse-workspace/CoreNG/variants/same70/system_same70.h"
 736              		.file 6 "/home/torbjorn/eclipse-workspace/CoreNG/asf/sam/utils/cmsis/same70/include/component/uart
 737              		.file 7 "/usr/include/newlib/sys/lock.h"
 738              		.file 8 "/usr/include/newlib/sys/_types.h"
 739              		.file 9 "/usr/lib/gcc/arm-none-eabi/6.3.1/include/stddef.h"
 740              		.file 10 "/usr/include/newlib/sys/reent.h"
 741              		.file 11 "/usr/include/newlib/stdlib.h"
 742              		.file 12 "/home/torbjorn/eclipse-workspace/CoreNG/asf/common/utils/interrupt/interrupt_sam_nvic.h"
 743              		.file 13 "../asf/sam/drivers/uart/uart.h"