ARM GAS  /tmp/cc4jIqrt.s 			page 1


   1              		.cpu cortex-m7
   2              		.eabi_attribute 28, 1
   3              		.eabi_attribute 20, 1
   4              		.eabi_attribute 21, 1
   5              		.eabi_attribute 23, 3
   6              		.eabi_attribute 24, 1
   7              		.eabi_attribute 25, 1
   8              		.eabi_attribute 26, 1
   9              		.eabi_attribute 30, 2
  10              		.eabi_attribute 34, 1
  11              		.eabi_attribute 18, 4
  12              		.file	"variant.cpp"
  13              		.text
  14              	.Ltext0:
  15              		.cfi_sections	.debug_frame
  16              		.section	.text._ZN9UARTClassD2Ev,"axG",%progbits,_ZN9UARTClassD5Ev,comdat
  17              		.align	1
  18              		.p2align 2,,3
  19              		.weak	_ZN9UARTClassD2Ev
  20              		.syntax unified
  21              		.thumb
  22              		.thumb_func
  23              		.fpu fpv5-d16
  24              		.type	_ZN9UARTClassD2Ev, %function
  25              	_ZN9UARTClassD2Ev:
  26              	.LFB546:
  27              		.file 1 "/home/torbjorn/eclipse-workspace/CoreNG/cores/arduino/UARTClass.h"
   1:/home/torbjorn/eclipse-workspace/CoreNG/cores/arduino/UARTClass.h **** /*
   2:/home/torbjorn/eclipse-workspace/CoreNG/cores/arduino/UARTClass.h ****   Copyright (c) 2011 Arduino.  All right reserved.
   3:/home/torbjorn/eclipse-workspace/CoreNG/cores/arduino/UARTClass.h **** 
   4:/home/torbjorn/eclipse-workspace/CoreNG/cores/arduino/UARTClass.h ****   This library is free software; you can redistribute it and/or
   5:/home/torbjorn/eclipse-workspace/CoreNG/cores/arduino/UARTClass.h ****   modify it under the terms of the GNU Lesser General Public
   6:/home/torbjorn/eclipse-workspace/CoreNG/cores/arduino/UARTClass.h ****   License as published by the Free Software Foundation; either
   7:/home/torbjorn/eclipse-workspace/CoreNG/cores/arduino/UARTClass.h ****   version 2.1 of the License, or (at your option) any later version.
   8:/home/torbjorn/eclipse-workspace/CoreNG/cores/arduino/UARTClass.h **** 
   9:/home/torbjorn/eclipse-workspace/CoreNG/cores/arduino/UARTClass.h ****   This library is distributed in the hope that it will be useful,
  10:/home/torbjorn/eclipse-workspace/CoreNG/cores/arduino/UARTClass.h ****   but WITHOUT ANY WARRANTY; without even the implied warranty of
  11:/home/torbjorn/eclipse-workspace/CoreNG/cores/arduino/UARTClass.h ****   MERCHANTABILITY or FITNESS FOR A PARTICULAR PURPOSE. 
  12:/home/torbjorn/eclipse-workspace/CoreNG/cores/arduino/UARTClass.h ****   See the GNU Lesser General Public License for more details.
  13:/home/torbjorn/eclipse-workspace/CoreNG/cores/arduino/UARTClass.h **** 
  14:/home/torbjorn/eclipse-workspace/CoreNG/cores/arduino/UARTClass.h ****   You should have received a copy of the GNU Lesser General Public
  15:/home/torbjorn/eclipse-workspace/CoreNG/cores/arduino/UARTClass.h ****   License along with this library; if not, write to the Free Software
  16:/home/torbjorn/eclipse-workspace/CoreNG/cores/arduino/UARTClass.h ****   Foundation, Inc., 51 Franklin St, Fifth Floor, Boston, MA  02110-1301  USA
  17:/home/torbjorn/eclipse-workspace/CoreNG/cores/arduino/UARTClass.h **** */
  18:/home/torbjorn/eclipse-workspace/CoreNG/cores/arduino/UARTClass.h **** 
  19:/home/torbjorn/eclipse-workspace/CoreNG/cores/arduino/UARTClass.h **** #ifndef _UART_CLASS_
  20:/home/torbjorn/eclipse-workspace/CoreNG/cores/arduino/UARTClass.h **** #define _UART_CLASS_
  21:/home/torbjorn/eclipse-workspace/CoreNG/cores/arduino/UARTClass.h **** 
  22:/home/torbjorn/eclipse-workspace/CoreNG/cores/arduino/UARTClass.h **** #include "HardwareSerial.h"
  23:/home/torbjorn/eclipse-workspace/CoreNG/cores/arduino/UARTClass.h **** #include "RingBuffer.h"
  24:/home/torbjorn/eclipse-workspace/CoreNG/cores/arduino/UARTClass.h **** 
  25:/home/torbjorn/eclipse-workspace/CoreNG/cores/arduino/UARTClass.h **** #if SAM4E || SAME70
  26:/home/torbjorn/eclipse-workspace/CoreNG/cores/arduino/UARTClass.h **** #include "component/usart.h"
  27:/home/torbjorn/eclipse-workspace/CoreNG/cores/arduino/UARTClass.h **** #else
  28:/home/torbjorn/eclipse-workspace/CoreNG/cores/arduino/UARTClass.h **** #include "component/component_usart.h"
  29:/home/torbjorn/eclipse-workspace/CoreNG/cores/arduino/UARTClass.h **** #endif
  30:/home/torbjorn/eclipse-workspace/CoreNG/cores/arduino/UARTClass.h **** 
ARM GAS  /tmp/cc4jIqrt.s 			page 2


  31:/home/torbjorn/eclipse-workspace/CoreNG/cores/arduino/UARTClass.h **** #define SERIAL_8N1 UARTClass::Mode_8N1
  32:/home/torbjorn/eclipse-workspace/CoreNG/cores/arduino/UARTClass.h **** #define SERIAL_8E1 UARTClass::Mode_8E1
  33:/home/torbjorn/eclipse-workspace/CoreNG/cores/arduino/UARTClass.h **** #define SERIAL_8O1 UARTClass::Mode_8O1
  34:/home/torbjorn/eclipse-workspace/CoreNG/cores/arduino/UARTClass.h **** #define SERIAL_8M1 UARTClass::Mode_8M1
  35:/home/torbjorn/eclipse-workspace/CoreNG/cores/arduino/UARTClass.h **** #define SERIAL_8S1 UARTClass::Mode_8S1
  36:/home/torbjorn/eclipse-workspace/CoreNG/cores/arduino/UARTClass.h **** 
  37:/home/torbjorn/eclipse-workspace/CoreNG/cores/arduino/UARTClass.h **** 
  38:/home/torbjorn/eclipse-workspace/CoreNG/cores/arduino/UARTClass.h **** class UARTClass : public HardwareSerial
  28              		.loc 1 38 0
  29              		.cfi_startproc
  30              		@ args = 0, pretend = 0, frame = 0
  31              		@ frame_needed = 0, uses_anonymous_args = 0
  32              		@ link register save eliminated.
  33              	.LVL0:
  34              		.loc 1 38 0
  35 0000 7047     		bx	lr
  36              		.cfi_endproc
  37              	.LFE546:
  38              		.size	_ZN9UARTClassD2Ev, .-_ZN9UARTClassD2Ev
  39              		.weak	_ZN9UARTClassD1Ev
  40              		.thumb_set _ZN9UARTClassD1Ev,_ZN9UARTClassD2Ev
  41 0002 00BF     		.section	.text.UART0_Handler,"ax",%progbits
  42              		.align	1
  43              		.p2align 2,,3
  44              		.global	UART0_Handler
  45              		.syntax unified
  46              		.thumb
  47              		.thumb_func
  48              		.fpu fpv5-d16
  49              		.type	UART0_Handler, %function
  50              	UART0_Handler:
  51              	.LFB532:
  52              		.file 2 "../variants/same70/variant.cpp"
   1:../variants/same70/variant.cpp **** /*
   2:../variants/same70/variant.cpp ****   Copyright (c) 2011 Arduino.  All right reserved.
   3:../variants/same70/variant.cpp **** 
   4:../variants/same70/variant.cpp ****   This library is free software; you can redistribute it and/or
   5:../variants/same70/variant.cpp ****   modify it under the terms of the GNU Lesser General Public
   6:../variants/same70/variant.cpp ****   License as published by the Free Software Foundation; either
   7:../variants/same70/variant.cpp ****   version 2.1 of the License, or (at your option) any later version.
   8:../variants/same70/variant.cpp **** 
   9:../variants/same70/variant.cpp ****   This library is distributed in the hope that it will be useful,
  10:../variants/same70/variant.cpp ****   but WITHOUT ANY WARRANTY; without even the implied warranty of
  11:../variants/same70/variant.cpp ****   MERCHANTABILITY or FITNESS FOR A PARTICULAR PURPOSE.
  12:../variants/same70/variant.cpp ****   See the GNU Lesser General Public License for more details.
  13:../variants/same70/variant.cpp **** 
  14:../variants/same70/variant.cpp ****   You should have received a copy of the GNU Lesser General Public
  15:../variants/same70/variant.cpp ****   License along with this library; if not, write to the Free Software
  16:../variants/same70/variant.cpp ****   Foundation, Inc., 51 Franklin St, Fifth Floor, Boston, MA  02110-1301  USA
  17:../variants/same70/variant.cpp **** */
  18:../variants/same70/variant.cpp **** 
  19:../variants/same70/variant.cpp **** #include "variant.h"
  20:../variants/same70/variant.cpp **** #include "udc.h"
  21:../variants/same70/variant.cpp **** 
  22:../variants/same70/variant.cpp **** /* For the SAME70Q21 test board we use a logical pin numbering scheme:
  23:../variants/same70/variant.cpp ****  * Pins   0-17  PA0-6, 9-13, 17-19, 21-24, 29
  24:../variants/same70/variant.cpp ****  * Pins  18-26  PB0-7, 13
ARM GAS  /tmp/cc4jIqrt.s 			page 3


  25:../variants/same70/variant.cpp ****  * Pins  27-36  PC8-9, 12-14, 16-17, 19, 30-31
  26:../variants/same70/variant.cpp ****  * Pins  37-50  PD11-12, 18-22, 24-28, 30-31
  27:../variants/same70/variant.cpp ****  */
  28:../variants/same70/variant.cpp **** 
  29:../variants/same70/variant.cpp **** /*
  30:../variants/same70/variant.cpp ****  * Pins descriptions
  31:../variants/same70/variant.cpp ****  */
  32:../variants/same70/variant.cpp **** extern const PinDescription g_APinDescription[] =
  33:../variants/same70/variant.cpp **** {
  34:../variants/same70/variant.cpp ****   // PIO A
  35:../variants/same70/variant.cpp **** 
  36:../variants/same70/variant.cpp ****   // 0-2
  37:../variants/same70/variant.cpp ****   { PIOA, PIO_PA0,             ID_PIOA, PIO_OUTPUT_0, PIO_DEFAULT,  PIN_ATTR_DIGITAL,              
  38:../variants/same70/variant.cpp ****   { PIOA, PIO_PA1,             ID_PIOA, PIO_OUTPUT_0, PIO_DEFAULT,  PIN_ATTR_DIGITAL,              
  39:../variants/same70/variant.cpp ****   { PIOA, PIO_PA2,             ID_PIOA, PIO_OUTPUT_0, PIO_DEFAULT,  PIN_ATTR_DIGITAL,              
  40:../variants/same70/variant.cpp **** 
  41:../variants/same70/variant.cpp ****   // PA3-4 are connected to EEPROM on the test board (TWI0)
  42:../variants/same70/variant.cpp ****   //{ PIOA, PIO_PA3A_TWD0,       ID_PIOA, PIO_PERIPH_A, PIO_DEFAULT,  PIN_ATTR_DIGITAL,            
  43:../variants/same70/variant.cpp ****   //{ PIOA, PIO_PA4A_TWCK0,      ID_PIOA, PIO_PERIPH_A, PIO_DEFAULT,  PIN_ATTR_DIGITAL,            
  44:../variants/same70/variant.cpp **** 
  45:../variants/same70/variant.cpp ****   // 3-4 UART1
  46:../variants/same70/variant.cpp ****   { PIOA, PIO_PA5C_URXD1,      ID_PIOA, PIO_PERIPH_C, PIO_PULLUP,   PIN_ATTR_DIGITAL,              
  47:../variants/same70/variant.cpp ****   { PIOA, PIO_PA6C_UTXD1,      ID_PIOA, PIO_PERIPH_C, PIO_DEFAULT,  PIN_ATTR_DIGITAL,              
  48:../variants/same70/variant.cpp **** 
  49:../variants/same70/variant.cpp ****   // PA7-8 are connected to XTAL32 on the test board
  50:../variants/same70/variant.cpp ****   //{ PIOA, PIO_PA7,             ID_PIOA, PIO_OUTPUT_0, PIO_DEFAULT,  PIN_ATTR_DIGITAL,            
  51:../variants/same70/variant.cpp ****   //{ PIOA, PIO_PA8,             ID_PIOA, PIO_OUTPUT_0, PIO_DEFAULT,  PIN_ATTR_DIGITAL,            
  52:../variants/same70/variant.cpp **** 
  53:../variants/same70/variant.cpp ****   // 5-6 UART0
  54:../variants/same70/variant.cpp ****   { PIOA, PIO_PA9A_URXD0,      ID_PIOA, PIO_PERIPH_A, PIO_PULLUP,   PIN_ATTR_DIGITAL,              
  55:../variants/same70/variant.cpp ****   { PIOA, PIO_PA10A_UTXD0,     ID_PIOA, PIO_PERIPH_A, PIO_DEFAULT,  PIN_ATTR_DIGITAL,              
  56:../variants/same70/variant.cpp **** 
  57:../variants/same70/variant.cpp ****   // 7-9
  58:../variants/same70/variant.cpp ****   // PA11 is connected to USER SWITCH on the test board (active low)
  59:../variants/same70/variant.cpp ****   { PIOA, PIO_PA11,            ID_PIOA, PIO_INPUT,    PIO_DEFAULT,  PIN_ATTR_DIGITAL,              
  60:../variants/same70/variant.cpp ****   { PIOA, PIO_PA12,            ID_PIOA, PIO_OUTPUT_0, PIO_DEFAULT,  PIN_ATTR_DIGITAL,              
  61:../variants/same70/variant.cpp ****   { PIOA, PIO_PA13,            ID_PIOA, PIO_OUTPUT_0, PIO_DEFAULT,  PIN_ATTR_DIGITAL,              
  62:../variants/same70/variant.cpp **** 
  63:../variants/same70/variant.cpp ****   // PA15-16 are connected to RAM on the test board
  64:../variants/same70/variant.cpp ****   //{ PIOA, PIO_PA15,            ID_PIOA, PIO_OUTPUT_0, PIO_DEFAULT,  PIN_ATTR_DIGITAL,            
  65:../variants/same70/variant.cpp ****   //{ PIOA, PIO_PA16,            ID_PIOA, PIO_OUTPUT_0, PIO_DEFAULT,  PIN_ATTR_DIGITAL,            
  66:../variants/same70/variant.cpp **** 
  67:../variants/same70/variant.cpp ****   // 10-12 (ADC)
  68:../variants/same70/variant.cpp ****   { PIOA, PIO_PA17,            ID_PIOA, PIO_INPUT,    PIO_DEFAULT,  PIN_ATTR_ANALOG,               
  69:../variants/same70/variant.cpp ****   { PIOA, PIO_PA18,            ID_PIOA, PIO_INPUT,    PIO_DEFAULT,  PIN_ATTR_ANALOG,               
  70:../variants/same70/variant.cpp ****   { PIOA, PIO_PA19,            ID_PIOA, PIO_INPUT,    PIO_DEFAULT,  PIN_ATTR_DIGITAL,              
  71:../variants/same70/variant.cpp **** 
  72:../variants/same70/variant.cpp ****   // PA20 is connected to RAM on the test board
  73:../variants/same70/variant.cpp ****   //{ PIOA, PIO_PA20,            ID_PIOA, PIO_INPUT,    PIO_DEFAULT,  PIN_ATTR_ANALOG,             
  74:../variants/same70/variant.cpp **** 
  75:../variants/same70/variant.cpp ****   // 13-16
  76:../variants/same70/variant.cpp ****   { PIOA, PIO_PA21,            ID_PIOA, PIO_INPUT,    PIO_DEFAULT,  PIN_ATTR_ANALOG,               
  77:../variants/same70/variant.cpp ****   { PIOA, PIO_PA22,            ID_PIOA, PIO_OUTPUT_0, PIO_DEFAULT,  PIN_ATTR_DIGITAL,              
  78:../variants/same70/variant.cpp ****   { PIOA, PIO_PA23,            ID_PIOA, PIO_OUTPUT_0, PIO_DEFAULT,  PIN_ATTR_DIGITAL,              
  79:../variants/same70/variant.cpp ****   { PIOA, PIO_PA24,            ID_PIOA, PIO_OUTPUT_0, PIO_DEFAULT,  PIN_ATTR_DIGITAL,              
  80:../variants/same70/variant.cpp **** 
  81:../variants/same70/variant.cpp ****   // PA25-28 are used for HSMCI
ARM GAS  /tmp/cc4jIqrt.s 			page 4


  82:../variants/same70/variant.cpp **** 
  83:../variants/same70/variant.cpp ****   // 17
  84:../variants/same70/variant.cpp ****   { PIOA, PIO_PA29,            ID_PIOA, PIO_OUTPUT_0, PIO_DEFAULT,  PIN_ATTR_DIGITAL,              
  85:../variants/same70/variant.cpp **** 
  86:../variants/same70/variant.cpp ****   // PA30 is connected to SD_D0 on the test board
  87:../variants/same70/variant.cpp ****   // PA31 is connected to SD_D1 on the test board
  88:../variants/same70/variant.cpp **** 
  89:../variants/same70/variant.cpp ****   // PIO B
  90:../variants/same70/variant.cpp **** 
  91:../variants/same70/variant.cpp ****   // 18-19
  92:../variants/same70/variant.cpp ****   { PIOB, PIO_PB0,             ID_PIOB, PIO_PERIPH_D, PIO_DEFAULT,  PIN_ATTR_DIGITAL,              
  93:../variants/same70/variant.cpp ****   { PIOB, PIO_PB1,             ID_PIOB, PIO_OUTPUT_0, PIO_DEFAULT,  PIN_ATTR_DIGITAL,              
  94:../variants/same70/variant.cpp **** 
  95:../variants/same70/variant.cpp ****   // 20-21 (CAN0?) [currently used for CS from ESP]
  96:../variants/same70/variant.cpp ****   { PIOB, PIO_PB2,             ID_PIOB, PIO_PERIPH_D, PIO_DEFAULT,  PIN_ATTR_DIGITAL,              
  97:../variants/same70/variant.cpp ****   { PIOB, PIO_PB3,             ID_PIOB, PIO_OUTPUT_0, PIO_DEFAULT,  PIN_ATTR_DIGITAL,              
  98:../variants/same70/variant.cpp **** 
  99:../variants/same70/variant.cpp ****   // 22-23 (TWI1?)
 100:../variants/same70/variant.cpp ****   { PIOB, PIO_PB4,             ID_PIOB, PIO_OUTPUT_0, PIO_DEFAULT,  PIN_ATTR_DIGITAL,              
 101:../variants/same70/variant.cpp ****   { PIOB, PIO_PB5,             ID_PIOB, PIO_OUTPUT_0, PIO_DEFAULT,  PIN_ATTR_DIGITAL,              
 102:../variants/same70/variant.cpp **** 
 103:../variants/same70/variant.cpp ****   // 24-25
 104:../variants/same70/variant.cpp ****   { PIOB, PIO_PB6,             ID_PIOB, PIO_OUTPUT_0, PIO_DEFAULT,  PIN_ATTR_DIGITAL,              
 105:../variants/same70/variant.cpp ****   { PIOB, PIO_PB7,             ID_PIOB, PIO_OUTPUT_0, PIO_DEFAULT,  PIN_ATTR_DIGITAL,              
 106:../variants/same70/variant.cpp **** 
 107:../variants/same70/variant.cpp ****   // PB8-PB9 are not available (Crystal) [assuming we use two pins for the crystal, else we get a s
 108:../variants/same70/variant.cpp ****   // PB10-PB11 are not present on chip
 109:../variants/same70/variant.cpp ****   // PB12 is not available (Erase)
 110:../variants/same70/variant.cpp **** 
 111:../variants/same70/variant.cpp ****   // 26
 112:../variants/same70/variant.cpp ****   { PIOB, PIO_PB13,            ID_PIOB, PIO_INPUT,    PIO_DEFAULT,  PIN_ATTR_DIGITAL,              
 113:../variants/same70/variant.cpp **** 
 114:../variants/same70/variant.cpp ****   // PIO C
 115:../variants/same70/variant.cpp **** 
 116:../variants/same70/variant.cpp ****   // PC0-7 are connected to RAM on the test board
 117:../variants/same70/variant.cpp ****   //{ PIOC, PIO_PC0,             ID_PIOC, PIO_OUTPUT_0, PIO_DEFAULT,  PIN_ATTR_DIGITAL,            
 118:../variants/same70/variant.cpp ****   //{ PIOC, PIO_PC1,             ID_PIOC, PIO_OUTPUT_0, PIO_DEFAULT,  PIN_ATTR_DIGITAL,            
 119:../variants/same70/variant.cpp ****   //{ PIOC, PIO_PC2,             ID_PIOC, PIO_OUTPUT_0, PIO_DEFAULT,  PIN_ATTR_DIGITAL,            
 120:../variants/same70/variant.cpp ****   //{ PIOC, PIO_PC3,             ID_PIOC, PIO_OUTPUT_0, PIO_DEFAULT,  PIN_ATTR_DIGITAL,            
 121:../variants/same70/variant.cpp ****   //{ PIOC, PIO_PC4,             ID_PIOC, PIO_OUTPUT_0, PIO_DEFAULT,  PIN_ATTR_DIGITAL,            
 122:../variants/same70/variant.cpp ****   //{ PIOC, PIO_PC5,             ID_PIOC, PIO_OUTPUT_0, PIO_DEFAULT,  PIN_ATTR_DIGITAL,            
 123:../variants/same70/variant.cpp ****   //{ PIOC, PIO_PC6,             ID_PIOC, PIO_OUTPUT_0, PIO_DEFAULT,  PIN_ATTR_DIGITAL,            
 124:../variants/same70/variant.cpp ****   //{ PIOC, PIO_PC7,             ID_PIOC, PIO_OUTPUT_0, PIO_DEFAULT,  PIN_ATTR_DIGITAL,            
 125:../variants/same70/variant.cpp **** 
 126:../variants/same70/variant.cpp ****   // 27-28
 127:../variants/same70/variant.cpp ****   // PC8 is connected to USER LED on the test board (active low)
 128:../variants/same70/variant.cpp ****   { PIOC, PIO_PC8,             ID_PIOC, PIO_OUTPUT_0, PIO_DEFAULT,  PIN_ATTR_DIGITAL,              
 129:../variants/same70/variant.cpp ****   { PIOC, PIO_PC9,             ID_PIOC, PIO_OUTPUT_0, PIO_DEFAULT,  PIN_ATTR_DIGITAL,              
 130:../variants/same70/variant.cpp **** 
 131:../variants/same70/variant.cpp ****   // PC11 is connected to EEPROM on the test board
 132:../variants/same70/variant.cpp ****   //{ PIOC, PIO_PC11,            ID_PIOC, PIO_OUTPUT_0, PIO_DEFAULT,  PIN_ATTR_DIGITAL,            
 133:../variants/same70/variant.cpp **** 
 134:../variants/same70/variant.cpp ****   // 29-31
 135:../variants/same70/variant.cpp ****   { PIOC, PIO_PC12,            ID_PIOC, PIO_OUTPUT_0, PIO_DEFAULT,  PIN_ATTR_DIGITAL,              
 136:../variants/same70/variant.cpp ****   { PIOC, PIO_PC13,            ID_PIOC, PIO_OUTPUT_0, PIO_DEFAULT,  PIN_ATTR_DIGITAL,              
 137:../variants/same70/variant.cpp ****   { PIOC, PIO_PC14,            ID_PIOC, PIO_OUTPUT_0, PIO_DEFAULT,  PIN_ATTR_DIGITAL,              
 138:../variants/same70/variant.cpp **** 
ARM GAS  /tmp/cc4jIqrt.s 			page 5


 139:../variants/same70/variant.cpp ****   // PC15 is connected to RAM on the test board
 140:../variants/same70/variant.cpp **** 
 141:../variants/same70/variant.cpp ****   // 32
 142:../variants/same70/variant.cpp ****   { PIOC, PIO_PC16,            ID_PIOC, PIO_OUTPUT_0, PIO_DEFAULT,  PIN_ATTR_DIGITAL,              
 143:../variants/same70/variant.cpp **** 
 144:../variants/same70/variant.cpp ****   // 33
 145:../variants/same70/variant.cpp ****   { PIOC, PIO_PC17,            ID_PIOC, PIO_OUTPUT_0, PIO_DEFAULT,  PIN_ATTR_DIGITAL,              
 146:../variants/same70/variant.cpp **** 
 147:../variants/same70/variant.cpp ****   // PC18 is connected to RAM on the test board
 148:../variants/same70/variant.cpp **** 
 149:../variants/same70/variant.cpp ****   // 34
 150:../variants/same70/variant.cpp ****   { PIOC, PIO_PC19,            ID_PIOC, PIO_OUTPUT_0, PIO_DEFAULT,  PIN_ATTR_DIGITAL,              
 151:../variants/same70/variant.cpp **** 
 152:../variants/same70/variant.cpp ****   // PC20-29 are connected to RAM on the test board
 153:../variants/same70/variant.cpp ****   //{ PIOC, PIO_PC20,            ID_PIOC, PIO_OUTPUT_0, PIO_DEFAULT,  PIN_ATTR_DIGITAL,            
 154:../variants/same70/variant.cpp ****   //{ PIOC, PIO_PC21,            ID_PIOC, PIO_OUTPUT_0, PIO_DEFAULT,  PIN_ATTR_DIGITAL,            
 155:../variants/same70/variant.cpp ****   //{ PIOC, PIO_PC22,            ID_PIOC, PIO_OUTPUT_0, PIO_DEFAULT,  PIN_ATTR_DIGITAL,            
 156:../variants/same70/variant.cpp ****   //{ PIOC, PIO_PC23,            ID_PIOC, PIO_OUTPUT_0, PIO_DEFAULT,  PIN_ATTR_DIGITAL,            
 157:../variants/same70/variant.cpp ****   //{ PIOC, PIO_PC24,            ID_PIOC, PIO_OUTPUT_0, PIO_DEFAULT,  PIN_ATTR_DIGITAL,            
 158:../variants/same70/variant.cpp ****   //{ PIOC, PIO_PC25,            ID_PIOC, PIO_OUTPUT_0, PIO_DEFAULT,  PIN_ATTR_DIGITAL,            
 159:../variants/same70/variant.cpp ****   //{ PIOC, PIO_PC26,            ID_PIOC, PIO_OUTPUT_0, PIO_DEFAULT,  PIN_ATTR_DIGITAL,            
 160:../variants/same70/variant.cpp ****   //{ PIOC, PIO_PC27,            ID_PIOC, PIO_OUTPUT_0, PIO_DEFAULT,  PIN_ATTR_DIGITAL,            
 161:../variants/same70/variant.cpp ****   //{ PIOC, PIO_PC28,            ID_PIOC, PIO_OUTPUT_0, PIO_DEFAULT,  PIN_ATTR_DIGITAL,            
 162:../variants/same70/variant.cpp ****   //{ PIOC, PIO_PC29,            ID_PIOC, PIO_OUTPUT_0, PIO_DEFAULT,  PIN_ATTR_DIGITAL,            
 163:../variants/same70/variant.cpp **** 
 164:../variants/same70/variant.cpp ****   // 35-36
 165:../variants/same70/variant.cpp ****   { PIOC, PIO_PC30,            ID_PIOC, PIO_OUTPUT_0, PIO_DEFAULT,  PIN_ATTR_DIGITAL,              
 166:../variants/same70/variant.cpp ****   { PIOC, PIO_PC31,            ID_PIOC, PIO_OUTPUT_0, PIO_DEFAULT,  PIN_ATTR_DIGITAL,              
 167:../variants/same70/variant.cpp **** 
 168:../variants/same70/variant.cpp ****   // PIO D
 169:../variants/same70/variant.cpp **** 
 170:../variants/same70/variant.cpp ****   // PD0-10 are connected to the Ethernet PHY
 171:../variants/same70/variant.cpp **** 
 172:../variants/same70/variant.cpp ****   // 37-38
 173:../variants/same70/variant.cpp ****   { PIOD, PIO_PD11,            ID_PIOD, PIO_OUTPUT_0, PIO_DEFAULT,  PIN_ATTR_DIGITAL,              
 174:../variants/same70/variant.cpp ****   { PIOD, PIO_PD12,            ID_PIOD, PIO_OUTPUT_0, PIO_DEFAULT,  PIN_ATTR_DIGITAL,              
 175:../variants/same70/variant.cpp **** 
 176:../variants/same70/variant.cpp ****   // PD13-17 are connected to RAM on the test board
 177:../variants/same70/variant.cpp ****   //{ PIOD, PIO_PD13,            ID_PIOD, PIO_OUTPUT_0, PIO_DEFAULT,  PIN_ATTR_DIGITAL,            
 178:../variants/same70/variant.cpp ****   //{ PIOD, PIO_PD14,            ID_PIOD, PIO_OUTPUT_0, PIO_DEFAULT,  PIN_ATTR_DIGITAL,            
 179:../variants/same70/variant.cpp ****   //{ PIOD, PIO_PD15,            ID_PIOD, PIO_OUTPUT_0, PIO_DEFAULT,  PIN_ATTR_DIGITAL,            
 180:../variants/same70/variant.cpp ****   //{ PIOD, PIO_PD16,            ID_PIOD, PIO_OUTPUT_0, PIO_DEFAULT,  PIN_ATTR_DIGITAL,            
 181:../variants/same70/variant.cpp ****   //{ PIOD, PIO_PD17,            ID_PIOD, PIO_OUTPUT_0, PIO_DEFAULT,  PIN_ATTR_DIGITAL,            
 182:../variants/same70/variant.cpp **** 
 183:../variants/same70/variant.cpp ****   // 39-40
 184:../variants/same70/variant.cpp ****   { PIOD, PIO_PD18,            ID_PIOD, PIO_OUTPUT_0, PIO_DEFAULT,  PIN_ATTR_DIGITAL,              
 185:../variants/same70/variant.cpp ****   { PIOD, PIO_PD19,            ID_PIOD, PIO_OUTPUT_0, PIO_DEFAULT,  PIN_ATTR_DIGITAL,              
 186:../variants/same70/variant.cpp **** 
 187:../variants/same70/variant.cpp ****   // 41-43 SPI0
 188:../variants/same70/variant.cpp ****   { PIOD, PIO_PD20B_SPI0_MISO, ID_PIOD, PIO_PERIPH_B, PIO_DEFAULT,  PIN_ATTR_DIGITAL,              
 189:../variants/same70/variant.cpp ****   { PIOD, PIO_PD21B_SPI0_MOSI, ID_PIOD, PIO_PERIPH_B, PIO_DEFAULT,  PIN_ATTR_DIGITAL,              
 190:../variants/same70/variant.cpp ****   { PIOD, PIO_PD22B_SPI0_SPCK, ID_PIOD, PIO_PERIPH_B, PIO_DEFAULT,  PIN_ATTR_DIGITAL,              
 191:../variants/same70/variant.cpp **** 
 192:../variants/same70/variant.cpp ****   // PD23 is connected to RAM on the test board
 193:../variants/same70/variant.cpp ****   //{ PIOD, PIO_PD23,            ID_PIOD, PIO_OUTPUT_0, PIO_DEFAULT,  PIN_ATTR_DIGITAL,            
 194:../variants/same70/variant.cpp **** 
 195:../variants/same70/variant.cpp ****   // 44-48
ARM GAS  /tmp/cc4jIqrt.s 			page 6


 196:../variants/same70/variant.cpp ****   { PIOD, PIO_PD24,            ID_PIOD, PIO_OUTPUT_0, PIO_DEFAULT,  PIN_ATTR_DIGITAL,              
 197:../variants/same70/variant.cpp ****   { PIOD, PIO_PD25,            ID_PIOD, PIO_OUTPUT_0, PIO_DEFAULT,  PIN_ATTR_DIGITAL,              
 198:../variants/same70/variant.cpp ****   { PIOD, PIO_PD26,            ID_PIOD, PIO_OUTPUT_0, PIO_DEFAULT,  PIN_ATTR_DIGITAL,              
 199:../variants/same70/variant.cpp ****   { PIOD, PIO_PD27,            ID_PIOD, PIO_OUTPUT_0, PIO_DEFAULT,  PIN_ATTR_DIGITAL,              
 200:../variants/same70/variant.cpp ****   { PIOD, PIO_PD28,            ID_PIOD, PIO_OUTPUT_0, PIO_DEFAULT,  PIN_ATTR_DIGITAL,              
 201:../variants/same70/variant.cpp **** 
 202:../variants/same70/variant.cpp ****   // PD29 is connected to RAM on the test board
 203:../variants/same70/variant.cpp ****   //{ PIOD, PIO_PD29,            ID_PIOD, PIO_OUTPUT_0, PIO_DEFAULT,  PIN_ATTR_DIGITAL,            
 204:../variants/same70/variant.cpp **** 
 205:../variants/same70/variant.cpp ****   // 49-50
 206:../variants/same70/variant.cpp ****   { PIOD, PIO_PD30,            ID_PIOD, PIO_OUTPUT_0, PIO_DEFAULT,  PIN_ATTR_DIGITAL,              
 207:../variants/same70/variant.cpp ****   { PIOD, PIO_PD31,            ID_PIOD, PIO_OUTPUT_0, PIO_DEFAULT,  PIN_ATTR_DIGITAL,              
 208:../variants/same70/variant.cpp **** 
 209:../variants/same70/variant.cpp ****   // PIO E
 210:../variants/same70/variant.cpp **** 
 211:../variants/same70/variant.cpp ****   // PE0-5 are connected to RAM on the test board
 212:../variants/same70/variant.cpp ****   //{ PIOE, PIO_PE0,             ID_PIOE, PIO_OUTPUT_0, PIO_DEFAULT,  PIN_ATTR_DIGITAL,            
 213:../variants/same70/variant.cpp ****   //{ PIOE, PIO_PE1,             ID_PIOE, PIO_OUTPUT_0, PIO_DEFAULT,  PIN_ATTR_DIGITAL,            
 214:../variants/same70/variant.cpp ****   //{ PIOE, PIO_PE2,             ID_PIOE, PIO_OUTPUT_0, PIO_DEFAULT,  PIN_ATTR_DIGITAL,            
 215:../variants/same70/variant.cpp ****   //{ PIOE, PIO_PE3,             ID_PIOE, PIO_OUTPUT_0, PIO_DEFAULT,  PIN_ATTR_DIGITAL,            
 216:../variants/same70/variant.cpp ****   //{ PIOE, PIO_PE4,             ID_PIOE, PIO_OUTPUT_0, PIO_DEFAULT,  PIN_ATTR_DIGITAL,            
 217:../variants/same70/variant.cpp ****   //{ PIOE, PIO_PE5,             ID_PIOE, PIO_OUTPUT_0, PIO_DEFAULT,  PIN_ATTR_DIGITAL,            
 218:../variants/same70/variant.cpp **** 
 219:../variants/same70/variant.cpp ****   // OTHER
 220:../variants/same70/variant.cpp **** 
 221:../variants/same70/variant.cpp ****   // 51-52 HSMCI
 222:../variants/same70/variant.cpp ****   { PIOA, PIO_PA25D_MCCK,      ID_PIOA, PIO_PERIPH_D, PIO_DEFAULT,  PIN_ATTR_DIGITAL,              
 223:../variants/same70/variant.cpp ****   { PIOA, PIO_PA28C_MCCDA | PIO_PA30C_MCDA0 | PIO_PA31C_MCDA1 | PIO_PA26C_MCDA2 | PIO_PA27C_MCDA3,
 224:../variants/same70/variant.cpp **** 		  	  	  	  	  	   ID_PIOA, PIO_PERIPH_C, PIO_PULLUP,   PIN_ATTR_DIGITAL,                   NO_ADC
 225:../variants/same70/variant.cpp **** 
 226:../variants/same70/variant.cpp ****   // 53-55 GMAC PHY
 227:../variants/same70/variant.cpp ****   { PIOA, PIO_PA14,            ID_PIOA, PIO_INPUT,    PIO_PULLUP,   PIN_ATTR_DIGITAL,              
 228:../variants/same70/variant.cpp ****   { PIOC, PIO_PC10,            ID_PIOC, PIO_OUTPUT_1, PIO_DEFAULT,  PIN_ATTR_DIGITAL,              
 229:../variants/same70/variant.cpp ****   { PIOD, (PIO_PD0A_GTXCK | PIO_PD1A_GTXEN | PIO_PD2A_GTX0 | PIO_PD3A_GTX1 | PIO_PD4A_GRXDV | PIO_P
 230:../variants/same70/variant.cpp **** 		  	  	  	  	  	   ID_PIOD, PIO_PERIPH_A, PIO_DEFAULT,  PIN_ATTR_DIGITAL,                   NO_ADC
 231:../variants/same70/variant.cpp **** 
 232:../variants/same70/variant.cpp ****   // 56 UART0 all pins
 233:../variants/same70/variant.cpp ****   { PIOA, PIO_PA9A_URXD0|PIO_PA10A_UTXD0, ID_PIOA, PIO_PERIPH_A, PIO_DEFAULT, (PIN_ATTR_DIGITAL|PIN
 234:../variants/same70/variant.cpp **** 
 235:../variants/same70/variant.cpp ****   // 57 UART1 all pins
 236:../variants/same70/variant.cpp ****   { PIOA, PIO_PA5C_URXD1|PIO_PA6C_UTXD1,  ID_PIOA, PIO_PERIPH_C, PIO_DEFAULT, (PIN_ATTR_DIGITAL|PIN
 237:../variants/same70/variant.cpp **** 
 238:../variants/same70/variant.cpp **** #if 0
 239:../variants/same70/variant.cpp ****   // xx - TWI0 all pins
 240:../variants/same70/variant.cpp ****   { PIOA, PIO_PA3A_TWD0|PIO_PA4A_TWCK0,   ID_PIOA, PIO_PERIPH_A, PIO_DEFAULT, (PIN_ATTR_DIGITAL|PIN
 241:../variants/same70/variant.cpp **** #endif
 242:../variants/same70/variant.cpp **** };
 243:../variants/same70/variant.cpp **** 
 244:../variants/same70/variant.cpp **** /*
 245:../variants/same70/variant.cpp ****  * UART objects
 246:../variants/same70/variant.cpp ****  */
 247:../variants/same70/variant.cpp **** RingBuffer rx_buffer1;
 248:../variants/same70/variant.cpp **** RingBuffer tx_buffer1;
 249:../variants/same70/variant.cpp **** RingBuffer rx_buffer2;
 250:../variants/same70/variant.cpp **** RingBuffer tx_buffer2;
 251:../variants/same70/variant.cpp **** 
 252:../variants/same70/variant.cpp **** UARTClass Serial(UART0, UART0_IRQn, ID_UART0, &rx_buffer1, &tx_buffer1);
ARM GAS  /tmp/cc4jIqrt.s 			page 7


 253:../variants/same70/variant.cpp **** 
 254:../variants/same70/variant.cpp **** void UART0_Handler(void)
 255:../variants/same70/variant.cpp **** {
  53              		.loc 2 255 0
  54              		.cfi_startproc
  55              		@ args = 0, pretend = 0, frame = 0
  56              		@ frame_needed = 0, uses_anonymous_args = 0
  57              		@ link register save eliminated.
 256:../variants/same70/variant.cpp ****   Serial.IrqHandler();
  58              		.loc 2 256 0
  59 0000 0148     		ldr	r0, .L3
  60 0002 FFF7FEBF 		b	_ZN9UARTClass10IrqHandlerEv
  61              	.LVL1:
  62              	.L4:
  63 0006 00BF     		.align	2
  64              	.L3:
  65 0008 00000000 		.word	.LANCHOR0
  66              		.cfi_endproc
  67              	.LFE532:
  68              		.size	UART0_Handler, .-UART0_Handler
  69              		.section	.text.UART1_Handler,"ax",%progbits
  70              		.align	1
  71              		.p2align 2,,3
  72              		.global	UART1_Handler
  73              		.syntax unified
  74              		.thumb
  75              		.thumb_func
  76              		.fpu fpv5-d16
  77              		.type	UART1_Handler, %function
  78              	UART1_Handler:
  79              	.LFB533:
 257:../variants/same70/variant.cpp **** }
 258:../variants/same70/variant.cpp **** 
 259:../variants/same70/variant.cpp **** UARTClass Serial1(UART1, UART1_IRQn, ID_UART1, &rx_buffer2, &tx_buffer2);
 260:../variants/same70/variant.cpp **** 
 261:../variants/same70/variant.cpp **** void UART1_Handler(void)
 262:../variants/same70/variant.cpp **** {
  80              		.loc 2 262 0
  81              		.cfi_startproc
  82              		@ args = 0, pretend = 0, frame = 0
  83              		@ frame_needed = 0, uses_anonymous_args = 0
  84              		@ link register save eliminated.
 263:../variants/same70/variant.cpp ****   Serial1.IrqHandler();
  85              		.loc 2 263 0
  86 0000 0148     		ldr	r0, .L6
  87 0002 FFF7FEBF 		b	_ZN9UARTClass10IrqHandlerEv
  88              	.LVL2:
  89              	.L7:
  90 0006 00BF     		.align	2
  91              	.L6:
  92 0008 00000000 		.word	.LANCHOR1
  93              		.cfi_endproc
  94              	.LFE533:
  95              		.size	UART1_Handler, .-UART1_Handler
  96              		.section	.text._Z12ConfigurePinRK14PinDescription,"ax",%progbits
  97              		.align	1
  98              		.p2align 2,,3
ARM GAS  /tmp/cc4jIqrt.s 			page 8


  99              		.global	_Z12ConfigurePinRK14PinDescription
 100              		.syntax unified
 101              		.thumb
 102              		.thumb_func
 103              		.fpu fpv5-d16
 104              		.type	_Z12ConfigurePinRK14PinDescription, %function
 105              	_Z12ConfigurePinRK14PinDescription:
 106              	.LFB534:
 264:../variants/same70/variant.cpp **** }
 265:../variants/same70/variant.cpp **** 
 266:../variants/same70/variant.cpp **** // ----------------------------------------------------------------------------
 267:../variants/same70/variant.cpp **** 
 268:../variants/same70/variant.cpp **** void ConfigurePin(const PinDescription& pinDesc)
 269:../variants/same70/variant.cpp **** {
 107              		.loc 2 269 0
 108              		.cfi_startproc
 109              		@ args = 0, pretend = 0, frame = 0
 110              		@ frame_needed = 0, uses_anonymous_args = 0
 111              		@ link register save eliminated.
 112              	.LVL3:
 270:../variants/same70/variant.cpp **** 	pio_configure(pinDesc.pPort, pinDesc.ulPinType, pinDesc.ulPin, pinDesc.ulPinConfiguration);
 113              		.loc 2 270 0
 114 0000 0369     		ldr	r3, [r0, #16]
 115 0002 4268     		ldr	r2, [r0, #4]
 116 0004 C168     		ldr	r1, [r0, #12]
 117 0006 0068     		ldr	r0, [r0]
 118              	.LVL4:
 119 0008 FFF7FEBF 		b	pio_configure
 120              	.LVL5:
 121              		.cfi_endproc
 122              	.LFE534:
 123              		.size	_Z12ConfigurePinRK14PinDescription, .-_Z12ConfigurePinRK14PinDescription
 124              		.section	.text.init,"ax",%progbits
 125              		.align	1
 126              		.p2align 2,,3
 127              		.global	init
 128              		.syntax unified
 129              		.thumb
 130              		.thumb_func
 131              		.fpu fpv5-d16
 132              		.type	init, %function
 133              	init:
 134              	.LFB535:
 271:../variants/same70/variant.cpp **** }
 272:../variants/same70/variant.cpp **** 
 273:../variants/same70/variant.cpp **** extern "C" void init( void )
 274:../variants/same70/variant.cpp **** {
 135              		.loc 2 274 0
 136              		.cfi_startproc
 137              		@ args = 0, pretend = 0, frame = 0
 138              		@ frame_needed = 0, uses_anonymous_args = 0
 139              	.LVL6:
 140 0000 10B5     		push	{r4, lr}
 141              		.cfi_def_cfa_offset 8
 142              		.cfi_offset 4, -8
 143              		.cfi_offset 14, -4
 144              	.LBB47:
ARM GAS  /tmp/cc4jIqrt.s 			page 9


 145              	.LBB48:
 270:../variants/same70/variant.cpp **** 	pio_configure(pinDesc.pPort, pinDesc.ulPinType, pinDesc.ulPin, pinDesc.ulPinConfiguration);
 146              		.loc 2 270 0
 147 0002 214C     		ldr	r4, .L11
 148 0004 0023     		movs	r3, #0
 149 0006 4FF4C062 		mov	r2, #1536
 150 000a 4FF00061 		mov	r1, #134217728
 151 000e 2046     		mov	r0, r4
 152 0010 FFF7FEFF 		bl	pio_configure
 153              	.LVL7:
 154              	.LBE48:
 155              	.LBE47:
 275:../variants/same70/variant.cpp **** 	// We no longer disable pullups on all pins here, better to leave them enabled until the port is i
 276:../variants/same70/variant.cpp **** 
 277:../variants/same70/variant.cpp **** 	// Initialize Serial port U(S)ART pins
 278:../variants/same70/variant.cpp **** 	ConfigurePin(g_APinDescription[APINS_UART0]);
 279:../variants/same70/variant.cpp **** 	setPullup(APIN_UART0_RXD, true); 							// Enable pullup for RX0
 156              		.loc 2 279 0
 157 0014 0121     		movs	r1, #1
 158 0016 0520     		movs	r0, #5
 159 0018 FFF7FEFF 		bl	setPullup
 160              	.LVL8:
 280:../variants/same70/variant.cpp **** 
 281:../variants/same70/variant.cpp **** 	// No need to initialize the USB pins on the SAME70 because they are USB by default
 282:../variants/same70/variant.cpp **** 
 283:../variants/same70/variant.cpp **** 	// Initialize Analog Controller
 284:../variants/same70/variant.cpp **** 	AnalogInInit();
 161              		.loc 2 284 0
 162 001c FFF7FEFF 		bl	_Z12AnalogInInitv
 163              	.LVL9:
 285:../variants/same70/variant.cpp **** 
 286:../variants/same70/variant.cpp **** 	// Initialize analogOutput module
 287:../variants/same70/variant.cpp **** 	AnalogOutInit();
 164              		.loc 2 287 0
 165 0020 FFF7FEFF 		bl	_Z13AnalogOutInitv
 166              	.LVL10:
 167              	.LBB49:
 168              	.LBB50:
 270:../variants/same70/variant.cpp **** }
 169              		.loc 2 270 0
 170 0024 0023     		movs	r3, #0
 171 0026 4FF00072 		mov	r2, #33554432
 172 002a 4FF00051 		mov	r1, #536870912
 173 002e 2046     		mov	r0, r4
 174 0030 FFF7FEFF 		bl	pio_configure
 175              	.LVL11:
 176              	.LBE50:
 177              	.LBE49:
 178              	.LBB51:
 179              	.LBB52:
 180 0034 0123     		movs	r3, #1
 181 0036 4FF05C42 		mov	r2, #-603979776
 182 003a 4FF0C051 		mov	r1, #402653184
 183 003e 2046     		mov	r0, r4
 184 0040 FFF7FEFF 		bl	pio_configure
 185              	.LVL12:
 186              	.LBE52:
ARM GAS  /tmp/cc4jIqrt.s 			page 10


 187              	.LBE51:
 188              	.LBB53:
 189              	.LBB54:
 190 0044 0023     		movs	r3, #0
 191 0046 4FF48062 		mov	r2, #1024
 192 004a 4FF06051 		mov	r1, #939524096
 193 004e 0F48     		ldr	r0, .L11+4
 194 0050 FFF7FEFF 		bl	pio_configure
 195              	.LVL13:
 196              	.LBE54:
 197              	.LBE53:
 198              	.LBB55:
 199              	.LBB56:
 200 0054 0123     		movs	r3, #1
 201 0056 4FF48042 		mov	r2, #16384
 202 005a 4FF02051 		mov	r1, #671088640
 203 005e 2046     		mov	r0, r4
 204 0060 FFF7FEFF 		bl	pio_configure
 205              	.LVL14:
 206              	.LBE56:
 207              	.LBE55:
 208              	.LBB57:
 209              	.LBB58:
 210 0064 0023     		movs	r3, #0
 211 0066 40F2FF32 		movw	r2, #1023
 212 006a 4FF00061 		mov	r1, #134217728
 213 006e 0848     		ldr	r0, .L11+8
 214 0070 FFF7FEFF 		bl	pio_configure
 215              	.LVL15:
 216              	.LBE58:
 217              	.LBE57:
 288:../variants/same70/variant.cpp **** 
 289:../variants/same70/variant.cpp **** 	// Initialize HSMCI pins
 290:../variants/same70/variant.cpp **** 	ConfigurePin(g_APinDescription[APIN_HSMCI_CLOCK]);
 291:../variants/same70/variant.cpp **** 	ConfigurePin(g_APinDescription[APIN_HSMCI_DATA]);
 292:../variants/same70/variant.cpp **** 
 293:../variants/same70/variant.cpp **** 	// Initialize Ethernet pins
 294:../variants/same70/variant.cpp **** 	ConfigurePin(g_APinDescription[APIN_GMAC_PHY_RESET]);
 295:../variants/same70/variant.cpp **** 	ConfigurePin(g_APinDescription[APIN_GMAC_PHY_INTERRUPT]);
 296:../variants/same70/variant.cpp **** 	ConfigurePin(g_APinDescription[APINS_GMAC_PHY]);
 297:../variants/same70/variant.cpp **** 
 298:../variants/same70/variant.cpp **** 	// Initialize TRNG
 299:../variants/same70/variant.cpp **** 	pmc_enable_periph_clk(ID_TRNG);
 218              		.loc 2 299 0
 219 0074 3920     		movs	r0, #57
 220 0076 FFF7FEFF 		bl	pmc_enable_periph_clk
 221              	.LVL16:
 300:../variants/same70/variant.cpp **** 	TRNG->TRNG_IDR = TRNG_IDR_DATRDY;							// Disable all interrupts
 222              		.loc 2 300 0
 223 007a 064B     		ldr	r3, .L11+12
 224 007c 0121     		movs	r1, #1
 301:../variants/same70/variant.cpp **** 	TRNG->TRNG_CR = TRNG_CR_KEY(0x524e47) | TRNG_CR_ENABLE;		// Enable TRNG with security key (require
 225              		.loc 2 301 0
 226 007e 064A     		ldr	r2, .L11+16
 300:../variants/same70/variant.cpp **** 	TRNG->TRNG_IDR = TRNG_IDR_DATRDY;							// Disable all interrupts
 227              		.loc 2 300 0
 228 0080 5961     		str	r1, [r3, #20]
ARM GAS  /tmp/cc4jIqrt.s 			page 11


 229              		.loc 2 301 0
 230 0082 1A60     		str	r2, [r3]
 231 0084 10BD     		pop	{r4, pc}
 232              	.L12:
 233 0086 00BF     		.align	2
 234              	.L11:
 235 0088 000E0E40 		.word	1074662912
 236 008c 00120E40 		.word	1074663936
 237 0090 00140E40 		.word	1074664448
 238 0094 00000740 		.word	1074200576
 239 0098 01474E52 		.word	1380861697
 240              		.cfi_endproc
 241              	.LFE535:
 242              		.size	init, .-init
 243              		.section	.text._ZN9UARTClassD0Ev,"axG",%progbits,_ZN9UARTClassD5Ev,comdat
 244              		.align	1
 245              		.p2align 2,,3
 246              		.weak	_ZN9UARTClassD0Ev
 247              		.syntax unified
 248              		.thumb
 249              		.thumb_func
 250              		.fpu fpv5-d16
 251              		.type	_ZN9UARTClassD0Ev, %function
 252              	_ZN9UARTClassD0Ev:
 253              	.LFB548:
 254              		.loc 1 38 0
 255              		.cfi_startproc
 256              		@ args = 0, pretend = 0, frame = 0
 257              		@ frame_needed = 0, uses_anonymous_args = 0
 258              	.LVL17:
 259 0000 10B5     		push	{r4, lr}
 260              		.cfi_def_cfa_offset 8
 261              		.cfi_offset 4, -8
 262              		.cfi_offset 14, -4
 263              		.loc 1 38 0
 264 0002 0446     		mov	r4, r0
 265 0004 2421     		movs	r1, #36
 266 0006 FFF7FEFF 		bl	_ZdlPvj
 267              	.LVL18:
 268 000a 2046     		mov	r0, r4
 269 000c 10BD     		pop	{r4, pc}
 270              		.cfi_endproc
 271              	.LFE548:
 272              		.size	_ZN9UARTClassD0Ev, .-_ZN9UARTClassD0Ev
 273 000e 00BF     		.section	.text.startup._GLOBAL__sub_I_g_APinDescription,"ax",%progbits
 274              		.align	1
 275              		.p2align 2,,3
 276              		.syntax unified
 277              		.thumb
 278              		.thumb_func
 279              		.fpu fpv5-d16
 280              		.type	_GLOBAL__sub_I_g_APinDescription, %function
 281              	_GLOBAL__sub_I_g_APinDescription:
 282              	.LFB549:
 302:../variants/same70/variant.cpp **** }
 283              		.loc 2 302 0
 284              		.cfi_startproc
ARM GAS  /tmp/cc4jIqrt.s 			page 12


 285              		@ args = 0, pretend = 0, frame = 0
 286              		@ frame_needed = 0, uses_anonymous_args = 0
 287              	.LVL19:
 288 0000 2DE9F043 		push	{r4, r5, r6, r7, r8, r9, lr}
 289              		.cfi_def_cfa_offset 28
 290              		.cfi_offset 4, -28
 291              		.cfi_offset 5, -24
 292              		.cfi_offset 6, -20
 293              		.cfi_offset 7, -16
 294              		.cfi_offset 8, -12
 295              		.cfi_offset 9, -8
 296              		.cfi_offset 14, -4
 297              	.LBB61:
 298              	.LBB62:
 247:../variants/same70/variant.cpp **** RingBuffer tx_buffer1;
 299              		.loc 2 247 0
 300 0004 DFF88890 		ldr	r9, .L17+32
 301              	.LBE62:
 302              	.LBE61:
 303              		.loc 2 302 0
 304 0008 83B0     		sub	sp, sp, #12
 305              		.cfi_def_cfa_offset 40
 306              	.LBB65:
 307              	.LBB63:
 248:../variants/same70/variant.cpp **** RingBuffer rx_buffer2;
 308              		.loc 2 248 0
 309 000a 194D     		ldr	r5, .L17
 249:../variants/same70/variant.cpp **** RingBuffer tx_buffer2;
 310              		.loc 2 249 0
 311 000c 194F     		ldr	r7, .L17+4
 247:../variants/same70/variant.cpp **** RingBuffer tx_buffer1;
 312              		.loc 2 247 0
 313 000e 4846     		mov	r0, r9
 314 0010 FFF7FEFF 		bl	_ZN10RingBufferC1Ev
 315              	.LVL20:
 250:../variants/same70/variant.cpp **** 
 316              		.loc 2 250 0
 317 0014 DFF87C80 		ldr	r8, .L17+36
 248:../variants/same70/variant.cpp **** RingBuffer rx_buffer2;
 318              		.loc 2 248 0
 319 0018 2846     		mov	r0, r5
 252:../variants/same70/variant.cpp **** 
 320              		.loc 2 252 0
 321 001a 174C     		ldr	r4, .L17+8
 248:../variants/same70/variant.cpp **** RingBuffer rx_buffer2;
 322              		.loc 2 248 0
 323 001c FFF7FEFF 		bl	_ZN10RingBufferC1Ev
 324              	.LVL21:
 249:../variants/same70/variant.cpp **** RingBuffer tx_buffer2;
 325              		.loc 2 249 0
 326 0020 3846     		mov	r0, r7
 327 0022 FFF7FEFF 		bl	_ZN10RingBufferC1Ev
 328              	.LVL22:
 250:../variants/same70/variant.cpp **** 
 329              		.loc 2 250 0
 330 0026 4046     		mov	r0, r8
 331 0028 FFF7FEFF 		bl	_ZN10RingBufferC1Ev
ARM GAS  /tmp/cc4jIqrt.s 			page 13


 332              	.LVL23:
 252:../variants/same70/variant.cpp **** 
 333              		.loc 2 252 0
 334 002c 0723     		movs	r3, #7
 335 002e 134E     		ldr	r6, .L17+12
 336 0030 2046     		mov	r0, r4
 337 0032 0195     		str	r5, [sp, #4]
 338 0034 1A46     		mov	r2, r3
 339 0036 124D     		ldr	r5, .L17+16
 340 0038 CDF80090 		str	r9, [sp]
 341 003c 1149     		ldr	r1, .L17+20
 342 003e FFF7FEFF 		bl	_ZN9UARTClassC1EP4Uart4IRQnmP10RingBufferS4_
 343              	.LVL24:
 344 0042 3246     		mov	r2, r6
 345 0044 2946     		mov	r1, r5
 346 0046 2046     		mov	r0, r4
 347 0048 FFF7FEFF 		bl	__aeabi_atexit
 348              	.LVL25:
 259:../variants/same70/variant.cpp **** 
 349              		.loc 2 259 0
 350 004c 0E4C     		ldr	r4, .L17+24
 351 004e 0823     		movs	r3, #8
 352 0050 CDF80480 		str	r8, [sp, #4]
 353 0054 2046     		mov	r0, r4
 354 0056 0097     		str	r7, [sp]
 355 0058 1A46     		mov	r2, r3
 356 005a 0C49     		ldr	r1, .L17+28
 357 005c FFF7FEFF 		bl	_ZN9UARTClassC1EP4Uart4IRQnmP10RingBufferS4_
 358              	.LVL26:
 359 0060 3246     		mov	r2, r6
 360 0062 2946     		mov	r1, r5
 361 0064 2046     		mov	r0, r4
 362              	.LBE63:
 363              	.LBE65:
 364              		.loc 2 302 0
 365 0066 03B0     		add	sp, sp, #12
 366              		.cfi_def_cfa_offset 28
 367              		@ sp needed
 368 0068 BDE8F043 		pop	{r4, r5, r6, r7, r8, r9, lr}
 369              		.cfi_restore 14
 370              		.cfi_restore 9
 371              		.cfi_restore 8
 372              		.cfi_restore 7
 373              		.cfi_restore 6
 374              		.cfi_restore 5
 375              		.cfi_restore 4
 376              		.cfi_def_cfa_offset 0
 377              	.LBB66:
 378              	.LBB64:
 259:../variants/same70/variant.cpp **** 
 379              		.loc 2 259 0
 380 006c FFF7FEBF 		b	__aeabi_atexit
 381              	.LVL27:
 382              	.L18:
 383              		.align	2
 384              	.L17:
 385 0070 00000000 		.word	.LANCHOR3
ARM GAS  /tmp/cc4jIqrt.s 			page 14


 386 0074 00000000 		.word	.LANCHOR4
 387 0078 00000000 		.word	.LANCHOR0
 388 007c 00000000 		.word	__dso_handle
 389 0080 00000000 		.word	_ZN9UARTClassD1Ev
 390 0084 00080E40 		.word	1074661376
 391 0088 00000000 		.word	.LANCHOR1
 392 008c 000A0E40 		.word	1074661888
 393 0090 00000000 		.word	.LANCHOR2
 394 0094 00000000 		.word	.LANCHOR5
 395              	.LBE64:
 396              	.LBE66:
 397              		.cfi_endproc
 398              	.LFE549:
 399              		.size	_GLOBAL__sub_I_g_APinDescription, .-_GLOBAL__sub_I_g_APinDescription
 400              		.section	.init_array,"aw",%init_array
 401              		.align	2
 402 0000 00000000 		.word	_GLOBAL__sub_I_g_APinDescription(target1)
 403              		.global	Serial1
 404              		.global	Serial
 405              		.global	tx_buffer2
 406              		.global	rx_buffer2
 407              		.global	tx_buffer1
 408              		.global	rx_buffer1
 409              		.global	g_APinDescription
 410              		.section	.bss.Serial,"aw",%nobits
 411              		.align	2
 412              		.set	.LANCHOR0,. + 0
 413              		.type	Serial, %object
 414              		.size	Serial, 36
 415              	Serial:
 416 0000 00000000 		.space	36
 416      00000000 
 416      00000000 
 416      00000000 
 416      00000000 
 417              		.section	.bss.Serial1,"aw",%nobits
 418              		.align	2
 419              		.set	.LANCHOR1,. + 0
 420              		.type	Serial1, %object
 421              		.size	Serial1, 36
 422              	Serial1:
 423 0000 00000000 		.space	36
 423      00000000 
 423      00000000 
 423      00000000 
 423      00000000 
 424              		.section	.bss._ZL28cpu_irq_prev_interrupt_state,"aw",%nobits
 425              		.type	_ZL28cpu_irq_prev_interrupt_state, %object
 426              		.size	_ZL28cpu_irq_prev_interrupt_state, 1
 427              	_ZL28cpu_irq_prev_interrupt_state:
 428 0000 00       		.space	1
 429              		.section	.bss._ZL32cpu_irq_critical_section_counter,"aw",%nobits
 430              		.align	2
 431              		.type	_ZL32cpu_irq_critical_section_counter, %object
 432              		.size	_ZL32cpu_irq_critical_section_counter, 4
 433              	_ZL32cpu_irq_critical_section_counter:
 434 0000 00000000 		.space	4
ARM GAS  /tmp/cc4jIqrt.s 			page 15


 435              		.section	.bss.rx_buffer1,"aw",%nobits
 436              		.align	2
 437              		.set	.LANCHOR2,. + 0
 438              		.type	rx_buffer1, %object
 439              		.size	rx_buffer1, 520
 440              	rx_buffer1:
 441 0000 00000000 		.space	520
 441      00000000 
 441      00000000 
 441      00000000 
 441      00000000 
 442              		.section	.bss.rx_buffer2,"aw",%nobits
 443              		.align	2
 444              		.set	.LANCHOR4,. + 0
 445              		.type	rx_buffer2, %object
 446              		.size	rx_buffer2, 520
 447              	rx_buffer2:
 448 0000 00000000 		.space	520
 448      00000000 
 448      00000000 
 448      00000000 
 448      00000000 
 449              		.section	.bss.tx_buffer1,"aw",%nobits
 450              		.align	2
 451              		.set	.LANCHOR3,. + 0
 452              		.type	tx_buffer1, %object
 453              		.size	tx_buffer1, 520
 454              	tx_buffer1:
 455 0000 00000000 		.space	520
 455      00000000 
 455      00000000 
 455      00000000 
 455      00000000 
 456              		.section	.bss.tx_buffer2,"aw",%nobits
 457              		.align	2
 458              		.set	.LANCHOR5,. + 0
 459              		.type	tx_buffer2, %object
 460              		.size	tx_buffer2, 520
 461              	tx_buffer2:
 462 0000 00000000 		.space	520
 462      00000000 
 462      00000000 
 462      00000000 
 462      00000000 
 463              		.section	.rodata.g_APinDescription,"a",%progbits
 464              		.align	2
 465              		.type	g_APinDescription, %object
 466              		.size	g_APinDescription, 1624
 467              	g_APinDescription:
 468 0000 000E0E40 		.word	1074662912
 469 0004 01000000 		.word	1
 470 0008 0A000000 		.word	10
 471 000c 00000030 		.word	805306368
 472 0010 00000000 		.word	0
 473 0014 04000000 		.word	4
 474 0018 FF       		.byte	-1
 475 0019 FF       		.byte	-1
ARM GAS  /tmp/cc4jIqrt.s 			page 16


 476 001a FF       		.byte	-1
 477 001b 00       		.space	1
 478 001c 000E0E40 		.word	1074662912
 479 0020 02000000 		.word	2
 480 0024 0A000000 		.word	10
 481 0028 00000030 		.word	805306368
 482 002c 00000000 		.word	0
 483 0030 04000000 		.word	4
 484 0034 FF       		.byte	-1
 485 0035 FF       		.byte	-1
 486 0036 FF       		.byte	-1
 487 0037 00       		.space	1
 488 0038 000E0E40 		.word	1074662912
 489 003c 04000000 		.word	4
 490 0040 0A000000 		.word	10
 491 0044 00000030 		.word	805306368
 492 0048 00000000 		.word	0
 493 004c 04000000 		.word	4
 494 0050 FF       		.byte	-1
 495 0051 FF       		.byte	-1
 496 0052 FF       		.byte	-1
 497 0053 00       		.space	1
 498 0054 000E0E40 		.word	1074662912
 499 0058 20000000 		.word	32
 500 005c 0A000000 		.word	10
 501 0060 00000018 		.word	402653184
 502 0064 01000000 		.word	1
 503 0068 04000000 		.word	4
 504 006c FF       		.byte	-1
 505 006d FF       		.byte	-1
 506 006e FF       		.byte	-1
 507 006f 00       		.space	1
 508 0070 000E0E40 		.word	1074662912
 509 0074 40000000 		.word	64
 510 0078 0A000000 		.word	10
 511 007c 00000018 		.word	402653184
 512 0080 00000000 		.word	0
 513 0084 04000000 		.word	4
 514 0088 FF       		.byte	-1
 515 0089 FF       		.byte	-1
 516 008a FF       		.byte	-1
 517 008b 00       		.space	1
 518 008c 000E0E40 		.word	1074662912
 519 0090 00020000 		.word	512
 520 0094 0A000000 		.word	10
 521 0098 00000008 		.word	134217728
 522 009c 01000000 		.word	1
 523 00a0 04000000 		.word	4
 524 00a4 FF       		.byte	-1
 525 00a5 FF       		.byte	-1
 526 00a6 FF       		.byte	-1
 527 00a7 00       		.space	1
 528 00a8 000E0E40 		.word	1074662912
 529 00ac 00040000 		.word	1024
 530 00b0 0A000000 		.word	10
 531 00b4 00000008 		.word	134217728
 532 00b8 00000000 		.word	0
ARM GAS  /tmp/cc4jIqrt.s 			page 17


 533 00bc 04000000 		.word	4
 534 00c0 FF       		.byte	-1
 535 00c1 FF       		.byte	-1
 536 00c2 FF       		.byte	-1
 537 00c3 00       		.space	1
 538 00c4 000E0E40 		.word	1074662912
 539 00c8 00080000 		.word	2048
 540 00cc 0A000000 		.word	10
 541 00d0 00000028 		.word	671088640
 542 00d4 00000000 		.word	0
 543 00d8 04000000 		.word	4
 544 00dc FF       		.byte	-1
 545 00dd FF       		.byte	-1
 546 00de FF       		.byte	-1
 547 00df 00       		.space	1
 548 00e0 000E0E40 		.word	1074662912
 549 00e4 00100000 		.word	4096
 550 00e8 0A000000 		.word	10
 551 00ec 00000030 		.word	805306368
 552 00f0 00000000 		.word	0
 553 00f4 04000000 		.word	4
 554 00f8 FF       		.byte	-1
 555 00f9 FF       		.byte	-1
 556 00fa FF       		.byte	-1
 557 00fb 00       		.space	1
 558 00fc 000E0E40 		.word	1074662912
 559 0100 00200000 		.word	8192
 560 0104 0A000000 		.word	10
 561 0108 00000030 		.word	805306368
 562 010c 00000000 		.word	0
 563 0110 04000000 		.word	4
 564 0114 FF       		.byte	-1
 565 0115 FF       		.byte	-1
 566 0116 FF       		.byte	-1
 567 0117 00       		.space	1
 568 0118 000E0E40 		.word	1074662912
 569 011c 00000200 		.word	131072
 570 0120 0A000000 		.word	10
 571 0124 00000028 		.word	671088640
 572 0128 00000000 		.word	0
 573 012c 02000000 		.word	2
 574 0130 06       		.byte	6
 575 0131 FF       		.byte	-1
 576 0132 FF       		.byte	-1
 577 0133 00       		.space	1
 578 0134 000E0E40 		.word	1074662912
 579 0138 00000400 		.word	262144
 580 013c 0A000000 		.word	10
 581 0140 00000028 		.word	671088640
 582 0144 00000000 		.word	0
 583 0148 02000000 		.word	2
 584 014c 07       		.byte	7
 585 014d FF       		.byte	-1
 586 014e FF       		.byte	-1
 587 014f 00       		.space	1
 588 0150 000E0E40 		.word	1074662912
 589 0154 00000800 		.word	524288
ARM GAS  /tmp/cc4jIqrt.s 			page 18


 590 0158 0A000000 		.word	10
 591 015c 00000028 		.word	671088640
 592 0160 00000000 		.word	0
 593 0164 04000000 		.word	4
 594 0168 FF       		.byte	-1
 595 0169 FF       		.byte	-1
 596 016a FF       		.byte	-1
 597 016b 00       		.space	1
 598 016c 000E0E40 		.word	1074662912
 599 0170 00002000 		.word	2097152
 600 0174 0A000000 		.word	10
 601 0178 00000028 		.word	671088640
 602 017c 00000000 		.word	0
 603 0180 02000000 		.word	2
 604 0184 01       		.byte	1
 605 0185 FF       		.byte	-1
 606 0186 FF       		.byte	-1
 607 0187 00       		.space	1
 608 0188 000E0E40 		.word	1074662912
 609 018c 00004000 		.word	4194304
 610 0190 0A000000 		.word	10
 611 0194 00000030 		.word	805306368
 612 0198 00000000 		.word	0
 613 019c 04000000 		.word	4
 614 01a0 FF       		.byte	-1
 615 01a1 FF       		.byte	-1
 616 01a2 FF       		.byte	-1
 617 01a3 00       		.space	1
 618 01a4 000E0E40 		.word	1074662912
 619 01a8 00008000 		.word	8388608
 620 01ac 0A000000 		.word	10
 621 01b0 00000030 		.word	805306368
 622 01b4 00000000 		.word	0
 623 01b8 04000000 		.word	4
 624 01bc FF       		.byte	-1
 625 01bd FF       		.byte	-1
 626 01be FF       		.byte	-1
 627 01bf 00       		.space	1
 628 01c0 000E0E40 		.word	1074662912
 629 01c4 00000001 		.word	16777216
 630 01c8 0A000000 		.word	10
 631 01cc 00000030 		.word	805306368
 632 01d0 00000000 		.word	0
 633 01d4 04000000 		.word	4
 634 01d8 FF       		.byte	-1
 635 01d9 FF       		.byte	-1
 636 01da FF       		.byte	-1
 637 01db 00       		.space	1
 638 01dc 000E0E40 		.word	1074662912
 639 01e0 00000020 		.word	536870912
 640 01e4 0A000000 		.word	10
 641 01e8 00000030 		.word	805306368
 642 01ec 00000000 		.word	0
 643 01f0 04000000 		.word	4
 644 01f4 FF       		.byte	-1
 645 01f5 FF       		.byte	-1
 646 01f6 FF       		.byte	-1
ARM GAS  /tmp/cc4jIqrt.s 			page 19


 647 01f7 00       		.space	1
 648 01f8 00100E40 		.word	1074663424
 649 01fc 01000000 		.word	1
 650 0200 0B000000 		.word	11
 651 0204 00000020 		.word	536870912
 652 0208 00000000 		.word	0
 653 020c 04000000 		.word	4
 654 0210 FF       		.byte	-1
 655 0211 FF       		.byte	-1
 656 0212 FF       		.byte	-1
 657 0213 00       		.space	1
 658 0214 00100E40 		.word	1074663424
 659 0218 02000000 		.word	2
 660 021c 0B000000 		.word	11
 661 0220 00000030 		.word	805306368
 662 0224 00000000 		.word	0
 663 0228 04000000 		.word	4
 664 022c FF       		.byte	-1
 665 022d FF       		.byte	-1
 666 022e FF       		.byte	-1
 667 022f 00       		.space	1
 668 0230 00100E40 		.word	1074663424
 669 0234 04000000 		.word	4
 670 0238 0B000000 		.word	11
 671 023c 00000020 		.word	536870912
 672 0240 00000000 		.word	0
 673 0244 04000000 		.word	4
 674 0248 FF       		.byte	-1
 675 0249 FF       		.byte	-1
 676 024a FF       		.byte	-1
 677 024b 00       		.space	1
 678 024c 00100E40 		.word	1074663424
 679 0250 08000000 		.word	8
 680 0254 0B000000 		.word	11
 681 0258 00000030 		.word	805306368
 682 025c 00000000 		.word	0
 683 0260 04000000 		.word	4
 684 0264 FF       		.byte	-1
 685 0265 FF       		.byte	-1
 686 0266 FF       		.byte	-1
 687 0267 00       		.space	1
 688 0268 00100E40 		.word	1074663424
 689 026c 10000000 		.word	16
 690 0270 0B000000 		.word	11
 691 0274 00000030 		.word	805306368
 692 0278 00000000 		.word	0
 693 027c 04000000 		.word	4
 694 0280 FF       		.byte	-1
 695 0281 FF       		.byte	-1
 696 0282 FF       		.byte	-1
 697 0283 00       		.space	1
 698 0284 00100E40 		.word	1074663424
 699 0288 20000000 		.word	32
 700 028c 0B000000 		.word	11
 701 0290 00000030 		.word	805306368
 702 0294 00000000 		.word	0
 703 0298 04000000 		.word	4
ARM GAS  /tmp/cc4jIqrt.s 			page 20


 704 029c FF       		.byte	-1
 705 029d FF       		.byte	-1
 706 029e FF       		.byte	-1
 707 029f 00       		.space	1
 708 02a0 00100E40 		.word	1074663424
 709 02a4 40000000 		.word	64
 710 02a8 0B000000 		.word	11
 711 02ac 00000030 		.word	805306368
 712 02b0 00000000 		.word	0
 713 02b4 04000000 		.word	4
 714 02b8 FF       		.byte	-1
 715 02b9 FF       		.byte	-1
 716 02ba FF       		.byte	-1
 717 02bb 00       		.space	1
 718 02bc 00100E40 		.word	1074663424
 719 02c0 80000000 		.word	128
 720 02c4 0B000000 		.word	11
 721 02c8 00000030 		.word	805306368
 722 02cc 00000000 		.word	0
 723 02d0 04000000 		.word	4
 724 02d4 FF       		.byte	-1
 725 02d5 FF       		.byte	-1
 726 02d6 FF       		.byte	-1
 727 02d7 00       		.space	1
 728 02d8 00100E40 		.word	1074663424
 729 02dc 00200000 		.word	8192
 730 02e0 0B000000 		.word	11
 731 02e4 00000028 		.word	671088640
 732 02e8 00000000 		.word	0
 733 02ec 04000000 		.word	4
 734 02f0 FF       		.byte	-1
 735 02f1 FF       		.byte	-1
 736 02f2 FF       		.byte	-1
 737 02f3 00       		.space	1
 738 02f4 00120E40 		.word	1074663936
 739 02f8 00010000 		.word	256
 740 02fc 0C000000 		.word	12
 741 0300 00000030 		.word	805306368
 742 0304 00000000 		.word	0
 743 0308 04000000 		.word	4
 744 030c FF       		.byte	-1
 745 030d FF       		.byte	-1
 746 030e FF       		.byte	-1
 747 030f 00       		.space	1
 748 0310 00120E40 		.word	1074663936
 749 0314 00020000 		.word	512
 750 0318 0C000000 		.word	12
 751 031c 00000030 		.word	805306368
 752 0320 00000000 		.word	0
 753 0324 04000000 		.word	4
 754 0328 FF       		.byte	-1
 755 0329 FF       		.byte	-1
 756 032a FF       		.byte	-1
 757 032b 00       		.space	1
 758 032c 00120E40 		.word	1074663936
 759 0330 00100000 		.word	4096
 760 0334 0C000000 		.word	12
ARM GAS  /tmp/cc4jIqrt.s 			page 21


 761 0338 00000030 		.word	805306368
 762 033c 00000000 		.word	0
 763 0340 04000000 		.word	4
 764 0344 FF       		.byte	-1
 765 0345 FF       		.byte	-1
 766 0346 FF       		.byte	-1
 767 0347 00       		.space	1
 768 0348 00120E40 		.word	1074663936
 769 034c 00200000 		.word	8192
 770 0350 0C000000 		.word	12
 771 0354 00000030 		.word	805306368
 772 0358 00000000 		.word	0
 773 035c 04000000 		.word	4
 774 0360 FF       		.byte	-1
 775 0361 FF       		.byte	-1
 776 0362 FF       		.byte	-1
 777 0363 00       		.space	1
 778 0364 00120E40 		.word	1074663936
 779 0368 00400000 		.word	16384
 780 036c 0C000000 		.word	12
 781 0370 00000030 		.word	805306368
 782 0374 00000000 		.word	0
 783 0378 04000000 		.word	4
 784 037c FF       		.byte	-1
 785 037d FF       		.byte	-1
 786 037e FF       		.byte	-1
 787 037f 00       		.space	1
 788 0380 00120E40 		.word	1074663936
 789 0384 00000100 		.word	65536
 790 0388 0C000000 		.word	12
 791 038c 00000030 		.word	805306368
 792 0390 00000000 		.word	0
 793 0394 04000000 		.word	4
 794 0398 FF       		.byte	-1
 795 0399 FF       		.byte	-1
 796 039a FF       		.byte	-1
 797 039b 00       		.space	1
 798 039c 00120E40 		.word	1074663936
 799 03a0 00000200 		.word	131072
 800 03a4 0C000000 		.word	12
 801 03a8 00000030 		.word	805306368
 802 03ac 00000000 		.word	0
 803 03b0 04000000 		.word	4
 804 03b4 FF       		.byte	-1
 805 03b5 FF       		.byte	-1
 806 03b6 FF       		.byte	-1
 807 03b7 00       		.space	1
 808 03b8 00120E40 		.word	1074663936
 809 03bc 00000800 		.word	524288
 810 03c0 0C000000 		.word	12
 811 03c4 00000030 		.word	805306368
 812 03c8 00000000 		.word	0
 813 03cc 04000000 		.word	4
 814 03d0 FF       		.byte	-1
 815 03d1 FF       		.byte	-1
 816 03d2 FF       		.byte	-1
 817 03d3 00       		.space	1
ARM GAS  /tmp/cc4jIqrt.s 			page 22


 818 03d4 00120E40 		.word	1074663936
 819 03d8 00000040 		.word	1073741824
 820 03dc 0C000000 		.word	12
 821 03e0 00000030 		.word	805306368
 822 03e4 00000000 		.word	0
 823 03e8 04000000 		.word	4
 824 03ec FF       		.byte	-1
 825 03ed FF       		.byte	-1
 826 03ee FF       		.byte	-1
 827 03ef 00       		.space	1
 828 03f0 00120E40 		.word	1074663936
 829 03f4 00000080 		.word	-2147483648
 830 03f8 0C000000 		.word	12
 831 03fc 00000030 		.word	805306368
 832 0400 00000000 		.word	0
 833 0404 04000000 		.word	4
 834 0408 FF       		.byte	-1
 835 0409 FF       		.byte	-1
 836 040a FF       		.byte	-1
 837 040b 00       		.space	1
 838 040c 00140E40 		.word	1074664448
 839 0410 00080000 		.word	2048
 840 0414 10000000 		.word	16
 841 0418 00000030 		.word	805306368
 842 041c 00000000 		.word	0
 843 0420 04000000 		.word	4
 844 0424 FF       		.byte	-1
 845 0425 FF       		.byte	-1
 846 0426 FF       		.byte	-1
 847 0427 00       		.space	1
 848 0428 00140E40 		.word	1074664448
 849 042c 00100000 		.word	4096
 850 0430 10000000 		.word	16
 851 0434 00000030 		.word	805306368
 852 0438 00000000 		.word	0
 853 043c 04000000 		.word	4
 854 0440 FF       		.byte	-1
 855 0441 FF       		.byte	-1
 856 0442 FF       		.byte	-1
 857 0443 00       		.space	1
 858 0444 00140E40 		.word	1074664448
 859 0448 00000400 		.word	262144
 860 044c 10000000 		.word	16
 861 0450 00000030 		.word	805306368
 862 0454 00000000 		.word	0
 863 0458 04000000 		.word	4
 864 045c FF       		.byte	-1
 865 045d FF       		.byte	-1
 866 045e FF       		.byte	-1
 867 045f 00       		.space	1
 868 0460 00140E40 		.word	1074664448
 869 0464 00000800 		.word	524288
 870 0468 10000000 		.word	16
 871 046c 00000030 		.word	805306368
 872 0470 00000000 		.word	0
 873 0474 04000000 		.word	4
 874 0478 FF       		.byte	-1
ARM GAS  /tmp/cc4jIqrt.s 			page 23


 875 0479 FF       		.byte	-1
 876 047a FF       		.byte	-1
 877 047b 00       		.space	1
 878 047c 00140E40 		.word	1074664448
 879 0480 00001000 		.word	1048576
 880 0484 10000000 		.word	16
 881 0488 00000010 		.word	268435456
 882 048c 00000000 		.word	0
 883 0490 04000000 		.word	4
 884 0494 FF       		.byte	-1
 885 0495 FF       		.byte	-1
 886 0496 FF       		.byte	-1
 887 0497 00       		.space	1
 888 0498 00140E40 		.word	1074664448
 889 049c 00002000 		.word	2097152
 890 04a0 10000000 		.word	16
 891 04a4 00000010 		.word	268435456
 892 04a8 00000000 		.word	0
 893 04ac 04000000 		.word	4
 894 04b0 FF       		.byte	-1
 895 04b1 FF       		.byte	-1
 896 04b2 FF       		.byte	-1
 897 04b3 00       		.space	1
 898 04b4 00140E40 		.word	1074664448
 899 04b8 00004000 		.word	4194304
 900 04bc 10000000 		.word	16
 901 04c0 00000010 		.word	268435456
 902 04c4 00000000 		.word	0
 903 04c8 04000000 		.word	4
 904 04cc FF       		.byte	-1
 905 04cd FF       		.byte	-1
 906 04ce FF       		.byte	-1
 907 04cf 00       		.space	1
 908 04d0 00140E40 		.word	1074664448
 909 04d4 00000001 		.word	16777216
 910 04d8 10000000 		.word	16
 911 04dc 00000030 		.word	805306368
 912 04e0 00000000 		.word	0
 913 04e4 04000000 		.word	4
 914 04e8 FF       		.byte	-1
 915 04e9 FF       		.byte	-1
 916 04ea FF       		.byte	-1
 917 04eb 00       		.space	1
 918 04ec 00140E40 		.word	1074664448
 919 04f0 00000002 		.word	33554432
 920 04f4 10000000 		.word	16
 921 04f8 00000030 		.word	805306368
 922 04fc 00000000 		.word	0
 923 0500 04000000 		.word	4
 924 0504 FF       		.byte	-1
 925 0505 FF       		.byte	-1
 926 0506 FF       		.byte	-1
 927 0507 00       		.space	1
 928 0508 00140E40 		.word	1074664448
 929 050c 00000004 		.word	67108864
 930 0510 10000000 		.word	16
 931 0514 00000030 		.word	805306368
ARM GAS  /tmp/cc4jIqrt.s 			page 24


 932 0518 00000000 		.word	0
 933 051c 04000000 		.word	4
 934 0520 FF       		.byte	-1
 935 0521 FF       		.byte	-1
 936 0522 FF       		.byte	-1
 937 0523 00       		.space	1
 938 0524 00140E40 		.word	1074664448
 939 0528 00000008 		.word	134217728
 940 052c 10000000 		.word	16
 941 0530 00000030 		.word	805306368
 942 0534 00000000 		.word	0
 943 0538 04000000 		.word	4
 944 053c FF       		.byte	-1
 945 053d FF       		.byte	-1
 946 053e FF       		.byte	-1
 947 053f 00       		.space	1
 948 0540 00140E40 		.word	1074664448
 949 0544 00000010 		.word	268435456
 950 0548 10000000 		.word	16
 951 054c 00000030 		.word	805306368
 952 0550 00000000 		.word	0
 953 0554 04000000 		.word	4
 954 0558 FF       		.byte	-1
 955 0559 FF       		.byte	-1
 956 055a FF       		.byte	-1
 957 055b 00       		.space	1
 958 055c 00140E40 		.word	1074664448
 959 0560 00000040 		.word	1073741824
 960 0564 10000000 		.word	16
 961 0568 00000030 		.word	805306368
 962 056c 00000000 		.word	0
 963 0570 04000000 		.word	4
 964 0574 FF       		.byte	-1
 965 0575 FF       		.byte	-1
 966 0576 FF       		.byte	-1
 967 0577 00       		.space	1
 968 0578 00140E40 		.word	1074664448
 969 057c 00000080 		.word	-2147483648
 970 0580 10000000 		.word	16
 971 0584 00000030 		.word	805306368
 972 0588 00000000 		.word	0
 973 058c 04000000 		.word	4
 974 0590 FF       		.byte	-1
 975 0591 FF       		.byte	-1
 976 0592 FF       		.byte	-1
 977 0593 00       		.space	1
 978 0594 000E0E40 		.word	1074662912
 979 0598 00000002 		.word	33554432
 980 059c 0A000000 		.word	10
 981 05a0 00000020 		.word	536870912
 982 05a4 00000000 		.word	0
 983 05a8 04000000 		.word	4
 984 05ac FF       		.byte	-1
 985 05ad FF       		.byte	-1
 986 05ae FF       		.byte	-1
 987 05af 00       		.space	1
 988 05b0 000E0E40 		.word	1074662912
ARM GAS  /tmp/cc4jIqrt.s 			page 25


 989 05b4 000000DC 		.word	-603979776
 990 05b8 0A000000 		.word	10
 991 05bc 00000018 		.word	402653184
 992 05c0 01000000 		.word	1
 993 05c4 04000000 		.word	4
 994 05c8 FF       		.byte	-1
 995 05c9 FF       		.byte	-1
 996 05ca FF       		.byte	-1
 997 05cb 00       		.space	1
 998 05cc 000E0E40 		.word	1074662912
 999 05d0 00400000 		.word	16384
 1000 05d4 0A000000 		.word	10
 1001 05d8 00000028 		.word	671088640
 1002 05dc 01000000 		.word	1
 1003 05e0 04000000 		.word	4
 1004 05e4 FF       		.byte	-1
 1005 05e5 FF       		.byte	-1
 1006 05e6 FF       		.byte	-1
 1007 05e7 00       		.space	1
 1008 05e8 00120E40 		.word	1074663936
 1009 05ec 00040000 		.word	1024
 1010 05f0 0C000000 		.word	12
 1011 05f4 00000038 		.word	939524096
 1012 05f8 00000000 		.word	0
 1013 05fc 04000000 		.word	4
 1014 0600 FF       		.byte	-1
 1015 0601 FF       		.byte	-1
 1016 0602 FF       		.byte	-1
 1017 0603 00       		.space	1
 1018 0604 00140E40 		.word	1074664448
 1019 0608 FF030000 		.word	1023
 1020 060c 10000000 		.word	16
 1021 0610 00000008 		.word	134217728
 1022 0614 00000000 		.word	0
 1023 0618 04000000 		.word	4
 1024 061c FF       		.byte	-1
 1025 061d FF       		.byte	-1
 1026 061e FF       		.byte	-1
 1027 061f 00       		.space	1
 1028 0620 000E0E40 		.word	1074662912
 1029 0624 00060000 		.word	1536
 1030 0628 0A000000 		.word	10
 1031 062c 00000008 		.word	134217728
 1032 0630 00000000 		.word	0
 1033 0634 05000000 		.word	5
 1034 0638 FF       		.byte	-1
 1035 0639 FF       		.byte	-1
 1036 063a FF       		.byte	-1
 1037 063b 00       		.space	1
 1038 063c 000E0E40 		.word	1074662912
 1039 0640 60000000 		.word	96
 1040 0644 0A000000 		.word	10
 1041 0648 00000018 		.word	402653184
 1042 064c 00000000 		.word	0
 1043 0650 05000000 		.word	5
 1044 0654 FF       		.byte	-1
 1045 0655 FF       		.byte	-1
ARM GAS  /tmp/cc4jIqrt.s 			page 26


 1046 0656 FF       		.byte	-1
 1047 0657 00       		.space	1
 1048              		.text
 1049              	.Letext0:
 1050              		.file 3 "/usr/lib/gcc/arm-none-eabi/6.3.1/include/stddef.h"
 1051              		.file 4 "/usr/include/newlib/machine/_default_types.h"
 1052              		.file 5 "/usr/include/newlib/sys/_stdint.h"
 1053              		.file 6 "/usr/include/newlib/stdint.h"
 1054              		.file 7 "/home/torbjorn/eclipse-workspace/CoreNG/asf/thirdparty/CMSIS/Include/core_cm7.h"
 1055              		.file 8 "/home/torbjorn/eclipse-workspace/CoreNG/variants/same70/system_same70.h"
 1056              		.file 9 "/home/torbjorn/eclipse-workspace/CoreNG/asf/sam/utils/cmsis/same70/include/component/pio.
 1057              		.file 10 "/home/torbjorn/eclipse-workspace/CoreNG/asf/sam/utils/cmsis/same70/include/component/trn
 1058              		.file 11 "/home/torbjorn/eclipse-workspace/CoreNG/asf/sam/utils/cmsis/same70/include/component/uar
 1059              		.file 12 "/usr/include/newlib/sys/lock.h"
 1060              		.file 13 "/usr/include/newlib/sys/_types.h"
 1061              		.file 14 "/usr/include/newlib/sys/reent.h"
 1062              		.file 15 "/usr/include/newlib/c++/6.3.1/cstdlib"
 1063              		.file 16 "/usr/include/newlib/c++/6.3.1/cmath"
 1064              		.file 17 "/usr/include/newlib/c++/6.3.1/cstdint"
 1065              		.file 18 "/usr/include/newlib/c++/6.3.1/cstddef"
 1066              		.file 19 "/usr/include/newlib/c++/6.3.1/arm-none-eabi/thumb/v7e-m/fpv5/hard/bits/c++config.h"
 1067              		.file 20 "/usr/include/newlib/stdlib.h"
 1068              		.file 21 "/usr/include/newlib/c++/6.3.1/stdlib.h"
 1069              		.file 22 "/home/torbjorn/eclipse-workspace/CoreNG/asf/common/utils/interrupt/interrupt_sam_nvic.h"
 1070              		.file 23 "/home/torbjorn/eclipse-workspace/CoreNG/asf/sam/utils/compiler.h"
 1071              		.file 24 "/usr/include/newlib/math.h"
 1072              		.file 25 "/home/torbjorn/eclipse-workspace/CoreNG/asf/sam/utils/cmsis/same70/include/same70q21.h"
 1073              		.file 26 "/usr/include/newlib/c++/6.3.1/math.h"
 1074              		.file 27 "/home/torbjorn/eclipse-workspace/CoreNG/asf/sam/drivers/pio/pio.h"
 1075              		.file 28 "/home/torbjorn/eclipse-workspace/CoreNG/cores/arduino/Core.h"
 1076              		.file 29 "/usr/include/newlib/ctype.h"
 1077              		.file 30 "/home/torbjorn/eclipse-workspace/CoreNG/cores/arduino/HardwareSerial.h"
 1078              		.file 31 "/home/torbjorn/eclipse-workspace/CoreNG/cores/arduino/USB/USBSerial.h"
 1079              		.file 32 "/home/torbjorn/eclipse-workspace/CoreNG/cores/arduino/RingBuffer.h"
 1080              		.file 33 "/home/torbjorn/eclipse-workspace/CoreNG/cores/arduino/Print.h"
 1081              		.file 34 "/usr/include/newlib/time.h"
 1082              		.file 35 "../variants/same70/variant.h"
 1083              		.file 36 "/home/torbjorn/eclipse-workspace/CoreNG/asf/common/services/usb/usb_protocol.h"
 1084              		.file 37 "/home/torbjorn/eclipse-workspace/CoreNG/asf/common/services/usb/udc/udi.h"
 1085              		.file 38 "/home/torbjorn/eclipse-workspace/CoreNG/asf/common/services/usb/udc/udc_desc.h"
 1086              		.file 39 "/home/torbjorn/eclipse-workspace/CoreNG/asf/common/services/usb/udc/udd.h"
 1087              		.file 40 "/home/torbjorn/eclipse-workspace/CoreNG/cores/arduino/Stream.h"
 1088              		.file 41 "/home/torbjorn/eclipse-workspace/CoreNG/cores/arduino/wiring_digital.h"
 1089              		.file 42 "/home/torbjorn/eclipse-workspace/CoreNG/cores/arduino/AnalogIn.h"
 1090              		.file 43 "/home/torbjorn/eclipse-workspace/CoreNG/cores/arduino/AnalogOut.h"
 1091              		.file 44 "/home/torbjorn/eclipse-workspace/CoreNG/asf/sam/drivers/pmc/pmc.h"
 1092              		.file 45 "<built-in>"