ARM GAS  /tmp/cc0x0SVd.s 			page 1


   1              		.cpu cortex-m7
   2              		.eabi_attribute 28, 1
   3              		.eabi_attribute 20, 1
   4              		.eabi_attribute 21, 1
   5              		.eabi_attribute 23, 3
   6              		.eabi_attribute 24, 1
   7              		.eabi_attribute 25, 1
   8              		.eabi_attribute 26, 1
   9              		.eabi_attribute 30, 2
  10              		.eabi_attribute 34, 1
  11              		.eabi_attribute 18, 4
  12              		.file	"wdt.c"
  13              		.text
  14              	.Ltext0:
  15              		.cfi_sections	.debug_frame
  16              		.section	.text.wdt_get_timeout_value,"ax",%progbits
  17              		.align	1
  18              		.p2align 2,,3
  19              		.global	wdt_get_timeout_value
  20              		.syntax unified
  21              		.thumb
  22              		.thumb_func
  23              		.fpu fpv5-d16
  24              		.type	wdt_get_timeout_value, %function
  25              	wdt_get_timeout_value:
  26              	.LFB142:
  27              		.file 1 "../asf/sam/drivers/wdt/wdt.c"
   1:../asf/sam/drivers/wdt/wdt.c **** /**
   2:../asf/sam/drivers/wdt/wdt.c ****  * \file
   3:../asf/sam/drivers/wdt/wdt.c ****  *
   4:../asf/sam/drivers/wdt/wdt.c ****  * \brief Watchdog Timer (WDT) driver for SAM.
   5:../asf/sam/drivers/wdt/wdt.c ****  *
   6:../asf/sam/drivers/wdt/wdt.c ****  * Copyright (c) 2011-2015 Atmel Corporation. All rights reserved.
   7:../asf/sam/drivers/wdt/wdt.c ****  *
   8:../asf/sam/drivers/wdt/wdt.c ****  * \asf_license_start
   9:../asf/sam/drivers/wdt/wdt.c ****  *
  10:../asf/sam/drivers/wdt/wdt.c ****  * \page License
  11:../asf/sam/drivers/wdt/wdt.c ****  *
  12:../asf/sam/drivers/wdt/wdt.c ****  * Redistribution and use in source and binary forms, with or without
  13:../asf/sam/drivers/wdt/wdt.c ****  * modification, are permitted provided that the following conditions are met:
  14:../asf/sam/drivers/wdt/wdt.c ****  *
  15:../asf/sam/drivers/wdt/wdt.c ****  * 1. Redistributions of source code must retain the above copyright notice,
  16:../asf/sam/drivers/wdt/wdt.c ****  *    this list of conditions and the following disclaimer.
  17:../asf/sam/drivers/wdt/wdt.c ****  *
  18:../asf/sam/drivers/wdt/wdt.c ****  * 2. Redistributions in binary form must reproduce the above copyright notice,
  19:../asf/sam/drivers/wdt/wdt.c ****  *    this list of conditions and the following disclaimer in the documentation
  20:../asf/sam/drivers/wdt/wdt.c ****  *    and/or other materials provided with the distribution.
  21:../asf/sam/drivers/wdt/wdt.c ****  *
  22:../asf/sam/drivers/wdt/wdt.c ****  * 3. The name of Atmel may not be used to endorse or promote products derived
  23:../asf/sam/drivers/wdt/wdt.c ****  *    from this software without specific prior written permission.
  24:../asf/sam/drivers/wdt/wdt.c ****  *
  25:../asf/sam/drivers/wdt/wdt.c ****  * 4. This software may only be redistributed and used in connection with an
  26:../asf/sam/drivers/wdt/wdt.c ****  *    Atmel microcontroller product.
  27:../asf/sam/drivers/wdt/wdt.c ****  *
  28:../asf/sam/drivers/wdt/wdt.c ****  * THIS SOFTWARE IS PROVIDED BY ATMEL "AS IS" AND ANY EXPRESS OR IMPLIED
  29:../asf/sam/drivers/wdt/wdt.c ****  * WARRANTIES, INCLUDING, BUT NOT LIMITED TO, THE IMPLIED WARRANTIES OF
  30:../asf/sam/drivers/wdt/wdt.c ****  * MERCHANTABILITY, FITNESS FOR A PARTICULAR PURPOSE AND NON-INFRINGEMENT ARE
ARM GAS  /tmp/cc0x0SVd.s 			page 2


  31:../asf/sam/drivers/wdt/wdt.c ****  * EXPRESSLY AND SPECIFICALLY DISCLAIMED. IN NO EVENT SHALL ATMEL BE LIABLE FOR
  32:../asf/sam/drivers/wdt/wdt.c ****  * ANY DIRECT, INDIRECT, INCIDENTAL, SPECIAL, EXEMPLARY, OR CONSEQUENTIAL
  33:../asf/sam/drivers/wdt/wdt.c ****  * DAMAGES (INCLUDING, BUT NOT LIMITED TO, PROCUREMENT OF SUBSTITUTE GOODS
  34:../asf/sam/drivers/wdt/wdt.c ****  * OR SERVICES; LOSS OF USE, DATA, OR PROFITS; OR BUSINESS INTERRUPTION)
  35:../asf/sam/drivers/wdt/wdt.c ****  * HOWEVER CAUSED AND ON ANY THEORY OF LIABILITY, WHETHER IN CONTRACT,
  36:../asf/sam/drivers/wdt/wdt.c ****  * STRICT LIABILITY, OR TORT (INCLUDING NEGLIGENCE OR OTHERWISE) ARISING IN
  37:../asf/sam/drivers/wdt/wdt.c ****  * ANY WAY OUT OF THE USE OF THIS SOFTWARE, EVEN IF ADVISED OF THE
  38:../asf/sam/drivers/wdt/wdt.c ****  * POSSIBILITY OF SUCH DAMAGE.
  39:../asf/sam/drivers/wdt/wdt.c ****  *
  40:../asf/sam/drivers/wdt/wdt.c ****  * \asf_license_stop
  41:../asf/sam/drivers/wdt/wdt.c ****  *
  42:../asf/sam/drivers/wdt/wdt.c ****  */
  43:../asf/sam/drivers/wdt/wdt.c **** /*
  44:../asf/sam/drivers/wdt/wdt.c ****  * Support and FAQ: visit <a href="http://www.atmel.com/design-support/">Atmel Support</a>
  45:../asf/sam/drivers/wdt/wdt.c ****  */
  46:../asf/sam/drivers/wdt/wdt.c **** 
  47:../asf/sam/drivers/wdt/wdt.c **** #include "wdt.h"
  48:../asf/sam/drivers/wdt/wdt.c **** 
  49:../asf/sam/drivers/wdt/wdt.c **** /// @cond 0
  50:../asf/sam/drivers/wdt/wdt.c **** /**INDENT-OFF**/
  51:../asf/sam/drivers/wdt/wdt.c **** #ifdef __cplusplus
  52:../asf/sam/drivers/wdt/wdt.c **** extern "C" {
  53:../asf/sam/drivers/wdt/wdt.c **** #endif
  54:../asf/sam/drivers/wdt/wdt.c **** /**INDENT-ON**/
  55:../asf/sam/drivers/wdt/wdt.c **** /// @endcond
  56:../asf/sam/drivers/wdt/wdt.c **** 
  57:../asf/sam/drivers/wdt/wdt.c **** /**
  58:../asf/sam/drivers/wdt/wdt.c ****  * \defgroup sam_drivers_wdt_group Watchdog Timer (WDT)
  59:../asf/sam/drivers/wdt/wdt.c ****  *
  60:../asf/sam/drivers/wdt/wdt.c ****  * Driver for the WDT (Watchdog Timer). This driver provides access to the main
  61:../asf/sam/drivers/wdt/wdt.c ****  * features of the WDT controller.
  62:../asf/sam/drivers/wdt/wdt.c ****  * The Watchdog Timer can be used to prevent system lock-up if the software
  63:../asf/sam/drivers/wdt/wdt.c ****  * becomes trapped in a deadlock. It features a 12-bit down counter that allows
  64:../asf/sam/drivers/wdt/wdt.c ****  * a watchdog period of up to 16 seconds (slow clock at 32.768 kHz). It can
  65:../asf/sam/drivers/wdt/wdt.c ****  * generate a general reset or a processor reset only. In addition, it can be
  66:../asf/sam/drivers/wdt/wdt.c ****  * stopped while the processor is in debug mode or idle mode.
  67:../asf/sam/drivers/wdt/wdt.c ****  *
  68:../asf/sam/drivers/wdt/wdt.c ****  * @{
  69:../asf/sam/drivers/wdt/wdt.c ****  */
  70:../asf/sam/drivers/wdt/wdt.c **** 
  71:../asf/sam/drivers/wdt/wdt.c **** #define WDT_KEY_PASSWORD  0xA5000000
  72:../asf/sam/drivers/wdt/wdt.c **** #define WDT_SLCK_DIV      128
  73:../asf/sam/drivers/wdt/wdt.c **** #define WDT_MAX_VALUE     4095
  74:../asf/sam/drivers/wdt/wdt.c **** 
  75:../asf/sam/drivers/wdt/wdt.c **** /**
  76:../asf/sam/drivers/wdt/wdt.c ****  * \brief Get counter value or permitted range value of watchdog timer from the
  77:../asf/sam/drivers/wdt/wdt.c ****  * desired timeout period (in us).
  78:../asf/sam/drivers/wdt/wdt.c ****  *
  79:../asf/sam/drivers/wdt/wdt.c ****  * \note The value returned by this function can be used by wdt_init() if it is
  80:../asf/sam/drivers/wdt/wdt.c ****  * not WDT_INVALID_ARGUMENT.
  81:../asf/sam/drivers/wdt/wdt.c ****  *
  82:../asf/sam/drivers/wdt/wdt.c ****  * \param ul_us The desired timeout period (in us).
  83:../asf/sam/drivers/wdt/wdt.c ****  * \param ul_sclk The slow clock on board (in Hz).
  84:../asf/sam/drivers/wdt/wdt.c ****  *
  85:../asf/sam/drivers/wdt/wdt.c ****  * \return If the desired period is beyond the watchdog period, this function
  86:../asf/sam/drivers/wdt/wdt.c ****  * returns WDT_INVALID_ARGUMENT. Otherwise it returns valid value.
  87:../asf/sam/drivers/wdt/wdt.c ****  */
ARM GAS  /tmp/cc0x0SVd.s 			page 3


  88:../asf/sam/drivers/wdt/wdt.c **** uint32_t wdt_get_timeout_value(uint32_t ul_us, uint32_t ul_sclk)
  89:../asf/sam/drivers/wdt/wdt.c **** {
  28              		.loc 1 89 0
  29              		.cfi_startproc
  30              		@ args = 0, pretend = 0, frame = 0
  31              		@ frame_needed = 0, uses_anonymous_args = 0
  32              		@ link register save eliminated.
  33              	.LVL0:
  90:../asf/sam/drivers/wdt/wdt.c **** 	uint32_t max, min;
  91:../asf/sam/drivers/wdt/wdt.c **** 
  92:../asf/sam/drivers/wdt/wdt.c **** 	min = WDT_SLCK_DIV * 1000000 / ul_sclk;
  34              		.loc 1 92 0
  35 0000 084B     		ldr	r3, .L6
  36 0002 B3FBF1F1 		udiv	r1, r3, r1
  37              	.LVL1:
  93:../asf/sam/drivers/wdt/wdt.c **** 	max = min * WDT_MAX_VALUE;
  38              		.loc 1 93 0
  39 0006 C1EB0133 		rsb	r3, r1, r1, lsl #12
  94:../asf/sam/drivers/wdt/wdt.c **** 
  95:../asf/sam/drivers/wdt/wdt.c **** 	if ((ul_us < min) || (ul_us > max)) {
  40              		.loc 1 95 0
  41 000a 8342     		cmp	r3, r0
  42 000c 01D3     		bcc	.L3
  43 000e 8142     		cmp	r1, r0
  44 0010 02D9     		bls	.L5
  45              	.L3:
  96:../asf/sam/drivers/wdt/wdt.c **** 		return WDT_INVALID_ARGUMENT;
  46              		.loc 1 96 0
  47 0012 4FF6FF70 		movw	r0, #65535
  48              	.LVL2:
  97:../asf/sam/drivers/wdt/wdt.c **** 	}
  98:../asf/sam/drivers/wdt/wdt.c **** 
  99:../asf/sam/drivers/wdt/wdt.c **** 	return WDT_MR_WDV(ul_us / min);
 100:../asf/sam/drivers/wdt/wdt.c **** }
  49              		.loc 1 100 0
  50 0016 7047     		bx	lr
  51              	.LVL3:
  52              	.L5:
  99:../asf/sam/drivers/wdt/wdt.c **** }
  53              		.loc 1 99 0
  54 0018 B0FBF1F0 		udiv	r0, r0, r1
  55              	.LVL4:
  56 001c C0F30B00 		ubfx	r0, r0, #0, #12
  57 0020 7047     		bx	lr
  58              	.L7:
  59 0022 00BF     		.align	2
  60              	.L6:
  61 0024 0020A107 		.word	128000000
  62              		.cfi_endproc
  63              	.LFE142:
  64              		.size	wdt_get_timeout_value, .-wdt_get_timeout_value
  65              		.section	.text.wdt_init,"ax",%progbits
  66              		.align	1
  67              		.p2align 2,,3
  68              		.global	wdt_init
  69              		.syntax unified
  70              		.thumb
ARM GAS  /tmp/cc0x0SVd.s 			page 4


  71              		.thumb_func
  72              		.fpu fpv5-d16
  73              		.type	wdt_init, %function
  74              	wdt_init:
  75              	.LFB143:
 101:../asf/sam/drivers/wdt/wdt.c **** 
 102:../asf/sam/drivers/wdt/wdt.c **** /**
 103:../asf/sam/drivers/wdt/wdt.c ****  * \brief Initialize watchdog timer with the given mode.
 104:../asf/sam/drivers/wdt/wdt.c ****  *
 105:../asf/sam/drivers/wdt/wdt.c ****  * \param p_wdt Pointer to a WDT instance.
 106:../asf/sam/drivers/wdt/wdt.c ****  * \param ul_mode Bitmask of watchdog timer mode.
 107:../asf/sam/drivers/wdt/wdt.c ****  * \param us_counter The value loaded in the 12-bit Watchdog Counter.
 108:../asf/sam/drivers/wdt/wdt.c ****  * \param us_delta The permitted range for reloading the Watchdog Timer.
 109:../asf/sam/drivers/wdt/wdt.c ****  */
 110:../asf/sam/drivers/wdt/wdt.c **** void wdt_init(Wdt *p_wdt, uint32_t ul_mode, uint16_t us_counter,
 111:../asf/sam/drivers/wdt/wdt.c **** 		uint16_t us_delta)
 112:../asf/sam/drivers/wdt/wdt.c **** {
  76              		.loc 1 112 0
  77              		.cfi_startproc
  78              		@ args = 0, pretend = 0, frame = 0
  79              		@ frame_needed = 0, uses_anonymous_args = 0
  80              		@ link register save eliminated.
  81              	.LVL5:
  82 0000 10B4     		push	{r4}
  83              		.cfi_def_cfa_offset 4
  84              		.cfi_offset 4, -4
 113:../asf/sam/drivers/wdt/wdt.c **** 	p_wdt->WDT_MR = ul_mode |
 114:../asf/sam/drivers/wdt/wdt.c **** 			WDT_MR_WDV(us_counter) | WDT_MR_WDD(us_delta);
  85              		.loc 1 114 0
  86 0002 054C     		ldr	r4, .L10
  87 0004 C2F30B02 		ubfx	r2, r2, #0, #12
  88              	.LVL6:
  89 0008 04EA0343 		and	r3, r4, r3, lsl #16
  90              	.LVL7:
 115:../asf/sam/drivers/wdt/wdt.c **** }
  91              		.loc 1 115 0
  92 000c 5DF8044B 		ldr	r4, [sp], #4
  93              		.cfi_restore 4
  94              		.cfi_def_cfa_offset 0
 114:../asf/sam/drivers/wdt/wdt.c **** }
  95              		.loc 1 114 0
  96 0010 1343     		orrs	r3, r3, r2
  97 0012 0B43     		orrs	r3, r3, r1
 113:../asf/sam/drivers/wdt/wdt.c **** 	p_wdt->WDT_MR = ul_mode |
  98              		.loc 1 113 0
  99 0014 4360     		str	r3, [r0, #4]
 100              		.loc 1 115 0
 101 0016 7047     		bx	lr
 102              	.L11:
 103              		.align	2
 104              	.L10:
 105 0018 0000FF0F 		.word	268369920
 106              		.cfi_endproc
 107              	.LFE143:
 108              		.size	wdt_init, .-wdt_init
 109              		.section	.text.wdt_disable,"ax",%progbits
 110              		.align	1
ARM GAS  /tmp/cc0x0SVd.s 			page 5


 111              		.p2align 2,,3
 112              		.global	wdt_disable
 113              		.syntax unified
 114              		.thumb
 115              		.thumb_func
 116              		.fpu fpv5-d16
 117              		.type	wdt_disable, %function
 118              	wdt_disable:
 119              	.LFB144:
 116:../asf/sam/drivers/wdt/wdt.c **** 
 117:../asf/sam/drivers/wdt/wdt.c **** /**
 118:../asf/sam/drivers/wdt/wdt.c ****  * \brief Disable the watchdog timer.
 119:../asf/sam/drivers/wdt/wdt.c ****  */
 120:../asf/sam/drivers/wdt/wdt.c **** void wdt_disable(Wdt *p_wdt)
 121:../asf/sam/drivers/wdt/wdt.c **** {
 120              		.loc 1 121 0
 121              		.cfi_startproc
 122              		@ args = 0, pretend = 0, frame = 0
 123              		@ frame_needed = 0, uses_anonymous_args = 0
 124              		@ link register save eliminated.
 125              	.LVL8:
 122:../asf/sam/drivers/wdt/wdt.c **** 	p_wdt->WDT_MR = WDT_MR_WDDIS;
 126              		.loc 1 122 0
 127 0000 4FF40043 		mov	r3, #32768
 128 0004 4360     		str	r3, [r0, #4]
 129 0006 7047     		bx	lr
 130              		.cfi_endproc
 131              	.LFE144:
 132              		.size	wdt_disable, .-wdt_disable
 133              		.section	.text.wdt_restart,"ax",%progbits
 134              		.align	1
 135              		.p2align 2,,3
 136              		.global	wdt_restart
 137              		.syntax unified
 138              		.thumb
 139              		.thumb_func
 140              		.fpu fpv5-d16
 141              		.type	wdt_restart, %function
 142              	wdt_restart:
 143              	.LFB145:
 123:../asf/sam/drivers/wdt/wdt.c **** 
 124:../asf/sam/drivers/wdt/wdt.c **** }
 125:../asf/sam/drivers/wdt/wdt.c **** 
 126:../asf/sam/drivers/wdt/wdt.c **** /**
 127:../asf/sam/drivers/wdt/wdt.c ****  * \brief Restart the watchdog timer.
 128:../asf/sam/drivers/wdt/wdt.c ****  */
 129:../asf/sam/drivers/wdt/wdt.c **** void wdt_restart(Wdt *p_wdt)
 130:../asf/sam/drivers/wdt/wdt.c **** {
 144              		.loc 1 130 0
 145              		.cfi_startproc
 146              		@ args = 0, pretend = 0, frame = 0
 147              		@ frame_needed = 0, uses_anonymous_args = 0
 148              		@ link register save eliminated.
 149              	.LVL9:
 131:../asf/sam/drivers/wdt/wdt.c **** 	if (p_wdt == WDT) {
 150              		.loc 1 131 0
 151 0000 034B     		ldr	r3, .L16
ARM GAS  /tmp/cc0x0SVd.s 			page 6


 152 0002 9842     		cmp	r0, r3
 153 0004 00D0     		beq	.L15
 154 0006 7047     		bx	lr
 155              	.L15:
 132:../asf/sam/drivers/wdt/wdt.c **** 		p_wdt->WDT_CR = WDT_KEY_PASSWORD | WDT_CR_WDRSTT;
 156              		.loc 1 132 0
 157 0008 024B     		ldr	r3, .L16+4
 158 000a 0360     		str	r3, [r0]
 159 000c 7047     		bx	lr
 160              	.L17:
 161 000e 00BF     		.align	2
 162              	.L16:
 163 0010 50180E40 		.word	1074665552
 164 0014 010000A5 		.word	-1526726655
 165              		.cfi_endproc
 166              	.LFE145:
 167              		.size	wdt_restart, .-wdt_restart
 168              		.section	.text.wdt_get_status,"ax",%progbits
 169              		.align	1
 170              		.p2align 2,,3
 171              		.global	wdt_get_status
 172              		.syntax unified
 173              		.thumb
 174              		.thumb_func
 175              		.fpu fpv5-d16
 176              		.type	wdt_get_status, %function
 177              	wdt_get_status:
 178              	.LFB146:
 133:../asf/sam/drivers/wdt/wdt.c **** 	}
 134:../asf/sam/drivers/wdt/wdt.c **** #if (SAM4C || SAM4CM || SAM4CP)
 135:../asf/sam/drivers/wdt/wdt.c **** 	else {
 136:../asf/sam/drivers/wdt/wdt.c **** 		p_wdt->WDT_CR = RSWDT_CR_KEY(0xC4u) | RSWDT_CR_WDRSTT;
 137:../asf/sam/drivers/wdt/wdt.c **** 	}
 138:../asf/sam/drivers/wdt/wdt.c **** #endif
 139:../asf/sam/drivers/wdt/wdt.c **** }
 140:../asf/sam/drivers/wdt/wdt.c **** 
 141:../asf/sam/drivers/wdt/wdt.c **** /**
 142:../asf/sam/drivers/wdt/wdt.c ****  * \brief Check the watchdog timer status.
 143:../asf/sam/drivers/wdt/wdt.c ****  *
 144:../asf/sam/drivers/wdt/wdt.c ****  * \return Bitmask of watchdog timer status.
 145:../asf/sam/drivers/wdt/wdt.c ****  */
 146:../asf/sam/drivers/wdt/wdt.c **** uint32_t wdt_get_status(Wdt *p_wdt)
 147:../asf/sam/drivers/wdt/wdt.c **** {
 179              		.loc 1 147 0
 180              		.cfi_startproc
 181              		@ args = 0, pretend = 0, frame = 0
 182              		@ frame_needed = 0, uses_anonymous_args = 0
 183              		@ link register save eliminated.
 184              	.LVL10:
 148:../asf/sam/drivers/wdt/wdt.c **** 	return p_wdt->WDT_SR;
 185              		.loc 1 148 0
 186 0000 8068     		ldr	r0, [r0, #8]
 187              	.LVL11:
 149:../asf/sam/drivers/wdt/wdt.c **** }
 188              		.loc 1 149 0
 189 0002 7047     		bx	lr
 190              		.cfi_endproc
ARM GAS  /tmp/cc0x0SVd.s 			page 7


 191              	.LFE146:
 192              		.size	wdt_get_status, .-wdt_get_status
 193              		.section	.text.wdt_get_us_timeout_period,"ax",%progbits
 194              		.align	1
 195              		.p2align 2,,3
 196              		.global	wdt_get_us_timeout_period
 197              		.syntax unified
 198              		.thumb
 199              		.thumb_func
 200              		.fpu fpv5-d16
 201              		.type	wdt_get_us_timeout_period, %function
 202              	wdt_get_us_timeout_period:
 203              	.LFB147:
 150:../asf/sam/drivers/wdt/wdt.c **** 
 151:../asf/sam/drivers/wdt/wdt.c **** /**
 152:../asf/sam/drivers/wdt/wdt.c ****  * \brief Get the timeout period of the WatchDog Timer in microseconds.
 153:../asf/sam/drivers/wdt/wdt.c ****  *
 154:../asf/sam/drivers/wdt/wdt.c ****  * \param p_wdt Pointer to a WDT instance.
 155:../asf/sam/drivers/wdt/wdt.c ****  * \param ul_sclk The slow clock frequency (in Hz).
 156:../asf/sam/drivers/wdt/wdt.c ****  *
 157:../asf/sam/drivers/wdt/wdt.c ****  * \return The timeout period in microseconds.
 158:../asf/sam/drivers/wdt/wdt.c ****  */
 159:../asf/sam/drivers/wdt/wdt.c **** uint32_t wdt_get_us_timeout_period(Wdt *p_wdt, uint32_t ul_sclk)
 160:../asf/sam/drivers/wdt/wdt.c **** {
 204              		.loc 1 160 0
 205              		.cfi_startproc
 206              		@ args = 0, pretend = 0, frame = 0
 207              		@ frame_needed = 0, uses_anonymous_args = 0
 208              		@ link register save eliminated.
 209              	.LVL12:
 161:../asf/sam/drivers/wdt/wdt.c **** 	return WDT_MR_WDV(p_wdt->WDT_MR) * WDT_SLCK_DIV / ul_sclk * 1000000;
 210              		.loc 1 161 0
 211 0000 4368     		ldr	r3, [r0, #4]
 212 0002 044A     		ldr	r2, .L20
 213 0004 C3F30B03 		ubfx	r3, r3, #0, #12
 214 0008 DB01     		lsls	r3, r3, #7
 215 000a B3FBF1F1 		udiv	r1, r3, r1
 216              	.LVL13:
 162:../asf/sam/drivers/wdt/wdt.c **** }
 217              		.loc 1 162 0
 218 000e 02FB01F0 		mul	r0, r2, r1
 219              	.LVL14:
 220 0012 7047     		bx	lr
 221              	.L21:
 222              		.align	2
 223              	.L20:
 224 0014 40420F00 		.word	1000000
 225              		.cfi_endproc
 226              	.LFE147:
 227              		.size	wdt_get_us_timeout_period, .-wdt_get_us_timeout_period
 228              		.section	.bss.cpu_irq_critical_section_counter,"aw",%nobits
 229              		.align	2
 230              		.type	cpu_irq_critical_section_counter, %object
 231              		.size	cpu_irq_critical_section_counter, 4
 232              	cpu_irq_critical_section_counter:
 233 0000 00000000 		.space	4
 234              		.section	.bss.cpu_irq_prev_interrupt_state,"aw",%nobits
ARM GAS  /tmp/cc0x0SVd.s 			page 8


 235              		.type	cpu_irq_prev_interrupt_state, %object
 236              		.size	cpu_irq_prev_interrupt_state, 1
 237              	cpu_irq_prev_interrupt_state:
 238 0000 00       		.space	1
 239              		.text
 240              	.Letext0:
 241              		.file 2 "/usr/include/newlib/machine/_default_types.h"
 242              		.file 3 "/usr/include/newlib/sys/_stdint.h"
 243              		.file 4 "/home/torbjorn/eclipse-workspace/CoreNG/asf/thirdparty/CMSIS/Include/core_cm7.h"
 244              		.file 5 "/home/torbjorn/eclipse-workspace/CoreNG/variants/same70/system_same70.h"
 245              		.file 6 "/home/torbjorn/eclipse-workspace/CoreNG/asf/sam/utils/cmsis/same70/include/component/wdt.
 246              		.file 7 "/usr/include/newlib/sys/lock.h"
 247              		.file 8 "/usr/include/newlib/sys/_types.h"
 248              		.file 9 "/usr/lib/gcc/arm-none-eabi/6.3.1/include/stddef.h"
 249              		.file 10 "/usr/include/newlib/sys/reent.h"
 250              		.file 11 "/usr/include/newlib/stdlib.h"
 251              		.file 12 "/home/torbjorn/eclipse-workspace/CoreNG/asf/common/utils/interrupt/interrupt_sam_nvic.h"