ARM GAS  /tmp/cce8p2YE.s 			page 1


   1              		.cpu cortex-m7
   2              		.eabi_attribute 28, 1
   3              		.eabi_attribute 20, 1
   4              		.eabi_attribute 21, 1
   5              		.eabi_attribute 23, 3
   6              		.eabi_attribute 24, 1
   7              		.eabi_attribute 25, 1
   8              		.eabi_attribute 26, 1
   9              		.eabi_attribute 30, 2
  10              		.eabi_attribute 34, 1
  11              		.eabi_attribute 18, 4
  12              		.file	"WMath.cpp"
  13              		.text
  14              	.Ltext0:
  15              		.cfi_sections	.debug_frame
  16              		.section	.text.trueRandom,"ax",%progbits
  17              		.align	1
  18              		.p2align 2,,3
  19              		.global	trueRandom
  20              		.syntax unified
  21              		.thumb
  22              		.thumb_func
  23              		.fpu fpv5-d16
  24              		.type	trueRandom, %function
  25              	trueRandom:
  26              	.LFB525:
  27              		.file 1 "../cores/arduino/WMath.cpp"
   1:../cores/arduino/WMath.cpp **** /*
   2:../cores/arduino/WMath.cpp ****   Copyright (c) 2011 Arduino.  All right reserved.
   3:../cores/arduino/WMath.cpp **** 
   4:../cores/arduino/WMath.cpp ****   This library is free software; you can redistribute it and/or
   5:../cores/arduino/WMath.cpp ****   modify it under the terms of the GNU Lesser General Public
   6:../cores/arduino/WMath.cpp ****   License as published by the Free Software Foundation; either
   7:../cores/arduino/WMath.cpp ****   version 2.1 of the License, or (at your option) any later version.
   8:../cores/arduino/WMath.cpp **** 
   9:../cores/arduino/WMath.cpp ****   This library is distributed in the hope that it will be useful,
  10:../cores/arduino/WMath.cpp ****   but WITHOUT ANY WARRANTY; without even the implied warranty of
  11:../cores/arduino/WMath.cpp ****   MERCHANTABILITY or FITNESS FOR A PARTICULAR PURPOSE. 
  12:../cores/arduino/WMath.cpp ****   See the GNU Lesser General Public License for more details.
  13:../cores/arduino/WMath.cpp **** 
  14:../cores/arduino/WMath.cpp ****   You should have received a copy of the GNU Lesser General Public
  15:../cores/arduino/WMath.cpp ****   License along with this library; if not, write to the Free Software
  16:../cores/arduino/WMath.cpp ****   Foundation, Inc., 51 Franklin St, Fifth Floor, Boston, MA  02110-1301  USA
  17:../cores/arduino/WMath.cpp **** */
  18:../cores/arduino/WMath.cpp **** 
  19:../cores/arduino/WMath.cpp **** #include <Core.h>
  20:../cores/arduino/WMath.cpp **** #include <cstdlib>
  21:../cores/arduino/WMath.cpp **** #include <cstdint>
  22:../cores/arduino/WMath.cpp **** 
  23:../cores/arduino/WMath.cpp **** #include "WMath.h"
  24:../cores/arduino/WMath.cpp **** 
  25:../cores/arduino/WMath.cpp **** #if SAM3XA || SAME70
  26:../cores/arduino/WMath.cpp **** 
  27:../cores/arduino/WMath.cpp **** // SAM3X and SAME70 have a true random number generator
  28:../cores/arduino/WMath.cpp **** #include "trng/trng.h"
  29:../cores/arduino/WMath.cpp **** 
  30:../cores/arduino/WMath.cpp **** extern "C" uint32_t trueRandom()
ARM GAS  /tmp/cce8p2YE.s 			page 2


  31:../cores/arduino/WMath.cpp **** {
  28              		.loc 1 31 0
  29              		.cfi_startproc
  30              		@ args = 0, pretend = 0, frame = 0
  31              		@ frame_needed = 0, uses_anonymous_args = 0
  32              		@ link register save eliminated.
  32:../cores/arduino/WMath.cpp **** 	while (! (TRNG->TRNG_ISR & TRNG_ISR_DATRDY)) {}
  33              		.loc 1 32 0
  34 0000 024A     		ldr	r2, .L6
  35              	.L2:
  36 0002 D369     		ldr	r3, [r2, #28]
  37 0004 DB07     		lsls	r3, r3, #31
  38 0006 FCD5     		bpl	.L2
  33:../cores/arduino/WMath.cpp **** 	return (uint32_t)TRNG->TRNG_ODATA;
  39              		.loc 1 33 0
  40 0008 106D     		ldr	r0, [r2, #80]
  34:../cores/arduino/WMath.cpp **** }
  41              		.loc 1 34 0
  42 000a 7047     		bx	lr
  43              	.L7:
  44              		.align	2
  45              	.L6:
  46 000c 00000740 		.word	1074200576
  47              		.cfi_endproc
  48              	.LFE525:
  49              		.size	trueRandom, .-trueRandom
  50              		.section	.text._Z6randoml,"ax",%progbits
  51              		.align	1
  52              		.p2align 2,,3
  53              		.global	_Z6randoml
  54              		.syntax unified
  55              		.thumb
  56              		.thumb_func
  57              		.fpu fpv5-d16
  58              		.type	_Z6randoml, %function
  59              	_Z6randoml:
  60              	.LFB526:
  35:../cores/arduino/WMath.cpp **** 
  36:../cores/arduino/WMath.cpp **** #endif
  37:../cores/arduino/WMath.cpp **** 
  38:../cores/arduino/WMath.cpp **** extern int32_t random(int32_t howbig)
  39:../cores/arduino/WMath.cpp **** {
  61              		.loc 1 39 0
  62              		.cfi_startproc
  63              		@ args = 0, pretend = 0, frame = 0
  64              		@ frame_needed = 0, uses_anonymous_args = 0
  65              		@ link register save eliminated.
  66              	.LVL0:
  40:../cores/arduino/WMath.cpp **** 	if (howbig <= 0)
  67              		.loc 1 40 0
  68 0000 0028     		cmp	r0, #0
  69 0002 09DD     		ble	.L11
  70              	.LBB12:
  71              	.LBB13:
  72              	.LBB14:
  73              	.LBB15:
  32:../cores/arduino/WMath.cpp **** 	return (uint32_t)TRNG->TRNG_ODATA;
ARM GAS  /tmp/cce8p2YE.s 			page 3


  74              		.loc 1 32 0
  75 0004 054A     		ldr	r2, .L15
  76              	.L13:
  77 0006 D369     		ldr	r3, [r2, #28]
  78 0008 DB07     		lsls	r3, r3, #31
  79 000a FCD5     		bpl	.L13
  33:../cores/arduino/WMath.cpp **** }
  80              		.loc 1 33 0
  81 000c 126D     		ldr	r2, [r2, #80]
  82              	.LBE15:
  83              	.LBE14:
  41:../cores/arduino/WMath.cpp **** 	{
  42:../cores/arduino/WMath.cpp **** 		return 0;
  43:../cores/arduino/WMath.cpp **** 	}
  44:../cores/arduino/WMath.cpp **** 
  45:../cores/arduino/WMath.cpp **** #if SAM3XA || SAME70
  46:../cores/arduino/WMath.cpp **** 	return trueRandom() % (uint32_t)howbig;
  84              		.loc 1 46 0
  85 000e B2FBF0F3 		udiv	r3, r2, r0
  86 0012 00FB1320 		mls	r0, r0, r3, r2
  87              	.LVL1:
  88 0016 7047     		bx	lr
  89              	.LVL2:
  90              	.L11:
  91              	.LBE13:
  92              	.LBE12:
  42:../cores/arduino/WMath.cpp **** 	}
  93              		.loc 1 42 0
  94 0018 0020     		movs	r0, #0
  95              	.LVL3:
  47:../cores/arduino/WMath.cpp **** #else
  48:../cores/arduino/WMath.cpp **** 	static bool isInitialised = false;
  49:../cores/arduino/WMath.cpp **** 
  50:../cores/arduino/WMath.cpp **** 	if (!isInitialised)
  51:../cores/arduino/WMath.cpp **** 	{
  52:../cores/arduino/WMath.cpp **** 		srand(SysTick->VAL);
  53:../cores/arduino/WMath.cpp **** 		isInitialised = true;
  54:../cores/arduino/WMath.cpp **** 	}
  55:../cores/arduino/WMath.cpp **** 
  56:../cores/arduino/WMath.cpp **** 	return rand() % (uint32_t)howbig;
  57:../cores/arduino/WMath.cpp **** #endif
  58:../cores/arduino/WMath.cpp **** 
  59:../cores/arduino/WMath.cpp **** }
  96              		.loc 1 59 0
  97 001a 7047     		bx	lr
  98              	.L16:
  99              		.align	2
 100              	.L15:
 101 001c 00000740 		.word	1074200576
 102              		.cfi_endproc
 103              	.LFE526:
 104              		.size	_Z6randoml, .-_Z6randoml
 105              		.section	.text._Z6randomll,"ax",%progbits
 106              		.align	1
 107              		.p2align 2,,3
 108              		.global	_Z6randomll
 109              		.syntax unified
ARM GAS  /tmp/cce8p2YE.s 			page 4


 110              		.thumb
 111              		.thumb_func
 112              		.fpu fpv5-d16
 113              		.type	_Z6randomll, %function
 114              	_Z6randomll:
 115              	.LFB527:
  60:../cores/arduino/WMath.cpp **** 
  61:../cores/arduino/WMath.cpp **** extern int32_t random(int32_t howsmall, int32_t howbig)
  62:../cores/arduino/WMath.cpp **** {
 116              		.loc 1 62 0
 117              		.cfi_startproc
 118              		@ args = 0, pretend = 0, frame = 0
 119              		@ frame_needed = 0, uses_anonymous_args = 0
 120              		@ link register save eliminated.
 121              	.LVL4:
  63:../cores/arduino/WMath.cpp **** 	if (howsmall >= howbig)
 122              		.loc 1 63 0
 123 0000 8842     		cmp	r0, r1
 124 0002 0ADA     		bge	.L17
  64:../cores/arduino/WMath.cpp **** 	{
  65:../cores/arduino/WMath.cpp **** 		return howsmall;
  66:../cores/arduino/WMath.cpp **** 	}
  67:../cores/arduino/WMath.cpp **** 
  68:../cores/arduino/WMath.cpp **** 	return random(howbig - howsmall) + howsmall;
 125              		.loc 1 68 0
 126 0004 091A     		subs	r1, r1, r0
 127              	.LVL5:
 128              	.LBB22:
 129              	.LBB23:
 130              	.LBB24:
 131              	.LBB25:
 132              	.LBB26:
  32:../cores/arduino/WMath.cpp **** 	return (uint32_t)TRNG->TRNG_ODATA;
 133              		.loc 1 32 0
 134 0006 054A     		ldr	r2, .L23
 135              	.L19:
 136 0008 D369     		ldr	r3, [r2, #28]
 137 000a DB07     		lsls	r3, r3, #31
 138 000c FCD5     		bpl	.L19
  33:../cores/arduino/WMath.cpp **** }
 139              		.loc 1 33 0
 140 000e 126D     		ldr	r2, [r2, #80]
 141              	.LVL6:
 142              	.LBE26:
 143              	.LBE25:
  46:../cores/arduino/WMath.cpp **** #else
 144              		.loc 1 46 0
 145 0010 B2FBF1F3 		udiv	r3, r2, r1
 146 0014 01FB1321 		mls	r1, r1, r3, r2
 147              	.LBE24:
 148              	.LBE23:
 149              	.LBE22:
 150              		.loc 1 68 0
 151 0018 0844     		add	r0, r0, r1
 152              	.LVL7:
 153              	.L17:
  69:../cores/arduino/WMath.cpp **** }
ARM GAS  /tmp/cce8p2YE.s 			page 5


 154              		.loc 1 69 0
 155 001a 7047     		bx	lr
 156              	.L24:
 157              		.align	2
 158              	.L23:
 159 001c 00000740 		.word	1074200576
 160              		.cfi_endproc
 161              	.LFE527:
 162              		.size	_Z6randomll, .-_Z6randomll
 163              		.section	.text._Z3maplllll,"ax",%progbits
 164              		.align	1
 165              		.p2align 2,,3
 166              		.global	_Z3maplllll
 167              		.syntax unified
 168              		.thumb
 169              		.thumb_func
 170              		.fpu fpv5-d16
 171              		.type	_Z3maplllll, %function
 172              	_Z3maplllll:
 173              	.LFB528:
  70:../cores/arduino/WMath.cpp **** 
  71:../cores/arduino/WMath.cpp **** extern int32_t map(int32_t x, int32_t in_min, int32_t in_max, int32_t out_min, int32_t out_max)
  72:../cores/arduino/WMath.cpp **** {
 174              		.loc 1 72 0
 175              		.cfi_startproc
 176              		@ args = 4, pretend = 0, frame = 0
 177              		@ frame_needed = 0, uses_anonymous_args = 0
 178              		@ link register save eliminated.
 179              	.LVL8:
 180 0000 10B4     		push	{r4}
 181              		.cfi_def_cfa_offset 4
 182              		.cfi_offset 4, -4
 183              		.loc 1 72 0
 184 0002 019C     		ldr	r4, [sp, #4]
  73:../cores/arduino/WMath.cpp **** 	return (x - in_min) * (out_max - out_min) / (in_max - in_min) + out_min;
 185              		.loc 1 73 0
 186 0004 401A     		subs	r0, r0, r1
 187              	.LVL9:
 188 0006 521A     		subs	r2, r2, r1
 189              	.LVL10:
 190 0008 E41A     		subs	r4, r4, r3
 191 000a 04FB00F0 		mul	r0, r4, r0
  74:../cores/arduino/WMath.cpp **** }
 192              		.loc 1 74 0
 193 000e 5DF8044B 		ldr	r4, [sp], #4
 194              		.cfi_restore 4
 195              		.cfi_def_cfa_offset 0
 196              	.LVL11:
  73:../cores/arduino/WMath.cpp **** 	return (x - in_min) * (out_max - out_min) / (in_max - in_min) + out_min;
 197              		.loc 1 73 0
 198 0012 90FBF2F0 		sdiv	r0, r0, r2
 199              		.loc 1 74 0
 200 0016 1844     		add	r0, r0, r3
 201 0018 7047     		bx	lr
 202              		.cfi_endproc
 203              	.LFE528:
 204              		.size	_Z3maplllll, .-_Z3maplllll
ARM GAS  /tmp/cce8p2YE.s 			page 6


 205 001a 00BF     		.section	.bss._ZL28cpu_irq_prev_interrupt_state,"aw",%nobits
 206              		.type	_ZL28cpu_irq_prev_interrupt_state, %object
 207              		.size	_ZL28cpu_irq_prev_interrupt_state, 1
 208              	_ZL28cpu_irq_prev_interrupt_state:
 209 0000 00       		.space	1
 210              		.section	.bss._ZL32cpu_irq_critical_section_counter,"aw",%nobits
 211              		.align	2
 212              		.type	_ZL32cpu_irq_critical_section_counter, %object
 213              		.size	_ZL32cpu_irq_critical_section_counter, 4
 214              	_ZL32cpu_irq_critical_section_counter:
 215 0000 00000000 		.space	4
 216              		.text
 217              	.Letext0:
 218              		.file 2 "/usr/lib/gcc/arm-none-eabi/6.3.1/include/stddef.h"
 219              		.file 3 "/usr/include/newlib/machine/_default_types.h"
 220              		.file 4 "/usr/include/newlib/sys/_stdint.h"
 221              		.file 5 "/usr/include/newlib/stdint.h"
 222              		.file 6 "/home/torbjorn/eclipse-workspace/CoreNG/asf/thirdparty/CMSIS/Include/core_cm7.h"
 223              		.file 7 "/home/torbjorn/eclipse-workspace/CoreNG/variants/same70/system_same70.h"
 224              		.file 8 "/home/torbjorn/eclipse-workspace/CoreNG/asf/sam/utils/cmsis/same70/include/component/pio.
 225              		.file 9 "/home/torbjorn/eclipse-workspace/CoreNG/asf/sam/utils/cmsis/same70/include/component/trng
 226              		.file 10 "/usr/include/newlib/sys/lock.h"
 227              		.file 11 "/usr/include/newlib/sys/_types.h"
 228              		.file 12 "/usr/include/newlib/sys/reent.h"
 229              		.file 13 "/usr/include/newlib/c++/6.3.1/cstdlib"
 230              		.file 14 "/usr/include/newlib/c++/6.3.1/cmath"
 231              		.file 15 "/usr/include/newlib/c++/6.3.1/cstdint"
 232              		.file 16 "/usr/include/newlib/c++/6.3.1/cstddef"
 233              		.file 17 "/usr/include/newlib/c++/6.3.1/arm-none-eabi/thumb/v7e-m/fpv5/hard/bits/c++config.h"
 234              		.file 18 "/usr/include/newlib/stdlib.h"
 235              		.file 19 "/usr/include/newlib/c++/6.3.1/stdlib.h"
 236              		.file 20 "/home/torbjorn/eclipse-workspace/CoreNG/asf/common/utils/interrupt/interrupt_sam_nvic.h"
 237              		.file 21 "/usr/include/newlib/math.h"
 238              		.file 22 "/usr/include/newlib/c++/6.3.1/math.h"
 239              		.file 23 "/home/torbjorn/eclipse-workspace/CoreNG/asf/sam/drivers/pio/pio.h"
 240              		.file 24 "/home/torbjorn/eclipse-workspace/CoreNG/cores/arduino/Core.h"
 241              		.file 25 "/usr/include/newlib/ctype.h"
 242              		.file 26 "/home/torbjorn/eclipse-workspace/CoreNG/cores/arduino/RingBuffer.h"
 243              		.file 27 "/home/torbjorn/eclipse-workspace/CoreNG/cores/arduino/UARTClass.h"
 244              		.file 28 "/usr/include/newlib/time.h"
 245              		.file 29 "/home/torbjorn/eclipse-workspace/CoreNG/variants/same70/variant.h"
 246              		.file 30 "/home/torbjorn/eclipse-workspace/CoreNG/cores/arduino/USB/USBSerial.h"
 247              		.file 31 "<built-in>"
 248              		.file 32 "/home/torbjorn/eclipse-workspace/CoreNG/cores/arduino/Print.h"