ARM GAS  /tmp/ccghtDyP.s 			page 1


   1              		.cpu cortex-m4
   2              		.eabi_attribute 27, 1
   3              		.eabi_attribute 28, 1
   4              		.eabi_attribute 20, 1
   5              		.eabi_attribute 21, 1
   6              		.eabi_attribute 23, 3
   7              		.eabi_attribute 24, 1
   8              		.eabi_attribute 25, 1
   9              		.eabi_attribute 26, 1
  10              		.eabi_attribute 30, 2
  11              		.eabi_attribute 34, 1
  12              		.eabi_attribute 18, 4
  13              		.file	"Platform.cpp"
  14              		.section	.text._ZL12FanInterrupt17CallbackParameter,"ax",%progbits
  15              		.align	1
  16              		.p2align 2,,3
  17              		.syntax unified
  18              		.thumb
  19              		.thumb_func
  20              		.fpu fpv4-sp-d16
  21              		.type	_ZL12FanInterrupt17CallbackParameter, %function
  22              	_ZL12FanInterrupt17CallbackParameter:
  23              		@ args = 0, pretend = 0, frame = 0
  24              		@ frame_needed = 0, uses_anonymous_args = 0
  25              		@ link register save eliminated.
  26 0000 0A4A     		ldr	r2, .L9
  27 0002 1368     		ldr	r3, [r2]
  28 0004 0133     		adds	r3, r3, #1
  29 0006 202B     		cmp	r3, #32
  30 0008 1360     		str	r3, [r2]
  31 000a 00D0     		beq	.L8
  32 000c 7047     		bx	lr
  33              	.L8:
  34 000e 30B4     		push	{r4, r5}
  35 0010 074B     		ldr	r3, .L9+4
  36 0012 0849     		ldr	r1, .L9+8
  37 0014 D3F89000 		ldr	r0, [r3, #144]
  38 0018 0B68     		ldr	r3, [r1]
  39 001a 074D     		ldr	r5, .L9+12
  40 001c 0024     		movs	r4, #0
  41 001e C31A     		subs	r3, r0, r3
  42 0020 2B60     		str	r3, [r5]
  43 0022 1460     		str	r4, [r2]
  44 0024 0860     		str	r0, [r1]
  45 0026 30BC     		pop	{r4, r5}
  46 0028 7047     		bx	lr
  47              	.L10:
  48 002a 00BF     		.align	2
  49              	.L9:
  50 002c 00000000 		.word	.LANCHOR0
  51 0030 00000940 		.word	1074331648
  52 0034 00000000 		.word	.LANCHOR1
  53 0038 00000000 		.word	.LANCHOR2
  54              		.size	_ZL12FanInterrupt17CallbackParameter, .-_ZL12FanInterrupt17CallbackParameter
  55              		.section	.text._ZNK8Platform19AnyAxisMotorStalledEj.part.18,"ax",%progbits
  56              		.align	1
  57              		.p2align 2,,3
ARM GAS  /tmp/ccghtDyP.s 			page 2


  58              		.syntax unified
  59              		.thumb
  60              		.thumb_func
  61              		.fpu fpv4-sp-d16
  62              		.type	_ZNK8Platform19AnyAxisMotorStalledEj.part.18, %function
  63              	_ZNK8Platform19AnyAxisMotorStalledEj.part.18:
  64              		@ args = 0, pretend = 0, frame = 0
  65              		@ frame_needed = 0, uses_anonymous_args = 0
  66 0000 70B5     		push	{r4, r5, r6, lr}
  67 0002 C900     		lsls	r1, r1, #3
  68 0004 4618     		adds	r6, r0, r1
  69 0006 D6F8F832 		ldr	r3, [r6, #760]
  70 000a A3B1     		cbz	r3, .L12
  71 000c 01F53F71 		add	r1, r1, #764
  72 0010 4518     		adds	r5, r0, r1
  73 0012 0024     		movs	r4, #0
  74 0014 02E0     		b	.L14
  75              	.L22:
  76 0016 0134     		adds	r4, r4, #1
  77 0018 A342     		cmp	r3, r4
  78 001a 0CD9     		bls	.L12
  79              	.L14:
  80 001c 15F8010B 		ldrb	r0, [r5], #1	@ zero_extendqisi2
  81 0020 0B28     		cmp	r0, #11
  82 0022 F8D8     		bhi	.L22
  83 0024 FFF7FEFF 		bl	_ZN12SmartDrivers13GetLiveStatusEj
  84 0028 C307     		lsls	r3, r0, #31
  85 002a 06D4     		bmi	.L17
  86 002c D6F8F832 		ldr	r3, [r6, #760]
  87 0030 0134     		adds	r4, r4, #1
  88 0032 A342     		cmp	r3, r4
  89 0034 F2D8     		bhi	.L14
  90              	.L12:
  91 0036 0020     		movs	r0, #0
  92 0038 70BD     		pop	{r4, r5, r6, pc}
  93              	.L17:
  94 003a 0120     		movs	r0, #1
  95 003c 70BD     		pop	{r4, r5, r6, pc}
  96              		.size	_ZNK8Platform19AnyAxisMotorStalledEj.part.18, .-_ZNK8Platform19AnyAxisMotorStalledEj.part.18
  97 003e 00BF     		.section	.text._ZN8Platform13DisableDriverEj.part.20,"ax",%progbits
  98              		.align	1
  99              		.p2align 2,,3
 100              		.syntax unified
 101              		.thumb
 102              		.thumb_func
 103              		.fpu fpv4-sp-d16
 104              		.type	_ZN8Platform13DisableDriverEj.part.20, %function
 105              	_ZN8Platform13DisableDriverEj.part.20:
 106              		@ args = 0, pretend = 0, frame = 0
 107              		@ frame_needed = 0, uses_anonymous_args = 0
 108 0000 10B5     		push	{r4, lr}
 109 0002 D0F8C423 		ldr	r2, [r0, #964]
 110 0006 8A42     		cmp	r2, r1
 111 0008 0446     		mov	r4, r0
 112 000a 08D9     		bls	.L24
 113 000c 0846     		mov	r0, r1
 114 000e 0444     		add	r4, r4, r0
ARM GAS  /tmp/ccghtDyP.s 			page 3


 115 0010 0021     		movs	r1, #0
 116 0012 FFF7FEFF 		bl	_ZN12SmartDrivers11EnableDriveEjb
 117 0016 0023     		movs	r3, #0
 118 0018 84F8C430 		strb	r3, [r4, #196]
 119 001c 10BD     		pop	{r4, pc}
 120              	.L24:
 121 001e 0C44     		add	r4, r4, r1
 122 0020 064A     		ldr	r2, .L27
 123 0022 94F9E830 		ldrsb	r3, [r4, #232]
 124 0026 505C     		ldrb	r0, [r2, r1]	@ zero_extendqisi2
 125 0028 002B     		cmp	r3, #0
 126 002a CCBF     		ite	gt
 127 002c 0021     		movgt	r1, #0
 128 002e 0121     		movle	r1, #1
 129 0030 FFF7FEFF 		bl	digitalWrite
 130 0034 0023     		movs	r3, #0
 131 0036 84F8C430 		strb	r3, [r4, #196]
 132 003a 10BD     		pop	{r4, pc}
 133              	.L28:
 134              		.align	2
 135              	.L27:
 136 003c 00000000 		.word	.LANCHOR3
 137              		.size	_ZN8Platform13DisableDriverEj.part.20, .-_ZN8Platform13DisableDriverEj.part.20
 138              		.section	.text._ZN8Platform18UpdateMotorCurrentEj.part.21,"ax",%progbits
 139              		.align	1
 140              		.p2align 2,,3
 141              		.syntax unified
 142              		.thumb
 143              		.thumb_func
 144              		.fpu fpv4-sp-d16
 145              		.type	_ZN8Platform18UpdateMotorCurrentEj.part.21, %function
 146              	_ZN8Platform18UpdateMotorCurrentEj.part.21:
 147              		@ args = 0, pretend = 0, frame = 0
 148              		@ frame_needed = 0, uses_anonymous_args = 0
 149              		@ link register save eliminated.
 150 0000 4218     		adds	r2, r0, r1
 151 0002 00EB8103 		add	r3, r0, r1, lsl #2
 152 0006 92F8C420 		ldrb	r2, [r2, #196]	@ zero_extendqisi2
 153 000a 93EDA60A 		vldr.32	s0, [r3, #664]
 154 000e 012A     		cmp	r2, #1
 155 0010 18BF     		it	ne
 156 0012 D3EDB27A 		vldrne.32	s15, [r3, #712]
 157 0016 D0F8C433 		ldr	r3, [r0, #964]
 158 001a 08BF     		it	eq
 159 001c D0EDF07A 		vldreq.32	s15, [r0, #960]
 160 0020 9942     		cmp	r1, r3
 161 0022 20EE270A 		vmul.f32	s0, s0, s15
 162 0026 00D3     		bcc	.L33
 163 0028 7047     		bx	lr
 164              	.L33:
 165 002a 0846     		mov	r0, r1
 166 002c FFF7FEBF 		b	_ZN12SmartDrivers10SetCurrentEjf
 167              		.size	_ZN8Platform18UpdateMotorCurrentEj.part.21, .-_ZN8Platform18UpdateMotorCurrentEj.part.21
 168              		.section	.text._ZN8Platform16SetDriverCurrentEjfi.part.23,"ax",%progbits
 169              		.align	1
 170              		.p2align 2,,3
 171              		.syntax unified
ARM GAS  /tmp/ccghtDyP.s 			page 4


 172              		.thumb
 173              		.thumb_func
 174              		.fpu fpv4-sp-d16
 175              		.type	_ZN8Platform16SetDriverCurrentEjfi.part.23, %function
 176              	_ZN8Platform16SetDriverCurrentEjfi.part.23:
 177              		@ args = 0, pretend = 0, frame = 8
 178              		@ frame_needed = 0, uses_anonymous_args = 0
 179 0000 10B5     		push	{r4, lr}
 180 0002 40F29133 		movw	r3, #913
 181 0006 9A42     		cmp	r2, r3
 182 0008 82B0     		sub	sp, sp, #8
 183 000a 0446     		mov	r4, r0
 184 000c 22D0     		beq	.L36
 185 000e 40F29533 		movw	r3, #917
 186 0012 9A42     		cmp	r2, r3
 187 0014 13D0     		beq	.L37
 188 0016 40F28A33 		movw	r3, #906
 189 001a 9A42     		cmp	r2, r3
 190 001c 05D0     		beq	.L40
 191 001e 2046     		mov	r0, r4
 192 0020 02B0     		add	sp, sp, #8
 193              		@ sp needed
 194 0022 BDE81040 		pop	{r4, lr}
 195 0026 FFF7FEBF 		b	_ZN8Platform18UpdateMotorCurrentEj.part.21
 196              	.L40:
 197 002a 00EB8103 		add	r3, r0, r1, lsl #2
 198 002e 2046     		mov	r0, r4
 199 0030 83EDA60A 		vstr.32	s0, [r3, #664]
 200 0034 02B0     		add	sp, sp, #8
 201              		@ sp needed
 202 0036 BDE81040 		pop	{r4, lr}
 203 003a FFF7FEBF 		b	_ZN8Platform18UpdateMotorCurrentEj.part.21
 204              	.L37:
 205 003e 0846     		mov	r0, r1
 206 0040 0191     		str	r1, [sp, #4]
 207 0042 FFF7FEFF 		bl	_ZN12SmartDrivers27SetStandstillCurrentPercentEjf
 208 0046 0199     		ldr	r1, [sp, #4]
 209 0048 2046     		mov	r0, r4
 210 004a 02B0     		add	sp, sp, #8
 211              		@ sp needed
 212 004c BDE81040 		pop	{r4, lr}
 213 0050 FFF7FEBF 		b	_ZN8Platform18UpdateMotorCurrentEj.part.21
 214              	.L36:
 215 0054 9FED067A 		vldr.32	s14, .L41
 216 0058 60EE077A 		vmul.f32	s15, s0, s14
 217 005c 00EB8103 		add	r3, r0, r1, lsl #2
 218 0060 2046     		mov	r0, r4
 219 0062 C3EDB27A 		vstr.32	s15, [r3, #712]
 220 0066 02B0     		add	sp, sp, #8
 221              		@ sp needed
 222 0068 BDE81040 		pop	{r4, lr}
 223 006c FFF7FEBF 		b	_ZN8Platform18UpdateMotorCurrentEj.part.21
 224              	.L42:
 225              		.align	2
 226              	.L41:
 227 0070 0AD7233C 		.word	1008981770
 228              		.size	_ZN8Platform16SetDriverCurrentEjfi.part.23, .-_ZN8Platform16SetDriverCurrentEjfi.part.23
ARM GAS  /tmp/ccghtDyP.s 			page 5


 229              		.section	.text._ZN8Platform14AppendAuxReplyEPKcb.part.25,"ax",%progbits
 230              		.align	1
 231              		.p2align 2,,3
 232              		.syntax unified
 233              		.thumb
 234              		.thumb_func
 235              		.fpu fpv4-sp-d16
 236              		.type	_ZN8Platform14AppendAuxReplyEPKcb.part.25, %function
 237              	_ZN8Platform14AppendAuxReplyEPKcb.part.25:
 238              		@ args = 0, pretend = 0, frame = 16
 239              		@ frame_needed = 0, uses_anonymous_args = 0
 240 0000 70B5     		push	{r4, r5, r6, lr}
 241 0002 84B0     		sub	sp, sp, #16
 242 0004 1546     		mov	r5, r2
 243 0006 0446     		mov	r4, r0
 244 0008 0E46     		mov	r6, r1
 245 000a 4FF0FF32 		mov	r2, #-1
 246 000e 00F68C11 		addw	r1, r0, #2444
 247 0012 02A8     		add	r0, sp, #8
 248 0014 FFF7FEFF 		bl	_ZN11MutexLockerC1ERK5Mutexm
 249 0018 C5B9     		cbnz	r5, .L55
 250 001a D4F89009 		ldr	r0, [r4, #2448]
 251 001e 60B1     		cbz	r0, .L56
 252              	.L47:
 253 0020 D4F89439 		ldr	r3, [r4, #2452]
 254 0024 0133     		adds	r3, r3, #1
 255 0026 3146     		mov	r1, r6
 256 0028 C4F89439 		str	r3, [r4, #2452]
 257 002c FFF7FEFF 		bl	_ZN12OutputBuffer3catEPKc
 258              	.L46:
 259 0030 02A8     		add	r0, sp, #8
 260 0032 FFF7FEFF 		bl	_ZN11MutexLockerD1Ev
 261 0036 04B0     		add	sp, sp, #16
 262              		@ sp needed
 263 0038 70BD     		pop	{r4, r5, r6, pc}
 264              	.L56:
 265 003a 04F51960 		add	r0, r4, #2448
 266 003e FFF7FEFF 		bl	_ZN12OutputBuffer8AllocateERPS_
 267 0042 0028     		cmp	r0, #0
 268 0044 F4D0     		beq	.L46
 269 0046 D4F89009 		ldr	r0, [r4, #2448]
 270 004a E9E7     		b	.L47
 271              	.L55:
 272 004c 01A8     		add	r0, sp, #4
 273 004e FFF7FEFF 		bl	_ZN12OutputBuffer8AllocateERPS_
 274 0052 0028     		cmp	r0, #0
 275 0054 ECD0     		beq	.L46
 276 0056 3146     		mov	r1, r6
 277 0058 0198     		ldr	r0, [sp, #4]
 278 005a FFF7FEFF 		bl	_ZN12OutputBuffer4copyEPKc
 279 005e 04F67810 		addw	r0, r4, #2424
 280 0062 0199     		ldr	r1, [sp, #4]
 281 0064 FFF7FEFF 		bl	_ZNV11OutputStack4PushEP12OutputBuffer
 282 0068 02A8     		add	r0, sp, #8
 283 006a FFF7FEFF 		bl	_ZN11MutexLockerD1Ev
 284 006e 04B0     		add	sp, sp, #16
 285              		@ sp needed
ARM GAS  /tmp/ccghtDyP.s 			page 6


 286 0070 70BD     		pop	{r4, r5, r6, pc}
 287              		.size	_ZN8Platform14AppendAuxReplyEPKcb.part.25, .-_ZN8Platform14AppendAuxReplyEPKcb.part.25
 288 0072 00BF     		.section	.text._ZN8Platform11AtxPowerOffEb.part.26,"ax",%progbits
 289              		.align	1
 290              		.p2align 2,,3
 291              		.syntax unified
 292              		.thumb
 293              		.thumb_func
 294              		.fpu fpv4-sp-d16
 295              		.type	_ZN8Platform11AtxPowerOffEb.part.26, %function
 296              	_ZN8Platform11AtxPowerOffEb.part.26:
 297              		@ args = 0, pretend = 0, frame = 0
 298              		@ frame_needed = 0, uses_anonymous_args = 0
 299 0000 0368     		ldr	r3, [r0]
 300 0002 0022     		movs	r2, #0
 301 0004 80F8942A 		strb	r2, [r0, #2708]
 302 0008 C3B1     		cbz	r3, .L63
 303 000a D0B5     		push	{r4, r6, r7, lr}
 304 000c 00F6F812 		addw	r2, r0, #2552
 305 0010 D2E90067 		ldrd	r6, [r2]
 306 0014 82B0     		sub	sp, sp, #8
 307 0016 0446     		mov	r4, r0
 308 0018 0A4A     		ldr	r2, .L66
 309 001a 0092     		str	r2, [sp]
 310 001c 1846     		mov	r0, r3
 311 001e 3246     		mov	r2, r6
 312 0020 3B46     		mov	r3, r7
 313 0022 FFF7FEFF 		bl	_ZN6Logger10LogMessageExPKc
 314 0026 2068     		ldr	r0, [r4]
 315 0028 0121     		movs	r1, #1
 316 002a FFF7FEFF 		bl	_ZN6Logger5FlushEb
 317 002e 0021     		movs	r1, #0
 318 0030 4F20     		movs	r0, #79
 319 0032 02B0     		add	sp, sp, #8
 320              		@ sp needed
 321 0034 BDE8D040 		pop	{r4, r6, r7, lr}
 322 0038 FFF7FEBF 		b	_ZN6IoPort12WriteDigitalEhb
 323              	.L63:
 324 003c 0021     		movs	r1, #0
 325 003e 4F20     		movs	r0, #79
 326 0040 FFF7FEBF 		b	_ZN6IoPort12WriteDigitalEhb
 327              	.L67:
 328              		.align	2
 329              	.L66:
 330 0044 00000000 		.word	.LC7
 331              		.size	_ZN8Platform11AtxPowerOffEb.part.26, .-_ZN8Platform11AtxPowerOffEb.part.26
 332              		.section	.text.UrgentInit,"ax",%progbits
 333              		.align	1
 334              		.p2align 2,,3
 335              		.global	UrgentInit
 336              		.syntax unified
 337              		.thumb
 338              		.thumb_func
 339              		.fpu fpv4-sp-d16
 340              		.type	UrgentInit, %function
 341              	UrgentInit:
 342              		@ args = 0, pretend = 0, frame = 0
ARM GAS  /tmp/ccghtDyP.s 			page 7


 343              		@ frame_needed = 0, uses_anonymous_args = 0
 344 0000 2DE9F843 		push	{r3, r4, r5, r6, r7, r8, r9, lr}
 345 0004 104C     		ldr	r4, .L73
 346 0006 DFF84880 		ldr	r8, .L73+8
 347 000a 104F     		ldr	r7, .L73+4
 348 000c 04F10B09 		add	r9, r4, #11
 349 0010 4E26     		movs	r6, #78
 350 0012 4B25     		movs	r5, #75
 351 0014 4620     		movs	r0, #70
 352 0016 05E0     		b	.L70
 353              	.L72:
 354 0018 14F8010F 		ldrb	r0, [r4, #1]!	@ zero_extendqisi2
 355 001c 18F8015F 		ldrb	r5, [r8, #1]!	@ zero_extendqisi2
 356 0020 17F8016F 		ldrb	r6, [r7, #1]!	@ zero_extendqisi2
 357              	.L70:
 358 0024 0022     		movs	r2, #0
 359 0026 0321     		movs	r1, #3
 360 0028 FFF7FEFF 		bl	pinModeDuet
 361 002c 2846     		mov	r0, r5
 362 002e 0022     		movs	r2, #0
 363 0030 0321     		movs	r1, #3
 364 0032 FFF7FEFF 		bl	pinModeDuet
 365 0036 3046     		mov	r0, r6
 366 0038 0022     		movs	r2, #0
 367 003a 0421     		movs	r1, #4
 368 003c FFF7FEFF 		bl	pinModeDuet
 369 0040 4C45     		cmp	r4, r9
 370 0042 E9D1     		bne	.L72
 371 0044 BDE8F883 		pop	{r3, r4, r5, r6, r7, r8, r9, pc}
 372              	.L74:
 373              		.align	2
 374              	.L73:
 375 0048 00000000 		.word	.LANCHOR4
 376 004c 00000000 		.word	.LANCHOR3
 377 0050 00000000 		.word	.LANCHOR5
 378              		.size	UrgentInit, .-UrgentInit
 379              		.section	.text._ZN8PlatformC2Ev,"ax",%progbits
 380              		.align	1
 381              		.p2align 2,,3
 382              		.global	_ZN8PlatformC2Ev
 383              		.syntax unified
 384              		.thumb
 385              		.thumb_func
 386              		.fpu fpv4-sp-d16
 387              		.type	_ZN8PlatformC2Ev, %function
 388              	_ZN8PlatformC2Ev:
 389              		@ args = 0, pretend = 0, frame = 0
 390              		@ frame_needed = 0, uses_anonymous_args = 0
 391 0000 2DE9F843 		push	{r3, r4, r5, r6, r7, r8, r9, lr}
 392 0004 0025     		movs	r5, #0
 393 0006 0446     		mov	r4, r0
 394 0008 0127     		movs	r7, #1
 395 000a 0560     		str	r5, [r0]
 396 000c 80F8BE50 		strb	r5, [r0, #190]
 397 0010 C0F8C050 		str	r5, [r0, #192]
 398 0014 80F8BC70 		strb	r7, [r0, #188]
 399 0018 2946     		mov	r1, r5
ARM GAS  /tmp/ccghtDyP.s 			page 8


 400 001a 3222     		movs	r2, #50
 401 001c 00F58070 		add	r0, r0, #256
 402 0020 FFF7FEFF 		bl	memset
 403 0024 84F8D853 		strb	r5, [r4, #984]
 404 0028 84F8DA53 		strb	r5, [r4, #986]
 405 002c 84F8DB53 		strb	r5, [r4, #987]
 406 0030 C4F8DC53 		str	r5, [r4, #988]
 407 0034 C4F8E053 		str	r5, [r4, #992]
 408 0038 04F20440 		addw	r0, r4, #1028
 409 003c FFF7FEFF 		bl	_ZN16ZProbeProgrammerC1Ev
 410              		.syntax unified
 411              	@ 470 "/home/torbjorn/eclipse-workspace/CoreNG/asf/thirdparty/CMSIS/Include/core_cmFunc.h" 1
 412 0040 EFF31083 		MRS r3, primask
 413              	@ 0 "" 2
 414              	@ 330 "/home/torbjorn/eclipse-workspace/CoreNG/asf/thirdparty/CMSIS/Include/core_cmFunc.h" 1
 415 0044 72B6     		cpsid i
 416              	@ 0 "" 2
 417              	@ 456 "/home/torbjorn/eclipse-workspace/CoreNG/asf/thirdparty/CMSIS/Include/core_cmInstr.h" 1
 418 0046 BFF35F8F 		dmb
 419              	@ 0 "" 2
 420              		.thumb
 421              		.syntax unified
 422 004a 514E     		ldr	r6, .L86
 423 004c 3570     		strb	r5, [r6]
 424 004e C4F84454 		str	r5, [r4, #1092]
 425 0052 C4F84054 		str	r5, [r4, #1088]
 426 0056 84F84854 		strb	r5, [r4, #1096]
 427 005a A4F83054 		strh	r5, [r4, #1072]	@ movhi
 428 005e A4F83254 		strh	r5, [r4, #1074]	@ movhi
 429 0062 A4F83454 		strh	r5, [r4, #1076]	@ movhi
 430 0066 A4F83654 		strh	r5, [r4, #1078]	@ movhi
 431 006a A4F83854 		strh	r5, [r4, #1080]	@ movhi
 432 006e A4F83A54 		strh	r5, [r4, #1082]	@ movhi
 433 0072 A4F83C54 		strh	r5, [r4, #1084]	@ movhi
 434 0076 A4F83E54 		strh	r5, [r4, #1086]	@ movhi
 435 007a 1BB9     		cbnz	r3, .L76
 436 007c 3770     		strb	r7, [r6]
 437              		.syntax unified
 438              	@ 456 "/home/torbjorn/eclipse-workspace/CoreNG/asf/thirdparty/CMSIS/Include/core_cmInstr.h" 1
 439 007e BFF35F8F 		dmb
 440              	@ 0 "" 2
 441              	@ 319 "/home/torbjorn/eclipse-workspace/CoreNG/asf/thirdparty/CMSIS/Include/core_cmFunc.h" 1
 442 0082 62B6     		cpsie i
 443              	@ 0 "" 2
 444              		.thumb
 445              		.syntax unified
 446              	.L76:
 447              		.syntax unified
 448              	@ 470 "/home/torbjorn/eclipse-workspace/CoreNG/asf/thirdparty/CMSIS/Include/core_cmFunc.h" 1
 449 0084 EFF31082 		MRS r2, primask
 450              	@ 0 "" 2
 451              	@ 330 "/home/torbjorn/eclipse-workspace/CoreNG/asf/thirdparty/CMSIS/Include/core_cmFunc.h" 1
 452 0088 72B6     		cpsid i
 453              	@ 0 "" 2
 454              	@ 456 "/home/torbjorn/eclipse-workspace/CoreNG/asf/thirdparty/CMSIS/Include/core_cmInstr.h" 1
 455 008a BFF35F8F 		dmb
 456              	@ 0 "" 2
ARM GAS  /tmp/ccghtDyP.s 			page 9


 457              		.thumb
 458              		.syntax unified
 459 008e 0023     		movs	r3, #0
 460 0090 3370     		strb	r3, [r6]
 461 0092 C4F86034 		str	r3, [r4, #1120]
 462 0096 C4F85C34 		str	r3, [r4, #1116]
 463 009a 84F86434 		strb	r3, [r4, #1124]
 464 009e A4F84C34 		strh	r3, [r4, #1100]	@ movhi
 465 00a2 A4F84E34 		strh	r3, [r4, #1102]	@ movhi
 466 00a6 A4F85034 		strh	r3, [r4, #1104]	@ movhi
 467 00aa A4F85234 		strh	r3, [r4, #1106]	@ movhi
 468 00ae A4F85434 		strh	r3, [r4, #1108]	@ movhi
 469 00b2 A4F85634 		strh	r3, [r4, #1110]	@ movhi
 470 00b6 A4F85834 		strh	r3, [r4, #1112]	@ movhi
 471 00ba A4F85A34 		strh	r3, [r4, #1114]	@ movhi
 472 00be 22B9     		cbnz	r2, .L77
 473 00c0 0123     		movs	r3, #1
 474 00c2 3370     		strb	r3, [r6]
 475              		.syntax unified
 476              	@ 456 "/home/torbjorn/eclipse-workspace/CoreNG/asf/thirdparty/CMSIS/Include/core_cmInstr.h" 1
 477 00c4 BFF35F8F 		dmb
 478              	@ 0 "" 2
 479              	@ 319 "/home/torbjorn/eclipse-workspace/CoreNG/asf/thirdparty/CMSIS/Include/core_cmFunc.h" 1
 480 00c8 62B6     		cpsie i
 481              	@ 0 "" 2
 482              		.thumb
 483              		.syntax unified
 484              	.L77:
 485 00ca 04F58D62 		add	r2, r4, #1128
 486 00ce 04F21475 		addw	r5, r4, #1812
 487 00d2 0021     		movs	r1, #0
 488 00d4 0127     		movs	r7, #1
 489              	.L80:
 490              		.syntax unified
 491              	@ 470 "/home/torbjorn/eclipse-workspace/CoreNG/asf/thirdparty/CMSIS/Include/core_cmFunc.h" 1
 492 00d6 EFF31080 		MRS r0, primask
 493              	@ 0 "" 2
 494              	@ 330 "/home/torbjorn/eclipse-workspace/CoreNG/asf/thirdparty/CMSIS/Include/core_cmFunc.h" 1
 495 00da 72B6     		cpsid i
 496              	@ 0 "" 2
 497              	@ 456 "/home/torbjorn/eclipse-workspace/CoreNG/asf/thirdparty/CMSIS/Include/core_cmInstr.h" 1
 498 00dc BFF35F8F 		dmb
 499              	@ 0 "" 2
 500              		.thumb
 501              		.syntax unified
 502 00e0 0023     		movs	r3, #0
 503 00e2 3170     		strb	r1, [r6]
 504 00e4 5164     		str	r1, [r2, #68]
 505 00e6 1164     		str	r1, [r2, #64]
 506 00e8 82F84810 		strb	r1, [r2, #72]
 507              	.L78:
 508 00ec 22F81310 		strh	r1, [r2, r3, lsl #1]	@ movhi
 509 00f0 0133     		adds	r3, r3, #1
 510 00f2 202B     		cmp	r3, #32
 511 00f4 FAD1     		bne	.L78
 512 00f6 18B9     		cbnz	r0, .L79
 513 00f8 3770     		strb	r7, [r6]
ARM GAS  /tmp/ccghtDyP.s 			page 10


 514              		.syntax unified
 515              	@ 456 "/home/torbjorn/eclipse-workspace/CoreNG/asf/thirdparty/CMSIS/Include/core_cmInstr.h" 1
 516 00fa BFF35F8F 		dmb
 517              	@ 0 "" 2
 518              	@ 319 "/home/torbjorn/eclipse-workspace/CoreNG/asf/thirdparty/CMSIS/Include/core_cmFunc.h" 1
 519 00fe 62B6     		cpsie i
 520              	@ 0 "" 2
 521              		.thumb
 522              		.syntax unified
 523              	.L79:
 524 0100 4C32     		adds	r2, r2, #76
 525 0102 9542     		cmp	r5, r2
 526 0104 E7D1     		bne	.L80
 527 0106 0026     		movs	r6, #0
 528 0108 DFF88890 		ldr	r9, .L86+4
 529 010c C4F86869 		str	r6, [r4, #2408]
 530 0110 0027     		movs	r7, #0
 531 0112 C4F87869 		str	r6, [r4, #2424]
 532 0116 C4F88C69 		str	r6, [r4, #2444]
 533 011a C4F89069 		str	r6, [r4, #2448]
 534 011e C4F89C69 		str	r6, [r4, #2460]
 535 0122 C4F8B069 		str	r6, [r4, #2480]
 536 0126 84F8C269 		strb	r6, [r4, #2498]
 537 012a C4F8C869 		str	r6, [r4, #2504]
 538 012e C4F8F469 		str	r6, [r4, #2548]
 539 0132 04F60425 		addw	r5, r4, #2564
 540 0136 04F68428 		addw	r8, r4, #2692
 541              	.L81:
 542 013a 2846     		mov	r0, r5
 543 013c FFF7FEFF 		bl	_ZN7PwmPortC1Ev
 544 0140 A81D     		adds	r0, r5, #6
 545 0142 FFF7FEFF 		bl	_ZN7PwmPortC1Ev
 546 0146 4FF0FF33 		mov	r3, #-1
 547 014a 2E73     		strb	r6, [r5, #12]
 548 014c 2F61     		str	r7, [r5, #16]	@ float
 549 014e 6F61     		str	r7, [r5, #20]	@ float
 550 0150 C5F81890 		str	r9, [r5, #24]	@ float
 551 0154 EB61     		str	r3, [r5, #28]
 552 0156 2035     		adds	r5, r5, #32
 553 0158 4545     		cmp	r5, r8
 554 015a EED1     		bne	.L81
 555 015c 04F68820 		addw	r0, r4, #2696
 556 0160 FFF7FEFF 		bl	_ZN7PwmPortC1Ev
 557 0164 04F68E20 		addw	r0, r4, #2702
 558 0168 FFF7FEFF 		bl	_ZN7PwmPortC1Ev
 559 016c 84F81D6B 		strb	r6, [r4, #2845]
 560 0170 84F81E6B 		strb	r6, [r4, #2846]
 561 0174 41F27000 		movw	r0, #4208
 562 0178 FFF7FEFF 		bl	_Znwj
 563 017c 2146     		mov	r1, r4
 564 017e 0546     		mov	r5, r0
 565 0180 FFF7FEFF 		bl	_ZN11MassStorageC1EP8Platform
 566 0184 C4F8B459 		str	r5, [r4, #2484]
 567 0188 2046     		mov	r0, r4
 568 018a BDE8F883 		pop	{r3, r4, r5, r6, r7, r8, r9, pc}
 569              	.L87:
 570 018e 00BF     		.align	2
ARM GAS  /tmp/ccghtDyP.s 			page 11


 571              	.L86:
 572 0190 00000000 		.word	g_interrupt_enabled
 573 0194 00401C46 		.word	1176256512
 574              		.size	_ZN8PlatformC2Ev, .-_ZN8PlatformC2Ev
 575              		.global	_ZN8PlatformC1Ev
 576              		.thumb_set _ZN8PlatformC1Ev,_ZN8PlatformC2Ev
 577              		.section	.text._ZN8Platform17SetZProbeDefaultsEv,"ax",%progbits
 578              		.align	1
 579              		.p2align 2,,3
 580              		.global	_ZN8Platform17SetZProbeDefaultsEv
 581              		.syntax unified
 582              		.thumb
 583              		.thumb_func
 584              		.fpu fpv4-sp-d16
 585              		.type	_ZN8Platform17SetZProbeDefaultsEv, %function
 586              	_ZN8Platform17SetZProbeDefaultsEv:
 587              		@ args = 0, pretend = 0, frame = 0
 588              		@ frame_needed = 0, uses_anonymous_args = 0
 589 0000 10B5     		push	{r4, lr}
 590 0002 2DED028B 		vpush.64	{d8}
 591 0006 9FED0C8A 		vldr.32	s16, .L90
 592 000a 9FED0C0A 		vldr.32	s0, .L90+4
 593 000e 0446     		mov	r4, r0
 594 0010 0430     		adds	r0, r0, #4
 595 0012 FFF7FEFF 		bl	_ZN6ZProbe4InitEf
 596 0016 04F13400 		add	r0, r4, #52
 597 001a B0EE480A 		vmov.f32	s0, s16
 598 001e FFF7FEFF 		bl	_ZN6ZProbe4InitEf
 599 0022 B0EE480A 		vmov.f32	s0, s16
 600 0026 BDEC028B 		vldm	sp!, {d8}
 601 002a 04F16400 		add	r0, r4, #100
 602 002e BDE81040 		pop	{r4, lr}
 603 0032 FFF7FEBF 		b	_ZN6ZProbe4InitEf
 604              	.L91:
 605 0036 00BF     		.align	2
 606              	.L90:
 607 0038 3333333F 		.word	1060320051
 608 003c 00000000 		.word	0
 609              		.size	_ZN8Platform17SetZProbeDefaultsEv, .-_ZN8Platform17SetZProbeDefaultsEv
 610              		.section	.text._ZN8Platform10InitZProbeEv,"ax",%progbits
 611              		.align	1
 612              		.p2align 2,,3
 613              		.global	_ZN8Platform10InitZProbeEv
 614              		.syntax unified
 615              		.thumb
 616              		.thumb_func
 617              		.fpu fpv4-sp-d16
 618              		.type	_ZN8Platform10InitZProbeEv, %function
 619              	_ZN8Platform10InitZProbeEv:
 620              		@ args = 0, pretend = 0, frame = 0
 621              		@ frame_needed = 0, uses_anonymous_args = 0
 622 0000 10B5     		push	{r4, lr}
 623 0002 0446     		mov	r4, r0
 624              		.syntax unified
 625              	@ 470 "/home/torbjorn/eclipse-workspace/CoreNG/asf/thirdparty/CMSIS/Include/core_cmFunc.h" 1
 626 0004 EFF31082 		MRS r2, primask
 627              	@ 0 "" 2
ARM GAS  /tmp/ccghtDyP.s 			page 12


 628              	@ 330 "/home/torbjorn/eclipse-workspace/CoreNG/asf/thirdparty/CMSIS/Include/core_cmFunc.h" 1
 629 0008 72B6     		cpsid i
 630              	@ 0 "" 2
 631              	@ 456 "/home/torbjorn/eclipse-workspace/CoreNG/asf/thirdparty/CMSIS/Include/core_cmInstr.h" 1
 632 000a BFF35F8F 		dmb
 633              	@ 0 "" 2
 634              		.thumb
 635              		.syntax unified
 636 000e 5349     		ldr	r1, .L104
 637 0010 0023     		movs	r3, #0
 638 0012 0B70     		strb	r3, [r1]
 639 0014 C0F84434 		str	r3, [r0, #1092]
 640 0018 C0F84034 		str	r3, [r0, #1088]
 641 001c 80F84834 		strb	r3, [r0, #1096]
 642 0020 A0F83034 		strh	r3, [r0, #1072]	@ movhi
 643 0024 A0F83234 		strh	r3, [r0, #1074]	@ movhi
 644 0028 A0F83434 		strh	r3, [r0, #1076]	@ movhi
 645 002c A0F83634 		strh	r3, [r0, #1078]	@ movhi
 646 0030 A0F83834 		strh	r3, [r0, #1080]	@ movhi
 647 0034 A0F83A34 		strh	r3, [r0, #1082]	@ movhi
 648 0038 A0F83C34 		strh	r3, [r0, #1084]	@ movhi
 649 003c A0F83E34 		strh	r3, [r0, #1086]	@ movhi
 650 0040 22B9     		cbnz	r2, .L93
 651 0042 0123     		movs	r3, #1
 652 0044 0B70     		strb	r3, [r1]
 653              		.syntax unified
 654              	@ 456 "/home/torbjorn/eclipse-workspace/CoreNG/asf/thirdparty/CMSIS/Include/core_cmInstr.h" 1
 655 0046 BFF35F8F 		dmb
 656              	@ 0 "" 2
 657              	@ 319 "/home/torbjorn/eclipse-workspace/CoreNG/asf/thirdparty/CMSIS/Include/core_cmFunc.h" 1
 658 004a 62B6     		cpsie i
 659              	@ 0 "" 2
 660              		.thumb
 661              		.syntax unified
 662              	.L93:
 663              		.syntax unified
 664              	@ 470 "/home/torbjorn/eclipse-workspace/CoreNG/asf/thirdparty/CMSIS/Include/core_cmFunc.h" 1
 665 004c EFF31082 		MRS r2, primask
 666              	@ 0 "" 2
 667              	@ 330 "/home/torbjorn/eclipse-workspace/CoreNG/asf/thirdparty/CMSIS/Include/core_cmFunc.h" 1
 668 0050 72B6     		cpsid i
 669              	@ 0 "" 2
 670              	@ 456 "/home/torbjorn/eclipse-workspace/CoreNG/asf/thirdparty/CMSIS/Include/core_cmInstr.h" 1
 671 0052 BFF35F8F 		dmb
 672              	@ 0 "" 2
 673              		.thumb
 674              		.syntax unified
 675 0056 0023     		movs	r3, #0
 676 0058 0B70     		strb	r3, [r1]
 677 005a C4F86034 		str	r3, [r4, #1120]
 678 005e C4F85C34 		str	r3, [r4, #1116]
 679 0062 84F86434 		strb	r3, [r4, #1124]
 680 0066 A4F84C34 		strh	r3, [r4, #1100]	@ movhi
 681 006a A4F84E34 		strh	r3, [r4, #1102]	@ movhi
 682 006e A4F85034 		strh	r3, [r4, #1104]	@ movhi
 683 0072 A4F85234 		strh	r3, [r4, #1106]	@ movhi
 684 0076 A4F85434 		strh	r3, [r4, #1108]	@ movhi
ARM GAS  /tmp/ccghtDyP.s 			page 13


 685 007a A4F85634 		strh	r3, [r4, #1110]	@ movhi
 686 007e A4F85834 		strh	r3, [r4, #1112]	@ movhi
 687 0082 A4F85A34 		strh	r3, [r4, #1114]	@ movhi
 688 0086 22B9     		cbnz	r2, .L94
 689 0088 0123     		movs	r3, #1
 690 008a 0B70     		strb	r3, [r1]
 691              		.syntax unified
 692              	@ 456 "/home/torbjorn/eclipse-workspace/CoreNG/asf/thirdparty/CMSIS/Include/core_cmInstr.h" 1
 693 008c BFF35F8F 		dmb
 694              	@ 0 "" 2
 695              	@ 319 "/home/torbjorn/eclipse-workspace/CoreNG/asf/thirdparty/CMSIS/Include/core_cmFunc.h" 1
 696 0090 62B6     		cpsie i
 697              	@ 0 "" 2
 698              		.thumb
 699              		.syntax unified
 700              	.L94:
 701 0092 94F89430 		ldrb	r3, [r4, #148]	@ zero_extendqisi2
 702 0096 94F9C109 		ldrsb	r0, [r4, #2497]
 703 009a 2222     		movs	r2, #34
 704 009c 013B     		subs	r3, r3, #1
 705 009e 84F80124 		strb	r2, [r4, #1025]
 706 00a2 062B     		cmp	r3, #6
 707 00a4 51D8     		bhi	.L95
 708 00a6 DFE803F0 		tbb	[pc, r3]
 709              	.L97:
 710 00aa 1B       		.byte	(.L96-.L97)/2
 711 00ab 1B       		.byte	(.L96-.L97)/2
 712 00ac 2C       		.byte	(.L98-.L97)/2
 713 00ad 34       		.byte	(.L99-.L97)/2
 714 00ae 50       		.byte	(.L95-.L97)/2
 715 00af 42       		.byte	(.L100-.L97)/2
 716 00b0 04       		.byte	(.L101-.L97)/2
 717 00b1 00       		.p2align 1
 718              	.L101:
 719 00b2 0021     		movs	r1, #0
 720 00b4 FFF7FEFF 		bl	_Z21AnalogInEnableChannel19AnalogChannelNumberb
 721 00b8 0022     		movs	r2, #0
 722 00ba 0121     		movs	r1, #1
 723 00bc 94F80004 		ldrb	r0, [r4, #1024]	@ zero_extendqisi2
 724 00c0 FFF7FEFF 		bl	pinModeDuet
 725 00c4 0022     		movs	r2, #0
 726 00c6 94F83401 		ldrb	r0, [r4, #308]	@ zero_extendqisi2
 727 00ca 1146     		mov	r1, r2
 728              	.L103:
 729 00cc FFF7FEFF 		bl	pinModeDuet
 730 00d0 94F80104 		ldrb	r0, [r4, #1025]	@ zero_extendqisi2
 731 00d4 0022     		movs	r2, #0
 732 00d6 0321     		movs	r1, #3
 733 00d8 BDE81040 		pop	{r4, lr}
 734 00dc FFF7FEBF 		b	pinModeDuet
 735              	.L96:
 736 00e0 0121     		movs	r1, #1
 737 00e2 FFF7FEFF 		bl	_Z21AnalogInEnableChannel19AnalogChannelNumberb
 738 00e6 94F80004 		ldrb	r0, [r4, #1024]	@ zero_extendqisi2
 739 00ea 0022     		movs	r2, #0
 740 00ec 0521     		movs	r1, #5
 741 00ee FFF7FEFF 		bl	pinModeDuet
ARM GAS  /tmp/ccghtDyP.s 			page 14


 742 00f2 94F80104 		ldrb	r0, [r4, #1025]	@ zero_extendqisi2
 743 00f6 0022     		movs	r2, #0
 744 00f8 0421     		movs	r1, #4
 745 00fa BDE81040 		pop	{r4, lr}
 746 00fe FFF7FEBF 		b	pinModeDuet
 747              	.L98:
 748 0102 0121     		movs	r1, #1
 749 0104 FFF7FEFF 		bl	_Z21AnalogInEnableChannel19AnalogChannelNumberb
 750 0108 0022     		movs	r2, #0
 751 010a 0521     		movs	r1, #5
 752 010c 94F80004 		ldrb	r0, [r4, #1024]	@ zero_extendqisi2
 753 0110 DCE7     		b	.L103
 754              	.L99:
 755 0112 0021     		movs	r1, #0
 756 0114 FFF7FEFF 		bl	_Z21AnalogInEnableChannel19AnalogChannelNumberb
 757 0118 0022     		movs	r2, #0
 758 011a 0121     		movs	r1, #1
 759 011c 94F80004 		ldrb	r0, [r4, #1024]	@ zero_extendqisi2
 760 0120 FFF7FEFF 		bl	pinModeDuet
 761 0124 0022     		movs	r2, #0
 762 0126 1146     		mov	r1, r2
 763 0128 94F83501 		ldrb	r0, [r4, #309]	@ zero_extendqisi2
 764 012c CEE7     		b	.L103
 765              	.L100:
 766 012e 0021     		movs	r1, #0
 767 0130 FFF7FEFF 		bl	_Z21AnalogInEnableChannel19AnalogChannelNumberb
 768 0134 0022     		movs	r2, #0
 769 0136 0121     		movs	r1, #1
 770 0138 94F80004 		ldrb	r0, [r4, #1024]	@ zero_extendqisi2
 771 013c FFF7FEFF 		bl	pinModeDuet
 772 0140 0022     		movs	r2, #0
 773 0142 1146     		mov	r1, r2
 774 0144 94F83601 		ldrb	r0, [r4, #310]	@ zero_extendqisi2
 775 0148 C0E7     		b	.L103
 776              	.L95:
 777 014a 0021     		movs	r1, #0
 778 014c FFF7FEFF 		bl	_Z21AnalogInEnableChannel19AnalogChannelNumberb
 779 0150 0022     		movs	r2, #0
 780 0152 0121     		movs	r1, #1
 781 0154 94F80004 		ldrb	r0, [r4, #1024]	@ zero_extendqisi2
 782 0158 B8E7     		b	.L103
 783              	.L105:
 784 015a 00BF     		.align	2
 785              	.L104:
 786 015c 00000000 		.word	g_interrupt_enabled
 787              		.size	_ZN8Platform10InitZProbeEv, .-_ZN8Platform10InitZProbeEv
 788              		.section	.text._ZNK8Platform16GetZProbeReadingEv,"ax",%progbits
 789              		.align	1
 790              		.p2align 2,,3
 791              		.global	_ZNK8Platform16GetZProbeReadingEv
 792              		.syntax unified
 793              		.thumb
 794              		.thumb_func
 795              		.fpu fpv4-sp-d16
 796              		.type	_ZNK8Platform16GetZProbeReadingEv, %function
 797              	_ZNK8Platform16GetZProbeReadingEv:
 798              		@ args = 0, pretend = 0, frame = 0
ARM GAS  /tmp/ccghtDyP.s 			page 15


 799              		@ frame_needed = 0, uses_anonymous_args = 0
 800 0000 70B5     		push	{r4, r5, r6, lr}
 801 0002 90F89430 		ldrb	r3, [r0, #148]	@ zero_extendqisi2
 802 0006 082B     		cmp	r3, #8
 803 0008 0446     		mov	r4, r0
 804 000a 5DD0     		beq	.L107
 805 000c 90F84824 		ldrb	r2, [r0, #1096]	@ zero_extendqisi2
 806 0010 02F0FF00 		and	r0, r2, #255
 807 0014 CAB1     		cbz	r2, .L108
 808 0016 94F86424 		ldrb	r2, [r4, #1124]	@ zero_extendqisi2
 809 001a 02F0FF00 		and	r0, r2, #255
 810 001e A2B1     		cbz	r2, .L108
 811 0020 5A1E     		subs	r2, r3, #1
 812 0022 092A     		cmp	r2, #9
 813 0024 43D8     		bhi	.L129
 814 0026 DFE802F0 		tbb	[pc, r2]
 815              	.L111:
 816 002a 19       		.byte	(.L110-.L111)/2
 817 002b 2A       		.byte	(.L112-.L111)/2
 818 002c 19       		.byte	(.L110-.L111)/2
 819 002d 19       		.byte	(.L110-.L111)/2
 820 002e 19       		.byte	(.L110-.L111)/2
 821 002f 19       		.byte	(.L110-.L111)/2
 822 0030 19       		.byte	(.L110-.L111)/2
 823 0031 42       		.byte	(.L129-.L111)/2
 824 0032 19       		.byte	(.L110-.L111)/2
 825 0033 34       		.byte	(.L113-.L111)/2
 826              		.p2align 1
 827              	.L140:
 828 0034 58B3     		cbz	r0, .L119
 829 0036 0021     		movs	r1, #0
 830 0038 2046     		mov	r0, r4
 831 003a FFF7FEFF 		bl	_ZNK8Platform19AnyAxisMotorStalledEj.part.18
 832 003e 0028     		cmp	r0, #0
 833 0040 4ED0     		beq	.L120
 834 0042 94F89430 		ldrb	r3, [r4, #148]	@ zero_extendqisi2
 835 0046 4FF47A70 		mov	r0, #1000
 836              	.L108:
 837 004a 0A2B     		cmp	r3, #10
 838 004c 0CD9     		bls	.L114
 839              	.L124:
 840 004e 0434     		adds	r4, r4, #4
 841              	.L126:
 842 0050 94F82D30 		ldrb	r3, [r4, #45]	@ zero_extendqisi2
 843 0054 0BB1     		cbz	r3, .L106
 844 0056 C0F57A70 		rsb	r0, r0, #1000
 845              	.L106:
 846 005a 70BD     		pop	{r4, r5, r6, pc}
 847              	.L110:
 848 005c D4F84404 		ldr	r0, [r4, #1092]
 849 0060 D4F86024 		ldr	r2, [r4, #1120]
 850 0064 1044     		add	r0, r0, r2
 851 0066 8009     		lsrs	r0, r0, #6
 852              	.L114:
 853 0068 0122     		movs	r2, #1
 854 006a 02FA03F3 		lsl	r3, r2, r3
 855 006e 40F22672 		movw	r2, #1830
ARM GAS  /tmp/ccghtDyP.s 			page 16


 856 0072 1342     		tst	r3, r2
 857 0074 0BD1     		bne	.L119
 858 0076 1B07     		lsls	r3, r3, #28
 859 0078 E9D5     		bpl	.L124
 860 007a 6434     		adds	r4, r4, #100
 861 007c E8E7     		b	.L126
 862              	.L112:
 863 007e D4F84404 		ldr	r0, [r4, #1092]
 864 0082 D4F86034 		ldr	r3, [r4, #1120]
 865 0086 C01A     		subs	r0, r0, r3
 866 0088 48BF     		it	mi
 867 008a 1F30     		addmi	r0, r0, #31
 868 008c 4011     		asrs	r0, r0, #5
 869              	.L119:
 870 008e 3434     		adds	r4, r4, #52
 871 0090 DEE7     		b	.L126
 872              	.L113:
 873 0092 174D     		ldr	r5, .L141
 874 0094 AB68     		ldr	r3, [r5, #8]
 875 0096 2A69     		ldr	r2, [r5, #16]	@ unaligned
 876 0098 D3F8583A 		ldr	r3, [r3, #2648]
 877 009c D2F89802 		ldr	r0, [r2, #664]
 878 00a0 9E7B     		ldrb	r6, [r3, #14]	@ zero_extendqisi2
 879 00a2 022E     		cmp	r6, #2
 880 00a4 C6D0     		beq	.L140
 881 00a6 0228     		cmp	r0, #2
 882 00a8 03D8     		bhi	.L139
 883 00aa 0020     		movs	r0, #0
 884 00ac EFE7     		b	.L119
 885              	.L129:
 886 00ae 0020     		movs	r0, #0
 887 00b0 70BD     		pop	{r4, r5, r6, pc}
 888              	.L139:
 889 00b2 0221     		movs	r1, #2
 890 00b4 2046     		mov	r0, r4
 891 00b6 FFF7FEFF 		bl	_ZNK8Platform19AnyAxisMotorStalledEj.part.18
 892 00ba 94F89430 		ldrb	r3, [r4, #148]	@ zero_extendqisi2
 893 00be 0028     		cmp	r0, #0
 894 00c0 C3D0     		beq	.L108
 895 00c2 4FF47A70 		mov	r0, #1000
 896 00c6 C0E7     		b	.L108
 897              	.L107:
 898 00c8 90F80004 		ldrb	r0, [r0, #1024]	@ zero_extendqisi2
 899 00cc FFF7FEFF 		bl	_ZN6IoPort7ReadPinEh
 900 00d0 0028     		cmp	r0, #0
 901 00d2 0CBF     		ite	eq
 902 00d4 0020     		moveq	r0, #0
 903 00d6 4FF47A70 		movne	r0, #1000
 904 00da 94F89430 		ldrb	r3, [r4, #148]	@ zero_extendqisi2
 905 00de B4E7     		b	.L108
 906              	.L120:
 907 00e0 2B69     		ldr	r3, [r5, #16]
 908 00e2 D3F89832 		ldr	r3, [r3, #664]
 909 00e6 022B     		cmp	r3, #2
 910 00e8 E3D8     		bhi	.L139
 911 00ea 94F89430 		ldrb	r3, [r4, #148]	@ zero_extendqisi2
 912 00ee ACE7     		b	.L108
ARM GAS  /tmp/ccghtDyP.s 			page 17


 913              	.L142:
 914              		.align	2
 915              	.L141:
 916 00f0 00000000 		.word	reprap
 917              		.size	_ZNK8Platform16GetZProbeReadingEv, .-_ZNK8Platform16GetZProbeReadingEv
 918              		.section	.text._ZN8Platform24GetZProbeSecondaryValuesERiS0_,"ax",%progbits
 919              		.align	1
 920              		.p2align 2,,3
 921              		.global	_ZN8Platform24GetZProbeSecondaryValuesERiS0_
 922              		.syntax unified
 923              		.thumb
 924              		.thumb_func
 925              		.fpu fpv4-sp-d16
 926              		.type	_ZN8Platform24GetZProbeSecondaryValuesERiS0_, %function
 927              	_ZN8Platform24GetZProbeSecondaryValuesERiS0_:
 928              		@ args = 0, pretend = 0, frame = 0
 929              		@ frame_needed = 0, uses_anonymous_args = 0
 930              		@ link register save eliminated.
 931 0000 90F84824 		ldrb	r2, [r0, #1096]	@ zero_extendqisi2
 932 0004 62B1     		cbz	r2, .L149
 933 0006 90F86424 		ldrb	r2, [r0, #1124]	@ zero_extendqisi2
 934 000a 4AB1     		cbz	r2, .L149
 935 000c 90F89430 		ldrb	r3, [r0, #148]	@ zero_extendqisi2
 936 0010 022B     		cmp	r3, #2
 937 0012 05D1     		bne	.L149
 938 0014 D0F84434 		ldr	r3, [r0, #1092]
 939 0018 5B09     		lsrs	r3, r3, #5
 940 001a 0B60     		str	r3, [r1]
 941 001c 0120     		movs	r0, #1
 942 001e 7047     		bx	lr
 943              	.L149:
 944 0020 0020     		movs	r0, #0
 945 0022 7047     		bx	lr
 946              		.size	_ZN8Platform24GetZProbeSecondaryValuesERiS0_, .-_ZN8Platform24GetZProbeSecondaryValuesERiS0_
 947              		.section	.text._ZN8Platform20GetZProbeTemperatureEv,"ax",%progbits
 948              		.align	1
 949              		.p2align 2,,3
 950              		.global	_ZN8Platform20GetZProbeTemperatureEv
 951              		.syntax unified
 952              		.thumb
 953              		.thumb_func
 954              		.fpu fpv4-sp-d16
 955              		.type	_ZN8Platform20GetZProbeTemperatureEv, %function
 956              	_ZN8Platform20GetZProbeTemperatureEv:
 957              		@ args = 0, pretend = 0, frame = 8
 958              		@ frame_needed = 0, uses_anonymous_args = 0
 959 0000 30B5     		push	{r4, r5, lr}
 960 0002 0E4D     		ldr	r5, .L159
 961 0004 83B0     		sub	sp, sp, #12
 962 0006 0024     		movs	r4, #0
 963              	.L154:
 964 0008 E868     		ldr	r0, [r5, #12]
 965 000a 0319     		adds	r3, r0, r4
 966 000c 0DF10702 		add	r2, sp, #7
 967 0010 93F9D230 		ldrsb	r3, [r3, #210]
 968 0014 002B     		cmp	r3, #0
 969 0016 1946     		mov	r1, r3
ARM GAS  /tmp/ccghtDyP.s 			page 18


 970 0018 04F10104 		add	r4, r4, #1
 971 001c 05DA     		bge	.L158
 972              	.L151:
 973 001e 042C     		cmp	r4, #4
 974 0020 F2D1     		bne	.L154
 975 0022 B3EE090A 		vmov.f32	s0, #2.5e+1
 976 0026 03B0     		add	sp, sp, #12
 977              		@ sp needed
 978 0028 30BD     		pop	{r4, r5, pc}
 979              	.L158:
 980 002a FFF7FEFF 		bl	_ZN4Heat14GetTemperatureEjR16TemperatureError
 981 002e 9DF80730 		ldrb	r3, [sp, #7]	@ zero_extendqisi2
 982 0032 002B     		cmp	r3, #0
 983 0034 F3D1     		bne	.L151
 984 0036 03B0     		add	sp, sp, #12
 985              		@ sp needed
 986 0038 30BD     		pop	{r4, r5, pc}
 987              	.L160:
 988 003a 00BF     		.align	2
 989              	.L159:
 990 003c 00000000 		.word	reprap
 991              		.size	_ZN8Platform20GetZProbeTemperatureEv, .-_ZN8Platform20GetZProbeTemperatureEv
 992              		.section	.text._ZN8Platform16ZProbeStopHeightEv,"ax",%progbits
 993              		.align	1
 994              		.p2align 2,,3
 995              		.global	_ZN8Platform16ZProbeStopHeightEv
 996              		.syntax unified
 997              		.thumb
 998              		.thumb_func
 999              		.fpu fpv4-sp-d16
 1000              		.type	_ZN8Platform16ZProbeStopHeightEv, %function
 1001              	_ZN8Platform16ZProbeStopHeightEv:
 1002              		@ args = 0, pretend = 0, frame = 0
 1003              		@ frame_needed = 0, uses_anonymous_args = 0
 1004 0000 10B5     		push	{r4, lr}
 1005 0002 90F89430 		ldrb	r3, [r0, #148]	@ zero_extendqisi2
 1006 0006 0A2B     		cmp	r3, #10
 1007 0008 08D8     		bhi	.L162
 1008 000a 0122     		movs	r2, #1
 1009 000c 02FA03F3 		lsl	r3, r2, r3
 1010 0010 40F22672 		movw	r2, #1830
 1011 0014 1342     		tst	r3, r2
 1012 0016 09D1     		bne	.L163
 1013 0018 1B07     		lsls	r3, r3, #28
 1014 001a 10D4     		bmi	.L167
 1015              	.L162:
 1016 001c 041D     		adds	r4, r0, #4
 1017 001e FFF7FEFF 		bl	_ZN8Platform20GetZProbeTemperatureEv
 1018 0022 2046     		mov	r0, r4
 1019 0024 BDE81040 		pop	{r4, lr}
 1020 0028 FFF7FEBF 		b	_ZNK6ZProbe13GetStopHeightEf
 1021              	.L163:
 1022 002c 00F13404 		add	r4, r0, #52
 1023 0030 FFF7FEFF 		bl	_ZN8Platform20GetZProbeTemperatureEv
 1024 0034 2046     		mov	r0, r4
 1025 0036 BDE81040 		pop	{r4, lr}
 1026 003a FFF7FEBF 		b	_ZNK6ZProbe13GetStopHeightEf
ARM GAS  /tmp/ccghtDyP.s 			page 19


 1027              	.L167:
 1028 003e 00F16404 		add	r4, r0, #100
 1029 0042 FFF7FEFF 		bl	_ZN8Platform20GetZProbeTemperatureEv
 1030 0046 2046     		mov	r0, r4
 1031 0048 BDE81040 		pop	{r4, lr}
 1032 004c FFF7FEBF 		b	_ZNK6ZProbe13GetStopHeightEf
 1033              		.size	_ZN8Platform16ZProbeStopHeightEv, .-_ZN8Platform16ZProbeStopHeightEv
 1034              		.section	.text._ZNK8Platform19GetZProbeDiveHeightEv,"ax",%progbits
 1035              		.align	1
 1036              		.p2align 2,,3
 1037              		.global	_ZNK8Platform19GetZProbeDiveHeightEv
 1038              		.syntax unified
 1039              		.thumb
 1040              		.thumb_func
 1041              		.fpu fpv4-sp-d16
 1042              		.type	_ZNK8Platform19GetZProbeDiveHeightEv, %function
 1043              	_ZNK8Platform19GetZProbeDiveHeightEv:
 1044              		@ args = 0, pretend = 0, frame = 0
 1045              		@ frame_needed = 0, uses_anonymous_args = 0
 1046              		@ link register save eliminated.
 1047 0000 90F89430 		ldrb	r3, [r0, #148]	@ zero_extendqisi2
 1048 0004 0A2B     		cmp	r3, #10
 1049 0006 08D8     		bhi	.L169
 1050 0008 0122     		movs	r2, #1
 1051 000a 02FA03F3 		lsl	r3, r2, r3
 1052 000e 40F22672 		movw	r2, #1830
 1053 0012 1342     		tst	r3, r2
 1054 0014 05D1     		bne	.L170
 1055 0016 1B07     		lsls	r3, r3, #28
 1056 0018 07D4     		bmi	.L173
 1057              	.L169:
 1058 001a 0430     		adds	r0, r0, #4
 1059 001c 90ED060A 		vldr.32	s0, [r0, #24]
 1060 0020 7047     		bx	lr
 1061              	.L170:
 1062 0022 3430     		adds	r0, r0, #52
 1063 0024 90ED060A 		vldr.32	s0, [r0, #24]
 1064 0028 7047     		bx	lr
 1065              	.L173:
 1066 002a 6430     		adds	r0, r0, #100
 1067 002c 90ED060A 		vldr.32	s0, [r0, #24]
 1068 0030 7047     		bx	lr
 1069              		.size	_ZNK8Platform19GetZProbeDiveHeightEv, .-_ZNK8Platform19GetZProbeDiveHeightEv
 1070 0032 00BF     		.section	.text._ZN8Platform23GetZProbeStartingHeightEv,"ax",%progbits
 1071              		.align	1
 1072              		.p2align 2,,3
 1073              		.global	_ZN8Platform23GetZProbeStartingHeightEv
 1074              		.syntax unified
 1075              		.thumb
 1076              		.thumb_func
 1077              		.fpu fpv4-sp-d16
 1078              		.type	_ZN8Platform23GetZProbeStartingHeightEv, %function
 1079              	_ZN8Platform23GetZProbeStartingHeightEv:
 1080              		@ args = 0, pretend = 0, frame = 0
 1081              		@ frame_needed = 0, uses_anonymous_args = 0
 1082 0000 10B5     		push	{r4, lr}
 1083 0002 2DED028B 		vpush.64	{d8}
ARM GAS  /tmp/ccghtDyP.s 			page 20


 1084 0006 90F89430 		ldrb	r3, [r0, #148]	@ zero_extendqisi2
 1085 000a 0A2B     		cmp	r3, #10
 1086 000c 08D8     		bhi	.L175
 1087 000e 0122     		movs	r2, #1
 1088 0010 02FA03F3 		lsl	r3, r2, r3
 1089 0014 40F22672 		movw	r2, #1830
 1090 0018 1342     		tst	r3, r2
 1091 001a 1AD1     		bne	.L176
 1092 001c 1B07     		lsls	r3, r3, #28
 1093 001e 1BD4     		bmi	.L177
 1094              	.L175:
 1095 0020 041D     		adds	r4, r0, #4
 1096              	.L178:
 1097 0022 94ED068A 		vldr.32	s16, [r4, #24]
 1098 0026 FFF7FEFF 		bl	_ZN8Platform20GetZProbeTemperatureEv
 1099 002a 2046     		mov	r0, r4
 1100 002c FFF7FEFF 		bl	_ZNK6ZProbe13GetStopHeightEf
 1101 0030 B4EE400A 		vcmp.f32	s0, s0
 1102 0034 F1EE10FA 		vmrs	APSR_nzcv, FPSCR
 1103 0038 06D6     		bvs	.L179
 1104 003a B5EEC00A 		vcmpe.f32	s0, #0
 1105 003e F1EE10FA 		vmrs	APSR_nzcv, FPSCR
 1106 0042 D8BF     		it	le
 1107 0044 9FED060A 		vldrle.32	s0, .L181
 1108              	.L179:
 1109 0048 38EE000A 		vadd.f32	s0, s16, s0
 1110 004c BDEC028B 		vldm	sp!, {d8}
 1111 0050 10BD     		pop	{r4, pc}
 1112              	.L176:
 1113 0052 00F13404 		add	r4, r0, #52
 1114 0056 E4E7     		b	.L178
 1115              	.L177:
 1116 0058 00F16404 		add	r4, r0, #100
 1117 005c E1E7     		b	.L178
 1118              	.L182:
 1119 005e 00BF     		.align	2
 1120              	.L181:
 1121 0060 00000000 		.word	0
 1122              		.size	_ZN8Platform23GetZProbeStartingHeightEv, .-_ZN8Platform23GetZProbeStartingHeightEv
 1123              		.section	.text._ZNK8Platform20GetZProbeTravelSpeedEv,"ax",%progbits
 1124              		.align	1
 1125              		.p2align 2,,3
 1126              		.global	_ZNK8Platform20GetZProbeTravelSpeedEv
 1127              		.syntax unified
 1128              		.thumb
 1129              		.thumb_func
 1130              		.fpu fpv4-sp-d16
 1131              		.type	_ZNK8Platform20GetZProbeTravelSpeedEv, %function
 1132              	_ZNK8Platform20GetZProbeTravelSpeedEv:
 1133              		@ args = 0, pretend = 0, frame = 0
 1134              		@ frame_needed = 0, uses_anonymous_args = 0
 1135              		@ link register save eliminated.
 1136 0000 90F89430 		ldrb	r3, [r0, #148]	@ zero_extendqisi2
 1137 0004 0A2B     		cmp	r3, #10
 1138 0006 08D8     		bhi	.L184
 1139 0008 0122     		movs	r2, #1
 1140 000a 02FA03F3 		lsl	r3, r2, r3
ARM GAS  /tmp/ccghtDyP.s 			page 21


 1141 000e 40F22672 		movw	r2, #1830
 1142 0012 1342     		tst	r3, r2
 1143 0014 05D1     		bne	.L185
 1144 0016 1B07     		lsls	r3, r3, #28
 1145 0018 07D4     		bmi	.L188
 1146              	.L184:
 1147 001a 0430     		adds	r0, r0, #4
 1148 001c 90ED080A 		vldr.32	s0, [r0, #32]
 1149 0020 7047     		bx	lr
 1150              	.L185:
 1151 0022 3430     		adds	r0, r0, #52
 1152 0024 90ED080A 		vldr.32	s0, [r0, #32]
 1153 0028 7047     		bx	lr
 1154              	.L188:
 1155 002a 6430     		adds	r0, r0, #100
 1156 002c 90ED080A 		vldr.32	s0, [r0, #32]
 1157 0030 7047     		bx	lr
 1158              		.size	_ZNK8Platform20GetZProbeTravelSpeedEv, .-_ZNK8Platform20GetZProbeTravelSpeedEv
 1159 0032 00BF     		.section	.text._ZN8Platform13SetZProbeTypeEj,"ax",%progbits
 1160              		.align	1
 1161              		.p2align 2,,3
 1162              		.global	_ZN8Platform13SetZProbeTypeEj
 1163              		.syntax unified
 1164              		.thumb
 1165              		.thumb_func
 1166              		.fpu fpv4-sp-d16
 1167              		.type	_ZN8Platform13SetZProbeTypeEj, %function
 1168              	_ZN8Platform13SetZProbeTypeEj:
 1169              		@ args = 0, pretend = 0, frame = 0
 1170              		@ frame_needed = 0, uses_anonymous_args = 0
 1171              		@ link register save eliminated.
 1172 0000 0A29     		cmp	r1, #10
 1173 0002 88BF     		it	hi
 1174 0004 0021     		movhi	r1, #0
 1175 0006 80F89410 		strb	r1, [r0, #148]
 1176 000a FFF7FEBF 		b	_ZN8Platform10InitZProbeEv
 1177              		.size	_ZN8Platform13SetZProbeTypeEj, .-_ZN8Platform13SetZProbeTypeEj
 1178 000e 00BF     		.section	.text._ZN8Platform10SetProbingEb,"ax",%progbits
 1179              		.align	1
 1180              		.p2align 2,,3
 1181              		.global	_ZN8Platform10SetProbingEb
 1182              		.syntax unified
 1183              		.thumb
 1184              		.thumb_func
 1185              		.fpu fpv4-sp-d16
 1186              		.type	_ZN8Platform10SetProbingEb, %function
 1187              	_ZN8Platform10SetProbingEb:
 1188              		@ args = 0, pretend = 0, frame = 0
 1189              		@ frame_needed = 0, uses_anonymous_args = 0
 1190              		@ link register save eliminated.
 1191 0000 90F89430 		ldrb	r3, [r0, #148]	@ zero_extendqisi2
 1192 0004 032B     		cmp	r3, #3
 1193 0006 00D8     		bhi	.L193
 1194 0008 7047     		bx	lr
 1195              	.L193:
 1196 000a 90F80104 		ldrb	r0, [r0, #1025]	@ zero_extendqisi2
 1197 000e FFF7FEBF 		b	digitalWrite
ARM GAS  /tmp/ccghtDyP.s 			page 22


 1198              		.size	_ZN8Platform10SetProbingEb, .-_ZN8Platform10SetProbingEb
 1199 0012 00BF     		.section	.text._ZNK8Platform19GetZProbeParametersE10ZProbeType,"ax",%progbits
 1200              		.align	1
 1201              		.p2align 2,,3
 1202              		.global	_ZNK8Platform19GetZProbeParametersE10ZProbeType
 1203              		.syntax unified
 1204              		.thumb
 1205              		.thumb_func
 1206              		.fpu fpv4-sp-d16
 1207              		.type	_ZNK8Platform19GetZProbeParametersE10ZProbeType, %function
 1208              	_ZNK8Platform19GetZProbeParametersE10ZProbeType:
 1209              		@ args = 0, pretend = 0, frame = 0
 1210              		@ frame_needed = 0, uses_anonymous_args = 0
 1211              		@ link register save eliminated.
 1212 0000 0A29     		cmp	r1, #10
 1213 0002 08D8     		bhi	.L195
 1214 0004 0123     		movs	r3, #1
 1215 0006 03FA01F1 		lsl	r1, r3, r1
 1216 000a 40F22673 		movw	r3, #1830
 1217 000e 1942     		tst	r1, r3
 1218 0010 03D1     		bne	.L196
 1219 0012 0B07     		lsls	r3, r1, #28
 1220 0014 03D4     		bmi	.L199
 1221              	.L195:
 1222 0016 0430     		adds	r0, r0, #4
 1223 0018 7047     		bx	lr
 1224              	.L196:
 1225 001a 3430     		adds	r0, r0, #52
 1226 001c 7047     		bx	lr
 1227              	.L199:
 1228 001e 6430     		adds	r0, r0, #100
 1229 0020 7047     		bx	lr
 1230              		.size	_ZNK8Platform19GetZProbeParametersE10ZProbeType, .-_ZNK8Platform19GetZProbeParametersE10ZPro
 1231 0022 00BF     		.section	.text._ZN8Platform19SetZProbeParametersE10ZProbeTypeRK6ZProbe,"ax",%progbits
 1232              		.align	1
 1233              		.p2align 2,,3
 1234              		.global	_ZN8Platform19SetZProbeParametersE10ZProbeTypeRK6ZProbe
 1235              		.syntax unified
 1236              		.thumb
 1237              		.thumb_func
 1238              		.fpu fpv4-sp-d16
 1239              		.type	_ZN8Platform19SetZProbeParametersE10ZProbeTypeRK6ZProbe, %function
 1240              	_ZN8Platform19SetZProbeParametersE10ZProbeTypeRK6ZProbe:
 1241              		@ args = 0, pretend = 0, frame = 0
 1242              		@ frame_needed = 0, uses_anonymous_args = 0
 1243              		@ link register save eliminated.
 1244 0000 0A29     		cmp	r1, #10
 1245 0002 30B4     		push	{r4, r5}
 1246 0004 0446     		mov	r4, r0
 1247 0006 08D8     		bhi	.L201
 1248 0008 0123     		movs	r3, #1
 1249 000a 03FA01F1 		lsl	r1, r3, r1
 1250 000e 40F22673 		movw	r3, #1830
 1251 0012 1942     		tst	r1, r3
 1252 0014 0DD1     		bne	.L202
 1253 0016 0B07     		lsls	r3, r1, #28
 1254 0018 0FD4     		bmi	.L207
ARM GAS  /tmp/ccghtDyP.s 			page 23


 1255              	.L201:
 1256 001a 1546     		mov	r5, r2
 1257 001c 0FCD     		ldmia	r5!, {r0, r1, r2, r3}
 1258 001e 0434     		adds	r4, r4, #4
 1259              	.L206:
 1260 0020 0FC4     		stmia	r4!, {r0, r1, r2, r3}
 1261 0022 0FCD     		ldmia	r5!, {r0, r1, r2, r3}
 1262 0024 0FC4     		stmia	r4!, {r0, r1, r2, r3}
 1263 0026 95E80F00 		ldm	r5, {r0, r1, r2, r3}
 1264 002a 84E80F00 		stm	r4, {r0, r1, r2, r3}
 1265 002e 30BC     		pop	{r4, r5}
 1266 0030 7047     		bx	lr
 1267              	.L202:
 1268 0032 1546     		mov	r5, r2
 1269 0034 0FCD     		ldmia	r5!, {r0, r1, r2, r3}
 1270 0036 3434     		adds	r4, r4, #52
 1271 0038 F2E7     		b	.L206
 1272              	.L207:
 1273 003a 1546     		mov	r5, r2
 1274 003c 0FCD     		ldmia	r5!, {r0, r1, r2, r3}
 1275 003e 6434     		adds	r4, r4, #100
 1276 0040 EEE7     		b	.L206
 1277              		.size	_ZN8Platform19SetZProbeParametersE10ZProbeTypeRK6ZProbe, .-_ZN8Platform19SetZProbeParameters
 1278 0042 00BF     		.section	.text._ZN8Platform13ProgramZProbeER11GCodeBufferRK9StringRef,"ax",%progbits
 1279              		.align	1
 1280              		.p2align 2,,3
 1281              		.global	_ZN8Platform13ProgramZProbeER11GCodeBufferRK9StringRef
 1282              		.syntax unified
 1283              		.thumb
 1284              		.thumb_func
 1285              		.fpu fpv4-sp-d16
 1286              		.type	_ZN8Platform13ProgramZProbeER11GCodeBufferRK9StringRef, %function
 1287              	_ZN8Platform13ProgramZProbeER11GCodeBufferRK9StringRef:
 1288              		@ args = 0, pretend = 0, frame = 40
 1289              		@ frame_needed = 0, uses_anonymous_args = 0
 1290 0000 2DE9F041 		push	{r4, r5, r6, r7, r8, lr}
 1291 0004 0E46     		mov	r6, r1
 1292 0006 8AB0     		sub	sp, sp, #40
 1293 0008 8046     		mov	r8, r0
 1294 000a 5321     		movs	r1, #83
 1295 000c 3046     		mov	r0, r6
 1296 000e 1746     		mov	r7, r2
 1297 0010 FFF7FEFF 		bl	_ZN11GCodeBuffer4SeenEc
 1298 0014 18B3     		cbz	r0, .L209
 1299 0016 0AAA     		add	r2, sp, #40
 1300 0018 0823     		movs	r3, #8
 1301 001a 0DEB0305 		add	r5, sp, r3
 1302 001e 42F8243D 		str	r3, [r2, #-36]!
 1303 0022 0446     		mov	r4, r0
 1304 0024 2946     		mov	r1, r5
 1305 0026 3046     		mov	r0, r6
 1306 0028 0023     		movs	r3, #0
 1307 002a FFF7FEFF 		bl	_ZN11GCodeBuffer16GetUnsignedArrayEPmRjb
 1308 002e 019A     		ldr	r2, [sp, #4]
 1309 0030 AAB1     		cbz	r2, .L209
 1310 0032 029B     		ldr	r3, [sp, #8]
 1311 0034 FF2B     		cmp	r3, #255
ARM GAS  /tmp/ccghtDyP.s 			page 24


 1312 0036 1BD8     		bhi	.L211
 1313 0038 0023     		movs	r3, #0
 1314 003a 03E0     		b	.L212
 1315              	.L214:
 1316 003c 55F82310 		ldr	r1, [r5, r3, lsl #2]
 1317 0040 FF29     		cmp	r1, #255
 1318 0042 15D8     		bhi	.L211
 1319              	.L212:
 1320 0044 0133     		adds	r3, r3, #1
 1321 0046 9A42     		cmp	r2, r3
 1322 0048 F8D1     		bne	.L214
 1323 004a 08F20440 		addw	r0, r8, #1028
 1324 004e 2946     		mov	r1, r5
 1325 0050 FFF7FEFF 		bl	_ZN16ZProbeProgrammer11SendProgramEPKmj
 1326 0054 0024     		movs	r4, #0
 1327 0056 2046     		mov	r0, r4
 1328 0058 0AB0     		add	sp, sp, #40
 1329              		@ sp needed
 1330 005a BDE8F081 		pop	{r4, r5, r6, r7, r8, pc}
 1331              	.L209:
 1332 005e 3846     		mov	r0, r7
 1333 0060 0749     		ldr	r1, .L224
 1334 0062 FFF7FEFF 		bl	_ZNK9StringRef4copyEPKc
 1335 0066 0124     		movs	r4, #1
 1336 0068 2046     		mov	r0, r4
 1337 006a 0AB0     		add	sp, sp, #40
 1338              		@ sp needed
 1339 006c BDE8F081 		pop	{r4, r5, r6, r7, r8, pc}
 1340              	.L211:
 1341 0070 3846     		mov	r0, r7
 1342 0072 0449     		ldr	r1, .L224+4
 1343 0074 FFF7FEFF 		bl	_ZNK9StringRef4copyEPKc
 1344 0078 2046     		mov	r0, r4
 1345 007a 0AB0     		add	sp, sp, #40
 1346              		@ sp needed
 1347 007c BDE8F081 		pop	{r4, r5, r6, r7, r8, pc}
 1348              	.L225:
 1349              		.align	2
 1350              	.L224:
 1351 0080 24000000 		.word	.LC9
 1352 0084 00000000 		.word	.LC8
 1353              		.size	_ZN8Platform13ProgramZProbeER11GCodeBufferRK9StringRef, .-_ZN8Platform13ProgramZProbeER11GCo
 1354              		.section	.text._ZNK8Platform17SetZProbeModStateEb,"ax",%progbits
 1355              		.align	1
 1356              		.p2align 2,,3
 1357              		.global	_ZNK8Platform17SetZProbeModStateEb
 1358              		.syntax unified
 1359              		.thumb
 1360              		.thumb_func
 1361              		.fpu fpv4-sp-d16
 1362              		.type	_ZNK8Platform17SetZProbeModStateEb, %function
 1363              	_ZNK8Platform17SetZProbeModStateEb:
 1364              		@ args = 0, pretend = 0, frame = 0
 1365              		@ frame_needed = 0, uses_anonymous_args = 0
 1366              		@ link register save eliminated.
 1367 0000 90F80104 		ldrb	r0, [r0, #1025]	@ zero_extendqisi2
 1368 0004 FFF7FEBF 		b	_ZN6IoPort12WriteDigitalEhb
ARM GAS  /tmp/ccghtDyP.s 			page 25


 1369              		.size	_ZNK8Platform17SetZProbeModStateEb, .-_ZNK8Platform17SetZProbeModStateEb
 1370              		.section	.text._ZNK8Platform16HomingZWithProbeEv,"ax",%progbits
 1371              		.align	1
 1372              		.p2align 2,,3
 1373              		.global	_ZNK8Platform16HomingZWithProbeEv
 1374              		.syntax unified
 1375              		.thumb
 1376              		.thumb_func
 1377              		.fpu fpv4-sp-d16
 1378              		.type	_ZNK8Platform16HomingZWithProbeEv, %function
 1379              	_ZNK8Platform16HomingZWithProbeEv:
 1380              		@ args = 0, pretend = 0, frame = 0
 1381              		@ frame_needed = 0, uses_anonymous_args = 0
 1382              		@ link register save eliminated.
 1383 0000 90F89430 		ldrb	r3, [r0, #148]	@ zero_extendqisi2
 1384 0004 4BB1     		cbz	r3, .L229
 1385 0006 D0F89C37 		ldr	r3, [r0, #1948]
 1386 000a 022B     		cmp	r3, #2
 1387 000c 07D0     		beq	.L230
 1388 000e D0F87807 		ldr	r0, [r0, #1912]
 1389 0012 B0FA80F0 		clz	r0, r0
 1390 0016 4009     		lsrs	r0, r0, #5
 1391 0018 7047     		bx	lr
 1392              	.L229:
 1393 001a 1846     		mov	r0, r3
 1394 001c 7047     		bx	lr
 1395              	.L230:
 1396 001e 0120     		movs	r0, #1
 1397 0020 7047     		bx	lr
 1398              		.size	_ZNK8Platform16HomingZWithProbeEv, .-_ZNK8Platform16HomingZWithProbeEv
 1399 0022 00BF     		.section	.text._ZN8Platform20RegisterI2cAddrUsageEh,"ax",%progbits
 1400              		.align	1
 1401              		.p2align 2,,3
 1402              		.global	_ZN8Platform20RegisterI2cAddrUsageEh
 1403              		.syntax unified
 1404              		.thumb
 1405              		.thumb_func
 1406              		.fpu fpv4-sp-d16
 1407              		.type	_ZN8Platform20RegisterI2cAddrUsageEh, %function
 1408              	_ZN8Platform20RegisterI2cAddrUsageEh:
 1409              		@ args = 0, pretend = 0, frame = 0
 1410              		@ frame_needed = 0, uses_anonymous_args = 0
 1411              		@ link register save eliminated.
 1412 0000 30B4     		push	{r4, r5}
 1413 0002 00F58073 		add	r3, r0, #256
 1414 0006 00F1FF05 		add	r5, r0, #255
 1415 000a 0024     		movs	r4, #0
 1416 000c 02E0     		b	.L235
 1417              	.L232:
 1418 000e 0134     		adds	r4, r4, #1
 1419 0010 322C     		cmp	r4, #50
 1420 0012 12D0     		beq	.L231
 1421              	.L235:
 1422 0014 15F8012F 		ldrb	r2, [r5, #1]!	@ zero_extendqisi2
 1423 0018 002A     		cmp	r2, #0
 1424 001a F8D1     		bne	.L232
 1425 001c 0444     		add	r4, r4, r0
ARM GAS  /tmp/ccghtDyP.s 			page 26


 1426 001e 00F59970 		add	r0, r0, #306
 1427 0022 84F80011 		strb	r1, [r4, #256]
 1428              	.L233:
 1429 0026 21B1     		cbz	r1, .L236
 1430 0028 1C78     		ldrb	r4, [r3]	@ zero_extendqisi2
 1431 002a 8C42     		cmp	r4, r1
 1432 002c 04BF     		itt	eq
 1433 002e 0132     		addeq	r2, r2, #1
 1434 0030 D2B2     		uxtbeq	r2, r2
 1435              	.L236:
 1436 0032 0133     		adds	r3, r3, #1
 1437 0034 8342     		cmp	r3, r0
 1438 0036 F6D1     		bne	.L233
 1439 0038 1446     		mov	r4, r2
 1440              	.L231:
 1441 003a 2046     		mov	r0, r4
 1442 003c 30BC     		pop	{r4, r5}
 1443 003e 7047     		bx	lr
 1444              		.size	_ZN8Platform20RegisterI2cAddrUsageEh, .-_ZN8Platform20RegisterI2cAddrUsageEh
 1445              		.section	.text._ZN8Platform22UnregisterI2cAddrUsageEh,"ax",%progbits
 1446              		.align	1
 1447              		.p2align 2,,3
 1448              		.global	_ZN8Platform22UnregisterI2cAddrUsageEh
 1449              		.syntax unified
 1450              		.thumb
 1451              		.thumb_func
 1452              		.fpu fpv4-sp-d16
 1453              		.type	_ZN8Platform22UnregisterI2cAddrUsageEh, %function
 1454              	_ZN8Platform22UnregisterI2cAddrUsageEh:
 1455              		@ args = 0, pretend = 0, frame = 0
 1456              		@ frame_needed = 0, uses_anonymous_args = 0
 1457              		@ link register save eliminated.
 1458 0000 10B4     		push	{r4}
 1459 0002 0023     		movs	r3, #0
 1460 0004 01E0     		b	.L249
 1461              	.L247:
 1462 0006 322B     		cmp	r3, #50
 1463 0008 0AD0     		beq	.L248
 1464              	.L249:
 1465 000a C218     		adds	r2, r0, r3
 1466 000c 0133     		adds	r3, r3, #1
 1467 000e 0029     		cmp	r1, #0
 1468 0010 F9D0     		beq	.L247
 1469 0012 92F80041 		ldrb	r4, [r2, #256]	@ zero_extendqisi2
 1470 0016 8C42     		cmp	r4, r1
 1471 0018 F5D1     		bne	.L247
 1472 001a 0023     		movs	r3, #0
 1473 001c 82F80031 		strb	r3, [r2, #256]
 1474              	.L248:
 1475 0020 00F58073 		add	r3, r0, #256
 1476 0024 00F59972 		add	r2, r0, #306
 1477 0028 0020     		movs	r0, #0
 1478              	.L251:
 1479 002a 21B1     		cbz	r1, .L250
 1480 002c 1C78     		ldrb	r4, [r3]	@ zero_extendqisi2
 1481 002e 8C42     		cmp	r4, r1
 1482 0030 04BF     		itt	eq
ARM GAS  /tmp/ccghtDyP.s 			page 27


 1483 0032 0130     		addeq	r0, r0, #1
 1484 0034 C0B2     		uxtbeq	r0, r0
 1485              	.L250:
 1486 0036 0133     		adds	r3, r3, #1
 1487 0038 9342     		cmp	r3, r2
 1488 003a F6D1     		bne	.L251
 1489 003c 5DF8044B 		ldr	r4, [sp], #4
 1490 0040 7047     		bx	lr
 1491              		.size	_ZN8Platform22UnregisterI2cAddrUsageEh, .-_ZN8Platform22UnregisterI2cAddrUsageEh
 1492 0042 00BF     		.section	.text._ZN8Platform32CheckFirmwareUpdatePrerequisitesERK9StringRef,"ax",%progbits
 1493              		.align	1
 1494              		.p2align 2,,3
 1495              		.global	_ZN8Platform32CheckFirmwareUpdatePrerequisitesERK9StringRef
 1496              		.syntax unified
 1497              		.thumb
 1498              		.thumb_func
 1499              		.fpu fpv4-sp-d16
 1500              		.type	_ZN8Platform32CheckFirmwareUpdatePrerequisitesERK9StringRef, %function
 1501              	_ZN8Platform32CheckFirmwareUpdatePrerequisitesERK9StringRef:
 1502              		@ args = 0, pretend = 0, frame = 8
 1503              		@ frame_needed = 0, uses_anonymous_args = 0
 1504 0000 F0B5     		push	{r4, r5, r6, r7, lr}
 1505 0002 1D4A     		ldr	r2, .L268
 1506 0004 83B0     		sub	sp, sp, #12
 1507 0006 0546     		mov	r5, r0
 1508 0008 0E46     		mov	r6, r1
 1509 000a D0F8B409 		ldr	r0, [r0, #2484]
 1510 000e 1B49     		ldr	r1, .L268+4
 1511 0010 0023     		movs	r3, #0
 1512 0012 FFF7FEFF 		bl	_ZN11MassStorage8OpenFileEPKcS1_8OpenMode
 1513 0016 0446     		mov	r4, r0
 1514 0018 B8B1     		cbz	r0, .L267
 1515 001a 0422     		movs	r2, #4
 1516 001c 0DEB0201 		add	r1, sp, r2
 1517 0020 FFF7FEFF 		bl	_ZN9FileStore4ReadEPcj
 1518 0024 0746     		mov	r7, r0
 1519 0026 2046     		mov	r0, r4
 1520 0028 FFF7FEFF 		bl	_ZN9FileStore5CloseEv
 1521 002c 042F     		cmp	r7, #4
 1522 002e 03D1     		bne	.L264
 1523 0030 134B     		ldr	r3, .L268+8
 1524 0032 019A     		ldr	r2, [sp, #4]
 1525 0034 9A42     		cmp	r2, r3
 1526 0036 10D0     		beq	.L265
 1527              	.L264:
 1528 0038 3046     		mov	r0, r6
 1529 003a 0F4A     		ldr	r2, .L268
 1530 003c 1149     		ldr	r1, .L268+12
 1531 003e FFF7FEFF 		bl	_ZNK9StringRef6printfEPKcz
 1532 0042 0024     		movs	r4, #0
 1533              	.L263:
 1534 0044 2046     		mov	r0, r4
 1535 0046 03B0     		add	sp, sp, #12
 1536              		@ sp needed
 1537 0048 F0BD     		pop	{r4, r5, r6, r7, pc}
 1538              	.L267:
 1539 004a 3046     		mov	r0, r6
ARM GAS  /tmp/ccghtDyP.s 			page 28


 1540 004c 0A4A     		ldr	r2, .L268
 1541 004e 0E49     		ldr	r1, .L268+16
 1542 0050 FFF7FEFF 		bl	_ZNK9StringRef6printfEPKcz
 1543 0054 2046     		mov	r0, r4
 1544 0056 03B0     		add	sp, sp, #12
 1545              		@ sp needed
 1546 0058 F0BD     		pop	{r4, r5, r6, r7, pc}
 1547              	.L265:
 1548 005a D5F8B409 		ldr	r0, [r5, #2484]
 1549 005e 0B4A     		ldr	r2, .L268+20
 1550 0060 0649     		ldr	r1, .L268+4
 1551 0062 FFF7FEFF 		bl	_ZNK11MassStorage10FileExistsEPKcS1_
 1552 0066 0446     		mov	r4, r0
 1553 0068 0028     		cmp	r0, #0
 1554 006a EBD1     		bne	.L263
 1555 006c 3046     		mov	r0, r6
 1556 006e 074A     		ldr	r2, .L268+20
 1557 0070 0749     		ldr	r1, .L268+24
 1558 0072 FFF7FEFF 		bl	_ZNK9StringRef6printfEPKcz
 1559 0076 E5E7     		b	.L263
 1560              	.L269:
 1561              		.align	2
 1562              	.L268:
 1563 0078 00000000 		.word	.LC10
 1564 007c 1C000000 		.word	.LC11
 1565 0080 00000220 		.word	537001984
 1566 0084 44000000 		.word	.LC13
 1567 0088 24000000 		.word	.LC12
 1568 008c 7C000000 		.word	.LC14
 1569 0090 88000000 		.word	.LC15
 1570              		.size	_ZN8Platform32CheckFirmwareUpdatePrerequisitesERK9StringRef, .-_ZN8Platform32CheckFirmwareUp
 1571              		.section	.text._ZNK8Platform9EmulatingEv,"ax",%progbits
 1572              		.align	1
 1573              		.p2align 2,,3
 1574              		.global	_ZNK8Platform9EmulatingEv
 1575              		.syntax unified
 1576              		.thumb
 1577              		.thumb_func
 1578              		.fpu fpv4-sp-d16
 1579              		.type	_ZNK8Platform9EmulatingEv, %function
 1580              	_ZNK8Platform9EmulatingEv:
 1581              		@ args = 0, pretend = 0, frame = 0
 1582              		@ frame_needed = 0, uses_anonymous_args = 0
 1583              		@ link register save eliminated.
 1584 0000 90F8BF00 		ldrb	r0, [r0, #191]	@ zero_extendqisi2
 1585 0004 0128     		cmp	r0, #1
 1586 0006 08BF     		it	eq
 1587 0008 0020     		moveq	r0, #0
 1588 000a 7047     		bx	lr
 1589              		.size	_ZNK8Platform9EmulatingEv, .-_ZNK8Platform9EmulatingEv
 1590              		.section	.text._ZN8Platform20UpdateNetworkAddressEPhPKh,"ax",%progbits
 1591              		.align	1
 1592              		.p2align 2,,3
 1593              		.global	_ZN8Platform20UpdateNetworkAddressEPhPKh
 1594              		.syntax unified
 1595              		.thumb
 1596              		.thumb_func
ARM GAS  /tmp/ccghtDyP.s 			page 29


 1597              		.fpu fpv4-sp-d16
 1598              		.type	_ZN8Platform20UpdateNetworkAddressEPhPKh, %function
 1599              	_ZN8Platform20UpdateNetworkAddressEPhPKh:
 1600              		@ args = 0, pretend = 0, frame = 0
 1601              		@ frame_needed = 0, uses_anonymous_args = 0
 1602              		@ link register save eliminated.
 1603 0000 10B4     		push	{r4}
 1604 0002 531E     		subs	r3, r2, #1
 1605 0004 0446     		mov	r4, r0
 1606 0006 0139     		subs	r1, r1, #1
 1607 0008 0332     		adds	r2, r2, #3
 1608              	.L274:
 1609 000a 13F8010F 		ldrb	r0, [r3, #1]!	@ zero_extendqisi2
 1610 000e 01F8010F 		strb	r0, [r1, #1]!
 1611 0012 9342     		cmp	r3, r2
 1612 0014 F9D1     		bne	.L274
 1613 0016 064A     		ldr	r2, .L277
 1614 0018 04F19903 		add	r3, r4, #153
 1615 001c 5068     		ldr	r0, [r2, #4]
 1616 001e 04F19501 		add	r1, r4, #149
 1617 0022 04F19D02 		add	r2, r4, #157
 1618 0026 5DF8044B 		ldr	r4, [sp], #4
 1619 002a FFF7FEBF 		b	_ZN7Network20SetEthernetIPAddressEPKhS1_S1_
 1620              	.L278:
 1621 002e 00BF     		.align	2
 1622              	.L277:
 1623 0030 00000000 		.word	reprap
 1624              		.size	_ZN8Platform20UpdateNetworkAddressEPhPKh, .-_ZN8Platform20UpdateNetworkAddressEPhPKh
 1625              		.section	.text._ZN8Platform12SetIPAddressEPh,"ax",%progbits
 1626              		.align	1
 1627              		.p2align 2,,3
 1628              		.global	_ZN8Platform12SetIPAddressEPh
 1629              		.syntax unified
 1630              		.thumb
 1631              		.thumb_func
 1632              		.fpu fpv4-sp-d16
 1633              		.type	_ZN8Platform12SetIPAddressEPh, %function
 1634              	_ZN8Platform12SetIPAddressEPh:
 1635              		@ args = 0, pretend = 0, frame = 0
 1636              		@ frame_needed = 0, uses_anonymous_args = 0
 1637              		@ link register save eliminated.
 1638 0000 0A46     		mov	r2, r1
 1639 0002 00F19501 		add	r1, r0, #149
 1640 0006 FFF7FEBF 		b	_ZN8Platform20UpdateNetworkAddressEPhPKh
 1641              		.size	_ZN8Platform12SetIPAddressEPh, .-_ZN8Platform12SetIPAddressEPh
 1642 000a 00BF     		.section	.text._ZN8Platform10SetGateWayEPh,"ax",%progbits
 1643              		.align	1
 1644              		.p2align 2,,3
 1645              		.global	_ZN8Platform10SetGateWayEPh
 1646              		.syntax unified
 1647              		.thumb
 1648              		.thumb_func
 1649              		.fpu fpv4-sp-d16
 1650              		.type	_ZN8Platform10SetGateWayEPh, %function
 1651              	_ZN8Platform10SetGateWayEPh:
 1652              		@ args = 0, pretend = 0, frame = 0
 1653              		@ frame_needed = 0, uses_anonymous_args = 0
ARM GAS  /tmp/ccghtDyP.s 			page 30


 1654              		@ link register save eliminated.
 1655 0000 0A46     		mov	r2, r1
 1656 0002 00F19D01 		add	r1, r0, #157
 1657 0006 FFF7FEBF 		b	_ZN8Platform20UpdateNetworkAddressEPhPKh
 1658              		.size	_ZN8Platform10SetGateWayEPh, .-_ZN8Platform10SetGateWayEPh
 1659 000a 00BF     		.section	.text._ZN8Platform10SetNetMaskEPh,"ax",%progbits
 1660              		.align	1
 1661              		.p2align 2,,3
 1662              		.global	_ZN8Platform10SetNetMaskEPh
 1663              		.syntax unified
 1664              		.thumb
 1665              		.thumb_func
 1666              		.fpu fpv4-sp-d16
 1667              		.type	_ZN8Platform10SetNetMaskEPh, %function
 1668              	_ZN8Platform10SetNetMaskEPh:
 1669              		@ args = 0, pretend = 0, frame = 0
 1670              		@ frame_needed = 0, uses_anonymous_args = 0
 1671              		@ link register save eliminated.
 1672 0000 0A46     		mov	r2, r1
 1673 0002 00F19901 		add	r1, r0, #153
 1674 0006 FFF7FEBF 		b	_ZN8Platform20UpdateNetworkAddressEPhPKh
 1675              		.size	_ZN8Platform10SetNetMaskEPh, .-_ZN8Platform10SetNetMaskEPh
 1676 000a 00BF     		.section	.text._ZNK8Platform19AnyAxisMotorStalledEj,"ax",%progbits
 1677              		.align	1
 1678              		.p2align 2,,3
 1679              		.global	_ZNK8Platform19AnyAxisMotorStalledEj
 1680              		.syntax unified
 1681              		.thumb
 1682              		.thumb_func
 1683              		.fpu fpv4-sp-d16
 1684              		.type	_ZNK8Platform19AnyAxisMotorStalledEj, %function
 1685              	_ZNK8Platform19AnyAxisMotorStalledEj:
 1686              		@ args = 0, pretend = 0, frame = 0
 1687              		@ frame_needed = 0, uses_anonymous_args = 0
 1688              		@ link register save eliminated.
 1689 0000 044B     		ldr	r3, .L284
 1690 0002 1B69     		ldr	r3, [r3, #16]
 1691 0004 D3F89832 		ldr	r3, [r3, #664]
 1692 0008 8B42     		cmp	r3, r1
 1693 000a 01D9     		bls	.L283
 1694 000c FFF7FEBF 		b	_ZNK8Platform19AnyAxisMotorStalledEj.part.18
 1695              	.L283:
 1696 0010 0020     		movs	r0, #0
 1697 0012 7047     		bx	lr
 1698              	.L285:
 1699              		.align	2
 1700              	.L284:
 1701 0014 00000000 		.word	reprap
 1702              		.size	_ZNK8Platform19AnyAxisMotorStalledEj, .-_ZNK8Platform19AnyAxisMotorStalledEj
 1703              		.section	.text._ZNK8Platform20ExtruderMotorStalledEj,"ax",%progbits
 1704              		.align	1
 1705              		.p2align 2,,3
 1706              		.global	_ZNK8Platform20ExtruderMotorStalledEj
 1707              		.syntax unified
 1708              		.thumb
 1709              		.thumb_func
 1710              		.fpu fpv4-sp-d16
ARM GAS  /tmp/ccghtDyP.s 			page 31


 1711              		.type	_ZNK8Platform20ExtruderMotorStalledEj, %function
 1712              	_ZNK8Platform20ExtruderMotorStalledEj:
 1713              		@ args = 0, pretend = 0, frame = 0
 1714              		@ frame_needed = 0, uses_anonymous_args = 0
 1715 0000 0144     		add	r1, r1, r0
 1716 0002 91F84003 		ldrb	r0, [r1, #832]	@ zero_extendqisi2
 1717 0006 0B28     		cmp	r0, #11
 1718 0008 01D9     		bls	.L293
 1719 000a 0020     		movs	r0, #0
 1720 000c 7047     		bx	lr
 1721              	.L293:
 1722 000e 08B5     		push	{r3, lr}
 1723 0010 FFF7FEFF 		bl	_ZN12SmartDrivers13GetLiveStatusEj
 1724 0014 00F00100 		and	r0, r0, #1
 1725 0018 08BD     		pop	{r3, pc}
 1726              		.size	_ZNK8Platform20ExtruderMotorStalledEj, .-_ZNK8Platform20ExtruderMotorStalledEj
 1727 001a 00BF     		.section	.text._ZN8Platform15DisableAutoSaveEv,"ax",%progbits
 1728              		.align	1
 1729              		.p2align 2,,3
 1730              		.global	_ZN8Platform15DisableAutoSaveEv
 1731              		.syntax unified
 1732              		.thumb
 1733              		.thumb_func
 1734              		.fpu fpv4-sp-d16
 1735              		.type	_ZN8Platform15DisableAutoSaveEv, %function
 1736              	_ZN8Platform15DisableAutoSaveEv:
 1737              		@ args = 0, pretend = 0, frame = 0
 1738              		@ frame_needed = 0, uses_anonymous_args = 0
 1739              		@ link register save eliminated.
 1740 0000 0023     		movs	r3, #0
 1741 0002 80F8F039 		strb	r3, [r0, #2544]
 1742 0006 7047     		bx	lr
 1743              		.size	_ZN8Platform15DisableAutoSaveEv, .-_ZN8Platform15DisableAutoSaveEv
 1744              		.section	.text._ZNK8Platform9IsPowerOkEv,"ax",%progbits
 1745              		.align	1
 1746              		.p2align 2,,3
 1747              		.global	_ZNK8Platform9IsPowerOkEv
 1748              		.syntax unified
 1749              		.thumb
 1750              		.thumb_func
 1751              		.fpu fpv4-sp-d16
 1752              		.type	_ZNK8Platform9IsPowerOkEv, %function
 1753              	_ZNK8Platform9IsPowerOkEv:
 1754              		@ args = 0, pretend = 0, frame = 0
 1755              		@ frame_needed = 0, uses_anonymous_args = 0
 1756              		@ link register save eliminated.
 1757 0000 90F8F039 		ldrb	r3, [r0, #2544]	@ zero_extendqisi2
 1758 0004 43B1     		cbz	r3, .L297
 1759 0006 B0F8D639 		ldrh	r3, [r0, #2518]
 1760 000a B0F8DC09 		ldrh	r0, [r0, #2524]
 1761 000e 9842     		cmp	r0, r3
 1762 0010 2CBF     		ite	cs
 1763 0012 0020     		movcs	r0, #0
 1764 0014 0120     		movcc	r0, #1
 1765 0016 7047     		bx	lr
 1766              	.L297:
 1767 0018 0120     		movs	r0, #1
ARM GAS  /tmp/ccghtDyP.s 			page 32


 1768 001a 7047     		bx	lr
 1769              		.size	_ZNK8Platform9IsPowerOkEv, .-_ZNK8Platform9IsPowerOkEv
 1770              		.section	.text._ZNK8Platform11HasVinPowerEv,"ax",%progbits
 1771              		.align	1
 1772              		.p2align 2,,3
 1773              		.global	_ZNK8Platform11HasVinPowerEv
 1774              		.syntax unified
 1775              		.thumb
 1776              		.thumb_func
 1777              		.fpu fpv4-sp-d16
 1778              		.type	_ZNK8Platform11HasVinPowerEv, %function
 1779              	_ZNK8Platform11HasVinPowerEv:
 1780              		@ args = 0, pretend = 0, frame = 0
 1781              		@ frame_needed = 0, uses_anonymous_args = 0
 1782              		@ link register save eliminated.
 1783 0000 90F8D903 		ldrb	r0, [r0, #985]	@ zero_extendqisi2
 1784 0004 7047     		bx	lr
 1785              		.size	_ZNK8Platform11HasVinPowerEv, .-_ZNK8Platform11HasVinPowerEv
 1786 0006 00BF     		.section	.text._ZN8Platform14EnableAutoSaveEff,"ax",%progbits
 1787              		.align	1
 1788              		.p2align 2,,3
 1789              		.global	_ZN8Platform14EnableAutoSaveEff
 1790              		.syntax unified
 1791              		.thumb
 1792              		.thumb_func
 1793              		.fpu fpv4-sp-d16
 1794              		.type	_ZN8Platform14EnableAutoSaveEff, %function
 1795              	_ZN8Platform14EnableAutoSaveEff:
 1796              		@ args = 0, pretend = 0, frame = 0
 1797              		@ frame_needed = 0, uses_anonymous_args = 0
 1798              		@ link register save eliminated.
 1799 0000 DFED0A7A 		vldr.32	s15, .L300
 1800 0004 20EE270A 		vmul.f32	s0, s0, s15
 1801 0008 60EEA70A 		vmul.f32	s1, s1, s15
 1802 000c BCEEC00A 		vcvt.u32.f32	s0, s0
 1803 0010 FCEEE00A 		vcvt.u32.f32	s1, s1
 1804 0014 10EE102A 		vmov	r2, s0	@ int
 1805 0018 A0F8DC29 		strh	r2, [r0, #2524]	@ movhi
 1806 001c 10EE902A 		vmov	r2, s1	@ int
 1807 0020 0123     		movs	r3, #1
 1808 0022 A0F8DE29 		strh	r2, [r0, #2526]	@ movhi
 1809 0026 80F8F039 		strb	r3, [r0, #2544]
 1810 002a 7047     		bx	lr
 1811              	.L301:
 1812              		.align	2
 1813              	.L300:
 1814 002c C9ACE142 		.word	1122086089
 1815              		.size	_ZN8Platform14EnableAutoSaveEff, .-_ZN8Platform14EnableAutoSaveEff
 1816              		.section	.text._ZN8Platform19GetAutoSaveSettingsERfS0_,"ax",%progbits
 1817              		.align	1
 1818              		.p2align 2,,3
 1819              		.global	_ZN8Platform19GetAutoSaveSettingsERfS0_
 1820              		.syntax unified
 1821              		.thumb
 1822              		.thumb_func
 1823              		.fpu fpv4-sp-d16
 1824              		.type	_ZN8Platform19GetAutoSaveSettingsERfS0_, %function
ARM GAS  /tmp/ccghtDyP.s 			page 33


 1825              	_ZN8Platform19GetAutoSaveSettingsERfS0_:
 1826              		@ args = 0, pretend = 0, frame = 0
 1827              		@ frame_needed = 0, uses_anonymous_args = 0
 1828              		@ link register save eliminated.
 1829 0000 0346     		mov	r3, r0
 1830 0002 90F8F009 		ldrb	r0, [r0, #2544]	@ zero_extendqisi2
 1831 0006 B8B1     		cbz	r0, .L303
 1832 0008 B3F8DC09 		ldrh	r0, [r3, #2524]
 1833 000c DFED0B6A 		vldr.32	s13, .L307
 1834 0010 07EE100A 		vmov	s14, r0	@ int
 1835 0014 B8EEC77A 		vcvt.f32.s32	s14, s14
 1836 0018 27EE267A 		vmul.f32	s14, s14, s13
 1837 001c 81ED007A 		vstr.32	s14, [r1]
 1838 0020 B3F8DE19 		ldrh	r1, [r3, #2526]
 1839 0024 07EE901A 		vmov	s15, r1	@ int
 1840 0028 F8EEE77A 		vcvt.f32.s32	s15, s15
 1841 002c 67EEA67A 		vmul.f32	s15, s15, s13
 1842 0030 C2ED007A 		vstr.32	s15, [r2]
 1843 0034 93F8F009 		ldrb	r0, [r3, #2544]	@ zero_extendqisi2
 1844              	.L303:
 1845 0038 7047     		bx	lr
 1846              	.L308:
 1847 003a 00BF     		.align	2
 1848              	.L307:
 1849 003c 3333113C 		.word	1007760179
 1850              		.size	_ZN8Platform19GetAutoSaveSettingsERfS0_, .-_ZN8Platform19GetAutoSaveSettingsERfS0_
 1851              		.section	.text._ZNK8Platform16WriteFanSettingsEP9FileStore,"ax",%progbits
 1852              		.align	1
 1853              		.p2align 2,,3
 1854              		.global	_ZNK8Platform16WriteFanSettingsEP9FileStore
 1855              		.syntax unified
 1856              		.thumb
 1857              		.thumb_func
 1858              		.fpu fpv4-sp-d16
 1859              		.type	_ZNK8Platform16WriteFanSettingsEP9FileStore, %function
 1860              	_ZNK8Platform16WriteFanSettingsEP9FileStore:
 1861              		@ args = 0, pretend = 0, frame = 0
 1862              		@ frame_needed = 0, uses_anonymous_args = 0
 1863 0000 70B5     		push	{r4, r5, r6, lr}
 1864 0002 0E46     		mov	r6, r1
 1865 0004 00F5FB65 		add	r5, r0, #2008
 1866 0008 0024     		movs	r4, #0
 1867              	.L310:
 1868 000a 2246     		mov	r2, r4
 1869 000c 2846     		mov	r0, r5
 1870 000e 3146     		mov	r1, r6
 1871 0010 FFF7FEFF 		bl	_ZNK3Fan13WriteSettingsEP9FileStorej
 1872 0014 2C35     		adds	r5, r5, #44
 1873 0016 0134     		adds	r4, r4, #1
 1874 0018 08B1     		cbz	r0, .L311
 1875 001a 092C     		cmp	r4, #9
 1876 001c F5D1     		bne	.L310
 1877              	.L311:
 1878 001e 70BD     		pop	{r4, r5, r6, pc}
 1879              		.size	_ZNK8Platform16WriteFanSettingsEP9FileStore, .-_ZNK8Platform16WriteFanSettingsEP9FileStore
 1880              		.section	.text._ZNK8Platform26AdcReadingToCpuTemperatureEm,"ax",%progbits
 1881              		.align	1
ARM GAS  /tmp/ccghtDyP.s 			page 34


 1882              		.p2align 2,,3
 1883              		.global	_ZNK8Platform26AdcReadingToCpuTemperatureEm
 1884              		.syntax unified
 1885              		.thumb
 1886              		.thumb_func
 1887              		.fpu fpv4-sp-d16
 1888              		.type	_ZNK8Platform26AdcReadingToCpuTemperatureEm, %function
 1889              	_ZNK8Platform26AdcReadingToCpuTemperatureEm:
 1890              		@ args = 0, pretend = 0, frame = 0
 1891              		@ frame_needed = 0, uses_anonymous_args = 0
 1892              		@ link register save eliminated.
 1893 0000 07EE901A 		vmov	s15, r1	@ int
 1894 0004 DFED0A6A 		vldr.32	s13, .L318
 1895 0008 9FED0A7A 		vldr.32	s14, .L318+4
 1896 000c B8EE676A 		vcvt.f32.u32	s12, s15
 1897 0010 DFED097A 		vldr.32	s15, .L318+8
 1898 0014 E6EE267A 		vfma.f32	s15, s12, s13
 1899 0018 00F21C70 		addw	r0, r0, #1820
 1900 001c B3EE0B0A 		vmov.f32	s0, #2.7e+1
 1901 0020 A7EE870A 		vfma.f32	s0, s15, s14
 1902 0024 D0ED007A 		vldr.32	s15, [r0]
 1903 0028 30EE270A 		vadd.f32	s0, s0, s15
 1904 002c 7047     		bx	lr
 1905              	.L319:
 1906 002e 00BF     		.align	2
 1907              	.L318:
 1908 0030 3333D337 		.word	936588083
 1909 0034 16C45443 		.word	1129628694
 1910 0038 EC51B8BF 		.word	3216527852
 1911              		.size	_ZNK8Platform26AdcReadingToCpuTemperatureEm, .-_ZNK8Platform26AdcReadingToCpuTemperatureEm
 1912              		.section	.text._ZN8Platform20InitialiseInterruptsEv,"ax",%progbits
 1913              		.align	1
 1914              		.p2align 2,,3
 1915              		.global	_ZN8Platform20InitialiseInterruptsEv
 1916              		.syntax unified
 1917              		.thumb
 1918              		.thumb_func
 1919              		.fpu fpv4-sp-d16
 1920              		.type	_ZN8Platform20InitialiseInterruptsEv, %function
 1921              	_ZN8Platform20InitialiseInterruptsEv:
 1922              		@ args = 0, pretend = 0, frame = 0
 1923              		@ frame_needed = 0, uses_anonymous_args = 0
 1924 0000 2DE9F041 		push	{r4, r5, r6, r7, r8, lr}
 1925 0004 3349     		ldr	r1, .L326
 1926 0006 344C     		ldr	r4, .L326+4
 1927 0008 344E     		ldr	r6, .L326+8
 1928 000a 4FF0300C 		mov	ip, #48
 1929 000e 2023     		movs	r3, #32
 1930 0010 1022     		movs	r2, #16
 1931 0012 0027     		movs	r7, #0
 1932 0014 4FF07008 		mov	r8, #112
 1933 0018 84F80473 		strb	r7, [r4, #772]
 1934 001c 0546     		mov	r5, r0
 1935 001e 81F823C0 		strb	ip, [r1, #35]
 1936 0022 3846     		mov	r0, r7
 1937 0024 84F80723 		strb	r2, [r4, #775]
 1938 0028 84F82D83 		strb	r8, [r4, #813]
ARM GAS  /tmp/ccghtDyP.s 			page 35


 1939 002c 84F80F33 		strb	r3, [r4, #783]
 1940 0030 FFF7FEFF 		bl	pmc_set_writeprotect
 1941 0034 1720     		movs	r0, #23
 1942 0036 FFF7FEFF 		bl	pmc_enable_periph_clk
 1943 003a 48F20342 		movw	r2, #33795
 1944 003e 3046     		mov	r0, r6
 1945 0040 0221     		movs	r1, #2
 1946 0042 FFF7FEFF 		bl	tc_init
 1947 0046 4FF0FF33 		mov	r3, #-1
 1948 004a C6F8A830 		str	r3, [r6, #168]
 1949 004e 3046     		mov	r0, r6
 1950 0050 0221     		movs	r1, #2
 1951 0052 FFF7FEFF 		bl	tc_start
 1952 0056 0221     		movs	r1, #2
 1953 0058 3046     		mov	r0, r6
 1954 005a FFF7FEFF 		bl	tc_get_status
 1955 005e 4022     		movs	r2, #64
 1956 0060 6020     		movs	r0, #96
 1957 0062 4FF40001 		mov	r1, #8388608
 1958 0066 9023     		movs	r3, #144
 1959 0068 84F81703 		strb	r0, [r4, #791]
 1960 006c 2160     		str	r1, [r4]
 1961 006e 84F80923 		strb	r2, [r4, #777]
 1962 0072 84F80A23 		strb	r2, [r4, #778]
 1963 0076 84F80B23 		strb	r2, [r4, #779]
 1964 007a 84F80C23 		strb	r2, [r4, #780]
 1965 007e 84F80D23 		strb	r2, [r4, #781]
 1966 0082 84F82383 		strb	r8, [r4, #803]
 1967 0086 84F81133 		strb	r3, [r4, #785]
 1968 008a 95F86409 		ldrb	r0, [r5, #2404]	@ zero_extendqisi2
 1969 008e FF28     		cmp	r0, #255
 1970 0090 04D0     		beq	.L321
 1971 0092 3B46     		mov	r3, r7
 1972 0094 0422     		movs	r2, #4
 1973 0096 1249     		ldr	r1, .L326+12
 1974 0098 FFF7FEFF 		bl	_Z15attachInterruptmPFv17CallbackParameterE13InterruptModeS_
 1975              	.L321:
 1976 009c 0022     		movs	r2, #0
 1977 009e 4FF48073 		mov	r3, #256
 1978 00a2 85F8C229 		strb	r2, [r5, #2498]
 1979 00a6 C5F8C429 		str	r2, [r5, #2500]
 1980 00aa 4FF40051 		mov	r1, #8192
 1981 00ae 1A46     		mov	r2, r3
 1982 00b0 0C48     		ldr	r0, .L326+16
 1983 00b2 FFF7FEFF 		bl	wdt_init
 1984 00b6 8023     		movs	r3, #128
 1985 00b8 1A46     		mov	r2, r3
 1986 00ba 4FF48051 		mov	r1, #4096
 1987 00be 0A48     		ldr	r0, .L326+20
 1988 00c0 FFF7FEFF 		bl	rswdt_init
 1989 00c4 044A     		ldr	r2, .L326+4
 1990 00c6 1021     		movs	r1, #16
 1991 00c8 0123     		movs	r3, #1
 1992 00ca 1160     		str	r1, [r2]
 1993 00cc 85F8BE30 		strb	r3, [r5, #190]
 1994 00d0 BDE8F081 		pop	{r4, r5, r6, r7, r8, pc}
 1995              	.L327:
ARM GAS  /tmp/ccghtDyP.s 			page 36


 1996              		.align	2
 1997              	.L326:
 1998 00d4 00ED00E0 		.word	-536810240
 1999 00d8 00E100E0 		.word	-536813312
 2000 00dc 00000940 		.word	1074331648
 2001 00e0 00000000 		.word	_ZL12FanInterrupt17CallbackParameter
 2002 00e4 50180E40 		.word	1074665552
 2003 00e8 00190E40 		.word	1074665728
 2004              		.size	_ZN8Platform20InitialiseInterruptsEv, .-_ZN8Platform20InitialiseInterruptsEv
 2005              		.section	.text._ZN8Platform19DriverCoolingFansOnEm,"ax",%progbits
 2006              		.align	1
 2007              		.p2align 2,,3
 2008              		.global	_ZN8Platform19DriverCoolingFansOnEm
 2009              		.syntax unified
 2010              		.thumb
 2011              		.thumb_func
 2012              		.fpu fpv4-sp-d16
 2013              		.type	_ZN8Platform19DriverCoolingFansOnEm, %function
 2014              	_ZN8Platform19DriverCoolingFansOnEm:
 2015              		@ args = 0, pretend = 0, frame = 0
 2016              		@ frame_needed = 0, uses_anonymous_args = 0
 2017 0000 CA07     		lsls	r2, r1, #31
 2018 0002 38B5     		push	{r3, r4, r5, lr}
 2019 0004 0C46     		mov	r4, r1
 2020 0006 0546     		mov	r5, r0
 2021 0008 0AD4     		bmi	.L338
 2022              	.L329:
 2023 000a A307     		lsls	r3, r4, #30
 2024 000c 00D4     		bmi	.L339
 2025 000e 38BD     		pop	{r3, r4, r5, pc}
 2026              	.L339:
 2027 0010 FFF7FEFF 		bl	millis
 2028 0014 0123     		movs	r3, #1
 2029 0016 C5F8E003 		str	r0, [r5, #992]
 2030 001a 85F8DB33 		strb	r3, [r5, #987]
 2031 001e 38BD     		pop	{r3, r4, r5, pc}
 2032              	.L338:
 2033 0020 FFF7FEFF 		bl	millis
 2034 0024 0123     		movs	r3, #1
 2035 0026 C5F8DC03 		str	r0, [r5, #988]
 2036 002a 85F8DA33 		strb	r3, [r5, #986]
 2037 002e ECE7     		b	.L329
 2038              		.size	_ZN8Platform19DriverCoolingFansOnEm, .-_ZN8Platform19DriverCoolingFansOnEm
 2039              		.section	.text._ZN8Platform9SetHeaterEjft,"ax",%progbits
 2040              		.align	1
 2041              		.p2align 2,,3
 2042              		.global	_ZN8Platform9SetHeaterEjft
 2043              		.syntax unified
 2044              		.thumb
 2045              		.thumb_func
 2046              		.fpu fpv4-sp-d16
 2047              		.type	_ZN8Platform9SetHeaterEjft, %function
 2048              	_ZN8Platform9SetHeaterEjft:
 2049              		@ args = 0, pretend = 0, frame = 0
 2050              		@ frame_needed = 0, uses_anonymous_args = 0
 2051 0000 10B5     		push	{r4, lr}
 2052 0002 2DED028B 		vpush.64	{d8}
ARM GAS  /tmp/ccghtDyP.s 			page 37


 2053 0006 4418     		adds	r4, r0, r1
 2054 0008 94F8C007 		ldrb	r0, [r4, #1984]	@ zero_extendqisi2
 2055 000c FF28     		cmp	r0, #255
 2056 000e 17D0     		beq	.L340
 2057 0010 B0EE408A 		vmov.f32	s16, s0
 2058 0014 52B1     		cbz	r2, .L345
 2059              	.L342:
 2060 0016 B7EE000A 		vmov.f32	s0, #1.0e+0
 2061 001a 30EE480A 		vsub.f32	s0, s0, s16
 2062 001e BDEC028B 		vldm	sp!, {d8}
 2063 0022 1146     		mov	r1, r2
 2064 0024 BDE81040 		pop	{r4, lr}
 2065 0028 FFF7FEBF 		b	_ZN6IoPort11WriteAnalogEhft
 2066              	.L345:
 2067 002c 084B     		ldr	r3, .L346
 2068 002e 49B2     		sxtb	r1, r1
 2069 0030 D868     		ldr	r0, [r3, #12]
 2070 0032 FFF7FEFF 		bl	_ZNK4Heat20IsBedOrChamberHeaterEa
 2071 0036 30B1     		cbz	r0, .L343
 2072 0038 94F8C007 		ldrb	r0, [r4, #1984]	@ zero_extendqisi2
 2073 003c 0A22     		movs	r2, #10
 2074 003e EAE7     		b	.L342
 2075              	.L340:
 2076 0040 BDEC028B 		vldm	sp!, {d8}
 2077 0044 10BD     		pop	{r4, pc}
 2078              	.L343:
 2079 0046 94F8C007 		ldrb	r0, [r4, #1984]	@ zero_extendqisi2
 2080 004a FA22     		movs	r2, #250
 2081 004c E3E7     		b	.L342
 2082              	.L347:
 2083 004e 00BF     		.align	2
 2084              	.L346:
 2085 0050 00000000 		.word	reprap
 2086              		.size	_ZN8Platform9SetHeaterEjft, .-_ZN8Platform9SetHeaterEjft
 2087              		.section	.text._ZN8Platform23UpdateConfiguredHeatersEv,"ax",%progbits
 2088              		.align	1
 2089              		.p2align 2,,3
 2090              		.global	_ZN8Platform23UpdateConfiguredHeatersEv
 2091              		.syntax unified
 2092              		.thumb
 2093              		.thumb_func
 2094              		.fpu fpv4-sp-d16
 2095              		.type	_ZN8Platform23UpdateConfiguredHeatersEv, %function
 2096              	_ZN8Platform23UpdateConfiguredHeatersEv:
 2097              		@ args = 0, pretend = 0, frame = 0
 2098              		@ frame_needed = 0, uses_anonymous_args = 0
 2099 0000 F8B5     		push	{r3, r4, r5, r6, r7, lr}
 2100 0002 214B     		ldr	r3, .L362
 2101 0004 DC68     		ldr	r4, [r3, #12]
 2102 0006 0023     		movs	r3, #0
 2103 0008 0546     		mov	r5, r0
 2104 000a C0F8D037 		str	r3, [r0, #2000]
 2105 000e 04F1D202 		add	r2, r4, #210
 2106 0012 04F1D600 		add	r0, r4, #214
 2107 0016 0126     		movs	r6, #1
 2108              	.L349:
 2109 0018 12F9013B 		ldrsb	r3, [r2], #1
ARM GAS  /tmp/ccghtDyP.s 			page 38


 2110 001c 002B     		cmp	r3, #0
 2111 001e 06DB     		blt	.L353
 2112 0020 D5F8D017 		ldr	r1, [r5, #2000]
 2113 0024 06FA03F3 		lsl	r3, r6, r3
 2114 0028 0B43     		orrs	r3, r3, r1
 2115 002a C5F8D037 		str	r3, [r5, #2000]
 2116              	.L353:
 2117 002e 8242     		cmp	r2, r0
 2118 0030 F2D1     		bne	.L349
 2119 0032 94F9D630 		ldrsb	r3, [r4, #214]
 2120 0036 002B     		cmp	r3, #0
 2121 0038 07DB     		blt	.L350
 2122 003a D5F8D027 		ldr	r2, [r5, #2000]
 2123 003e 0121     		movs	r1, #1
 2124 0040 01FA03F3 		lsl	r3, r1, r3
 2125 0044 1A43     		orrs	r2, r2, r3
 2126 0046 C5F8D027 		str	r2, [r5, #2000]
 2127              	.L350:
 2128 004a 94F9D730 		ldrsb	r3, [r4, #215]
 2129 004e 002B     		cmp	r3, #0
 2130 0050 07DB     		blt	.L351
 2131 0052 D5F8D027 		ldr	r2, [r5, #2000]
 2132 0056 0121     		movs	r1, #1
 2133 0058 01FA03F3 		lsl	r3, r1, r3
 2134 005c 1A43     		orrs	r2, r2, r3
 2135 005e C5F8D027 		str	r2, [r5, #2000]
 2136              	.L351:
 2137 0062 094E     		ldr	r6, .L362
 2138 0064 0024     		movs	r4, #0
 2139 0066 0127     		movs	r7, #1
 2140              	.L352:
 2141 0068 61B2     		sxtb	r1, r4
 2142 006a 3046     		mov	r0, r6
 2143 006c FFF7FEFF 		bl	_ZNK6RepRap22IsHeaterAssignedToToolEa
 2144 0070 30B1     		cbz	r0, .L355
 2145 0072 D5F8D037 		ldr	r3, [r5, #2000]
 2146 0076 07FA04F2 		lsl	r2, r7, r4
 2147 007a 1343     		orrs	r3, r3, r2
 2148 007c C5F8D037 		str	r3, [r5, #2000]
 2149              	.L355:
 2150 0080 0134     		adds	r4, r4, #1
 2151 0082 082C     		cmp	r4, #8
 2152 0084 F0D1     		bne	.L352
 2153 0086 F8BD     		pop	{r3, r4, r5, r6, r7, pc}
 2154              	.L363:
 2155              		.align	2
 2156              	.L362:
 2157 0088 00000000 		.word	reprap
 2158              		.size	_ZN8Platform23UpdateConfiguredHeatersEv, .-_ZN8Platform23UpdateConfiguredHeatersEv
 2159              		.section	.text._ZNK8Platform17EndStopInputStateEj,"ax",%progbits
 2160              		.align	1
 2161              		.p2align 2,,3
 2162              		.global	_ZNK8Platform17EndStopInputStateEj
 2163              		.syntax unified
 2164              		.thumb
 2165              		.thumb_func
 2166              		.fpu fpv4-sp-d16
ARM GAS  /tmp/ccghtDyP.s 			page 39


 2167              		.type	_ZNK8Platform17EndStopInputStateEj, %function
 2168              	_ZNK8Platform17EndStopInputStateEj:
 2169              		@ args = 0, pretend = 0, frame = 0
 2170              		@ frame_needed = 0, uses_anonymous_args = 0
 2171              		@ link register save eliminated.
 2172 0000 0144     		add	r1, r1, r0
 2173 0002 91F83201 		ldrb	r0, [r1, #306]	@ zero_extendqisi2
 2174 0006 FF28     		cmp	r0, #255
 2175 0008 01D0     		beq	.L365
 2176 000a FFF7FEBF 		b	_ZN6IoPort7ReadPinEh
 2177              	.L365:
 2178 000e 0020     		movs	r0, #0
 2179 0010 7047     		bx	lr
 2180              		.size	_ZNK8Platform17EndStopInputStateEj, .-_ZNK8Platform17EndStopInputStateEj
 2181 0012 00BF     		.section	.text._ZNK8Platform19GetAllEndstopStatesEv,"ax",%progbits
 2182              		.align	1
 2183              		.p2align 2,,3
 2184              		.global	_ZNK8Platform19GetAllEndstopStatesEv
 2185              		.syntax unified
 2186              		.thumb
 2187              		.thumb_func
 2188              		.fpu fpv4-sp-d16
 2189              		.type	_ZNK8Platform19GetAllEndstopStatesEv, %function
 2190              	_ZNK8Platform19GetAllEndstopStatesEv:
 2191              		@ args = 0, pretend = 0, frame = 0
 2192              		@ frame_needed = 0, uses_anonymous_args = 0
 2193 0000 F8B5     		push	{r3, r4, r5, r6, r7, lr}
 2194 0002 0024     		movs	r4, #0
 2195 0004 00F23115 		addw	r5, r0, #305
 2196 0008 2646     		mov	r6, r4
 2197 000a 0127     		movs	r7, #1
 2198              	.L368:
 2199 000c 15F8013F 		ldrb	r3, [r5, #1]!	@ zero_extendqisi2
 2200 0010 FF2B     		cmp	r3, #255
 2201 0012 1846     		mov	r0, r3
 2202 0014 05D0     		beq	.L367
 2203 0016 FFF7FEFF 		bl	_ZN6IoPort7ReadPinEh
 2204 001a 10B1     		cbz	r0, .L367
 2205 001c 07FA04F3 		lsl	r3, r7, r4
 2206 0020 1E43     		orrs	r6, r6, r3
 2207              	.L367:
 2208 0022 0134     		adds	r4, r4, #1
 2209 0024 0C2C     		cmp	r4, #12
 2210 0026 F1D1     		bne	.L368
 2211 0028 3046     		mov	r0, r6
 2212 002a F8BD     		pop	{r3, r4, r5, r6, r7, pc}
 2213              		.size	_ZNK8Platform19GetAllEndstopStatesEv, .-_ZNK8Platform19GetAllEndstopStatesEv
 2214              		.section	.text._ZNK8Platform15GetZProbeResultEv,"ax",%progbits
 2215              		.align	1
 2216              		.p2align 2,,3
 2217              		.global	_ZNK8Platform15GetZProbeResultEv
 2218              		.syntax unified
 2219              		.thumb
 2220              		.thumb_func
 2221              		.fpu fpv4-sp-d16
 2222              		.type	_ZNK8Platform15GetZProbeResultEv, %function
 2223              	_ZNK8Platform15GetZProbeResultEv:
ARM GAS  /tmp/ccghtDyP.s 			page 40


 2224              		@ args = 0, pretend = 0, frame = 0
 2225              		@ frame_needed = 0, uses_anonymous_args = 0
 2226 0000 10B5     		push	{r4, lr}
 2227 0002 0446     		mov	r4, r0
 2228 0004 FFF7FEFF 		bl	_ZNK8Platform16GetZProbeReadingEv
 2229 0008 94F89430 		ldrb	r3, [r4, #148]	@ zero_extendqisi2
 2230 000c 0A2B     		cmp	r3, #10
 2231 000e 08D8     		bhi	.L378
 2232 0010 0122     		movs	r2, #1
 2233 0012 02FA03F3 		lsl	r3, r2, r3
 2234 0016 40F22672 		movw	r2, #1830
 2235 001a 1342     		tst	r3, r2
 2236 001c 0FD1     		bne	.L379
 2237 001e 1B07     		lsls	r3, r3, #28
 2238 0020 13D4     		bmi	.L380
 2239              	.L378:
 2240 0022 0434     		adds	r4, r4, #4
 2241              	.L381:
 2242 0024 2368     		ldr	r3, [r4]
 2243 0026 9842     		cmp	r0, r3
 2244 0028 0DDA     		bge	.L383
 2245              	.L386:
 2246 002a 00EB8000 		add	r0, r0, r0, lsl #2
 2247 002e 03EBC303 		add	r3, r3, r3, lsl #3
 2248 0032 B3EB400F 		cmp	r3, r0, lsl #1
 2249 0036 D4BF     		ite	le
 2250 0038 0320     		movle	r0, #3
 2251 003a 0020     		movgt	r0, #0
 2252 003c 10BD     		pop	{r4, pc}
 2253              	.L379:
 2254 003e 3434     		adds	r4, r4, #52
 2255 0040 2368     		ldr	r3, [r4]
 2256 0042 9842     		cmp	r0, r3
 2257 0044 F1DB     		blt	.L386
 2258              	.L383:
 2259 0046 0120     		movs	r0, #1
 2260 0048 10BD     		pop	{r4, pc}
 2261              	.L380:
 2262 004a 6434     		adds	r4, r4, #100
 2263 004c EAE7     		b	.L381
 2264              		.size	_ZNK8Platform15GetZProbeResultEv, .-_ZNK8Platform15GetZProbeResultEv
 2265 004e 00BF     		.section	.text._ZNK8Platform7StoppedEj,"ax",%progbits
 2266              		.align	1
 2267              		.p2align 2,,3
 2268              		.global	_ZNK8Platform7StoppedEj
 2269              		.syntax unified
 2270              		.thumb
 2271              		.thumb_func
 2272              		.fpu fpv4-sp-d16
 2273              		.type	_ZNK8Platform7StoppedEj, %function
 2274              	_ZNK8Platform7StoppedEj:
 2275              		@ args = 0, pretend = 0, frame = 0
 2276              		@ frame_needed = 0, uses_anonymous_args = 0
 2277 0000 F8B5     		push	{r3, r4, r5, r6, r7, lr}
 2278 0002 534D     		ldr	r5, .L444
 2279 0004 2B69     		ldr	r3, [r5, #16]
 2280 0006 D3F89832 		ldr	r3, [r3, #664]
ARM GAS  /tmp/ccghtDyP.s 			page 41


 2281 000a 9942     		cmp	r1, r3
 2282 000c 0446     		mov	r4, r0
 2283 000e 09D2     		bcs	.L388
 2284 0010 00EB8106 		add	r6, r0, r1, lsl #2
 2285 0014 D6F89427 		ldr	r2, [r6, #1940]
 2286 0018 032A     		cmp	r2, #3
 2287 001a 0FD8     		bhi	.L407
 2288 001c DFE802F0 		tbb	[pc, r2]
 2289              	.L391:
 2290 0020 25       		.byte	(.L390-.L391)/2
 2291 0021 2F       		.byte	(.L392-.L391)/2
 2292 0022 39       		.byte	(.L393-.L391)/2
 2293 0023 10       		.byte	(.L394-.L391)/2
 2294              		.p2align 1
 2295              	.L388:
 2296 0024 0B29     		cmp	r1, #11
 2297 0026 09D8     		bhi	.L407
 2298 0028 C91A     		subs	r1, r1, r3
 2299 002a 0144     		add	r1, r1, r0
 2300 002c 91F84003 		ldrb	r0, [r1, #832]	@ zero_extendqisi2
 2301 0030 0B28     		cmp	r0, #11
 2302 0032 03D8     		bhi	.L407
 2303 0034 FFF7FEFF 		bl	_ZN12SmartDrivers13GetLiveStatusEj
 2304 0038 C307     		lsls	r3, r0, #31
 2305 003a 34D4     		bmi	.L403
 2306              	.L407:
 2307 003c 0020     		movs	r0, #0
 2308              	.L387:
 2309 003e F8BD     		pop	{r3, r4, r5, r6, r7, pc}
 2310              	.L394:
 2311 0040 AA68     		ldr	r2, [r5, #8]
 2312 0042 D2F8582A 		ldr	r2, [r2, #2648]
 2313 0046 977B     		ldrb	r7, [r2, #14]	@ zero_extendqisi2
 2314 0048 022F     		cmp	r7, #2
 2315 004a 5BD0     		beq	.L397
 2316 004c 052F     		cmp	r7, #5
 2317 004e 42D0     		beq	.L398
 2318 0050 012F     		cmp	r7, #1
 2319 0052 2AD0     		beq	.L442
 2320              	.L435:
 2321 0054 2046     		mov	r0, r4
 2322 0056 FFF7FEFF 		bl	_ZNK8Platform19AnyAxisMotorStalledEj.part.18
 2323 005a 0028     		cmp	r0, #0
 2324 005c EED0     		beq	.L407
 2325              	.L441:
 2326 005e D6F87037 		ldr	r3, [r6, #1904]
 2327 0062 022B     		cmp	r3, #2
 2328 0064 1FD0     		beq	.L403
 2329              	.L395:
 2330 0066 0120     		movs	r0, #1
 2331 0068 F8BD     		pop	{r3, r4, r5, r6, r7, pc}
 2332              	.L390:
 2333 006a 2144     		add	r1, r1, r4
 2334 006c 91F83201 		ldrb	r0, [r1, #306]	@ zero_extendqisi2
 2335 0070 FF28     		cmp	r0, #255
 2336 0072 E3D0     		beq	.L407
 2337 0074 FFF7FEFF 		bl	_ZN6IoPort7ReadPinEh
ARM GAS  /tmp/ccghtDyP.s 			page 42


 2338 0078 0028     		cmp	r0, #0
 2339 007a F0D0     		beq	.L441
 2340 007c DEE7     		b	.L407
 2341              	.L392:
 2342 007e 2144     		add	r1, r1, r4
 2343 0080 91F83201 		ldrb	r0, [r1, #306]	@ zero_extendqisi2
 2344 0084 FF28     		cmp	r0, #255
 2345 0086 D9D0     		beq	.L407
 2346 0088 FFF7FEFF 		bl	_ZN6IoPort7ReadPinEh
 2347 008c 0028     		cmp	r0, #0
 2348 008e E6D1     		bne	.L441
 2349 0090 D4E7     		b	.L407
 2350              	.L393:
 2351 0092 2046     		mov	r0, r4
 2352 0094 FFF7FEFF 		bl	_ZNK8Platform15GetZProbeResultEv
 2353 0098 0128     		cmp	r0, #1
 2354 009a D0D1     		bne	.L387
 2355 009c D6F87007 		ldr	r0, [r6, #1904]
 2356 00a0 0228     		cmp	r0, #2
 2357 00a2 E0D1     		bne	.L395
 2358 00a4 F8BD     		pop	{r3, r4, r5, r6, r7, pc}
 2359              	.L403:
 2360 00a6 0220     		movs	r0, #2
 2361 00a8 F8BD     		pop	{r3, r4, r5, r6, r7, pc}
 2362              	.L442:
 2363 00aa 0129     		cmp	r1, #1
 2364 00ac D2D8     		bhi	.L435
 2365 00ae 002B     		cmp	r3, #0
 2366 00b0 C4D0     		beq	.L407
 2367 00b2 0021     		movs	r1, #0
 2368 00b4 2046     		mov	r0, r4
 2369 00b6 FFF7FEFF 		bl	_ZNK8Platform19AnyAxisMotorStalledEj.part.18
 2370 00ba 0028     		cmp	r0, #0
 2371 00bc CFD1     		bne	.L441
 2372 00be 2B69     		ldr	r3, [r5, #16]
 2373 00c0 D3F89832 		ldr	r3, [r3, #664]
 2374 00c4 012B     		cmp	r3, #1
 2375 00c6 B9D9     		bls	.L407
 2376              	.L437:
 2377 00c8 3946     		mov	r1, r7
 2378 00ca 2046     		mov	r0, r4
 2379 00cc FFF7FEFF 		bl	_ZNK8Platform19AnyAxisMotorStalledEj.part.18
 2380 00d0 0028     		cmp	r0, #0
 2381 00d2 C4D1     		bne	.L441
 2382 00d4 B2E7     		b	.L407
 2383              	.L398:
 2384 00d6 0129     		cmp	r1, #1
 2385 00d8 25D9     		bls	.L443
 2386 00da 0329     		cmp	r1, #3
 2387 00dc BAD1     		bne	.L435
 2388 00de 032B     		cmp	r3, #3
 2389 00e0 ACD9     		bls	.L407
 2390 00e2 2046     		mov	r0, r4
 2391 00e4 FFF7FEFF 		bl	_ZNK8Platform19AnyAxisMotorStalledEj.part.18
 2392 00e8 0028     		cmp	r0, #0
 2393 00ea B8D1     		bne	.L441
 2394 00ec 2B69     		ldr	r3, [r5, #16]
ARM GAS  /tmp/ccghtDyP.s 			page 43


 2395 00ee D3F89832 		ldr	r3, [r3, #664]
 2396 00f2 042B     		cmp	r3, #4
 2397 00f4 A2D9     		bls	.L407
 2398 00f6 2046     		mov	r0, r4
 2399 00f8 0421     		movs	r1, #4
 2400 00fa FFF7FEFF 		bl	_ZNK8Platform19AnyAxisMotorStalledEj.part.18
 2401 00fe 0028     		cmp	r0, #0
 2402 0100 ADD1     		bne	.L441
 2403 0102 9BE7     		b	.L407
 2404              	.L397:
 2405 0104 31F00202 		bics	r2, r1, #2
 2406 0108 A4D1     		bne	.L435
 2407 010a 002B     		cmp	r3, #0
 2408 010c 96D0     		beq	.L407
 2409 010e 1146     		mov	r1, r2
 2410 0110 2046     		mov	r0, r4
 2411 0112 FFF7FEFF 		bl	_ZNK8Platform19AnyAxisMotorStalledEj.part.18
 2412 0116 0028     		cmp	r0, #0
 2413 0118 A1D1     		bne	.L441
 2414 011a 2B69     		ldr	r3, [r5, #16]
 2415 011c D3F89832 		ldr	r3, [r3, #664]
 2416 0120 022B     		cmp	r3, #2
 2417 0122 D1D8     		bhi	.L437
 2418 0124 8AE7     		b	.L407
 2419              	.L443:
 2420 0126 002B     		cmp	r3, #0
 2421 0128 88D0     		beq	.L407
 2422 012a 0021     		movs	r1, #0
 2423 012c 2046     		mov	r0, r4
 2424 012e FFF7FEFF 		bl	_ZNK8Platform19AnyAxisMotorStalledEj.part.18
 2425 0132 0028     		cmp	r0, #0
 2426 0134 93D1     		bne	.L441
 2427 0136 2B69     		ldr	r3, [r5, #16]
 2428 0138 D3F89832 		ldr	r3, [r3, #664]
 2429 013c 012B     		cmp	r3, #1
 2430 013e 7FF67DAF 		bls	.L407
 2431 0142 2046     		mov	r0, r4
 2432 0144 0121     		movs	r1, #1
 2433 0146 FFF7FEFF 		bl	_ZNK8Platform19AnyAxisMotorStalledEj.part.18
 2434 014a 0028     		cmp	r0, #0
 2435 014c 87D1     		bne	.L441
 2436 014e 75E7     		b	.L407
 2437              	.L445:
 2438              		.align	2
 2439              	.L444:
 2440 0150 00000000 		.word	reprap
 2441              		.size	_ZNK8Platform7StoppedEj, .-_ZNK8Platform7StoppedEj
 2442              		.section	.text._ZN8Platform12SetDirectionEjb,"ax",%progbits
 2443              		.align	1
 2444              		.p2align 2,,3
 2445              		.global	_ZN8Platform12SetDirectionEjb
 2446              		.syntax unified
 2447              		.thumb
 2448              		.thumb_func
 2449              		.fpu fpv4-sp-d16
 2450              		.type	_ZN8Platform12SetDirectionEjb, %function
 2451              	_ZN8Platform12SetDirectionEjb:
ARM GAS  /tmp/ccghtDyP.s 			page 44


 2452              		@ args = 0, pretend = 0, frame = 0
 2453              		@ frame_needed = 0, uses_anonymous_args = 0
 2454 0000 2DE9F047 		push	{r4, r5, r6, r7, r8, r9, r10, lr}
 2455 0004 0646     		mov	r6, r0
 2456 0006 00EB8100 		add	r0, r0, r1, lsl #2
 2457 000a D6F8BC33 		ldr	r3, [r6, #956]
 2458 000e D0F84C73 		ldr	r7, [r0, #844]
 2459 0012 1F40     		ands	r7, r7, r3
 2460 0014 9046     		mov	r8, r2
 2461 0016 09D0     		beq	.L447
 2462 0018 2A4B     		ldr	r3, .L471
 2463 001a D6F8B843 		ldr	r4, [r6, #952]
 2464 001e 1868     		ldr	r0, [r3]
 2465 0020 294A     		ldr	r2, .L471+4
 2466              	.L448:
 2467 0022 D2F89030 		ldr	r3, [r2, #144]
 2468 0026 1B1A     		subs	r3, r3, r0
 2469 0028 A342     		cmp	r3, r4
 2470 002a FAD3     		bcc	.L448
 2471              	.L447:
 2472 002c 274B     		ldr	r3, .L471+8
 2473 002e 1B69     		ldr	r3, [r3, #16]
 2474 0030 D3F89832 		ldr	r3, [r3, #664]
 2475 0034 9942     		cmp	r1, r3
 2476 0036 1BD2     		bcs	.L449
 2477 0038 C900     		lsls	r1, r1, #3
 2478 003a 06EB010A 		add	r10, r6, r1
 2479 003e DAF8F822 		ldr	r2, [r10, #760]
 2480 0042 6AB1     		cbz	r2, .L451
 2481 0044 01F53F71 		add	r1, r1, #764
 2482 0048 DFF88890 		ldr	r9, .L471+16
 2483 004c 7418     		adds	r4, r6, r1
 2484 004e 0025     		movs	r5, #0
 2485              	.L455:
 2486 0050 14F8013B 		ldrb	r3, [r4], #1	@ zero_extendqisi2
 2487 0054 0B2B     		cmp	r3, #11
 2488 0056 05F10105 		add	r5, r5, #1
 2489 005a 23D9     		bls	.L470
 2490              	.L452:
 2491 005c AA42     		cmp	r2, r5
 2492 005e F7D8     		bhi	.L455
 2493              	.L451:
 2494 0060 27B1     		cbz	r7, .L446
 2495 0062 194A     		ldr	r2, .L471+4
 2496 0064 1A4B     		ldr	r3, .L471+12
 2497 0066 D2F89020 		ldr	r2, [r2, #144]
 2498 006a 1A60     		str	r2, [r3]
 2499              	.L446:
 2500 006c BDE8F087 		pop	{r4, r5, r6, r7, r8, r9, r10, pc}
 2501              	.L449:
 2502 0070 0B29     		cmp	r1, #11
 2503 0072 12D8     		bhi	.L456
 2504 0074 C91A     		subs	r1, r1, r3
 2505 0076 3144     		add	r1, r1, r6
 2506 0078 91F84033 		ldrb	r3, [r1, #832]	@ zero_extendqisi2
 2507 007c 0B2B     		cmp	r3, #11
 2508 007e EFD8     		bhi	.L451
ARM GAS  /tmp/ccghtDyP.s 			page 45


 2509              	.L469:
 2510 0080 1E44     		add	r6, r6, r3
 2511 0082 96F8D010 		ldrb	r1, [r6, #208]	@ zero_extendqisi2
 2512 0086 B8F1000F 		cmp	r8, #0
 2513 008a 01D1     		bne	.L458
 2514 008c 81F00101 		eor	r1, r1, #1
 2515              	.L458:
 2516 0090 104A     		ldr	r2, .L471+16
 2517 0092 D05C     		ldrb	r0, [r2, r3]	@ zero_extendqisi2
 2518 0094 FFF7FEFF 		bl	digitalWrite
 2519 0098 E2E7     		b	.L451
 2520              	.L456:
 2521 009a 1729     		cmp	r1, #23
 2522 009c E0D8     		bhi	.L451
 2523 009e 0C39     		subs	r1, r1, #12
 2524 00a0 CBB2     		uxtb	r3, r1
 2525 00a2 EDE7     		b	.L469
 2526              	.L470:
 2527 00a4 F218     		adds	r2, r6, r3
 2528 00a6 92F8D010 		ldrb	r1, [r2, #208]	@ zero_extendqisi2
 2529 00aa B8F1000F 		cmp	r8, #0
 2530 00ae 01D1     		bne	.L453
 2531 00b0 81F00101 		eor	r1, r1, #1
 2532              	.L453:
 2533 00b4 19F80300 		ldrb	r0, [r9, r3]	@ zero_extendqisi2
 2534 00b8 FFF7FEFF 		bl	digitalWrite
 2535 00bc DAF8F822 		ldr	r2, [r10, #760]
 2536 00c0 CCE7     		b	.L452
 2537              	.L472:
 2538 00c2 00BF     		.align	2
 2539              	.L471:
 2540 00c4 00000000 		.word	_ZN3DDA15lastStepLowTimeE
 2541 00c8 00000940 		.word	1074331648
 2542 00cc 00000000 		.word	reprap
 2543 00d0 00000000 		.word	_ZN3DDA17lastDirChangeTimeE
 2544 00d4 00000000 		.word	.LANCHOR5
 2545              		.size	_ZN8Platform12SetDirectionEjb, .-_ZN8Platform12SetDirectionEjb
 2546              		.section	.text._ZN8Platform12EnableDriverEj,"ax",%progbits
 2547              		.align	1
 2548              		.p2align 2,,3
 2549              		.global	_ZN8Platform12EnableDriverEj
 2550              		.syntax unified
 2551              		.thumb
 2552              		.thumb_func
 2553              		.fpu fpv4-sp-d16
 2554              		.type	_ZN8Platform12EnableDriverEj, %function
 2555              	_ZN8Platform12EnableDriverEj:
 2556              		@ args = 0, pretend = 0, frame = 0
 2557              		@ frame_needed = 0, uses_anonymous_args = 0
 2558 0000 0B29     		cmp	r1, #11
 2559 0002 1DD8     		bhi	.L480
 2560 0004 70B5     		push	{r4, r5, r6, lr}
 2561 0006 4618     		adds	r6, r0, r1
 2562 0008 0546     		mov	r5, r0
 2563 000a 96F8C440 		ldrb	r4, [r6, #196]	@ zero_extendqisi2
 2564 000e 022C     		cmp	r4, #2
 2565 0010 15D0     		beq	.L473
ARM GAS  /tmp/ccghtDyP.s 			page 46


 2566 0012 0223     		movs	r3, #2
 2567 0014 86F8C430 		strb	r3, [r6, #196]
 2568 0018 0C46     		mov	r4, r1
 2569 001a FFF7FEFF 		bl	_ZN8Platform18UpdateMotorCurrentEj.part.21
 2570 001e D5F8C433 		ldr	r3, [r5, #964]
 2571 0022 A342     		cmp	r3, r4
 2572 0024 0DD8     		bhi	.L483
 2573 0026 96F9E810 		ldrsb	r1, [r6, #232]
 2574 002a 094B     		ldr	r3, .L484
 2575 002c 0029     		cmp	r1, #0
 2576 002e 185D     		ldrb	r0, [r3, r4]	@ zero_extendqisi2
 2577 0030 D4BF     		ite	le
 2578 0032 0021     		movle	r1, #0
 2579 0034 0121     		movgt	r1, #1
 2580 0036 BDE87040 		pop	{r4, r5, r6, lr}
 2581 003a FFF7FEBF 		b	digitalWrite
 2582              	.L473:
 2583 003e 70BD     		pop	{r4, r5, r6, pc}
 2584              	.L480:
 2585 0040 7047     		bx	lr
 2586              	.L483:
 2587 0042 2046     		mov	r0, r4
 2588 0044 0121     		movs	r1, #1
 2589 0046 BDE87040 		pop	{r4, r5, r6, lr}
 2590 004a FFF7FEBF 		b	_ZN12SmartDrivers11EnableDriveEjb
 2591              	.L485:
 2592 004e 00BF     		.align	2
 2593              	.L484:
 2594 0050 00000000 		.word	.LANCHOR3
 2595              		.size	_ZN8Platform12EnableDriverEj, .-_ZN8Platform12EnableDriverEj
 2596              		.section	.text._ZN8Platform13DisableDriverEj,"ax",%progbits
 2597              		.align	1
 2598              		.p2align 2,,3
 2599              		.global	_ZN8Platform13DisableDriverEj
 2600              		.syntax unified
 2601              		.thumb
 2602              		.thumb_func
 2603              		.fpu fpv4-sp-d16
 2604              		.type	_ZN8Platform13DisableDriverEj, %function
 2605              	_ZN8Platform13DisableDriverEj:
 2606              		@ args = 0, pretend = 0, frame = 0
 2607              		@ frame_needed = 0, uses_anonymous_args = 0
 2608              		@ link register save eliminated.
 2609 0000 0B29     		cmp	r1, #11
 2610 0002 01D8     		bhi	.L486
 2611 0004 FFF7FEBF 		b	_ZN8Platform13DisableDriverEj.part.20
 2612              	.L486:
 2613 0008 7047     		bx	lr
 2614              		.size	_ZN8Platform13DisableDriverEj, .-_ZN8Platform13DisableDriverEj
 2615 000a 00BF     		.section	.text._ZN8Platform11EnableDriveEj,"ax",%progbits
 2616              		.align	1
 2617              		.p2align 2,,3
 2618              		.global	_ZN8Platform11EnableDriveEj
 2619              		.syntax unified
 2620              		.thumb
 2621              		.thumb_func
 2622              		.fpu fpv4-sp-d16
ARM GAS  /tmp/ccghtDyP.s 			page 47


 2623              		.type	_ZN8Platform11EnableDriveEj, %function
 2624              	_ZN8Platform11EnableDriveEj:
 2625              		@ args = 0, pretend = 0, frame = 0
 2626              		@ frame_needed = 0, uses_anonymous_args = 0
 2627 0000 F8B5     		push	{r3, r4, r5, r6, r7, lr}
 2628 0002 124B     		ldr	r3, .L495
 2629 0004 1B69     		ldr	r3, [r3, #16]
 2630 0006 D3F89832 		ldr	r3, [r3, #664]
 2631 000a 8B42     		cmp	r3, r1
 2632 000c 0646     		mov	r6, r0
 2633 000e 13D9     		bls	.L489
 2634 0010 C900     		lsls	r1, r1, #3
 2635 0012 4718     		adds	r7, r0, r1
 2636 0014 D7F8F832 		ldr	r3, [r7, #760]
 2637 0018 6BB1     		cbz	r3, .L488
 2638 001a 01F53F71 		add	r1, r1, #764
 2639 001e 4418     		adds	r4, r0, r1
 2640 0020 0025     		movs	r5, #0
 2641              	.L493:
 2642 0022 14F8011B 		ldrb	r1, [r4], #1	@ zero_extendqisi2
 2643 0026 3046     		mov	r0, r6
 2644 0028 FFF7FEFF 		bl	_ZN8Platform12EnableDriverEj
 2645 002c D7F8F832 		ldr	r3, [r7, #760]
 2646 0030 0135     		adds	r5, r5, #1
 2647 0032 AB42     		cmp	r3, r5
 2648 0034 F5D8     		bhi	.L493
 2649              	.L488:
 2650 0036 F8BD     		pop	{r3, r4, r5, r6, r7, pc}
 2651              	.L489:
 2652 0038 0B29     		cmp	r1, #11
 2653 003a FCD8     		bhi	.L488
 2654 003c C91A     		subs	r1, r1, r3
 2655 003e 0144     		add	r1, r1, r0
 2656 0040 BDE8F840 		pop	{r3, r4, r5, r6, r7, lr}
 2657 0044 91F84013 		ldrb	r1, [r1, #832]	@ zero_extendqisi2
 2658 0048 FFF7FEBF 		b	_ZN8Platform12EnableDriverEj
 2659              	.L496:
 2660              		.align	2
 2661              	.L495:
 2662 004c 00000000 		.word	reprap
 2663              		.size	_ZN8Platform11EnableDriveEj, .-_ZN8Platform11EnableDriveEj
 2664              		.section	.text._ZN8Platform12DisableDriveEj,"ax",%progbits
 2665              		.align	1
 2666              		.p2align 2,,3
 2667              		.global	_ZN8Platform12DisableDriveEj
 2668              		.syntax unified
 2669              		.thumb
 2670              		.thumb_func
 2671              		.fpu fpv4-sp-d16
 2672              		.type	_ZN8Platform12DisableDriveEj, %function
 2673              	_ZN8Platform12DisableDriveEj:
 2674              		@ args = 0, pretend = 0, frame = 0
 2675              		@ frame_needed = 0, uses_anonymous_args = 0
 2676 0000 F8B5     		push	{r3, r4, r5, r6, r7, lr}
 2677 0002 154B     		ldr	r3, .L506
 2678 0004 1B69     		ldr	r3, [r3, #16]
 2679 0006 D3F89822 		ldr	r2, [r3, #664]
ARM GAS  /tmp/ccghtDyP.s 			page 48


 2680 000a 8A42     		cmp	r2, r1
 2681 000c 0646     		mov	r6, r0
 2682 000e 11D9     		bls	.L498
 2683 0010 C900     		lsls	r1, r1, #3
 2684 0012 4718     		adds	r7, r0, r1
 2685 0014 D7F8F822 		ldr	r2, [r7, #760]
 2686 0018 5AB1     		cbz	r2, .L497
 2687 001a 01F53F71 		add	r1, r1, #764
 2688 001e 4418     		adds	r4, r0, r1
 2689 0020 0025     		movs	r5, #0
 2690              	.L503:
 2691 0022 14F8011B 		ldrb	r1, [r4], #1	@ zero_extendqisi2
 2692 0026 0B29     		cmp	r1, #11
 2693 0028 05F10105 		add	r5, r5, #1
 2694 002c 0ED9     		bls	.L505
 2695              	.L501:
 2696 002e AA42     		cmp	r2, r5
 2697 0030 F7D8     		bhi	.L503
 2698              	.L497:
 2699 0032 F8BD     		pop	{r3, r4, r5, r6, r7, pc}
 2700              	.L498:
 2701 0034 0B29     		cmp	r1, #11
 2702 0036 FCD8     		bhi	.L497
 2703 0038 891A     		subs	r1, r1, r2
 2704 003a 0144     		add	r1, r1, r0
 2705 003c 91F84013 		ldrb	r1, [r1, #832]	@ zero_extendqisi2
 2706 0040 0B29     		cmp	r1, #11
 2707 0042 F6D8     		bhi	.L497
 2708 0044 BDE8F840 		pop	{r3, r4, r5, r6, r7, lr}
 2709 0048 FFF7FEBF 		b	_ZN8Platform13DisableDriverEj.part.20
 2710              	.L505:
 2711 004c 3046     		mov	r0, r6
 2712 004e FFF7FEFF 		bl	_ZN8Platform13DisableDriverEj.part.20
 2713 0052 D7F8F822 		ldr	r2, [r7, #760]
 2714 0056 EAE7     		b	.L501
 2715              	.L507:
 2716              		.align	2
 2717              	.L506:
 2718 0058 00000000 		.word	reprap
 2719              		.size	_ZN8Platform12DisableDriveEj, .-_ZN8Platform12DisableDriveEj
 2720              		.section	.text._ZN8Platform16DisableAllDrivesEv,"ax",%progbits
 2721              		.align	1
 2722              		.p2align 2,,3
 2723              		.global	_ZN8Platform16DisableAllDrivesEv
 2724              		.syntax unified
 2725              		.thumb
 2726              		.thumb_func
 2727              		.fpu fpv4-sp-d16
 2728              		.type	_ZN8Platform16DisableAllDrivesEv, %function
 2729              	_ZN8Platform16DisableAllDrivesEv:
 2730              		@ args = 0, pretend = 0, frame = 0
 2731              		@ frame_needed = 0, uses_anonymous_args = 0
 2732 0000 38B5     		push	{r3, r4, r5, lr}
 2733 0002 0546     		mov	r5, r0
 2734 0004 0024     		movs	r4, #0
 2735              	.L509:
 2736 0006 2146     		mov	r1, r4
ARM GAS  /tmp/ccghtDyP.s 			page 49


 2737 0008 2846     		mov	r0, r5
 2738 000a FFF7FEFF 		bl	_ZN8Platform18UpdateMotorCurrentEj.part.21
 2739 000e 2146     		mov	r1, r4
 2740 0010 2846     		mov	r0, r5
 2741 0012 0134     		adds	r4, r4, #1
 2742 0014 FFF7FEFF 		bl	_ZN8Platform13DisableDriverEj.part.20
 2743 0018 0C2C     		cmp	r4, #12
 2744 001a F4D1     		bne	.L509
 2745 001c 38BD     		pop	{r3, r4, r5, pc}
 2746              		.size	_ZN8Platform16DisableAllDrivesEv, .-_ZN8Platform16DisableAllDrivesEv
 2747 001e 00BF     		.section	.text._ZN8Platform14SetDriversIdleEv,"ax",%progbits
 2748              		.align	1
 2749              		.p2align 2,,3
 2750              		.global	_ZN8Platform14SetDriversIdleEv
 2751              		.syntax unified
 2752              		.thumb
 2753              		.thumb_func
 2754              		.fpu fpv4-sp-d16
 2755              		.type	_ZN8Platform14SetDriversIdleEv, %function
 2756              	_ZN8Platform14SetDriversIdleEv:
 2757              		@ args = 0, pretend = 0, frame = 0
 2758              		@ frame_needed = 0, uses_anonymous_args = 0
 2759 0000 70B5     		push	{r4, r5, r6, lr}
 2760 0002 0546     		mov	r5, r0
 2761 0004 0024     		movs	r4, #0
 2762 0006 0126     		movs	r6, #1
 2763 0008 02E0     		b	.L514
 2764              	.L513:
 2765 000a 0134     		adds	r4, r4, #1
 2766 000c 0C2C     		cmp	r4, #12
 2767 000e 0DD0     		beq	.L517
 2768              	.L514:
 2769 0010 2B19     		adds	r3, r5, r4
 2770 0012 93F8C420 		ldrb	r2, [r3, #196]	@ zero_extendqisi2
 2771 0016 022A     		cmp	r2, #2
 2772 0018 F7D1     		bne	.L513
 2773 001a 2146     		mov	r1, r4
 2774 001c 83F8C460 		strb	r6, [r3, #196]
 2775 0020 2846     		mov	r0, r5
 2776 0022 0134     		adds	r4, r4, #1
 2777 0024 FFF7FEFF 		bl	_ZN8Platform18UpdateMotorCurrentEj.part.21
 2778 0028 0C2C     		cmp	r4, #12
 2779 002a F1D1     		bne	.L514
 2780              	.L517:
 2781 002c 70BD     		pop	{r4, r5, r6, pc}
 2782              		.size	_ZN8Platform14SetDriversIdleEv, .-_ZN8Platform14SetDriversIdleEv
 2783 002e 00BF     		.section	.text._ZN8Platform16SetDriverCurrentEjfi,"ax",%progbits
 2784              		.align	1
 2785              		.p2align 2,,3
 2786              		.global	_ZN8Platform16SetDriverCurrentEjfi
 2787              		.syntax unified
 2788              		.thumb
 2789              		.thumb_func
 2790              		.fpu fpv4-sp-d16
 2791              		.type	_ZN8Platform16SetDriverCurrentEjfi, %function
 2792              	_ZN8Platform16SetDriverCurrentEjfi:
 2793              		@ args = 0, pretend = 0, frame = 0
ARM GAS  /tmp/ccghtDyP.s 			page 50


 2794              		@ frame_needed = 0, uses_anonymous_args = 0
 2795              		@ link register save eliminated.
 2796 0000 0B29     		cmp	r1, #11
 2797 0002 01D8     		bhi	.L518
 2798 0004 FFF7FEBF 		b	_ZN8Platform16SetDriverCurrentEjfi.part.23
 2799              	.L518:
 2800 0008 7047     		bx	lr
 2801              		.size	_ZN8Platform16SetDriverCurrentEjfi, .-_ZN8Platform16SetDriverCurrentEjfi
 2802 000a 00BF     		.section	.text._ZN8Platform15SetMotorCurrentEjfi,"ax",%progbits
 2803              		.align	1
 2804              		.p2align 2,,3
 2805              		.global	_ZN8Platform15SetMotorCurrentEjfi
 2806              		.syntax unified
 2807              		.thumb
 2808              		.thumb_func
 2809              		.fpu fpv4-sp-d16
 2810              		.type	_ZN8Platform15SetMotorCurrentEjfi, %function
 2811              	_ZN8Platform15SetMotorCurrentEjfi:
 2812              		@ args = 0, pretend = 0, frame = 0
 2813              		@ frame_needed = 0, uses_anonymous_args = 0
 2814 0000 2DE9F843 		push	{r3, r4, r5, r6, r7, r8, r9, lr}
 2815 0004 194B     		ldr	r3, .L529
 2816 0006 1B69     		ldr	r3, [r3, #16]
 2817 0008 D3F89842 		ldr	r4, [r3, #664]
 2818 000c 8C42     		cmp	r4, r1
 2819 000e 8146     		mov	r9, r0
 2820 0010 16D9     		bls	.L521
 2821 0012 C900     		lsls	r1, r1, #3
 2822 0014 00EB0108 		add	r8, r0, r1
 2823 0018 1746     		mov	r7, r2
 2824 001a D8F8F822 		ldr	r2, [r8, #760]
 2825 001e 6AB1     		cbz	r2, .L520
 2826 0020 01F53F71 		add	r1, r1, #764
 2827 0024 10EE106A 		vmov	r6, s0
 2828 0028 4418     		adds	r4, r0, r1
 2829 002a 0025     		movs	r5, #0
 2830              	.L526:
 2831 002c 14F8011B 		ldrb	r1, [r4], #1	@ zero_extendqisi2
 2832 0030 0B29     		cmp	r1, #11
 2833 0032 05F10105 		add	r5, r5, #1
 2834 0036 0FD9     		bls	.L528
 2835              	.L524:
 2836 0038 AA42     		cmp	r2, r5
 2837 003a F7D8     		bhi	.L526
 2838              	.L520:
 2839 003c BDE8F883 		pop	{r3, r4, r5, r6, r7, r8, r9, pc}
 2840              	.L521:
 2841 0040 0B29     		cmp	r1, #11
 2842 0042 FBD8     		bhi	.L520
 2843 0044 091B     		subs	r1, r1, r4
 2844 0046 0144     		add	r1, r1, r0
 2845 0048 91F84013 		ldrb	r1, [r1, #832]	@ zero_extendqisi2
 2846 004c 0B29     		cmp	r1, #11
 2847 004e F5D8     		bhi	.L520
 2848 0050 BDE8F843 		pop	{r3, r4, r5, r6, r7, r8, r9, lr}
 2849 0054 FFF7FEBF 		b	_ZN8Platform16SetDriverCurrentEjfi.part.23
 2850              	.L528:
ARM GAS  /tmp/ccghtDyP.s 			page 51


 2851 0058 3A46     		mov	r2, r7
 2852 005a 00EE106A 		vmov	s0, r6
 2853 005e 4846     		mov	r0, r9
 2854 0060 FFF7FEFF 		bl	_ZN8Platform16SetDriverCurrentEjfi.part.23
 2855 0064 D8F8F822 		ldr	r2, [r8, #760]
 2856 0068 E6E7     		b	.L524
 2857              	.L530:
 2858 006a 00BF     		.align	2
 2859              	.L529:
 2860 006c 00000000 		.word	reprap
 2861              		.size	_ZN8Platform15SetMotorCurrentEjfi, .-_ZN8Platform15SetMotorCurrentEjfi
 2862              		.section	.text._ZN8Platform18UpdateMotorCurrentEj,"ax",%progbits
 2863              		.align	1
 2864              		.p2align 2,,3
 2865              		.global	_ZN8Platform18UpdateMotorCurrentEj
 2866              		.syntax unified
 2867              		.thumb
 2868              		.thumb_func
 2869              		.fpu fpv4-sp-d16
 2870              		.type	_ZN8Platform18UpdateMotorCurrentEj, %function
 2871              	_ZN8Platform18UpdateMotorCurrentEj:
 2872              		@ args = 0, pretend = 0, frame = 0
 2873              		@ frame_needed = 0, uses_anonymous_args = 0
 2874              		@ link register save eliminated.
 2875 0000 0B29     		cmp	r1, #11
 2876 0002 01D8     		bhi	.L531
 2877 0004 FFF7FEBF 		b	_ZN8Platform18UpdateMotorCurrentEj.part.21
 2878              	.L531:
 2879 0008 7047     		bx	lr
 2880              		.size	_ZN8Platform18UpdateMotorCurrentEj, .-_ZN8Platform18UpdateMotorCurrentEj
 2881 000a 00BF     		.section	.text._ZNK8Platform15GetMotorCurrentEji,"ax",%progbits
 2882              		.align	1
 2883              		.p2align 2,,3
 2884              		.global	_ZNK8Platform15GetMotorCurrentEji
 2885              		.syntax unified
 2886              		.thumb
 2887              		.thumb_func
 2888              		.fpu fpv4-sp-d16
 2889              		.type	_ZNK8Platform15GetMotorCurrentEji, %function
 2890              	_ZNK8Platform15GetMotorCurrentEji:
 2891              		@ args = 0, pretend = 0, frame = 0
 2892              		@ frame_needed = 0, uses_anonymous_args = 0
 2893              		@ link register save eliminated.
 2894 0000 0B29     		cmp	r1, #11
 2895 0002 17D8     		bhi	.L544
 2896 0004 1B4B     		ldr	r3, .L548
 2897 0006 1B69     		ldr	r3, [r3, #16]
 2898 0008 D3F89832 		ldr	r3, [r3, #664]
 2899 000c 9942     		cmp	r1, r3
 2900 000e 14D3     		bcc	.L545
 2901 0010 C91A     		subs	r1, r1, r3
 2902 0012 0144     		add	r1, r1, r0
 2903 0014 91F84033 		ldrb	r3, [r1, #832]	@ zero_extendqisi2
 2904              	.L536:
 2905 0018 0B2B     		cmp	r3, #11
 2906 001a 0BD8     		bhi	.L544
 2907 001c 40F29131 		movw	r1, #913
ARM GAS  /tmp/ccghtDyP.s 			page 52


 2908 0020 8A42     		cmp	r2, r1
 2909 0022 1BD0     		beq	.L537
 2910 0024 40F29531 		movw	r1, #917
 2911 0028 8A42     		cmp	r2, r1
 2912 002a 0BD0     		beq	.L538
 2913 002c 40F28A31 		movw	r1, #906
 2914 0030 8A42     		cmp	r2, r1
 2915 0032 0ED0     		beq	.L546
 2916              	.L544:
 2917 0034 9FED100A 		vldr.32	s0, .L548+4
 2918 0038 7047     		bx	lr
 2919              	.L545:
 2920 003a 00EBC101 		add	r1, r0, r1, lsl #3
 2921 003e 91F8FC32 		ldrb	r3, [r1, #764]	@ zero_extendqisi2
 2922 0042 E9E7     		b	.L536
 2923              	.L538:
 2924 0044 D0F8C423 		ldr	r2, [r0, #964]
 2925 0048 9342     		cmp	r3, r2
 2926 004a 10D3     		bcc	.L547
 2927 004c 9FED0B0A 		vldr.32	s0, .L548+8
 2928 0050 7047     		bx	lr
 2929              	.L546:
 2930 0052 00EB8300 		add	r0, r0, r3, lsl #2
 2931 0056 90EDA60A 		vldr.32	s0, [r0, #664]
 2932 005a 7047     		bx	lr
 2933              	.L537:
 2934 005c 00EB8300 		add	r0, r0, r3, lsl #2
 2935 0060 90EDB20A 		vldr.32	s0, [r0, #712]
 2936 0064 DFED057A 		vldr.32	s15, .L548+8
 2937 0068 20EE270A 		vmul.f32	s0, s0, s15
 2938 006c 7047     		bx	lr
 2939              	.L547:
 2940 006e 1846     		mov	r0, r3
 2941 0070 FFF7FEBF 		b	_ZN12SmartDrivers27GetStandstillCurrentPercentEj
 2942              	.L549:
 2943              		.align	2
 2944              	.L548:
 2945 0074 00000000 		.word	reprap
 2946 0078 00000000 		.word	0
 2947 007c 0000C842 		.word	1120403456
 2948              		.size	_ZNK8Platform15GetMotorCurrentEji, .-_ZNK8Platform15GetMotorCurrentEji
 2949              		.section	.text._ZN8Platform20SetIdleCurrentFactorEf,"ax",%progbits
 2950              		.align	1
 2951              		.p2align 2,,3
 2952              		.global	_ZN8Platform20SetIdleCurrentFactorEf
 2953              		.syntax unified
 2954              		.thumb
 2955              		.thumb_func
 2956              		.fpu fpv4-sp-d16
 2957              		.type	_ZN8Platform20SetIdleCurrentFactorEf, %function
 2958              	_ZN8Platform20SetIdleCurrentFactorEf:
 2959              		@ args = 0, pretend = 0, frame = 0
 2960              		@ frame_needed = 0, uses_anonymous_args = 0
 2961 0000 38B5     		push	{r3, r4, r5, lr}
 2962 0002 0546     		mov	r5, r0
 2963 0004 80EDF00A 		vstr.32	s0, [r0, #960]
 2964 0008 0024     		movs	r4, #0
ARM GAS  /tmp/ccghtDyP.s 			page 53


 2965 000a 02E0     		b	.L552
 2966              	.L551:
 2967 000c 0134     		adds	r4, r4, #1
 2968 000e 0C2C     		cmp	r4, #12
 2969 0010 0BD0     		beq	.L555
 2970              	.L552:
 2971 0012 2B19     		adds	r3, r5, r4
 2972 0014 93F8C430 		ldrb	r3, [r3, #196]	@ zero_extendqisi2
 2973 0018 012B     		cmp	r3, #1
 2974 001a F7D1     		bne	.L551
 2975 001c 2146     		mov	r1, r4
 2976 001e 2846     		mov	r0, r5
 2977 0020 0134     		adds	r4, r4, #1
 2978 0022 FFF7FEFF 		bl	_ZN8Platform18UpdateMotorCurrentEj.part.21
 2979 0026 0C2C     		cmp	r4, #12
 2980 0028 F3D1     		bne	.L552
 2981              	.L555:
 2982 002a 38BD     		pop	{r3, r4, r5, pc}
 2983              		.size	_ZN8Platform20SetIdleCurrentFactorEf, .-_ZN8Platform20SetIdleCurrentFactorEf
 2984              		.section	.text._ZN8Platform22SetDriverMicrosteppingEjji,"ax",%progbits
 2985              		.align	1
 2986              		.p2align 2,,3
 2987              		.global	_ZN8Platform22SetDriverMicrosteppingEjji
 2988              		.syntax unified
 2989              		.thumb
 2990              		.thumb_func
 2991              		.fpu fpv4-sp-d16
 2992              		.type	_ZN8Platform22SetDriverMicrosteppingEjji, %function
 2993              	_ZN8Platform22SetDriverMicrosteppingEjji:
 2994              		@ args = 0, pretend = 0, frame = 0
 2995              		@ frame_needed = 0, uses_anonymous_args = 0
 2996              		@ link register save eliminated.
 2997 0000 0B29     		cmp	r1, #11
 2998 0002 10B4     		push	{r4}
 2999 0004 0C46     		mov	r4, r1
 3000 0006 0CD8     		bhi	.L559
 3001 0008 1146     		mov	r1, r2
 3002 000a D0F8C423 		ldr	r2, [r0, #964]
 3003 000e A242     		cmp	r2, r4
 3004 0010 0BD8     		bhi	.L561
 3005 0012 A1F11000 		sub	r0, r1, #16
 3006 0016 B0FA80F0 		clz	r0, r0
 3007 001a 4009     		lsrs	r0, r0, #5
 3008 001c 5DF8044B 		ldr	r4, [sp], #4
 3009 0020 7047     		bx	lr
 3010              	.L559:
 3011 0022 0020     		movs	r0, #0
 3012 0024 5DF8044B 		ldr	r4, [sp], #4
 3013 0028 7047     		bx	lr
 3014              	.L561:
 3015 002a 1A1C     		adds	r2, r3, #0
 3016 002c 2046     		mov	r0, r4
 3017 002e 18BF     		it	ne
 3018 0030 0122     		movne	r2, #1
 3019 0032 5DF8044B 		ldr	r4, [sp], #4
 3020 0036 FFF7FEBF 		b	_ZN12SmartDrivers16SetMicrosteppingEjjb
 3021              		.size	_ZN8Platform22SetDriverMicrosteppingEjji, .-_ZN8Platform22SetDriverMicrosteppingEjji
ARM GAS  /tmp/ccghtDyP.s 			page 54


 3022 003a 00BF     		.section	.text._ZN8Platform16SetMicrosteppingEjib,"ax",%progbits
 3023              		.align	1
 3024              		.p2align 2,,3
 3025              		.global	_ZN8Platform16SetMicrosteppingEjib
 3026              		.syntax unified
 3027              		.thumb
 3028              		.thumb_func
 3029              		.fpu fpv4-sp-d16
 3030              		.type	_ZN8Platform16SetMicrosteppingEjib, %function
 3031              	_ZN8Platform16SetMicrosteppingEjib:
 3032              		@ args = 0, pretend = 0, frame = 0
 3033              		@ frame_needed = 0, uses_anonymous_args = 0
 3034 0000 2DE9F047 		push	{r4, r5, r6, r7, r8, r9, r10, lr}
 3035 0004 2D4C     		ldr	r4, .L581
 3036 0006 2469     		ldr	r4, [r4, #16]
 3037 0008 D4F89842 		ldr	r4, [r4, #664]
 3038 000c 8C42     		cmp	r4, r1
 3039 000e 9146     		mov	r9, r2
 3040 0010 26D9     		bls	.L563
 3041 0012 CC00     		lsls	r4, r1, #3
 3042 0014 00EB0408 		add	r8, r0, r4
 3043 0018 D8F8F812 		ldr	r1, [r8, #760]
 3044 001c 0029     		cmp	r1, #0
 3045 001e 40D0     		beq	.L572
 3046 0020 274E     		ldr	r6, .L581+4
 3047 0022 04F53F74 		add	r4, r4, #764
 3048 0026 1F46     		mov	r7, r3
 3049 0028 0546     		mov	r5, r0
 3050 002a 0444     		add	r4, r4, r0
 3051 002c A6EB0806 		sub	r6, r6, r8
 3052 0030 4FF0010A 		mov	r10, #1
 3053              	.L570:
 3054 0034 14F8010B 		ldrb	r0, [r4], #1	@ zero_extendqisi2
 3055 0038 0B28     		cmp	r0, #11
 3056 003a 09D8     		bhi	.L569
 3057 003c D5F8C433 		ldr	r3, [r5, #964]
 3058 0040 9842     		cmp	r0, r3
 3059 0042 27D3     		bcc	.L579
 3060 0044 A9F11000 		sub	r0, r9, #16
 3061 0048 B0FA80F0 		clz	r0, r0
 3062 004c 4009     		lsrs	r0, r0, #5
 3063              	.L568:
 3064 004e 08B9     		cbnz	r0, .L566
 3065              	.L569:
 3066 0050 4FF0000A 		mov	r10, #0
 3067              	.L566:
 3068 0054 3319     		adds	r3, r6, r4
 3069 0056 9942     		cmp	r1, r3
 3070 0058 ECD8     		bhi	.L570
 3071 005a 5046     		mov	r0, r10
 3072 005c BDE8F087 		pop	{r4, r5, r6, r7, r8, r9, r10, pc}
 3073              	.L563:
 3074 0060 0B29     		cmp	r1, #11
 3075 0062 12D8     		bhi	.L574
 3076 0064 0C1B     		subs	r4, r1, r4
 3077 0066 0444     		add	r4, r4, r0
 3078 0068 94F84043 		ldrb	r4, [r4, #832]	@ zero_extendqisi2
ARM GAS  /tmp/ccghtDyP.s 			page 55


 3079 006c 0B2C     		cmp	r4, #11
 3080 006e 0CD8     		bhi	.L574
 3081 0070 D0F8C423 		ldr	r2, [r0, #964]
 3082 0074 9442     		cmp	r4, r2
 3083 0076 19D3     		bcc	.L580
 3084 0078 A9F1100A 		sub	r10, r9, #16
 3085 007c BAFA8AFA 		clz	r10, r10
 3086 0080 4FEA5A1A 		lsr	r10, r10, #5
 3087 0084 5046     		mov	r0, r10
 3088 0086 BDE8F087 		pop	{r4, r5, r6, r7, r8, r9, r10, pc}
 3089              	.L574:
 3090 008a 4FF0000A 		mov	r10, #0
 3091 008e 5046     		mov	r0, r10
 3092 0090 BDE8F087 		pop	{r4, r5, r6, r7, r8, r9, r10, pc}
 3093              	.L579:
 3094 0094 4946     		mov	r1, r9
 3095 0096 3A46     		mov	r2, r7
 3096 0098 FFF7FEFF 		bl	_ZN12SmartDrivers16SetMicrosteppingEjjb
 3097 009c D8F8F812 		ldr	r1, [r8, #760]
 3098 00a0 D5E7     		b	.L568
 3099              	.L572:
 3100 00a2 4FF0010A 		mov	r10, #1
 3101 00a6 5046     		mov	r0, r10
 3102 00a8 BDE8F087 		pop	{r4, r5, r6, r7, r8, r9, r10, pc}
 3103              	.L580:
 3104 00ac 4946     		mov	r1, r9
 3105 00ae 2046     		mov	r0, r4
 3106 00b0 1A46     		mov	r2, r3
 3107 00b2 BDE8F047 		pop	{r4, r5, r6, r7, r8, r9, r10, lr}
 3108 00b6 FFF7FEBF 		b	_ZN12SmartDrivers16SetMicrosteppingEjjb
 3109              	.L582:
 3110 00ba 00BF     		.align	2
 3111              	.L581:
 3112 00bc 00000000 		.word	reprap
 3113 00c0 04FDFFFF 		.word	-764
 3114              		.size	_ZN8Platform16SetMicrosteppingEjib, .-_ZN8Platform16SetMicrosteppingEjib
 3115              		.section	.text._ZNK8Platform22GetDriverMicrosteppingEjRb,"ax",%progbits
 3116              		.align	1
 3117              		.p2align 2,,3
 3118              		.global	_ZNK8Platform22GetDriverMicrosteppingEjRb
 3119              		.syntax unified
 3120              		.thumb
 3121              		.thumb_func
 3122              		.fpu fpv4-sp-d16
 3123              		.type	_ZNK8Platform22GetDriverMicrosteppingEjRb, %function
 3124              	_ZNK8Platform22GetDriverMicrosteppingEjRb:
 3125              		@ args = 0, pretend = 0, frame = 0
 3126              		@ frame_needed = 0, uses_anonymous_args = 0
 3127              		@ link register save eliminated.
 3128 0000 D0F8C433 		ldr	r3, [r0, #964]
 3129 0004 8B42     		cmp	r3, r1
 3130 0006 0846     		mov	r0, r1
 3131 0008 02D9     		bls	.L584
 3132 000a 1146     		mov	r1, r2
 3133 000c FFF7FEBF 		b	_ZN12SmartDrivers16GetMicrosteppingEjRb
 3134              	.L584:
 3135 0010 0023     		movs	r3, #0
ARM GAS  /tmp/ccghtDyP.s 			page 56


 3136 0012 1370     		strb	r3, [r2]
 3137 0014 1020     		movs	r0, #16
 3138 0016 7047     		bx	lr
 3139              		.size	_ZNK8Platform22GetDriverMicrosteppingEjRb, .-_ZNK8Platform22GetDriverMicrosteppingEjRb
 3140              		.section	.text._ZNK8Platform16GetMicrosteppingEjRb,"ax",%progbits
 3141              		.align	1
 3142              		.p2align 2,,3
 3143              		.global	_ZNK8Platform16GetMicrosteppingEjRb
 3144              		.syntax unified
 3145              		.thumb
 3146              		.thumb_func
 3147              		.fpu fpv4-sp-d16
 3148              		.type	_ZNK8Platform16GetMicrosteppingEjRb, %function
 3149              	_ZNK8Platform16GetMicrosteppingEjRb:
 3150              		@ args = 0, pretend = 0, frame = 0
 3151              		@ frame_needed = 0, uses_anonymous_args = 0
 3152              		@ link register save eliminated.
 3153 0000 0F4B     		ldr	r3, .L591
 3154 0002 1B69     		ldr	r3, [r3, #16]
 3155 0004 D3F89832 		ldr	r3, [r3, #664]
 3156 0008 8B42     		cmp	r3, r1
 3157 000a 0AD9     		bls	.L586
 3158 000c 00EBC103 		add	r3, r0, r1, lsl #3
 3159 0010 D0F8C413 		ldr	r1, [r0, #964]
 3160 0014 93F8FC02 		ldrb	r0, [r3, #764]	@ zero_extendqisi2
 3161 0018 8842     		cmp	r0, r1
 3162 001a 0CD2     		bcs	.L587
 3163              	.L590:
 3164 001c 1146     		mov	r1, r2
 3165 001e FFF7FEBF 		b	_ZN12SmartDrivers16GetMicrosteppingEjRb
 3166              	.L586:
 3167 0022 0B29     		cmp	r1, #11
 3168 0024 07D8     		bhi	.L587
 3169 0026 CB1A     		subs	r3, r1, r3
 3170 0028 0344     		add	r3, r3, r0
 3171 002a D0F8C413 		ldr	r1, [r0, #964]
 3172 002e 93F84003 		ldrb	r0, [r3, #832]	@ zero_extendqisi2
 3173 0032 8842     		cmp	r0, r1
 3174 0034 F2D3     		bcc	.L590
 3175              	.L587:
 3176 0036 0023     		movs	r3, #0
 3177 0038 1370     		strb	r3, [r2]
 3178 003a 1020     		movs	r0, #16
 3179 003c 7047     		bx	lr
 3180              	.L592:
 3181 003e 00BF     		.align	2
 3182              	.L591:
 3183 0040 00000000 		.word	reprap
 3184              		.size	_ZNK8Platform16GetMicrosteppingEjRb, .-_ZNK8Platform16GetMicrosteppingEjRb
 3185              		.section	.text._ZN8Platform14SetEnableValueEja,"ax",%progbits
 3186              		.align	1
 3187              		.p2align 2,,3
 3188              		.global	_ZN8Platform14SetEnableValueEja
 3189              		.syntax unified
 3190              		.thumb
 3191              		.thumb_func
 3192              		.fpu fpv4-sp-d16
ARM GAS  /tmp/ccghtDyP.s 			page 57


 3193              		.type	_ZN8Platform14SetEnableValueEja, %function
 3194              	_ZN8Platform14SetEnableValueEja:
 3195              		@ args = 0, pretend = 0, frame = 0
 3196              		@ frame_needed = 0, uses_anonymous_args = 0
 3197 0000 4318     		adds	r3, r0, r1
 3198 0002 0B29     		cmp	r1, #11
 3199 0004 70B5     		push	{r4, r5, r6, lr}
 3200 0006 0446     		mov	r4, r0
 3201 0008 0D46     		mov	r5, r1
 3202 000a 1646     		mov	r6, r2
 3203 000c 83F8E820 		strb	r2, [r3, #232]
 3204 0010 17D9     		bls	.L597
 3205              	.L594:
 3206 0012 0136     		adds	r6, r6, #1
 3207 0014 00D0     		beq	.L598
 3208 0016 70BD     		pop	{r4, r5, r6, pc}
 3209              	.L598:
 3210 0018 04F57370 		add	r0, r4, #972
 3211 001c 0DC8     		ldm	r0, {r0, r2, r3}
 3212 001e 0121     		movs	r1, #1
 3213 0020 A940     		lsls	r1, r1, r5
 3214 0022 D4F8C853 		ldr	r5, [r4, #968]
 3215 0026 C943     		mvns	r1, r1
 3216 0028 0D40     		ands	r5, r5, r1
 3217 002a 0840     		ands	r0, r0, r1
 3218 002c 0A40     		ands	r2, r2, r1
 3219 002e 1940     		ands	r1, r1, r3
 3220 0030 C4F8C853 		str	r5, [r4, #968]
 3221 0034 C4F8CC03 		str	r0, [r4, #972]
 3222 0038 C4F8D023 		str	r2, [r4, #976]
 3223 003c C4F8D413 		str	r1, [r4, #980]
 3224 0040 70BD     		pop	{r4, r5, r6, pc}
 3225              	.L597:
 3226 0042 FFF7FEFF 		bl	_ZN8Platform13DisableDriverEj.part.20
 3227 0046 E4E7     		b	.L594
 3228              		.size	_ZN8Platform14SetEnableValueEja, .-_ZN8Platform14SetEnableValueEja
 3229              		.section	.text._ZN8Platform14SetExternalI2CEjh,"ax",%progbits
 3230              		.align	1
 3231              		.p2align 2,,3
 3232              		.global	_ZN8Platform14SetExternalI2CEjh
 3233              		.syntax unified
 3234              		.thumb
 3235              		.thumb_func
 3236              		.fpu fpv4-sp-d16
 3237              		.type	_ZN8Platform14SetExternalI2CEjh, %function
 3238              	_ZN8Platform14SetExternalI2CEjh:
 3239              		@ args = 0, pretend = 0, frame = 0
 3240              		@ frame_needed = 0, uses_anonymous_args = 0
 3241              		@ link register save eliminated.
 3242 0000 0144     		add	r1, r1, r0
 3243 0002 81F8F420 		strb	r2, [r1, #244]
 3244 0006 7047     		bx	lr
 3245              		.size	_ZN8Platform14SetExternalI2CEjh, .-_ZN8Platform14SetExternalI2CEjh
 3246              		.section	.text._ZN8Platform20SetAxisDriversConfigEjRK17AxisDriversConfig,"ax",%progbits
 3247              		.align	1
 3248              		.p2align 2,,3
 3249              		.global	_ZN8Platform20SetAxisDriversConfigEjRK17AxisDriversConfig
ARM GAS  /tmp/ccghtDyP.s 			page 58


 3250              		.syntax unified
 3251              		.thumb
 3252              		.thumb_func
 3253              		.fpu fpv4-sp-d16
 3254              		.type	_ZN8Platform20SetAxisDriversConfigEjRK17AxisDriversConfig, %function
 3255              	_ZN8Platform20SetAxisDriversConfigEjRK17AxisDriversConfig:
 3256              		@ args = 0, pretend = 0, frame = 0
 3257              		@ frame_needed = 0, uses_anonymous_args = 0
 3258 0000 2DE9F84F 		push	{r3, r4, r5, r6, r7, r8, r9, r10, fp, lr}
 3259 0004 0D46     		mov	r5, r1
 3260 0006 0746     		mov	r7, r0
 3261 0008 D2E90001 		ldrd	r0, r1, [r2]
 3262 000c 05F15F03 		add	r3, r5, #95
 3263 0010 07EBC303 		add	r3, r7, r3, lsl #3
 3264 0014 83E80300 		stm	r3, {r0, r1}
 3265 0018 1468     		ldr	r4, [r2]
 3266 001a 04B3     		cbz	r4, .L601
 3267 001c 6FF00306 		mvn	r6, #3
 3268 0020 DFF84890 		ldr	r9, .L607
 3269 0024 DFF84880 		ldr	r8, .L607+4
 3270 0028 9346     		mov	fp, r2
 3271 002a B61A     		subs	r6, r6, r2
 3272 002c 02F1040A 		add	r10, r2, #4
 3273 0030 0024     		movs	r4, #0
 3274              	.L603:
 3275 0032 1AF8013B 		ldrb	r3, [r10], #1	@ zero_extendqisi2
 3276 0036 0B2B     		cmp	r3, #11
 3277 0038 2946     		mov	r1, r5
 3278 003a 1846     		mov	r0, r3
 3279 003c 07D8     		bhi	.L602
 3280 003e 18F80330 		ldrb	r3, [r8, r3]	@ zero_extendqisi2
 3281 0042 C3EBC303 		rsb	r3, r3, r3, lsl #3
 3282 0046 09EB8303 		add	r3, r9, r3, lsl #2
 3283 004a 5B68     		ldr	r3, [r3, #4]
 3284 004c 1C43     		orrs	r4, r4, r3
 3285              	.L602:
 3286 004e FFF7FEFF 		bl	_ZN12SmartDrivers13SetAxisNumberEjm
 3287 0052 DBF80020 		ldr	r2, [fp]
 3288 0056 06EB0A03 		add	r3, r6, r10
 3289 005a 9A42     		cmp	r2, r3
 3290 005c E9D8     		bhi	.L603
 3291              	.L601:
 3292 005e 07EB8505 		add	r5, r7, r5, lsl #2
 3293 0062 C5F84C43 		str	r4, [r5, #844]
 3294 0066 BDE8F88F 		pop	{r3, r4, r5, r6, r7, r8, r9, r10, fp, pc}
 3295              	.L608:
 3296 006a 00BF     		.align	2
 3297              	.L607:
 3298 006c 00000000 		.word	g_APinDescription
 3299 0070 00000000 		.word	.LANCHOR4
 3300              		.size	_ZN8Platform20SetAxisDriversConfigEjRK17AxisDriversConfig, .-_ZN8Platform20SetAxisDriversCon
 3301              		.section	.text._ZN8Platform17SetExtruderDriverEjh,"ax",%progbits
 3302              		.align	1
 3303              		.p2align 2,,3
 3304              		.global	_ZN8Platform17SetExtruderDriverEjh
 3305              		.syntax unified
 3306              		.thumb
ARM GAS  /tmp/ccghtDyP.s 			page 59


 3307              		.thumb_func
 3308              		.fpu fpv4-sp-d16
 3309              		.type	_ZN8Platform17SetExtruderDriverEjh, %function
 3310              	_ZN8Platform17SetExtruderDriverEjh:
 3311              		@ args = 0, pretend = 0, frame = 0
 3312              		@ frame_needed = 0, uses_anonymous_args = 0
 3313 0000 F8B5     		push	{r3, r4, r5, r6, r7, lr}
 3314 0002 134F     		ldr	r7, .L613
 3315 0004 0C46     		mov	r4, r1
 3316 0006 4118     		adds	r1, r0, r1
 3317 0008 3B69     		ldr	r3, [r7, #16]
 3318 000a 81F84023 		strb	r2, [r1, #832]
 3319 000e D3F89812 		ldr	r1, [r3, #664]
 3320 0012 0546     		mov	r5, r0
 3321 0014 2144     		add	r1, r1, r4
 3322 0016 1046     		mov	r0, r2
 3323 0018 1646     		mov	r6, r2
 3324 001a FFF7FEFF 		bl	_ZN12SmartDrivers13SetAxisNumberEjm
 3325 001e 3B69     		ldr	r3, [r7, #16]
 3326 0020 D3F89832 		ldr	r3, [r3, #664]
 3327 0024 0B2E     		cmp	r6, #11
 3328 0026 1C44     		add	r4, r4, r3
 3329 0028 0CD8     		bhi	.L611
 3330 002a 0A4B     		ldr	r3, .L613+4
 3331 002c 0A4A     		ldr	r2, .L613+8
 3332 002e 9B5D     		ldrb	r3, [r3, r6]	@ zero_extendqisi2
 3333 0030 C3EBC303 		rsb	r3, r3, r3, lsl #3
 3334 0034 02EB8303 		add	r3, r2, r3, lsl #2
 3335 0038 05EB8404 		add	r4, r5, r4, lsl #2
 3336 003c 5B68     		ldr	r3, [r3, #4]
 3337 003e C4F84C33 		str	r3, [r4, #844]
 3338 0042 F8BD     		pop	{r3, r4, r5, r6, r7, pc}
 3339              	.L611:
 3340 0044 05EB8404 		add	r4, r5, r4, lsl #2
 3341 0048 0023     		movs	r3, #0
 3342 004a C4F84C33 		str	r3, [r4, #844]
 3343 004e F8BD     		pop	{r3, r4, r5, r6, r7, pc}
 3344              	.L614:
 3345              		.align	2
 3346              	.L613:
 3347 0050 00000000 		.word	reprap
 3348 0054 00000000 		.word	.LANCHOR4
 3349 0058 00000000 		.word	g_APinDescription
 3350              		.size	_ZN8Platform17SetExtruderDriverEjh, .-_ZN8Platform17SetExtruderDriverEjh
 3351              		.section	.text._ZN8Platform19SetDriverStepTimingEjPKf,"ax",%progbits
 3352              		.align	1
 3353              		.p2align 2,,3
 3354              		.global	_ZN8Platform19SetDriverStepTimingEjPKf
 3355              		.syntax unified
 3356              		.thumb
 3357              		.thumb_func
 3358              		.fpu fpv4-sp-d16
 3359              		.type	_ZN8Platform19SetDriverStepTimingEjPKf, %function
 3360              	_ZN8Platform19SetDriverStepTimingEjPKf:
 3361              		@ args = 0, pretend = 0, frame = 0
 3362              		@ frame_needed = 0, uses_anonymous_args = 0
 3363              		@ link register save eliminated.
ARM GAS  /tmp/ccghtDyP.s 			page 60


 3364 0000 0B29     		cmp	r1, #11
 3365 0002 F0B4     		push	{r4, r5, r6, r7}
 3366 0004 50D8     		bhi	.L625
 3367 0006 2A4B     		ldr	r3, .L630
 3368 0008 2A4C     		ldr	r4, .L630+4
 3369 000a 5B5C     		ldrb	r3, [r3, r1]	@ zero_extendqisi2
 3370 000c C3EBC303 		rsb	r3, r3, r3, lsl #3
 3371 0010 04EB8303 		add	r3, r4, r3, lsl #2
 3372 0014 5C68     		ldr	r4, [r3, #4]
 3373 0016 E443     		mvns	r4, r4
 3374              	.L616:
 3375 0018 D0F8BC33 		ldr	r3, [r0, #956]
 3376 001c 1C40     		ands	r4, r4, r3
 3377 001e C0F8BC43 		str	r4, [r0, #956]
 3378 0022 00F56B73 		add	r3, r0, #940
 3379 0026 BCB3     		cbz	r4, .L617
 3380 0028 00F56F76 		add	r6, r0, #956
 3381              	.L619:
 3382 002c 9FED227A 		vldr.32	s14, .L630+8
 3383 0030 DFED225A 		vldr.32	s11, .L630+12
 3384 0034 9FED226A 		vldr.32	s12, .L630+16
 3385 0038 DFED226A 		vldr.32	s13, .L630+20
 3386 003c DFF874C0 		ldr	ip, .L630+4
 3387 0040 1B4F     		ldr	r7, .L630
 3388              	.L618:
 3389 0042 F2EC017A 		vldmia.32	r2!, {s15}
 3390 0046 F4EEC77A 		vcmpe.f32	s15, s14
 3391 004a F1EE10FA 		vmrs	APSR_nzcv, FPSCR
 3392 004e 1CDD     		ble	.L622
 3393 0050 0B29     		cmp	r1, #11
 3394 0052 1FD8     		bhi	.L626
 3395 0054 7C5C     		ldrb	r4, [r7, r1]	@ zero_extendqisi2
 3396 0056 C4EBC404 		rsb	r4, r4, r4, lsl #3
 3397 005a 0CEB8404 		add	r4, ip, r4, lsl #2
 3398 005e 6568     		ldr	r5, [r4, #4]
 3399              	.L623:
 3400 0060 D0F8BC43 		ldr	r4, [r0, #956]
 3401 0064 2C43     		orrs	r4, r4, r5
 3402 0066 C0F8BC43 		str	r4, [r0, #956]
 3403 006a 52ED017A 		vldr.32	s15, [r2, #-4]
 3404 006e 1D68     		ldr	r5, [r3]
 3405 0070 67EEA57A 		vmul.f32	s15, s15, s11
 3406 0074 B0EE665A 		vmov.f32	s10, s13
 3407 0078 A7EE865A 		vfma.f32	s10, s15, s12
 3408 007c FCEEC57A 		vcvt.u32.f32	s15, s10
 3409 0080 17EE904A 		vmov	r4, s15	@ int
 3410 0084 A542     		cmp	r5, r4
 3411 0086 38BF     		it	cc
 3412 0088 1C60     		strcc	r4, [r3]
 3413              	.L622:
 3414 008a 0433     		adds	r3, r3, #4
 3415 008c 9E42     		cmp	r6, r3
 3416 008e D8D1     		bne	.L618
 3417 0090 F0BC     		pop	{r4, r5, r6, r7}
 3418 0092 7047     		bx	lr
 3419              	.L626:
 3420 0094 0025     		movs	r5, #0
ARM GAS  /tmp/ccghtDyP.s 			page 61


 3421 0096 E3E7     		b	.L623
 3422              	.L617:
 3423 0098 1D46     		mov	r5, r3
 3424 009a 00F56F76 		add	r6, r0, #956
 3425              	.L620:
 3426 009e 45F8044B 		str	r4, [r5], #4
 3427 00a2 AE42     		cmp	r6, r5
 3428 00a4 FBD1     		bne	.L620
 3429 00a6 C1E7     		b	.L619
 3430              	.L625:
 3431 00a8 4FF0FF34 		mov	r4, #-1
 3432 00ac B4E7     		b	.L616
 3433              	.L631:
 3434 00ae 00BF     		.align	2
 3435              	.L630:
 3436 00b0 00000000 		.word	.LANCHOR4
 3437 00b4 00000000 		.word	g_APinDescription
 3438 00b8 CDCC4C3E 		.word	1045220557
 3439 00bc C0E16449 		.word	1231348160
 3440 00c0 BD378635 		.word	897988541
 3441 00c4 A4707D3F 		.word	1065185444
 3442              		.size	_ZN8Platform19SetDriverStepTimingEjPKf, .-_ZN8Platform19SetDriverStepTimingEjPKf
 3443              		.section	.text._ZNK8Platform19GetDriverStepTimingEjPf,"ax",%progbits
 3444              		.align	1
 3445              		.p2align 2,,3
 3446              		.global	_ZNK8Platform19GetDriverStepTimingEjPf
 3447              		.syntax unified
 3448              		.thumb
 3449              		.thumb_func
 3450              		.fpu fpv4-sp-d16
 3451              		.type	_ZNK8Platform19GetDriverStepTimingEjPf, %function
 3452              	_ZNK8Platform19GetDriverStepTimingEjPf:
 3453              		@ args = 0, pretend = 0, frame = 0
 3454              		@ frame_needed = 0, uses_anonymous_args = 0
 3455              		@ link register save eliminated.
 3456 0000 0B29     		cmp	r1, #11
 3457 0002 30B4     		push	{r4, r5}
 3458 0004 27D8     		bhi	.L636
 3459 0006 154B     		ldr	r3, .L640
 3460 0008 154C     		ldr	r4, .L640+4
 3461 000a 595C     		ldrb	r1, [r3, r1]	@ zero_extendqisi2
 3462 000c D0F8BC53 		ldr	r5, [r0, #956]
 3463 0010 C1EBC101 		rsb	r1, r1, r1, lsl #3
 3464 0014 04EB8101 		add	r1, r4, r1, lsl #2
 3465 0018 4B68     		ldr	r3, [r1, #4]
 3466 001a 2B40     		ands	r3, r3, r5
 3467              	.L633:
 3468 001c DFED115A 		vldr.32	s11, .L640+8
 3469 0020 9FED116A 		vldr.32	s12, .L640+12
 3470 0024 DFED116A 		vldr.32	s13, .L640+16
 3471 0028 00F56B70 		add	r0, r0, #940
 3472 002c 02F11001 		add	r1, r2, #16
 3473              	.L635:
 3474 0030 73B1     		cbz	r3, .L637
 3475 0032 D0ED007A 		vldr.32	s15, [r0]	@ int
 3476 0036 F8EE677A 		vcvt.f32.u32	s15, s15
 3477 003a 67EE867A 		vmul.f32	s15, s15, s12
ARM GAS  /tmp/ccghtDyP.s 			page 62


 3478 003e 87EEA67A 		vdiv.f32	s14, s15, s13
 3479              	.L634:
 3480 0042 0430     		adds	r0, r0, #4
 3481 0044 A2EC017A 		vstmia.32	r2!, {s14}
 3482 0048 8A42     		cmp	r2, r1
 3483 004a F1D1     		bne	.L635
 3484 004c 30BC     		pop	{r4, r5}
 3485 004e 7047     		bx	lr
 3486              	.L637:
 3487 0050 B0EE657A 		vmov.f32	s14, s11
 3488 0054 F5E7     		b	.L634
 3489              	.L636:
 3490 0056 0023     		movs	r3, #0
 3491 0058 E0E7     		b	.L633
 3492              	.L641:
 3493 005a 00BF     		.align	2
 3494              	.L640:
 3495 005c 00000000 		.word	.LANCHOR4
 3496 0060 00000000 		.word	g_APinDescription
 3497 0064 00000000 		.word	0
 3498 0068 00247449 		.word	1232348160
 3499 006c C0E16449 		.word	1231348160
 3500              		.size	_ZNK8Platform19GetDriverStepTimingEjPf, .-_ZNK8Platform19GetDriverStepTimingEjPf
 3501              		.section	.text._ZN8Platform12ConfigureFanEjiR11GCodeBufferRK9StringRefRb,"ax",%progbits
 3502              		.align	1
 3503              		.p2align 2,,3
 3504              		.global	_ZN8Platform12ConfigureFanEjiR11GCodeBufferRK9StringRefRb
 3505              		.syntax unified
 3506              		.thumb
 3507              		.thumb_func
 3508              		.fpu fpv4-sp-d16
 3509              		.type	_ZN8Platform12ConfigureFanEjiR11GCodeBufferRK9StringRefRb, %function
 3510              	_ZN8Platform12ConfigureFanEjiR11GCodeBufferRK9StringRefRb:
 3511              		@ args = 8, pretend = 0, frame = 0
 3512              		@ frame_needed = 0, uses_anonymous_args = 0
 3513 0000 70B5     		push	{r4, r5, r6, lr}
 3514 0002 082A     		cmp	r2, #8
 3515 0004 DDE90465 		ldrd	r6, r5, [sp, #16]
 3516 0008 08D8     		bhi	.L646
 3517 000a 2C25     		movs	r5, #44
 3518 000c 05FB0200 		mla	r0, r5, r2, r0
 3519 0010 00F5FB60 		add	r0, r0, #2008
 3520 0014 BDE87040 		pop	{r4, r5, r6, lr}
 3521 0018 FFF7FEBF 		b	_ZN3Fan9ConfigureEjiR11GCodeBufferRK9StringRefRb
 3522              	.L646:
 3523 001c 3046     		mov	r0, r6
 3524 001e 0823     		movs	r3, #8
 3525 0020 0349     		ldr	r1, .L648
 3526 0022 FFF7FEFF 		bl	_ZNK9StringRef6printfEPKcz
 3527 0026 0123     		movs	r3, #1
 3528 0028 2B70     		strb	r3, [r5]
 3529 002a 0020     		movs	r0, #0
 3530 002c 70BD     		pop	{r4, r5, r6, pc}
 3531              	.L649:
 3532 002e 00BF     		.align	2
 3533              	.L648:
 3534 0030 00000000 		.word	.LC16
ARM GAS  /tmp/ccghtDyP.s 			page 63


 3535              		.size	_ZN8Platform12ConfigureFanEjiR11GCodeBufferRK9StringRefRb, .-_ZN8Platform12ConfigureFanEjiR1
 3536              		.section	.text._ZNK8Platform11GetFanValueEj,"ax",%progbits
 3537              		.align	1
 3538              		.p2align 2,,3
 3539              		.global	_ZNK8Platform11GetFanValueEj
 3540              		.syntax unified
 3541              		.thumb
 3542              		.thumb_func
 3543              		.fpu fpv4-sp-d16
 3544              		.type	_ZNK8Platform11GetFanValueEj, %function
 3545              	_ZNK8Platform11GetFanValueEj:
 3546              		@ args = 0, pretend = 0, frame = 0
 3547              		@ frame_needed = 0, uses_anonymous_args = 0
 3548              		@ link register save eliminated.
 3549 0000 0829     		cmp	r1, #8
 3550 0002 07D8     		bhi	.L652
 3551 0004 2C23     		movs	r3, #44
 3552 0006 03FB0101 		mla	r1, r3, r1, r0
 3553 000a 01F5FB61 		add	r1, r1, #2008
 3554 000e 91ED000A 		vldr.32	s0, [r1]
 3555 0012 7047     		bx	lr
 3556              	.L652:
 3557 0014 BFEE000A 		vmov.f32	s0, #-1.0e+0
 3558 0018 7047     		bx	lr
 3559              		.size	_ZNK8Platform11GetFanValueEj, .-_ZNK8Platform11GetFanValueEj
 3560 001a 00BF     		.section	.text._ZN8Platform11SetFanValueEjf,"ax",%progbits
 3561              		.align	1
 3562              		.p2align 2,,3
 3563              		.global	_ZN8Platform11SetFanValueEjf
 3564              		.syntax unified
 3565              		.thumb
 3566              		.thumb_func
 3567              		.fpu fpv4-sp-d16
 3568              		.type	_ZN8Platform11SetFanValueEjf, %function
 3569              	_ZN8Platform11SetFanValueEjf:
 3570              		@ args = 0, pretend = 0, frame = 0
 3571              		@ frame_needed = 0, uses_anonymous_args = 0
 3572              		@ link register save eliminated.
 3573 0000 0829     		cmp	r1, #8
 3574 0002 00D9     		bls	.L655
 3575 0004 7047     		bx	lr
 3576              	.L655:
 3577 0006 2C23     		movs	r3, #44
 3578 0008 03FB0100 		mla	r0, r3, r1, r0
 3579 000c 00F5FB60 		add	r0, r0, #2008
 3580 0010 FFF7FEBF 		b	_ZN3Fan6SetPwmEf
 3581              		.size	_ZN8Platform11SetFanValueEjf, .-_ZN8Platform11SetFanValueEjf
 3582              		.section	.text._ZNK8Platform17IsFanControllableEj,"ax",%progbits
 3583              		.align	1
 3584              		.p2align 2,,3
 3585              		.global	_ZNK8Platform17IsFanControllableEj
 3586              		.syntax unified
 3587              		.thumb
 3588              		.thumb_func
 3589              		.fpu fpv4-sp-d16
 3590              		.type	_ZNK8Platform17IsFanControllableEj, %function
 3591              	_ZNK8Platform17IsFanControllableEj:
ARM GAS  /tmp/ccghtDyP.s 			page 64


 3592              		@ args = 0, pretend = 0, frame = 0
 3593              		@ frame_needed = 0, uses_anonymous_args = 0
 3594              		@ link register save eliminated.
 3595 0000 0829     		cmp	r1, #8
 3596 0002 11D8     		bhi	.L659
 3597 0004 2C23     		movs	r3, #44
 3598 0006 03FB01F1 		mul	r1, r3, r1
 3599 000a 01F5FB63 		add	r3, r1, #2008
 3600 000e 0344     		add	r3, r3, r0
 3601 0010 1A6A     		ldr	r2, [r3, #32]
 3602 0012 4AB9     		cbnz	r2, .L659
 3603 0014 0144     		add	r1, r1, r0
 3604 0016 91F8FF07 		ldrb	r0, [r1, #2047]	@ zero_extendqisi2
 3605 001a 30B1     		cbz	r0, .L657
 3606 001c 93F82600 		ldrb	r0, [r3, #38]	@ zero_extendqisi2
 3607 0020 FF38     		subs	r0, r0, #255
 3608 0022 18BF     		it	ne
 3609 0024 0120     		movne	r0, #1
 3610 0026 7047     		bx	lr
 3611              	.L659:
 3612 0028 0020     		movs	r0, #0
 3613              	.L657:
 3614 002a 7047     		bx	lr
 3615              		.size	_ZNK8Platform17IsFanControllableEj, .-_ZNK8Platform17IsFanControllableEj
 3616              		.section	.text._ZNK8Platform9GetFanRPMEv,"ax",%progbits
 3617              		.align	1
 3618              		.p2align 2,,3
 3619              		.global	_ZNK8Platform9GetFanRPMEv
 3620              		.syntax unified
 3621              		.thumb
 3622              		.thumb_func
 3623              		.fpu fpv4-sp-d16
 3624              		.type	_ZNK8Platform9GetFanRPMEv, %function
 3625              	_ZNK8Platform9GetFanRPMEv:
 3626              		@ args = 0, pretend = 0, frame = 0
 3627              		@ frame_needed = 0, uses_anonymous_args = 0
 3628              		@ link register save eliminated.
 3629 0000 0B4B     		ldr	r3, .L667
 3630 0002 1A68     		ldr	r2, [r3]
 3631 0004 8AB1     		cbz	r2, .L666
 3632 0006 0B49     		ldr	r1, .L667+4
 3633 0008 0B4A     		ldr	r2, .L667+8
 3634 000a D2F89020 		ldr	r2, [r2, #144]
 3635 000e 0868     		ldr	r0, [r1]
 3636 0010 0A49     		ldr	r1, .L667+12
 3637 0012 121A     		subs	r2, r2, r0
 3638 0014 8A42     		cmp	r2, r1
 3639 0016 08D8     		bhi	.L666
 3640 0018 D3ED007A 		vldr.32	s15, [r3]	@ int
 3641 001c 9FED087A 		vldr.32	s14, .L667+16
 3642 0020 F8EE677A 		vcvt.f32.u32	s15, s15
 3643 0024 87EE270A 		vdiv.f32	s0, s14, s15
 3644 0028 7047     		bx	lr
 3645              	.L666:
 3646 002a 9FED060A 		vldr.32	s0, .L667+20
 3647 002e 7047     		bx	lr
 3648              	.L668:
ARM GAS  /tmp/ccghtDyP.s 			page 65


 3649              		.align	2
 3650              	.L667:
 3651 0030 00000000 		.word	.LANCHOR2
 3652 0034 00000000 		.word	.LANCHOR1
 3653 0038 00000940 		.word	1074331648
 3654 003c 53EA2A00 		.word	2812499
 3655 0040 50A9AB4C 		.word	1286318416
 3656 0044 00000000 		.word	0
 3657              		.size	_ZNK8Platform9GetFanRPMEv, .-_ZNK8Platform9GetFanRPMEv
 3658              		.section	.text._ZNK8Platform20FansHardwareInvertedEj,"ax",%progbits
 3659              		.align	1
 3660              		.p2align 2,,3
 3661              		.global	_ZNK8Platform20FansHardwareInvertedEj
 3662              		.syntax unified
 3663              		.thumb
 3664              		.thumb_func
 3665              		.fpu fpv4-sp-d16
 3666              		.type	_ZNK8Platform20FansHardwareInvertedEj, %function
 3667              	_ZNK8Platform20FansHardwareInvertedEj:
 3668              		@ args = 0, pretend = 0, frame = 0
 3669              		@ frame_needed = 0, uses_anonymous_args = 0
 3670              		@ link register save eliminated.
 3671 0000 0020     		movs	r0, #0
 3672 0002 7047     		bx	lr
 3673              		.size	_ZNK8Platform20FansHardwareInvertedEj, .-_ZNK8Platform20FansHardwareInvertedEj
 3674              		.section	.text._ZN8Platform8InitFansEv,"ax",%progbits
 3675              		.align	1
 3676              		.p2align 2,,3
 3677              		.global	_ZN8Platform8InitFansEv
 3678              		.syntax unified
 3679              		.thumb
 3680              		.thumb_func
 3681              		.fpu fpv4-sp-d16
 3682              		.type	_ZN8Platform8InitFansEv, %function
 3683              	_ZN8Platform8InitFansEv:
 3684              		@ args = 0, pretend = 0, frame = 0
 3685              		@ frame_needed = 0, uses_anonymous_args = 0
 3686 0000 F8B5     		push	{r3, r4, r5, r6, r7, lr}
 3687 0002 3721     		movs	r1, #55
 3688 0004 0746     		mov	r7, r0
 3689 0006 124D     		ldr	r5, .L674
 3690 0008 00F5FB64 		add	r4, r0, #2008
 3691 000c 00F66416 		addw	r6, r0, #2404
 3692 0010 01E0     		b	.L672
 3693              	.L671:
 3694 0012 15F8011F 		ldrb	r1, [r5, #1]!	@ zero_extendqisi2
 3695              	.L672:
 3696 0016 2046     		mov	r0, r4
 3697 0018 0022     		movs	r2, #0
 3698 001a 2C34     		adds	r4, r4, #44
 3699 001c FFF7FEFF 		bl	_ZN3Fan4InitEhb
 3700 0020 A642     		cmp	r6, r4
 3701 0022 F6D1     		bne	.L671
 3702 0024 07F60404 		addw	r4, r7, #2052
 3703 0028 2046     		mov	r0, r4
 3704 002a FE21     		movs	r1, #254
 3705 002c FFF7FEFF 		bl	_ZN3Fan19SetHeatersMonitoredEm
ARM GAS  /tmp/ccghtDyP.s 			page 66


 3706 0030 2046     		mov	r0, r4
 3707 0032 B7EE000A 		vmov.f32	s0, #1.0e+0
 3708 0036 FFF7FEFF 		bl	_ZN3Fan6SetPwmEf
 3709 003a 6620     		movs	r0, #102
 3710 003c 87F86409 		strb	r0, [r7, #2404]
 3711 0040 40F2DC52 		movw	r2, #1500
 3712 0044 0121     		movs	r1, #1
 3713 0046 BDE8F840 		pop	{r3, r4, r5, r6, r7, lr}
 3714 004a FFF7FEBF 		b	pinModeDuet
 3715              	.L675:
 3716 004e 00BF     		.align	2
 3717              	.L674:
 3718 0050 00000000 		.word	.LANCHOR6
 3719              		.size	_ZN8Platform8InitFansEv, .-_ZN8Platform8InitFansEv
 3720              		.section	.text._ZN8Platform23SetEndStopConfigurationEj15EndStopPosition16EndStopInputType,"ax",%pr
 3721              		.align	1
 3722              		.p2align 2,,3
 3723              		.global	_ZN8Platform23SetEndStopConfigurationEj15EndStopPosition16EndStopInputType
 3724              		.syntax unified
 3725              		.thumb
 3726              		.thumb_func
 3727              		.fpu fpv4-sp-d16
 3728              		.type	_ZN8Platform23SetEndStopConfigurationEj15EndStopPosition16EndStopInputType, %function
 3729              	_ZN8Platform23SetEndStopConfigurationEj15EndStopPosition16EndStopInputType:
 3730              		@ args = 0, pretend = 0, frame = 0
 3731              		@ frame_needed = 0, uses_anonymous_args = 0
 3732              		@ link register save eliminated.
 3733 0000 00EB8101 		add	r1, r0, r1, lsl #2
 3734 0004 C1F87027 		str	r2, [r1, #1904]
 3735 0008 C1F89437 		str	r3, [r1, #1940]
 3736 000c 7047     		bx	lr
 3737              		.size	_ZN8Platform23SetEndStopConfigurationEj15EndStopPosition16EndStopInputType, .-_ZN8Platform23
 3738 000e 00BF     		.section	.text._ZNK8Platform23GetEndStopConfigurationEjR15EndStopPositionR16EndStopInputType,"ax",
 3739              		.align	1
 3740              		.p2align 2,,3
 3741              		.global	_ZNK8Platform23GetEndStopConfigurationEjR15EndStopPositionR16EndStopInputType
 3742              		.syntax unified
 3743              		.thumb
 3744              		.thumb_func
 3745              		.fpu fpv4-sp-d16
 3746              		.type	_ZNK8Platform23GetEndStopConfigurationEjR15EndStopPositionR16EndStopInputType, %function
 3747              	_ZNK8Platform23GetEndStopConfigurationEjR15EndStopPositionR16EndStopInputType:
 3748              		@ args = 0, pretend = 0, frame = 0
 3749              		@ frame_needed = 0, uses_anonymous_args = 0
 3750              		@ link register save eliminated.
 3751 0000 00EB8101 		add	r1, r0, r1, lsl #2
 3752 0004 D1F87007 		ldr	r0, [r1, #1904]
 3753 0008 1060     		str	r0, [r2]
 3754 000a D1F89427 		ldr	r2, [r1, #1940]
 3755 000e 1A60     		str	r2, [r3]
 3756 0010 7047     		bx	lr
 3757              		.size	_ZNK8Platform23GetEndStopConfigurationEjR15EndStopPositionR16EndStopInputType, .-_ZNK8Platfo
 3758 0012 00BF     		.section	.text._ZN8Platform14AppendAuxReplyEPKcb,"ax",%progbits
 3759              		.align	1
 3760              		.p2align 2,,3
 3761              		.global	_ZN8Platform14AppendAuxReplyEPKcb
 3762              		.syntax unified
ARM GAS  /tmp/ccghtDyP.s 			page 67


 3763              		.thumb
 3764              		.thumb_func
 3765              		.fpu fpv4-sp-d16
 3766              		.type	_ZN8Platform14AppendAuxReplyEPKcb, %function
 3767              	_ZN8Platform14AppendAuxReplyEPKcb:
 3768              		@ args = 0, pretend = 0, frame = 0
 3769              		@ frame_needed = 0, uses_anonymous_args = 0
 3770              		@ link register save eliminated.
 3771 0000 0B78     		ldrb	r3, [r1]	@ zero_extendqisi2
 3772 0002 33B1     		cbz	r3, .L687
 3773 0004 90F89839 		ldrb	r3, [r0, #2456]	@ zero_extendqisi2
 3774 0008 10B4     		push	{r4}
 3775 000a 1BB9     		cbnz	r3, .L690
 3776 000c 5DF8044B 		ldr	r4, [sp], #4
 3777 0010 7047     		bx	lr
 3778              	.L687:
 3779 0012 7047     		bx	lr
 3780              	.L690:
 3781 0014 5DF8044B 		ldr	r4, [sp], #4
 3782 0018 FFF7FEBF 		b	_ZN8Platform14AppendAuxReplyEPKcb.part.25
 3783              		.size	_ZN8Platform14AppendAuxReplyEPKcb, .-_ZN8Platform14AppendAuxReplyEPKcb
 3784              		.section	.text._ZN8Platform14AppendAuxReplyEP12OutputBufferb,"ax",%progbits
 3785              		.align	1
 3786              		.p2align 2,,3
 3787              		.global	_ZN8Platform14AppendAuxReplyEP12OutputBufferb
 3788              		.syntax unified
 3789              		.thumb
 3790              		.thumb_func
 3791              		.fpu fpv4-sp-d16
 3792              		.type	_ZN8Platform14AppendAuxReplyEP12OutputBufferb, %function
 3793              	_ZN8Platform14AppendAuxReplyEP12OutputBufferb:
 3794              		@ args = 0, pretend = 0, frame = 16
 3795              		@ frame_needed = 0, uses_anonymous_args = 0
 3796 0000 30B5     		push	{r4, r5, lr}
 3797 0002 85B0     		sub	sp, sp, #20
 3798 0004 0191     		str	r1, [sp, #4]
 3799 0006 41B1     		cbz	r1, .L694
 3800 0008 0446     		mov	r4, r0
 3801 000a 0846     		mov	r0, r1
 3802 000c 1546     		mov	r5, r2
 3803 000e FFF7FEFF 		bl	_ZNK12OutputBuffer6LengthEv
 3804 0012 10B1     		cbz	r0, .L694
 3805 0014 94F89839 		ldrb	r3, [r4, #2456]	@ zero_extendqisi2
 3806 0018 23B9     		cbnz	r3, .L705
 3807              	.L694:
 3808 001a 01A8     		add	r0, sp, #4
 3809 001c FFF7FEFF 		bl	_ZN12OutputBuffer10ReleaseAllERVPS_
 3810 0020 05B0     		add	sp, sp, #20
 3811              		@ sp needed
 3812 0022 30BD     		pop	{r4, r5, pc}
 3813              	.L705:
 3814 0024 02A8     		add	r0, sp, #8
 3815 0026 4FF0FF32 		mov	r2, #-1
 3816 002a 04F68C11 		addw	r1, r4, #2444
 3817 002e FFF7FEFF 		bl	_ZN11MutexLockerC1ERK5Mutexm
 3818 0032 7DB9     		cbnz	r5, .L706
 3819 0034 D4F89439 		ldr	r3, [r4, #2452]
ARM GAS  /tmp/ccghtDyP.s 			page 68


 3820 0038 D4F89009 		ldr	r0, [r4, #2448]
 3821 003c 0199     		ldr	r1, [sp, #4]
 3822 003e 0133     		adds	r3, r3, #1
 3823 0040 C4F89439 		str	r3, [r4, #2452]
 3824 0044 60B1     		cbz	r0, .L707
 3825 0046 FFF7FEFF 		bl	_ZN12OutputBuffer6AppendEPS_
 3826              	.L696:
 3827 004a 02A8     		add	r0, sp, #8
 3828 004c FFF7FEFF 		bl	_ZN11MutexLockerD1Ev
 3829 0050 05B0     		add	sp, sp, #20
 3830              		@ sp needed
 3831 0052 30BD     		pop	{r4, r5, pc}
 3832              	.L706:
 3833 0054 04F67810 		addw	r0, r4, #2424
 3834 0058 0199     		ldr	r1, [sp, #4]
 3835 005a FFF7FEFF 		bl	_ZNV11OutputStack4PushEP12OutputBuffer
 3836 005e F4E7     		b	.L696
 3837              	.L707:
 3838 0060 C4F89019 		str	r1, [r4, #2448]
 3839 0064 F1E7     		b	.L696
 3840              		.size	_ZN8Platform14AppendAuxReplyEP12OutputBufferb, .-_ZN8Platform14AppendAuxReplyEP12OutputBuffe
 3841 0066 00BF     		.section	.text._ZN8Platform7MessageE11MessageTypeP12OutputBuffer,"ax",%progbits
 3842              		.align	1
 3843              		.p2align 2,,3
 3844              		.global	_ZN8Platform7MessageE11MessageTypeP12OutputBuffer
 3845              		.syntax unified
 3846              		.thumb
 3847              		.thumb_func
 3848              		.fpu fpv4-sp-d16
 3849              		.type	_ZN8Platform7MessageE11MessageTypeP12OutputBuffer, %function
 3850              	_ZN8Platform7MessageE11MessageTypeP12OutputBuffer:
 3851              		@ args = 0, pretend = 0, frame = 16
 3852              		@ frame_needed = 0, uses_anonymous_args = 0
 3853 0000 2DE9F043 		push	{r4, r5, r6, r7, r8, r9, lr}
 3854 0004 87B0     		sub	sp, sp, #28
 3855 0006 0B06     		lsls	r3, r1, #24
 3856 0008 0C46     		mov	r4, r1
 3857 000a 0546     		mov	r5, r0
 3858 000c 0392     		str	r2, [sp, #12]
 3859 000e 0AD5     		bpl	.L709
 3860 0010 0068     		ldr	r0, [r0]
 3861 0012 40B1     		cbz	r0, .L709
 3862 0014 05F6F813 		addw	r3, r5, #2552
 3863 0018 D3E90067 		ldrd	r6, [r3]
 3864 001c 0092     		str	r2, [sp]
 3865 001e 3B46     		mov	r3, r7
 3866 0020 3246     		mov	r2, r6
 3867 0022 FFF7FEFF 		bl	_ZN6Logger10LogMessageExP12OutputBuffer
 3868              	.L709:
 3869 0026 14F00C09 		ands	r9, r4, #12
 3870 002a 14BF     		ite	ne
 3871 002c 0121     		movne	r1, #1
 3872 002e 0021     		moveq	r1, #0
 3873 0030 14F00306 		ands	r6, r4, #3
 3874 0034 18BF     		it	ne
 3875 0036 0131     		addne	r1, r1, #1
 3876 0038 14F01008 		ands	r8, r4, #16
ARM GAS  /tmp/ccghtDyP.s 			page 69


 3877 003c 15D0     		beq	.L711
 3878 003e 14F02007 		ands	r7, r4, #32
 3879 0042 01F10101 		add	r1, r1, #1
 3880 0046 00D0     		beq	.L713
 3881              	.L712:
 3882 0048 0131     		adds	r1, r1, #1
 3883              	.L713:
 3884 004a 0139     		subs	r1, r1, #1
 3885 004c 0398     		ldr	r0, [sp, #12]
 3886 004e FFF7FEFF 		bl	_ZN12OutputBuffer18IncreaseReferencesEj
 3887 0052 B9F1000F 		cmp	r9, #0
 3888 0056 3CD1     		bne	.L752
 3889 0058 B8F1000F 		cmp	r8, #0
 3890 005c 2AD1     		bne	.L753
 3891              	.L718:
 3892 005e 002F     		cmp	r7, #0
 3893 0060 2FD1     		bne	.L754
 3894              	.L719:
 3895 0062 6EB9     		cbnz	r6, .L755
 3896              	.L708:
 3897 0064 07B0     		add	sp, sp, #28
 3898              		@ sp needed
 3899 0066 BDE8F083 		pop	{r4, r5, r6, r7, r8, r9, pc}
 3900              	.L711:
 3901 006a 14F02007 		ands	r7, r4, #32
 3902 006e EBD1     		bne	.L712
 3903 0070 0029     		cmp	r1, #0
 3904 0072 EAD1     		bne	.L713
 3905 0074 03A8     		add	r0, sp, #12
 3906 0076 FFF7FEFF 		bl	_ZN12OutputBuffer10ReleaseAllERVPS_
 3907 007a 07B0     		add	sp, sp, #28
 3908              		@ sp needed
 3909 007c BDE8F083 		pop	{r4, r5, r6, r7, r8, r9, pc}
 3910              	.L755:
 3911 0080 04A8     		add	r0, sp, #16
 3912 0082 4FF0FF32 		mov	r2, #-1
 3913 0086 05F51B61 		add	r1, r5, #2480
 3914 008a FFF7FEFF 		bl	_ZN11MutexLockerC1ERK5Mutexm
 3915 008e 1E48     		ldr	r0, .L756
 3916 0090 FFF7FEFF 		bl	_ZNK9SerialCDCcvbEv
 3917 0094 28B1     		cbz	r0, .L720
 3918 0096 1D4B     		ldr	r3, .L756+4
 3919 0098 9B69     		ldr	r3, [r3, #24]
 3920 009a 1A69     		ldr	r2, [r3, #16]
 3921 009c 6AB3     		cbz	r2, .L721
 3922 009e 5B7A     		ldrb	r3, [r3, #9]	@ zero_extendqisi2
 3923 00a0 5BBB     		cbnz	r3, .L721
 3924              	.L720:
 3925 00a2 03A8     		add	r0, sp, #12
 3926 00a4 FFF7FEFF 		bl	_ZN12OutputBuffer10ReleaseAllERVPS_
 3927              	.L722:
 3928 00a8 04A8     		add	r0, sp, #16
 3929 00aa FFF7FEFF 		bl	_ZN11MutexLockerD1Ev
 3930 00ae 07B0     		add	sp, sp, #28
 3931              		@ sp needed
 3932 00b0 BDE8F083 		pop	{r4, r5, r6, r7, r8, r9, pc}
 3933              	.L753:
ARM GAS  /tmp/ccghtDyP.s 			page 70


 3934 00b4 154B     		ldr	r3, .L756+4
 3935 00b6 0399     		ldr	r1, [sp, #12]
 3936 00b8 5868     		ldr	r0, [r3, #4]
 3937 00ba FFF7FEFF 		bl	_ZN7Network20HandleHttpGCodeReplyEP12OutputBuffer
 3938 00be 002F     		cmp	r7, #0
 3939 00c0 CFD0     		beq	.L719
 3940              	.L754:
 3941 00c2 124B     		ldr	r3, .L756+4
 3942 00c4 0399     		ldr	r1, [sp, #12]
 3943 00c6 5868     		ldr	r0, [r3, #4]
 3944 00c8 FFF7FEFF 		bl	_ZN7Network22HandleTelnetGCodeReplyEP12OutputBuffer
 3945 00cc 002E     		cmp	r6, #0
 3946 00ce C9D0     		beq	.L708
 3947 00d0 D6E7     		b	.L755
 3948              	.L752:
 3949 00d2 DDF80C90 		ldr	r9, [sp, #12]
 3950 00d6 0021     		movs	r1, #0
 3951 00d8 4846     		mov	r0, r9
 3952 00da FFF7FEFF 		bl	_ZN12OutputBufferixEj
 3953 00de 0378     		ldrb	r3, [r0]	@ zero_extendqisi2
 3954 00e0 7B2B     		cmp	r3, #123
 3955 00e2 14BF     		ite	ne
 3956 00e4 C4F38022 		ubfxne	r2, r4, #10, #1
 3957 00e8 0122     		moveq	r2, #1
 3958 00ea 4946     		mov	r1, r9
 3959 00ec 2846     		mov	r0, r5
 3960 00ee FFF7FEFF 		bl	_ZN8Platform14AppendAuxReplyEP12OutputBufferb
 3961 00f2 B8F1000F 		cmp	r8, #0
 3962 00f6 B2D0     		beq	.L718
 3963 00f8 DCE7     		b	.L753
 3964              	.L721:
 3965 00fa 05F69C10 		addw	r0, r5, #2460
 3966 00fe 0399     		ldr	r1, [sp, #12]
 3967 0100 FFF7FEFF 		bl	_ZNV11OutputStack4PushEP12OutputBuffer
 3968 0104 D0E7     		b	.L722
 3969              	.L757:
 3970 0106 00BF     		.align	2
 3971              	.L756:
 3972 0108 00000000 		.word	SerialUSB
 3973 010c 00000000 		.word	reprap
 3974              		.size	_ZN8Platform7MessageE11MessageTypeP12OutputBuffer, .-_ZN8Platform7MessageE11MessageTypeP12Ou
 3975              		.section	.text._ZN8Platform16ConfigureLoggingER11GCodeBufferRK9StringRef,"ax",%progbits
 3976              		.align	1
 3977              		.p2align 2,,3
 3978              		.global	_ZN8Platform16ConfigureLoggingER11GCodeBufferRK9StringRef
 3979              		.syntax unified
 3980              		.thumb
 3981              		.thumb_func
 3982              		.fpu fpv4-sp-d16
 3983              		.type	_ZN8Platform16ConfigureLoggingER11GCodeBufferRK9StringRef, %function
 3984              	_ZN8Platform16ConfigureLoggingER11GCodeBufferRK9StringRef:
 3985              		@ args = 0, pretend = 0, frame = 136
 3986              		@ frame_needed = 0, uses_anonymous_args = 0
 3987 0000 2DE9F041 		push	{r4, r5, r6, r7, r8, lr}
 3988 0004 0E46     		mov	r6, r1
 3989 0006 A4B0     		sub	sp, sp, #144
 3990 0008 0546     		mov	r5, r0
ARM GAS  /tmp/ccghtDyP.s 			page 71


 3991 000a 5321     		movs	r1, #83
 3992 000c 3046     		mov	r0, r6
 3993 000e 1746     		mov	r7, r2
 3994 0010 FFF7FEFF 		bl	_ZN11GCodeBuffer4SeenEc
 3995 0014 58B3     		cbz	r0, .L759
 3996 0016 2868     		ldr	r0, [r5]
 3997 0018 28B1     		cbz	r0, .L760
 3998 001a 05F6F813 		addw	r3, r5, #2552
 3999 001e D3E90023 		ldrd	r2, [r3]
 4000 0022 FFF7FEFF 		bl	_ZN6Logger4StopEx
 4001              	.L760:
 4002 0026 3046     		mov	r0, r6
 4003 0028 FFF7FEFF 		bl	_ZN11GCodeBuffer9GetIValueEv
 4004 002c 0028     		cmp	r0, #0
 4005 002e 41DD     		ble	.L767
 4006 0030 2868     		ldr	r0, [r5]
 4007 0032 0028     		cmp	r0, #0
 4008 0034 45D0     		beq	.L774
 4009 0036 05F6F813 		addw	r3, r5, #2552
 4010 003a D3E90023 		ldrd	r2, [r3]
 4011 003e FFF7FEFF 		bl	_ZN6Logger4StopEx
 4012              	.L763:
 4013 0042 05AA     		add	r2, sp, #20
 4014 0044 7923     		movs	r3, #121
 4015 0046 5021     		movs	r1, #80
 4016 0048 3046     		mov	r0, r6
 4017 004a 0392     		str	r2, [sp, #12]
 4018 004c 0493     		str	r3, [sp, #16]
 4019 004e FFF7FEFF 		bl	_ZN11GCodeBuffer4SeenEc
 4020 0052 0DF10C08 		add	r8, sp, #12
 4021 0056 0446     		mov	r4, r0
 4022 0058 D0B1     		cbz	r0, .L764
 4023 005a 3046     		mov	r0, r6
 4024 005c 4146     		mov	r1, r8
 4025 005e FFF7FEFF 		bl	_ZN11GCodeBuffer15GetQuotedStringERK9StringRef
 4026 0062 C8B9     		cbnz	r0, .L765
 4027 0064 3846     		mov	r0, r7
 4028 0066 1B49     		ldr	r1, .L775
 4029 0068 FFF7FEFF 		bl	_ZNK9StringRef4copyEPKc
 4030 006c 0CE0     		b	.L761
 4031              	.L759:
 4032 006e 2B68     		ldr	r3, [r5]
 4033 0070 0446     		mov	r4, r0
 4034 0072 23B3     		cbz	r3, .L768
 4035 0074 1968     		ldr	r1, [r3]
 4036 0076 184A     		ldr	r2, .L775+4
 4037 0078 184B     		ldr	r3, .L775+8
 4038 007a 0029     		cmp	r1, #0
 4039 007c 18BF     		it	ne
 4040 007e 1A46     		movne	r2, r3
 4041              	.L766:
 4042 0080 1749     		ldr	r1, .L775+12
 4043 0082 3846     		mov	r0, r7
 4044 0084 FFF7FEFF 		bl	_ZNK9StringRef6printfEPKcz
 4045              	.L761:
 4046 0088 2046     		mov	r0, r4
 4047 008a 24B0     		add	sp, sp, #144
ARM GAS  /tmp/ccghtDyP.s 			page 72


 4048              		@ sp needed
 4049 008c BDE8F081 		pop	{r4, r5, r6, r7, r8, pc}
 4050              	.L764:
 4051 0090 4046     		mov	r0, r8
 4052 0092 1449     		ldr	r1, .L775+16
 4053 0094 FFF7FEFF 		bl	_ZNK9StringRef4copyEPKc
 4054              	.L765:
 4055 0098 05F6F813 		addw	r3, r5, #2552
 4056 009c 2868     		ldr	r0, [r5]
 4057 009e D3E90023 		ldrd	r2, [r3]
 4058 00a2 CDF80080 		str	r8, [sp]
 4059 00a6 FFF7FEFF 		bl	_ZN6Logger5StartExRK9StringRef
 4060 00aa 0024     		movs	r4, #0
 4061 00ac 2046     		mov	r0, r4
 4062 00ae 24B0     		add	sp, sp, #144
 4063              		@ sp needed
 4064 00b0 BDE8F081 		pop	{r4, r5, r6, r7, r8, pc}
 4065              	.L767:
 4066 00b4 0024     		movs	r4, #0
 4067 00b6 2046     		mov	r0, r4
 4068 00b8 24B0     		add	sp, sp, #144
 4069              		@ sp needed
 4070 00ba BDE8F081 		pop	{r4, r5, r6, r7, r8, pc}
 4071              	.L768:
 4072 00be 064A     		ldr	r2, .L775+4
 4073 00c0 DEE7     		b	.L766
 4074              	.L774:
 4075 00c2 1020     		movs	r0, #16
 4076 00c4 FFF7FEFF 		bl	_Znwj
 4077 00c8 0446     		mov	r4, r0
 4078 00ca FFF7FEFF 		bl	_ZN6LoggerC1Ev
 4079 00ce 2C60     		str	r4, [r5]
 4080 00d0 B7E7     		b	.L763
 4081              	.L776:
 4082 00d2 00BF     		.align	2
 4083              	.L775:
 4084 00d4 14000000 		.word	.LC19
 4085 00d8 08000000 		.word	.LC18
 4086 00dc 00000000 		.word	.LC17
 4087 00e0 48000000 		.word	.LC21
 4088 00e4 38000000 		.word	.LC20
 4089              		.size	_ZN8Platform16ConfigureLoggingER11GCodeBufferRK9StringRef, .-_ZN8Platform16ConfigureLoggingE
 4090              		.section	.text._ZN8Platform11StopLoggingEv,"ax",%progbits
 4091              		.align	1
 4092              		.p2align 2,,3
 4093              		.global	_ZN8Platform11StopLoggingEv
 4094              		.syntax unified
 4095              		.thumb
 4096              		.thumb_func
 4097              		.fpu fpv4-sp-d16
 4098              		.type	_ZN8Platform11StopLoggingEv, %function
 4099              	_ZN8Platform11StopLoggingEv:
 4100              		@ args = 0, pretend = 0, frame = 0
 4101              		@ frame_needed = 0, uses_anonymous_args = 0
 4102              		@ link register save eliminated.
 4103 0000 0268     		ldr	r2, [r0]
 4104 0002 32B1     		cbz	r2, .L777
ARM GAS  /tmp/ccghtDyP.s 			page 73


 4105 0004 00F6F813 		addw	r3, r0, #2552
 4106 0008 1046     		mov	r0, r2
 4107 000a D3E90023 		ldrd	r2, [r3]
 4108 000e FFF7FEBF 		b	_ZN6Logger4StopEx
 4109              	.L777:
 4110 0012 7047     		bx	lr
 4111              		.size	_ZN8Platform11StopLoggingEv, .-_ZN8Platform11StopLoggingEv
 4112              		.section	.text._ZNK8Platform8AtxPowerEv,"ax",%progbits
 4113              		.align	1
 4114              		.p2align 2,,3
 4115              		.global	_ZNK8Platform8AtxPowerEv
 4116              		.syntax unified
 4117              		.thumb
 4118              		.thumb_func
 4119              		.fpu fpv4-sp-d16
 4120              		.type	_ZNK8Platform8AtxPowerEv, %function
 4121              	_ZNK8Platform8AtxPowerEv:
 4122              		@ args = 0, pretend = 0, frame = 0
 4123              		@ frame_needed = 0, uses_anonymous_args = 0
 4124              		@ link register save eliminated.
 4125 0000 4F20     		movs	r0, #79
 4126 0002 FFF7FEBF 		b	_ZN6IoPort7ReadPinEh
 4127              		.size	_ZNK8Platform8AtxPowerEv, .-_ZNK8Platform8AtxPowerEv
 4128 0006 00BF     		.section	.text._ZN8Platform10AtxPowerOnEv,"ax",%progbits
 4129              		.align	1
 4130              		.p2align 2,,3
 4131              		.global	_ZN8Platform10AtxPowerOnEv
 4132              		.syntax unified
 4133              		.thumb
 4134              		.thumb_func
 4135              		.fpu fpv4-sp-d16
 4136              		.type	_ZN8Platform10AtxPowerOnEv, %function
 4137              	_ZN8Platform10AtxPowerOnEv:
 4138              		@ args = 0, pretend = 0, frame = 0
 4139              		@ frame_needed = 0, uses_anonymous_args = 0
 4140              		@ link register save eliminated.
 4141 0000 0023     		movs	r3, #0
 4142 0002 80F8943A 		strb	r3, [r0, #2708]
 4143 0006 0121     		movs	r1, #1
 4144 0008 4F20     		movs	r0, #79
 4145 000a FFF7FEBF 		b	_ZN6IoPort12WriteDigitalEhb
 4146              		.size	_ZN8Platform10AtxPowerOnEv, .-_ZN8Platform10AtxPowerOnEv
 4147 000e 00BF     		.section	.text._ZN8Platform11AtxPowerOffEb,"ax",%progbits
 4148              		.align	1
 4149              		.p2align 2,,3
 4150              		.global	_ZN8Platform11AtxPowerOffEb
 4151              		.syntax unified
 4152              		.thumb
 4153              		.thumb_func
 4154              		.fpu fpv4-sp-d16
 4155              		.type	_ZN8Platform11AtxPowerOffEb, %function
 4156              	_ZN8Platform11AtxPowerOffEb:
 4157              		@ args = 0, pretend = 0, frame = 0
 4158              		@ frame_needed = 0, uses_anonymous_args = 0
 4159              		@ link register save eliminated.
 4160 0000 80F8941A 		strb	r1, [r0, #2708]
 4161 0004 09B9     		cbnz	r1, .L781
ARM GAS  /tmp/ccghtDyP.s 			page 74


 4162 0006 FFF7FEBF 		b	_ZN8Platform11AtxPowerOffEb.part.26
 4163              	.L781:
 4164 000a 7047     		bx	lr
 4165              		.size	_ZN8Platform11AtxPowerOffEb, .-_ZN8Platform11AtxPowerOffEb
 4166              		.section	.text._ZN8Platform18SetPressureAdvanceEjf,"ax",%progbits
 4167              		.align	1
 4168              		.p2align 2,,3
 4169              		.global	_ZN8Platform18SetPressureAdvanceEjf
 4170              		.syntax unified
 4171              		.thumb
 4172              		.thumb_func
 4173              		.fpu fpv4-sp-d16
 4174              		.type	_ZN8Platform18SetPressureAdvanceEjf, %function
 4175              	_ZN8Platform18SetPressureAdvanceEjf:
 4176              		@ args = 0, pretend = 0, frame = 0
 4177              		@ frame_needed = 0, uses_anonymous_args = 0
 4178              		@ link register save eliminated.
 4179 0000 0829     		cmp	r1, #8
 4180 0002 9CBF     		itt	ls
 4181 0004 00EB8100 		addls	r0, r0, r1, lsl #2
 4182 0008 80ED820A 		vstrls.32	s0, [r0, #520]
 4183 000c 7047     		bx	lr
 4184              		.size	_ZN8Platform18SetPressureAdvanceEjf, .-_ZN8Platform18SetPressureAdvanceEjf
 4185 000e 00BF     		.section	.text._ZNK8Platform24GetExtrusionCoefficientsEjRfS0_S0_,"ax",%progbits
 4186              		.align	1
 4187              		.p2align 2,,3
 4188              		.global	_ZNK8Platform24GetExtrusionCoefficientsEjRfS0_S0_
 4189              		.syntax unified
 4190              		.thumb
 4191              		.thumb_func
 4192              		.fpu fpv4-sp-d16
 4193              		.type	_ZNK8Platform24GetExtrusionCoefficientsEjRfS0_S0_, %function
 4194              	_ZNK8Platform24GetExtrusionCoefficientsEjRfS0_S0_:
 4195              		@ args = 4, pretend = 0, frame = 0
 4196              		@ frame_needed = 0, uses_anonymous_args = 0
 4197              		@ link register save eliminated.
 4198 0000 0829     		cmp	r1, #8
 4199 0002 0DD8     		bhi	.L787
 4200 0004 00EB8100 		add	r0, r0, r1, lsl #2
 4201 0008 D0F82C12 		ldr	r1, [r0, #556]	@ float
 4202 000c 1160     		str	r1, [r2]	@ float
 4203 000e D0F85022 		ldr	r2, [r0, #592]	@ float
 4204 0012 1A60     		str	r2, [r3]	@ float
 4205 0014 009A     		ldr	r2, [sp]
 4206 0016 D0F87432 		ldr	r3, [r0, #628]	@ float
 4207 001a 1360     		str	r3, [r2]	@ float
 4208 001c 0120     		movs	r0, #1
 4209 001e 7047     		bx	lr
 4210              	.L787:
 4211 0020 0020     		movs	r0, #0
 4212 0022 7047     		bx	lr
 4213              		.size	_ZNK8Platform24GetExtrusionCoefficientsEjRfS0_S0_, .-_ZNK8Platform24GetExtrusionCoefficients
 4214              		.section	.text._ZN8Platform21SetNonlinearExtrusionEjfff,"ax",%progbits
 4215              		.align	1
 4216              		.p2align 2,,3
 4217              		.global	_ZN8Platform21SetNonlinearExtrusionEjfff
 4218              		.syntax unified
ARM GAS  /tmp/ccghtDyP.s 			page 75


 4219              		.thumb
 4220              		.thumb_func
 4221              		.fpu fpv4-sp-d16
 4222              		.type	_ZN8Platform21SetNonlinearExtrusionEjfff, %function
 4223              	_ZN8Platform21SetNonlinearExtrusionEjfff:
 4224              		@ args = 0, pretend = 0, frame = 0
 4225              		@ frame_needed = 0, uses_anonymous_args = 0
 4226              		@ link register save eliminated.
 4227 0000 0829     		cmp	r1, #8
 4228 0002 0ED8     		bhi	.L788
 4229 0004 00EB8100 		add	r0, r0, r1, lsl #2
 4230 0008 D0ED9D7A 		vldr.32	s15, [r0, #628]
 4231 000c F5EEC07A 		vcmpe.f32	s15, #0
 4232 0010 F1EE10FA 		vmrs	APSR_nzcv, FPSCR
 4233 0014 05DD     		ble	.L788
 4234 0016 80ED9D1A 		vstr.32	s2, [r0, #628]
 4235 001a 80ED8B0A 		vstr.32	s0, [r0, #556]
 4236 001e C0ED940A 		vstr.32	s1, [r0, #592]
 4237              	.L788:
 4238 0022 7047     		bx	lr
 4239              		.size	_ZN8Platform21SetNonlinearExtrusionEjfff, .-_ZN8Platform21SetNonlinearExtrusionEjfff
 4240              		.section	.text._ZNK8Platform11GetBaudRateEj,"ax",%progbits
 4241              		.align	1
 4242              		.p2align 2,,3
 4243              		.global	_ZNK8Platform11GetBaudRateEj
 4244              		.syntax unified
 4245              		.thumb
 4246              		.thumb_func
 4247              		.fpu fpv4-sp-d16
 4248              		.type	_ZNK8Platform11GetBaudRateEj, %function
 4249              	_ZNK8Platform11GetBaudRateEj:
 4250              		@ args = 0, pretend = 0, frame = 0
 4251              		@ frame_needed = 0, uses_anonymous_args = 0
 4252              		@ link register save eliminated.
 4253 0000 0129     		cmp	r1, #1
 4254 0002 9ABF     		itte	ls
 4255 0004 00EB8101 		addls	r1, r0, r1, lsl #2
 4256 0008 D1F86C09 		ldrls	r0, [r1, #2412]
 4257 000c 0020     		movhi	r0, #0
 4258 000e 7047     		bx	lr
 4259              		.size	_ZNK8Platform11GetBaudRateEj, .-_ZNK8Platform11GetBaudRateEj
 4260              		.section	.text._ZNK8Platform18GetCommsPropertiesEj,"ax",%progbits
 4261              		.align	1
 4262              		.p2align 2,,3
 4263              		.global	_ZNK8Platform18GetCommsPropertiesEj
 4264              		.syntax unified
 4265              		.thumb
 4266              		.thumb_func
 4267              		.fpu fpv4-sp-d16
 4268              		.type	_ZNK8Platform18GetCommsPropertiesEj, %function
 4269              	_ZNK8Platform18GetCommsPropertiesEj:
 4270              		@ args = 0, pretend = 0, frame = 0
 4271              		@ frame_needed = 0, uses_anonymous_args = 0
 4272              		@ link register save eliminated.
 4273 0000 0129     		cmp	r1, #1
 4274 0002 9ABF     		itte	ls
 4275 0004 0918     		addls	r1, r1, r0
ARM GAS  /tmp/ccghtDyP.s 			page 76


 4276 0006 91F87409 		ldrbls	r0, [r1, #2420]	@ zero_extendqisi2
 4277 000a 0020     		movhi	r0, #0
 4278 000c 7047     		bx	lr
 4279              		.size	_ZNK8Platform18GetCommsPropertiesEj, .-_ZNK8Platform18GetCommsPropertiesEj
 4280 000e 00BF     		.section	.text._ZN8Platform12SetBoardTypeE9BoardType,"ax",%progbits
 4281              		.align	1
 4282              		.p2align 2,,3
 4283              		.global	_ZN8Platform12SetBoardTypeE9BoardType
 4284              		.syntax unified
 4285              		.thumb
 4286              		.thumb_func
 4287              		.fpu fpv4-sp-d16
 4288              		.type	_ZN8Platform12SetBoardTypeE9BoardType, %function
 4289              	_ZN8Platform12SetBoardTypeE9BoardType:
 4290              		@ args = 0, pretend = 0, frame = 0
 4291              		@ frame_needed = 0, uses_anonymous_args = 0
 4292 0000 F8B5     		push	{r3, r4, r5, r6, r7, lr}
 4293 0002 0546     		mov	r5, r0
 4294 0004 0C46     		mov	r4, r1
 4295 0006 69B1     		cbz	r1, .L811
 4296 0008 85F8BC10 		strb	r1, [r5, #188]
 4297              	.L803:
 4298 000c 95F8BE30 		ldrb	r3, [r5, #190]	@ zero_extendqisi2
 4299 0010 03B9     		cbnz	r3, .L812
 4300 0012 F8BD     		pop	{r3, r4, r5, r6, r7, pc}
 4301              	.L812:
 4302 0014 2846     		mov	r0, r5
 4303 0016 FFF7FEFF 		bl	_ZN8Platform10InitZProbeEv
 4304 001a 2846     		mov	r0, r5
 4305 001c BDE8F840 		pop	{r3, r4, r5, r6, r7, lr}
 4306 0020 FFF7FEBF 		b	_ZN8Platform8InitFansEv
 4307              	.L811:
 4308 0024 0A46     		mov	r2, r1
 4309 0026 6420     		movs	r0, #100
 4310 0028 0321     		movs	r1, #3
 4311 002a FFF7FEFF 		bl	pinModeDuet
 4312 002e 2246     		mov	r2, r4
 4313 0030 0121     		movs	r1, #1
 4314 0032 0520     		movs	r0, #5
 4315 0034 FFF7FEFF 		bl	pinModeDuet
 4316 0038 4FF4C876 		mov	r6, #400
 4317 003c 2246     		mov	r2, r4
 4318 003e 0121     		movs	r1, #1
 4319 0040 6720     		movs	r0, #103
 4320 0042 FFF7FEFF 		bl	pinModeDuet
 4321 0046 3346     		mov	r3, r6
 4322              		.syntax unified
 4323              	@ 88 "/home/torbjorn/eclipse-workspace/CoreNG/cores/arduino/wiring.h" 1
 4324              		L_4802_delayMicroseconds:
 4325 0048 013B     		subs   r3, #1
 4326 004a FDD1     		bne    L_4802_delayMicroseconds
 4327              	
 4328              	@ 0 "" 2
 4329              		.thumb
 4330              		.syntax unified
 4331 004c 6720     		movs	r0, #103
 4332 004e FFF7FEFF 		bl	digitalRead
ARM GAS  /tmp/ccghtDyP.s 			page 77


 4333 0052 2246     		mov	r2, r4
 4334 0054 0746     		mov	r7, r0
 4335 0056 0221     		movs	r1, #2
 4336 0058 6720     		movs	r0, #103
 4337 005a FFF7FEFF 		bl	pinModeDuet
 4338              		.syntax unified
 4339              	@ 88 "/home/torbjorn/eclipse-workspace/CoreNG/cores/arduino/wiring.h" 1
 4340              		L_4810_delayMicroseconds:
 4341 005e 013E     		subs   r6, #1
 4342 0060 FDD1     		bne    L_4810_delayMicroseconds
 4343              	
 4344              	@ 0 "" 2
 4345              		.thumb
 4346              		.syntax unified
 4347 0062 6720     		movs	r0, #103
 4348 0064 FFF7FEFF 		bl	digitalRead
 4349 0068 40B9     		cbnz	r0, .L800
 4350 006a 3FB1     		cbz	r7, .L800
 4351 006c 0520     		movs	r0, #5
 4352 006e FFF7FEFF 		bl	digitalRead
 4353 0072 80B9     		cbnz	r0, .L805
 4354 0074 0323     		movs	r3, #3
 4355              	.L802:
 4356 0076 85F8BC30 		strb	r3, [r5, #188]
 4357 007a C7E7     		b	.L803
 4358              	.L800:
 4359 007c 0022     		movs	r2, #0
 4360 007e 6720     		movs	r0, #103
 4361 0080 1146     		mov	r1, r2
 4362 0082 FFF7FEFF 		bl	pinModeDuet
 4363 0086 0520     		movs	r0, #5
 4364 0088 FFF7FEFF 		bl	digitalRead
 4365 008c 08B1     		cbz	r0, .L806
 4366 008e 0223     		movs	r3, #2
 4367 0090 F1E7     		b	.L802
 4368              	.L806:
 4369 0092 0423     		movs	r3, #4
 4370 0094 EFE7     		b	.L802
 4371              	.L805:
 4372 0096 0123     		movs	r3, #1
 4373 0098 EDE7     		b	.L802
 4374              		.size	_ZN8Platform12SetBoardTypeE9BoardType, .-_ZN8Platform12SetBoardTypeE9BoardType
 4375 009a 00BF     		.section	.text._ZNK8Platform20GetElectronicsStringEv,"ax",%progbits
 4376              		.align	1
 4377              		.p2align 2,,3
 4378              		.global	_ZNK8Platform20GetElectronicsStringEv
 4379              		.syntax unified
 4380              		.thumb
 4381              		.thumb_func
 4382              		.fpu fpv4-sp-d16
 4383              		.type	_ZNK8Platform20GetElectronicsStringEv, %function
 4384              	_ZNK8Platform20GetElectronicsStringEv:
 4385              		@ args = 0, pretend = 0, frame = 0
 4386              		@ frame_needed = 0, uses_anonymous_args = 0
 4387              		@ link register save eliminated.
 4388 0000 90F8BC30 		ldrb	r3, [r0, #188]	@ zero_extendqisi2
 4389 0004 013B     		subs	r3, r3, #1
ARM GAS  /tmp/ccghtDyP.s 			page 78


 4390 0006 DBB2     		uxtb	r3, r3
 4391 0008 032B     		cmp	r3, #3
 4392 000a 9ABF     		itte	ls
 4393 000c 024A     		ldrls	r2, .L816
 4394 000e 52F82300 		ldrls	r0, [r2, r3, lsl #2]
 4395 0012 0248     		ldrhi	r0, .L816+4
 4396 0014 7047     		bx	lr
 4397              	.L817:
 4398 0016 00BF     		.align	2
 4399              	.L816:
 4400 0018 00000000 		.word	.LANCHOR7
 4401 001c 00000000 		.word	.LC22
 4402              		.size	_ZNK8Platform20GetElectronicsStringEv, .-_ZNK8Platform20GetElectronicsStringEv
 4403              		.section	.text._ZNK8Platform14GetBoardStringEv,"ax",%progbits
 4404              		.align	1
 4405              		.p2align 2,,3
 4406              		.global	_ZNK8Platform14GetBoardStringEv
 4407              		.syntax unified
 4408              		.thumb
 4409              		.thumb_func
 4410              		.fpu fpv4-sp-d16
 4411              		.type	_ZNK8Platform14GetBoardStringEv, %function
 4412              	_ZNK8Platform14GetBoardStringEv:
 4413              		@ args = 0, pretend = 0, frame = 0
 4414              		@ frame_needed = 0, uses_anonymous_args = 0
 4415              		@ link register save eliminated.
 4416 0000 90F8BC30 		ldrb	r3, [r0, #188]	@ zero_extendqisi2
 4417 0004 013B     		subs	r3, r3, #1
 4418 0006 DBB2     		uxtb	r3, r3
 4419 0008 032B     		cmp	r3, #3
 4420 000a 9ABF     		itte	ls
 4421 000c 024A     		ldrls	r2, .L821
 4422 000e 52F82300 		ldrls	r0, [r2, r3, lsl #2]
 4423 0012 0248     		ldrhi	r0, .L821+4
 4424 0014 7047     		bx	lr
 4425              	.L822:
 4426 0016 00BF     		.align	2
 4427              	.L821:
 4428 0018 00000000 		.word	.LANCHOR8
 4429 001c 00000000 		.word	.LC23
 4430              		.size	_ZNK8Platform14GetBoardStringEv, .-_ZNK8Platform14GetBoardStringEv
 4431              		.section	.text._ZNK8Platform10IsDuetWiFiEv,"ax",%progbits
 4432              		.align	1
 4433              		.p2align 2,,3
 4434              		.global	_ZNK8Platform10IsDuetWiFiEv
 4435              		.syntax unified
 4436              		.thumb
 4437              		.thumb_func
 4438              		.fpu fpv4-sp-d16
 4439              		.type	_ZNK8Platform10IsDuetWiFiEv, %function
 4440              	_ZNK8Platform10IsDuetWiFiEv:
 4441              		@ args = 0, pretend = 0, frame = 0
 4442              		@ frame_needed = 0, uses_anonymous_args = 0
 4443              		@ link register save eliminated.
 4444 0000 90F8BC00 		ldrb	r0, [r0, #188]	@ zero_extendqisi2
 4445 0004 0138     		subs	r0, r0, #1
 4446 0006 0128     		cmp	r0, #1
ARM GAS  /tmp/ccghtDyP.s 			page 79


 4447 0008 8CBF     		ite	hi
 4448 000a 0020     		movhi	r0, #0
 4449 000c 0120     		movls	r0, #1
 4450 000e 7047     		bx	lr
 4451              		.size	_ZNK8Platform10IsDuetWiFiEv, .-_ZNK8Platform10IsDuetWiFiEv
 4452              		.section	.text._ZN8Platform14GetFirmwarePinEt9PinAccessRhRb,"ax",%progbits
 4453              		.align	1
 4454              		.p2align 2,,3
 4455              		.global	_ZN8Platform14GetFirmwarePinEt9PinAccessRhRb
 4456              		.syntax unified
 4457              		.thumb
 4458              		.thumb_func
 4459              		.fpu fpv4-sp-d16
 4460              		.type	_ZN8Platform14GetFirmwarePinEt9PinAccessRhRb, %function
 4461              	_ZN8Platform14GetFirmwarePinEt9PinAccessRhRb:
 4462              		@ args = 4, pretend = 0, frame = 0
 4463              		@ frame_needed = 0, uses_anonymous_args = 0
 4464 0000 70B5     		push	{r4, r5, r6, lr}
 4465 0002 049E     		ldr	r6, [sp, #16]
 4466 0004 FF25     		movs	r5, #255
 4467 0006 0024     		movs	r4, #0
 4468 0008 0729     		cmp	r1, #7
 4469 000a 1D70     		strb	r5, [r3]
 4470 000c 3470     		strb	r4, [r6]
 4471 000e 1DD8     		bhi	.L825
 4472 0010 414C     		ldr	r4, .L868
 4473 0012 E468     		ldr	r4, [r4, #12]
 4474 0014 04EB8104 		add	r4, r4, r1, lsl #2
 4475 0018 646C     		ldr	r4, [r4, #68]
 4476 001a 94F84640 		ldrb	r4, [r4, #70]	@ zero_extendqisi2
 4477 001e 3CB3     		cbz	r4, .L826
 4478              	.L861:
 4479 0020 1C78     		ldrb	r4, [r3]	@ zero_extendqisi2
 4480              	.L827:
 4481 0022 FF2C     		cmp	r4, #255
 4482 0024 35D0     		beq	.L842
 4483              	.L837:
 4484 0026 012A     		cmp	r2, #1
 4485 0028 35D0     		beq	.L862
 4486              	.L839:
 4487 002a 023A     		subs	r2, r2, #2
 4488 002c 012A     		cmp	r2, #1
 4489 002e 4DD9     		bls	.L863
 4490 0030 0125     		movs	r5, #1
 4491              	.L840:
 4492 0032 4618     		adds	r6, r0, r1
 4493 0034 96F9953A 		ldrsb	r3, [r6, #2709]
 4494 0038 AB42     		cmp	r3, r5
 4495 003a 34D0     		beq	.L846
 4496              	.L866:
 4497 003c 2046     		mov	r0, r4
 4498 003e 2946     		mov	r1, r5
 4499 0040 FFF7FEFF 		bl	_ZN6IoPort10SetPinModeEh7PinMode
 4500 0044 86F8955A 		strb	r5, [r6, #2709]
 4501 0048 0120     		movs	r0, #1
 4502 004a 70BD     		pop	{r4, r5, r6, pc}
 4503              	.L825:
ARM GAS  /tmp/ccghtDyP.s 			page 80


 4504 004c A1F11404 		sub	r4, r1, #20
 4505 0050 A5B2     		uxth	r5, r4
 4506 0052 082D     		cmp	r5, #8
 4507 0054 13D8     		bhi	.L828
 4508 0056 2C25     		movs	r5, #44
 4509 0058 05FB0405 		mla	r5, r5, r4, r0
 4510 005c 95F8FE57 		ldrb	r5, [r5, #2046]	@ zero_extendqisi2
 4511 0060 FF2D     		cmp	r5, #255
 4512 0062 DDD1     		bne	.L861
 4513 0064 1629     		cmp	r1, #22
 4514 0066 4BD8     		bhi	.L864
 4515              	.L830:
 4516 0068 2C4D     		ldr	r5, .L868+4
 4517 006a 2C5D     		ldrb	r4, [r5, r4]	@ zero_extendqisi2
 4518 006c 1C70     		strb	r4, [r3]
 4519 006e D8E7     		b	.L827
 4520              	.L826:
 4521 0070 4418     		adds	r4, r0, r1
 4522 0072 0125     		movs	r5, #1
 4523 0074 94F8C047 		ldrb	r4, [r4, #1984]	@ zero_extendqisi2
 4524 0078 1C70     		strb	r4, [r3]
 4525 007a 3570     		strb	r5, [r6]
 4526 007c D0E7     		b	.L861
 4527              	.L828:
 4528 007e A1F12804 		sub	r4, r1, #40
 4529 0082 0B2C     		cmp	r4, #11
 4530 0084 11D8     		bhi	.L832
 4531 0086 3AB3     		cbz	r2, .L833
 4532 0088 012A     		cmp	r2, #1
 4533 008a 18D0     		beq	.L865
 4534              	.L831:
 4535 008c 1C78     		ldrb	r4, [r3]	@ zero_extendqisi2
 4536 008e FF2C     		cmp	r4, #255
 4537 0090 CBD1     		bne	.L839
 4538              	.L842:
 4539 0092 0020     		movs	r0, #0
 4540 0094 70BD     		pop	{r4, r5, r6, pc}
 4541              	.L862:
 4542 0096 3378     		ldrb	r3, [r6]	@ zero_extendqisi2
 4543 0098 B3B1     		cbz	r3, .L841
 4544 009a 4618     		adds	r6, r0, r1
 4545 009c 0425     		movs	r5, #4
 4546 009e 96F9953A 		ldrsb	r3, [r6, #2709]
 4547 00a2 AB42     		cmp	r3, r5
 4548 00a4 CAD1     		bne	.L866
 4549              	.L846:
 4550 00a6 0120     		movs	r0, #1
 4551 00a8 70BD     		pop	{r4, r5, r6, pc}
 4552              	.L832:
 4553 00aa A1F13C04 		sub	r4, r1, #60
 4554 00ae 042C     		cmp	r4, #4
 4555 00b0 17D8     		bhi	.L835
 4556 00b2 1B4C     		ldr	r4, .L868+8
 4557 00b4 0C44     		add	r4, r4, r1
 4558 00b6 14F83C4C 		ldrb	r4, [r4, #-60]	@ zero_extendqisi2
 4559 00ba 1C70     		strb	r4, [r3]
 4560 00bc B1E7     		b	.L827
ARM GAS  /tmp/ccghtDyP.s 			page 81


 4561              	.L865:
 4562 00be 2C29     		cmp	r1, #44
 4563 00c0 0AD8     		bhi	.L833
 4564 00c2 1C78     		ldrb	r4, [r3]	@ zero_extendqisi2
 4565 00c4 FF2C     		cmp	r4, #255
 4566 00c6 E4D0     		beq	.L842
 4567              	.L841:
 4568 00c8 0325     		movs	r5, #3
 4569 00ca B2E7     		b	.L840
 4570              	.L863:
 4571 00cc 3378     		ldrb	r3, [r6]	@ zero_extendqisi2
 4572 00ce 002B     		cmp	r3, #0
 4573 00d0 0CBF     		ite	eq
 4574 00d2 0725     		moveq	r5, #7
 4575 00d4 0825     		movne	r5, #8
 4576 00d6 ACE7     		b	.L840
 4577              	.L833:
 4578 00d8 4418     		adds	r4, r0, r1
 4579 00da 94F80A41 		ldrb	r4, [r4, #266]	@ zero_extendqisi2
 4580 00de 1C70     		strb	r4, [r3]
 4581 00e0 9FE7     		b	.L827
 4582              	.L835:
 4583 00e2 A1F16404 		sub	r4, r1, #100
 4584 00e6 032C     		cmp	r4, #3
 4585 00e8 0DD9     		bls	.L867
 4586 00ea A1F17804 		sub	r4, r1, #120
 4587 00ee 0F2C     		cmp	r4, #15
 4588 00f0 96D8     		bhi	.L861
 4589 00f2 032A     		cmp	r2, #3
 4590 00f4 CAD0     		beq	.L831
 4591 00f6 01F16404 		add	r4, r1, #100
 4592 00fa E4B2     		uxtb	r4, r4
 4593 00fc 1C70     		strb	r4, [r3]
 4594 00fe 92E7     		b	.L837
 4595              	.L864:
 4596 0100 032A     		cmp	r2, #3
 4597 0102 B1D1     		bne	.L830
 4598 0104 C2E7     		b	.L831
 4599              	.L867:
 4600 0106 032A     		cmp	r2, #3
 4601 0108 C0D0     		beq	.L831
 4602 010a 064C     		ldr	r4, .L868+12
 4603 010c 0C44     		add	r4, r4, r1
 4604 010e 14F8644C 		ldrb	r4, [r4, #-100]	@ zero_extendqisi2
 4605 0112 1C70     		strb	r4, [r3]
 4606 0114 85E7     		b	.L827
 4607              	.L869:
 4608 0116 00BF     		.align	2
 4609              	.L868:
 4610 0118 00000000 		.word	reprap
 4611 011c 00000000 		.word	.LANCHOR6
 4612 0120 00000000 		.word	.LANCHOR9
 4613 0124 00000000 		.word	.LANCHOR10
 4614              		.size	_ZN8Platform14GetFirmwarePinEt9PinAccessRhRb, .-_ZN8Platform14GetFirmwarePinEt9PinAccessRhRb
 4615              		.section	.text._ZN8Platform28SetExtrusionAncilliaryPwmPinEtb,"ax",%progbits
 4616              		.align	1
 4617              		.p2align 2,,3
ARM GAS  /tmp/ccghtDyP.s 			page 82


 4618              		.global	_ZN8Platform28SetExtrusionAncilliaryPwmPinEtb
 4619              		.syntax unified
 4620              		.thumb
 4621              		.thumb_func
 4622              		.fpu fpv4-sp-d16
 4623              		.type	_ZN8Platform28SetExtrusionAncilliaryPwmPinEtb, %function
 4624              	_ZN8Platform28SetExtrusionAncilliaryPwmPinEtb:
 4625              		@ args = 0, pretend = 0, frame = 0
 4626              		@ frame_needed = 0, uses_anonymous_args = 0
 4627              		@ link register save eliminated.
 4628 0000 1346     		mov	r3, r2
 4629 0002 00F68820 		addw	r0, r0, #2696
 4630 0006 0222     		movs	r2, #2
 4631 0008 FFF7FEBF 		b	_ZN6IoPort3SetEt9PinAccessb
 4632              		.size	_ZN8Platform28SetExtrusionAncilliaryPwmPinEtb, .-_ZN8Platform28SetExtrusionAncilliaryPwmPinE
 4633              		.section	.text._ZN8Platform11SetLaserPwmEf,"ax",%progbits
 4634              		.align	1
 4635              		.p2align 2,,3
 4636              		.global	_ZN8Platform11SetLaserPwmEf
 4637              		.syntax unified
 4638              		.thumb
 4639              		.thumb_func
 4640              		.fpu fpv4-sp-d16
 4641              		.type	_ZN8Platform11SetLaserPwmEf, %function
 4642              	_ZN8Platform11SetLaserPwmEf:
 4643              		@ args = 0, pretend = 0, frame = 0
 4644              		@ frame_needed = 0, uses_anonymous_args = 0
 4645              		@ link register save eliminated.
 4646 0000 00F68E20 		addw	r0, r0, #2702
 4647 0004 FFF7FEBF 		b	_ZNK7PwmPort11WriteAnalogEf
 4648              		.size	_ZN8Platform11SetLaserPwmEf, .-_ZN8Platform11SetLaserPwmEf
 4649              		.section	.text._ZN8Platform11SetLaserPinEtb,"ax",%progbits
 4650              		.align	1
 4651              		.p2align 2,,3
 4652              		.global	_ZN8Platform11SetLaserPinEtb
 4653              		.syntax unified
 4654              		.thumb
 4655              		.thumb_func
 4656              		.fpu fpv4-sp-d16
 4657              		.type	_ZN8Platform11SetLaserPinEtb, %function
 4658              	_ZN8Platform11SetLaserPinEtb:
 4659              		@ args = 0, pretend = 0, frame = 0
 4660              		@ frame_needed = 0, uses_anonymous_args = 0
 4661              		@ link register save eliminated.
 4662 0000 1346     		mov	r3, r2
 4663 0002 00F68E20 		addw	r0, r0, #2702
 4664 0006 0222     		movs	r2, #2
 4665 0008 FFF7FEBF 		b	_ZN6IoPort3SetEt9PinAccessb
 4666              		.size	_ZN8Platform11SetLaserPinEtb, .-_ZN8Platform11SetLaserPinEtb
 4667              		.section	.text._ZN8Platform20SetLaserPwmFrequencyEf,"ax",%progbits
 4668              		.align	1
 4669              		.p2align 2,,3
 4670              		.global	_ZN8Platform20SetLaserPwmFrequencyEf
 4671              		.syntax unified
 4672              		.thumb
 4673              		.thumb_func
 4674              		.fpu fpv4-sp-d16
ARM GAS  /tmp/ccghtDyP.s 			page 83


 4675              		.type	_ZN8Platform20SetLaserPwmFrequencyEf, %function
 4676              	_ZN8Platform20SetLaserPwmFrequencyEf:
 4677              		@ args = 0, pretend = 0, frame = 0
 4678              		@ frame_needed = 0, uses_anonymous_args = 0
 4679              		@ link register save eliminated.
 4680 0000 00F68E20 		addw	r0, r0, #2702
 4681 0004 FFF7FEBF 		b	_ZN7PwmPort12SetFrequencyEf
 4682              		.size	_ZN8Platform20SetLaserPwmFrequencyEf, .-_ZN8Platform20SetLaserPwmFrequencyEf
 4683              		.section	.text._ZNK8Platform13GetEndstopPinEi,"ax",%progbits
 4684              		.align	1
 4685              		.p2align 2,,3
 4686              		.global	_ZNK8Platform13GetEndstopPinEi
 4687              		.syntax unified
 4688              		.thumb
 4689              		.thumb_func
 4690              		.fpu fpv4-sp-d16
 4691              		.type	_ZNK8Platform13GetEndstopPinEi, %function
 4692              	_ZNK8Platform13GetEndstopPinEi:
 4693              		@ args = 0, pretend = 0, frame = 0
 4694              		@ frame_needed = 0, uses_anonymous_args = 0
 4695              		@ link register save eliminated.
 4696 0000 0B29     		cmp	r1, #11
 4697 0002 9ABF     		itte	ls
 4698 0004 4018     		addls	r0, r0, r1
 4699 0006 90F83201 		ldrbls	r0, [r0, #306]	@ zero_extendqisi2
 4700 000a FF20     		movhi	r0, #255
 4701 000c 7047     		bx	lr
 4702              		.size	_ZNK8Platform13GetEndstopPinEi, .-_ZNK8Platform13GetEndstopPinEi
 4703 000e 00BF     		.section	.text._ZN8Platform14SetAxisMaximumEjfb,"ax",%progbits
 4704              		.align	1
 4705              		.p2align 2,,3
 4706              		.global	_ZN8Platform14SetAxisMaximumEjfb
 4707              		.syntax unified
 4708              		.thumb
 4709              		.thumb_func
 4710              		.fpu fpv4-sp-d16
 4711              		.type	_ZN8Platform14SetAxisMaximumEjfb, %function
 4712              	_ZN8Platform14SetAxisMaximumEjfb:
 4713              		@ args = 0, pretend = 0, frame = 0
 4714              		@ frame_needed = 0, uses_anonymous_args = 0
 4715              		@ link register save eliminated.
 4716 0000 01F5E473 		add	r3, r1, #456
 4717 0004 00EB8303 		add	r3, r0, r3, lsl #2
 4718 0008 83ED000A 		vstr.32	s0, [r3]
 4719 000c 3AB1     		cbz	r2, .L877
 4720 000e D0F86C37 		ldr	r3, [r0, #1900]
 4721 0012 0122     		movs	r2, #1
 4722 0014 02FA01F1 		lsl	r1, r2, r1
 4723 0018 0B43     		orrs	r3, r3, r1
 4724 001a C0F86C37 		str	r3, [r0, #1900]
 4725              	.L877:
 4726 001e 7047     		bx	lr
 4727              		.size	_ZN8Platform14SetAxisMaximumEjfb, .-_ZN8Platform14SetAxisMaximumEjfb
 4728              		.section	.text._ZN8Platform14SetAxisMinimumEjfb,"ax",%progbits
 4729              		.align	1
 4730              		.p2align 2,,3
 4731              		.global	_ZN8Platform14SetAxisMinimumEjfb
ARM GAS  /tmp/ccghtDyP.s 			page 84


 4732              		.syntax unified
 4733              		.thumb
 4734              		.thumb_func
 4735              		.fpu fpv4-sp-d16
 4736              		.type	_ZN8Platform14SetAxisMinimumEjfb, %function
 4737              	_ZN8Platform14SetAxisMinimumEjfb:
 4738              		@ args = 0, pretend = 0, frame = 0
 4739              		@ frame_needed = 0, uses_anonymous_args = 0
 4740              		@ link register save eliminated.
 4741 0000 01F5E873 		add	r3, r1, #464
 4742 0004 00EB8303 		add	r3, r0, r3, lsl #2
 4743 0008 83ED010A 		vstr.32	s0, [r3, #4]
 4744 000c 3AB1     		cbz	r2, .L882
 4745 000e D0F86837 		ldr	r3, [r0, #1896]
 4746 0012 0122     		movs	r2, #1
 4747 0014 02FA01F1 		lsl	r1, r2, r1
 4748 0018 0B43     		orrs	r3, r3, r1
 4749 001a C0F86837 		str	r3, [r0, #1896]
 4750              	.L882:
 4751 001e 7047     		bx	lr
 4752              		.size	_ZN8Platform14SetAxisMinimumEjfb, .-_ZN8Platform14SetAxisMinimumEjfb
 4753              		.section	.text._ZNK8Platform18GetMcuTemperaturesERfS0_S0_,"ax",%progbits
 4754              		.align	1
 4755              		.p2align 2,,3
 4756              		.global	_ZNK8Platform18GetMcuTemperaturesERfS0_S0_
 4757              		.syntax unified
 4758              		.thumb
 4759              		.thumb_func
 4760              		.fpu fpv4-sp-d16
 4761              		.type	_ZNK8Platform18GetMcuTemperaturesERfS0_S0_, %function
 4762              	_ZNK8Platform18GetMcuTemperaturesERfS0_S0_:
 4763              		@ args = 0, pretend = 0, frame = 0
 4764              		@ frame_needed = 0, uses_anonymous_args = 0
 4765              		@ link register save eliminated.
 4766 0000 10B4     		push	{r4}
 4767 0002 D0F80C47 		ldr	r4, [r0, #1804]
 4768 0006 9FED247A 		vldr.32	s14, .L889
 4769 000a 9FED246A 		vldr.32	s12, .L889+4
 4770 000e DFED246A 		vldr.32	s13, .L889+8
 4771 0012 05EE904A 		vmov	s11, r4	@ int
 4772 0016 D0F81847 		ldr	r4, [r0, #1816]
 4773 001a 07EE904A 		vmov	s15, r4	@ int
 4774 001e B8EE675A 		vcvt.f32.u32	s10, s15
 4775 0022 F0EE474A 		vmov.f32	s9, s14
 4776 0026 E5EE064A 		vfma.f32	s9, s10, s12
 4777 002a 00F21C74 		addw	r4, r0, #1820
 4778 002e F3EE0B7A 		vmov.f32	s15, #2.7e+1
 4779 0032 B0EE645A 		vmov.f32	s10, s9
 4780 0036 F0EE674A 		vmov.f32	s9, s15
 4781 003a E5EE264A 		vfma.f32	s9, s10, s13
 4782 003e F8EE655A 		vcvt.f32.u32	s11, s11
 4783 0042 B0EE645A 		vmov.f32	s10, s9
 4784 0046 F0EE474A 		vmov.f32	s9, s14
 4785 004a E5EE864A 		vfma.f32	s9, s11, s12
 4786 004e F0EE645A 		vmov.f32	s11, s9
 4787 0052 D4ED004A 		vldr.32	s9, [r4]
 4788 0056 35EE245A 		vadd.f32	s10, s10, s9
ARM GAS  /tmp/ccghtDyP.s 			page 85


 4789 005a F0EE674A 		vmov.f32	s9, s15
 4790 005e E5EEA64A 		vfma.f32	s9, s11, s13
 4791 0062 81ED005A 		vstr.32	s10, [r1]
 4792 0066 94ED005A 		vldr.32	s10, [r4]
 4793 006a 74EE855A 		vadd.f32	s11, s9, s10
 4794 006e C2ED005A 		vstr.32	s11, [r2]
 4795 0072 D0F81427 		ldr	r2, [r0, #1812]
 4796 0076 94ED005A 		vldr.32	s10, [r4]
 4797 007a 5DF8044B 		ldr	r4, [sp], #4
 4798 007e 05EE902A 		vmov	s11, r2	@ int
 4799 0082 F8EE655A 		vcvt.f32.u32	s11, s11
 4800 0086 A5EE867A 		vfma.f32	s14, s11, s12
 4801 008a E7EE267A 		vfma.f32	s15, s14, s13
 4802 008e 77EE857A 		vadd.f32	s15, s15, s10
 4803 0092 C3ED007A 		vstr.32	s15, [r3]
 4804 0096 7047     		bx	lr
 4805              	.L890:
 4806              		.align	2
 4807              	.L889:
 4808 0098 EC51B8BF 		.word	3216527852
 4809 009c 3333D337 		.word	936588083
 4810 00a0 16C45443 		.word	1129628694
 4811              		.size	_ZNK8Platform18GetMcuTemperaturesERfS0_S0_, .-_ZNK8Platform18GetMcuTemperaturesERfS0_S0_
 4812              		.section	.text._ZNK8Platform16GetPowerVoltagesERfS0_S0_,"ax",%progbits
 4813              		.align	1
 4814              		.p2align 2,,3
 4815              		.global	_ZNK8Platform16GetPowerVoltagesERfS0_S0_
 4816              		.syntax unified
 4817              		.thumb
 4818              		.thumb_func
 4819              		.fpu fpv4-sp-d16
 4820              		.type	_ZNK8Platform16GetPowerVoltagesERfS0_S0_, %function
 4821              	_ZNK8Platform16GetPowerVoltagesERfS0_S0_:
 4822              		@ args = 0, pretend = 0, frame = 0
 4823              		@ frame_needed = 0, uses_anonymous_args = 0
 4824              		@ link register save eliminated.
 4825 0000 B0F8DAC9 		ldrh	ip, [r0, #2522]
 4826 0004 DFED0F6A 		vldr.32	s13, .L892
 4827 0008 07EE10CA 		vmov	s14, ip	@ int
 4828 000c B8EEC77A 		vcvt.f32.s32	s14, s14
 4829 0010 27EE267A 		vmul.f32	s14, s14, s13
 4830 0014 81ED007A 		vstr.32	s14, [r1]
 4831 0018 B0F8D619 		ldrh	r1, [r0, #2518]
 4832 001c 07EE101A 		vmov	s14, r1	@ int
 4833 0020 B8EEC77A 		vcvt.f32.s32	s14, s14
 4834 0024 27EE267A 		vmul.f32	s14, s14, s13
 4835 0028 82ED007A 		vstr.32	s14, [r2]
 4836 002c B0F8D829 		ldrh	r2, [r0, #2520]
 4837 0030 07EE902A 		vmov	s15, r2	@ int
 4838 0034 F8EEE77A 		vcvt.f32.s32	s15, s15
 4839 0038 67EEA67A 		vmul.f32	s15, s15, s13
 4840 003c C3ED007A 		vstr.32	s15, [r3]
 4841 0040 7047     		bx	lr
 4842              	.L893:
 4843 0042 00BF     		.align	2
 4844              	.L892:
 4845 0044 3333113C 		.word	1007760179
ARM GAS  /tmp/ccghtDyP.s 			page 86


 4846              		.size	_ZNK8Platform16GetPowerVoltagesERfS0_S0_, .-_ZNK8Platform16GetPowerVoltagesERfS0_S0_
 4847              		.section	.text._ZNK8Platform22GetCurrentPowerVoltageEv,"ax",%progbits
 4848              		.align	1
 4849              		.p2align 2,,3
 4850              		.global	_ZNK8Platform22GetCurrentPowerVoltageEv
 4851              		.syntax unified
 4852              		.thumb
 4853              		.thumb_func
 4854              		.fpu fpv4-sp-d16
 4855              		.type	_ZNK8Platform22GetCurrentPowerVoltageEv, %function
 4856              	_ZNK8Platform22GetCurrentPowerVoltageEv:
 4857              		@ args = 0, pretend = 0, frame = 0
 4858              		@ frame_needed = 0, uses_anonymous_args = 0
 4859              		@ link register save eliminated.
 4860 0000 B0F8D639 		ldrh	r3, [r0, #2518]
 4861 0004 DFED047A 		vldr.32	s15, .L895
 4862 0008 00EE103A 		vmov	s0, r3	@ int
 4863 000c B8EEC00A 		vcvt.f32.s32	s0, s0
 4864 0010 20EE270A 		vmul.f32	s0, s0, s15
 4865 0014 7047     		bx	lr
 4866              	.L896:
 4867 0016 00BF     		.align	2
 4868              	.L895:
 4869 0018 3333113C 		.word	1007760179
 4870              		.size	_ZNK8Platform22GetCurrentPowerVoltageEv, .-_ZNK8Platform22GetCurrentPowerVoltageEv
 4871              		.section	.text._ZNK8Platform24GetTmcDriversTemperatureEj,"ax",%progbits
 4872              		.align	1
 4873              		.p2align 2,,3
 4874              		.global	_ZNK8Platform24GetTmcDriversTemperatureEj
 4875              		.syntax unified
 4876              		.thumb
 4877              		.thumb_func
 4878              		.fpu fpv4-sp-d16
 4879              		.type	_ZNK8Platform24GetTmcDriversTemperatureEj, %function
 4880              	_ZNK8Platform24GetTmcDriversTemperatureEj:
 4881              		@ args = 0, pretend = 0, frame = 0
 4882              		@ frame_needed = 0, uses_anonymous_args = 0
 4883              		@ link register save eliminated.
 4884 0000 1F23     		movs	r3, #31
 4885 0002 01EB8101 		add	r1, r1, r1, lsl #2
 4886 0006 03FA01F1 		lsl	r1, r3, r1
 4887 000a D0F8C833 		ldr	r3, [r0, #968]
 4888 000e 89B2     		uxth	r1, r1
 4889 0010 1942     		tst	r1, r3
 4890 0012 0AD1     		bne	.L899
 4891 0014 D0F8CC33 		ldr	r3, [r0, #972]
 4892 0018 DFED057A 		vldr.32	s15, .L901
 4893 001c 9FED050A 		vldr.32	s0, .L901+4
 4894 0020 1942     		tst	r1, r3
 4895 0022 08BF     		it	eq
 4896 0024 B0EE670A 		vmoveq.f32	s0, s15
 4897 0028 7047     		bx	lr
 4898              	.L899:
 4899 002a 9FED030A 		vldr.32	s0, .L901+8
 4900 002e 7047     		bx	lr
 4901              	.L902:
 4902              		.align	2
ARM GAS  /tmp/ccghtDyP.s 			page 87


 4903              	.L901:
 4904 0030 00000000 		.word	0
 4905 0034 0000C842 		.word	1120403456
 4906 0038 00001643 		.word	1125515264
 4907              		.size	_ZNK8Platform24GetTmcDriversTemperatureEj, .-_ZNK8Platform24GetTmcDriversTemperatureEj
 4908              		.section	.text._ZN8Platform23ConfigureStallDetectionER11GCodeBufferRK9StringRef,"ax",%progbits
 4909              		.align	1
 4910              		.p2align 2,,3
 4911              		.global	_ZN8Platform23ConfigureStallDetectionER11GCodeBufferRK9StringRef
 4912              		.syntax unified
 4913              		.thumb
 4914              		.thumb_func
 4915              		.fpu fpv4-sp-d16
 4916              		.type	_ZN8Platform23ConfigureStallDetectionER11GCodeBufferRK9StringRef, %function
 4917              	_ZN8Platform23ConfigureStallDetectionER11GCodeBufferRK9StringRef:
 4918              		@ args = 0, pretend = 0, frame = 56
 4919              		@ frame_needed = 0, uses_anonymous_args = 0
 4920 0000 2DE9F04F 		push	{r4, r5, r6, r7, r8, r9, r10, fp, lr}
 4921 0004 0D46     		mov	r5, r1
 4922 0006 8FB0     		sub	sp, sp, #60
 4923 0008 0646     		mov	r6, r0
 4924 000a 5021     		movs	r1, #80
 4925 000c 2846     		mov	r0, r5
 4926 000e 9146     		mov	r9, r2
 4927 0010 FFF7FEFF 		bl	_ZN11GCodeBuffer4SeenEc
 4928 0014 0746     		mov	r7, r0
 4929 0016 0028     		cmp	r0, #0
 4930 0018 40F0C980 		bne	.L998
 4931 001c 0446     		mov	r4, r0
 4932              	.L904:
 4933 001e DFF85483 		ldr	r8, .L1006+20
 4934 0022 D8F81030 		ldr	r3, [r8, #16]
 4935 0026 D3F89822 		ldr	r2, [r3, #664]
 4936 002a 82B3     		cbz	r2, .L910
 4937 002c 4FF0000B 		mov	fp, #0
 4938 0030 06F53F7A 		add	r10, r6, #764
 4939 0034 0127     		movs	r7, #1
 4940 0036 07E0     		b	.L913
 4941              	.L911:
 4942 0038 D8F81030 		ldr	r3, [r8, #16]
 4943 003c D3F89822 		ldr	r2, [r3, #664]
 4944 0040 0BF1010B 		add	fp, fp, #1
 4945 0044 5A45     		cmp	r2, fp
 4946 0046 22D9     		bls	.L910
 4947              	.L913:
 4948 0048 5B44     		add	r3, r3, fp
 4949 004a 2846     		mov	r0, r5
 4950 004c 93F85A14 		ldrb	r1, [r3, #1114]	@ zero_extendqisi2
 4951 0050 FFF7FEFF 		bl	_ZN11GCodeBuffer4SeenEc
 4952 0054 0028     		cmp	r0, #0
 4953 0056 EFD0     		beq	.L911
 4954 0058 4FEACB02 		lsl	r2, fp, #3
 4955 005c B118     		adds	r1, r6, r2
 4956 005e D1F8F832 		ldr	r3, [r1, #760]
 4957 0062 002B     		cmp	r3, #0
 4958 0064 E8D0     		beq	.L911
 4959 0066 1944     		add	r1, r1, r3
ARM GAS  /tmp/ccghtDyP.s 			page 88


 4960 0068 01F53F71 		add	r1, r1, #764
 4961 006c 5244     		add	r2, r2, r10
 4962              	.L912:
 4963 006e 12F8013B 		ldrb	r3, [r2], #1	@ zero_extendqisi2
 4964 0072 07FA03F3 		lsl	r3, r7, r3
 4965 0076 9142     		cmp	r1, r2
 4966 0078 44EA0304 		orr	r4, r4, r3
 4967 007c F7D1     		bne	.L912
 4968 007e D8F81030 		ldr	r3, [r8, #16]
 4969 0082 D3F89822 		ldr	r2, [r3, #664]
 4970 0086 0BF1010B 		add	fp, fp, #1
 4971 008a 5A45     		cmp	r2, fp
 4972 008c DCD8     		bhi	.L913
 4973              	.L910:
 4974 008e 5321     		movs	r1, #83
 4975 0090 2846     		mov	r0, r5
 4976 0092 FFF7FEFF 		bl	_ZN11GCodeBuffer4SeenEc
 4977 0096 0746     		mov	r7, r0
 4978 0098 0028     		cmp	r0, #0
 4979 009a 40F0B980 		bne	.L999
 4980              	.L914:
 4981 009e 4621     		movs	r1, #70
 4982 00a0 2846     		mov	r0, r5
 4983 00a2 FFF7FEFF 		bl	_ZN11GCodeBuffer4SeenEc
 4984 00a6 8246     		mov	r10, r0
 4985 00a8 0028     		cmp	r0, #0
 4986 00aa 40F00281 		bne	.L1000
 4987              	.L918:
 4988 00ae 4821     		movs	r1, #72
 4989 00b0 2846     		mov	r0, r5
 4990 00b2 FFF7FEFF 		bl	_ZN11GCodeBuffer4SeenEc
 4991 00b6 8246     		mov	r10, r0
 4992 00b8 0028     		cmp	r0, #0
 4993 00ba 40F0DF80 		bne	.L1001
 4994              	.L922:
 4995 00be 5421     		movs	r1, #84
 4996 00c0 2846     		mov	r0, r5
 4997 00c2 FFF7FEFF 		bl	_ZN11GCodeBuffer4SeenEc
 4998 00c6 0028     		cmp	r0, #0
 4999 00c8 40F0BE80 		bne	.L1002
 5000 00cc 5221     		movs	r1, #82
 5001 00ce 2846     		mov	r0, r5
 5002 00d0 FFF7FEFF 		bl	_ZN11GCodeBuffer4SeenEc
 5003 00d4 0028     		cmp	r0, #0
 5004 00d6 49D1     		bne	.L941
 5005 00d8 002F     		cmp	r7, #0
 5006 00da 63D1     		bne	.L935
 5007 00dc D6F8C433 		ldr	r3, [r6, #964]
 5008 00e0 002C     		cmp	r4, #0
 5009 00e2 00F00681 		beq	.L1003
 5010              	.L936:
 5011 00e6 002B     		cmp	r3, #0
 5012 00e8 5CD0     		beq	.L935
 5013 00ea DFF88C82 		ldr	r8, .L1006+24
 5014 00ee 9C4D     		ldr	r5, .L1006
 5015 00f0 DFF888A2 		ldr	r10, .L1006+28
 5016 00f4 4FF0000B 		mov	fp, #0
ARM GAS  /tmp/ccghtDyP.s 			page 89


 5017 00f8 1CE0     		b	.L940
 5018              	.L1005:
 5019 00fa D6F8E833 		ldr	r3, [r6, #1000]
 5020 00fe 9948     		ldr	r0, .L1006+4
 5021 0100 9949     		ldr	r1, .L1006+8
 5022 0102 9A4A     		ldr	r2, .L1006+12
 5023 0104 23FA0BF3 		lsr	r3, r3, fp
 5024 0108 DB07     		lsls	r3, r3, #31
 5025 010a 08D4     		bmi	.L939
 5026 010c D6F8E433 		ldr	r3, [r6, #996]
 5027 0110 23FA0BF3 		lsr	r3, r3, fp
 5028 0114 13F0010F 		tst	r3, #1
 5029 0118 0CBF     		ite	eq
 5030 011a 0246     		moveq	r2, r0
 5031 011c 0A46     		movne	r2, r1
 5032              	.L939:
 5033 011e 2946     		mov	r1, r5
 5034 0120 4846     		mov	r0, r9
 5035 0122 FFF7FEFF 		bl	_ZNK9StringRef4catfEPKcz
 5036 0126 D6F8C433 		ldr	r3, [r6, #964]
 5037 012a 0127     		movs	r7, #1
 5038              	.L937:
 5039 012c 0BF1010B 		add	fp, fp, #1
 5040 0130 5B45     		cmp	r3, fp
 5041 0132 37D9     		bls	.L935
 5042              	.L940:
 5043 0134 24FA0BF2 		lsr	r2, r4, fp
 5044 0138 D107     		lsls	r1, r2, #31
 5045 013a F7D5     		bpl	.L937
 5046 013c 002F     		cmp	r7, #0
 5047 013e 62D1     		bne	.L1004
 5048              	.L938:
 5049 0140 5A46     		mov	r2, fp
 5050 0142 4146     		mov	r1, r8
 5051 0144 4846     		mov	r0, r9
 5052 0146 FFF7FEFF 		bl	_ZNK9StringRef4catfEPKcz
 5053 014a 4946     		mov	r1, r9
 5054 014c 5846     		mov	r0, fp
 5055 014e FFF7FEFF 		bl	_ZN12SmartDrivers17AppendStallConfigEjRK9StringRef
 5056 0152 D6F8EC33 		ldr	r3, [r6, #1004]
 5057 0156 23FA0BF3 		lsr	r3, r3, fp
 5058 015a DA07     		lsls	r2, r3, #31
 5059 015c CDD5     		bpl	.L1005
 5060 015e 5246     		mov	r2, r10
 5061 0160 DDE7     		b	.L939
 5062              	.L927:
 5063 0162 5221     		movs	r1, #82
 5064 0164 2846     		mov	r0, r5
 5065 0166 FFF7FEFF 		bl	_ZN11GCodeBuffer4SeenEc
 5066 016a D8B1     		cbz	r0, .L935
 5067              	.L941:
 5068 016c 2846     		mov	r0, r5
 5069 016e FFF7FEFF 		bl	_ZN11GCodeBuffer9GetIValueEv
 5070 0172 0228     		cmp	r0, #2
 5071 0174 6FEA0403 		mvn	r3, r4
 5072 0178 00F0CD80 		beq	.L932
 5073 017c 0328     		cmp	r0, #3
ARM GAS  /tmp/ccghtDyP.s 			page 90


 5074 017e 00F0BC80 		beq	.L933
 5075 0182 0128     		cmp	r0, #1
 5076 0184 00F0D880 		beq	.L934
 5077 0188 06F57970 		add	r0, r6, #996
 5078 018c 07C8     		ldm	r0, {r0, r1, r2}
 5079 018e 1840     		ands	r0, r0, r3
 5080 0190 1940     		ands	r1, r1, r3
 5081 0192 1340     		ands	r3, r3, r2
 5082 0194 C6F8E403 		str	r0, [r6, #996]
 5083 0198 C6F8E813 		str	r1, [r6, #1000]
 5084 019c C6F8EC33 		str	r3, [r6, #1004]
 5085 01a0 0027     		movs	r7, #0
 5086 01a2 00E0     		b	.L996
 5087              	.L935:
 5088 01a4 0027     		movs	r7, #0
 5089              	.L996:
 5090 01a6 3846     		mov	r0, r7
 5091 01a8 0FB0     		add	sp, sp, #60
 5092              		@ sp needed
 5093 01aa BDE8F08F 		pop	{r4, r5, r6, r7, r8, r9, r10, fp, pc}
 5094              	.L998:
 5095 01ae 0EAA     		add	r2, sp, #56
 5096 01b0 0C23     		movs	r3, #12
 5097 01b2 0DF10808 		add	r8, sp, #8
 5098 01b6 42F8343D 		str	r3, [r2, #-52]!
 5099 01ba 4146     		mov	r1, r8
 5100 01bc 0023     		movs	r3, #0
 5101 01be 2846     		mov	r0, r5
 5102 01c0 FFF7FEFF 		bl	_ZN11GCodeBuffer16GetUnsignedArrayEPmRjb
 5103 01c4 0199     		ldr	r1, [sp, #4]
 5104 01c6 0029     		cmp	r1, #0
 5105 01c8 00F0C780 		beq	.L943
 5106 01cc 029A     		ldr	r2, [sp, #8]
 5107 01ce D6F8C403 		ldr	r0, [r6, #964]
 5108 01d2 9042     		cmp	r0, r2
 5109 01d4 0FD9     		bls	.L906
 5110 01d6 0024     		movs	r4, #0
 5111 01d8 2346     		mov	r3, r4
 5112 01da 4FF0010C 		mov	ip, #1
 5113              	.L907:
 5114 01de 0133     		adds	r3, r3, #1
 5115 01e0 0CFA02F2 		lsl	r2, ip, r2
 5116 01e4 8B42     		cmp	r3, r1
 5117 01e6 44EA0204 		orr	r4, r4, r2
 5118 01ea 3FF418AF 		beq	.L904
 5119 01ee 58F82320 		ldr	r2, [r8, r3, lsl #2]
 5120 01f2 8242     		cmp	r2, r0
 5121 01f4 F3D3     		bcc	.L907
 5122              	.L906:
 5123 01f6 4846     		mov	r0, r9
 5124 01f8 5D49     		ldr	r1, .L1006+16
 5125 01fa FFF7FEFF 		bl	_ZNK9StringRef6printfEPKcz
 5126 01fe 3846     		mov	r0, r7
 5127 0200 0FB0     		add	sp, sp, #60
 5128              		@ sp needed
 5129 0202 BDE8F08F 		pop	{r4, r5, r6, r7, r8, r9, r10, fp, pc}
 5130              	.L1004:
ARM GAS  /tmp/ccghtDyP.s 			page 91


 5131 0206 0A21     		movs	r1, #10
 5132 0208 4846     		mov	r0, r9
 5133 020a FFF7FEFF 		bl	_ZNK9StringRef3catEc
 5134 020e 97E7     		b	.L938
 5135              	.L999:
 5136 0210 2846     		mov	r0, r5
 5137 0212 FFF7FEFF 		bl	_ZN11GCodeBuffer9GetIValueEv
 5138 0216 D6F8C433 		ldr	r3, [r6, #964]
 5139 021a 8246     		mov	r10, r0
 5140 021c 002B     		cmp	r3, #0
 5141 021e 3FF43EAF 		beq	.L914
 5142 0222 4FF00008 		mov	r8, #0
 5143 0226 04E0     		b	.L915
 5144              	.L916:
 5145 0228 08F10108 		add	r8, r8, #1
 5146 022c 4345     		cmp	r3, r8
 5147 022e 7FF636AF 		bls	.L914
 5148              	.L915:
 5149 0232 24FA08F2 		lsr	r2, r4, r8
 5150 0236 D007     		lsls	r0, r2, #31
 5151 0238 F6D5     		bpl	.L916
 5152 023a 5146     		mov	r1, r10
 5153 023c 4046     		mov	r0, r8
 5154 023e FFF7FEFF 		bl	_ZN12SmartDrivers17SetStallThresholdEji
 5155 0242 D6F8C433 		ldr	r3, [r6, #964]
 5156 0246 EFE7     		b	.L916
 5157              	.L1002:
 5158 0248 2846     		mov	r0, r5
 5159 024a FFF7FEFF 		bl	_ZN11GCodeBuffer10GetUIValueEv
 5160 024e D6F8C433 		ldr	r3, [r6, #964]
 5161 0252 1FFA80F8 		uxth	r8, r0
 5162 0256 002B     		cmp	r3, #0
 5163 0258 83D0     		beq	.L927
 5164 025a 0027     		movs	r7, #0
 5165 025c 03E0     		b	.L929
 5166              	.L928:
 5167 025e 0137     		adds	r7, r7, #1
 5168 0260 BB42     		cmp	r3, r7
 5169 0262 7FF67EAF 		bls	.L927
 5170              	.L929:
 5171 0266 24FA07F2 		lsr	r2, r4, r7
 5172 026a D007     		lsls	r0, r2, #31
 5173 026c F7D5     		bpl	.L928
 5174 026e 4146     		mov	r1, r8
 5175 0270 3846     		mov	r0, r7
 5176 0272 FFF7FEFF 		bl	_ZN12SmartDrivers11SetCoolStepEjt
 5177 0276 D6F8C433 		ldr	r3, [r6, #964]
 5178 027a F0E7     		b	.L928
 5179              	.L1001:
 5180 027c 2846     		mov	r0, r5
 5181 027e FFF7FEFF 		bl	_ZN11GCodeBuffer10GetUIValueEv
 5182 0282 D6F8C433 		ldr	r3, [r6, #964]
 5183 0286 8046     		mov	r8, r0
 5184 0288 8BB1     		cbz	r3, .L925
 5185 028a 0027     		movs	r7, #0
 5186 028c 02E0     		b	.L923
 5187              	.L924:
ARM GAS  /tmp/ccghtDyP.s 			page 92


 5188 028e 0137     		adds	r7, r7, #1
 5189 0290 BB42     		cmp	r3, r7
 5190 0292 0CD9     		bls	.L925
 5191              	.L923:
 5192 0294 24FA07F2 		lsr	r2, r4, r7
 5193 0298 D207     		lsls	r2, r2, #31
 5194 029a F8D5     		bpl	.L924
 5195 029c 3846     		mov	r0, r7
 5196 029e 4146     		mov	r1, r8
 5197 02a0 FFF7FEFF 		bl	_ZN12SmartDrivers29SetStallMinimumStepsPerSecondEjj
 5198 02a4 D6F8C433 		ldr	r3, [r6, #964]
 5199 02a8 0137     		adds	r7, r7, #1
 5200 02aa BB42     		cmp	r3, r7
 5201 02ac F2D8     		bhi	.L923
 5202              	.L925:
 5203 02ae 5746     		mov	r7, r10
 5204 02b0 05E7     		b	.L922
 5205              	.L1000:
 5206 02b2 2846     		mov	r0, r5
 5207 02b4 FFF7FEFF 		bl	_ZN11GCodeBuffer9GetIValueEv
 5208 02b8 D6F8C433 		ldr	r3, [r6, #964]
 5209 02bc A0F10108 		sub	r8, r0, #1
 5210 02c0 B8FA88F8 		clz	r8, r8
 5211 02c4 4FEA5818 		lsr	r8, r8, #5
 5212 02c8 8BB1     		cbz	r3, .L921
 5213 02ca 0027     		movs	r7, #0
 5214 02cc 02E0     		b	.L919
 5215              	.L920:
 5216 02ce 0137     		adds	r7, r7, #1
 5217 02d0 BB42     		cmp	r3, r7
 5218 02d2 0CD9     		bls	.L921
 5219              	.L919:
 5220 02d4 24FA07F2 		lsr	r2, r4, r7
 5221 02d8 D107     		lsls	r1, r2, #31
 5222 02da F8D5     		bpl	.L920
 5223 02dc 3846     		mov	r0, r7
 5224 02de 4146     		mov	r1, r8
 5225 02e0 FFF7FEFF 		bl	_ZN12SmartDrivers14SetStallFilterEjb
 5226 02e4 D6F8C433 		ldr	r3, [r6, #964]
 5227 02e8 0137     		adds	r7, r7, #1
 5228 02ea BB42     		cmp	r3, r7
 5229 02ec F2D8     		bhi	.L919
 5230              	.L921:
 5231 02ee 5746     		mov	r7, r10
 5232 02f0 DDE6     		b	.L918
 5233              	.L1003:
 5234 02f2 0124     		movs	r4, #1
 5235 02f4 9C40     		lsls	r4, r4, r3
 5236 02f6 013C     		subs	r4, r4, #1
 5237 02f8 F5E6     		b	.L936
 5238              	.L933:
 5239 02fa 06F57970 		add	r0, r6, #996
 5240 02fe 07C8     		ldm	r0, {r0, r1, r2}
 5241 0300 1840     		ands	r0, r0, r3
 5242 0302 2243     		orrs	r2, r2, r4
 5243 0304 0B40     		ands	r3, r3, r1
 5244 0306 C6F8E403 		str	r0, [r6, #996]
ARM GAS  /tmp/ccghtDyP.s 			page 93


 5245 030a C6F8E833 		str	r3, [r6, #1000]
 5246 030e C6F8EC23 		str	r2, [r6, #1004]
 5247 0312 0027     		movs	r7, #0
 5248 0314 47E7     		b	.L996
 5249              	.L932:
 5250 0316 D6F8E403 		ldr	r0, [r6, #996]
 5251 031a D6F8EC13 		ldr	r1, [r6, #1004]
 5252 031e D6F8E823 		ldr	r2, [r6, #1000]
 5253 0322 1840     		ands	r0, r0, r3
 5254 0324 2243     		orrs	r2, r2, r4
 5255 0326 0B40     		ands	r3, r3, r1
 5256 0328 C6F8E403 		str	r0, [r6, #996]
 5257 032c C6F8EC33 		str	r3, [r6, #1004]
 5258 0330 C6F8E823 		str	r2, [r6, #1000]
 5259 0334 0027     		movs	r7, #0
 5260 0336 36E7     		b	.L996
 5261              	.L934:
 5262 0338 D6F8EC03 		ldr	r0, [r6, #1004]
 5263 033c D6F8E813 		ldr	r1, [r6, #1000]
 5264 0340 D6F8E423 		ldr	r2, [r6, #996]
 5265 0344 1840     		ands	r0, r0, r3
 5266 0346 2243     		orrs	r2, r2, r4
 5267 0348 0B40     		ands	r3, r3, r1
 5268 034a C6F8EC03 		str	r0, [r6, #1004]
 5269 034e C6F8E833 		str	r3, [r6, #1000]
 5270 0352 C6F8E423 		str	r2, [r6, #996]
 5271 0356 0027     		movs	r7, #0
 5272 0358 25E7     		b	.L996
 5273              	.L943:
 5274 035a 0C46     		mov	r4, r1
 5275 035c 5FE6     		b	.L904
 5276              	.L1007:
 5277 035e 00BF     		.align	2
 5278              	.L1006:
 5279 0360 44000000 		.word	.LC30
 5280 0364 08000000 		.word	.LC25
 5281 0368 18000000 		.word	.LC27
 5282 036c 10000000 		.word	.LC26
 5283 0370 1C000000 		.word	.LC28
 5284 0374 00000000 		.word	reprap
 5285 0378 38000000 		.word	.LC29
 5286 037c 00000000 		.word	.LC24
 5287              		.size	_ZN8Platform23ConfigureStallDetectionER11GCodeBufferRK9StringRef, .-_ZN8Platform23ConfigureS
 5288              		.section	.text._ZNK8Platform13IsDateTimeSetEv,"ax",%progbits
 5289              		.align	1
 5290              		.p2align 2,,3
 5291              		.global	_ZNK8Platform13IsDateTimeSetEv
 5292              		.syntax unified
 5293              		.thumb
 5294              		.thumb_func
 5295              		.fpu fpv4-sp-d16
 5296              		.type	_ZNK8Platform13IsDateTimeSetEv, %function
 5297              	_ZNK8Platform13IsDateTimeSetEv:
 5298              		@ args = 0, pretend = 0, frame = 0
 5299              		@ frame_needed = 0, uses_anonymous_args = 0
 5300              		@ link register save eliminated.
 5301 0000 D0F8F829 		ldr	r2, [r0, #2552]
ARM GAS  /tmp/ccghtDyP.s 			page 94


 5302 0004 D0F8FC39 		ldr	r3, [r0, #2556]
 5303 0008 1343     		orrs	r3, r2, r3
 5304 000a 14BF     		ite	ne
 5305 000c 0120     		movne	r0, #1
 5306 000e 0020     		moveq	r0, #0
 5307 0010 7047     		bx	lr
 5308              		.size	_ZNK8Platform13IsDateTimeSetEv, .-_ZNK8Platform13IsDateTimeSetEv
 5309 0012 00BF     		.section	.text._ZNK8Platform11GetDateTimeEv,"ax",%progbits
 5310              		.align	1
 5311              		.p2align 2,,3
 5312              		.global	_ZNK8Platform11GetDateTimeEv
 5313              		.syntax unified
 5314              		.thumb
 5315              		.thumb_func
 5316              		.fpu fpv4-sp-d16
 5317              		.type	_ZNK8Platform11GetDateTimeEv, %function
 5318              	_ZNK8Platform11GetDateTimeEv:
 5319              		@ args = 0, pretend = 0, frame = 0
 5320              		@ frame_needed = 0, uses_anonymous_args = 0
 5321              		@ link register save eliminated.
 5322 0000 00F6F810 		addw	r0, r0, #2552
 5323 0004 D0E90001 		ldrd	r0, [r0]
 5324 0008 7047     		bx	lr
 5325              		.size	_ZNK8Platform11GetDateTimeEv, .-_ZNK8Platform11GetDateTimeEv
 5326 000a 00BF     		.section	.text._ZN8Platform7InitI2cEv,"ax",%progbits
 5327              		.align	1
 5328              		.p2align 2,,3
 5329              		.global	_ZN8Platform7InitI2cEv
 5330              		.syntax unified
 5331              		.thumb
 5332              		.thumb_func
 5333              		.fpu fpv4-sp-d16
 5334              		.type	_ZN8Platform7InitI2cEv, %function
 5335              	_ZN8Platform7InitI2cEv:
 5336              		@ args = 0, pretend = 0, frame = 0
 5337              		@ frame_needed = 0, uses_anonymous_args = 0
 5338 0000 90F81E3B 		ldrb	r3, [r0, #2846]	@ zero_extendqisi2
 5339 0004 03B1     		cbz	r3, .L1016
 5340 0006 7047     		bx	lr
 5341              	.L1016:
 5342 0008 10B5     		push	{r4, lr}
 5343 000a 0446     		mov	r4, r0
 5344 000c 0348     		ldr	r0, .L1017
 5345 000e FFF7FEFF 		bl	_ZN7TwoWire5beginEv
 5346 0012 0123     		movs	r3, #1
 5347 0014 84F81E3B 		strb	r3, [r4, #2846]
 5348 0018 10BD     		pop	{r4, pc}
 5349              	.L1018:
 5350 001a 00BF     		.align	2
 5351              	.L1017:
 5352 001c 00000000 		.word	Wire
 5353              		.size	_ZN8Platform7InitI2cEv, .-_ZN8Platform7InitI2cEv
 5354              		.section	.text._ZN8Platform6RandomEv,"ax",%progbits
 5355              		.align	1
 5356              		.p2align 2,,3
 5357              		.global	_ZN8Platform6RandomEv
 5358              		.syntax unified
ARM GAS  /tmp/ccghtDyP.s 			page 95


 5359              		.thumb
 5360              		.thumb_func
 5361              		.fpu fpv4-sp-d16
 5362              		.type	_ZN8Platform6RandomEv, %function
 5363              	_ZN8Platform6RandomEv:
 5364              		@ args = 0, pretend = 0, frame = 0
 5365              		@ frame_needed = 0, uses_anonymous_args = 0
 5366              		@ link register save eliminated.
 5367 0000 10B4     		push	{r4}
 5368 0002 074A     		ldr	r2, .L1021
 5369 0004 D0E92A34 		ldrd	r3, r4, [r0, #168]
 5370 0008 D2F89010 		ldr	r1, [r2, #144]
 5371 000c D0E92C20 		ldrd	r2, r0, [r0, #176]
 5372 0010 6340     		eors	r3, r3, r4
 5373 0012 4B40     		eors	r3, r3, r1
 5374 0014 5340     		eors	r3, r3, r2
 5375 0016 5840     		eors	r0, r0, r3
 5376 0018 5DF8044B 		ldr	r4, [sp], #4
 5377 001c 7047     		bx	lr
 5378              	.L1022:
 5379 001e 00BF     		.align	2
 5380              	.L1021:
 5381 0020 00000940 		.word	1074331648
 5382              		.size	_ZN8Platform6RandomEv, .-_ZN8Platform6RandomEv
 5383              		.section	.text.hot.TC2_Handler,"ax",%progbits
 5384              		.align	1
 5385              		.p2align 2,,3
 5386              		.global	TC2_Handler
 5387              		.syntax unified
 5388              		.thumb
 5389              		.thumb_func
 5390              		.fpu fpv4-sp-d16
 5391              		.type	TC2_Handler, %function
 5392              	TC2_Handler:
 5393              		@ args = 0, pretend = 0, frame = 0
 5394              		@ frame_needed = 0, uses_anonymous_args = 0
 5395 0000 38B5     		push	{r3, r4, r5, lr}
 5396 0002 0F4B     		ldr	r3, .L1036
 5397 0004 D3F8A040 		ldr	r4, [r3, #160]
 5398 0008 D3F8AC20 		ldr	r2, [r3, #172]
 5399 000c 1440     		ands	r4, r4, r2
 5400 000e 6207     		lsls	r2, r4, #29
 5401 0010 0BD5     		bpl	.L1024
 5402 0012 0C49     		ldr	r1, .L1036+4
 5403 0014 0422     		movs	r2, #4
 5404 0016 8D68     		ldr	r5, [r1, #8]
 5405 0018 C3F8A820 		str	r2, [r3, #168]
 5406 001c 2B68     		ldr	r3, [r5]
 5407 001e 23B1     		cbz	r3, .L1024
 5408              	.L1025:
 5409 0020 2868     		ldr	r0, [r5]
 5410 0022 FFF7FEFF 		bl	_ZN3DDA4StepEv
 5411 0026 0028     		cmp	r0, #0
 5412 0028 FAD1     		bne	.L1025
 5413              	.L1024:
 5414 002a 2307     		lsls	r3, r4, #28
 5415 002c 00D4     		bmi	.L1035
ARM GAS  /tmp/ccghtDyP.s 			page 96


 5416 002e 38BD     		pop	{r3, r4, r5, pc}
 5417              	.L1035:
 5418 0030 034B     		ldr	r3, .L1036
 5419 0032 0822     		movs	r2, #8
 5420 0034 C3F8A820 		str	r2, [r3, #168]
 5421 0038 BDE83840 		pop	{r3, r4, r5, lr}
 5422 003c FFF7FEBF 		b	_ZN9SoftTimer9InterruptEv
 5423              	.L1037:
 5424              		.align	2
 5425              	.L1036:
 5426 0040 00000940 		.word	1074331648
 5427 0044 00000000 		.word	reprap
 5428              		.size	TC2_Handler, .-TC2_Handler
 5429              		.section	.text.hot._ZN8Platform21ScheduleStepInterruptEm,"ax",%progbits
 5430              		.align	1
 5431              		.p2align 2,,3
 5432              		.global	_ZN8Platform21ScheduleStepInterruptEm
 5433              		.syntax unified
 5434              		.thumb
 5435              		.thumb_func
 5436              		.fpu fpv4-sp-d16
 5437              		.type	_ZN8Platform21ScheduleStepInterruptEm, %function
 5438              	_ZN8Platform21ScheduleStepInterruptEm:
 5439              		@ args = 0, pretend = 0, frame = 0
 5440              		@ frame_needed = 0, uses_anonymous_args = 0
 5441              		@ link register save eliminated.
 5442 0000 30B4     		push	{r4, r5}
 5443              		.syntax unified
 5444              	@ 470 "/home/torbjorn/eclipse-workspace/CoreNG/asf/thirdparty/CMSIS/Include/core_cmFunc.h" 1
 5445 0002 EFF31085 		MRS r5, primask
 5446              	@ 0 "" 2
 5447              	@ 330 "/home/torbjorn/eclipse-workspace/CoreNG/asf/thirdparty/CMSIS/Include/core_cmFunc.h" 1
 5448 0006 72B6     		cpsid i
 5449              	@ 0 "" 2
 5450              	@ 456 "/home/torbjorn/eclipse-workspace/CoreNG/asf/thirdparty/CMSIS/Include/core_cmInstr.h" 1
 5451 0008 BFF35F8F 		dmb
 5452              	@ 0 "" 2
 5453              		.thumb
 5454              		.syntax unified
 5455 000c 114C     		ldr	r4, .L1046
 5456 000e 1249     		ldr	r1, .L1046+4
 5457 0010 0023     		movs	r3, #0
 5458 0012 2370     		strb	r3, [r4]
 5459 0014 D1F89020 		ldr	r2, [r1, #144]
 5460 0018 821A     		subs	r2, r0, r2
 5461 001a 052A     		cmp	r2, #5
 5462 001c 03DC     		bgt	.L1039
 5463 001e 0120     		movs	r0, #1
 5464 0020 95B1     		cbz	r5, .L1044
 5465 0022 30BC     		pop	{r4, r5}
 5466 0024 7047     		bx	lr
 5467              	.L1039:
 5468 0026 0422     		movs	r2, #4
 5469 0028 C1F89400 		str	r0, [r1, #148]
 5470 002c C1F8A420 		str	r2, [r1, #164]
 5471 0030 15B1     		cbz	r5, .L1045
 5472 0032 1846     		mov	r0, r3
ARM GAS  /tmp/ccghtDyP.s 			page 97


 5473 0034 30BC     		pop	{r4, r5}
 5474 0036 7047     		bx	lr
 5475              	.L1045:
 5476 0038 0123     		movs	r3, #1
 5477 003a 2370     		strb	r3, [r4]
 5478              		.syntax unified
 5479              	@ 456 "/home/torbjorn/eclipse-workspace/CoreNG/asf/thirdparty/CMSIS/Include/core_cmInstr.h" 1
 5480 003c BFF35F8F 		dmb
 5481              	@ 0 "" 2
 5482              	@ 319 "/home/torbjorn/eclipse-workspace/CoreNG/asf/thirdparty/CMSIS/Include/core_cmFunc.h" 1
 5483 0040 62B6     		cpsie i
 5484              	@ 0 "" 2
 5485              		.thumb
 5486              		.syntax unified
 5487 0042 2846     		mov	r0, r5
 5488 0044 30BC     		pop	{r4, r5}
 5489 0046 7047     		bx	lr
 5490              	.L1044:
 5491 0048 2070     		strb	r0, [r4]
 5492              		.syntax unified
 5493              	@ 456 "/home/torbjorn/eclipse-workspace/CoreNG/asf/thirdparty/CMSIS/Include/core_cmInstr.h" 1
 5494 004a BFF35F8F 		dmb
 5495              	@ 0 "" 2
 5496              	@ 319 "/home/torbjorn/eclipse-workspace/CoreNG/asf/thirdparty/CMSIS/Include/core_cmFunc.h" 1
 5497 004e 62B6     		cpsie i
 5498              	@ 0 "" 2
 5499              		.thumb
 5500              		.syntax unified
 5501 0050 30BC     		pop	{r4, r5}
 5502 0052 7047     		bx	lr
 5503              	.L1047:
 5504              		.align	2
 5505              	.L1046:
 5506 0054 00000000 		.word	g_interrupt_enabled
 5507 0058 00000940 		.word	1074331648
 5508              		.size	_ZN8Platform21ScheduleStepInterruptEm, .-_ZN8Platform21ScheduleStepInterruptEm
 5509              		.section	.text._ZN8Platform20DisableStepInterruptEv,"ax",%progbits
 5510              		.align	1
 5511              		.p2align 2,,3
 5512              		.global	_ZN8Platform20DisableStepInterruptEv
 5513              		.syntax unified
 5514              		.thumb
 5515              		.thumb_func
 5516              		.fpu fpv4-sp-d16
 5517              		.type	_ZN8Platform20DisableStepInterruptEv, %function
 5518              	_ZN8Platform20DisableStepInterruptEv:
 5519              		@ args = 0, pretend = 0, frame = 0
 5520              		@ frame_needed = 0, uses_anonymous_args = 0
 5521              		@ link register save eliminated.
 5522 0000 024B     		ldr	r3, .L1049
 5523 0002 0422     		movs	r2, #4
 5524 0004 C3F8A820 		str	r2, [r3, #168]
 5525 0008 7047     		bx	lr
 5526              	.L1050:
 5527 000a 00BF     		.align	2
 5528              	.L1049:
 5529 000c 00000940 		.word	1074331648
ARM GAS  /tmp/ccghtDyP.s 			page 98


 5530              		.size	_ZN8Platform20DisableStepInterruptEv, .-_ZN8Platform20DisableStepInterruptEv
 5531              		.section	.text._ZN8Platform26ScheduleSoftTimerInterruptEm,"ax",%progbits
 5532              		.align	1
 5533              		.p2align 2,,3
 5534              		.global	_ZN8Platform26ScheduleSoftTimerInterruptEm
 5535              		.syntax unified
 5536              		.thumb
 5537              		.thumb_func
 5538              		.fpu fpv4-sp-d16
 5539              		.type	_ZN8Platform26ScheduleSoftTimerInterruptEm, %function
 5540              	_ZN8Platform26ScheduleSoftTimerInterruptEm:
 5541              		@ args = 0, pretend = 0, frame = 0
 5542              		@ frame_needed = 0, uses_anonymous_args = 0
 5543              		@ link register save eliminated.
 5544 0000 30B4     		push	{r4, r5}
 5545              		.syntax unified
 5546              	@ 470 "/home/torbjorn/eclipse-workspace/CoreNG/asf/thirdparty/CMSIS/Include/core_cmFunc.h" 1
 5547 0002 EFF31085 		MRS r5, primask
 5548              	@ 0 "" 2
 5549              	@ 330 "/home/torbjorn/eclipse-workspace/CoreNG/asf/thirdparty/CMSIS/Include/core_cmFunc.h" 1
 5550 0006 72B6     		cpsid i
 5551              	@ 0 "" 2
 5552              	@ 456 "/home/torbjorn/eclipse-workspace/CoreNG/asf/thirdparty/CMSIS/Include/core_cmInstr.h" 1
 5553 0008 BFF35F8F 		dmb
 5554              	@ 0 "" 2
 5555              		.thumb
 5556              		.syntax unified
 5557 000c 114C     		ldr	r4, .L1059
 5558 000e 1249     		ldr	r1, .L1059+4
 5559 0010 0023     		movs	r3, #0
 5560 0012 2370     		strb	r3, [r4]
 5561 0014 D1F89020 		ldr	r2, [r1, #144]
 5562 0018 821A     		subs	r2, r0, r2
 5563 001a 052A     		cmp	r2, #5
 5564 001c 03DC     		bgt	.L1052
 5565 001e 0120     		movs	r0, #1
 5566 0020 95B1     		cbz	r5, .L1057
 5567 0022 30BC     		pop	{r4, r5}
 5568 0024 7047     		bx	lr
 5569              	.L1052:
 5570 0026 0822     		movs	r2, #8
 5571 0028 C1F89800 		str	r0, [r1, #152]
 5572 002c C1F8A420 		str	r2, [r1, #164]
 5573 0030 15B1     		cbz	r5, .L1058
 5574 0032 1846     		mov	r0, r3
 5575 0034 30BC     		pop	{r4, r5}
 5576 0036 7047     		bx	lr
 5577              	.L1058:
 5578 0038 0123     		movs	r3, #1
 5579 003a 2370     		strb	r3, [r4]
 5580              		.syntax unified
 5581              	@ 456 "/home/torbjorn/eclipse-workspace/CoreNG/asf/thirdparty/CMSIS/Include/core_cmInstr.h" 1
 5582 003c BFF35F8F 		dmb
 5583              	@ 0 "" 2
 5584              	@ 319 "/home/torbjorn/eclipse-workspace/CoreNG/asf/thirdparty/CMSIS/Include/core_cmFunc.h" 1
 5585 0040 62B6     		cpsie i
 5586              	@ 0 "" 2
ARM GAS  /tmp/ccghtDyP.s 			page 99


 5587              		.thumb
 5588              		.syntax unified
 5589 0042 2846     		mov	r0, r5
 5590 0044 30BC     		pop	{r4, r5}
 5591 0046 7047     		bx	lr
 5592              	.L1057:
 5593 0048 2070     		strb	r0, [r4]
 5594              		.syntax unified
 5595              	@ 456 "/home/torbjorn/eclipse-workspace/CoreNG/asf/thirdparty/CMSIS/Include/core_cmInstr.h" 1
 5596 004a BFF35F8F 		dmb
 5597              	@ 0 "" 2
 5598              	@ 319 "/home/torbjorn/eclipse-workspace/CoreNG/asf/thirdparty/CMSIS/Include/core_cmFunc.h" 1
 5599 004e 62B6     		cpsie i
 5600              	@ 0 "" 2
 5601              		.thumb
 5602              		.syntax unified
 5603 0050 30BC     		pop	{r4, r5}
 5604 0052 7047     		bx	lr
 5605              	.L1060:
 5606              		.align	2
 5607              	.L1059:
 5608 0054 00000000 		.word	g_interrupt_enabled
 5609 0058 00000940 		.word	1074331648
 5610              		.size	_ZN8Platform26ScheduleSoftTimerInterruptEm, .-_ZN8Platform26ScheduleSoftTimerInterruptEm
 5611              		.section	.text._ZN8Platform25DisableSoftTimerInterruptEv,"ax",%progbits
 5612              		.align	1
 5613              		.p2align 2,,3
 5614              		.global	_ZN8Platform25DisableSoftTimerInterruptEv
 5615              		.syntax unified
 5616              		.thumb
 5617              		.thumb_func
 5618              		.fpu fpv4-sp-d16
 5619              		.type	_ZN8Platform25DisableSoftTimerInterruptEv, %function
 5620              	_ZN8Platform25DisableSoftTimerInterruptEv:
 5621              		@ args = 0, pretend = 0, frame = 0
 5622              		@ frame_needed = 0, uses_anonymous_args = 0
 5623              		@ link register save eliminated.
 5624 0000 024B     		ldr	r3, .L1062
 5625 0002 0822     		movs	r2, #8
 5626 0004 C3F8A820 		str	r2, [r3, #168]
 5627 0008 7047     		bx	lr
 5628              	.L1063:
 5629 000a 00BF     		.align	2
 5630              	.L1062:
 5631 000c 00000940 		.word	1074331648
 5632              		.size	_ZN8Platform25DisableSoftTimerInterruptEv, .-_ZN8Platform25DisableSoftTimerInterruptEv
 5633              		.section	.text.hot._ZN8Platform4TickEv,"ax",%progbits
 5634              		.align	1
 5635              		.p2align 2,,3
 5636              		.global	_ZN8Platform4TickEv
 5637              		.syntax unified
 5638              		.thumb
 5639              		.thumb_func
 5640              		.fpu fpv4-sp-d16
 5641              		.type	_ZN8Platform4TickEv, %function
 5642              	_ZN8Platform4TickEv:
 5643              		@ args = 0, pretend = 0, frame = 0
ARM GAS  /tmp/ccghtDyP.s 			page 100


 5644              		@ frame_needed = 0, uses_anonymous_args = 0
 5645 0000 F8B5     		push	{r3, r4, r5, r6, r7, lr}
 5646 0002 0446     		mov	r4, r0
 5647 0004 BE48     		ldr	r0, .L1150
 5648 0006 FFF7FEFF 		bl	rswdt_restart
 5649 000a 94F8C239 		ldrb	r3, [r4, #2498]	@ zero_extendqisi2
 5650 000e 6BB9     		cbnz	r3, .L1065
 5651              	.L1070:
 5652 0010 94F89430 		ldrb	r3, [r4, #148]	@ zero_extendqisi2
 5653              	.L1066:
 5654 0014 022B     		cmp	r3, #2
 5655 0016 00F0D480 		beq	.L1146
 5656              	.L1125:
 5657 001a 0123     		movs	r3, #1
 5658 001c 84F8C239 		strb	r3, [r4, #2498]
 5659 0020 4FF0FF30 		mov	r0, #-1
 5660 0024 BDE8F840 		pop	{r3, r4, r5, r6, r7, lr}
 5661 0028 FFF7FEBF 		b	_Z23AnalogInStartConversionm
 5662              	.L1065:
 5663 002c 94F9D409 		ldrsb	r0, [r4, #2516]
 5664 0030 FFF7FEFF 		bl	_Z19AnalogInReadChannel19AnalogChannelNumber
 5665 0034 A4F8D609 		strh	r0, [r4, #2518]	@ movhi
 5666 0038 B4F8D639 		ldrh	r3, [r4, #2518]
 5667 003c B4F8D829 		ldrh	r2, [r4, #2520]
 5668 0040 9A42     		cmp	r2, r3
 5669 0042 04D2     		bcs	.L1067
 5670 0044 B4F8D639 		ldrh	r3, [r4, #2518]
 5671 0048 9BB2     		uxth	r3, r3
 5672 004a A4F8D839 		strh	r3, [r4, #2520]	@ movhi
 5673              	.L1067:
 5674 004e B4F8D639 		ldrh	r3, [r4, #2518]
 5675 0052 B4F8DA29 		ldrh	r2, [r4, #2522]
 5676 0056 9A42     		cmp	r2, r3
 5677 0058 04D9     		bls	.L1068
 5678 005a B4F8D639 		ldrh	r3, [r4, #2518]
 5679 005e 9BB2     		uxth	r3, r3
 5680 0060 A4F8DA39 		strh	r3, [r4, #2522]	@ movhi
 5681              	.L1068:
 5682 0064 94F8D933 		ldrb	r3, [r4, #985]	@ zero_extendqisi2
 5683 0068 3BB1     		cbz	r3, .L1069
 5684 006a B4F8D639 		ldrh	r3, [r4, #2518]
 5685 006e 40F6C842 		movw	r2, #3272
 5686 0072 9A42     		cmp	r2, r3
 5687 0074 01D2     		bcs	.L1069
 5688 0076 FFF7FEFF 		bl	_ZN12SmartDrivers14TurnDriversOffEv
 5689              	.L1069:
 5690 007a 94F8C239 		ldrb	r3, [r4, #2498]	@ zero_extendqisi2
 5691 007e 013B     		subs	r3, r3, #1
 5692 0080 032B     		cmp	r3, #3
 5693 0082 C5D8     		bhi	.L1070
 5694 0084 DFE803F0 		tbb	[pc, r3]
 5695              	.L1072:
 5696 0088 24       		.byte	(.L1071-.L1072)/2
 5697 0089 13       		.byte	(.L1073-.L1072)/2
 5698 008a 24       		.byte	(.L1071-.L1072)/2
 5699 008b 02       		.byte	(.L1074-.L1072)/2
 5700              		.p2align 1
ARM GAS  /tmp/ccghtDyP.s 			page 101


 5701              	.L1074:
 5702 008c 94F89430 		ldrb	r3, [r4, #148]	@ zero_extendqisi2
 5703 0090 5A1E     		subs	r2, r3, #1
 5704 0092 082A     		cmp	r2, #8
 5705 0094 00F28B81 		bhi	.L1129
 5706 0098 DFE812F0 		tbh	[pc, r2, lsl #1]
 5707              	.L1114:
 5708 009c 1801     		.2byte	(.L1113-.L1114)/2
 5709 009e 1801     		.2byte	(.L1113-.L1114)/2
 5710 00a0 1801     		.2byte	(.L1113-.L1114)/2
 5711 00a2 2301     		.2byte	(.L1115-.L1114)/2
 5712 00a4 CC00     		.2byte	(.L1116-.L1114)/2
 5713 00a6 E900     		.2byte	(.L1117-.L1114)/2
 5714 00a8 F500     		.2byte	(.L1118-.L1114)/2
 5715 00aa CC00     		.2byte	(.L1116-.L1114)/2
 5716 00ac CC00     		.2byte	(.L1116-.L1114)/2
 5717              		.p2align 1
 5718              	.L1073:
 5719 00ae 94F89450 		ldrb	r5, [r4, #148]	@ zero_extendqisi2
 5720 00b2 6B1E     		subs	r3, r5, #1
 5721 00b4 082B     		cmp	r3, #8
 5722 00b6 00F27681 		bhi	.L1128
 5723 00ba DFE813F0 		tbh	[pc, r3, lsl #1]
 5724              	.L1099:
 5725 00be 5500     		.2byte	(.L1098-.L1099)/2
 5726 00c0 5500     		.2byte	(.L1098-.L1099)/2
 5727 00c2 5500     		.2byte	(.L1098-.L1099)/2
 5728 00c4 EB00     		.2byte	(.L1100-.L1099)/2
 5729 00c6 1901     		.2byte	(.L1101-.L1099)/2
 5730 00c8 F400     		.2byte	(.L1102-.L1099)/2
 5731 00ca 0001     		.2byte	(.L1103-.L1099)/2
 5732 00cc 1901     		.2byte	(.L1101-.L1099)/2
 5733 00ce 1901     		.2byte	(.L1101-.L1099)/2
 5734              		.p2align 1
 5735              	.L1071:
 5736 00d0 D4F8C459 		ldr	r5, [r4, #2500]
 5737 00d4 6319     		adds	r3, r4, r5
 5738 00d6 2626     		movs	r6, #38
 5739 00d8 93F9B809 		ldrsb	r0, [r3, #2488]
 5740 00dc FFF7FEFF 		bl	_Z19AnalogInReadChannel19AnalogChannelNumber
 5741 00e0 4C23     		movs	r3, #76
 5742 00e2 03FB0543 		mla	r3, r3, r5, r4
 5743 00e6 D3F8AC14 		ldr	r1, [r3, #1196]
 5744 00ea D3F8A824 		ldr	r2, [r3, #1192]
 5745 00ee 06FB0525 		mla	r5, r6, r5, r2
 5746 00f2 04EB4505 		add	r5, r4, r5, lsl #1
 5747 00f6 0132     		adds	r2, r2, #1
 5748 00f8 B5F86864 		ldrh	r6, [r5, #1128]
 5749 00fc 891B     		subs	r1, r1, r6
 5750 00fe 0144     		add	r1, r1, r0
 5751 0100 202A     		cmp	r2, #32
 5752 0102 C3F8AC14 		str	r1, [r3, #1196]
 5753 0106 A5F86804 		strh	r0, [r5, #1128]	@ movhi
 5754 010a C3F8A824 		str	r2, [r3, #1192]
 5755 010e 5ED0     		beq	.L1147
 5756              	.L1075:
 5757 0110 D4F8C419 		ldr	r1, [r4, #2500]
ARM GAS  /tmp/ccghtDyP.s 			page 102


 5758 0114 D4F8D027 		ldr	r2, [r4, #2000]
 5759 0118 0123     		movs	r3, #1
 5760 011a 8B40     		lsls	r3, r3, r1
 5761 011c 1342     		tst	r3, r2
 5762 011e 5DD1     		bne	.L1148
 5763              	.L1076:
 5764 0120 0131     		adds	r1, r1, #1
 5765 0122 0929     		cmp	r1, #9
 5766 0124 94F89420 		ldrb	r2, [r4, #148]	@ zero_extendqisi2
 5767 0128 12BF     		itee	ne
 5768 012a C4F8C419 		strne	r1, [r4, #2500]
 5769 012e 0023     		moveq	r3, #0
 5770 0130 C4F8C439 		streq	r3, [r4, #2500]
 5771 0134 022A     		cmp	r2, #2
 5772 0136 94F8C239 		ldrb	r3, [r4, #2498]	@ zero_extendqisi2
 5773 013a 39D0     		beq	.L1082
 5774 013c 012B     		cmp	r3, #1
 5775 013e 02F1FF32 		add	r2, r2, #-1
 5776 0142 0CBF     		ite	eq
 5777 0144 04F58665 		addeq	r5, r4, #1072
 5778 0148 04F24C45 		addwne	r5, r4, #1100
 5779 014c 082A     		cmp	r2, #8
 5780 014e 00F2FB80 		bhi	.L1127
 5781 0152 DFE812F0 		tbh	[pc, r2, lsl #1]
 5782              	.L1087:
 5783 0156 0B01     		.2byte	(.L1086-.L1087)/2
 5784 0158 0B01     		.2byte	(.L1086-.L1087)/2
 5785 015a 0B01     		.2byte	(.L1086-.L1087)/2
 5786 015c 0401     		.2byte	(.L1088-.L1087)/2
 5787 015e FD00     		.2byte	(.L1089-.L1087)/2
 5788 0160 F300     		.2byte	(.L1090-.L1087)/2
 5789 0162 D900     		.2byte	(.L1091-.L1087)/2
 5790 0164 FD00     		.2byte	(.L1089-.L1087)/2
 5791 0166 FD00     		.2byte	(.L1089-.L1087)/2
 5792              		.p2align 1
 5793              	.L1098:
 5794 0168 94F9C109 		ldrsb	r0, [r4, #2497]
 5795 016c FFF7FEFF 		bl	_Z19AnalogInReadChannel19AnalogChannelNumber
 5796 0170 B0F57A6F 		cmp	r0, #4000
 5797 0174 80F09D80 		bcs	.L1144
 5798 0178 94F89450 		ldrb	r5, [r4, #148]	@ zero_extendqisi2
 5799 017c 0146     		mov	r1, r0
 5800              	.L1097:
 5801 017e D4F84024 		ldr	r2, [r4, #1088]
 5802 0182 D4F84434 		ldr	r3, [r4, #1092]
 5803 0186 04EB4206 		add	r6, r4, r2, lsl #1
 5804 018a 0132     		adds	r2, r2, #1
 5805 018c B6F83074 		ldrh	r7, [r6, #1072]
 5806 0190 DB1B     		subs	r3, r3, r7
 5807 0192 0B44     		add	r3, r3, r1
 5808 0194 082A     		cmp	r2, #8
 5809 0196 C4F84434 		str	r3, [r4, #1092]
