ARM GAS  /tmp/ccQNhOlE.s 			page 1


   1              		.cpu cortex-m7
   2              		.eabi_attribute 28, 1
   3              		.eabi_attribute 20, 1
   4              		.eabi_attribute 21, 1
   5              		.eabi_attribute 23, 3
   6              		.eabi_attribute 24, 1
   7              		.eabi_attribute 25, 1
   8              		.eabi_attribute 26, 1
   9              		.eabi_attribute 30, 2
  10              		.eabi_attribute 34, 1
  11              		.eabi_attribute 18, 4
  12              		.file	"afec.c"
  13              		.text
  14              	.Ltext0:
  15              		.cfi_sections	.debug_frame
  16              		.section	.text.afec_process_callback,"ax",%progbits
  17              		.align	1
  18              		.p2align 2,,3
  19              		.syntax unified
  20              		.thumb
  21              		.thumb_func
  22              		.fpu fpv5-d16
  23              		.type	afec_process_callback, %function
  24              	afec_process_callback:
  25              	.LFB201:
  26              		.file 1 "../asf/sam/drivers/afec/afec.c"
   1:../asf/sam/drivers/afec/afec.c **** /**
   2:../asf/sam/drivers/afec/afec.c ****  * \file
   3:../asf/sam/drivers/afec/afec.c ****  *
   4:../asf/sam/drivers/afec/afec.c ****  * \brief Analog-Front-End Controller driver for SAM.
   5:../asf/sam/drivers/afec/afec.c ****  *
   6:../asf/sam/drivers/afec/afec.c ****  * Copyright (c) 2014-2016 Atmel Corporation. All rights reserved.
   7:../asf/sam/drivers/afec/afec.c ****  *
   8:../asf/sam/drivers/afec/afec.c ****  * \asf_license_start
   9:../asf/sam/drivers/afec/afec.c ****  *
  10:../asf/sam/drivers/afec/afec.c ****  * \page License
  11:../asf/sam/drivers/afec/afec.c ****  *
  12:../asf/sam/drivers/afec/afec.c ****  * Redistribution and use in source and binary forms, with or without
  13:../asf/sam/drivers/afec/afec.c ****  * modification, are permitted provided that the following conditions are met:
  14:../asf/sam/drivers/afec/afec.c ****  *
  15:../asf/sam/drivers/afec/afec.c ****  * 1. Redistributions of source code must retain the above copyright notice,
  16:../asf/sam/drivers/afec/afec.c ****  *    this list of conditions and the following disclaimer.
  17:../asf/sam/drivers/afec/afec.c ****  *
  18:../asf/sam/drivers/afec/afec.c ****  * 2. Redistributions in binary form must reproduce the above copyright notice,
  19:../asf/sam/drivers/afec/afec.c ****  *    this list of conditions and the following disclaimer in the documentation
  20:../asf/sam/drivers/afec/afec.c ****  *    and/or other materials provided with the distribution.
  21:../asf/sam/drivers/afec/afec.c ****  *
  22:../asf/sam/drivers/afec/afec.c ****  * 3. The name of Atmel may not be used to endorse or promote products derived
  23:../asf/sam/drivers/afec/afec.c ****  *    from this software without specific prior written permission.
  24:../asf/sam/drivers/afec/afec.c ****  *
  25:../asf/sam/drivers/afec/afec.c ****  * 4. This software may only be redistributed and used in connection with an
  26:../asf/sam/drivers/afec/afec.c ****  *    Atmel microcontroller product.
  27:../asf/sam/drivers/afec/afec.c ****  *
  28:../asf/sam/drivers/afec/afec.c ****  * THIS SOFTWARE IS PROVIDED BY ATMEL "AS IS" AND ANY EXPRESS OR IMPLIED
  29:../asf/sam/drivers/afec/afec.c ****  * WARRANTIES, INCLUDING, BUT NOT LIMITED TO, THE IMPLIED WARRANTIES OF
  30:../asf/sam/drivers/afec/afec.c ****  * MERCHANTABILITY, FITNESS FOR A PARTICULAR PURPOSE AND NON-INFRINGEMENT ARE
  31:../asf/sam/drivers/afec/afec.c ****  * EXPRESSLY AND SPECIFICALLY DISCLAIMED. IN NO EVENT SHALL ATMEL BE LIABLE FOR
ARM GAS  /tmp/ccQNhOlE.s 			page 2


  32:../asf/sam/drivers/afec/afec.c ****  * ANY DIRECT, INDIRECT, INCIDENTAL, SPECIAL, EXEMPLARY, OR CONSEQUENTIAL
  33:../asf/sam/drivers/afec/afec.c ****  * DAMAGES (INCLUDING, BUT NOT LIMITED TO, PROCUREMENT OF SUBSTITUTE GOODS
  34:../asf/sam/drivers/afec/afec.c ****  * OR SERVICES; LOSS OF USE, DATA, OR PROFITS; OR BUSINESS INTERRUPTION)
  35:../asf/sam/drivers/afec/afec.c ****  * HOWEVER CAUSED AND ON ANY THEORY OF LIABILITY, WHETHER IN CONTRACT,
  36:../asf/sam/drivers/afec/afec.c ****  * STRICT LIABILITY, OR TORT (INCLUDING NEGLIGENCE OR OTHERWISE) ARISING IN
  37:../asf/sam/drivers/afec/afec.c ****  * ANY WAY OUT OF THE USE OF THIS SOFTWARE, EVEN IF ADVISED OF THE
  38:../asf/sam/drivers/afec/afec.c ****  * POSSIBILITY OF SUCH DAMAGE.
  39:../asf/sam/drivers/afec/afec.c ****  *
  40:../asf/sam/drivers/afec/afec.c ****  * \asf_license_stop
  41:../asf/sam/drivers/afec/afec.c ****  *
  42:../asf/sam/drivers/afec/afec.c ****  */
  43:../asf/sam/drivers/afec/afec.c **** /*
  44:../asf/sam/drivers/afec/afec.c ****  * Support and FAQ: visit <a href="http://www.atmel.com/design-support/">Atmel Support</a>
  45:../asf/sam/drivers/afec/afec.c ****  */
  46:../asf/sam/drivers/afec/afec.c **** 
  47:../asf/sam/drivers/afec/afec.c **** #include "afec.h"
  48:../asf/sam/drivers/afec/afec.c **** #include "sleepmgr.h"
  49:../asf/sam/drivers/afec/afec.c **** #include "status_codes.h"
  50:../asf/sam/drivers/afec/afec.c **** #include "sysclk.h"
  51:../asf/sam/drivers/afec/afec.c **** #include "pmc.h"
  52:../asf/sam/drivers/afec/afec.c **** 
  53:../asf/sam/drivers/afec/afec.c **** /**
  54:../asf/sam/drivers/afec/afec.c ****  * \defgroup sam_drivers_afec_group Analog-Front-End Controller
  55:../asf/sam/drivers/afec/afec.c ****  *
  56:../asf/sam/drivers/afec/afec.c ****  * See \ref sam_afec_quickstart.
  57:../asf/sam/drivers/afec/afec.c ****  *
  58:../asf/sam/drivers/afec/afec.c ****  * Driver for the Analog-Front-End Controller. This driver provides access to
  59:../asf/sam/drivers/afec/afec.c ****  * the main features of the AFEC controller.
  60:../asf/sam/drivers/afec/afec.c ****  *
  61:../asf/sam/drivers/afec/afec.c ****  * @{
  62:../asf/sam/drivers/afec/afec.c ****  */
  63:../asf/sam/drivers/afec/afec.c **** #if defined(AFEC1)
  64:../asf/sam/drivers/afec/afec.c **** #define NUM_OF_AFEC    (2UL)
  65:../asf/sam/drivers/afec/afec.c **** #else
  66:../asf/sam/drivers/afec/afec.c **** #define NUM_OF_AFEC    (1UL)
  67:../asf/sam/drivers/afec/afec.c **** #endif
  68:../asf/sam/drivers/afec/afec.c **** 
  69:../asf/sam/drivers/afec/afec.c **** /* The gap between bit EOC15 and DRDY in interrupt register */
  70:../asf/sam/drivers/afec/afec.c **** #if defined __SAM4E8C__  || defined __SAM4E16C__ || defined __SAM4E8CB__ || defined __SAM4E16CB__
  71:../asf/sam/drivers/afec/afec.c **** #define AFEC_INTERRUPT_GAP1                  (17UL)
  72:../asf/sam/drivers/afec/afec.c **** #elif defined __SAM4E8E__  || defined __SAM4E16E__
  73:../asf/sam/drivers/afec/afec.c **** #define AFEC_INTERRUPT_GAP1                  (8UL)
  74:../asf/sam/drivers/afec/afec.c **** #elif (SAMV71 || SAMV70 || SAME70 || SAMS70)
  75:../asf/sam/drivers/afec/afec.c **** /* The gap between bit EOC11 and DRDY in interrupt register */
  76:../asf/sam/drivers/afec/afec.c **** #define AFEC_INTERRUPT_GAP1                  (12UL)
  77:../asf/sam/drivers/afec/afec.c **** #endif
  78:../asf/sam/drivers/afec/afec.c **** 
  79:../asf/sam/drivers/afec/afec.c **** #if (SAMV71 || SAMV70 || SAME70 || SAMS70)
  80:../asf/sam/drivers/afec/afec.c **** /* The gap between bit COMPE and TEMPCHG in interrupt register */
  81:../asf/sam/drivers/afec/afec.c **** #define AFEC_INTERRUPT_GAP2                  (3UL)
  82:../asf/sam/drivers/afec/afec.c **** #else
  83:../asf/sam/drivers/afec/afec.c **** /* The gap between bit RXBUFF and TEMPCHG in interrupt register */
  84:../asf/sam/drivers/afec/afec.c **** #define AFEC_INTERRUPT_GAP2                  (1UL)
  85:../asf/sam/drivers/afec/afec.c **** #endif
  86:../asf/sam/drivers/afec/afec.c **** 
  87:../asf/sam/drivers/afec/afec.c **** /* The number of channel in channel sequence1 register */
  88:../asf/sam/drivers/afec/afec.c **** #define AFEC_SEQ1_CHANNEL_NUM                (8UL)
ARM GAS  /tmp/ccQNhOlE.s 			page 3


  89:../asf/sam/drivers/afec/afec.c **** 
  90:../asf/sam/drivers/afec/afec.c **** #if (SAMV71 || SAMV70 || SAME70 || SAMS70)
  91:../asf/sam/drivers/afec/afec.c **** /* The interrupt source number of temperature sensor */
  92:../asf/sam/drivers/afec/afec.c **** #define AFEC_TEMP_INT_SOURCE_NUM             (11UL)
  93:../asf/sam/drivers/afec/afec.c **** #else
  94:../asf/sam/drivers/afec/afec.c **** /* The interrupt source number of temperature sensor */
  95:../asf/sam/drivers/afec/afec.c **** #define AFEC_TEMP_INT_SOURCE_NUM             (15UL)
  96:../asf/sam/drivers/afec/afec.c **** #endif
  97:../asf/sam/drivers/afec/afec.c **** 
  98:../asf/sam/drivers/afec/afec.c **** afec_callback_t afec_callback_pointer[NUM_OF_AFEC][_AFEC_NUM_OF_INTERRUPT_SOURCE];
  99:../asf/sam/drivers/afec/afec.c **** 
 100:../asf/sam/drivers/afec/afec.c **** 
 101:../asf/sam/drivers/afec/afec.c **** /**
 102:../asf/sam/drivers/afec/afec.c ****  * \internal
 103:../asf/sam/drivers/afec/afec.c ****  * \brief Get AFEC instance number.
 104:../asf/sam/drivers/afec/afec.c ****  *
 105:../asf/sam/drivers/afec/afec.c ****  * \param afec  Base address of the AFEC
 106:../asf/sam/drivers/afec/afec.c ****  *
 107:../asf/sam/drivers/afec/afec.c ****  * \return   AFEC instance number
 108:../asf/sam/drivers/afec/afec.c ****  */
 109:../asf/sam/drivers/afec/afec.c **** static uint32_t afec_find_inst_num(Afec *const afec)
 110:../asf/sam/drivers/afec/afec.c **** {
 111:../asf/sam/drivers/afec/afec.c **** #if defined(AFEC1)
 112:../asf/sam/drivers/afec/afec.c **** 	if (afec == AFEC1) {
 113:../asf/sam/drivers/afec/afec.c **** 		return 1;
 114:../asf/sam/drivers/afec/afec.c **** 	}
 115:../asf/sam/drivers/afec/afec.c **** #endif
 116:../asf/sam/drivers/afec/afec.c **** #if defined(AFEC0)
 117:../asf/sam/drivers/afec/afec.c **** 	if (afec == AFEC0) {
 118:../asf/sam/drivers/afec/afec.c **** 		return 0;
 119:../asf/sam/drivers/afec/afec.c **** 	}
 120:../asf/sam/drivers/afec/afec.c **** #endif
 121:../asf/sam/drivers/afec/afec.c **** 	return 0;
 122:../asf/sam/drivers/afec/afec.c **** }
 123:../asf/sam/drivers/afec/afec.c **** 
 124:../asf/sam/drivers/afec/afec.c **** /**
 125:../asf/sam/drivers/afec/afec.c ****  * \internal
 126:../asf/sam/drivers/afec/afec.c ****  * \brief Get AFEC Peripheral ID.
 127:../asf/sam/drivers/afec/afec.c ****  *
 128:../asf/sam/drivers/afec/afec.c ****  * \param afec  Base address of the AFEC
 129:../asf/sam/drivers/afec/afec.c ****  *
 130:../asf/sam/drivers/afec/afec.c ****  * \return   AFEC Peripheral ID
 131:../asf/sam/drivers/afec/afec.c ****  */
 132:../asf/sam/drivers/afec/afec.c **** static uint32_t afec_find_pid(Afec *const afec)
 133:../asf/sam/drivers/afec/afec.c **** {
 134:../asf/sam/drivers/afec/afec.c **** #if defined(ID_AFEC1)
 135:../asf/sam/drivers/afec/afec.c **** 	if (afec == AFEC1) {
 136:../asf/sam/drivers/afec/afec.c **** 		return ID_AFEC1;
 137:../asf/sam/drivers/afec/afec.c **** 	}
 138:../asf/sam/drivers/afec/afec.c **** #endif
 139:../asf/sam/drivers/afec/afec.c **** #if defined(ID_AFEC0)
 140:../asf/sam/drivers/afec/afec.c **** 	if (afec == AFEC0) {
 141:../asf/sam/drivers/afec/afec.c **** 		return ID_AFEC0;
 142:../asf/sam/drivers/afec/afec.c **** 	}
 143:../asf/sam/drivers/afec/afec.c **** #endif
 144:../asf/sam/drivers/afec/afec.c **** 	return ID_AFEC0;
 145:../asf/sam/drivers/afec/afec.c **** }
ARM GAS  /tmp/ccQNhOlE.s 			page 4


 146:../asf/sam/drivers/afec/afec.c **** 
 147:../asf/sam/drivers/afec/afec.c **** /**
 148:../asf/sam/drivers/afec/afec.c ****  * \internal
 149:../asf/sam/drivers/afec/afec.c ****  * \brief Configure the AFEC Module.
 150:../asf/sam/drivers/afec/afec.c ****  *
 151:../asf/sam/drivers/afec/afec.c ****  * \param afec  Base address of the AFEC
 152:../asf/sam/drivers/afec/afec.c ****  * \param config   Configuration for the AFEC
 153:../asf/sam/drivers/afec/afec.c ****  */
 154:../asf/sam/drivers/afec/afec.c **** static void afec_set_config(Afec *const afec, struct afec_config *config)
 155:../asf/sam/drivers/afec/afec.c **** {
 156:../asf/sam/drivers/afec/afec.c **** 	uint32_t reg = 0;
 157:../asf/sam/drivers/afec/afec.c **** 
 158:../asf/sam/drivers/afec/afec.c **** 	reg = (config->useq ? AFEC_MR_USEQ_REG_ORDER : 0) |
 159:../asf/sam/drivers/afec/afec.c **** 		#if (SAMV71 || SAMV70 || SAME70 || SAMS70)
 160:../asf/sam/drivers/afec/afec.c **** 			AFEC_MR_PRESCAL((config->mck / config->afec_clock )- 1) |
 161:../asf/sam/drivers/afec/afec.c **** 			AFEC_MR_ONE |
 162:../asf/sam/drivers/afec/afec.c **** 		#else
 163:../asf/sam/drivers/afec/afec.c **** 			(config->anach ? AFEC_MR_ANACH_ALLOWED : 0) |
 164:../asf/sam/drivers/afec/afec.c **** 			AFEC_MR_PRESCAL(config->mck / (2 * config->afec_clock) - 1) |
 165:../asf/sam/drivers/afec/afec.c **** 			(config->settling_time) |		
 166:../asf/sam/drivers/afec/afec.c **** 		#endif
 167:../asf/sam/drivers/afec/afec.c **** 			AFEC_MR_TRACKTIM(config->tracktim) |
 168:../asf/sam/drivers/afec/afec.c **** 			AFEC_MR_TRANSFER(config->transfer) |
 169:../asf/sam/drivers/afec/afec.c **** 			(config->startup_time);
 170:../asf/sam/drivers/afec/afec.c **** 
 171:../asf/sam/drivers/afec/afec.c **** 	afec->AFEC_MR = reg;
 172:../asf/sam/drivers/afec/afec.c **** 
 173:../asf/sam/drivers/afec/afec.c **** 	afec->AFEC_EMR = (config->tag ? AFEC_EMR_TAG : 0) |
 174:../asf/sam/drivers/afec/afec.c **** 			(config->resolution) |
 175:../asf/sam/drivers/afec/afec.c **** 			(config->stm ? AFEC_EMR_STM : 0);
 176:../asf/sam/drivers/afec/afec.c ****   #if (SAMV71 || SAMV70 || SAME70 || SAMS70)
 177:../asf/sam/drivers/afec/afec.c **** 	afec->AFEC_ACR = AFEC_ACR_IBCTL(config->ibctl) | AFEC_ACR_PGA0EN | AFEC_ACR_PGA1EN;
 178:../asf/sam/drivers/afec/afec.c ****   #else
 179:../asf/sam/drivers/afec/afec.c ****     afec->AFEC_ACR = AFEC_ACR_IBCTL(config->ibctl);
 180:../asf/sam/drivers/afec/afec.c ****   #endif
 181:../asf/sam/drivers/afec/afec.c **** }
 182:../asf/sam/drivers/afec/afec.c **** 
 183:../asf/sam/drivers/afec/afec.c **** /**
 184:../asf/sam/drivers/afec/afec.c ****  * \brief Configure the AFEC channel.
 185:../asf/sam/drivers/afec/afec.c ****  *
 186:../asf/sam/drivers/afec/afec.c ****  * \param afec  Base address of the AFEC
 187:../asf/sam/drivers/afec/afec.c ****  * \param channel The channel number
 188:../asf/sam/drivers/afec/afec.c ****  * \param config   Configuration for the AFEC channel
 189:../asf/sam/drivers/afec/afec.c ****  */
 190:../asf/sam/drivers/afec/afec.c **** void afec_ch_set_config(Afec *const afec, const enum afec_channel_num channel,
 191:../asf/sam/drivers/afec/afec.c **** 		struct afec_ch_config *config)
 192:../asf/sam/drivers/afec/afec.c **** {
 193:../asf/sam/drivers/afec/afec.c **** 	afec_ch_sanity_check(afec, channel);
 194:../asf/sam/drivers/afec/afec.c **** 	uint32_t reg = 0;
 195:../asf/sam/drivers/afec/afec.c **** 
 196:../asf/sam/drivers/afec/afec.c **** 	reg = afec->AFEC_DIFFR;
 197:../asf/sam/drivers/afec/afec.c **** 	reg &= ~(0x1u << channel);
 198:../asf/sam/drivers/afec/afec.c **** 	reg |= (config->diff) ? (0x1u << channel) : 0;
 199:../asf/sam/drivers/afec/afec.c **** 	afec->AFEC_DIFFR = reg;
 200:../asf/sam/drivers/afec/afec.c **** 
 201:../asf/sam/drivers/afec/afec.c **** 	reg = afec->AFEC_CGR;
 202:../asf/sam/drivers/afec/afec.c **** 	reg &= ~(0x03u << (2 * channel));
ARM GAS  /tmp/ccQNhOlE.s 			page 5


 203:../asf/sam/drivers/afec/afec.c **** 	reg |= (config->gain) << (2 * channel);
 204:../asf/sam/drivers/afec/afec.c **** 	afec->AFEC_CGR = reg;
 205:../asf/sam/drivers/afec/afec.c **** }
 206:../asf/sam/drivers/afec/afec.c **** 
 207:../asf/sam/drivers/afec/afec.c **** /**
 208:../asf/sam/drivers/afec/afec.c ****  * \brief Configure the AFEC temperature sensor.
 209:../asf/sam/drivers/afec/afec.c ****  *
 210:../asf/sam/drivers/afec/afec.c ****  * \param afec  Base address of the AFEC
 211:../asf/sam/drivers/afec/afec.c ****  * \param config   Configuration for the AFEC temperature sensor
 212:../asf/sam/drivers/afec/afec.c ****  */
 213:../asf/sam/drivers/afec/afec.c **** void afec_temp_sensor_set_config(Afec *const afec,
 214:../asf/sam/drivers/afec/afec.c **** 		struct afec_temp_sensor_config *config)
 215:../asf/sam/drivers/afec/afec.c **** {
 216:../asf/sam/drivers/afec/afec.c **** 	Assert(afec == AFEC0);
 217:../asf/sam/drivers/afec/afec.c **** 
 218:../asf/sam/drivers/afec/afec.c **** 	uint32_t reg = 0;
 219:../asf/sam/drivers/afec/afec.c **** 
 220:../asf/sam/drivers/afec/afec.c **** 	reg = ((config->rctc) ? AFEC_TEMPMR_RTCT : 0) | (config->mode);
 221:../asf/sam/drivers/afec/afec.c **** 	afec->AFEC_TEMPMR = reg;
 222:../asf/sam/drivers/afec/afec.c **** 
 223:../asf/sam/drivers/afec/afec.c **** 	afec->AFEC_TEMPCWR = AFEC_TEMPCWR_TLOWTHRES(config->low_threshold) |
 224:../asf/sam/drivers/afec/afec.c **** 			AFEC_TEMPCWR_THIGHTHRES(config->high_threshold);
 225:../asf/sam/drivers/afec/afec.c **** 			
 226:../asf/sam/drivers/afec/afec.c **** }
 227:../asf/sam/drivers/afec/afec.c **** 
 228:../asf/sam/drivers/afec/afec.c **** /**
 229:../asf/sam/drivers/afec/afec.c ****  * \brief Get the AFEC default configurations.
 230:../asf/sam/drivers/afec/afec.c ****  *
 231:../asf/sam/drivers/afec/afec.c ****  * Use to initialize the configuration structure to known default values. This
 232:../asf/sam/drivers/afec/afec.c ****  * function should be called at the start of any AFEC initiation.
 233:../asf/sam/drivers/afec/afec.c ****  *
 234:../asf/sam/drivers/afec/afec.c ****  * The default configuration is as follows:
 235:../asf/sam/drivers/afec/afec.c ****  * - 12 -bit resolution
 236:../asf/sam/drivers/afec/afec.c ****  * - AFEC clock frequency is 6MHz
 237:../asf/sam/drivers/afec/afec.c ****  * - Start Up Time is 64 periods AFEC clock, for SAMV71 is 24 periods AFEC clock
 238:../asf/sam/drivers/afec/afec.c ****  * - Analog Settling Time is 3 periods of AFEC clock
 239:../asf/sam/drivers/afec/afec.c ****  * - Tracking Time is 3 periods of AFEC clock
 240:../asf/sam/drivers/afec/afec.c ****  * - Transfer Period is 5 periods AFEC clock,for SAMV71 is 7 periods AFEC clock
 241:../asf/sam/drivers/afec/afec.c ****  * - Allows different analog settings for each channel
 242:../asf/sam/drivers/afec/afec.c ****  * - The controller converts channels in a simple numeric order
 243:../asf/sam/drivers/afec/afec.c ****  * - Appends the channel number to the conversion result in AFE_LDCR register
 244:../asf/sam/drivers/afec/afec.c ****  * - Only a Single Trigger is required to get an averaged value
 245:../asf/sam/drivers/afec/afec.c ****  * - AFE Bias Current Control value is 1
 246:../asf/sam/drivers/afec/afec.c ****  *
 247:../asf/sam/drivers/afec/afec.c ****  * \param cfg Pointer to configuration structure to be initiated.
 248:../asf/sam/drivers/afec/afec.c ****  */
 249:../asf/sam/drivers/afec/afec.c **** void afec_get_config_defaults(struct afec_config *const cfg)
 250:../asf/sam/drivers/afec/afec.c **** {
 251:../asf/sam/drivers/afec/afec.c **** 	/* Sanity check argument. */
 252:../asf/sam/drivers/afec/afec.c **** 	Assert(cfg);
 253:../asf/sam/drivers/afec/afec.c **** 
 254:../asf/sam/drivers/afec/afec.c **** 	cfg->resolution = AFEC_12_BITS;
 255:../asf/sam/drivers/afec/afec.c **** 	cfg->mck = sysclk_get_cpu_hz();
 256:../asf/sam/drivers/afec/afec.c **** 		cfg->afec_clock = 6000000UL;
 257:../asf/sam/drivers/afec/afec.c **** 		cfg->startup_time = AFEC_STARTUP_TIME_4;
 258:../asf/sam/drivers/afec/afec.c **** 	#if !(SAMV71 || SAMV70 || SAME70 || SAMS70)
 259:../asf/sam/drivers/afec/afec.c **** 		cfg->settling_time = AFEC_SETTLING_TIME_0;
ARM GAS  /tmp/ccQNhOlE.s 			page 6


 260:../asf/sam/drivers/afec/afec.c **** 	#endif	
 261:../asf/sam/drivers/afec/afec.c **** 		cfg->tracktim = 2;
 262:../asf/sam/drivers/afec/afec.c **** 		cfg->transfer = 1;
 263:../asf/sam/drivers/afec/afec.c **** 		cfg->anach = true;
 264:../asf/sam/drivers/afec/afec.c **** 		cfg->useq = false;
 265:../asf/sam/drivers/afec/afec.c **** 		cfg->tag = true;
 266:../asf/sam/drivers/afec/afec.c **** 		cfg->stm = true;
 267:../asf/sam/drivers/afec/afec.c **** 		cfg->ibctl = 1;
 268:../asf/sam/drivers/afec/afec.c **** }
 269:../asf/sam/drivers/afec/afec.c **** 
 270:../asf/sam/drivers/afec/afec.c **** /**
 271:../asf/sam/drivers/afec/afec.c ****  * \brief Get the AFEC channel default configurations.
 272:../asf/sam/drivers/afec/afec.c ****  *
 273:../asf/sam/drivers/afec/afec.c ****  * Use to initialize the configuration structure to known default values.
 274:../asf/sam/drivers/afec/afec.c ****  *
 275:../asf/sam/drivers/afec/afec.c ****  * The default configuration is as follows:
 276:../asf/sam/drivers/afec/afec.c ****  * - Single Ended Mode
 277:../asf/sam/drivers/afec/afec.c ****  * - Gain value is 1
 278:../asf/sam/drivers/afec/afec.c ****  *
 279:../asf/sam/drivers/afec/afec.c ****  * \param cfg Pointer to channel configuration structure to be initiated.
 280:../asf/sam/drivers/afec/afec.c ****  */
 281:../asf/sam/drivers/afec/afec.c **** void afec_ch_get_config_defaults(struct afec_ch_config *const cfg)
 282:../asf/sam/drivers/afec/afec.c **** {
 283:../asf/sam/drivers/afec/afec.c **** 	/*Sanity check argument. */
 284:../asf/sam/drivers/afec/afec.c **** 	Assert(cfg);
 285:../asf/sam/drivers/afec/afec.c **** 
 286:../asf/sam/drivers/afec/afec.c **** 	cfg->diff = false;
 287:../asf/sam/drivers/afec/afec.c ****    	cfg->gain = AFEC_GAINVALUE_1;
 288:../asf/sam/drivers/afec/afec.c **** 
 289:../asf/sam/drivers/afec/afec.c **** }
 290:../asf/sam/drivers/afec/afec.c **** 
 291:../asf/sam/drivers/afec/afec.c **** /**
 292:../asf/sam/drivers/afec/afec.c ****  * \brief Get the AFEC Temperature Sensor default configurations.
 293:../asf/sam/drivers/afec/afec.c ****  *
 294:../asf/sam/drivers/afec/afec.c ****  * Use to initialize the configuration structure to known default values.
 295:../asf/sam/drivers/afec/afec.c ****  *
 296:../asf/sam/drivers/afec/afec.c ****  * The default configuration is as follows:
 297:../asf/sam/drivers/afec/afec.c ****  * - The temperature sensor measure is not triggered by RTC event
 298:../asf/sam/drivers/afec/afec.c ****  * - Generates an event when the converted data is in the comparison window
 299:../asf/sam/drivers/afec/afec.c ****  * - The window range is 0xFF ~ 0xFFF
 300:../asf/sam/drivers/afec/afec.c ****  *
 301:../asf/sam/drivers/afec/afec.c ****  * \param cfg Pointer to temperature sensor configuration structure
 302:../asf/sam/drivers/afec/afec.c ****  *        to be initiated.
 303:../asf/sam/drivers/afec/afec.c ****  */
 304:../asf/sam/drivers/afec/afec.c **** void afec_temp_sensor_get_config_defaults(
 305:../asf/sam/drivers/afec/afec.c **** 		struct afec_temp_sensor_config *const cfg)
 306:../asf/sam/drivers/afec/afec.c **** {
 307:../asf/sam/drivers/afec/afec.c **** 	/*Sanity check argument. */
 308:../asf/sam/drivers/afec/afec.c **** 	Assert(cfg);
 309:../asf/sam/drivers/afec/afec.c **** 
 310:../asf/sam/drivers/afec/afec.c **** 	cfg->rctc = false;
 311:../asf/sam/drivers/afec/afec.c **** 	cfg->mode= AFEC_TEMP_CMP_MODE_2;
 312:../asf/sam/drivers/afec/afec.c **** 	cfg->low_threshold= 0xFF;
 313:../asf/sam/drivers/afec/afec.c **** 	cfg->high_threshold= 0xFFF;
 314:../asf/sam/drivers/afec/afec.c **** }
 315:../asf/sam/drivers/afec/afec.c **** 
 316:../asf/sam/drivers/afec/afec.c **** /**
ARM GAS  /tmp/ccQNhOlE.s 			page 7


 317:../asf/sam/drivers/afec/afec.c ****  * \brief Initialize the AFEC Module.
 318:../asf/sam/drivers/afec/afec.c ****  *
 319:../asf/sam/drivers/afec/afec.c ****  * \param afec  Base address of the AFEC
 320:../asf/sam/drivers/afec/afec.c ****  * \param config   Configuration for the AFEC
 321:../asf/sam/drivers/afec/afec.c ****  *
 322:../asf/sam/drivers/afec/afec.c ****  * \retval STATUS_OK  Initialization is finished.
 323:../asf/sam/drivers/afec/afec.c ****  * \retval STATUS_ERR_BUSY  Initialization failed.
 324:../asf/sam/drivers/afec/afec.c ****  */
 325:../asf/sam/drivers/afec/afec.c **** enum status_code afec_init(Afec *const afec, struct afec_config *config)
 326:../asf/sam/drivers/afec/afec.c **** {
 327:../asf/sam/drivers/afec/afec.c **** 	Assert(afec);
 328:../asf/sam/drivers/afec/afec.c **** 	Assert(config);
 329:../asf/sam/drivers/afec/afec.c **** 
 330:../asf/sam/drivers/afec/afec.c **** 	if ((afec_get_interrupt_status(afec) & AFEC_ISR_DRDY) == AFEC_ISR_DRDY) {
 331:../asf/sam/drivers/afec/afec.c **** 		return STATUS_ERR_BUSY;
 332:../asf/sam/drivers/afec/afec.c **** 	}
 333:../asf/sam/drivers/afec/afec.c **** 
 334:../asf/sam/drivers/afec/afec.c **** 	/* Reset and configure the AFEC module */
 335:../asf/sam/drivers/afec/afec.c **** 	afec->AFEC_CR = AFEC_CR_SWRST;
 336:../asf/sam/drivers/afec/afec.c **** 	afec_set_config(afec, config);
 337:../asf/sam/drivers/afec/afec.c **** 
 338:../asf/sam/drivers/afec/afec.c **** 	uint32_t i;
 339:../asf/sam/drivers/afec/afec.c **** 	if(afec == AFEC0) {
 340:../asf/sam/drivers/afec/afec.c **** 		for (i = 0; i < _AFEC_NUM_OF_INTERRUPT_SOURCE; i++){
 341:../asf/sam/drivers/afec/afec.c **** 			afec_callback_pointer[0][i] = 0;
 342:../asf/sam/drivers/afec/afec.c **** 		}
 343:../asf/sam/drivers/afec/afec.c **** 	}
 344:../asf/sam/drivers/afec/afec.c **** 	if(afec == AFEC1) {
 345:../asf/sam/drivers/afec/afec.c **** 		for (i = 0; i < _AFEC_NUM_OF_INTERRUPT_SOURCE; i++){
 346:../asf/sam/drivers/afec/afec.c **** 			afec_callback_pointer[1][i] = 0;
 347:../asf/sam/drivers/afec/afec.c **** 		}
 348:../asf/sam/drivers/afec/afec.c **** 	}
 349:../asf/sam/drivers/afec/afec.c **** 
 350:../asf/sam/drivers/afec/afec.c **** 	return STATUS_OK;
 351:../asf/sam/drivers/afec/afec.c **** }
 352:../asf/sam/drivers/afec/afec.c **** 
 353:../asf/sam/drivers/afec/afec.c **** /**
 354:../asf/sam/drivers/afec/afec.c ****  * \brief Configure comparison mode.
 355:../asf/sam/drivers/afec/afec.c ****  *
 356:../asf/sam/drivers/afec/afec.c ****  * \param afec  Base address of the AFEC.
 357:../asf/sam/drivers/afec/afec.c ****  * \param mode Comparison mode.
 358:../asf/sam/drivers/afec/afec.c ****  * \param channel Comparison Selected Channel.
 359:../asf/sam/drivers/afec/afec.c ****  * \param cmp_filter Compare Event Filtering.
 360:../asf/sam/drivers/afec/afec.c ****  */
 361:../asf/sam/drivers/afec/afec.c **** void afec_set_comparison_mode(Afec *const afec,
 362:../asf/sam/drivers/afec/afec.c **** 		const enum afec_cmp_mode mode,
 363:../asf/sam/drivers/afec/afec.c **** 		const enum afec_channel_num channel, uint8_t cmp_filter)
 364:../asf/sam/drivers/afec/afec.c **** {
 365:../asf/sam/drivers/afec/afec.c **** 	if (channel != AFEC_CHANNEL_ALL) {
 366:../asf/sam/drivers/afec/afec.c **** 		afec_ch_sanity_check(afec, channel);
 367:../asf/sam/drivers/afec/afec.c **** 	}
 368:../asf/sam/drivers/afec/afec.c **** 
 369:../asf/sam/drivers/afec/afec.c **** 	uint32_t reg;
 370:../asf/sam/drivers/afec/afec.c **** 
 371:../asf/sam/drivers/afec/afec.c **** 	reg = afec->AFEC_EMR;
 372:../asf/sam/drivers/afec/afec.c **** 
 373:../asf/sam/drivers/afec/afec.c **** 	reg &= ~(AFEC_EMR_CMPSEL_Msk |
ARM GAS  /tmp/ccQNhOlE.s 			page 8


 374:../asf/sam/drivers/afec/afec.c **** 			AFEC_EMR_CMPMODE_Msk |
 375:../asf/sam/drivers/afec/afec.c **** 			AFEC_EMR_CMPFILTER_Msk);
 376:../asf/sam/drivers/afec/afec.c **** 	reg |= mode |
 377:../asf/sam/drivers/afec/afec.c **** 			((channel == AFEC_CHANNEL_ALL) ? AFEC_EMR_CMPALL
 378:../asf/sam/drivers/afec/afec.c **** 			: AFEC_EMR_CMPSEL(channel)) |
 379:../asf/sam/drivers/afec/afec.c **** 			AFEC_EMR_CMPFILTER(cmp_filter);
 380:../asf/sam/drivers/afec/afec.c **** 
 381:../asf/sam/drivers/afec/afec.c **** 	afec->AFEC_EMR = reg;
 382:../asf/sam/drivers/afec/afec.c **** }
 383:../asf/sam/drivers/afec/afec.c **** 
 384:../asf/sam/drivers/afec/afec.c **** /**
 385:../asf/sam/drivers/afec/afec.c ****  * \brief Configure AFEC power mode.
 386:../asf/sam/drivers/afec/afec.c ****  *
 387:../asf/sam/drivers/afec/afec.c ****  * \param afec  Base address of the AFEC.
 388:../asf/sam/drivers/afec/afec.c ****  * \param mode   AFEC power mode value.
 389:../asf/sam/drivers/afec/afec.c ****  */
 390:../asf/sam/drivers/afec/afec.c **** void afec_set_power_mode(Afec *const afec,
 391:../asf/sam/drivers/afec/afec.c **** 		const enum afec_power_mode mode)
 392:../asf/sam/drivers/afec/afec.c **** {
 393:../asf/sam/drivers/afec/afec.c **** 	uint32_t reg;
 394:../asf/sam/drivers/afec/afec.c **** 
 395:../asf/sam/drivers/afec/afec.c **** 	reg = afec->AFEC_MR;
 396:../asf/sam/drivers/afec/afec.c **** 
 397:../asf/sam/drivers/afec/afec.c **** 	switch(mode) {
 398:../asf/sam/drivers/afec/afec.c **** 		case AFEC_POWER_MODE_0:
 399:../asf/sam/drivers/afec/afec.c **** 			reg &= ~(AFEC_MR_FWUP_ON | AFEC_MR_SLEEP_SLEEP);
 400:../asf/sam/drivers/afec/afec.c **** 			break;
 401:../asf/sam/drivers/afec/afec.c **** 		case AFEC_POWER_MODE_1:
 402:../asf/sam/drivers/afec/afec.c **** 			reg |= AFEC_MR_FWUP_ON;
 403:../asf/sam/drivers/afec/afec.c **** 			break;
 404:../asf/sam/drivers/afec/afec.c **** 		case AFEC_POWER_MODE_2:
 405:../asf/sam/drivers/afec/afec.c **** 			reg |= AFEC_MR_SLEEP_SLEEP;
 406:../asf/sam/drivers/afec/afec.c **** 			reg &= ~AFEC_MR_FWUP_ON;
 407:../asf/sam/drivers/afec/afec.c **** 			break;
 408:../asf/sam/drivers/afec/afec.c **** 	}
 409:../asf/sam/drivers/afec/afec.c **** 
 410:../asf/sam/drivers/afec/afec.c **** 	afec->AFEC_MR = reg;
 411:../asf/sam/drivers/afec/afec.c **** }
 412:../asf/sam/drivers/afec/afec.c **** 
 413:../asf/sam/drivers/afec/afec.c **** /**
 414:../asf/sam/drivers/afec/afec.c ****  * \brief Set callback for AFEC
 415:../asf/sam/drivers/afec/afec.c ****  *
 416:../asf/sam/drivers/afec/afec.c ****  * \param afec  Base address of the AFEC
 417:../asf/sam/drivers/afec/afec.c ****  * \param source    Interrupt source
 418:../asf/sam/drivers/afec/afec.c ****  * \param callback  Callback function pointer
 419:../asf/sam/drivers/afec/afec.c ****  * \param irq_level Interrupt level
 420:../asf/sam/drivers/afec/afec.c ****  */
 421:../asf/sam/drivers/afec/afec.c **** void afec_set_callback(Afec *const afec, enum afec_interrupt_source source,
 422:../asf/sam/drivers/afec/afec.c **** 		afec_callback_t callback, uint8_t irq_level)
 423:../asf/sam/drivers/afec/afec.c **** {
 424:../asf/sam/drivers/afec/afec.c **** 	Assert(afec);
 425:../asf/sam/drivers/afec/afec.c **** 	Assert(callback);
 426:../asf/sam/drivers/afec/afec.c **** 
 427:../asf/sam/drivers/afec/afec.c **** 	uint32_t i = afec_find_inst_num(afec);
 428:../asf/sam/drivers/afec/afec.c **** 	afec_callback_pointer[i][source] = callback;
 429:../asf/sam/drivers/afec/afec.c **** 	if (!i) {
 430:../asf/sam/drivers/afec/afec.c **** 		irq_register_handler(AFEC0_IRQn, irq_level);
ARM GAS  /tmp/ccQNhOlE.s 			page 9


 431:../asf/sam/drivers/afec/afec.c **** 	} else if (i == 1) {
 432:../asf/sam/drivers/afec/afec.c **** 		irq_register_handler(AFEC1_IRQn, irq_level);
 433:../asf/sam/drivers/afec/afec.c **** 	}
 434:../asf/sam/drivers/afec/afec.c **** 	/* Enable the specified interrupt source */
 435:../asf/sam/drivers/afec/afec.c **** 	afec_enable_interrupt(afec, source);
 436:../asf/sam/drivers/afec/afec.c **** }
 437:../asf/sam/drivers/afec/afec.c **** 
 438:../asf/sam/drivers/afec/afec.c **** /**
 439:../asf/sam/drivers/afec/afec.c ****  * \brief Enable AFEC interrupts.
 440:../asf/sam/drivers/afec/afec.c ****  *
 441:../asf/sam/drivers/afec/afec.c ****  * \param afec  Base address of the AFEC.
 442:../asf/sam/drivers/afec/afec.c ****  * \param interrupt_source Interrupts to be enabled.
 443:../asf/sam/drivers/afec/afec.c ****  */
 444:../asf/sam/drivers/afec/afec.c **** void afec_enable_interrupt(Afec *const afec,
 445:../asf/sam/drivers/afec/afec.c **** 		enum afec_interrupt_source interrupt_source)
 446:../asf/sam/drivers/afec/afec.c **** {
 447:../asf/sam/drivers/afec/afec.c **** 	if (interrupt_source == AFEC_INTERRUPT_ALL) {
 448:../asf/sam/drivers/afec/afec.c **** 		afec->AFEC_IER = AFEC_INTERRUPT_ALL;
 449:../asf/sam/drivers/afec/afec.c **** 		return;
 450:../asf/sam/drivers/afec/afec.c **** 	}
 451:../asf/sam/drivers/afec/afec.c **** 
 452:../asf/sam/drivers/afec/afec.c **** 	if (interrupt_source < AFEC_INTERRUPT_DATA_READY) {
 453:../asf/sam/drivers/afec/afec.c **** 	  #if (SAMV71 || SAMV70 || SAME70 || SAMS70)
 454:../asf/sam/drivers/afec/afec.c **** 		if (interrupt_source == AFEC_INTERRUPT_EOC_11) {
 455:../asf/sam/drivers/afec/afec.c **** 			afec->AFEC_IER = 1 << AFEC_TEMP_INT_SOURCE_NUM;
 456:../asf/sam/drivers/afec/afec.c **** 	  #else
 457:../asf/sam/drivers/afec/afec.c **** 		if (interrupt_source == AFEC_INTERRUPT_EOC_15) {
 458:../asf/sam/drivers/afec/afec.c **** 			afec->AFEC_IER = 1 << AFEC_TEMP_INT_SOURCE_NUM;	  
 459:../asf/sam/drivers/afec/afec.c **** 	  #endif 
 460:../asf/sam/drivers/afec/afec.c **** 		} else {
 461:../asf/sam/drivers/afec/afec.c **** 			afec->AFEC_IER = 1 << interrupt_source;
 462:../asf/sam/drivers/afec/afec.c **** 		}
 463:../asf/sam/drivers/afec/afec.c **** 	} else if (interrupt_source < AFEC_INTERRUPT_TEMP_CHANGE) {
 464:../asf/sam/drivers/afec/afec.c **** 		afec->AFEC_IER = 1 << (interrupt_source + AFEC_INTERRUPT_GAP1);
 465:../asf/sam/drivers/afec/afec.c **** 	} else {
 466:../asf/sam/drivers/afec/afec.c **** 		afec->AFEC_IER = 1 << (interrupt_source + AFEC_INTERRUPT_GAP1
 467:../asf/sam/drivers/afec/afec.c **** 				+ AFEC_INTERRUPT_GAP2);
 468:../asf/sam/drivers/afec/afec.c **** 	}
 469:../asf/sam/drivers/afec/afec.c **** }
 470:../asf/sam/drivers/afec/afec.c **** 
 471:../asf/sam/drivers/afec/afec.c **** /**
 472:../asf/sam/drivers/afec/afec.c ****  * \brief Disable AFEC interrupts.
 473:../asf/sam/drivers/afec/afec.c ****  *
 474:../asf/sam/drivers/afec/afec.c ****  * \param afec  Base address of the AFEC.
 475:../asf/sam/drivers/afec/afec.c ****  * \param interrupt_source Interrupts to be disabled.
 476:../asf/sam/drivers/afec/afec.c ****  */
 477:../asf/sam/drivers/afec/afec.c **** void afec_disable_interrupt(Afec *const afec,
 478:../asf/sam/drivers/afec/afec.c **** 		enum afec_interrupt_source interrupt_source)
 479:../asf/sam/drivers/afec/afec.c **** {
 480:../asf/sam/drivers/afec/afec.c **** 	if (interrupt_source == AFEC_INTERRUPT_ALL) {
 481:../asf/sam/drivers/afec/afec.c **** 		afec->AFEC_IDR = AFEC_INTERRUPT_ALL;
 482:../asf/sam/drivers/afec/afec.c **** 		return;
 483:../asf/sam/drivers/afec/afec.c **** 	}
 484:../asf/sam/drivers/afec/afec.c **** 
 485:../asf/sam/drivers/afec/afec.c **** 	if (interrupt_source < AFEC_INTERRUPT_DATA_READY) {
 486:../asf/sam/drivers/afec/afec.c **** 	  #if (SAMV71 || SAMV70 || SAME70 || SAMS70)
 487:../asf/sam/drivers/afec/afec.c **** 		if (interrupt_source == AFEC_INTERRUPT_EOC_11) {
ARM GAS  /tmp/ccQNhOlE.s 			page 10


 488:../asf/sam/drivers/afec/afec.c **** 			afec->AFEC_IDR = 1 << AFEC_TEMP_INT_SOURCE_NUM;
 489:../asf/sam/drivers/afec/afec.c **** 	  #else
 490:../asf/sam/drivers/afec/afec.c **** 		if (interrupt_source == AFEC_INTERRUPT_EOC_15) {
 491:../asf/sam/drivers/afec/afec.c **** 			afec->AFEC_IDR = 1 << AFEC_TEMP_INT_SOURCE_NUM;	  
 492:../asf/sam/drivers/afec/afec.c **** 	  #endif
 493:../asf/sam/drivers/afec/afec.c **** 		} else {
 494:../asf/sam/drivers/afec/afec.c **** 			afec->AFEC_IDR = 1 << interrupt_source;
 495:../asf/sam/drivers/afec/afec.c **** 		}
 496:../asf/sam/drivers/afec/afec.c **** 	} else if (interrupt_source < AFEC_INTERRUPT_TEMP_CHANGE) {
 497:../asf/sam/drivers/afec/afec.c **** 		afec->AFEC_IDR = 1 << (interrupt_source + AFEC_INTERRUPT_GAP1);
 498:../asf/sam/drivers/afec/afec.c **** 	} else {
 499:../asf/sam/drivers/afec/afec.c **** 		afec->AFEC_IDR = 1 << (interrupt_source + AFEC_INTERRUPT_GAP1
 500:../asf/sam/drivers/afec/afec.c **** 				+ AFEC_INTERRUPT_GAP2);
 501:../asf/sam/drivers/afec/afec.c **** 	}
 502:../asf/sam/drivers/afec/afec.c **** }
 503:../asf/sam/drivers/afec/afec.c **** 
 504:../asf/sam/drivers/afec/afec.c **** /**
 505:../asf/sam/drivers/afec/afec.c ****  * \internal
 506:../asf/sam/drivers/afec/afec.c ****  * \brief Common AFEC interrupt handler
 507:../asf/sam/drivers/afec/afec.c ****  *
 508:../asf/sam/drivers/afec/afec.c ****  * The optional callback used by the interrupt handler is set by the
 509:../asf/sam/drivers/afec/afec.c ****  * afec_set_callback() function.
 510:../asf/sam/drivers/afec/afec.c ****  *
 511:../asf/sam/drivers/afec/afec.c ****  * \param inst_num AFEC instance number to handle interrupt for
 512:../asf/sam/drivers/afec/afec.c ****  * \param source   Interrupt source number
 513:../asf/sam/drivers/afec/afec.c ****  */
 514:../asf/sam/drivers/afec/afec.c **** static void afec_interrupt(uint8_t inst_num,
 515:../asf/sam/drivers/afec/afec.c **** 		enum afec_interrupt_source source)
 516:../asf/sam/drivers/afec/afec.c **** {
 517:../asf/sam/drivers/afec/afec.c **** 	if (afec_callback_pointer[inst_num][source]) {
 518:../asf/sam/drivers/afec/afec.c **** 		afec_callback_pointer[inst_num][source]();
 519:../asf/sam/drivers/afec/afec.c **** 	}
 520:../asf/sam/drivers/afec/afec.c **** }
 521:../asf/sam/drivers/afec/afec.c **** 
 522:../asf/sam/drivers/afec/afec.c **** /**
 523:../asf/sam/drivers/afec/afec.c ****  * \internal
 524:../asf/sam/drivers/afec/afec.c ****  * \brief Call the callback function if the corresponding interrupt is asserted
 525:../asf/sam/drivers/afec/afec.c ****  *
 526:../asf/sam/drivers/afec/afec.c ****  * \param afec  Base address of the AFEC.
 527:../asf/sam/drivers/afec/afec.c ****  */
 528:../asf/sam/drivers/afec/afec.c **** static void afec_process_callback(Afec *const afec)
 529:../asf/sam/drivers/afec/afec.c **** {
  27              		.loc 1 529 0
  28              		.cfi_startproc
  29              		@ args = 0, pretend = 0, frame = 8
  30              		@ frame_needed = 0, uses_anonymous_args = 0
  31              	.LVL0:
  32 0000 2DE9F041 		push	{r4, r5, r6, r7, r8, lr}
  33              		.cfi_def_cfa_offset 24
  34              		.cfi_offset 4, -24
  35              		.cfi_offset 5, -20
  36              		.cfi_offset 6, -16
  37              		.cfi_offset 7, -12
  38              		.cfi_offset 8, -8
  39              		.cfi_offset 14, -4
  40              	.LBB54:
  41              	.LBB55:
ARM GAS  /tmp/ccQNhOlE.s 			page 11


 112:../asf/sam/drivers/afec/afec.c **** 		return 1;
  42              		.loc 1 112 0
  43 0004 174F     		ldr	r7, .L33
  44              	.LBE55:
  45              	.LBE54:
  46              		.loc 1 529 0
  47 0006 82B0     		sub	sp, sp, #8
  48              		.cfi_def_cfa_offset 32
  49              	.LBB59:
  50              	.LBB60:
  51              		.file 2 "../asf/sam/drivers/afec/afec.h"
   1:../asf/sam/drivers/afec/afec.h **** /**
   2:../asf/sam/drivers/afec/afec.h ****  * \file
   3:../asf/sam/drivers/afec/afec.h ****  *
   4:../asf/sam/drivers/afec/afec.h ****  * \brief Analog-Front-End Controller driver for SAM.
   5:../asf/sam/drivers/afec/afec.h ****  *
   6:../asf/sam/drivers/afec/afec.h ****  * Copyright (c) 2013-2016 Atmel Corporation. All rights reserved.
   7:../asf/sam/drivers/afec/afec.h ****  *
   8:../asf/sam/drivers/afec/afec.h ****  * \asf_license_start
   9:../asf/sam/drivers/afec/afec.h ****  *
  10:../asf/sam/drivers/afec/afec.h ****  * \page License
  11:../asf/sam/drivers/afec/afec.h ****  *
  12:../asf/sam/drivers/afec/afec.h ****  * Redistribution and use in source and binary forms, with or without
  13:../asf/sam/drivers/afec/afec.h ****  * modification, are permitted provided that the following conditions are met:
  14:../asf/sam/drivers/afec/afec.h ****  *
  15:../asf/sam/drivers/afec/afec.h ****  * 1. Redistributions of source code must retain the above copyright notice,
  16:../asf/sam/drivers/afec/afec.h ****  *    this list of conditions and the following disclaimer.
  17:../asf/sam/drivers/afec/afec.h ****  *
  18:../asf/sam/drivers/afec/afec.h ****  * 2. Redistributions in binary form must reproduce the above copyright notice,
  19:../asf/sam/drivers/afec/afec.h ****  *    this list of conditions and the following disclaimer in the documentation
  20:../asf/sam/drivers/afec/afec.h ****  *    and/or other materials provided with the distribution.
  21:../asf/sam/drivers/afec/afec.h ****  *
  22:../asf/sam/drivers/afec/afec.h ****  * 3. The name of Atmel may not be used to endorse or promote products derived
  23:../asf/sam/drivers/afec/afec.h ****  *    from this software without specific prior written permission.
  24:../asf/sam/drivers/afec/afec.h ****  *
  25:../asf/sam/drivers/afec/afec.h ****  * 4. This software may only be redistributed and used in connection with an
  26:../asf/sam/drivers/afec/afec.h ****  *    Atmel microcontroller product.
  27:../asf/sam/drivers/afec/afec.h ****  *
  28:../asf/sam/drivers/afec/afec.h ****  * THIS SOFTWARE IS PROVIDED BY ATMEL "AS IS" AND ANY EXPRESS OR IMPLIED
  29:../asf/sam/drivers/afec/afec.h ****  * WARRANTIES, INCLUDING, BUT NOT LIMITED TO, THE IMPLIED WARRANTIES OF
  30:../asf/sam/drivers/afec/afec.h ****  * MERCHANTABILITY, FITNESS FOR A PARTICULAR PURPOSE AND NON-INFRINGEMENT ARE
  31:../asf/sam/drivers/afec/afec.h ****  * EXPRESSLY AND SPECIFICALLY DISCLAIMED. IN NO EVENT SHALL ATMEL BE LIABLE FOR
  32:../asf/sam/drivers/afec/afec.h ****  * ANY DIRECT, INDIRECT, INCIDENTAL, SPECIAL, EXEMPLARY, OR CONSEQUENTIAL
  33:../asf/sam/drivers/afec/afec.h ****  * DAMAGES (INCLUDING, BUT NOT LIMITED TO, PROCUREMENT OF SUBSTITUTE GOODS
  34:../asf/sam/drivers/afec/afec.h ****  * OR SERVICES; LOSS OF USE, DATA, OR PROFITS; OR BUSINESS INTERRUPTION)
  35:../asf/sam/drivers/afec/afec.h ****  * HOWEVER CAUSED AND ON ANY THEORY OF LIABILITY, WHETHER IN CONTRACT,
  36:../asf/sam/drivers/afec/afec.h ****  * STRICT LIABILITY, OR TORT (INCLUDING NEGLIGENCE OR OTHERWISE) ARISING IN
  37:../asf/sam/drivers/afec/afec.h ****  * ANY WAY OUT OF THE USE OF THIS SOFTWARE, EVEN IF ADVISED OF THE
  38:../asf/sam/drivers/afec/afec.h ****  * POSSIBILITY OF SUCH DAMAGE.
  39:../asf/sam/drivers/afec/afec.h ****  *
  40:../asf/sam/drivers/afec/afec.h ****  * \asf_license_stop
  41:../asf/sam/drivers/afec/afec.h ****  *
  42:../asf/sam/drivers/afec/afec.h ****  */
  43:../asf/sam/drivers/afec/afec.h **** /*
  44:../asf/sam/drivers/afec/afec.h ****  * Support and FAQ: visit <a href="http://www.atmel.com/design-support/">Atmel Support</a>
  45:../asf/sam/drivers/afec/afec.h ****  */
  46:../asf/sam/drivers/afec/afec.h **** 
ARM GAS  /tmp/ccQNhOlE.s 			page 12


  47:../asf/sam/drivers/afec/afec.h **** #ifndef AFEC_H_INCLUDED
  48:../asf/sam/drivers/afec/afec.h **** #define AFEC_H_INCLUDED
  49:../asf/sam/drivers/afec/afec.h **** 
  50:../asf/sam/drivers/afec/afec.h **** #include "compiler.h"
  51:../asf/sam/drivers/afec/afec.h **** #include "status_codes.h"
  52:../asf/sam/drivers/afec/afec.h **** 
  53:../asf/sam/drivers/afec/afec.h **** #if (SAMV71 || SAMV70 || SAME70 || SAMS70)
  54:../asf/sam/drivers/afec/afec.h **** /** Definitions for AFEC resolution */
  55:../asf/sam/drivers/afec/afec.h **** enum afec_resolution {
  56:../asf/sam/drivers/afec/afec.h **** 	AFEC_12_BITS = AFEC_EMR_RES_NO_AVERAGE,    /* AFEC 12-bit resolution */
  57:../asf/sam/drivers/afec/afec.h **** 	AFEC_13_BITS = AFEC_EMR_RES_OSR4,          /* AFEC 13-bit resolution */
  58:../asf/sam/drivers/afec/afec.h **** 	AFEC_14_BITS = AFEC_EMR_RES_OSR16,         /* AFEC 14-bit resolution */
  59:../asf/sam/drivers/afec/afec.h **** 	AFEC_15_BITS = AFEC_EMR_RES_OSR64,         /* AFEC 15-bit resolution */
  60:../asf/sam/drivers/afec/afec.h **** 	AFEC_16_BITS = AFEC_EMR_RES_OSR256         /* AFEC 16-bit resolution */
  61:../asf/sam/drivers/afec/afec.h **** };
  62:../asf/sam/drivers/afec/afec.h **** #else
  63:../asf/sam/drivers/afec/afec.h **** /** Definitions for AFEC resolution */
  64:../asf/sam/drivers/afec/afec.h **** enum afec_resolution {
  65:../asf/sam/drivers/afec/afec.h **** 	AFEC_10_BITS = AFEC_EMR_RES_LOW_RES,       /* AFEC 10-bit resolution */
  66:../asf/sam/drivers/afec/afec.h **** 	AFEC_12_BITS = AFEC_EMR_RES_NO_AVERAGE,    /* AFEC 12-bit resolution */
  67:../asf/sam/drivers/afec/afec.h **** 	AFEC_13_BITS = AFEC_EMR_RES_OSR4,          /* AFEC 13-bit resolution */
  68:../asf/sam/drivers/afec/afec.h **** 	AFEC_14_BITS = AFEC_EMR_RES_OSR16,         /* AFEC 14-bit resolution */
  69:../asf/sam/drivers/afec/afec.h **** 	AFEC_15_BITS = AFEC_EMR_RES_OSR64,         /* AFEC 15-bit resolution */
  70:../asf/sam/drivers/afec/afec.h **** 	AFEC_16_BITS = AFEC_EMR_RES_OSR256         /* AFEC 16-bit resolution */
  71:../asf/sam/drivers/afec/afec.h **** };
  72:../asf/sam/drivers/afec/afec.h **** #endif
  73:../asf/sam/drivers/afec/afec.h **** /** Definitions for AFEC power mode */
  74:../asf/sam/drivers/afec/afec.h **** enum afec_power_mode {
  75:../asf/sam/drivers/afec/afec.h **** 	/* AFEC core on and reference voltage circuitry on */
  76:../asf/sam/drivers/afec/afec.h **** 	AFEC_POWER_MODE_0 = 0,
  77:../asf/sam/drivers/afec/afec.h **** 	/* AFEC core off and reference voltage circuitry on */
  78:../asf/sam/drivers/afec/afec.h **** 	AFEC_POWER_MODE_1,
  79:../asf/sam/drivers/afec/afec.h **** 	/* AFEC core off and reference voltage circuitry off */
  80:../asf/sam/drivers/afec/afec.h **** 	AFEC_POWER_MODE_2
  81:../asf/sam/drivers/afec/afec.h **** };
  82:../asf/sam/drivers/afec/afec.h **** 
  83:../asf/sam/drivers/afec/afec.h **** /** Definitions for AFEC trigger */
  84:../asf/sam/drivers/afec/afec.h **** enum afec_trigger {
  85:../asf/sam/drivers/afec/afec.h **** 	/* Starting a conversion is only possible by software. */
  86:../asf/sam/drivers/afec/afec.h **** 	AFEC_TRIG_SW = AFEC_MR_TRGEN_DIS,
  87:../asf/sam/drivers/afec/afec.h **** 	/* External trigger */
  88:../asf/sam/drivers/afec/afec.h **** 	AFEC_TRIG_EXT = AFEC_MR_TRGSEL_AFEC_TRIG0 | AFEC_MR_TRGEN,
  89:../asf/sam/drivers/afec/afec.h **** 	/* TIO Output of the Timer Counter Channel 0 */
  90:../asf/sam/drivers/afec/afec.h **** 	AFEC_TRIG_TIO_CH_0 = AFEC_MR_TRGSEL_AFEC_TRIG1 | AFEC_MR_TRGEN,
  91:../asf/sam/drivers/afec/afec.h **** 	/* TIO Output of the Timer Counter Channel 1 */
  92:../asf/sam/drivers/afec/afec.h **** 	AFEC_TRIG_TIO_CH_1 = AFEC_MR_TRGSEL_AFEC_TRIG2 | AFEC_MR_TRGEN,
  93:../asf/sam/drivers/afec/afec.h **** 	/* TIO Output of the Timer Counter Channel 2 */
  94:../asf/sam/drivers/afec/afec.h **** 	AFEC_TRIG_TIO_CH_2 = AFEC_MR_TRGSEL_AFEC_TRIG3 | AFEC_MR_TRGEN,
  95:../asf/sam/drivers/afec/afec.h **** 	/* PWM Event Line 0 */
  96:../asf/sam/drivers/afec/afec.h **** 	AFEC_TRIG_PWM_EVENT_LINE_0 = AFEC_MR_TRGSEL_AFEC_TRIG4 | AFEC_MR_TRGEN,
  97:../asf/sam/drivers/afec/afec.h **** 	/* PWM Event Line 1 */
  98:../asf/sam/drivers/afec/afec.h **** 	AFEC_TRIG_PWM_EVENT_LINE_1 = AFEC_MR_TRGSEL_AFEC_TRIG5 | AFEC_MR_TRGEN,
  99:../asf/sam/drivers/afec/afec.h **** #if (SAMV71 || SAMV70 || SAME70 || SAMS70)
 100:../asf/sam/drivers/afec/afec.h **** 	/*Analog Comparator*/
 101:../asf/sam/drivers/afec/afec.h **** 	AFEC_TRIG_ANALOG_COMPARATOR = AFEC_MR_TRGSEL_AFEC_TRIG6 | AFEC_MR_TRGEN,
 102:../asf/sam/drivers/afec/afec.h **** #endif	
 103:../asf/sam/drivers/afec/afec.h **** 	/* Freerun mode conversion. */
ARM GAS  /tmp/ccQNhOlE.s 			page 13


 104:../asf/sam/drivers/afec/afec.h **** 	AFEC_TRIG_FREERUN = 0xFF,
 105:../asf/sam/drivers/afec/afec.h **** };
 106:../asf/sam/drivers/afec/afec.h **** 
 107:../asf/sam/drivers/afec/afec.h **** #if defined __SAM4E8C__  || defined __SAM4E16C__ || defined __SAM4E8CB__  || defined __SAM4E16CB__
 108:../asf/sam/drivers/afec/afec.h **** /** Definitions for AFEC channel number */
 109:../asf/sam/drivers/afec/afec.h **** enum afec_channel_num {
 110:../asf/sam/drivers/afec/afec.h **** 	AFEC_CHANNEL_0 = 0,
 111:../asf/sam/drivers/afec/afec.h **** 	AFEC_CHANNEL_1,
 112:../asf/sam/drivers/afec/afec.h **** 	AFEC_CHANNEL_2,
 113:../asf/sam/drivers/afec/afec.h **** 	AFEC_CHANNEL_3,
 114:../asf/sam/drivers/afec/afec.h **** 	AFEC_CHANNEL_4,
 115:../asf/sam/drivers/afec/afec.h **** 	AFEC_CHANNEL_5,
 116:../asf/sam/drivers/afec/afec.h **** 	AFEC_TEMPERATURE_SENSOR = 15,
 117:../asf/sam/drivers/afec/afec.h **** 	AFEC_CHANNEL_ALL = 0x803F,
 118:../asf/sam/drivers/afec/afec.h **** } ;
 119:../asf/sam/drivers/afec/afec.h **** #elif defined __SAM4E8E__  || defined __SAM4E16E__
 120:../asf/sam/drivers/afec/afec.h **** /** Definitions for AFEC channel number */
 121:../asf/sam/drivers/afec/afec.h **** enum afec_channel_num {
 122:../asf/sam/drivers/afec/afec.h **** 	AFEC_CHANNEL_0 = 0,
 123:../asf/sam/drivers/afec/afec.h **** 	AFEC_CHANNEL_1,
 124:../asf/sam/drivers/afec/afec.h **** 	AFEC_CHANNEL_2,
 125:../asf/sam/drivers/afec/afec.h **** 	AFEC_CHANNEL_3,
 126:../asf/sam/drivers/afec/afec.h **** 	AFEC_CHANNEL_4,
 127:../asf/sam/drivers/afec/afec.h **** 	AFEC_CHANNEL_5,
 128:../asf/sam/drivers/afec/afec.h **** 	AFEC_CHANNEL_6,
 129:../asf/sam/drivers/afec/afec.h **** 	AFEC_CHANNEL_7,
 130:../asf/sam/drivers/afec/afec.h **** 	AFEC_CHANNEL_8,
 131:../asf/sam/drivers/afec/afec.h **** 	AFEC_CHANNEL_9,
 132:../asf/sam/drivers/afec/afec.h **** 	AFEC_CHANNEL_10,
 133:../asf/sam/drivers/afec/afec.h **** 	AFEC_CHANNEL_11,
 134:../asf/sam/drivers/afec/afec.h **** 	AFEC_CHANNEL_12,
 135:../asf/sam/drivers/afec/afec.h **** 	AFEC_CHANNEL_13,
 136:../asf/sam/drivers/afec/afec.h **** 	AFEC_CHANNEL_14,
 137:../asf/sam/drivers/afec/afec.h **** 	AFEC_TEMPERATURE_SENSOR,
 138:../asf/sam/drivers/afec/afec.h **** 	AFEC_CHANNEL_ALL = 0xFFFF,
 139:../asf/sam/drivers/afec/afec.h **** } ;
 140:../asf/sam/drivers/afec/afec.h **** #elif (SAMV71 || SAMV70 || SAME70 || SAMS70)
 141:../asf/sam/drivers/afec/afec.h **** /** Definitions for AFEC channel number */
 142:../asf/sam/drivers/afec/afec.h **** enum afec_channel_num {
 143:../asf/sam/drivers/afec/afec.h **** 	AFEC_CHANNEL_0 = 0,
 144:../asf/sam/drivers/afec/afec.h **** 	AFEC_CHANNEL_1,
 145:../asf/sam/drivers/afec/afec.h **** 	AFEC_CHANNEL_2,
 146:../asf/sam/drivers/afec/afec.h **** 	AFEC_CHANNEL_3,
 147:../asf/sam/drivers/afec/afec.h **** 	AFEC_CHANNEL_4,
 148:../asf/sam/drivers/afec/afec.h **** 	AFEC_CHANNEL_5,
 149:../asf/sam/drivers/afec/afec.h **** 	AFEC_CHANNEL_6,
 150:../asf/sam/drivers/afec/afec.h **** 	AFEC_CHANNEL_7,
 151:../asf/sam/drivers/afec/afec.h **** 	AFEC_CHANNEL_8,
 152:../asf/sam/drivers/afec/afec.h **** 	AFEC_CHANNEL_9,
 153:../asf/sam/drivers/afec/afec.h **** 	AFEC_CHANNEL_10,
 154:../asf/sam/drivers/afec/afec.h **** 	AFEC_TEMPERATURE_SENSOR,
 155:../asf/sam/drivers/afec/afec.h **** 	AFEC_CHANNEL_ALL = 0x0FFF,
 156:../asf/sam/drivers/afec/afec.h **** } ;
 157:../asf/sam/drivers/afec/afec.h **** 
 158:../asf/sam/drivers/afec/afec.h **** #define NB_CH_AFE0  (12UL)
 159:../asf/sam/drivers/afec/afec.h **** #define NB_CH_AFE1  (12UL)
 160:../asf/sam/drivers/afec/afec.h **** #endif
ARM GAS  /tmp/ccQNhOlE.s 			page 14


 161:../asf/sam/drivers/afec/afec.h **** 
 162:../asf/sam/drivers/afec/afec.h **** #if (SAMV71 || SAMV70 || SAME70 || SAMS70)
 163:../asf/sam/drivers/afec/afec.h **** enum afec_sample_hold_mode {
 164:../asf/sam/drivers/afec/afec.h **** 	/*Single Sample-and-Hold mode*/
 165:../asf/sam/drivers/afec/afec.h **** 	AFEC_SAMPLE_HOLD_MODE_0,
 166:../asf/sam/drivers/afec/afec.h **** 	/*Dual Sample-and-Hold mode*/
 167:../asf/sam/drivers/afec/afec.h **** 	AFEC_SAMPLE_HOLD_MODE_1,
 168:../asf/sam/drivers/afec/afec.h **** };
 169:../asf/sam/drivers/afec/afec.h **** #endif
 170:../asf/sam/drivers/afec/afec.h **** 
 171:../asf/sam/drivers/afec/afec.h **** /** Definitions for AFEC gain value */
 172:../asf/sam/drivers/afec/afec.h **** enum afec_gainvalue {
 173:../asf/sam/drivers/afec/afec.h **** 	AFEC_GAINVALUE_0 = 0,
 174:../asf/sam/drivers/afec/afec.h **** 	AFEC_GAINVALUE_1 = 1,
 175:../asf/sam/drivers/afec/afec.h **** 	AFEC_GAINVALUE_2 = 2,
 176:../asf/sam/drivers/afec/afec.h **** 	AFEC_GAINVALUE_3 = 3
 177:../asf/sam/drivers/afec/afec.h **** };
 178:../asf/sam/drivers/afec/afec.h **** 
 179:../asf/sam/drivers/afec/afec.h **** /** Definitions for AFEC Start Up Time */
 180:../asf/sam/drivers/afec/afec.h **** enum afec_startup_time {
 181:../asf/sam/drivers/afec/afec.h **** 	AFEC_STARTUP_TIME_0 = AFEC_MR_STARTUP_SUT0,
 182:../asf/sam/drivers/afec/afec.h **** 	AFEC_STARTUP_TIME_1 = AFEC_MR_STARTUP_SUT8,
 183:../asf/sam/drivers/afec/afec.h **** 	AFEC_STARTUP_TIME_2 = AFEC_MR_STARTUP_SUT16,
 184:../asf/sam/drivers/afec/afec.h **** 	AFEC_STARTUP_TIME_3 = AFEC_MR_STARTUP_SUT24,
 185:../asf/sam/drivers/afec/afec.h **** 	AFEC_STARTUP_TIME_4 = AFEC_MR_STARTUP_SUT64,
 186:../asf/sam/drivers/afec/afec.h **** 	AFEC_STARTUP_TIME_5 = AFEC_MR_STARTUP_SUT80,
 187:../asf/sam/drivers/afec/afec.h **** 	AFEC_STARTUP_TIME_6 = AFEC_MR_STARTUP_SUT96,
 188:../asf/sam/drivers/afec/afec.h **** 	AFEC_STARTUP_TIME_7 = AFEC_MR_STARTUP_SUT112,
 189:../asf/sam/drivers/afec/afec.h **** 	AFEC_STARTUP_TIME_8 = AFEC_MR_STARTUP_SUT512,
 190:../asf/sam/drivers/afec/afec.h **** 	AFEC_STARTUP_TIME_9 = AFEC_MR_STARTUP_SUT576,
 191:../asf/sam/drivers/afec/afec.h **** 	AFEC_STARTUP_TIME_10 = AFEC_MR_STARTUP_SUT640,
 192:../asf/sam/drivers/afec/afec.h **** 	AFEC_STARTUP_TIME_11 = AFEC_MR_STARTUP_SUT704,
 193:../asf/sam/drivers/afec/afec.h **** 	AFEC_STARTUP_TIME_12 = AFEC_MR_STARTUP_SUT768,
 194:../asf/sam/drivers/afec/afec.h **** 	AFEC_STARTUP_TIME_13 = AFEC_MR_STARTUP_SUT832,
 195:../asf/sam/drivers/afec/afec.h **** 	AFEC_STARTUP_TIME_14 = AFEC_MR_STARTUP_SUT896,
 196:../asf/sam/drivers/afec/afec.h **** 	AFEC_STARTUP_TIME_15 = AFEC_MR_STARTUP_SUT960
 197:../asf/sam/drivers/afec/afec.h **** };
 198:../asf/sam/drivers/afec/afec.h **** 
 199:../asf/sam/drivers/afec/afec.h **** #if SAM4E
 200:../asf/sam/drivers/afec/afec.h **** /** Definitions for AFEC analog settling time */
 201:../asf/sam/drivers/afec/afec.h **** enum afec_settling_time {
 202:../asf/sam/drivers/afec/afec.h **** 	AFEC_SETTLING_TIME_0 = AFEC_MR_SETTLING_AST3,
 203:../asf/sam/drivers/afec/afec.h **** 	AFEC_SETTLING_TIME_1 = AFEC_MR_SETTLING_AST5,
 204:../asf/sam/drivers/afec/afec.h **** 	AFEC_SETTLING_TIME_2 = AFEC_MR_SETTLING_AST9,
 205:../asf/sam/drivers/afec/afec.h **** 	AFEC_SETTLING_TIME_3 = AFEC_MR_SETTLING_AST17
 206:../asf/sam/drivers/afec/afec.h **** };
 207:../asf/sam/drivers/afec/afec.h **** #endif
 208:../asf/sam/drivers/afec/afec.h **** 
 209:../asf/sam/drivers/afec/afec.h **** /** Definitions for Comparison Mode */
 210:../asf/sam/drivers/afec/afec.h **** enum afec_cmp_mode {
 211:../asf/sam/drivers/afec/afec.h **** 	AFEC_CMP_MODE_0 = AFEC_EMR_CMPMODE_LOW,
 212:../asf/sam/drivers/afec/afec.h **** 	AFEC_CMP_MODE_1 = AFEC_EMR_CMPMODE_HIGH,
 213:../asf/sam/drivers/afec/afec.h **** 	AFEC_CMP_MODE_2 = AFEC_EMR_CMPMODE_IN,
 214:../asf/sam/drivers/afec/afec.h **** 	AFEC_CMP_MODE_3 = AFEC_EMR_CMPMODE_OUT
 215:../asf/sam/drivers/afec/afec.h **** };
 216:../asf/sam/drivers/afec/afec.h **** 
 217:../asf/sam/drivers/afec/afec.h **** /** Definitions for Temperature Comparison Mode */
ARM GAS  /tmp/ccQNhOlE.s 			page 15


 218:../asf/sam/drivers/afec/afec.h **** enum afec_temp_cmp_mode {
 219:../asf/sam/drivers/afec/afec.h **** 	AFEC_TEMP_CMP_MODE_0 = AFEC_TEMPMR_TEMPCMPMOD_LOW,
 220:../asf/sam/drivers/afec/afec.h **** 	AFEC_TEMP_CMP_MODE_1 = AFEC_TEMPMR_TEMPCMPMOD_HIGH,
 221:../asf/sam/drivers/afec/afec.h **** 	AFEC_TEMP_CMP_MODE_2 = AFEC_TEMPMR_TEMPCMPMOD_IN,
 222:../asf/sam/drivers/afec/afec.h **** 	AFEC_TEMP_CMP_MODE_3 = AFEC_TEMPMR_TEMPCMPMOD_OUT
 223:../asf/sam/drivers/afec/afec.h **** };
 224:../asf/sam/drivers/afec/afec.h **** 
 225:../asf/sam/drivers/afec/afec.h **** /**
 226:../asf/sam/drivers/afec/afec.h ****  * \brief Analog-Front-End Controller configuration structure.
 227:../asf/sam/drivers/afec/afec.h ****  *
 228:../asf/sam/drivers/afec/afec.h ****  * Configuration structure for a Analog-Front-End Controller instance.
 229:../asf/sam/drivers/afec/afec.h ****  * This structure could be initialized by the \ref afec_get_config_defaults()
 230:../asf/sam/drivers/afec/afec.h ****  * function before being modified by the user application.
 231:../asf/sam/drivers/afec/afec.h ****  */
 232:../asf/sam/drivers/afec/afec.h **** struct afec_config {
 233:../asf/sam/drivers/afec/afec.h **** 	/** Resolution */
 234:../asf/sam/drivers/afec/afec.h **** 	enum afec_resolution resolution;
 235:../asf/sam/drivers/afec/afec.h **** 	/** Master Clock */
 236:../asf/sam/drivers/afec/afec.h **** 	uint32_t mck;
 237:../asf/sam/drivers/afec/afec.h **** 	/** AFEC Clock */
 238:../asf/sam/drivers/afec/afec.h **** 	uint32_t afec_clock;
 239:../asf/sam/drivers/afec/afec.h **** 	/** Start Up Time */
 240:../asf/sam/drivers/afec/afec.h **** 	enum afec_startup_time startup_time;
 241:../asf/sam/drivers/afec/afec.h **** 	#if  SAM4E
 242:../asf/sam/drivers/afec/afec.h **** 		/** Analog Settling Time = (settling_time + 1) / AFEC clock */
 243:../asf/sam/drivers/afec/afec.h **** 		enum afec_settling_time settling_time;
 244:../asf/sam/drivers/afec/afec.h **** 	#endif
 245:../asf/sam/drivers/afec/afec.h **** 	/** Tracking Time = tracktim / AFEC clock */
 246:../asf/sam/drivers/afec/afec.h **** 	uint8_t tracktim;
 247:../asf/sam/drivers/afec/afec.h **** 	/** Transfer Period = (transfer * 2 + 3) / AFEC clock */
 248:../asf/sam/drivers/afec/afec.h **** 	uint8_t transfer;
 249:../asf/sam/drivers/afec/afec.h **** 	/** Analog Change */
 250:../asf/sam/drivers/afec/afec.h **** 	bool anach;
 251:../asf/sam/drivers/afec/afec.h **** 	/** Use Sequence Enable */
 252:../asf/sam/drivers/afec/afec.h **** 	bool useq;
 253:../asf/sam/drivers/afec/afec.h **** 	/** TAG of AFE_LDCR register */
 254:../asf/sam/drivers/afec/afec.h **** 	bool tag;
 255:../asf/sam/drivers/afec/afec.h **** 	/** Single Trigger Mode */
 256:../asf/sam/drivers/afec/afec.h **** 	bool stm;
 257:../asf/sam/drivers/afec/afec.h **** 	/** AFE Bias Current Control */
 258:../asf/sam/drivers/afec/afec.h **** 	uint8_t ibctl;
 259:../asf/sam/drivers/afec/afec.h **** };
 260:../asf/sam/drivers/afec/afec.h **** 
 261:../asf/sam/drivers/afec/afec.h **** /** AFEC channel configuration structure.*/
 262:../asf/sam/drivers/afec/afec.h **** struct afec_ch_config {
 263:../asf/sam/drivers/afec/afec.h **** 	/** Differential Mode */
 264:../asf/sam/drivers/afec/afec.h **** 	bool diff;
 265:../asf/sam/drivers/afec/afec.h **** 	/** Gain Value */
 266:../asf/sam/drivers/afec/afec.h **** 	enum afec_gainvalue gain;
 267:../asf/sam/drivers/afec/afec.h **** };
 268:../asf/sam/drivers/afec/afec.h **** 
 269:../asf/sam/drivers/afec/afec.h **** /** AFEC Temperature Sensor configuration structure.*/
 270:../asf/sam/drivers/afec/afec.h **** struct afec_temp_sensor_config {
 271:../asf/sam/drivers/afec/afec.h **** 	/** RTC Trigger mode */
 272:../asf/sam/drivers/afec/afec.h **** 	bool rctc;
 273:../asf/sam/drivers/afec/afec.h **** 	/** Temperature Comparison Mode */
 274:../asf/sam/drivers/afec/afec.h **** 	enum afec_temp_cmp_mode mode;
ARM GAS  /tmp/ccQNhOlE.s 			page 16


 275:../asf/sam/drivers/afec/afec.h **** 	/** Temperature Low Threshold */
 276:../asf/sam/drivers/afec/afec.h **** 	uint16_t low_threshold;
 277:../asf/sam/drivers/afec/afec.h **** 	/** Temperature High Threshold */
 278:../asf/sam/drivers/afec/afec.h **** 	uint16_t high_threshold;
 279:../asf/sam/drivers/afec/afec.h **** };
 280:../asf/sam/drivers/afec/afec.h **** 
 281:../asf/sam/drivers/afec/afec.h **** #if defined __SAM4E8C__  || defined __SAM4E16C__ || defined __SAM4E8CB__  || defined __SAM4E16CB__
 282:../asf/sam/drivers/afec/afec.h **** /** AFEC interrupt source type */
 283:../asf/sam/drivers/afec/afec.h **** enum afec_interrupt_source {
 284:../asf/sam/drivers/afec/afec.h **** 	AFEC_INTERRUPT_EOC_0 = 0,
 285:../asf/sam/drivers/afec/afec.h **** 	AFEC_INTERRUPT_EOC_1,
 286:../asf/sam/drivers/afec/afec.h **** 	AFEC_INTERRUPT_EOC_2,
 287:../asf/sam/drivers/afec/afec.h **** 	AFEC_INTERRUPT_EOC_3,
 288:../asf/sam/drivers/afec/afec.h **** 	AFEC_INTERRUPT_EOC_4,
 289:../asf/sam/drivers/afec/afec.h **** 	AFEC_INTERRUPT_EOC_5,
 290:../asf/sam/drivers/afec/afec.h **** 	AFEC_INTERRUPT_EOC_15,
 291:../asf/sam/drivers/afec/afec.h **** 	AFEC_INTERRUPT_DATA_READY,
 292:../asf/sam/drivers/afec/afec.h **** 	AFEC_INTERRUPT_OVERRUN_ERROR,
 293:../asf/sam/drivers/afec/afec.h **** 	AFEC_INTERRUPT_COMP_ERROR,
 294:../asf/sam/drivers/afec/afec.h **** 	AFEC_INTERRUPT_END_RXBUF,
 295:../asf/sam/drivers/afec/afec.h **** 	AFEC_INTERRUPT_RXBUF_FULL,
 296:../asf/sam/drivers/afec/afec.h **** 	AFEC_INTERRUPT_TEMP_CHANGE,
 297:../asf/sam/drivers/afec/afec.h **** 	AFEC_INTERRUPT_END_CAL,
 298:../asf/sam/drivers/afec/afec.h **** 	_AFEC_NUM_OF_INTERRUPT_SOURCE,
 299:../asf/sam/drivers/afec/afec.h **** 	AFEC_INTERRUPT_ALL = 0xDF00803F,
 300:../asf/sam/drivers/afec/afec.h **** };
 301:../asf/sam/drivers/afec/afec.h **** #elif defined __SAM4E8E__  || defined __SAM4E16E__
 302:../asf/sam/drivers/afec/afec.h **** /** AFEC interrupt source type */
 303:../asf/sam/drivers/afec/afec.h **** enum afec_interrupt_source {
 304:../asf/sam/drivers/afec/afec.h **** 	AFEC_INTERRUPT_EOC_0 = 0,
 305:../asf/sam/drivers/afec/afec.h **** 	AFEC_INTERRUPT_EOC_1,
 306:../asf/sam/drivers/afec/afec.h **** 	AFEC_INTERRUPT_EOC_2,
 307:../asf/sam/drivers/afec/afec.h **** 	AFEC_INTERRUPT_EOC_3,
 308:../asf/sam/drivers/afec/afec.h **** 	AFEC_INTERRUPT_EOC_4,
 309:../asf/sam/drivers/afec/afec.h **** 	AFEC_INTERRUPT_EOC_5,
 310:../asf/sam/drivers/afec/afec.h **** 	AFEC_INTERRUPT_EOC_6,
 311:../asf/sam/drivers/afec/afec.h **** 	AFEC_INTERRUPT_EOC_7,
 312:../asf/sam/drivers/afec/afec.h **** 	AFEC_INTERRUPT_EOC_8,
 313:../asf/sam/drivers/afec/afec.h **** 	AFEC_INTERRUPT_EOC_9,
 314:../asf/sam/drivers/afec/afec.h **** 	AFEC_INTERRUPT_EOC_10,
 315:../asf/sam/drivers/afec/afec.h **** 	AFEC_INTERRUPT_EOC_11,
 316:../asf/sam/drivers/afec/afec.h **** 	AFEC_INTERRUPT_EOC_12,
 317:../asf/sam/drivers/afec/afec.h **** 	AFEC_INTERRUPT_EOC_13,
 318:../asf/sam/drivers/afec/afec.h **** 	AFEC_INTERRUPT_EOC_14,
 319:../asf/sam/drivers/afec/afec.h **** 	AFEC_INTERRUPT_EOC_15,
 320:../asf/sam/drivers/afec/afec.h **** 	AFEC_INTERRUPT_DATA_READY,
 321:../asf/sam/drivers/afec/afec.h **** 	AFEC_INTERRUPT_OVERRUN_ERROR,
 322:../asf/sam/drivers/afec/afec.h **** 	AFEC_INTERRUPT_COMP_ERROR,
 323:../asf/sam/drivers/afec/afec.h **** 	AFEC_INTERRUPT_END_RXBUF,
 324:../asf/sam/drivers/afec/afec.h **** 	AFEC_INTERRUPT_RXBUF_FULL,
 325:../asf/sam/drivers/afec/afec.h **** 	AFEC_INTERRUPT_TEMP_CHANGE,
 326:../asf/sam/drivers/afec/afec.h **** 	AFEC_INTERRUPT_END_CAL,
 327:../asf/sam/drivers/afec/afec.h **** 	_AFEC_NUM_OF_INTERRUPT_SOURCE,
 328:../asf/sam/drivers/afec/afec.h **** 	AFEC_INTERRUPT_ALL = 0xDF00FFFF,
 329:../asf/sam/drivers/afec/afec.h **** };
 330:../asf/sam/drivers/afec/afec.h **** #elif (SAMV71 || SAMV70 || SAME70 || SAMS70)
 331:../asf/sam/drivers/afec/afec.h **** /** AFEC interrupt source type */
ARM GAS  /tmp/ccQNhOlE.s 			page 17


 332:../asf/sam/drivers/afec/afec.h **** enum afec_interrupt_source {
 333:../asf/sam/drivers/afec/afec.h **** 	AFEC_INTERRUPT_EOC_0 = 0,
 334:../asf/sam/drivers/afec/afec.h **** 	AFEC_INTERRUPT_EOC_1,
 335:../asf/sam/drivers/afec/afec.h **** 	AFEC_INTERRUPT_EOC_2,
 336:../asf/sam/drivers/afec/afec.h **** 	AFEC_INTERRUPT_EOC_3,
 337:../asf/sam/drivers/afec/afec.h **** 	AFEC_INTERRUPT_EOC_4,
 338:../asf/sam/drivers/afec/afec.h **** 	AFEC_INTERRUPT_EOC_5,
 339:../asf/sam/drivers/afec/afec.h **** 	AFEC_INTERRUPT_EOC_6,
 340:../asf/sam/drivers/afec/afec.h **** 	AFEC_INTERRUPT_EOC_7,
 341:../asf/sam/drivers/afec/afec.h **** 	AFEC_INTERRUPT_EOC_8,
 342:../asf/sam/drivers/afec/afec.h **** 	AFEC_INTERRUPT_EOC_9,
 343:../asf/sam/drivers/afec/afec.h **** 	AFEC_INTERRUPT_EOC_10,
 344:../asf/sam/drivers/afec/afec.h **** 	AFEC_INTERRUPT_EOC_11,
 345:../asf/sam/drivers/afec/afec.h **** 	AFEC_INTERRUPT_DATA_READY,
 346:../asf/sam/drivers/afec/afec.h **** 	AFEC_INTERRUPT_OVERRUN_ERROR,
 347:../asf/sam/drivers/afec/afec.h **** 	AFEC_INTERRUPT_COMP_ERROR,
 348:../asf/sam/drivers/afec/afec.h **** 	AFEC_INTERRUPT_TEMP_CHANGE,
 349:../asf/sam/drivers/afec/afec.h **** 	_AFEC_NUM_OF_INTERRUPT_SOURCE,
 350:../asf/sam/drivers/afec/afec.h **** 	AFEC_INTERRUPT_ALL = 0x47000FFF,
 351:../asf/sam/drivers/afec/afec.h **** };
 352:../asf/sam/drivers/afec/afec.h **** #endif
 353:../asf/sam/drivers/afec/afec.h **** 
 354:../asf/sam/drivers/afec/afec.h **** typedef void (*afec_callback_t)(void);
 355:../asf/sam/drivers/afec/afec.h **** 
 356:../asf/sam/drivers/afec/afec.h **** void afec_get_config_defaults(struct afec_config *const cfg);
 357:../asf/sam/drivers/afec/afec.h **** void afec_ch_get_config_defaults(struct afec_ch_config *const cfg);
 358:../asf/sam/drivers/afec/afec.h **** void afec_temp_sensor_get_config_defaults(
 359:../asf/sam/drivers/afec/afec.h **** 		struct afec_temp_sensor_config *const cfg);
 360:../asf/sam/drivers/afec/afec.h **** enum status_code afec_init(Afec *const afec, struct afec_config *const config);
 361:../asf/sam/drivers/afec/afec.h **** void afec_temp_sensor_set_config(Afec *const afec,
 362:../asf/sam/drivers/afec/afec.h **** 		struct afec_temp_sensor_config *config);
 363:../asf/sam/drivers/afec/afec.h **** void afec_ch_set_config(Afec *const afec, const enum afec_channel_num channel,
 364:../asf/sam/drivers/afec/afec.h **** 		struct afec_ch_config *config);
 365:../asf/sam/drivers/afec/afec.h **** void afec_configure_sequence(Afec *const afec,
 366:../asf/sam/drivers/afec/afec.h **** 		const enum afec_channel_num ch_list[], const uint8_t uc_num);
 367:../asf/sam/drivers/afec/afec.h **** void afec_enable(Afec *const afec);
 368:../asf/sam/drivers/afec/afec.h **** void afec_disable(Afec *const afec);
 369:../asf/sam/drivers/afec/afec.h **** void afec_set_callback(Afec *const afec, enum afec_interrupt_source source,
 370:../asf/sam/drivers/afec/afec.h **** 		afec_callback_t callback, uint8_t irq_level);
 371:../asf/sam/drivers/afec/afec.h **** 
 372:../asf/sam/drivers/afec/afec.h **** #if (SAMV71 || SAMV70 || SAME70 || SAMS70)
 373:../asf/sam/drivers/afec/afec.h **** void afec_configure_auto_error_correction(Afec *const afec,
 374:../asf/sam/drivers/afec/afec.h **** 		const enum afec_channel_num channel,int16_t offsetcorr, uint16_t gaincorr);
 375:../asf/sam/drivers/afec/afec.h **** 
 376:../asf/sam/drivers/afec/afec.h **** uint32_t afec_get_correction_value(Afec *const afec,
 377:../asf/sam/drivers/afec/afec.h **** 	   const enum afec_channel_num afec_ch);
 378:../asf/sam/drivers/afec/afec.h **** void afec_set_sample_hold_mode(Afec *const afec,
 379:../asf/sam/drivers/afec/afec.h **** 		const enum afec_channel_num channel,const enum afec_sample_hold_mode mode);
 380:../asf/sam/drivers/afec/afec.h **** 
 381:../asf/sam/drivers/afec/afec.h **** #endif
 382:../asf/sam/drivers/afec/afec.h **** /**
 383:../asf/sam/drivers/afec/afec.h ****  * \internal
 384:../asf/sam/drivers/afec/afec.h ****  * \brief AFEC channel sanity check
 385:../asf/sam/drivers/afec/afec.h ****  *
 386:../asf/sam/drivers/afec/afec.h ****  * \param afec  Base address of the AFEC.
 387:../asf/sam/drivers/afec/afec.h ****  * \param channel  AFEC channel number.
 388:../asf/sam/drivers/afec/afec.h ****  *
ARM GAS  /tmp/ccQNhOlE.s 			page 18


 389:../asf/sam/drivers/afec/afec.h ****  */
 390:../asf/sam/drivers/afec/afec.h **** static inline void afec_ch_sanity_check(Afec *const afec,
 391:../asf/sam/drivers/afec/afec.h **** 		const enum afec_channel_num channel)
 392:../asf/sam/drivers/afec/afec.h **** {
 393:../asf/sam/drivers/afec/afec.h **** 	if (afec == AFEC0) {
 394:../asf/sam/drivers/afec/afec.h **** 	#if defined __SAM4E8C__  || defined __SAM4E16C__ || defined __SAM4E8CB__  || defined __SAM4E16CB__
 395:../asf/sam/drivers/afec/afec.h **** 		Assert((channel < NB_CH_AFE0) || (channel == AFEC_TEMPERATURE_SENSOR));
 396:../asf/sam/drivers/afec/afec.h **** 	#elif defined __SAM4E8E__  || defined __SAM4E16E__
 397:../asf/sam/drivers/afec/afec.h **** 		Assert(channel < NB_CH_AFE0);
 398:../asf/sam/drivers/afec/afec.h **** 	#elif (SAMV71 || SAMV70 || SAME70 || SAMS70)
 399:../asf/sam/drivers/afec/afec.h **** 		Assert(channel < NB_CH_AFE0);
 400:../asf/sam/drivers/afec/afec.h **** 	#endif
 401:../asf/sam/drivers/afec/afec.h **** 	} else if (afec == AFEC1) {
 402:../asf/sam/drivers/afec/afec.h **** 		Assert(channel < NB_CH_AFE1);
 403:../asf/sam/drivers/afec/afec.h **** 	}
 404:../asf/sam/drivers/afec/afec.h **** 	UNUSED(channel);
 405:../asf/sam/drivers/afec/afec.h **** }
 406:../asf/sam/drivers/afec/afec.h **** 
 407:../asf/sam/drivers/afec/afec.h **** /**
 408:../asf/sam/drivers/afec/afec.h ****  * \brief Configure conversion trigger and free run mode.
 409:../asf/sam/drivers/afec/afec.h ****  *
 410:../asf/sam/drivers/afec/afec.h ****  * \param afec  Base address of the AFEC.
 411:../asf/sam/drivers/afec/afec.h ****  * \param trigger Conversion trigger.
 412:../asf/sam/drivers/afec/afec.h ****  *
 413:../asf/sam/drivers/afec/afec.h ****  */
 414:../asf/sam/drivers/afec/afec.h **** static inline void afec_set_trigger(Afec *const afec,
 415:../asf/sam/drivers/afec/afec.h **** 		const enum afec_trigger trigger)
 416:../asf/sam/drivers/afec/afec.h **** {
 417:../asf/sam/drivers/afec/afec.h **** 	uint32_t reg;
 418:../asf/sam/drivers/afec/afec.h **** 
 419:../asf/sam/drivers/afec/afec.h **** 	reg = afec->AFEC_MR;
 420:../asf/sam/drivers/afec/afec.h **** 
 421:../asf/sam/drivers/afec/afec.h **** 	if (trigger == AFEC_TRIG_FREERUN) {
 422:../asf/sam/drivers/afec/afec.h **** 		reg |= AFEC_MR_FREERUN_ON;
 423:../asf/sam/drivers/afec/afec.h **** 	} else {
 424:../asf/sam/drivers/afec/afec.h **** 		reg &= ~(AFEC_MR_TRGSEL_Msk | AFEC_MR_TRGEN | AFEC_MR_FREERUN_ON);
 425:../asf/sam/drivers/afec/afec.h **** 		reg |= trigger;
 426:../asf/sam/drivers/afec/afec.h **** 	}
 427:../asf/sam/drivers/afec/afec.h **** 
 428:../asf/sam/drivers/afec/afec.h **** 	afec->AFEC_MR = reg;
 429:../asf/sam/drivers/afec/afec.h **** }
 430:../asf/sam/drivers/afec/afec.h **** 
 431:../asf/sam/drivers/afec/afec.h **** /**
 432:../asf/sam/drivers/afec/afec.h ****  * \brief Configure conversion resolution.
 433:../asf/sam/drivers/afec/afec.h ****  *
 434:../asf/sam/drivers/afec/afec.h ****  * \param afec  Base address of the AFEC.
 435:../asf/sam/drivers/afec/afec.h ****  * \param res Conversion resolution.
 436:../asf/sam/drivers/afec/afec.h ****  *
 437:../asf/sam/drivers/afec/afec.h ****  */
 438:../asf/sam/drivers/afec/afec.h **** static inline void afec_set_resolution(Afec *const afec,
 439:../asf/sam/drivers/afec/afec.h **** 		const enum afec_resolution res)
 440:../asf/sam/drivers/afec/afec.h **** {
 441:../asf/sam/drivers/afec/afec.h **** 	uint32_t reg;
 442:../asf/sam/drivers/afec/afec.h **** 
 443:../asf/sam/drivers/afec/afec.h **** 	reg = afec->AFEC_EMR;
 444:../asf/sam/drivers/afec/afec.h **** 
 445:../asf/sam/drivers/afec/afec.h **** 	reg &= ~AFEC_EMR_RES_Msk;
ARM GAS  /tmp/ccQNhOlE.s 			page 19


 446:../asf/sam/drivers/afec/afec.h **** 	reg |= res;
 447:../asf/sam/drivers/afec/afec.h **** 
 448:../asf/sam/drivers/afec/afec.h **** 	afec->AFEC_EMR = reg;
 449:../asf/sam/drivers/afec/afec.h **** }
 450:../asf/sam/drivers/afec/afec.h **** 
 451:../asf/sam/drivers/afec/afec.h **** void afec_set_comparison_mode(Afec *const afec,
 452:../asf/sam/drivers/afec/afec.h **** 		const enum afec_cmp_mode mode, const enum afec_channel_num channel,
 453:../asf/sam/drivers/afec/afec.h **** 		uint8_t cmp_filter);
 454:../asf/sam/drivers/afec/afec.h **** 
 455:../asf/sam/drivers/afec/afec.h **** /**
 456:../asf/sam/drivers/afec/afec.h ****  * \brief Get comparison mode.
 457:../asf/sam/drivers/afec/afec.h ****  *
 458:../asf/sam/drivers/afec/afec.h ****  * \param afec  Base address of the AFEC.
 459:../asf/sam/drivers/afec/afec.h ****  *
 460:../asf/sam/drivers/afec/afec.h ****  * \retval Compare mode value.
 461:../asf/sam/drivers/afec/afec.h ****  */
 462:../asf/sam/drivers/afec/afec.h **** static inline enum afec_cmp_mode afec_get_comparison_mode(Afec *const afec)
 463:../asf/sam/drivers/afec/afec.h **** {
 464:../asf/sam/drivers/afec/afec.h **** 	return (enum afec_cmp_mode)(afec->AFEC_EMR & AFEC_EMR_CMPMODE_Msk);
 465:../asf/sam/drivers/afec/afec.h **** }
 466:../asf/sam/drivers/afec/afec.h **** 
 467:../asf/sam/drivers/afec/afec.h **** /**
 468:../asf/sam/drivers/afec/afec.h ****  * \brief Configure AFEC compare window.
 469:../asf/sam/drivers/afec/afec.h ****  *
 470:../asf/sam/drivers/afec/afec.h ****  * \param afec  Base address of the AFEC.
 471:../asf/sam/drivers/afec/afec.h ****  * \param us_low_threshold Low threshold of compare window.
 472:../asf/sam/drivers/afec/afec.h ****  * \param us_high_threshold High threshold of compare window.
 473:../asf/sam/drivers/afec/afec.h ****  */
 474:../asf/sam/drivers/afec/afec.h **** static inline void afec_set_comparison_window(Afec *const afec,
 475:../asf/sam/drivers/afec/afec.h **** 		const uint16_t us_low_threshold, const uint16_t us_high_threshold)
 476:../asf/sam/drivers/afec/afec.h **** {
 477:../asf/sam/drivers/afec/afec.h **** 	afec->AFEC_CWR = AFEC_CWR_LOWTHRES(us_low_threshold) |
 478:../asf/sam/drivers/afec/afec.h **** 			AFEC_CWR_HIGHTHRES(us_high_threshold);
 479:../asf/sam/drivers/afec/afec.h **** }
 480:../asf/sam/drivers/afec/afec.h **** 
 481:../asf/sam/drivers/afec/afec.h **** /**
 482:../asf/sam/drivers/afec/afec.h ****  * \brief Enable or disable write protection of AFEC registers.
 483:../asf/sam/drivers/afec/afec.h ****  *
 484:../asf/sam/drivers/afec/afec.h ****  * \param afec  Base address of the AFEC.
 485:../asf/sam/drivers/afec/afec.h ****  * \param is_enable 1 to enable, 0 to disable.
 486:../asf/sam/drivers/afec/afec.h ****  */
 487:../asf/sam/drivers/afec/afec.h **** static inline void afec_set_writeprotect(Afec *const afec,
 488:../asf/sam/drivers/afec/afec.h **** 		const bool is_enable)
 489:../asf/sam/drivers/afec/afec.h **** {
 490:../asf/sam/drivers/afec/afec.h **** 	if (is_enable) {
 491:../asf/sam/drivers/afec/afec.h **** 		afec->AFEC_WPMR = AFEC_WPMR_WPEN | AFEC_WPMR_WPKEY_PASSWD;
 492:../asf/sam/drivers/afec/afec.h **** 	} else {
 493:../asf/sam/drivers/afec/afec.h **** 		afec->AFEC_WPMR = AFEC_WPMR_WPKEY_PASSWD;
 494:../asf/sam/drivers/afec/afec.h **** 	}
 495:../asf/sam/drivers/afec/afec.h **** }
 496:../asf/sam/drivers/afec/afec.h **** 
 497:../asf/sam/drivers/afec/afec.h **** /**
 498:../asf/sam/drivers/afec/afec.h ****  * \brief Indicate write protect status.
 499:../asf/sam/drivers/afec/afec.h ****  *
 500:../asf/sam/drivers/afec/afec.h ****  * \param afec  Base address of the AFEC.
 501:../asf/sam/drivers/afec/afec.h ****  *
 502:../asf/sam/drivers/afec/afec.h ****  * \return 0 if no write protect violation occurred, or 16-bit write protect
ARM GAS  /tmp/ccQNhOlE.s 			page 20


 503:../asf/sam/drivers/afec/afec.h ****  * violation source.
 504:../asf/sam/drivers/afec/afec.h ****  */
 505:../asf/sam/drivers/afec/afec.h **** static inline uint32_t afec_get_writeprotect_status(Afec *const afec)
 506:../asf/sam/drivers/afec/afec.h **** {
 507:../asf/sam/drivers/afec/afec.h **** 	uint32_t reg_value;
 508:../asf/sam/drivers/afec/afec.h **** 
 509:../asf/sam/drivers/afec/afec.h **** 	reg_value = afec->AFEC_WPSR;
 510:../asf/sam/drivers/afec/afec.h **** 	if (reg_value & AFEC_WPSR_WPVS) {
 511:../asf/sam/drivers/afec/afec.h **** 		return (reg_value & AFEC_WPSR_WPVSRC_Msk) >> AFEC_WPSR_WPVSRC_Pos;
 512:../asf/sam/drivers/afec/afec.h **** 	} else {
 513:../asf/sam/drivers/afec/afec.h **** 		return 0;
 514:../asf/sam/drivers/afec/afec.h **** 	}
 515:../asf/sam/drivers/afec/afec.h **** }
 516:../asf/sam/drivers/afec/afec.h **** 
 517:../asf/sam/drivers/afec/afec.h **** /**
 518:../asf/sam/drivers/afec/afec.h ****  * \brief Get AFEC overrun error status.
 519:../asf/sam/drivers/afec/afec.h ****  *
 520:../asf/sam/drivers/afec/afec.h ****  * \param afec  Base address of the AFEC.
 521:../asf/sam/drivers/afec/afec.h ****  *
 522:../asf/sam/drivers/afec/afec.h ****  * \return AFEC overrun error status.
 523:../asf/sam/drivers/afec/afec.h ****  */
 524:../asf/sam/drivers/afec/afec.h **** static inline uint32_t afec_get_overrun_status(Afec *const afec)
 525:../asf/sam/drivers/afec/afec.h **** {
 526:../asf/sam/drivers/afec/afec.h **** 	return afec->AFEC_OVER;
 527:../asf/sam/drivers/afec/afec.h **** }
 528:../asf/sam/drivers/afec/afec.h **** 
 529:../asf/sam/drivers/afec/afec.h **** /**
 530:../asf/sam/drivers/afec/afec.h ****  * \brief Start analog-to-digital conversion.
 531:../asf/sam/drivers/afec/afec.h ****  *
 532:../asf/sam/drivers/afec/afec.h ****  * \note If one of the hardware event is selected as AFEC trigger,
 533:../asf/sam/drivers/afec/afec.h ****  * this function can NOT start analog to digital conversion.
 534:../asf/sam/drivers/afec/afec.h ****  *
 535:../asf/sam/drivers/afec/afec.h ****  * \param afec  Base address of the AFEC.
 536:../asf/sam/drivers/afec/afec.h ****  */
 537:../asf/sam/drivers/afec/afec.h **** static inline void afec_start_software_conversion(Afec *const afec)
 538:../asf/sam/drivers/afec/afec.h **** {
 539:../asf/sam/drivers/afec/afec.h **** 	afec->AFEC_CR = AFEC_CR_START;
 540:../asf/sam/drivers/afec/afec.h **** }
 541:../asf/sam/drivers/afec/afec.h **** 
 542:../asf/sam/drivers/afec/afec.h **** void afec_set_power_mode(Afec *const afec,
 543:../asf/sam/drivers/afec/afec.h **** 		const enum afec_power_mode mode);
 544:../asf/sam/drivers/afec/afec.h **** 
 545:../asf/sam/drivers/afec/afec.h **** /**
 546:../asf/sam/drivers/afec/afec.h ****  * \brief Enable the specified AFEC channel.
 547:../asf/sam/drivers/afec/afec.h ****  *
 548:../asf/sam/drivers/afec/afec.h ****  * \param afec  Base address of the AFEC.
 549:../asf/sam/drivers/afec/afec.h ****  * \param afec_ch AFEC channel number.
 550:../asf/sam/drivers/afec/afec.h ****  */
 551:../asf/sam/drivers/afec/afec.h **** static inline void afec_channel_enable(Afec *const afec,
 552:../asf/sam/drivers/afec/afec.h **** 		const enum afec_channel_num afec_ch)
 553:../asf/sam/drivers/afec/afec.h **** {
 554:../asf/sam/drivers/afec/afec.h **** 	if (afec_ch != AFEC_CHANNEL_ALL) {
 555:../asf/sam/drivers/afec/afec.h **** 		afec_ch_sanity_check(afec, afec_ch);
 556:../asf/sam/drivers/afec/afec.h **** 	}
 557:../asf/sam/drivers/afec/afec.h **** 
 558:../asf/sam/drivers/afec/afec.h **** 	afec->AFEC_CHER = (afec_ch == AFEC_CHANNEL_ALL) ?
 559:../asf/sam/drivers/afec/afec.h **** 			AFEC_CHANNEL_ALL : 1 << afec_ch;
ARM GAS  /tmp/ccQNhOlE.s 			page 21


 560:../asf/sam/drivers/afec/afec.h **** }
 561:../asf/sam/drivers/afec/afec.h **** 
 562:../asf/sam/drivers/afec/afec.h **** /**
 563:../asf/sam/drivers/afec/afec.h ****  * \brief Disable the specified AFEC channel.
 564:../asf/sam/drivers/afec/afec.h ****  *
 565:../asf/sam/drivers/afec/afec.h ****  * \param afec  Base address of the AFEC.
 566:../asf/sam/drivers/afec/afec.h ****  * \param afec_ch AFEC channel number.
 567:../asf/sam/drivers/afec/afec.h ****  */
 568:../asf/sam/drivers/afec/afec.h **** static inline void afec_channel_disable(Afec *const afec,
 569:../asf/sam/drivers/afec/afec.h **** 		const enum afec_channel_num afec_ch)
 570:../asf/sam/drivers/afec/afec.h **** {
 571:../asf/sam/drivers/afec/afec.h **** 	if (afec_ch != AFEC_CHANNEL_ALL) {
 572:../asf/sam/drivers/afec/afec.h **** 		afec_ch_sanity_check(afec, afec_ch);
 573:../asf/sam/drivers/afec/afec.h **** 	}
 574:../asf/sam/drivers/afec/afec.h **** 
 575:../asf/sam/drivers/afec/afec.h **** 	afec->AFEC_CHDR = (afec_ch == AFEC_CHANNEL_ALL) ?
 576:../asf/sam/drivers/afec/afec.h **** 			AFEC_CHANNEL_ALL : 1 << afec_ch;
 577:../asf/sam/drivers/afec/afec.h **** }
 578:../asf/sam/drivers/afec/afec.h **** 
 579:../asf/sam/drivers/afec/afec.h **** /**
 580:../asf/sam/drivers/afec/afec.h ****  * \brief Get the AFEC channel status.
 581:../asf/sam/drivers/afec/afec.h ****  *
 582:../asf/sam/drivers/afec/afec.h ****  * \param afec  Base address of the AFEC.
 583:../asf/sam/drivers/afec/afec.h ****  * \param afec_ch AFEC channel number.
 584:../asf/sam/drivers/afec/afec.h ****  *
 585:../asf/sam/drivers/afec/afec.h ****  * \retval 1 if channel is enabled.
 586:../asf/sam/drivers/afec/afec.h ****  * \retval 0 if channel is disabled.
 587:../asf/sam/drivers/afec/afec.h ****  */
 588:../asf/sam/drivers/afec/afec.h **** static inline uint32_t afec_channel_get_status(Afec *const afec,
 589:../asf/sam/drivers/afec/afec.h **** 		const enum afec_channel_num afec_ch)
 590:../asf/sam/drivers/afec/afec.h **** {
 591:../asf/sam/drivers/afec/afec.h **** 	afec_ch_sanity_check(afec, afec_ch);
 592:../asf/sam/drivers/afec/afec.h **** 
 593:../asf/sam/drivers/afec/afec.h **** 	return afec->AFEC_CHSR & (1 << afec_ch);
 594:../asf/sam/drivers/afec/afec.h **** }
 595:../asf/sam/drivers/afec/afec.h **** 
 596:../asf/sam/drivers/afec/afec.h **** /**
 597:../asf/sam/drivers/afec/afec.h ****  * \brief Read the Converted Data of the selected channel.
 598:../asf/sam/drivers/afec/afec.h ****  *
 599:../asf/sam/drivers/afec/afec.h ****  * \param afec  Base address of the AFEC.
 600:../asf/sam/drivers/afec/afec.h ****  * \param afec_ch AFEC channel number.
 601:../asf/sam/drivers/afec/afec.h ****  *
 602:../asf/sam/drivers/afec/afec.h ****  * \return AFEC converted value of the selected channel.
 603:../asf/sam/drivers/afec/afec.h ****  */
 604:../asf/sam/drivers/afec/afec.h **** static inline uint32_t afec_channel_get_value(Afec *const afec,
 605:../asf/sam/drivers/afec/afec.h **** 		enum afec_channel_num afec_ch)
 606:../asf/sam/drivers/afec/afec.h **** {
 607:../asf/sam/drivers/afec/afec.h **** 	afec_ch_sanity_check(afec, afec_ch);
 608:../asf/sam/drivers/afec/afec.h **** 
 609:../asf/sam/drivers/afec/afec.h **** 	afec->AFEC_CSELR = afec_ch;
 610:../asf/sam/drivers/afec/afec.h **** 	return afec->AFEC_CDR;
 611:../asf/sam/drivers/afec/afec.h **** }
 612:../asf/sam/drivers/afec/afec.h **** 
 613:../asf/sam/drivers/afec/afec.h **** /**
 614:../asf/sam/drivers/afec/afec.h ****  * \brief Set analog offset to be used for channel CSEL.
 615:../asf/sam/drivers/afec/afec.h ****  *
 616:../asf/sam/drivers/afec/afec.h ****  * \param afec  Base address of the AFEC.
ARM GAS  /tmp/ccQNhOlE.s 			page 22


 617:../asf/sam/drivers/afec/afec.h ****  * \param afec_ch AFEC channel number.
 618:../asf/sam/drivers/afec/afec.h ****  * \param aoffset  Analog offset value.
 619:../asf/sam/drivers/afec/afec.h ****  */
 620:../asf/sam/drivers/afec/afec.h **** static inline void afec_channel_set_analog_offset(Afec *const afec,
 621:../asf/sam/drivers/afec/afec.h **** 		enum afec_channel_num afec_ch, uint16_t aoffset)
 622:../asf/sam/drivers/afec/afec.h **** {
 623:../asf/sam/drivers/afec/afec.h **** 	afec_ch_sanity_check(afec, afec_ch);
 624:../asf/sam/drivers/afec/afec.h **** 
 625:../asf/sam/drivers/afec/afec.h **** 	afec->AFEC_CSELR = afec_ch;
 626:../asf/sam/drivers/afec/afec.h **** 	afec->AFEC_COCR = (aoffset & AFEC_COCR_AOFF_Msk);
 627:../asf/sam/drivers/afec/afec.h **** }
 628:../asf/sam/drivers/afec/afec.h **** 
 629:../asf/sam/drivers/afec/afec.h **** /**
 630:../asf/sam/drivers/afec/afec.h ****  * \brief Get the Last Data Converted.
 631:../asf/sam/drivers/afec/afec.h ****  *
 632:../asf/sam/drivers/afec/afec.h ****  * \param afec  Base address of the AFEC.
 633:../asf/sam/drivers/afec/afec.h ****  *
 634:../asf/sam/drivers/afec/afec.h ****  * \return AFEC latest converted value.
 635:../asf/sam/drivers/afec/afec.h ****  */
 636:../asf/sam/drivers/afec/afec.h **** static inline uint32_t afec_get_latest_value(Afec *const afec)
 637:../asf/sam/drivers/afec/afec.h **** {
 638:../asf/sam/drivers/afec/afec.h **** 	return afec->AFEC_LCDR & AFEC_LCDR_LDATA_Msk;
 639:../asf/sam/drivers/afec/afec.h **** }
 640:../asf/sam/drivers/afec/afec.h **** 
 641:../asf/sam/drivers/afec/afec.h **** /**
 642:../asf/sam/drivers/afec/afec.h ****  * \brief Get the Last Converted Channel Number.
 643:../asf/sam/drivers/afec/afec.h ****  *
 644:../asf/sam/drivers/afec/afec.h ****  * \param afec  Base address of the AFEC.
 645:../asf/sam/drivers/afec/afec.h ****  *
 646:../asf/sam/drivers/afec/afec.h ****  * \return AFEC Last Converted Channel Number.
 647:../asf/sam/drivers/afec/afec.h ****  */
 648:../asf/sam/drivers/afec/afec.h **** static inline uint32_t afec_get_latest_chan_num(Afec *const afec)
 649:../asf/sam/drivers/afec/afec.h **** {
 650:../asf/sam/drivers/afec/afec.h **** 	return (afec->AFEC_LCDR & AFEC_LCDR_CHNB_Msk) >> AFEC_LCDR_CHNB_Pos;
 651:../asf/sam/drivers/afec/afec.h **** }
 652:../asf/sam/drivers/afec/afec.h **** 
 653:../asf/sam/drivers/afec/afec.h **** void afec_enable_interrupt(Afec *const afec,
 654:../asf/sam/drivers/afec/afec.h **** 		enum afec_interrupt_source interrupt_source);
 655:../asf/sam/drivers/afec/afec.h **** 
 656:../asf/sam/drivers/afec/afec.h **** void afec_disable_interrupt(Afec *const afec,
 657:../asf/sam/drivers/afec/afec.h **** 		enum afec_interrupt_source interrupt_source);
 658:../asf/sam/drivers/afec/afec.h **** 
 659:../asf/sam/drivers/afec/afec.h **** /**
 660:../asf/sam/drivers/afec/afec.h ****  * \brief Get AFEC interrupt status.
 661:../asf/sam/drivers/afec/afec.h ****  *
 662:../asf/sam/drivers/afec/afec.h ****  * \param afec  Base address of the AFEC.
 663:../asf/sam/drivers/afec/afec.h ****  *
 664:../asf/sam/drivers/afec/afec.h ****  * \return The interrupt status value.
 665:../asf/sam/drivers/afec/afec.h ****  */
 666:../asf/sam/drivers/afec/afec.h **** static inline uint32_t afec_get_interrupt_status(Afec *const afec)
 667:../asf/sam/drivers/afec/afec.h **** {
 668:../asf/sam/drivers/afec/afec.h **** 	return afec->AFEC_ISR;
  52              		.loc 2 668 0
  53 0008 026B     		ldr	r2, [r0, #48]
  54              	.LVL1:
  55              	.LBE60:
  56              	.LBE59:
ARM GAS  /tmp/ccQNhOlE.s 			page 23


 530:../asf/sam/drivers/afec/afec.c **** 	volatile uint32_t status;
 531:../asf/sam/drivers/afec/afec.c **** 	uint32_t cnt, inst_num;
 532:../asf/sam/drivers/afec/afec.c **** 
 533:../asf/sam/drivers/afec/afec.c **** 	status = afec_get_interrupt_status(afec) & afec_get_interrupt_mask(afec);
 534:../asf/sam/drivers/afec/afec.c **** 	inst_num = afec_find_inst_num(afec);
 535:../asf/sam/drivers/afec/afec.c **** 
 536:../asf/sam/drivers/afec/afec.c **** 	for (cnt = 0; cnt < _AFEC_NUM_OF_INTERRUPT_SOURCE; cnt++) {
  57              		.loc 1 536 0
  58 000a 0024     		movs	r4, #0
  59              	.LBB61:
  60              	.LBB56:
 112:../asf/sam/drivers/afec/afec.c **** 		return 1;
  61              		.loc 1 112 0
  62 000c C71B     		subs	r7, r0, r7
  63              	.LBE56:
  64              	.LBE61:
  65              	.LBB62:
  66              	.LBB63:
 669:../asf/sam/drivers/afec/afec.h **** }
 670:../asf/sam/drivers/afec/afec.h **** 
 671:../asf/sam/drivers/afec/afec.h **** /**
 672:../asf/sam/drivers/afec/afec.h ****  * \brief Get AFEC interrupt mask.
 673:../asf/sam/drivers/afec/afec.h ****  *
 674:../asf/sam/drivers/afec/afec.h ****  * \param afec  Base address of the AFEC.
 675:../asf/sam/drivers/afec/afec.h ****  *
 676:../asf/sam/drivers/afec/afec.h ****  * \return The interrupt mask value.
 677:../asf/sam/drivers/afec/afec.h ****  */
 678:../asf/sam/drivers/afec/afec.h **** static inline uint32_t afec_get_interrupt_mask(Afec *const afec)
 679:../asf/sam/drivers/afec/afec.h **** {
 680:../asf/sam/drivers/afec/afec.h **** 	return afec->AFEC_IMR;
  67              		.loc 2 680 0
  68 000e C36A     		ldr	r3, [r0, #44]
  69              	.LVL2:
  70 0010 DFF85480 		ldr	r8, .L33+4
  71              	.LBE63:
  72              	.LBE62:
 537:../asf/sam/drivers/afec/afec.c **** 		if (cnt < AFEC_INTERRUPT_DATA_READY) {
 538:../asf/sam/drivers/afec/afec.c **** 		#if defined __SAM4E8C__  || defined __SAM4E16C__ || defined __SAM4E8CB__  || defined __SAM4E16CB_
 539:../asf/sam/drivers/afec/afec.c **** 			if(cnt == AFEC_INTERRUPT_EOC_15) {
 540:../asf/sam/drivers/afec/afec.c **** 				if (status & (1 << AFEC_TEMP_INT_SOURCE_NUM)) {
 541:../asf/sam/drivers/afec/afec.c **** 					afec_interrupt(inst_num, (enum afec_interrupt_source)cnt);
 542:../asf/sam/drivers/afec/afec.c **** 				}
 543:../asf/sam/drivers/afec/afec.c **** 			} else {
 544:../asf/sam/drivers/afec/afec.c **** 				if (status & (1 << cnt)) {
 545:../asf/sam/drivers/afec/afec.c **** 					afec_interrupt(inst_num, (enum afec_interrupt_source)cnt);
 546:../asf/sam/drivers/afec/afec.c **** 				}
 547:../asf/sam/drivers/afec/afec.c **** 			}
 548:../asf/sam/drivers/afec/afec.c **** 		#elif defined __SAM4E8E__  || defined __SAM4E16E__ || SAMV71 || SAMV70 || SAMS70 || SAME70
 549:../asf/sam/drivers/afec/afec.c **** 			if (status & (1 << cnt)) {
 550:../asf/sam/drivers/afec/afec.c **** 				afec_interrupt(inst_num, (enum afec_interrupt_source)cnt);
 551:../asf/sam/drivers/afec/afec.c **** 			}
 552:../asf/sam/drivers/afec/afec.c **** 		#endif
 553:../asf/sam/drivers/afec/afec.c **** 		} else if (cnt < AFEC_INTERRUPT_TEMP_CHANGE) {
 554:../asf/sam/drivers/afec/afec.c **** 			if (status & (1 << (cnt + AFEC_INTERRUPT_GAP1))) {
  73              		.loc 1 554 0
  74 0014 0126     		movs	r6, #1
  75              	.LBB64:
ARM GAS  /tmp/ccQNhOlE.s 			page 24


  76              	.LBB57:
 112:../asf/sam/drivers/afec/afec.c **** 		return 1;
  77              		.loc 1 112 0
  78 0016 B7FA87F7 		clz	r7, r7
  79              	.LBE57:
  80              	.LBE64:
 533:../asf/sam/drivers/afec/afec.c **** 	inst_num = afec_find_inst_num(afec);
  81              		.loc 1 533 0
  82 001a 1340     		ands	r3, r3, r2
  83              	.LBB65:
  84              	.LBB58:
 112:../asf/sam/drivers/afec/afec.c **** 		return 1;
  85              		.loc 1 112 0
  86 001c 7F09     		lsrs	r7, r7, #5
  87              	.LBE58:
  88              	.LBE65:
 533:../asf/sam/drivers/afec/afec.c **** 	inst_num = afec_find_inst_num(afec);
  89              		.loc 1 533 0
  90 001e 0193     		str	r3, [sp, #4]
  91              	.LVL3:
  92 0020 BF01     		lsls	r7, r7, #6
  93 0022 08EB0705 		add	r5, r8, r7
  94 0026 09E0     		b	.L6
  95              	.LVL4:
  96              	.L31:
  97              		.loc 1 554 0
  98 0028 019A     		ldr	r2, [sp, #4]
  99 002a 1342     		tst	r3, r2
 100 002c 02D0     		beq	.L3
 101              	.LBB66:
 102              	.LBB67:
 517:../asf/sam/drivers/afec/afec.c **** 		afec_callback_pointer[inst_num][source]();
 103              		.loc 1 517 0
 104 002e 2B68     		ldr	r3, [r5]
 105 0030 03B1     		cbz	r3, .L3
 518:../asf/sam/drivers/afec/afec.c **** 	}
 106              		.loc 1 518 0
 107 0032 9847     		blx	r3
 108              	.LVL5:
 109              	.L3:
 110              	.LBE67:
 111              	.LBE66:
 536:../asf/sam/drivers/afec/afec.c **** 		if (cnt < AFEC_INTERRUPT_DATA_READY) {
 112              		.loc 1 536 0 discriminator 2
 113 0034 0134     		adds	r4, r4, #1
 114              	.LVL6:
 115 0036 0435     		adds	r5, r5, #4
 116 0038 102C     		cmp	r4, #16
 117 003a 10D0     		beq	.L1
 118              	.LVL7:
 119              	.L6:
 537:../asf/sam/drivers/afec/afec.c **** 		#if defined __SAM4E8C__  || defined __SAM4E16C__ || defined __SAM4E8CB__  || defined __SAM4E16CB_
 120              		.loc 1 537 0
 121 003c 0B2C     		cmp	r4, #11
 549:../asf/sam/drivers/afec/afec.c **** 				afec_interrupt(inst_num, (enum afec_interrupt_source)cnt);
 122              		.loc 1 549 0
 123 003e 06FA04F3 		lsl	r3, r6, r4
ARM GAS  /tmp/ccQNhOlE.s 			page 25


 537:../asf/sam/drivers/afec/afec.c **** 		#if defined __SAM4E8C__  || defined __SAM4E16C__ || defined __SAM4E8CB__  || defined __SAM4E16CB_
 124              		.loc 1 537 0
 125 0042 F1D9     		bls	.L31
 126              	.LVL8:
 127              		.loc 1 554 0
 128 0044 04F10C03 		add	r3, r4, #12
 553:../asf/sam/drivers/afec/afec.c **** 			if (status & (1 << (cnt + AFEC_INTERRUPT_GAP1))) {
 129              		.loc 1 553 0
 130 0048 0F2C     		cmp	r4, #15
 131              		.loc 1 554 0
 132 004a 06FA03F3 		lsl	r3, r6, r3
 553:../asf/sam/drivers/afec/afec.c **** 			if (status & (1 << (cnt + AFEC_INTERRUPT_GAP1))) {
 133              		.loc 1 553 0
 134 004e EBD1     		bne	.L31
 555:../asf/sam/drivers/afec/afec.c **** 				afec_interrupt(inst_num, (enum afec_interrupt_source)cnt);
 556:../asf/sam/drivers/afec/afec.c **** 			}
 557:../asf/sam/drivers/afec/afec.c **** 		} else {
 558:../asf/sam/drivers/afec/afec.c **** 			if (status & (1 << (cnt + AFEC_INTERRUPT_GAP1 + AFEC_INTERRUPT_GAP2))) {
 135              		.loc 1 558 0
 136 0050 019B     		ldr	r3, [sp, #4]
 137 0052 5B00     		lsls	r3, r3, #1
 138 0054 03D5     		bpl	.L1
 139              	.LVL9:
 140              	.LBB68:
 141              	.LBB69:
 517:../asf/sam/drivers/afec/afec.c **** 		afec_callback_pointer[inst_num][source]();
 142              		.loc 1 517 0
 143 0056 4744     		add	r7, r7, r8
 144 0058 FB6B     		ldr	r3, [r7, #60]
 145 005a 03B1     		cbz	r3, .L1
 518:../asf/sam/drivers/afec/afec.c **** 	}
 146              		.loc 1 518 0
 147 005c 9847     		blx	r3
 148              	.LVL10:
 149              	.L1:
 150              	.LBE69:
 151              	.LBE68:
 559:../asf/sam/drivers/afec/afec.c **** 				afec_interrupt(inst_num, (enum afec_interrupt_source)cnt);
 560:../asf/sam/drivers/afec/afec.c **** 			}
 561:../asf/sam/drivers/afec/afec.c **** 		}
 562:../asf/sam/drivers/afec/afec.c **** 	}
 563:../asf/sam/drivers/afec/afec.c **** }
 152              		.loc 1 563 0
 153 005e 02B0     		add	sp, sp, #8
 154              		.cfi_def_cfa_offset 24
 155              		@ sp needed
 156 0060 BDE8F081 		pop	{r4, r5, r6, r7, r8, pc}
 157              	.LVL11:
 158              	.L34:
 159              		.align	2
 160              	.L33:
 161 0064 00400640 		.word	1074151424
 162 0068 00000000 		.word	afec_callback_pointer
 163              		.cfi_endproc
 164              	.LFE201:
 165              		.size	afec_process_callback, .-afec_process_callback
 166              		.section	.text.afec_ch_set_config,"ax",%progbits
ARM GAS  /tmp/ccQNhOlE.s 			page 26


 167              		.align	1
 168              		.p2align 2,,3
 169              		.global	afec_ch_set_config
 170              		.syntax unified
 171              		.thumb
 172              		.thumb_func
 173              		.fpu fpv5-d16
 174              		.type	afec_ch_set_config, %function
 175              	afec_ch_set_config:
 176              	.LFB189:
 192:../asf/sam/drivers/afec/afec.c **** 	afec_ch_sanity_check(afec, channel);
 177              		.loc 1 192 0
 178              		.cfi_startproc
 179              		@ args = 0, pretend = 0, frame = 0
 180              		@ frame_needed = 0, uses_anonymous_args = 0
 181              		@ link register save eliminated.
 182              	.LVL12:
 183 0000 70B4     		push	{r4, r5, r6}
 184              		.cfi_def_cfa_offset 12
 185              		.cfi_offset 4, -12
 186              		.cfi_offset 5, -8
 187              		.cfi_offset 6, -4
 197:../asf/sam/drivers/afec/afec.c **** 	reg |= (config->diff) ? (0x1u << channel) : 0;
 188              		.loc 1 197 0
 189 0002 0123     		movs	r3, #1
 198:../asf/sam/drivers/afec/afec.c **** 	afec->AFEC_DIFFR = reg;
 190              		.loc 1 198 0
 191 0004 1478     		ldrb	r4, [r2]	@ zero_extendqisi2
 196:../asf/sam/drivers/afec/afec.c **** 	reg &= ~(0x1u << channel);
 192              		.loc 1 196 0
 193 0006 066E     		ldr	r6, [r0, #96]
 194              	.LVL13:
 202:../asf/sam/drivers/afec/afec.c **** 	reg |= (config->gain) << (2 * channel);
 195              		.loc 1 202 0
 196 0008 0325     		movs	r5, #3
 197:../asf/sam/drivers/afec/afec.c **** 	reg |= (config->diff) ? (0x1u << channel) : 0;
 197              		.loc 1 197 0
 198 000a 8B40     		lsls	r3, r3, r1
 198:../asf/sam/drivers/afec/afec.c **** 	afec->AFEC_DIFFR = reg;
 199              		.loc 1 198 0
 200 000c 002C     		cmp	r4, #0
 202:../asf/sam/drivers/afec/afec.c **** 	reg |= (config->gain) << (2 * channel);
 201              		.loc 1 202 0
 202 000e 4FEA4104 		lsl	r4, r1, #1
 203:../asf/sam/drivers/afec/afec.c **** 	afec->AFEC_CGR = reg;
 203              		.loc 1 203 0
 204 0012 5178     		ldrb	r1, [r2, #1]	@ zero_extendqisi2
 205              	.LVL14:
 197:../asf/sam/drivers/afec/afec.c **** 	reg |= (config->diff) ? (0x1u << channel) : 0;
 206              		.loc 1 197 0
 207 0014 26EA0306 		bic	r6, r6, r3
 208              	.LVL15:
 198:../asf/sam/drivers/afec/afec.c **** 	afec->AFEC_DIFFR = reg;
 209              		.loc 1 198 0
 210 0018 08BF     		it	eq
 211 001a 0023     		moveq	r3, #0
 202:../asf/sam/drivers/afec/afec.c **** 	reg |= (config->gain) << (2 * channel);
ARM GAS  /tmp/ccQNhOlE.s 			page 27


 212              		.loc 1 202 0
 213 001c 05FA04F2 		lsl	r2, r5, r4
 214              	.LVL16:
 203:../asf/sam/drivers/afec/afec.c **** 	afec->AFEC_CGR = reg;
 215              		.loc 1 203 0
 216 0020 A140     		lsls	r1, r1, r4
 198:../asf/sam/drivers/afec/afec.c **** 	afec->AFEC_DIFFR = reg;
 217              		.loc 1 198 0
 218 0022 3343     		orrs	r3, r3, r6
 219              	.LVL17:
 199:../asf/sam/drivers/afec/afec.c **** 
 220              		.loc 1 199 0
 221 0024 0366     		str	r3, [r0, #96]
 201:../asf/sam/drivers/afec/afec.c **** 	reg &= ~(0x03u << (2 * channel));
 222              		.loc 1 201 0
 223 0026 436D     		ldr	r3, [r0, #84]
 224              	.LVL18:
 202:../asf/sam/drivers/afec/afec.c **** 	reg |= (config->gain) << (2 * channel);
 225              		.loc 1 202 0
 226 0028 23EA0203 		bic	r3, r3, r2
 227              	.LVL19:
 203:../asf/sam/drivers/afec/afec.c **** 	afec->AFEC_CGR = reg;
 228              		.loc 1 203 0
 229 002c 1943     		orrs	r1, r1, r3
 230              	.LVL20:
 205:../asf/sam/drivers/afec/afec.c **** 
 231              		.loc 1 205 0
 232 002e 70BC     		pop	{r4, r5, r6}
 233              		.cfi_restore 6
 234              		.cfi_restore 5
 235              		.cfi_restore 4
 236              		.cfi_def_cfa_offset 0
 204:../asf/sam/drivers/afec/afec.c **** }
 237              		.loc 1 204 0
 238 0030 4165     		str	r1, [r0, #84]
 205:../asf/sam/drivers/afec/afec.c **** 
 239              		.loc 1 205 0
 240 0032 7047     		bx	lr
 241              		.cfi_endproc
 242              	.LFE189:
 243              		.size	afec_ch_set_config, .-afec_ch_set_config
 244              		.section	.text.afec_temp_sensor_set_config,"ax",%progbits
 245              		.align	1
 246              		.p2align 2,,3
 247              		.global	afec_temp_sensor_set_config
 248              		.syntax unified
 249              		.thumb
 250              		.thumb_func
 251              		.fpu fpv5-d16
 252              		.type	afec_temp_sensor_set_config, %function
 253              	afec_temp_sensor_set_config:
 254              	.LFB190:
 215:../asf/sam/drivers/afec/afec.c **** 	Assert(afec == AFEC0);
 255              		.loc 1 215 0
 256              		.cfi_startproc
 257              		@ args = 0, pretend = 0, frame = 0
 258              		@ frame_needed = 0, uses_anonymous_args = 0
ARM GAS  /tmp/ccQNhOlE.s 			page 28


 259              		@ link register save eliminated.
 260              	.LVL21:
 220:../asf/sam/drivers/afec/afec.c **** 	afec->AFEC_TEMPMR = reg;
 261              		.loc 1 220 0
 262 0000 4B78     		ldrb	r3, [r1, #1]	@ zero_extendqisi2
 223:../asf/sam/drivers/afec/afec.c **** 			AFEC_TEMPCWR_THIGHTHRES(config->high_threshold);
 263              		.loc 1 223 0
 264 0002 D1F80220 		ldr	r2, [r1, #2]	@ unaligned
 215:../asf/sam/drivers/afec/afec.c **** 	Assert(afec == AFEC0);
 265              		.loc 1 215 0
 266 0006 10B4     		push	{r4}
 267              		.cfi_def_cfa_offset 4
 268              		.cfi_offset 4, -4
 220:../asf/sam/drivers/afec/afec.c **** 	afec->AFEC_TEMPMR = reg;
 269              		.loc 1 220 0
 270 0008 0C78     		ldrb	r4, [r1]	@ zero_extendqisi2
 271 000a 2343     		orrs	r3, r3, r4
 272              	.LVL22:
 226:../asf/sam/drivers/afec/afec.c **** 
 273              		.loc 1 226 0
 274 000c 5DF8044B 		ldr	r4, [sp], #4
 275              		.cfi_restore 4
 276              		.cfi_def_cfa_offset 0
 221:../asf/sam/drivers/afec/afec.c **** 
 277              		.loc 1 221 0
 278 0010 0367     		str	r3, [r0, #112]
 223:../asf/sam/drivers/afec/afec.c **** 			AFEC_TEMPCWR_THIGHTHRES(config->high_threshold);
 279              		.loc 1 223 0
 280 0012 4267     		str	r2, [r0, #116]
 226:../asf/sam/drivers/afec/afec.c **** 
 281              		.loc 1 226 0
 282 0014 7047     		bx	lr
 283              		.cfi_endproc
 284              	.LFE190:
 285              		.size	afec_temp_sensor_set_config, .-afec_temp_sensor_set_config
 286 0016 00BF     		.section	.text.afec_get_config_defaults,"ax",%progbits
 287              		.align	1
 288              		.p2align 2,,3
 289              		.global	afec_get_config_defaults
 290              		.syntax unified
 291              		.thumb
 292              		.thumb_func
 293              		.fpu fpv5-d16
 294              		.type	afec_get_config_defaults, %function
 295              	afec_get_config_defaults:
 296              	.LFB191:
 250:../asf/sam/drivers/afec/afec.c **** 	/* Sanity check argument. */
 297              		.loc 1 250 0
 298              		.cfi_startproc
 299              		@ args = 0, pretend = 0, frame = 0
 300              		@ frame_needed = 0, uses_anonymous_args = 0
 301              		@ link register save eliminated.
 302              	.LVL23:
 262:../asf/sam/drivers/afec/afec.c **** 		cfg->anach = true;
 303              		.loc 1 262 0
 304 0000 0123     		movs	r3, #1
 254:../asf/sam/drivers/afec/afec.c **** 	cfg->mck = sysclk_get_cpu_hz();
ARM GAS  /tmp/ccQNhOlE.s 			page 29


 305              		.loc 1 254 0
 306 0002 0022     		movs	r2, #0
 261:../asf/sam/drivers/afec/afec.c **** 		cfg->transfer = 1;
 307              		.loc 1 261 0
 308 0004 0221     		movs	r1, #2
 254:../asf/sam/drivers/afec/afec.c **** 	cfg->mck = sysclk_get_cpu_hz();
 309              		.loc 1 254 0
 310 0006 0260     		str	r2, [r0]
 261:../asf/sam/drivers/afec/afec.c **** 		cfg->transfer = 1;
 311              		.loc 1 261 0
 312 0008 0174     		strb	r1, [r0, #16]
 264:../asf/sam/drivers/afec/afec.c **** 		cfg->tag = true;
 313              		.loc 1 264 0
 314 000a C274     		strb	r2, [r0, #19]
 262:../asf/sam/drivers/afec/afec.c **** 		cfg->anach = true;
 315              		.loc 1 262 0
 316 000c 4374     		strb	r3, [r0, #17]
 263:../asf/sam/drivers/afec/afec.c **** 		cfg->useq = false;
 317              		.loc 1 263 0
 318 000e 8374     		strb	r3, [r0, #18]
 265:../asf/sam/drivers/afec/afec.c **** 		cfg->stm = true;
 319              		.loc 1 265 0
 320 0010 0375     		strb	r3, [r0, #20]
 266:../asf/sam/drivers/afec/afec.c **** 		cfg->ibctl = 1;
 321              		.loc 1 266 0
 322 0012 4375     		strb	r3, [r0, #21]
 267:../asf/sam/drivers/afec/afec.c **** }
 323              		.loc 1 267 0
 324 0014 8375     		strb	r3, [r0, #22]
 250:../asf/sam/drivers/afec/afec.c **** 	/* Sanity check argument. */
 325              		.loc 1 250 0
 326 0016 70B4     		push	{r4, r5, r6}
 327              		.cfi_def_cfa_offset 12
 328              		.cfi_offset 4, -12
 329              		.cfi_offset 5, -8
 330              		.cfi_offset 6, -4
 255:../asf/sam/drivers/afec/afec.c **** 		cfg->afec_clock = 6000000UL;
 331              		.loc 1 255 0
 332 0018 044E     		ldr	r6, .L43
 257:../asf/sam/drivers/afec/afec.c **** 	#if !(SAMV71 || SAMV70 || SAME70 || SAMS70)
 333              		.loc 1 257 0
 334 001a 4FF48024 		mov	r4, #262144
 256:../asf/sam/drivers/afec/afec.c **** 		cfg->startup_time = AFEC_STARTUP_TIME_4;
 335              		.loc 1 256 0
 336 001e 044D     		ldr	r5, .L43+4
 255:../asf/sam/drivers/afec/afec.c **** 		cfg->afec_clock = 6000000UL;
 337              		.loc 1 255 0
 338 0020 4660     		str	r6, [r0, #4]
 256:../asf/sam/drivers/afec/afec.c **** 		cfg->startup_time = AFEC_STARTUP_TIME_4;
 339              		.loc 1 256 0
 340 0022 8560     		str	r5, [r0, #8]
 257:../asf/sam/drivers/afec/afec.c **** 	#if !(SAMV71 || SAMV70 || SAME70 || SAMS70)
 341              		.loc 1 257 0
 342 0024 C460     		str	r4, [r0, #12]
 268:../asf/sam/drivers/afec/afec.c **** 
 343              		.loc 1 268 0
 344 0026 70BC     		pop	{r4, r5, r6}
ARM GAS  /tmp/ccQNhOlE.s 			page 30


 345              		.cfi_restore 6
 346              		.cfi_restore 5
 347              		.cfi_restore 4
 348              		.cfi_def_cfa_offset 0
 349 0028 7047     		bx	lr
 350              	.L44:
 351 002a 00BF     		.align	2
 352              	.L43:
 353 002c 00A3E111 		.word	300000000
 354 0030 808D5B00 		.word	6000000
 355              		.cfi_endproc
 356              	.LFE191:
 357              		.size	afec_get_config_defaults, .-afec_get_config_defaults
 358              		.section	.text.afec_ch_get_config_defaults,"ax",%progbits
 359              		.align	1
 360              		.p2align 2,,3
 361              		.global	afec_ch_get_config_defaults
 362              		.syntax unified
 363              		.thumb
 364              		.thumb_func
 365              		.fpu fpv5-d16
 366              		.type	afec_ch_get_config_defaults, %function
 367              	afec_ch_get_config_defaults:
 368              	.LFB192:
 282:../asf/sam/drivers/afec/afec.c **** 	/*Sanity check argument. */
 369              		.loc 1 282 0
 370              		.cfi_startproc
 371              		@ args = 0, pretend = 0, frame = 0
 372              		@ frame_needed = 0, uses_anonymous_args = 0
 373              		@ link register save eliminated.
 374              	.LVL24:
 286:../asf/sam/drivers/afec/afec.c ****    	cfg->gain = AFEC_GAINVALUE_1;
 375              		.loc 1 286 0
 376 0000 0022     		movs	r2, #0
 287:../asf/sam/drivers/afec/afec.c **** 
 377              		.loc 1 287 0
 378 0002 0123     		movs	r3, #1
 286:../asf/sam/drivers/afec/afec.c ****    	cfg->gain = AFEC_GAINVALUE_1;
 379              		.loc 1 286 0
 380 0004 0270     		strb	r2, [r0]
 287:../asf/sam/drivers/afec/afec.c **** 
 381              		.loc 1 287 0
 382 0006 4370     		strb	r3, [r0, #1]
 383 0008 7047     		bx	lr
 384              		.cfi_endproc
 385              	.LFE192:
 386              		.size	afec_ch_get_config_defaults, .-afec_ch_get_config_defaults
 387 000a 00BF     		.section	.text.afec_temp_sensor_get_config_defaults,"ax",%progbits
 388              		.align	1
 389              		.p2align 2,,3
 390              		.global	afec_temp_sensor_get_config_defaults
 391              		.syntax unified
 392              		.thumb
 393              		.thumb_func
 394              		.fpu fpv5-d16
 395              		.type	afec_temp_sensor_get_config_defaults, %function
 396              	afec_temp_sensor_get_config_defaults:
ARM GAS  /tmp/ccQNhOlE.s 			page 31


 397              	.LFB193:
 306:../asf/sam/drivers/afec/afec.c **** 	/*Sanity check argument. */
 398              		.loc 1 306 0
 399              		.cfi_startproc
 400              		@ args = 0, pretend = 0, frame = 0
 401              		@ frame_needed = 0, uses_anonymous_args = 0
 402              		@ link register save eliminated.
 403              	.LVL25:
 404 0000 10B4     		push	{r4}
 405              		.cfi_def_cfa_offset 4
 406              		.cfi_offset 4, -4
 311:../asf/sam/drivers/afec/afec.c **** 	cfg->low_threshold= 0xFF;
 407              		.loc 1 311 0
 408 0002 2021     		movs	r1, #32
 310:../asf/sam/drivers/afec/afec.c **** 	cfg->mode= AFEC_TEMP_CMP_MODE_2;
 409              		.loc 1 310 0
 410 0004 0024     		movs	r4, #0
 312:../asf/sam/drivers/afec/afec.c **** 	cfg->high_threshold= 0xFFF;
 411              		.loc 1 312 0
 412 0006 FF22     		movs	r2, #255
 313:../asf/sam/drivers/afec/afec.c **** }
 413              		.loc 1 313 0
 414 0008 40F6FF73 		movw	r3, #4095
 310:../asf/sam/drivers/afec/afec.c **** 	cfg->mode= AFEC_TEMP_CMP_MODE_2;
 415              		.loc 1 310 0
 416 000c 0470     		strb	r4, [r0]
 311:../asf/sam/drivers/afec/afec.c **** 	cfg->low_threshold= 0xFF;
 417              		.loc 1 311 0
 418 000e 4170     		strb	r1, [r0, #1]
 312:../asf/sam/drivers/afec/afec.c **** 	cfg->high_threshold= 0xFFF;
 419              		.loc 1 312 0
 420 0010 4280     		strh	r2, [r0, #2]	@ movhi
 313:../asf/sam/drivers/afec/afec.c **** }
 421              		.loc 1 313 0
 422 0012 8380     		strh	r3, [r0, #4]	@ movhi
 314:../asf/sam/drivers/afec/afec.c **** 
 423              		.loc 1 314 0
 424 0014 5DF8044B 		ldr	r4, [sp], #4
 425              		.cfi_restore 4
 426              		.cfi_def_cfa_offset 0
 427 0018 7047     		bx	lr
 428              		.cfi_endproc
 429              	.LFE193:
 430              		.size	afec_temp_sensor_get_config_defaults, .-afec_temp_sensor_get_config_defaults
 431 001a 00BF     		.section	.text.afec_init,"ax",%progbits
 432              		.align	1
 433              		.p2align 2,,3
 434              		.global	afec_init
 435              		.syntax unified
 436              		.thumb
 437              		.thumb_func
 438              		.fpu fpv5-d16
 439              		.type	afec_init, %function
 440              	afec_init:
 441              	.LFB194:
 326:../asf/sam/drivers/afec/afec.c **** 	Assert(afec);
 442              		.loc 1 326 0
ARM GAS  /tmp/ccQNhOlE.s 			page 32


 443              		.cfi_startproc
 444              		@ args = 0, pretend = 0, frame = 0
 445              		@ frame_needed = 0, uses_anonymous_args = 0
 446              	.LVL26:
 447 0000 F0B5     		push	{r4, r5, r6, r7, lr}
 448              		.cfi_def_cfa_offset 20
 449              		.cfi_offset 4, -20
 450              		.cfi_offset 5, -16
 451              		.cfi_offset 6, -12
 452              		.cfi_offset 7, -8
 453              		.cfi_offset 14, -4
 454              	.LBB74:
 455              	.LBB75:
 668:../asf/sam/drivers/afec/afec.h **** }
 456              		.loc 2 668 0
 457 0002 046B     		ldr	r4, [r0, #48]
 458              	.LVL27:
 459              	.LBE75:
 460              	.LBE74:
 330:../asf/sam/drivers/afec/afec.c **** 		return STATUS_ERR_BUSY;
 461              		.loc 1 330 0
 462 0004 14F08074 		ands	r4, r4, #16777216
 463 0008 01D0     		beq	.L64
 331:../asf/sam/drivers/afec/afec.c **** 	}
 464              		.loc 1 331 0
 465 000a 1920     		movs	r0, #25
 466              	.LVL28:
 351:../asf/sam/drivers/afec/afec.c **** 
 467              		.loc 1 351 0
 468 000c F0BD     		pop	{r4, r5, r6, r7, pc}
 469              	.LVL29:
 470              	.L64:
 335:../asf/sam/drivers/afec/afec.c **** 	afec_set_config(afec, config);
 471              		.loc 1 335 0
 472 000e 0125     		movs	r5, #1
 473              	.LBB76:
 474              	.LBB77:
 160:../asf/sam/drivers/afec/afec.c **** 			AFEC_MR_ONE |
 475              		.loc 1 160 0
 476 0010 4A68     		ldr	r2, [r1, #4]
 477 0012 D1F808E0 		ldr	lr, [r1, #8]
 158:../asf/sam/drivers/afec/afec.c **** 		#if (SAMV71 || SAMV70 || SAME70 || SAMS70)
 478              		.loc 1 158 0
 479 0016 CE68     		ldr	r6, [r1, #12]
 480              	.LBE77:
 481              	.LBE76:
 335:../asf/sam/drivers/afec/afec.c **** 	afec_set_config(afec, config);
 482              		.loc 1 335 0
 483 0018 0560     		str	r5, [r0]
 484              	.LVL30:
 485              	.LBB81:
 486              	.LBB78:
 167:../asf/sam/drivers/afec/afec.c **** 			AFEC_MR_TRANSFER(config->transfer) |
 487              		.loc 1 167 0
 488 001a 0F7C     		ldrb	r7, [r1, #16]	@ zero_extendqisi2
 158:../asf/sam/drivers/afec/afec.c **** 		#if (SAMV71 || SAMV70 || SAME70 || SAMS70)
 489              		.loc 1 158 0
ARM GAS  /tmp/ccQNhOlE.s 			page 33


 490 001c 46F40006 		orr	r6, r6, #8388608
 491 0020 CD7C     		ldrb	r5, [r1, #19]	@ zero_extendqisi2
 167:../asf/sam/drivers/afec/afec.c **** 			AFEC_MR_TRANSFER(config->transfer) |
 492              		.loc 1 167 0
 493 0022 3B06     		lsls	r3, r7, #24
 158:../asf/sam/drivers/afec/afec.c **** 		#if (SAMV71 || SAMV70 || SAME70 || SAMS70)
 494              		.loc 1 158 0
 495 0024 002D     		cmp	r5, #0
 168:../asf/sam/drivers/afec/afec.c **** 			(config->startup_time);
 496              		.loc 1 168 0
 497 0026 4D7C     		ldrb	r5, [r1, #17]	@ zero_extendqisi2
 167:../asf/sam/drivers/afec/afec.c **** 			AFEC_MR_TRANSFER(config->transfer) |
 498              		.loc 1 167 0
 499 0028 03F07067 		and	r7, r3, #251658240
 158:../asf/sam/drivers/afec/afec.c **** 		#if (SAMV71 || SAMV70 || SAME70 || SAMS70)
 500              		.loc 1 158 0
 501 002c 18BF     		it	ne
 502 002e 4FF00044 		movne	r4, #-2147483648
 168:../asf/sam/drivers/afec/afec.c **** 			(config->startup_time);
 503              		.loc 1 168 0
 504 0032 2D07     		lsls	r5, r5, #28
 160:../asf/sam/drivers/afec/afec.c **** 			AFEC_MR_ONE |
 505              		.loc 1 160 0
 506 0034 B2FBFEF3 		udiv	r3, r2, lr
 507 0038 013B     		subs	r3, r3, #1
 173:../asf/sam/drivers/afec/afec.c **** 			(config->resolution) |
 508              		.loc 1 173 0
 509 003a 0A7D     		ldrb	r2, [r1, #20]	@ zero_extendqisi2
 175:../asf/sam/drivers/afec/afec.c ****   #if (SAMV71 || SAMV70 || SAME70 || SAMS70)
 510              		.loc 1 175 0
 511 003c 91F815E0 		ldrb	lr, [r1, #21]	@ zero_extendqisi2
 168:../asf/sam/drivers/afec/afec.c **** 			(config->startup_time);
 512              		.loc 1 168 0
 513 0040 05F04055 		and	r5, r5, #805306368
 160:../asf/sam/drivers/afec/afec.c **** 			AFEC_MR_ONE |
 514              		.loc 1 160 0
 515 0044 1B02     		lsls	r3, r3, #8
 173:../asf/sam/drivers/afec/afec.c **** 			(config->resolution) |
 516              		.loc 1 173 0
 517 0046 002A     		cmp	r2, #0
 160:../asf/sam/drivers/afec/afec.c **** 			AFEC_MR_ONE |
 518              		.loc 1 160 0
 519 0048 9BB2     		uxth	r3, r3
 173:../asf/sam/drivers/afec/afec.c **** 			(config->resolution) |
 520              		.loc 1 173 0
 521 004a 14BF     		ite	ne
 522 004c 4FF08072 		movne	r2, #16777216
 523 0050 0022     		moveq	r2, #0
 175:../asf/sam/drivers/afec/afec.c ****   #if (SAMV71 || SAMV70 || SAME70 || SAMS70)
 524              		.loc 1 175 0
 525 0052 BEF1000F 		cmp	lr, #0
 158:../asf/sam/drivers/afec/afec.c **** 		#if (SAMV71 || SAMV70 || SAME70 || SAMS70)
 526              		.loc 1 158 0
 527 0056 43EA0603 		orr	r3, r3, r6
 173:../asf/sam/drivers/afec/afec.c **** 			(config->resolution) |
 528              		.loc 1 173 0
 529 005a 0E68     		ldr	r6, [r1]
ARM GAS  /tmp/ccQNhOlE.s 			page 34


 158:../asf/sam/drivers/afec/afec.c **** 		#if (SAMV71 || SAMV70 || SAME70 || SAMS70)
 530              		.loc 1 158 0
 531 005c 43EA0703 		orr	r3, r3, r7
 173:../asf/sam/drivers/afec/afec.c **** 			(config->resolution) |
 532              		.loc 1 173 0
 533 0060 42EA0602 		orr	r2, r2, r6
 175:../asf/sam/drivers/afec/afec.c ****   #if (SAMV71 || SAMV70 || SAME70 || SAMS70)
 534              		.loc 1 175 0
 535 0064 14BF     		ite	ne
 536 0066 4FF00077 		movne	r7, #33554432
 537 006a 0027     		moveq	r7, #0
 158:../asf/sam/drivers/afec/afec.c **** 		#if (SAMV71 || SAMV70 || SAME70 || SAMS70)
 538              		.loc 1 158 0
 539 006c 2B43     		orrs	r3, r3, r5
 540              	.LBE78:
 541              	.LBE81:
 339:../asf/sam/drivers/afec/afec.c **** 		for (i = 0; i < _AFEC_NUM_OF_INTERRUPT_SOURCE; i++){
 542              		.loc 1 339 0
 543 006e 134E     		ldr	r6, .L67
 544              	.LBB82:
 545              	.LBB79:
 174:../asf/sam/drivers/afec/afec.c **** 			(config->stm ? AFEC_EMR_STM : 0);
 546              		.loc 1 174 0
 547 0070 3A43     		orrs	r2, r2, r7
 158:../asf/sam/drivers/afec/afec.c **** 		#if (SAMV71 || SAMV70 || SAME70 || SAMS70)
 548              		.loc 1 158 0
 549 0072 2343     		orrs	r3, r3, r4
 550              	.LVL31:
 551              	.LBE79:
 552              	.LBE82:
 339:../asf/sam/drivers/afec/afec.c **** 		for (i = 0; i < _AFEC_NUM_OF_INTERRUPT_SOURCE; i++){
 553              		.loc 1 339 0
 554 0074 B042     		cmp	r0, r6
 555              	.LBB83:
 556              	.LBB80:
 171:../asf/sam/drivers/afec/afec.c **** 
 557              		.loc 1 171 0
 558 0076 4360     		str	r3, [r0, #4]
 173:../asf/sam/drivers/afec/afec.c **** 			(config->resolution) |
 559              		.loc 1 173 0
 560 0078 8260     		str	r2, [r0, #8]
 177:../asf/sam/drivers/afec/afec.c ****   #else
 561              		.loc 1 177 0
 562 007a 8B7D     		ldrb	r3, [r1, #22]	@ zero_extendqisi2
 563              	.LVL32:
 564 007c 4FEA0323 		lsl	r3, r3, #8
 565 0080 03F44073 		and	r3, r3, #768
 566 0084 43F00C03 		orr	r3, r3, #12
 567 0088 C0F89430 		str	r3, [r0, #148]
 568              	.LVL33:
 569              	.LBE80:
 570              	.LBE83:
 339:../asf/sam/drivers/afec/afec.c **** 		for (i = 0; i < _AFEC_NUM_OF_INTERRUPT_SOURCE; i++){
 571              		.loc 1 339 0
 572 008c 0DD0     		beq	.L65
 344:../asf/sam/drivers/afec/afec.c **** 		for (i = 0; i < _AFEC_NUM_OF_INTERRUPT_SOURCE; i++){
 573              		.loc 1 344 0
ARM GAS  /tmp/ccQNhOlE.s 			page 35


 574 008e 0C4B     		ldr	r3, .L67+4
 575 0090 9842     		cmp	r0, r3
 576 0092 01D0     		beq	.L66
 577              	.LVL34:
 578              	.L55:
 350:../asf/sam/drivers/afec/afec.c **** }
 579              		.loc 1 350 0
 580 0094 0020     		movs	r0, #0
 581              	.LVL35:
 582 0096 F0BD     		pop	{r4, r5, r6, r7, pc}
 583              	.LVL36:
 584              	.L66:
 585 0098 0A4B     		ldr	r3, .L67+8
 346:../asf/sam/drivers/afec/afec.c **** 		}
 586              		.loc 1 346 0
 587 009a 0021     		movs	r1, #0
 588              	.LVL37:
 589 009c 03F14002 		add	r2, r3, #64
 590              	.L56:
 346:../asf/sam/drivers/afec/afec.c **** 		}
 591              		.loc 1 346 0 is_stmt 0 discriminator 3
 592 00a0 43F8041B 		str	r1, [r3], #4
 593              	.LVL38:
 345:../asf/sam/drivers/afec/afec.c **** 			afec_callback_pointer[1][i] = 0;
 594              		.loc 1 345 0 is_stmt 1 discriminator 3
 595 00a4 9342     		cmp	r3, r2
 596 00a6 FBD1     		bne	.L56
 597 00a8 F4E7     		b	.L55
 598              	.LVL39:
 599              	.L65:
 600 00aa 074B     		ldr	r3, .L67+12
 341:../asf/sam/drivers/afec/afec.c **** 		}
 601              		.loc 1 341 0
 602 00ac 0021     		movs	r1, #0
 603              	.LVL40:
 604 00ae 03F14002 		add	r2, r3, #64
 605              	.L54:
 341:../asf/sam/drivers/afec/afec.c **** 		}
 606              		.loc 1 341 0 is_stmt 0 discriminator 3
 607 00b2 43F8041F 		str	r1, [r3, #4]!
 340:../asf/sam/drivers/afec/afec.c **** 			afec_callback_pointer[0][i] = 0;
 608              		.loc 1 340 0 is_stmt 1 discriminator 3
 609 00b6 9A42     		cmp	r2, r3
 610 00b8 FBD1     		bne	.L54
 611 00ba EBE7     		b	.L55
 612              	.L68:
 613              		.align	2
 614              	.L67:
 615 00bc 00C00340 		.word	1073987584
 616 00c0 00400640 		.word	1074151424
 617 00c4 40000000 		.word	afec_callback_pointer+64
 618 00c8 FCFFFFFF 		.word	afec_callback_pointer-4
 619              		.cfi_endproc
 620              	.LFE194:
 621              		.size	afec_init, .-afec_init
 622              		.section	.text.afec_set_comparison_mode,"ax",%progbits
 623              		.align	1
ARM GAS  /tmp/ccQNhOlE.s 			page 36


 624              		.p2align 2,,3
 625              		.global	afec_set_comparison_mode
 626              		.syntax unified
 627              		.thumb
 628              		.thumb_func
 629              		.fpu fpv5-d16
 630              		.type	afec_set_comparison_mode, %function
 631              	afec_set_comparison_mode:
 632              	.LFB195:
 364:../asf/sam/drivers/afec/afec.c **** 	if (channel != AFEC_CHANNEL_ALL) {
 633              		.loc 1 364 0
 634              		.cfi_startproc
 635              		@ args = 0, pretend = 0, frame = 0
 636              		@ frame_needed = 0, uses_anonymous_args = 0
 637              		@ link register save eliminated.
 638              	.LVL41:
 639 0000 70B4     		push	{r4, r5, r6}
 640              		.cfi_def_cfa_offset 12
 641              		.cfi_offset 4, -12
 642              		.cfi_offset 5, -8
 643              		.cfi_offset 6, -4
 378:../asf/sam/drivers/afec/afec.c **** 			AFEC_EMR_CMPFILTER(cmp_filter);
 644              		.loc 1 378 0
 645 0002 40F6FF75 		movw	r5, #4095
 373:../asf/sam/drivers/afec/afec.c **** 			AFEC_EMR_CMPMODE_Msk |
 646              		.loc 1 373 0
 647 0006 0A4C     		ldr	r4, .L73
 371:../asf/sam/drivers/afec/afec.c **** 
 648              		.loc 1 371 0
 649 0008 8668     		ldr	r6, [r0, #8]
 650              	.LVL42:
 378:../asf/sam/drivers/afec/afec.c **** 			AFEC_EMR_CMPFILTER(cmp_filter);
 651              		.loc 1 378 0
 652 000a AA42     		cmp	r2, r5
 373:../asf/sam/drivers/afec/afec.c **** 			AFEC_EMR_CMPMODE_Msk |
 653              		.loc 1 373 0
 654 000c 04EA0604 		and	r4, r4, r6
 655              	.LVL43:
 378:../asf/sam/drivers/afec/afec.c **** 			AFEC_EMR_CMPFILTER(cmp_filter);
 656              		.loc 1 378 0
 657 0010 0AD0     		beq	.L71
 378:../asf/sam/drivers/afec/afec.c **** 			AFEC_EMR_CMPFILTER(cmp_filter);
 658              		.loc 1 378 0 is_stmt 0 discriminator 1
 659 0012 D200     		lsls	r2, r2, #3
 660              	.LVL44:
 661 0014 D2B2     		uxtb	r2, r2
 662              	.L70:
 379:../asf/sam/drivers/afec/afec.c **** 
 663              		.loc 1 379 0 is_stmt 1
 664 0016 1B03     		lsls	r3, r3, #12
 665              	.LVL45:
 666 0018 03F44053 		and	r3, r3, #12288
 667 001c 2343     		orrs	r3, r3, r4
 668 001e 1943     		orrs	r1, r1, r3
 669              	.LVL46:
 376:../asf/sam/drivers/afec/afec.c **** 			((channel == AFEC_CHANNEL_ALL) ? AFEC_EMR_CMPALL
 670              		.loc 1 376 0
ARM GAS  /tmp/ccQNhOlE.s 			page 37


 671 0020 1143     		orrs	r1, r1, r2
 672              	.LVL47:
 382:../asf/sam/drivers/afec/afec.c **** 
 673              		.loc 1 382 0
 674 0022 70BC     		pop	{r4, r5, r6}
 675              		.cfi_remember_state
 676              		.cfi_restore 6
 677              		.cfi_restore 5
 678              		.cfi_restore 4
 679              		.cfi_def_cfa_offset 0
 381:../asf/sam/drivers/afec/afec.c **** }
 680              		.loc 1 381 0
 681 0024 8160     		str	r1, [r0, #8]
 382:../asf/sam/drivers/afec/afec.c **** 
 682              		.loc 1 382 0
 683 0026 7047     		bx	lr
 684              	.LVL48:
 685              	.L71:
 686              		.cfi_restore_state
 378:../asf/sam/drivers/afec/afec.c **** 			AFEC_EMR_CMPFILTER(cmp_filter);
 687              		.loc 1 378 0
 688 0028 4FF40072 		mov	r2, #512
 689              	.LVL49:
 690 002c F3E7     		b	.L70
 691              	.L74:
 692 002e 00BF     		.align	2
 693              	.L73:
 694 0030 04CFFFFF 		.word	-12540
 695              		.cfi_endproc
 696              	.LFE195:
 697              		.size	afec_set_comparison_mode, .-afec_set_comparison_mode
 698              		.section	.text.afec_set_power_mode,"ax",%progbits
 699              		.align	1
 700              		.p2align 2,,3
 701              		.global	afec_set_power_mode
 702              		.syntax unified
 703              		.thumb
 704              		.thumb_func
 705              		.fpu fpv5-d16
 706              		.type	afec_set_power_mode, %function
 707              	afec_set_power_mode:
 708              	.LFB196:
 392:../asf/sam/drivers/afec/afec.c **** 	uint32_t reg;
 709              		.loc 1 392 0
 710              		.cfi_startproc
 711              		@ args = 0, pretend = 0, frame = 0
 712              		@ frame_needed = 0, uses_anonymous_args = 0
 713              		@ link register save eliminated.
 714              	.LVL50:
 397:../asf/sam/drivers/afec/afec.c **** 		case AFEC_POWER_MODE_0:
 715              		.loc 1 397 0
 716 0000 0129     		cmp	r1, #1
 395:../asf/sam/drivers/afec/afec.c **** 
 717              		.loc 1 395 0
 718 0002 4368     		ldr	r3, [r0, #4]
 719              	.LVL51:
 397:../asf/sam/drivers/afec/afec.c **** 		case AFEC_POWER_MODE_0:
ARM GAS  /tmp/ccQNhOlE.s 			page 38


 720              		.loc 1 397 0
 721 0004 0CD0     		beq	.L77
 722 0006 07D3     		bcc	.L78
 723 0008 0229     		cmp	r1, #2
 724 000a 03D1     		bne	.L76
 725              	.LVL52:
 726 000c 23F04003 		bic	r3, r3, #64
 727              	.LVL53:
 406:../asf/sam/drivers/afec/afec.c **** 			break;
 728              		.loc 1 406 0
 729 0010 43F02003 		orr	r3, r3, #32
 730              	.LVL54:
 731              	.L76:
 410:../asf/sam/drivers/afec/afec.c **** }
 732              		.loc 1 410 0
 733 0014 4360     		str	r3, [r0, #4]
 734 0016 7047     		bx	lr
 735              	.L78:
 399:../asf/sam/drivers/afec/afec.c **** 			break;
 736              		.loc 1 399 0
 737 0018 23F06003 		bic	r3, r3, #96
 738              	.LVL55:
 410:../asf/sam/drivers/afec/afec.c **** }
 739              		.loc 1 410 0
 740 001c 4360     		str	r3, [r0, #4]
 741 001e 7047     		bx	lr
 742              	.L77:
 402:../asf/sam/drivers/afec/afec.c **** 			break;
 743              		.loc 1 402 0
 744 0020 43F04003 		orr	r3, r3, #64
 745              	.LVL56:
 410:../asf/sam/drivers/afec/afec.c **** }
 746              		.loc 1 410 0
 747 0024 4360     		str	r3, [r0, #4]
 748 0026 7047     		bx	lr
 749              		.cfi_endproc
 750              	.LFE196:
 751              		.size	afec_set_power_mode, .-afec_set_power_mode
 752              		.section	.text.afec_enable_interrupt,"ax",%progbits
 753              		.align	1
 754              		.p2align 2,,3
 755              		.global	afec_enable_interrupt
 756              		.syntax unified
 757              		.thumb
 758              		.thumb_func
 759              		.fpu fpv5-d16
 760              		.type	afec_enable_interrupt, %function
 761              	afec_enable_interrupt:
 762              	.LFB198:
 446:../asf/sam/drivers/afec/afec.c **** 	if (interrupt_source == AFEC_INTERRUPT_ALL) {
 763              		.loc 1 446 0
 764              		.cfi_startproc
 765              		@ args = 0, pretend = 0, frame = 0
 766              		@ frame_needed = 0, uses_anonymous_args = 0
 767              		@ link register save eliminated.
 768              	.LVL57:
 447:../asf/sam/drivers/afec/afec.c **** 		afec->AFEC_IER = AFEC_INTERRUPT_ALL;
ARM GAS  /tmp/ccQNhOlE.s 			page 39


 769              		.loc 1 447 0
 770 0000 0B4B     		ldr	r3, .L90
 771 0002 9942     		cmp	r1, r3
 772 0004 07D0     		beq	.L87
 452:../asf/sam/drivers/afec/afec.c **** 	  #if (SAMV71 || SAMV70 || SAME70 || SAMS70)
 773              		.loc 1 452 0
 774 0006 0B29     		cmp	r1, #11
 775 0008 07D9     		bls	.L88
 776              	.LVL58:
 777              	.LBB86:
 778              	.LBB87:
 463:../asf/sam/drivers/afec/afec.c **** 		afec->AFEC_IER = 1 << (interrupt_source + AFEC_INTERRUPT_GAP1);
 779              		.loc 1 463 0
 780 000a 0E29     		cmp	r1, #14
 781 000c 0AD9     		bls	.L89
 467:../asf/sam/drivers/afec/afec.c **** 	}
 782              		.loc 1 467 0
 783 000e 0F31     		adds	r1, r1, #15
 784              	.LVL59:
 785              	.L86:
 466:../asf/sam/drivers/afec/afec.c **** 				+ AFEC_INTERRUPT_GAP2);
 786              		.loc 1 466 0
 787 0010 0123     		movs	r3, #1
 788 0012 03FA01F1 		lsl	r1, r3, r1
 789              	.L87:
 790 0016 4162     		str	r1, [r0, #36]
 791 0018 7047     		bx	lr
 792              	.LVL60:
 793              	.L88:
 794              	.LBE87:
 795              	.LBE86:
 454:../asf/sam/drivers/afec/afec.c **** 			afec->AFEC_IER = 1 << AFEC_TEMP_INT_SOURCE_NUM;
 796              		.loc 1 454 0
 797 001a F9D1     		bne	.L86
 455:../asf/sam/drivers/afec/afec.c **** 	  #else
 798              		.loc 1 455 0
 799 001c 4FF40063 		mov	r3, #2048
 800 0020 4362     		str	r3, [r0, #36]
 801 0022 7047     		bx	lr
 802              	.LVL61:
 803              	.L89:
 804              	.LBB89:
 805              	.LBB88:
 464:../asf/sam/drivers/afec/afec.c **** 	} else {
 806              		.loc 1 464 0
 807 0024 0C31     		adds	r1, r1, #12
 808              	.LVL62:
 809 0026 0123     		movs	r3, #1
 810 0028 03FA01F1 		lsl	r1, r3, r1
 811              	.LVL63:
 812 002c 4162     		str	r1, [r0, #36]
 813 002e 7047     		bx	lr
 814              	.L91:
 815              		.align	2
 816              	.L90:
 817 0030 FF0F0047 		.word	1191186431
 818              	.LBE88:
ARM GAS  /tmp/ccQNhOlE.s 			page 40


 819              	.LBE89:
 820              		.cfi_endproc
 821              	.LFE198:
 822              		.size	afec_enable_interrupt, .-afec_enable_interrupt
 823              		.section	.text.afec_set_callback,"ax",%progbits
 824              		.align	1
 825              		.p2align 2,,3
 826              		.global	afec_set_callback
 827              		.syntax unified
 828              		.thumb
 829              		.thumb_func
 830              		.fpu fpv5-d16
 831              		.type	afec_set_callback, %function
 832              	afec_set_callback:
 833              	.LFB197:
 423:../asf/sam/drivers/afec/afec.c **** 	Assert(afec);
 834              		.loc 1 423 0
 835              		.cfi_startproc
 836              		@ args = 0, pretend = 0, frame = 0
 837              		@ frame_needed = 0, uses_anonymous_args = 0
 838              		@ link register save eliminated.
 839              	.LVL64:
 840 0000 F0B4     		push	{r4, r5, r6, r7}
 841              		.cfi_def_cfa_offset 16
 842              		.cfi_offset 4, -16
 843              		.cfi_offset 5, -12
 844              		.cfi_offset 6, -8
 845              		.cfi_offset 7, -4
 846              	.LBB90:
 847              	.LBB91:
 112:../asf/sam/drivers/afec/afec.c **** 		return 1;
 848              		.loc 1 112 0
 849 0002 124C     		ldr	r4, .L100
 850 0004 A042     		cmp	r0, r4
 851 0006 0FD0     		beq	.L99
 852              	.LVL65:
 853              	.LBE91:
 854              	.LBE90:
 855              	.LBB92:
 856              	.LBB93:
 857              		.file 3 "/home/torbjorn/eclipse-workspace/CoreNG/asf/thirdparty/CMSIS/Include/core_cm7.h"
   1:/home/torbjorn/eclipse-workspace/CoreNG/asf/thirdparty/CMSIS/Include/core_cm7.h **** /**************************************************************************//**
   2:/home/torbjorn/eclipse-workspace/CoreNG/asf/thirdparty/CMSIS/Include/core_cm7.h ****  * @file     core_cm7.h
   3:/home/torbjorn/eclipse-workspace/CoreNG/asf/thirdparty/CMSIS/Include/core_cm7.h ****  * @brief    CMSIS Cortex-M7 Core Peripheral Access Layer Header File
   4:/home/torbjorn/eclipse-workspace/CoreNG/asf/thirdparty/CMSIS/Include/core_cm7.h ****  * @version  V4.00
   5:/home/torbjorn/eclipse-workspace/CoreNG/asf/thirdparty/CMSIS/Include/core_cm7.h ****  * @date     01. September 2014
   6:/home/torbjorn/eclipse-workspace/CoreNG/asf/thirdparty/CMSIS/Include/core_cm7.h ****  *
   7:/home/torbjorn/eclipse-workspace/CoreNG/asf/thirdparty/CMSIS/Include/core_cm7.h ****  * @note
   8:/home/torbjorn/eclipse-workspace/CoreNG/asf/thirdparty/CMSIS/Include/core_cm7.h ****  *
   9:/home/torbjorn/eclipse-workspace/CoreNG/asf/thirdparty/CMSIS/Include/core_cm7.h ****  ******************************************************************************/
  10:/home/torbjorn/eclipse-workspace/CoreNG/asf/thirdparty/CMSIS/Include/core_cm7.h **** /* Copyright (c) 2009 - 2014 ARM LIMITED
  11:/home/torbjorn/eclipse-workspace/CoreNG/asf/thirdparty/CMSIS/Include/core_cm7.h **** 
  12:/home/torbjorn/eclipse-workspace/CoreNG/asf/thirdparty/CMSIS/Include/core_cm7.h ****    All rights reserved.
  13:/home/torbjorn/eclipse-workspace/CoreNG/asf/thirdparty/CMSIS/Include/core_cm7.h ****    Redistribution and use in source and binary forms, with or without
  14:/home/torbjorn/eclipse-workspace/CoreNG/asf/thirdparty/CMSIS/Include/core_cm7.h ****    modification, are permitted provided that the following conditions are met:
  15:/home/torbjorn/eclipse-workspace/CoreNG/asf/thirdparty/CMSIS/Include/core_cm7.h ****    - Redistributions of source code must retain the above copyright
  16:/home/torbjorn/eclipse-workspace/CoreNG/asf/thirdparty/CMSIS/Include/core_cm7.h ****      notice, this list of conditions and the following disclaimer.
ARM GAS  /tmp/ccQNhOlE.s 			page 41


  17:/home/torbjorn/eclipse-workspace/CoreNG/asf/thirdparty/CMSIS/Include/core_cm7.h ****    - Redistributions in binary form must reproduce the above copyright
  18:/home/torbjorn/eclipse-workspace/CoreNG/asf/thirdparty/CMSIS/Include/core_cm7.h ****      notice, this list of conditions and the following disclaimer in the
  19:/home/torbjorn/eclipse-workspace/CoreNG/asf/thirdparty/CMSIS/Include/core_cm7.h ****      documentation and/or other materials provided with the distribution.
  20:/home/torbjorn/eclipse-workspace/CoreNG/asf/thirdparty/CMSIS/Include/core_cm7.h ****    - Neither the name of ARM nor the names of its contributors may be used
  21:/home/torbjorn/eclipse-workspace/CoreNG/asf/thirdparty/CMSIS/Include/core_cm7.h ****      to endorse or promote products derived from this software without
  22:/home/torbjorn/eclipse-workspace/CoreNG/asf/thirdparty/CMSIS/Include/core_cm7.h ****      specific prior written permission.
  23:/home/torbjorn/eclipse-workspace/CoreNG/asf/thirdparty/CMSIS/Include/core_cm7.h ****    *
  24:/home/torbjorn/eclipse-workspace/CoreNG/asf/thirdparty/CMSIS/Include/core_cm7.h ****    THIS SOFTWARE IS PROVIDED BY THE COPYRIGHT HOLDERS AND CONTRIBUTORS "AS IS"
  25:/home/torbjorn/eclipse-workspace/CoreNG/asf/thirdparty/CMSIS/Include/core_cm7.h ****    AND ANY EXPRESS OR IMPLIED WARRANTIES, INCLUDING, BUT NOT LIMITED TO, THE
  26:/home/torbjorn/eclipse-workspace/CoreNG/asf/thirdparty/CMSIS/Include/core_cm7.h ****    IMPLIED WARRANTIES OF MERCHANTABILITY AND FITNESS FOR A PARTICULAR PURPOSE
  27:/home/torbjorn/eclipse-workspace/CoreNG/asf/thirdparty/CMSIS/Include/core_cm7.h ****    ARE DISCLAIMED. IN NO EVENT SHALL COPYRIGHT HOLDERS AND CONTRIBUTORS BE
  28:/home/torbjorn/eclipse-workspace/CoreNG/asf/thirdparty/CMSIS/Include/core_cm7.h ****    LIABLE FOR ANY DIRECT, INDIRECT, INCIDENTAL, SPECIAL, EXEMPLARY, OR
  29:/home/torbjorn/eclipse-workspace/CoreNG/asf/thirdparty/CMSIS/Include/core_cm7.h ****    CONSEQUENTIAL DAMAGES (INCLUDING, BUT NOT LIMITED TO, PROCUREMENT OF
  30:/home/torbjorn/eclipse-workspace/CoreNG/asf/thirdparty/CMSIS/Include/core_cm7.h ****    SUBSTITUTE GOODS OR SERVICES; LOSS OF USE, DATA, OR PROFITS; OR BUSINESS
  31:/home/torbjorn/eclipse-workspace/CoreNG/asf/thirdparty/CMSIS/Include/core_cm7.h ****    INTERRUPTION) HOWEVER CAUSED AND ON ANY THEORY OF LIABILITY, WHETHER IN
  32:/home/torbjorn/eclipse-workspace/CoreNG/asf/thirdparty/CMSIS/Include/core_cm7.h ****    CONTRACT, STRICT LIABILITY, OR TORT (INCLUDING NEGLIGENCE OR OTHERWISE)
  33:/home/torbjorn/eclipse-workspace/CoreNG/asf/thirdparty/CMSIS/Include/core_cm7.h ****    ARISING IN ANY WAY OUT OF THE USE OF THIS SOFTWARE, EVEN IF ADVISED OF THE
  34:/home/torbjorn/eclipse-workspace/CoreNG/asf/thirdparty/CMSIS/Include/core_cm7.h ****    POSSIBILITY OF SUCH DAMAGE.
  35:/home/torbjorn/eclipse-workspace/CoreNG/asf/thirdparty/CMSIS/Include/core_cm7.h ****    ---------------------------------------------------------------------------*/
  36:/home/torbjorn/eclipse-workspace/CoreNG/asf/thirdparty/CMSIS/Include/core_cm7.h **** 
  37:/home/torbjorn/eclipse-workspace/CoreNG/asf/thirdparty/CMSIS/Include/core_cm7.h **** 
  38:/home/torbjorn/eclipse-workspace/CoreNG/asf/thirdparty/CMSIS/Include/core_cm7.h **** #if defined ( __ICCARM__ )
  39:/home/torbjorn/eclipse-workspace/CoreNG/asf/thirdparty/CMSIS/Include/core_cm7.h ****  #pragma system_include  /* treat file as system include file for MISRA check */
  40:/home/torbjorn/eclipse-workspace/CoreNG/asf/thirdparty/CMSIS/Include/core_cm7.h **** #endif
  41:/home/torbjorn/eclipse-workspace/CoreNG/asf/thirdparty/CMSIS/Include/core_cm7.h **** 
  42:/home/torbjorn/eclipse-workspace/CoreNG/asf/thirdparty/CMSIS/Include/core_cm7.h **** #ifndef __CORE_CM7_H_GENERIC
  43:/home/torbjorn/eclipse-workspace/CoreNG/asf/thirdparty/CMSIS/Include/core_cm7.h **** #define __CORE_CM7_H_GENERIC
  44:/home/torbjorn/eclipse-workspace/CoreNG/asf/thirdparty/CMSIS/Include/core_cm7.h **** 
  45:/home/torbjorn/eclipse-workspace/CoreNG/asf/thirdparty/CMSIS/Include/core_cm7.h **** #ifdef __cplusplus
  46:/home/torbjorn/eclipse-workspace/CoreNG/asf/thirdparty/CMSIS/Include/core_cm7.h ****  extern "C" {
  47:/home/torbjorn/eclipse-workspace/CoreNG/asf/thirdparty/CMSIS/Include/core_cm7.h **** #endif
  48:/home/torbjorn/eclipse-workspace/CoreNG/asf/thirdparty/CMSIS/Include/core_cm7.h **** 
  49:/home/torbjorn/eclipse-workspace/CoreNG/asf/thirdparty/CMSIS/Include/core_cm7.h **** /** \page CMSIS_MISRA_Exceptions  MISRA-C:2004 Compliance Exceptions
  50:/home/torbjorn/eclipse-workspace/CoreNG/asf/thirdparty/CMSIS/Include/core_cm7.h ****   CMSIS violates the following MISRA-C:2004 rules:
  51:/home/torbjorn/eclipse-workspace/CoreNG/asf/thirdparty/CMSIS/Include/core_cm7.h **** 
  52:/home/torbjorn/eclipse-workspace/CoreNG/asf/thirdparty/CMSIS/Include/core_cm7.h ****    \li Required Rule 8.5, object/function definition in header file.<br>
  53:/home/torbjorn/eclipse-workspace/CoreNG/asf/thirdparty/CMSIS/Include/core_cm7.h ****      Function definitions in header files are used to allow 'inlining'.
  54:/home/torbjorn/eclipse-workspace/CoreNG/asf/thirdparty/CMSIS/Include/core_cm7.h **** 
  55:/home/torbjorn/eclipse-workspace/CoreNG/asf/thirdparty/CMSIS/Include/core_cm7.h ****    \li Required Rule 18.4, declaration of union type or object of union type: '{...}'.<br>
  56:/home/torbjorn/eclipse-workspace/CoreNG/asf/thirdparty/CMSIS/Include/core_cm7.h ****      Unions are used for effective representation of core registers.
  57:/home/torbjorn/eclipse-workspace/CoreNG/asf/thirdparty/CMSIS/Include/core_cm7.h **** 
  58:/home/torbjorn/eclipse-workspace/CoreNG/asf/thirdparty/CMSIS/Include/core_cm7.h ****    \li Advisory Rule 19.7, Function-like macro defined.<br>
  59:/home/torbjorn/eclipse-workspace/CoreNG/asf/thirdparty/CMSIS/Include/core_cm7.h ****      Function-like macros are used to allow more efficient code.
  60:/home/torbjorn/eclipse-workspace/CoreNG/asf/thirdparty/CMSIS/Include/core_cm7.h ****  */
  61:/home/torbjorn/eclipse-workspace/CoreNG/asf/thirdparty/CMSIS/Include/core_cm7.h **** 
  62:/home/torbjorn/eclipse-workspace/CoreNG/asf/thirdparty/CMSIS/Include/core_cm7.h **** 
  63:/home/torbjorn/eclipse-workspace/CoreNG/asf/thirdparty/CMSIS/Include/core_cm7.h **** /*******************************************************************************
  64:/home/torbjorn/eclipse-workspace/CoreNG/asf/thirdparty/CMSIS/Include/core_cm7.h ****  *                 CMSIS definitions
  65:/home/torbjorn/eclipse-workspace/CoreNG/asf/thirdparty/CMSIS/Include/core_cm7.h ****  ******************************************************************************/
  66:/home/torbjorn/eclipse-workspace/CoreNG/asf/thirdparty/CMSIS/Include/core_cm7.h **** /** \ingroup Cortex_M7
  67:/home/torbjorn/eclipse-workspace/CoreNG/asf/thirdparty/CMSIS/Include/core_cm7.h ****   @{
  68:/home/torbjorn/eclipse-workspace/CoreNG/asf/thirdparty/CMSIS/Include/core_cm7.h ****  */
  69:/home/torbjorn/eclipse-workspace/CoreNG/asf/thirdparty/CMSIS/Include/core_cm7.h **** 
  70:/home/torbjorn/eclipse-workspace/CoreNG/asf/thirdparty/CMSIS/Include/core_cm7.h **** /*  CMSIS CM7 definitions */
  71:/home/torbjorn/eclipse-workspace/CoreNG/asf/thirdparty/CMSIS/Include/core_cm7.h **** #define __CM7_CMSIS_VERSION_MAIN  (0x04)                                   /*!< [31:16] CMSIS HAL m
  72:/home/torbjorn/eclipse-workspace/CoreNG/asf/thirdparty/CMSIS/Include/core_cm7.h **** #define __CM7_CMSIS_VERSION_SUB   (0x00)                                   /*!< [15:0]  CMSIS HAL s
  73:/home/torbjorn/eclipse-workspace/CoreNG/asf/thirdparty/CMSIS/Include/core_cm7.h **** #define __CM7_CMSIS_VERSION       ((__CM7_CMSIS_VERSION_MAIN << 16) | \
ARM GAS  /tmp/ccQNhOlE.s 			page 42


  74:/home/torbjorn/eclipse-workspace/CoreNG/asf/thirdparty/CMSIS/Include/core_cm7.h ****                                     __CM7_CMSIS_VERSION_SUB          )     /*!< CMSIS HAL version n
  75:/home/torbjorn/eclipse-workspace/CoreNG/asf/thirdparty/CMSIS/Include/core_cm7.h **** 
  76:/home/torbjorn/eclipse-workspace/CoreNG/asf/thirdparty/CMSIS/Include/core_cm7.h **** #define __CORTEX_M                (0x07)                                   /*!< Cortex-M Core      
  77:/home/torbjorn/eclipse-workspace/CoreNG/asf/thirdparty/CMSIS/Include/core_cm7.h **** 
  78:/home/torbjorn/eclipse-workspace/CoreNG/asf/thirdparty/CMSIS/Include/core_cm7.h **** 
  79:/home/torbjorn/eclipse-workspace/CoreNG/asf/thirdparty/CMSIS/Include/core_cm7.h **** #if   defined ( __CC_ARM )
  80:/home/torbjorn/eclipse-workspace/CoreNG/asf/thirdparty/CMSIS/Include/core_cm7.h ****   #define __ASM            __asm                                      /*!< asm keyword for ARM Comp
  81:/home/torbjorn/eclipse-workspace/CoreNG/asf/thirdparty/CMSIS/Include/core_cm7.h ****   #define __INLINE         __inline                                   /*!< inline keyword for ARM C
  82:/home/torbjorn/eclipse-workspace/CoreNG/asf/thirdparty/CMSIS/Include/core_cm7.h ****   #define __STATIC_INLINE  static __inline
  83:/home/torbjorn/eclipse-workspace/CoreNG/asf/thirdparty/CMSIS/Include/core_cm7.h **** 
  84:/home/torbjorn/eclipse-workspace/CoreNG/asf/thirdparty/CMSIS/Include/core_cm7.h **** #elif defined ( __GNUC__ )
  85:/home/torbjorn/eclipse-workspace/CoreNG/asf/thirdparty/CMSIS/Include/core_cm7.h ****   #define __ASM            __asm                                      /*!< asm keyword for GNU Comp
  86:/home/torbjorn/eclipse-workspace/CoreNG/asf/thirdparty/CMSIS/Include/core_cm7.h ****   #define __INLINE         inline                                     /*!< inline keyword for GNU C
  87:/home/torbjorn/eclipse-workspace/CoreNG/asf/thirdparty/CMSIS/Include/core_cm7.h ****   #define __STATIC_INLINE  static inline
  88:/home/torbjorn/eclipse-workspace/CoreNG/asf/thirdparty/CMSIS/Include/core_cm7.h **** 
  89:/home/torbjorn/eclipse-workspace/CoreNG/asf/thirdparty/CMSIS/Include/core_cm7.h **** #elif defined ( __ICCARM__ )
  90:/home/torbjorn/eclipse-workspace/CoreNG/asf/thirdparty/CMSIS/Include/core_cm7.h ****   #define __ASM            __asm                                      /*!< asm keyword for IAR Comp
  91:/home/torbjorn/eclipse-workspace/CoreNG/asf/thirdparty/CMSIS/Include/core_cm7.h ****   #define __INLINE         inline                                     /*!< inline keyword for IAR C
  92:/home/torbjorn/eclipse-workspace/CoreNG/asf/thirdparty/CMSIS/Include/core_cm7.h ****   #define __STATIC_INLINE  static inline
  93:/home/torbjorn/eclipse-workspace/CoreNG/asf/thirdparty/CMSIS/Include/core_cm7.h **** 
  94:/home/torbjorn/eclipse-workspace/CoreNG/asf/thirdparty/CMSIS/Include/core_cm7.h **** #elif defined ( __TMS470__ )
  95:/home/torbjorn/eclipse-workspace/CoreNG/asf/thirdparty/CMSIS/Include/core_cm7.h ****   #define __ASM            __asm                                      /*!< asm keyword for TI CCS C
  96:/home/torbjorn/eclipse-workspace/CoreNG/asf/thirdparty/CMSIS/Include/core_cm7.h ****   #define __STATIC_INLINE  static inline
  97:/home/torbjorn/eclipse-workspace/CoreNG/asf/thirdparty/CMSIS/Include/core_cm7.h **** 
  98:/home/torbjorn/eclipse-workspace/CoreNG/asf/thirdparty/CMSIS/Include/core_cm7.h **** #elif defined ( __TASKING__ )
  99:/home/torbjorn/eclipse-workspace/CoreNG/asf/thirdparty/CMSIS/Include/core_cm7.h ****   #define __ASM            __asm                                      /*!< asm keyword for TASKING 
 100:/home/torbjorn/eclipse-workspace/CoreNG/asf/thirdparty/CMSIS/Include/core_cm7.h ****   #define __INLINE         inline                                     /*!< inline keyword for TASKI
 101:/home/torbjorn/eclipse-workspace/CoreNG/asf/thirdparty/CMSIS/Include/core_cm7.h ****   #define __STATIC_INLINE  static inline
 102:/home/torbjorn/eclipse-workspace/CoreNG/asf/thirdparty/CMSIS/Include/core_cm7.h **** 
 103:/home/torbjorn/eclipse-workspace/CoreNG/asf/thirdparty/CMSIS/Include/core_cm7.h **** #elif defined ( __CSMC__ )
 104:/home/torbjorn/eclipse-workspace/CoreNG/asf/thirdparty/CMSIS/Include/core_cm7.h ****   #define __packed
 105:/home/torbjorn/eclipse-workspace/CoreNG/asf/thirdparty/CMSIS/Include/core_cm7.h ****   #define __ASM            _asm                                      /*!< asm keyword for COSMIC Co
 106:/home/torbjorn/eclipse-workspace/CoreNG/asf/thirdparty/CMSIS/Include/core_cm7.h ****   #define __INLINE         inline                                    /*use -pc99 on compile line !<
 107:/home/torbjorn/eclipse-workspace/CoreNG/asf/thirdparty/CMSIS/Include/core_cm7.h ****   #define __STATIC_INLINE  static inline
 108:/home/torbjorn/eclipse-workspace/CoreNG/asf/thirdparty/CMSIS/Include/core_cm7.h **** 
 109:/home/torbjorn/eclipse-workspace/CoreNG/asf/thirdparty/CMSIS/Include/core_cm7.h **** #endif
 110:/home/torbjorn/eclipse-workspace/CoreNG/asf/thirdparty/CMSIS/Include/core_cm7.h **** 
 111:/home/torbjorn/eclipse-workspace/CoreNG/asf/thirdparty/CMSIS/Include/core_cm7.h **** /** __FPU_USED indicates whether an FPU is used or not.
 112:/home/torbjorn/eclipse-workspace/CoreNG/asf/thirdparty/CMSIS/Include/core_cm7.h ****     For this, __FPU_PRESENT has to be checked prior to making use of FPU specific registers and fun
 113:/home/torbjorn/eclipse-workspace/CoreNG/asf/thirdparty/CMSIS/Include/core_cm7.h **** */
 114:/home/torbjorn/eclipse-workspace/CoreNG/asf/thirdparty/CMSIS/Include/core_cm7.h **** #if defined ( __CC_ARM )
 115:/home/torbjorn/eclipse-workspace/CoreNG/asf/thirdparty/CMSIS/Include/core_cm7.h ****   #if defined __TARGET_FPU_VFP
 116:/home/torbjorn/eclipse-workspace/CoreNG/asf/thirdparty/CMSIS/Include/core_cm7.h ****     #if (__FPU_PRESENT == 1)
 117:/home/torbjorn/eclipse-workspace/CoreNG/asf/thirdparty/CMSIS/Include/core_cm7.h ****       #define __FPU_USED       1
 118:/home/torbjorn/eclipse-workspace/CoreNG/asf/thirdparty/CMSIS/Include/core_cm7.h ****     #else
 119:/home/torbjorn/eclipse-workspace/CoreNG/asf/thirdparty/CMSIS/Include/core_cm7.h ****       #warning "Compiler generates FPU instructions for a device without an FPU (check __FPU_PRESEN
 120:/home/torbjorn/eclipse-workspace/CoreNG/asf/thirdparty/CMSIS/Include/core_cm7.h ****       #define __FPU_USED       0
 121:/home/torbjorn/eclipse-workspace/CoreNG/asf/thirdparty/CMSIS/Include/core_cm7.h ****     #endif
 122:/home/torbjorn/eclipse-workspace/CoreNG/asf/thirdparty/CMSIS/Include/core_cm7.h ****   #else
 123:/home/torbjorn/eclipse-workspace/CoreNG/asf/thirdparty/CMSIS/Include/core_cm7.h ****     #define __FPU_USED         0
 124:/home/torbjorn/eclipse-workspace/CoreNG/asf/thirdparty/CMSIS/Include/core_cm7.h ****   #endif
 125:/home/torbjorn/eclipse-workspace/CoreNG/asf/thirdparty/CMSIS/Include/core_cm7.h **** 
 126:/home/torbjorn/eclipse-workspace/CoreNG/asf/thirdparty/CMSIS/Include/core_cm7.h **** #elif defined ( __GNUC__ )
 127:/home/torbjorn/eclipse-workspace/CoreNG/asf/thirdparty/CMSIS/Include/core_cm7.h ****   #if defined (__VFP_FP__) && !defined(__SOFTFP__)
 128:/home/torbjorn/eclipse-workspace/CoreNG/asf/thirdparty/CMSIS/Include/core_cm7.h ****     #if (__FPU_PRESENT == 1)
 129:/home/torbjorn/eclipse-workspace/CoreNG/asf/thirdparty/CMSIS/Include/core_cm7.h ****       #define __FPU_USED       1
 130:/home/torbjorn/eclipse-workspace/CoreNG/asf/thirdparty/CMSIS/Include/core_cm7.h ****     #else
ARM GAS  /tmp/ccQNhOlE.s 			page 43


 131:/home/torbjorn/eclipse-workspace/CoreNG/asf/thirdparty/CMSIS/Include/core_cm7.h ****       #warning "Compiler generates FPU instructions for a device without an FPU (check __FPU_PRESEN
 132:/home/torbjorn/eclipse-workspace/CoreNG/asf/thirdparty/CMSIS/Include/core_cm7.h ****       #define __FPU_USED       0
 133:/home/torbjorn/eclipse-workspace/CoreNG/asf/thirdparty/CMSIS/Include/core_cm7.h ****     #endif
 134:/home/torbjorn/eclipse-workspace/CoreNG/asf/thirdparty/CMSIS/Include/core_cm7.h ****   #else
 135:/home/torbjorn/eclipse-workspace/CoreNG/asf/thirdparty/CMSIS/Include/core_cm7.h ****     #define __FPU_USED         0
 136:/home/torbjorn/eclipse-workspace/CoreNG/asf/thirdparty/CMSIS/Include/core_cm7.h ****   #endif
 137:/home/torbjorn/eclipse-workspace/CoreNG/asf/thirdparty/CMSIS/Include/core_cm7.h **** 
 138:/home/torbjorn/eclipse-workspace/CoreNG/asf/thirdparty/CMSIS/Include/core_cm7.h **** #elif defined ( __ICCARM__ )
 139:/home/torbjorn/eclipse-workspace/CoreNG/asf/thirdparty/CMSIS/Include/core_cm7.h ****   #if defined __ARMVFP__
 140:/home/torbjorn/eclipse-workspace/CoreNG/asf/thirdparty/CMSIS/Include/core_cm7.h ****     #if (__FPU_PRESENT == 1)
 141:/home/torbjorn/eclipse-workspace/CoreNG/asf/thirdparty/CMSIS/Include/core_cm7.h ****       #define __FPU_USED       1
 142:/home/torbjorn/eclipse-workspace/CoreNG/asf/thirdparty/CMSIS/Include/core_cm7.h ****     #else
 143:/home/torbjorn/eclipse-workspace/CoreNG/asf/thirdparty/CMSIS/Include/core_cm7.h ****       #warning "Compiler generates FPU instructions for a device without an FPU (check __FPU_PRESEN
 144:/home/torbjorn/eclipse-workspace/CoreNG/asf/thirdparty/CMSIS/Include/core_cm7.h ****       #define __FPU_USED       0
 145:/home/torbjorn/eclipse-workspace/CoreNG/asf/thirdparty/CMSIS/Include/core_cm7.h ****     #endif
 146:/home/torbjorn/eclipse-workspace/CoreNG/asf/thirdparty/CMSIS/Include/core_cm7.h ****   #else
 147:/home/torbjorn/eclipse-workspace/CoreNG/asf/thirdparty/CMSIS/Include/core_cm7.h ****     #define __FPU_USED         0
 148:/home/torbjorn/eclipse-workspace/CoreNG/asf/thirdparty/CMSIS/Include/core_cm7.h ****   #endif
 149:/home/torbjorn/eclipse-workspace/CoreNG/asf/thirdparty/CMSIS/Include/core_cm7.h **** 
 150:/home/torbjorn/eclipse-workspace/CoreNG/asf/thirdparty/CMSIS/Include/core_cm7.h **** #elif defined ( __TMS470__ )
 151:/home/torbjorn/eclipse-workspace/CoreNG/asf/thirdparty/CMSIS/Include/core_cm7.h ****   #if defined __TI_VFP_SUPPORT__
 152:/home/torbjorn/eclipse-workspace/CoreNG/asf/thirdparty/CMSIS/Include/core_cm7.h ****     #if (__FPU_PRESENT == 1)
 153:/home/torbjorn/eclipse-workspace/CoreNG/asf/thirdparty/CMSIS/Include/core_cm7.h ****       #define __FPU_USED       1
 154:/home/torbjorn/eclipse-workspace/CoreNG/asf/thirdparty/CMSIS/Include/core_cm7.h ****     #else
 155:/home/torbjorn/eclipse-workspace/CoreNG/asf/thirdparty/CMSIS/Include/core_cm7.h ****       #warning "Compiler generates FPU instructions for a device without an FPU (check __FPU_PRESEN
 156:/home/torbjorn/eclipse-workspace/CoreNG/asf/thirdparty/CMSIS/Include/core_cm7.h ****       #define __FPU_USED       0
 157:/home/torbjorn/eclipse-workspace/CoreNG/asf/thirdparty/CMSIS/Include/core_cm7.h ****     #endif
 158:/home/torbjorn/eclipse-workspace/CoreNG/asf/thirdparty/CMSIS/Include/core_cm7.h ****   #else
 159:/home/torbjorn/eclipse-workspace/CoreNG/asf/thirdparty/CMSIS/Include/core_cm7.h ****     #define __FPU_USED         0
 160:/home/torbjorn/eclipse-workspace/CoreNG/asf/thirdparty/CMSIS/Include/core_cm7.h ****   #endif
 161:/home/torbjorn/eclipse-workspace/CoreNG/asf/thirdparty/CMSIS/Include/core_cm7.h **** 
 162:/home/torbjorn/eclipse-workspace/CoreNG/asf/thirdparty/CMSIS/Include/core_cm7.h **** #elif defined ( __TASKING__ )
 163:/home/torbjorn/eclipse-workspace/CoreNG/asf/thirdparty/CMSIS/Include/core_cm7.h ****   #if defined __FPU_VFP__
 164:/home/torbjorn/eclipse-workspace/CoreNG/asf/thirdparty/CMSIS/Include/core_cm7.h ****     #if (__FPU_PRESENT == 1)
 165:/home/torbjorn/eclipse-workspace/CoreNG/asf/thirdparty/CMSIS/Include/core_cm7.h ****       #define __FPU_USED       1
 166:/home/torbjorn/eclipse-workspace/CoreNG/asf/thirdparty/CMSIS/Include/core_cm7.h ****     #else
 167:/home/torbjorn/eclipse-workspace/CoreNG/asf/thirdparty/CMSIS/Include/core_cm7.h ****       #error "Compiler generates FPU instructions for a device without an FPU (check __FPU_PRESENT)
 168:/home/torbjorn/eclipse-workspace/CoreNG/asf/thirdparty/CMSIS/Include/core_cm7.h ****       #define __FPU_USED       0
 169:/home/torbjorn/eclipse-workspace/CoreNG/asf/thirdparty/CMSIS/Include/core_cm7.h ****     #endif
 170:/home/torbjorn/eclipse-workspace/CoreNG/asf/thirdparty/CMSIS/Include/core_cm7.h ****   #else
 171:/home/torbjorn/eclipse-workspace/CoreNG/asf/thirdparty/CMSIS/Include/core_cm7.h ****     #define __FPU_USED         0
 172:/home/torbjorn/eclipse-workspace/CoreNG/asf/thirdparty/CMSIS/Include/core_cm7.h ****   #endif
 173:/home/torbjorn/eclipse-workspace/CoreNG/asf/thirdparty/CMSIS/Include/core_cm7.h **** 
 174:/home/torbjorn/eclipse-workspace/CoreNG/asf/thirdparty/CMSIS/Include/core_cm7.h **** #elif defined ( __CSMC__ )		/* Cosmic */
 175:/home/torbjorn/eclipse-workspace/CoreNG/asf/thirdparty/CMSIS/Include/core_cm7.h ****   #if ( __CSMC__ & 0x400)		// FPU present for parser
 176:/home/torbjorn/eclipse-workspace/CoreNG/asf/thirdparty/CMSIS/Include/core_cm7.h ****     #if (__FPU_PRESENT == 1)
 177:/home/torbjorn/eclipse-workspace/CoreNG/asf/thirdparty/CMSIS/Include/core_cm7.h ****       #define __FPU_USED       1
 178:/home/torbjorn/eclipse-workspace/CoreNG/asf/thirdparty/CMSIS/Include/core_cm7.h ****     #else
 179:/home/torbjorn/eclipse-workspace/CoreNG/asf/thirdparty/CMSIS/Include/core_cm7.h ****       #error "Compiler generates FPU instructions for a device without an FPU (check __FPU_PRESENT)
 180:/home/torbjorn/eclipse-workspace/CoreNG/asf/thirdparty/CMSIS/Include/core_cm7.h ****       #define __FPU_USED       0
 181:/home/torbjorn/eclipse-workspace/CoreNG/asf/thirdparty/CMSIS/Include/core_cm7.h ****     #endif
 182:/home/torbjorn/eclipse-workspace/CoreNG/asf/thirdparty/CMSIS/Include/core_cm7.h ****   #else
 183:/home/torbjorn/eclipse-workspace/CoreNG/asf/thirdparty/CMSIS/Include/core_cm7.h ****     #define __FPU_USED         0
 184:/home/torbjorn/eclipse-workspace/CoreNG/asf/thirdparty/CMSIS/Include/core_cm7.h ****   #endif
 185:/home/torbjorn/eclipse-workspace/CoreNG/asf/thirdparty/CMSIS/Include/core_cm7.h **** #endif
 186:/home/torbjorn/eclipse-workspace/CoreNG/asf/thirdparty/CMSIS/Include/core_cm7.h **** 
 187:/home/torbjorn/eclipse-workspace/CoreNG/asf/thirdparty/CMSIS/Include/core_cm7.h **** #include <stdint.h>                      /* standard types definitions                      */
ARM GAS  /tmp/ccQNhOlE.s 			page 44


 188:/home/torbjorn/eclipse-workspace/CoreNG/asf/thirdparty/CMSIS/Include/core_cm7.h **** #include <core_cmInstr.h>                /* Core Instruction Access                         */
 189:/home/torbjorn/eclipse-workspace/CoreNG/asf/thirdparty/CMSIS/Include/core_cm7.h **** #include <core_cmFunc.h>                 /* Core Function Access                            */
 190:/home/torbjorn/eclipse-workspace/CoreNG/asf/thirdparty/CMSIS/Include/core_cm7.h **** #include <core_cmSimd.h>                 /* Compiler specific SIMD Intrinsics               */
 191:/home/torbjorn/eclipse-workspace/CoreNG/asf/thirdparty/CMSIS/Include/core_cm7.h **** 
 192:/home/torbjorn/eclipse-workspace/CoreNG/asf/thirdparty/CMSIS/Include/core_cm7.h **** #ifdef __cplusplus
 193:/home/torbjorn/eclipse-workspace/CoreNG/asf/thirdparty/CMSIS/Include/core_cm7.h **** }
 194:/home/torbjorn/eclipse-workspace/CoreNG/asf/thirdparty/CMSIS/Include/core_cm7.h **** #endif
 195:/home/torbjorn/eclipse-workspace/CoreNG/asf/thirdparty/CMSIS/Include/core_cm7.h **** 
 196:/home/torbjorn/eclipse-workspace/CoreNG/asf/thirdparty/CMSIS/Include/core_cm7.h **** #endif /* __CORE_CM7_H_GENERIC */
 197:/home/torbjorn/eclipse-workspace/CoreNG/asf/thirdparty/CMSIS/Include/core_cm7.h **** 
 198:/home/torbjorn/eclipse-workspace/CoreNG/asf/thirdparty/CMSIS/Include/core_cm7.h **** #ifndef __CMSIS_GENERIC
 199:/home/torbjorn/eclipse-workspace/CoreNG/asf/thirdparty/CMSIS/Include/core_cm7.h **** 
 200:/home/torbjorn/eclipse-workspace/CoreNG/asf/thirdparty/CMSIS/Include/core_cm7.h **** #ifndef __CORE_CM7_H_DEPENDANT
 201:/home/torbjorn/eclipse-workspace/CoreNG/asf/thirdparty/CMSIS/Include/core_cm7.h **** #define __CORE_CM7_H_DEPENDANT
 202:/home/torbjorn/eclipse-workspace/CoreNG/asf/thirdparty/CMSIS/Include/core_cm7.h **** 
 203:/home/torbjorn/eclipse-workspace/CoreNG/asf/thirdparty/CMSIS/Include/core_cm7.h **** #ifdef __cplusplus
 204:/home/torbjorn/eclipse-workspace/CoreNG/asf/thirdparty/CMSIS/Include/core_cm7.h ****  extern "C" {
 205:/home/torbjorn/eclipse-workspace/CoreNG/asf/thirdparty/CMSIS/Include/core_cm7.h **** #endif
 206:/home/torbjorn/eclipse-workspace/CoreNG/asf/thirdparty/CMSIS/Include/core_cm7.h **** 
 207:/home/torbjorn/eclipse-workspace/CoreNG/asf/thirdparty/CMSIS/Include/core_cm7.h **** /* check device defines and use defaults */
 208:/home/torbjorn/eclipse-workspace/CoreNG/asf/thirdparty/CMSIS/Include/core_cm7.h **** #if defined __CHECK_DEVICE_DEFINES
 209:/home/torbjorn/eclipse-workspace/CoreNG/asf/thirdparty/CMSIS/Include/core_cm7.h ****   #ifndef __CM7_REV
 210:/home/torbjorn/eclipse-workspace/CoreNG/asf/thirdparty/CMSIS/Include/core_cm7.h ****     #define __CM7_REV               0x0000
 211:/home/torbjorn/eclipse-workspace/CoreNG/asf/thirdparty/CMSIS/Include/core_cm7.h ****     #warning "__CM7_REV not defined in device header file; using default!"
 212:/home/torbjorn/eclipse-workspace/CoreNG/asf/thirdparty/CMSIS/Include/core_cm7.h ****   #endif
 213:/home/torbjorn/eclipse-workspace/CoreNG/asf/thirdparty/CMSIS/Include/core_cm7.h **** 
 214:/home/torbjorn/eclipse-workspace/CoreNG/asf/thirdparty/CMSIS/Include/core_cm7.h ****   #ifndef __FPU_PRESENT
 215:/home/torbjorn/eclipse-workspace/CoreNG/asf/thirdparty/CMSIS/Include/core_cm7.h ****     #define __FPU_PRESENT             0
 216:/home/torbjorn/eclipse-workspace/CoreNG/asf/thirdparty/CMSIS/Include/core_cm7.h ****     #warning "__FPU_PRESENT not defined in device header file; using default!"
 217:/home/torbjorn/eclipse-workspace/CoreNG/asf/thirdparty/CMSIS/Include/core_cm7.h ****   #endif
 218:/home/torbjorn/eclipse-workspace/CoreNG/asf/thirdparty/CMSIS/Include/core_cm7.h **** 
 219:/home/torbjorn/eclipse-workspace/CoreNG/asf/thirdparty/CMSIS/Include/core_cm7.h ****   #ifndef __MPU_PRESENT
 220:/home/torbjorn/eclipse-workspace/CoreNG/asf/thirdparty/CMSIS/Include/core_cm7.h ****     #define __MPU_PRESENT             0
 221:/home/torbjorn/eclipse-workspace/CoreNG/asf/thirdparty/CMSIS/Include/core_cm7.h ****     #warning "__MPU_PRESENT not defined in device header file; using default!"
 222:/home/torbjorn/eclipse-workspace/CoreNG/asf/thirdparty/CMSIS/Include/core_cm7.h ****   #endif
 223:/home/torbjorn/eclipse-workspace/CoreNG/asf/thirdparty/CMSIS/Include/core_cm7.h **** 
 224:/home/torbjorn/eclipse-workspace/CoreNG/asf/thirdparty/CMSIS/Include/core_cm7.h ****   #ifndef __ICACHE_PRESENT
 225:/home/torbjorn/eclipse-workspace/CoreNG/asf/thirdparty/CMSIS/Include/core_cm7.h ****     #define __ICACHE_PRESENT          0
 226:/home/torbjorn/eclipse-workspace/CoreNG/asf/thirdparty/CMSIS/Include/core_cm7.h ****     #warning "__ICACHE_PRESENT not defined in device header file; using default!"
 227:/home/torbjorn/eclipse-workspace/CoreNG/asf/thirdparty/CMSIS/Include/core_cm7.h ****   #endif
 228:/home/torbjorn/eclipse-workspace/CoreNG/asf/thirdparty/CMSIS/Include/core_cm7.h **** 
 229:/home/torbjorn/eclipse-workspace/CoreNG/asf/thirdparty/CMSIS/Include/core_cm7.h ****   #ifndef __DCACHE_PRESENT
 230:/home/torbjorn/eclipse-workspace/CoreNG/asf/thirdparty/CMSIS/Include/core_cm7.h ****     #define __DCACHE_PRESENT          0
 231:/home/torbjorn/eclipse-workspace/CoreNG/asf/thirdparty/CMSIS/Include/core_cm7.h ****     #warning "__DCACHE_PRESENT not defined in device header file; using default!"
 232:/home/torbjorn/eclipse-workspace/CoreNG/asf/thirdparty/CMSIS/Include/core_cm7.h ****   #endif
 233:/home/torbjorn/eclipse-workspace/CoreNG/asf/thirdparty/CMSIS/Include/core_cm7.h **** 
 234:/home/torbjorn/eclipse-workspace/CoreNG/asf/thirdparty/CMSIS/Include/core_cm7.h ****   #ifndef __DTCM_PRESENT
 235:/home/torbjorn/eclipse-workspace/CoreNG/asf/thirdparty/CMSIS/Include/core_cm7.h ****     #define __DTCM_PRESENT            0
 236:/home/torbjorn/eclipse-workspace/CoreNG/asf/thirdparty/CMSIS/Include/core_cm7.h ****     #warning "__DTCM_PRESENT        not defined in device header file; using default!"
 237:/home/torbjorn/eclipse-workspace/CoreNG/asf/thirdparty/CMSIS/Include/core_cm7.h ****   #endif
 238:/home/torbjorn/eclipse-workspace/CoreNG/asf/thirdparty/CMSIS/Include/core_cm7.h **** 
 239:/home/torbjorn/eclipse-workspace/CoreNG/asf/thirdparty/CMSIS/Include/core_cm7.h ****   #ifndef __NVIC_PRIO_BITS
 240:/home/torbjorn/eclipse-workspace/CoreNG/asf/thirdparty/CMSIS/Include/core_cm7.h ****     #define __NVIC_PRIO_BITS          3
 241:/home/torbjorn/eclipse-workspace/CoreNG/asf/thirdparty/CMSIS/Include/core_cm7.h ****     #warning "__NVIC_PRIO_BITS not defined in device header file; using default!"
 242:/home/torbjorn/eclipse-workspace/CoreNG/asf/thirdparty/CMSIS/Include/core_cm7.h ****   #endif
 243:/home/torbjorn/eclipse-workspace/CoreNG/asf/thirdparty/CMSIS/Include/core_cm7.h **** 
 244:/home/torbjorn/eclipse-workspace/CoreNG/asf/thirdparty/CMSIS/Include/core_cm7.h ****   #ifndef __Vendor_SysTickConfig
ARM GAS  /tmp/ccQNhOlE.s 			page 45


 245:/home/torbjorn/eclipse-workspace/CoreNG/asf/thirdparty/CMSIS/Include/core_cm7.h ****     #define __Vendor_SysTickConfig    0
 246:/home/torbjorn/eclipse-workspace/CoreNG/asf/thirdparty/CMSIS/Include/core_cm7.h ****     #warning "__Vendor_SysTickConfig not defined in device header file; using default!"
 247:/home/torbjorn/eclipse-workspace/CoreNG/asf/thirdparty/CMSIS/Include/core_cm7.h ****   #endif
 248:/home/torbjorn/eclipse-workspace/CoreNG/asf/thirdparty/CMSIS/Include/core_cm7.h **** #endif
 249:/home/torbjorn/eclipse-workspace/CoreNG/asf/thirdparty/CMSIS/Include/core_cm7.h **** 
 250:/home/torbjorn/eclipse-workspace/CoreNG/asf/thirdparty/CMSIS/Include/core_cm7.h **** /* IO definitions (access restrictions to peripheral registers) */
 251:/home/torbjorn/eclipse-workspace/CoreNG/asf/thirdparty/CMSIS/Include/core_cm7.h **** /**
 252:/home/torbjorn/eclipse-workspace/CoreNG/asf/thirdparty/CMSIS/Include/core_cm7.h ****     \defgroup CMSIS_glob_defs CMSIS Global Defines
 253:/home/torbjorn/eclipse-workspace/CoreNG/asf/thirdparty/CMSIS/Include/core_cm7.h **** 
 254:/home/torbjorn/eclipse-workspace/CoreNG/asf/thirdparty/CMSIS/Include/core_cm7.h ****     <strong>IO Type Qualifiers</strong> are used
 255:/home/torbjorn/eclipse-workspace/CoreNG/asf/thirdparty/CMSIS/Include/core_cm7.h ****     \li to specify the access to peripheral variables.
 256:/home/torbjorn/eclipse-workspace/CoreNG/asf/thirdparty/CMSIS/Include/core_cm7.h ****     \li for automatic generation of peripheral register debug information.
 257:/home/torbjorn/eclipse-workspace/CoreNG/asf/thirdparty/CMSIS/Include/core_cm7.h **** */
 258:/home/torbjorn/eclipse-workspace/CoreNG/asf/thirdparty/CMSIS/Include/core_cm7.h **** #ifdef __cplusplus
 259:/home/torbjorn/eclipse-workspace/CoreNG/asf/thirdparty/CMSIS/Include/core_cm7.h ****   #define   __I     volatile             /*!< Defines 'read only' permissions                 */
 260:/home/torbjorn/eclipse-workspace/CoreNG/asf/thirdparty/CMSIS/Include/core_cm7.h **** #else
 261:/home/torbjorn/eclipse-workspace/CoreNG/asf/thirdparty/CMSIS/Include/core_cm7.h ****   #define   __I     volatile const       /*!< Defines 'read only' permissions                 */
 262:/home/torbjorn/eclipse-workspace/CoreNG/asf/thirdparty/CMSIS/Include/core_cm7.h **** #endif
 263:/home/torbjorn/eclipse-workspace/CoreNG/asf/thirdparty/CMSIS/Include/core_cm7.h **** #define     __O     volatile             /*!< Defines 'write only' permissions                */
 264:/home/torbjorn/eclipse-workspace/CoreNG/asf/thirdparty/CMSIS/Include/core_cm7.h **** #define     __IO    volatile             /*!< Defines 'read / write' permissions              */
 265:/home/torbjorn/eclipse-workspace/CoreNG/asf/thirdparty/CMSIS/Include/core_cm7.h **** 
 266:/home/torbjorn/eclipse-workspace/CoreNG/asf/thirdparty/CMSIS/Include/core_cm7.h **** /*@} end of group Cortex_M7 */
 267:/home/torbjorn/eclipse-workspace/CoreNG/asf/thirdparty/CMSIS/Include/core_cm7.h **** 
 268:/home/torbjorn/eclipse-workspace/CoreNG/asf/thirdparty/CMSIS/Include/core_cm7.h **** 
 269:/home/torbjorn/eclipse-workspace/CoreNG/asf/thirdparty/CMSIS/Include/core_cm7.h **** 
 270:/home/torbjorn/eclipse-workspace/CoreNG/asf/thirdparty/CMSIS/Include/core_cm7.h **** /*******************************************************************************
 271:/home/torbjorn/eclipse-workspace/CoreNG/asf/thirdparty/CMSIS/Include/core_cm7.h ****  *                 Register Abstraction
 272:/home/torbjorn/eclipse-workspace/CoreNG/asf/thirdparty/CMSIS/Include/core_cm7.h ****   Core Register contain:
 273:/home/torbjorn/eclipse-workspace/CoreNG/asf/thirdparty/CMSIS/Include/core_cm7.h ****   - Core Register
 274:/home/torbjorn/eclipse-workspace/CoreNG/asf/thirdparty/CMSIS/Include/core_cm7.h ****   - Core NVIC Register
 275:/home/torbjorn/eclipse-workspace/CoreNG/asf/thirdparty/CMSIS/Include/core_cm7.h ****   - Core SCB Register
 276:/home/torbjorn/eclipse-workspace/CoreNG/asf/thirdparty/CMSIS/Include/core_cm7.h ****   - Core SysTick Register
 277:/home/torbjorn/eclipse-workspace/CoreNG/asf/thirdparty/CMSIS/Include/core_cm7.h ****   - Core Debug Register
 278:/home/torbjorn/eclipse-workspace/CoreNG/asf/thirdparty/CMSIS/Include/core_cm7.h ****   - Core MPU Register
 279:/home/torbjorn/eclipse-workspace/CoreNG/asf/thirdparty/CMSIS/Include/core_cm7.h ****   - Core FPU Register
 280:/home/torbjorn/eclipse-workspace/CoreNG/asf/thirdparty/CMSIS/Include/core_cm7.h ****  ******************************************************************************/
 281:/home/torbjorn/eclipse-workspace/CoreNG/asf/thirdparty/CMSIS/Include/core_cm7.h **** /** \defgroup CMSIS_core_register Defines and Type Definitions
 282:/home/torbjorn/eclipse-workspace/CoreNG/asf/thirdparty/CMSIS/Include/core_cm7.h ****     \brief Type definitions and defines for Cortex-M processor based devices.
 283:/home/torbjorn/eclipse-workspace/CoreNG/asf/thirdparty/CMSIS/Include/core_cm7.h **** */
 284:/home/torbjorn/eclipse-workspace/CoreNG/asf/thirdparty/CMSIS/Include/core_cm7.h **** 
 285:/home/torbjorn/eclipse-workspace/CoreNG/asf/thirdparty/CMSIS/Include/core_cm7.h **** /** \ingroup    CMSIS_core_register
 286:/home/torbjorn/eclipse-workspace/CoreNG/asf/thirdparty/CMSIS/Include/core_cm7.h ****     \defgroup   CMSIS_CORE  Status and Control Registers
 287:/home/torbjorn/eclipse-workspace/CoreNG/asf/thirdparty/CMSIS/Include/core_cm7.h ****     \brief  Core Register type definitions.
 288:/home/torbjorn/eclipse-workspace/CoreNG/asf/thirdparty/CMSIS/Include/core_cm7.h ****   @{
 289:/home/torbjorn/eclipse-workspace/CoreNG/asf/thirdparty/CMSIS/Include/core_cm7.h ****  */
 290:/home/torbjorn/eclipse-workspace/CoreNG/asf/thirdparty/CMSIS/Include/core_cm7.h **** 
 291:/home/torbjorn/eclipse-workspace/CoreNG/asf/thirdparty/CMSIS/Include/core_cm7.h **** /** \brief  Union type to access the Application Program Status Register (APSR).
 292:/home/torbjorn/eclipse-workspace/CoreNG/asf/thirdparty/CMSIS/Include/core_cm7.h ****  */
 293:/home/torbjorn/eclipse-workspace/CoreNG/asf/thirdparty/CMSIS/Include/core_cm7.h **** typedef union
 294:/home/torbjorn/eclipse-workspace/CoreNG/asf/thirdparty/CMSIS/Include/core_cm7.h **** {
 295:/home/torbjorn/eclipse-workspace/CoreNG/asf/thirdparty/CMSIS/Include/core_cm7.h ****   struct
 296:/home/torbjorn/eclipse-workspace/CoreNG/asf/thirdparty/CMSIS/Include/core_cm7.h ****   {
 297:/home/torbjorn/eclipse-workspace/CoreNG/asf/thirdparty/CMSIS/Include/core_cm7.h **** #if (__CORTEX_M != 0x07)
 298:/home/torbjorn/eclipse-workspace/CoreNG/asf/thirdparty/CMSIS/Include/core_cm7.h ****     uint32_t _reserved0:27;              /*!< bit:  0..26  Reserved                           */
 299:/home/torbjorn/eclipse-workspace/CoreNG/asf/thirdparty/CMSIS/Include/core_cm7.h **** #else
 300:/home/torbjorn/eclipse-workspace/CoreNG/asf/thirdparty/CMSIS/Include/core_cm7.h ****     uint32_t _reserved0:16;              /*!< bit:  0..15  Reserved                           */
 301:/home/torbjorn/eclipse-workspace/CoreNG/asf/thirdparty/CMSIS/Include/core_cm7.h ****     uint32_t GE:4;                       /*!< bit: 16..19  Greater than or Equal flags        */
ARM GAS  /tmp/ccQNhOlE.s 			page 46


 302:/home/torbjorn/eclipse-workspace/CoreNG/asf/thirdparty/CMSIS/Include/core_cm7.h ****     uint32_t _reserved1:7;               /*!< bit: 20..26  Reserved                           */
 303:/home/torbjorn/eclipse-workspace/CoreNG/asf/thirdparty/CMSIS/Include/core_cm7.h **** #endif
 304:/home/torbjorn/eclipse-workspace/CoreNG/asf/thirdparty/CMSIS/Include/core_cm7.h ****     uint32_t Q:1;                        /*!< bit:     27  Saturation condition flag          */
 305:/home/torbjorn/eclipse-workspace/CoreNG/asf/thirdparty/CMSIS/Include/core_cm7.h ****     uint32_t V:1;                        /*!< bit:     28  Overflow condition code flag       */
 306:/home/torbjorn/eclipse-workspace/CoreNG/asf/thirdparty/CMSIS/Include/core_cm7.h ****     uint32_t C:1;                        /*!< bit:     29  Carry condition code flag          */
 307:/home/torbjorn/eclipse-workspace/CoreNG/asf/thirdparty/CMSIS/Include/core_cm7.h ****     uint32_t Z:1;                        /*!< bit:     30  Zero condition code flag           */
 308:/home/torbjorn/eclipse-workspace/CoreNG/asf/thirdparty/CMSIS/Include/core_cm7.h ****     uint32_t N:1;                        /*!< bit:     31  Negative condition code flag       */
 309:/home/torbjorn/eclipse-workspace/CoreNG/asf/thirdparty/CMSIS/Include/core_cm7.h ****   } b;                                   /*!< Structure used for bit  access                  */
 310:/home/torbjorn/eclipse-workspace/CoreNG/asf/thirdparty/CMSIS/Include/core_cm7.h ****   uint32_t w;                            /*!< Type      used for word access                  */
 311:/home/torbjorn/eclipse-workspace/CoreNG/asf/thirdparty/CMSIS/Include/core_cm7.h **** } APSR_Type;
 312:/home/torbjorn/eclipse-workspace/CoreNG/asf/thirdparty/CMSIS/Include/core_cm7.h **** 
 313:/home/torbjorn/eclipse-workspace/CoreNG/asf/thirdparty/CMSIS/Include/core_cm7.h **** 
 314:/home/torbjorn/eclipse-workspace/CoreNG/asf/thirdparty/CMSIS/Include/core_cm7.h **** /** \brief  Union type to access the Interrupt Program Status Register (IPSR).
 315:/home/torbjorn/eclipse-workspace/CoreNG/asf/thirdparty/CMSIS/Include/core_cm7.h ****  */
 316:/home/torbjorn/eclipse-workspace/CoreNG/asf/thirdparty/CMSIS/Include/core_cm7.h **** typedef union
 317:/home/torbjorn/eclipse-workspace/CoreNG/asf/thirdparty/CMSIS/Include/core_cm7.h **** {
 318:/home/torbjorn/eclipse-workspace/CoreNG/asf/thirdparty/CMSIS/Include/core_cm7.h ****   struct
 319:/home/torbjorn/eclipse-workspace/CoreNG/asf/thirdparty/CMSIS/Include/core_cm7.h ****   {
 320:/home/torbjorn/eclipse-workspace/CoreNG/asf/thirdparty/CMSIS/Include/core_cm7.h ****     uint32_t ISR:9;                      /*!< bit:  0.. 8  Exception number                   */
 321:/home/torbjorn/eclipse-workspace/CoreNG/asf/thirdparty/CMSIS/Include/core_cm7.h ****     uint32_t _reserved0:23;              /*!< bit:  9..31  Reserved                           */
 322:/home/torbjorn/eclipse-workspace/CoreNG/asf/thirdparty/CMSIS/Include/core_cm7.h ****   } b;                                   /*!< Structure used for bit  access                  */
 323:/home/torbjorn/eclipse-workspace/CoreNG/asf/thirdparty/CMSIS/Include/core_cm7.h ****   uint32_t w;                            /*!< Type      used for word access                  */
 324:/home/torbjorn/eclipse-workspace/CoreNG/asf/thirdparty/CMSIS/Include/core_cm7.h **** } IPSR_Type;
 325:/home/torbjorn/eclipse-workspace/CoreNG/asf/thirdparty/CMSIS/Include/core_cm7.h **** 
 326:/home/torbjorn/eclipse-workspace/CoreNG/asf/thirdparty/CMSIS/Include/core_cm7.h **** 
 327:/home/torbjorn/eclipse-workspace/CoreNG/asf/thirdparty/CMSIS/Include/core_cm7.h **** /** \brief  Union type to access the Special-Purpose Program Status Registers (xPSR).
 328:/home/torbjorn/eclipse-workspace/CoreNG/asf/thirdparty/CMSIS/Include/core_cm7.h ****  */
 329:/home/torbjorn/eclipse-workspace/CoreNG/asf/thirdparty/CMSIS/Include/core_cm7.h **** typedef union
 330:/home/torbjorn/eclipse-workspace/CoreNG/asf/thirdparty/CMSIS/Include/core_cm7.h **** {
 331:/home/torbjorn/eclipse-workspace/CoreNG/asf/thirdparty/CMSIS/Include/core_cm7.h ****   struct
 332:/home/torbjorn/eclipse-workspace/CoreNG/asf/thirdparty/CMSIS/Include/core_cm7.h ****   {
 333:/home/torbjorn/eclipse-workspace/CoreNG/asf/thirdparty/CMSIS/Include/core_cm7.h ****     uint32_t ISR:9;                      /*!< bit:  0.. 8  Exception number                   */
 334:/home/torbjorn/eclipse-workspace/CoreNG/asf/thirdparty/CMSIS/Include/core_cm7.h **** #if (__CORTEX_M != 0x07)
 335:/home/torbjorn/eclipse-workspace/CoreNG/asf/thirdparty/CMSIS/Include/core_cm7.h ****     uint32_t _reserved0:15;              /*!< bit:  9..23  Reserved                           */
 336:/home/torbjorn/eclipse-workspace/CoreNG/asf/thirdparty/CMSIS/Include/core_cm7.h **** #else
 337:/home/torbjorn/eclipse-workspace/CoreNG/asf/thirdparty/CMSIS/Include/core_cm7.h ****     uint32_t _reserved0:7;               /*!< bit:  9..15  Reserved                           */
 338:/home/torbjorn/eclipse-workspace/CoreNG/asf/thirdparty/CMSIS/Include/core_cm7.h ****     uint32_t GE:4;                       /*!< bit: 16..19  Greater than or Equal flags        */
 339:/home/torbjorn/eclipse-workspace/CoreNG/asf/thirdparty/CMSIS/Include/core_cm7.h ****     uint32_t _reserved1:4;               /*!< bit: 20..23  Reserved                           */
 340:/home/torbjorn/eclipse-workspace/CoreNG/asf/thirdparty/CMSIS/Include/core_cm7.h **** #endif
 341:/home/torbjorn/eclipse-workspace/CoreNG/asf/thirdparty/CMSIS/Include/core_cm7.h ****     uint32_t T:1;                        /*!< bit:     24  Thumb bit        (read 0)          */
 342:/home/torbjorn/eclipse-workspace/CoreNG/asf/thirdparty/CMSIS/Include/core_cm7.h ****     uint32_t IT:2;                       /*!< bit: 25..26  saved IT state   (read 0)          */
 343:/home/torbjorn/eclipse-workspace/CoreNG/asf/thirdparty/CMSIS/Include/core_cm7.h ****     uint32_t Q:1;                        /*!< bit:     27  Saturation condition flag          */
 344:/home/torbjorn/eclipse-workspace/CoreNG/asf/thirdparty/CMSIS/Include/core_cm7.h ****     uint32_t V:1;                        /*!< bit:     28  Overflow condition code flag       */
 345:/home/torbjorn/eclipse-workspace/CoreNG/asf/thirdparty/CMSIS/Include/core_cm7.h ****     uint32_t C:1;                        /*!< bit:     29  Carry condition code flag          */
 346:/home/torbjorn/eclipse-workspace/CoreNG/asf/thirdparty/CMSIS/Include/core_cm7.h ****     uint32_t Z:1;                        /*!< bit:     30  Zero condition code flag           */
 347:/home/torbjorn/eclipse-workspace/CoreNG/asf/thirdparty/CMSIS/Include/core_cm7.h ****     uint32_t N:1;                        /*!< bit:     31  Negative condition code flag       */
 348:/home/torbjorn/eclipse-workspace/CoreNG/asf/thirdparty/CMSIS/Include/core_cm7.h ****   } b;                                   /*!< Structure used for bit  access                  */
 349:/home/torbjorn/eclipse-workspace/CoreNG/asf/thirdparty/CMSIS/Include/core_cm7.h ****   uint32_t w;                            /*!< Type      used for word access                  */
 350:/home/torbjorn/eclipse-workspace/CoreNG/asf/thirdparty/CMSIS/Include/core_cm7.h **** } xPSR_Type;
 351:/home/torbjorn/eclipse-workspace/CoreNG/asf/thirdparty/CMSIS/Include/core_cm7.h **** 
 352:/home/torbjorn/eclipse-workspace/CoreNG/asf/thirdparty/CMSIS/Include/core_cm7.h **** 
 353:/home/torbjorn/eclipse-workspace/CoreNG/asf/thirdparty/CMSIS/Include/core_cm7.h **** /** \brief  Union type to access the Control Registers (CONTROL).
 354:/home/torbjorn/eclipse-workspace/CoreNG/asf/thirdparty/CMSIS/Include/core_cm7.h ****  */
 355:/home/torbjorn/eclipse-workspace/CoreNG/asf/thirdparty/CMSIS/Include/core_cm7.h **** typedef union
 356:/home/torbjorn/eclipse-workspace/CoreNG/asf/thirdparty/CMSIS/Include/core_cm7.h **** {
 357:/home/torbjorn/eclipse-workspace/CoreNG/asf/thirdparty/CMSIS/Include/core_cm7.h ****   struct
 358:/home/torbjorn/eclipse-workspace/CoreNG/asf/thirdparty/CMSIS/Include/core_cm7.h ****   {
ARM GAS  /tmp/ccQNhOlE.s 			page 47


 359:/home/torbjorn/eclipse-workspace/CoreNG/asf/thirdparty/CMSIS/Include/core_cm7.h ****     uint32_t nPRIV:1;                    /*!< bit:      0  Execution privilege in Thread mode */
 360:/home/torbjorn/eclipse-workspace/CoreNG/asf/thirdparty/CMSIS/Include/core_cm7.h ****     uint32_t SPSEL:1;                    /*!< bit:      1  Stack to be used                   */
 361:/home/torbjorn/eclipse-workspace/CoreNG/asf/thirdparty/CMSIS/Include/core_cm7.h ****     uint32_t FPCA:1;                     /*!< bit:      2  FP extension active flag           */
 362:/home/torbjorn/eclipse-workspace/CoreNG/asf/thirdparty/CMSIS/Include/core_cm7.h ****     uint32_t _reserved0:29;              /*!< bit:  3..31  Reserved                           */
 363:/home/torbjorn/eclipse-workspace/CoreNG/asf/thirdparty/CMSIS/Include/core_cm7.h ****   } b;                                   /*!< Structure used for bit  access                  */
 364:/home/torbjorn/eclipse-workspace/CoreNG/asf/thirdparty/CMSIS/Include/core_cm7.h ****   uint32_t w;                            /*!< Type      used for word access                  */
 365:/home/torbjorn/eclipse-workspace/CoreNG/asf/thirdparty/CMSIS/Include/core_cm7.h **** } CONTROL_Type;
 366:/home/torbjorn/eclipse-workspace/CoreNG/asf/thirdparty/CMSIS/Include/core_cm7.h **** 
 367:/home/torbjorn/eclipse-workspace/CoreNG/asf/thirdparty/CMSIS/Include/core_cm7.h **** /*@} end of group CMSIS_CORE */
 368:/home/torbjorn/eclipse-workspace/CoreNG/asf/thirdparty/CMSIS/Include/core_cm7.h **** 
 369:/home/torbjorn/eclipse-workspace/CoreNG/asf/thirdparty/CMSIS/Include/core_cm7.h **** 
 370:/home/torbjorn/eclipse-workspace/CoreNG/asf/thirdparty/CMSIS/Include/core_cm7.h **** /** \ingroup    CMSIS_core_register
 371:/home/torbjorn/eclipse-workspace/CoreNG/asf/thirdparty/CMSIS/Include/core_cm7.h ****     \defgroup   CMSIS_NVIC  Nested Vectored Interrupt Controller (NVIC)
 372:/home/torbjorn/eclipse-workspace/CoreNG/asf/thirdparty/CMSIS/Include/core_cm7.h ****     \brief      Type definitions for the NVIC Registers
 373:/home/torbjorn/eclipse-workspace/CoreNG/asf/thirdparty/CMSIS/Include/core_cm7.h ****   @{
 374:/home/torbjorn/eclipse-workspace/CoreNG/asf/thirdparty/CMSIS/Include/core_cm7.h ****  */
 375:/home/torbjorn/eclipse-workspace/CoreNG/asf/thirdparty/CMSIS/Include/core_cm7.h **** 
 376:/home/torbjorn/eclipse-workspace/CoreNG/asf/thirdparty/CMSIS/Include/core_cm7.h **** /** \brief  Structure type to access the Nested Vectored Interrupt Controller (NVIC).
 377:/home/torbjorn/eclipse-workspace/CoreNG/asf/thirdparty/CMSIS/Include/core_cm7.h ****  */
 378:/home/torbjorn/eclipse-workspace/CoreNG/asf/thirdparty/CMSIS/Include/core_cm7.h **** typedef struct
 379:/home/torbjorn/eclipse-workspace/CoreNG/asf/thirdparty/CMSIS/Include/core_cm7.h **** {
 380:/home/torbjorn/eclipse-workspace/CoreNG/asf/thirdparty/CMSIS/Include/core_cm7.h ****   __IO uint32_t ISER[8];                 /*!< Offset: 0x000 (R/W)  Interrupt Set Enable Register   
 381:/home/torbjorn/eclipse-workspace/CoreNG/asf/thirdparty/CMSIS/Include/core_cm7.h ****        uint32_t RESERVED0[24];
 382:/home/torbjorn/eclipse-workspace/CoreNG/asf/thirdparty/CMSIS/Include/core_cm7.h ****   __IO uint32_t ICER[8];                 /*!< Offset: 0x080 (R/W)  Interrupt Clear Enable Register 
 383:/home/torbjorn/eclipse-workspace/CoreNG/asf/thirdparty/CMSIS/Include/core_cm7.h ****        uint32_t RSERVED1[24];
 384:/home/torbjorn/eclipse-workspace/CoreNG/asf/thirdparty/CMSIS/Include/core_cm7.h ****   __IO uint32_t ISPR[8];                 /*!< Offset: 0x100 (R/W)  Interrupt Set Pending Register  
 385:/home/torbjorn/eclipse-workspace/CoreNG/asf/thirdparty/CMSIS/Include/core_cm7.h ****        uint32_t RESERVED2[24];
 386:/home/torbjorn/eclipse-workspace/CoreNG/asf/thirdparty/CMSIS/Include/core_cm7.h ****   __IO uint32_t ICPR[8];                 /*!< Offset: 0x180 (R/W)  Interrupt Clear Pending Register
 387:/home/torbjorn/eclipse-workspace/CoreNG/asf/thirdparty/CMSIS/Include/core_cm7.h ****        uint32_t RESERVED3[24];
 388:/home/torbjorn/eclipse-workspace/CoreNG/asf/thirdparty/CMSIS/Include/core_cm7.h ****   __IO uint32_t IABR[8];                 /*!< Offset: 0x200 (R/W)  Interrupt Active bit Register   
 389:/home/torbjorn/eclipse-workspace/CoreNG/asf/thirdparty/CMSIS/Include/core_cm7.h ****        uint32_t RESERVED4[56];
 390:/home/torbjorn/eclipse-workspace/CoreNG/asf/thirdparty/CMSIS/Include/core_cm7.h ****   __IO uint8_t  IP[240];                 /*!< Offset: 0x300 (R/W)  Interrupt Priority Register (8Bi
 391:/home/torbjorn/eclipse-workspace/CoreNG/asf/thirdparty/CMSIS/Include/core_cm7.h ****        uint32_t RESERVED5[644];
 392:/home/torbjorn/eclipse-workspace/CoreNG/asf/thirdparty/CMSIS/Include/core_cm7.h ****   __O  uint32_t STIR;                    /*!< Offset: 0xE00 ( /W)  Software Trigger Interrupt Regis
 393:/home/torbjorn/eclipse-workspace/CoreNG/asf/thirdparty/CMSIS/Include/core_cm7.h **** }  NVIC_Type;
 394:/home/torbjorn/eclipse-workspace/CoreNG/asf/thirdparty/CMSIS/Include/core_cm7.h **** 
 395:/home/torbjorn/eclipse-workspace/CoreNG/asf/thirdparty/CMSIS/Include/core_cm7.h **** /* Software Triggered Interrupt Register Definitions */
 396:/home/torbjorn/eclipse-workspace/CoreNG/asf/thirdparty/CMSIS/Include/core_cm7.h **** #define NVIC_STIR_INTID_Pos                 0                                          /*!< STIR: I
 397:/home/torbjorn/eclipse-workspace/CoreNG/asf/thirdparty/CMSIS/Include/core_cm7.h **** #define NVIC_STIR_INTID_Msk                (0x1FFUL << NVIC_STIR_INTID_Pos)            /*!< STIR: I
 398:/home/torbjorn/eclipse-workspace/CoreNG/asf/thirdparty/CMSIS/Include/core_cm7.h **** 
 399:/home/torbjorn/eclipse-workspace/CoreNG/asf/thirdparty/CMSIS/Include/core_cm7.h **** /*@} end of group CMSIS_NVIC */
 400:/home/torbjorn/eclipse-workspace/CoreNG/asf/thirdparty/CMSIS/Include/core_cm7.h **** 
 401:/home/torbjorn/eclipse-workspace/CoreNG/asf/thirdparty/CMSIS/Include/core_cm7.h **** 
 402:/home/torbjorn/eclipse-workspace/CoreNG/asf/thirdparty/CMSIS/Include/core_cm7.h **** /** \ingroup  CMSIS_core_register
 403:/home/torbjorn/eclipse-workspace/CoreNG/asf/thirdparty/CMSIS/Include/core_cm7.h ****     \defgroup CMSIS_SCB     System Control Block (SCB)
 404:/home/torbjorn/eclipse-workspace/CoreNG/asf/thirdparty/CMSIS/Include/core_cm7.h ****     \brief      Type definitions for the System Control Block Registers
 405:/home/torbjorn/eclipse-workspace/CoreNG/asf/thirdparty/CMSIS/Include/core_cm7.h ****   @{
 406:/home/torbjorn/eclipse-workspace/CoreNG/asf/thirdparty/CMSIS/Include/core_cm7.h ****  */
 407:/home/torbjorn/eclipse-workspace/CoreNG/asf/thirdparty/CMSIS/Include/core_cm7.h **** 
 408:/home/torbjorn/eclipse-workspace/CoreNG/asf/thirdparty/CMSIS/Include/core_cm7.h **** /** \brief  Structure type to access the System Control Block (SCB).
 409:/home/torbjorn/eclipse-workspace/CoreNG/asf/thirdparty/CMSIS/Include/core_cm7.h ****  */
 410:/home/torbjorn/eclipse-workspace/CoreNG/asf/thirdparty/CMSIS/Include/core_cm7.h **** typedef struct
 411:/home/torbjorn/eclipse-workspace/CoreNG/asf/thirdparty/CMSIS/Include/core_cm7.h **** {
 412:/home/torbjorn/eclipse-workspace/CoreNG/asf/thirdparty/CMSIS/Include/core_cm7.h ****   __I  uint32_t CPUID;                   /*!< Offset: 0x000 (R/ )  CPUID Base Register             
 413:/home/torbjorn/eclipse-workspace/CoreNG/asf/thirdparty/CMSIS/Include/core_cm7.h ****   __IO uint32_t ICSR;                    /*!< Offset: 0x004 (R/W)  Interrupt Control and State Regi
 414:/home/torbjorn/eclipse-workspace/CoreNG/asf/thirdparty/CMSIS/Include/core_cm7.h ****   __IO uint32_t VTOR;                    /*!< Offset: 0x008 (R/W)  Vector Table Offset Register    
 415:/home/torbjorn/eclipse-workspace/CoreNG/asf/thirdparty/CMSIS/Include/core_cm7.h ****   __IO uint32_t AIRCR;                   /*!< Offset: 0x00C (R/W)  Application Interrupt and Reset 
ARM GAS  /tmp/ccQNhOlE.s 			page 48


 416:/home/torbjorn/eclipse-workspace/CoreNG/asf/thirdparty/CMSIS/Include/core_cm7.h ****   __IO uint32_t SCR;                     /*!< Offset: 0x010 (R/W)  System Control Register         
 417:/home/torbjorn/eclipse-workspace/CoreNG/asf/thirdparty/CMSIS/Include/core_cm7.h ****   __IO uint32_t CCR;                     /*!< Offset: 0x014 (R/W)  Configuration Control Register  
 418:/home/torbjorn/eclipse-workspace/CoreNG/asf/thirdparty/CMSIS/Include/core_cm7.h ****   __IO uint8_t  SHPR[12];                /*!< Offset: 0x018 (R/W)  System Handlers Priority Registe
 419:/home/torbjorn/eclipse-workspace/CoreNG/asf/thirdparty/CMSIS/Include/core_cm7.h ****   __IO uint32_t SHCSR;                   /*!< Offset: 0x024 (R/W)  System Handler Control and State
 420:/home/torbjorn/eclipse-workspace/CoreNG/asf/thirdparty/CMSIS/Include/core_cm7.h ****   __IO uint32_t CFSR;                    /*!< Offset: 0x028 (R/W)  Configurable Fault Status Regist
 421:/home/torbjorn/eclipse-workspace/CoreNG/asf/thirdparty/CMSIS/Include/core_cm7.h ****   __IO uint32_t HFSR;                    /*!< Offset: 0x02C (R/W)  HardFault Status Register       
 422:/home/torbjorn/eclipse-workspace/CoreNG/asf/thirdparty/CMSIS/Include/core_cm7.h ****   __IO uint32_t DFSR;                    /*!< Offset: 0x030 (R/W)  Debug Fault Status Register     
 423:/home/torbjorn/eclipse-workspace/CoreNG/asf/thirdparty/CMSIS/Include/core_cm7.h ****   __IO uint32_t MMFAR;                   /*!< Offset: 0x034 (R/W)  MemManage Fault Address Register
 424:/home/torbjorn/eclipse-workspace/CoreNG/asf/thirdparty/CMSIS/Include/core_cm7.h ****   __IO uint32_t BFAR;                    /*!< Offset: 0x038 (R/W)  BusFault Address Register       
 425:/home/torbjorn/eclipse-workspace/CoreNG/asf/thirdparty/CMSIS/Include/core_cm7.h ****   __IO uint32_t AFSR;                    /*!< Offset: 0x03C (R/W)  Auxiliary Fault Status Register 
 426:/home/torbjorn/eclipse-workspace/CoreNG/asf/thirdparty/CMSIS/Include/core_cm7.h ****   __I  uint32_t ID_PFR[2];               /*!< Offset: 0x040 (R/ )  Processor Feature Register      
 427:/home/torbjorn/eclipse-workspace/CoreNG/asf/thirdparty/CMSIS/Include/core_cm7.h ****   __I  uint32_t ID_DFR;                  /*!< Offset: 0x048 (R/ )  Debug Feature Register          
 428:/home/torbjorn/eclipse-workspace/CoreNG/asf/thirdparty/CMSIS/Include/core_cm7.h ****   __I  uint32_t ID_AFR;                  /*!< Offset: 0x04C (R/ )  Auxiliary Feature Register      
 429:/home/torbjorn/eclipse-workspace/CoreNG/asf/thirdparty/CMSIS/Include/core_cm7.h ****   __I  uint32_t ID_MFR[4];               /*!< Offset: 0x050 (R/ )  Memory Model Feature Register   
 430:/home/torbjorn/eclipse-workspace/CoreNG/asf/thirdparty/CMSIS/Include/core_cm7.h ****   __I  uint32_t ID_ISAR[5];              /*!< Offset: 0x060 (R/ )  Instruction Set Attributes Regis
 431:/home/torbjorn/eclipse-workspace/CoreNG/asf/thirdparty/CMSIS/Include/core_cm7.h ****        uint32_t RESERVED0[1];
 432:/home/torbjorn/eclipse-workspace/CoreNG/asf/thirdparty/CMSIS/Include/core_cm7.h ****   __I  uint32_t CLIDR;                   /*!< Offset: 0x078 (R/ )  Cache Level ID register         
 433:/home/torbjorn/eclipse-workspace/CoreNG/asf/thirdparty/CMSIS/Include/core_cm7.h ****   __I  uint32_t CTR;                     /*!< Offset: 0x07C (R/ )  Cache Type register             
 434:/home/torbjorn/eclipse-workspace/CoreNG/asf/thirdparty/CMSIS/Include/core_cm7.h ****   __I  uint32_t CCSIDR;                  /*!< Offset: 0x080 (R/ )  Cache Size ID Register          
 435:/home/torbjorn/eclipse-workspace/CoreNG/asf/thirdparty/CMSIS/Include/core_cm7.h ****   __IO uint32_t CSSELR;                  /*!< Offset: 0x084 (R/W)  Cache Size Selection Register   
 436:/home/torbjorn/eclipse-workspace/CoreNG/asf/thirdparty/CMSIS/Include/core_cm7.h ****   __IO uint32_t CPACR;                   /*!< Offset: 0x088 (R/W)  Coprocessor Access Control Regis
 437:/home/torbjorn/eclipse-workspace/CoreNG/asf/thirdparty/CMSIS/Include/core_cm7.h ****        uint32_t RESERVED3[93];
 438:/home/torbjorn/eclipse-workspace/CoreNG/asf/thirdparty/CMSIS/Include/core_cm7.h ****   __O  uint32_t STIR;                    /*!< Offset: 0x200 ( /W)  Software Triggered Interrupt Reg
 439:/home/torbjorn/eclipse-workspace/CoreNG/asf/thirdparty/CMSIS/Include/core_cm7.h ****        uint32_t RESERVED4[15];
 440:/home/torbjorn/eclipse-workspace/CoreNG/asf/thirdparty/CMSIS/Include/core_cm7.h ****   __I  uint32_t MVFR0;                   /*!< Offset: 0x240 (R/ )  Media and VFP Feature Register 0
 441:/home/torbjorn/eclipse-workspace/CoreNG/asf/thirdparty/CMSIS/Include/core_cm7.h ****   __I  uint32_t MVFR1;                   /*!< Offset: 0x244 (R/ )  Media and VFP Feature Register 1
 442:/home/torbjorn/eclipse-workspace/CoreNG/asf/thirdparty/CMSIS/Include/core_cm7.h ****   __I  uint32_t MVFR2;                   /*!< Offset: 0x248 (R/ )  Media and VFP Feature Register 1
 443:/home/torbjorn/eclipse-workspace/CoreNG/asf/thirdparty/CMSIS/Include/core_cm7.h ****        uint32_t RESERVED5[1];
 444:/home/torbjorn/eclipse-workspace/CoreNG/asf/thirdparty/CMSIS/Include/core_cm7.h ****   __O  uint32_t ICIALLU;                 /*!< Offset: 0x250 ( /W)  I-Cache Invalidate All to PoU   
 445:/home/torbjorn/eclipse-workspace/CoreNG/asf/thirdparty/CMSIS/Include/core_cm7.h ****        uint32_t RESERVED6[1];
 446:/home/torbjorn/eclipse-workspace/CoreNG/asf/thirdparty/CMSIS/Include/core_cm7.h ****   __O  uint32_t ICIMVAU;                 /*!< Offset: 0x258 ( /W)  I-Cache Invalidate by MVA to PoU
 447:/home/torbjorn/eclipse-workspace/CoreNG/asf/thirdparty/CMSIS/Include/core_cm7.h ****   __O  uint32_t DCIMVAU;                 /*!< Offset: 0x25C ( /W)  D-Cache Invalidate by MVA to PoC
 448:/home/torbjorn/eclipse-workspace/CoreNG/asf/thirdparty/CMSIS/Include/core_cm7.h ****   __O  uint32_t DCISW;                   /*!< Offset: 0x260 ( /W)  D-Cache Invalidate by Set-way   
 449:/home/torbjorn/eclipse-workspace/CoreNG/asf/thirdparty/CMSIS/Include/core_cm7.h ****   __O  uint32_t DCCMVAU;                 /*!< Offset: 0x264 ( /W)  D-Cache Clean by MVA to PoU     
 450:/home/torbjorn/eclipse-workspace/CoreNG/asf/thirdparty/CMSIS/Include/core_cm7.h ****   __O  uint32_t DCCMVAC;                 /*!< Offset: 0x268 ( /W)  D-Cache Clean by MVA to PoC     
 451:/home/torbjorn/eclipse-workspace/CoreNG/asf/thirdparty/CMSIS/Include/core_cm7.h ****   __O  uint32_t DCCSW;                   /*!< Offset: 0x26C ( /W)  D-Cache Clean by Set-way        
 452:/home/torbjorn/eclipse-workspace/CoreNG/asf/thirdparty/CMSIS/Include/core_cm7.h ****   __O  uint32_t DCCIMVAC;                /*!< Offset: 0x270 ( /W)  D-Cache Clean and Invalidate by 
 453:/home/torbjorn/eclipse-workspace/CoreNG/asf/thirdparty/CMSIS/Include/core_cm7.h ****   __O  uint32_t DCCISW;                  /*!< Offset: 0x274 ( /W)  D-Cache Clean and Invalidate by 
 454:/home/torbjorn/eclipse-workspace/CoreNG/asf/thirdparty/CMSIS/Include/core_cm7.h ****        uint32_t RESERVED7[6];
 455:/home/torbjorn/eclipse-workspace/CoreNG/asf/thirdparty/CMSIS/Include/core_cm7.h ****   __IO uint32_t ITCMCR;                  /*!< Offset: 0x290 (R/W)  Instruction Tightly-Coupled Memo
 456:/home/torbjorn/eclipse-workspace/CoreNG/asf/thirdparty/CMSIS/Include/core_cm7.h ****   __IO uint32_t DTCMCR;                  /*!< Offset: 0x294 (R/W)  Data Tightly-Coupled Memory Cont
 457:/home/torbjorn/eclipse-workspace/CoreNG/asf/thirdparty/CMSIS/Include/core_cm7.h ****   __IO uint32_t AHBPCR;                  /*!< Offset: 0x298 (R/W)  AHBP Control Register           
 458:/home/torbjorn/eclipse-workspace/CoreNG/asf/thirdparty/CMSIS/Include/core_cm7.h ****   __IO uint32_t CACR;                    /*!< Offset: 0x29C (R/W)  L1 Cache Control Register       
 459:/home/torbjorn/eclipse-workspace/CoreNG/asf/thirdparty/CMSIS/Include/core_cm7.h ****   __IO uint32_t AHBSCR;                  /*!< Offset: 0x2A0 (R/W)  AHB Slave Control Register      
 460:/home/torbjorn/eclipse-workspace/CoreNG/asf/thirdparty/CMSIS/Include/core_cm7.h ****        uint32_t RESERVED8[1];
 461:/home/torbjorn/eclipse-workspace/CoreNG/asf/thirdparty/CMSIS/Include/core_cm7.h ****   __IO uint32_t ABFSR;                   /*!< Offset: 0x2A8 (R/W)  Auxiliary Bus Fault Status Regis
 462:/home/torbjorn/eclipse-workspace/CoreNG/asf/thirdparty/CMSIS/Include/core_cm7.h **** } SCB_Type;
 463:/home/torbjorn/eclipse-workspace/CoreNG/asf/thirdparty/CMSIS/Include/core_cm7.h **** 
 464:/home/torbjorn/eclipse-workspace/CoreNG/asf/thirdparty/CMSIS/Include/core_cm7.h **** /* SCB CPUID Register Definitions */
 465:/home/torbjorn/eclipse-workspace/CoreNG/asf/thirdparty/CMSIS/Include/core_cm7.h **** #define SCB_CPUID_IMPLEMENTER_Pos          24                                             /*!< SCB 
 466:/home/torbjorn/eclipse-workspace/CoreNG/asf/thirdparty/CMSIS/Include/core_cm7.h **** #define SCB_CPUID_IMPLEMENTER_Msk          (0xFFUL << SCB_CPUID_IMPLEMENTER_Pos)          /*!< SCB 
 467:/home/torbjorn/eclipse-workspace/CoreNG/asf/thirdparty/CMSIS/Include/core_cm7.h **** 
 468:/home/torbjorn/eclipse-workspace/CoreNG/asf/thirdparty/CMSIS/Include/core_cm7.h **** #define SCB_CPUID_VARIANT_Pos              20                                             /*!< SCB 
 469:/home/torbjorn/eclipse-workspace/CoreNG/asf/thirdparty/CMSIS/Include/core_cm7.h **** #define SCB_CPUID_VARIANT_Msk              (0xFUL << SCB_CPUID_VARIANT_Pos)               /*!< SCB 
 470:/home/torbjorn/eclipse-workspace/CoreNG/asf/thirdparty/CMSIS/Include/core_cm7.h **** 
 471:/home/torbjorn/eclipse-workspace/CoreNG/asf/thirdparty/CMSIS/Include/core_cm7.h **** #define SCB_CPUID_ARCHITECTURE_Pos         16                                             /*!< SCB 
 472:/home/torbjorn/eclipse-workspace/CoreNG/asf/thirdparty/CMSIS/Include/core_cm7.h **** #define SCB_CPUID_ARCHITECTURE_Msk         (0xFUL << SCB_CPUID_ARCHITECTURE_Pos)          /*!< SCB 
ARM GAS  /tmp/ccQNhOlE.s 			page 49


 473:/home/torbjorn/eclipse-workspace/CoreNG/asf/thirdparty/CMSIS/Include/core_cm7.h **** 
 474:/home/torbjorn/eclipse-workspace/CoreNG/asf/thirdparty/CMSIS/Include/core_cm7.h **** #define SCB_CPUID_PARTNO_Pos                4                                             /*!< SCB 
 475:/home/torbjorn/eclipse-workspace/CoreNG/asf/thirdparty/CMSIS/Include/core_cm7.h **** #define SCB_CPUID_PARTNO_Msk               (0xFFFUL << SCB_CPUID_PARTNO_Pos)              /*!< SCB 
 476:/home/torbjorn/eclipse-workspace/CoreNG/asf/thirdparty/CMSIS/Include/core_cm7.h **** 
 477:/home/torbjorn/eclipse-workspace/CoreNG/asf/thirdparty/CMSIS/Include/core_cm7.h **** #define SCB_CPUID_REVISION_Pos              0                                             /*!< SCB 
 478:/home/torbjorn/eclipse-workspace/CoreNG/asf/thirdparty/CMSIS/Include/core_cm7.h **** #define SCB_CPUID_REVISION_Msk             (0xFUL << SCB_CPUID_REVISION_Pos)              /*!< SCB 
 479:/home/torbjorn/eclipse-workspace/CoreNG/asf/thirdparty/CMSIS/Include/core_cm7.h **** 
 480:/home/torbjorn/eclipse-workspace/CoreNG/asf/thirdparty/CMSIS/Include/core_cm7.h **** /* SCB Interrupt Control State Register Definitions */
 481:/home/torbjorn/eclipse-workspace/CoreNG/asf/thirdparty/CMSIS/Include/core_cm7.h **** #define SCB_ICSR_NMIPENDSET_Pos            31                                             /*!< SCB 
 482:/home/torbjorn/eclipse-workspace/CoreNG/asf/thirdparty/CMSIS/Include/core_cm7.h **** #define SCB_ICSR_NMIPENDSET_Msk            (1UL << SCB_ICSR_NMIPENDSET_Pos)               /*!< SCB 
 483:/home/torbjorn/eclipse-workspace/CoreNG/asf/thirdparty/CMSIS/Include/core_cm7.h **** 
 484:/home/torbjorn/eclipse-workspace/CoreNG/asf/thirdparty/CMSIS/Include/core_cm7.h **** #define SCB_ICSR_PENDSVSET_Pos             28                                             /*!< SCB 
 485:/home/torbjorn/eclipse-workspace/CoreNG/asf/thirdparty/CMSIS/Include/core_cm7.h **** #define SCB_ICSR_PENDSVSET_Msk             (1UL << SCB_ICSR_PENDSVSET_Pos)                /*!< SCB 
 486:/home/torbjorn/eclipse-workspace/CoreNG/asf/thirdparty/CMSIS/Include/core_cm7.h **** 
 487:/home/torbjorn/eclipse-workspace/CoreNG/asf/thirdparty/CMSIS/Include/core_cm7.h **** #define SCB_ICSR_PENDSVCLR_Pos             27                                             /*!< SCB 
 488:/home/torbjorn/eclipse-workspace/CoreNG/asf/thirdparty/CMSIS/Include/core_cm7.h **** #define SCB_ICSR_PENDSVCLR_Msk             (1UL << SCB_ICSR_PENDSVCLR_Pos)                /*!< SCB 
 489:/home/torbjorn/eclipse-workspace/CoreNG/asf/thirdparty/CMSIS/Include/core_cm7.h **** 
 490:/home/torbjorn/eclipse-workspace/CoreNG/asf/thirdparty/CMSIS/Include/core_cm7.h **** #define SCB_ICSR_PENDSTSET_Pos             26                                             /*!< SCB 
 491:/home/torbjorn/eclipse-workspace/CoreNG/asf/thirdparty/CMSIS/Include/core_cm7.h **** #define SCB_ICSR_PENDSTSET_Msk             (1UL << SCB_ICSR_PENDSTSET_Pos)                /*!< SCB 
 492:/home/torbjorn/eclipse-workspace/CoreNG/asf/thirdparty/CMSIS/Include/core_cm7.h **** 
 493:/home/torbjorn/eclipse-workspace/CoreNG/asf/thirdparty/CMSIS/Include/core_cm7.h **** #define SCB_ICSR_PENDSTCLR_Pos             25                                             /*!< SCB 
 494:/home/torbjorn/eclipse-workspace/CoreNG/asf/thirdparty/CMSIS/Include/core_cm7.h **** #define SCB_ICSR_PENDSTCLR_Msk             (1UL << SCB_ICSR_PENDSTCLR_Pos)                /*!< SCB 
 495:/home/torbjorn/eclipse-workspace/CoreNG/asf/thirdparty/CMSIS/Include/core_cm7.h **** 
 496:/home/torbjorn/eclipse-workspace/CoreNG/asf/thirdparty/CMSIS/Include/core_cm7.h **** #define SCB_ICSR_ISRPREEMPT_Pos            23                                             /*!< SCB 
 497:/home/torbjorn/eclipse-workspace/CoreNG/asf/thirdparty/CMSIS/Include/core_cm7.h **** #define SCB_ICSR_ISRPREEMPT_Msk            (1UL << SCB_ICSR_ISRPREEMPT_Pos)               /*!< SCB 
 498:/home/torbjorn/eclipse-workspace/CoreNG/asf/thirdparty/CMSIS/Include/core_cm7.h **** 
 499:/home/torbjorn/eclipse-workspace/CoreNG/asf/thirdparty/CMSIS/Include/core_cm7.h **** #define SCB_ICSR_ISRPENDING_Pos            22                                             /*!< SCB 
 500:/home/torbjorn/eclipse-workspace/CoreNG/asf/thirdparty/CMSIS/Include/core_cm7.h **** #define SCB_ICSR_ISRPENDING_Msk            (1UL << SCB_ICSR_ISRPENDING_Pos)               /*!< SCB 
 501:/home/torbjorn/eclipse-workspace/CoreNG/asf/thirdparty/CMSIS/Include/core_cm7.h **** 
 502:/home/torbjorn/eclipse-workspace/CoreNG/asf/thirdparty/CMSIS/Include/core_cm7.h **** #define SCB_ICSR_VECTPENDING_Pos           12                                             /*!< SCB 
 503:/home/torbjorn/eclipse-workspace/CoreNG/asf/thirdparty/CMSIS/Include/core_cm7.h **** #define SCB_ICSR_VECTPENDING_Msk           (0x1FFUL << SCB_ICSR_VECTPENDING_Pos)          /*!< SCB 
 504:/home/torbjorn/eclipse-workspace/CoreNG/asf/thirdparty/CMSIS/Include/core_cm7.h **** 
 505:/home/torbjorn/eclipse-workspace/CoreNG/asf/thirdparty/CMSIS/Include/core_cm7.h **** #define SCB_ICSR_RETTOBASE_Pos             11                                             /*!< SCB 
 506:/home/torbjorn/eclipse-workspace/CoreNG/asf/thirdparty/CMSIS/Include/core_cm7.h **** #define SCB_ICSR_RETTOBASE_Msk             (1UL << SCB_ICSR_RETTOBASE_Pos)                /*!< SCB 
 507:/home/torbjorn/eclipse-workspace/CoreNG/asf/thirdparty/CMSIS/Include/core_cm7.h **** 
 508:/home/torbjorn/eclipse-workspace/CoreNG/asf/thirdparty/CMSIS/Include/core_cm7.h **** #define SCB_ICSR_VECTACTIVE_Pos             0                                             /*!< SCB 
 509:/home/torbjorn/eclipse-workspace/CoreNG/asf/thirdparty/CMSIS/Include/core_cm7.h **** #define SCB_ICSR_VECTACTIVE_Msk            (0x1FFUL << SCB_ICSR_VECTACTIVE_Pos)           /*!< SCB 
 510:/home/torbjorn/eclipse-workspace/CoreNG/asf/thirdparty/CMSIS/Include/core_cm7.h **** 
 511:/home/torbjorn/eclipse-workspace/CoreNG/asf/thirdparty/CMSIS/Include/core_cm7.h **** /* SCB Vector Table Offset Register Definitions */
 512:/home/torbjorn/eclipse-workspace/CoreNG/asf/thirdparty/CMSIS/Include/core_cm7.h **** #define SCB_VTOR_TBLOFF_Pos                 7                                             /*!< SCB 
 513:/home/torbjorn/eclipse-workspace/CoreNG/asf/thirdparty/CMSIS/Include/core_cm7.h **** #define SCB_VTOR_TBLOFF_Msk                (0x1FFFFFFUL << SCB_VTOR_TBLOFF_Pos)           /*!< SCB 
 514:/home/torbjorn/eclipse-workspace/CoreNG/asf/thirdparty/CMSIS/Include/core_cm7.h **** 
 515:/home/torbjorn/eclipse-workspace/CoreNG/asf/thirdparty/CMSIS/Include/core_cm7.h **** /* SCB Application Interrupt and Reset Control Register Definitions */
 516:/home/torbjorn/eclipse-workspace/CoreNG/asf/thirdparty/CMSIS/Include/core_cm7.h **** #define SCB_AIRCR_VECTKEY_Pos              16                                             /*!< SCB 
 517:/home/torbjorn/eclipse-workspace/CoreNG/asf/thirdparty/CMSIS/Include/core_cm7.h **** #define SCB_AIRCR_VECTKEY_Msk              (0xFFFFUL << SCB_AIRCR_VECTKEY_Pos)            /*!< SCB 
 518:/home/torbjorn/eclipse-workspace/CoreNG/asf/thirdparty/CMSIS/Include/core_cm7.h **** 
 519:/home/torbjorn/eclipse-workspace/CoreNG/asf/thirdparty/CMSIS/Include/core_cm7.h **** #define SCB_AIRCR_VECTKEYSTAT_Pos          16                                             /*!< SCB 
 520:/home/torbjorn/eclipse-workspace/CoreNG/asf/thirdparty/CMSIS/Include/core_cm7.h **** #define SCB_AIRCR_VECTKEYSTAT_Msk          (0xFFFFUL << SCB_AIRCR_VECTKEYSTAT_Pos)        /*!< SCB 
 521:/home/torbjorn/eclipse-workspace/CoreNG/asf/thirdparty/CMSIS/Include/core_cm7.h **** 
 522:/home/torbjorn/eclipse-workspace/CoreNG/asf/thirdparty/CMSIS/Include/core_cm7.h **** #define SCB_AIRCR_ENDIANESS_Pos            15                                             /*!< SCB 
 523:/home/torbjorn/eclipse-workspace/CoreNG/asf/thirdparty/CMSIS/Include/core_cm7.h **** #define SCB_AIRCR_ENDIANESS_Msk            (1UL << SCB_AIRCR_ENDIANESS_Pos)               /*!< SCB 
 524:/home/torbjorn/eclipse-workspace/CoreNG/asf/thirdparty/CMSIS/Include/core_cm7.h **** 
 525:/home/torbjorn/eclipse-workspace/CoreNG/asf/thirdparty/CMSIS/Include/core_cm7.h **** #define SCB_AIRCR_PRIGROUP_Pos              8                                             /*!< SCB 
 526:/home/torbjorn/eclipse-workspace/CoreNG/asf/thirdparty/CMSIS/Include/core_cm7.h **** #define SCB_AIRCR_PRIGROUP_Msk             (7UL << SCB_AIRCR_PRIGROUP_Pos)                /*!< SCB 
 527:/home/torbjorn/eclipse-workspace/CoreNG/asf/thirdparty/CMSIS/Include/core_cm7.h **** 
 528:/home/torbjorn/eclipse-workspace/CoreNG/asf/thirdparty/CMSIS/Include/core_cm7.h **** #define SCB_AIRCR_SYSRESETREQ_Pos           2                                             /*!< SCB 
 529:/home/torbjorn/eclipse-workspace/CoreNG/asf/thirdparty/CMSIS/Include/core_cm7.h **** #define SCB_AIRCR_SYSRESETREQ_Msk          (1UL << SCB_AIRCR_SYSRESETREQ_Pos)             /*!< SCB 
ARM GAS  /tmp/ccQNhOlE.s 			page 50


 530:/home/torbjorn/eclipse-workspace/CoreNG/asf/thirdparty/CMSIS/Include/core_cm7.h **** 
 531:/home/torbjorn/eclipse-workspace/CoreNG/asf/thirdparty/CMSIS/Include/core_cm7.h **** #define SCB_AIRCR_VECTCLRACTIVE_Pos         1                                             /*!< SCB 
 532:/home/torbjorn/eclipse-workspace/CoreNG/asf/thirdparty/CMSIS/Include/core_cm7.h **** #define SCB_AIRCR_VECTCLRACTIVE_Msk        (1UL << SCB_AIRCR_VECTCLRACTIVE_Pos)           /*!< SCB 
 533:/home/torbjorn/eclipse-workspace/CoreNG/asf/thirdparty/CMSIS/Include/core_cm7.h **** 
 534:/home/torbjorn/eclipse-workspace/CoreNG/asf/thirdparty/CMSIS/Include/core_cm7.h **** #define SCB_AIRCR_VECTRESET_Pos             0                                             /*!< SCB 
 535:/home/torbjorn/eclipse-workspace/CoreNG/asf/thirdparty/CMSIS/Include/core_cm7.h **** #define SCB_AIRCR_VECTRESET_Msk            (1UL << SCB_AIRCR_VECTRESET_Pos)               /*!< SCB 
 536:/home/torbjorn/eclipse-workspace/CoreNG/asf/thirdparty/CMSIS/Include/core_cm7.h **** 
 537:/home/torbjorn/eclipse-workspace/CoreNG/asf/thirdparty/CMSIS/Include/core_cm7.h **** /* SCB System Control Register Definitions */
 538:/home/torbjorn/eclipse-workspace/CoreNG/asf/thirdparty/CMSIS/Include/core_cm7.h **** #define SCB_SCR_SEVONPEND_Pos               4                                             /*!< SCB 
 539:/home/torbjorn/eclipse-workspace/CoreNG/asf/thirdparty/CMSIS/Include/core_cm7.h **** #define SCB_SCR_SEVONPEND_Msk              (1UL << SCB_SCR_SEVONPEND_Pos)                 /*!< SCB 
 540:/home/torbjorn/eclipse-workspace/CoreNG/asf/thirdparty/CMSIS/Include/core_cm7.h **** 
 541:/home/torbjorn/eclipse-workspace/CoreNG/asf/thirdparty/CMSIS/Include/core_cm7.h **** #define SCB_SCR_SLEEPDEEP_Pos               2                                             /*!< SCB 
 542:/home/torbjorn/eclipse-workspace/CoreNG/asf/thirdparty/CMSIS/Include/core_cm7.h **** #define SCB_SCR_SLEEPDEEP_Msk              (1UL << SCB_SCR_SLEEPDEEP_Pos)                 /*!< SCB 
 543:/home/torbjorn/eclipse-workspace/CoreNG/asf/thirdparty/CMSIS/Include/core_cm7.h **** 
 544:/home/torbjorn/eclipse-workspace/CoreNG/asf/thirdparty/CMSIS/Include/core_cm7.h **** #define SCB_SCR_SLEEPONEXIT_Pos             1                                             /*!< SCB 
 545:/home/torbjorn/eclipse-workspace/CoreNG/asf/thirdparty/CMSIS/Include/core_cm7.h **** #define SCB_SCR_SLEEPONEXIT_Msk            (1UL << SCB_SCR_SLEEPONEXIT_Pos)               /*!< SCB 
 546:/home/torbjorn/eclipse-workspace/CoreNG/asf/thirdparty/CMSIS/Include/core_cm7.h **** 
 547:/home/torbjorn/eclipse-workspace/CoreNG/asf/thirdparty/CMSIS/Include/core_cm7.h **** /* SCB Configuration Control Register Definitions */
 548:/home/torbjorn/eclipse-workspace/CoreNG/asf/thirdparty/CMSIS/Include/core_cm7.h **** #define SCB_CCR_BP_Pos                      18                                            /*!< SCB 
 549:/home/torbjorn/eclipse-workspace/CoreNG/asf/thirdparty/CMSIS/Include/core_cm7.h **** #define SCB_CCR_BP_Msk                     (1UL << SCB_CCR_BP_Pos)                        /*!< SCB 
 550:/home/torbjorn/eclipse-workspace/CoreNG/asf/thirdparty/CMSIS/Include/core_cm7.h **** 
 551:/home/torbjorn/eclipse-workspace/CoreNG/asf/thirdparty/CMSIS/Include/core_cm7.h **** #define SCB_CCR_IC_Pos                      17                                            /*!< SCB 
 552:/home/torbjorn/eclipse-workspace/CoreNG/asf/thirdparty/CMSIS/Include/core_cm7.h **** #define SCB_CCR_IC_Msk                     (1UL << SCB_CCR_IC_Pos)                        /*!< SCB 
 553:/home/torbjorn/eclipse-workspace/CoreNG/asf/thirdparty/CMSIS/Include/core_cm7.h **** 
 554:/home/torbjorn/eclipse-workspace/CoreNG/asf/thirdparty/CMSIS/Include/core_cm7.h **** #define SCB_CCR_DC_Pos                      16                                            /*!< SCB 
 555:/home/torbjorn/eclipse-workspace/CoreNG/asf/thirdparty/CMSIS/Include/core_cm7.h **** #define SCB_CCR_DC_Msk                     (1UL << SCB_CCR_DC_Pos)                        /*!< SCB 
 556:/home/torbjorn/eclipse-workspace/CoreNG/asf/thirdparty/CMSIS/Include/core_cm7.h **** 
 557:/home/torbjorn/eclipse-workspace/CoreNG/asf/thirdparty/CMSIS/Include/core_cm7.h **** #define SCB_CCR_STKALIGN_Pos                9                                             /*!< SCB 
 558:/home/torbjorn/eclipse-workspace/CoreNG/asf/thirdparty/CMSIS/Include/core_cm7.h **** #define SCB_CCR_STKALIGN_Msk               (1UL << SCB_CCR_STKALIGN_Pos)                  /*!< SCB 
 559:/home/torbjorn/eclipse-workspace/CoreNG/asf/thirdparty/CMSIS/Include/core_cm7.h **** 
 560:/home/torbjorn/eclipse-workspace/CoreNG/asf/thirdparty/CMSIS/Include/core_cm7.h **** #define SCB_CCR_BFHFNMIGN_Pos               8                                             /*!< SCB 
 561:/home/torbjorn/eclipse-workspace/CoreNG/asf/thirdparty/CMSIS/Include/core_cm7.h **** #define SCB_CCR_BFHFNMIGN_Msk              (1UL << SCB_CCR_BFHFNMIGN_Pos)                 /*!< SCB 
 562:/home/torbjorn/eclipse-workspace/CoreNG/asf/thirdparty/CMSIS/Include/core_cm7.h **** 
 563:/home/torbjorn/eclipse-workspace/CoreNG/asf/thirdparty/CMSIS/Include/core_cm7.h **** #define SCB_CCR_DIV_0_TRP_Pos               4                                             /*!< SCB 
 564:/home/torbjorn/eclipse-workspace/CoreNG/asf/thirdparty/CMSIS/Include/core_cm7.h **** #define SCB_CCR_DIV_0_TRP_Msk              (1UL << SCB_CCR_DIV_0_TRP_Pos)                 /*!< SCB 
 565:/home/torbjorn/eclipse-workspace/CoreNG/asf/thirdparty/CMSIS/Include/core_cm7.h **** 
 566:/home/torbjorn/eclipse-workspace/CoreNG/asf/thirdparty/CMSIS/Include/core_cm7.h **** #define SCB_CCR_UNALIGN_TRP_Pos             3                                             /*!< SCB 
 567:/home/torbjorn/eclipse-workspace/CoreNG/asf/thirdparty/CMSIS/Include/core_cm7.h **** #define SCB_CCR_UNALIGN_TRP_Msk            (1UL << SCB_CCR_UNALIGN_TRP_Pos)               /*!< SCB 
 568:/home/torbjorn/eclipse-workspace/CoreNG/asf/thirdparty/CMSIS/Include/core_cm7.h **** 
 569:/home/torbjorn/eclipse-workspace/CoreNG/asf/thirdparty/CMSIS/Include/core_cm7.h **** #define SCB_CCR_USERSETMPEND_Pos            1                                             /*!< SCB 
 570:/home/torbjorn/eclipse-workspace/CoreNG/asf/thirdparty/CMSIS/Include/core_cm7.h **** #define SCB_CCR_USERSETMPEND_Msk           (1UL << SCB_CCR_USERSETMPEND_Pos)              /*!< SCB 
 571:/home/torbjorn/eclipse-workspace/CoreNG/asf/thirdparty/CMSIS/Include/core_cm7.h **** 
 572:/home/torbjorn/eclipse-workspace/CoreNG/asf/thirdparty/CMSIS/Include/core_cm7.h **** #define SCB_CCR_NONBASETHRDENA_Pos          0                                             /*!< SCB 
 573:/home/torbjorn/eclipse-workspace/CoreNG/asf/thirdparty/CMSIS/Include/core_cm7.h **** #define SCB_CCR_NONBASETHRDENA_Msk         (1UL << SCB_CCR_NONBASETHRDENA_Pos)            /*!< SCB 
 574:/home/torbjorn/eclipse-workspace/CoreNG/asf/thirdparty/CMSIS/Include/core_cm7.h **** 
 575:/home/torbjorn/eclipse-workspace/CoreNG/asf/thirdparty/CMSIS/Include/core_cm7.h **** /* SCB System Handler Control and State Register Definitions */
 576:/home/torbjorn/eclipse-workspace/CoreNG/asf/thirdparty/CMSIS/Include/core_cm7.h **** #define SCB_SHCSR_USGFAULTENA_Pos          18                                             /*!< SCB 
 577:/home/torbjorn/eclipse-workspace/CoreNG/asf/thirdparty/CMSIS/Include/core_cm7.h **** #define SCB_SHCSR_USGFAULTENA_Msk          (1UL << SCB_SHCSR_USGFAULTENA_Pos)             /*!< SCB 
 578:/home/torbjorn/eclipse-workspace/CoreNG/asf/thirdparty/CMSIS/Include/core_cm7.h **** 
 579:/home/torbjorn/eclipse-workspace/CoreNG/asf/thirdparty/CMSIS/Include/core_cm7.h **** #define SCB_SHCSR_BUSFAULTENA_Pos          17                                             /*!< SCB 
 580:/home/torbjorn/eclipse-workspace/CoreNG/asf/thirdparty/CMSIS/Include/core_cm7.h **** #define SCB_SHCSR_BUSFAULTENA_Msk          (1UL << SCB_SHCSR_BUSFAULTENA_Pos)             /*!< SCB 
 581:/home/torbjorn/eclipse-workspace/CoreNG/asf/thirdparty/CMSIS/Include/core_cm7.h **** 
 582:/home/torbjorn/eclipse-workspace/CoreNG/asf/thirdparty/CMSIS/Include/core_cm7.h **** #define SCB_SHCSR_MEMFAULTENA_Pos          16                                             /*!< SCB 
 583:/home/torbjorn/eclipse-workspace/CoreNG/asf/thirdparty/CMSIS/Include/core_cm7.h **** #define SCB_SHCSR_MEMFAULTENA_Msk          (1UL << SCB_SHCSR_MEMFAULTENA_Pos)             /*!< SCB 
 584:/home/torbjorn/eclipse-workspace/CoreNG/asf/thirdparty/CMSIS/Include/core_cm7.h **** 
 585:/home/torbjorn/eclipse-workspace/CoreNG/asf/thirdparty/CMSIS/Include/core_cm7.h **** #define SCB_SHCSR_SVCALLPENDED_Pos         15                                             /*!< SCB 
 586:/home/torbjorn/eclipse-workspace/CoreNG/asf/thirdparty/CMSIS/Include/core_cm7.h **** #define SCB_SHCSR_SVCALLPENDED_Msk         (1UL << SCB_SHCSR_SVCALLPENDED_Pos)            /*!< SCB 
ARM GAS  /tmp/ccQNhOlE.s 			page 51


 587:/home/torbjorn/eclipse-workspace/CoreNG/asf/thirdparty/CMSIS/Include/core_cm7.h **** 
 588:/home/torbjorn/eclipse-workspace/CoreNG/asf/thirdparty/CMSIS/Include/core_cm7.h **** #define SCB_SHCSR_BUSFAULTPENDED_Pos       14                                             /*!< SCB 
 589:/home/torbjorn/eclipse-workspace/CoreNG/asf/thirdparty/CMSIS/Include/core_cm7.h **** #define SCB_SHCSR_BUSFAULTPENDED_Msk       (1UL << SCB_SHCSR_BUSFAULTPENDED_Pos)          /*!< SCB 
 590:/home/torbjorn/eclipse-workspace/CoreNG/asf/thirdparty/CMSIS/Include/core_cm7.h **** 
 591:/home/torbjorn/eclipse-workspace/CoreNG/asf/thirdparty/CMSIS/Include/core_cm7.h **** #define SCB_SHCSR_MEMFAULTPENDED_Pos       13                                             /*!< SCB 
 592:/home/torbjorn/eclipse-workspace/CoreNG/asf/thirdparty/CMSIS/Include/core_cm7.h **** #define SCB_SHCSR_MEMFAULTPENDED_Msk       (1UL << SCB_SHCSR_MEMFAULTPENDED_Pos)          /*!< SCB 
 593:/home/torbjorn/eclipse-workspace/CoreNG/asf/thirdparty/CMSIS/Include/core_cm7.h **** 
 594:/home/torbjorn/eclipse-workspace/CoreNG/asf/thirdparty/CMSIS/Include/core_cm7.h **** #define SCB_SHCSR_USGFAULTPENDED_Pos       12                                             /*!< SCB 
 595:/home/torbjorn/eclipse-workspace/CoreNG/asf/thirdparty/CMSIS/Include/core_cm7.h **** #define SCB_SHCSR_USGFAULTPENDED_Msk       (1UL << SCB_SHCSR_USGFAULTPENDED_Pos)          /*!< SCB 
 596:/home/torbjorn/eclipse-workspace/CoreNG/asf/thirdparty/CMSIS/Include/core_cm7.h **** 
 597:/home/torbjorn/eclipse-workspace/CoreNG/asf/thirdparty/CMSIS/Include/core_cm7.h **** #define SCB_SHCSR_SYSTICKACT_Pos           11                                             /*!< SCB 
 598:/home/torbjorn/eclipse-workspace/CoreNG/asf/thirdparty/CMSIS/Include/core_cm7.h **** #define SCB_SHCSR_SYSTICKACT_Msk           (1UL << SCB_SHCSR_SYSTICKACT_Pos)              /*!< SCB 
 599:/home/torbjorn/eclipse-workspace/CoreNG/asf/thirdparty/CMSIS/Include/core_cm7.h **** 
 600:/home/torbjorn/eclipse-workspace/CoreNG/asf/thirdparty/CMSIS/Include/core_cm7.h **** #define SCB_SHCSR_PENDSVACT_Pos            10                                             /*!< SCB 
 601:/home/torbjorn/eclipse-workspace/CoreNG/asf/thirdparty/CMSIS/Include/core_cm7.h **** #define SCB_SHCSR_PENDSVACT_Msk            (1UL << SCB_SHCSR_PENDSVACT_Pos)               /*!< SCB 
 602:/home/torbjorn/eclipse-workspace/CoreNG/asf/thirdparty/CMSIS/Include/core_cm7.h **** 
 603:/home/torbjorn/eclipse-workspace/CoreNG/asf/thirdparty/CMSIS/Include/core_cm7.h **** #define SCB_SHCSR_MONITORACT_Pos            8                                             /*!< SCB 
 604:/home/torbjorn/eclipse-workspace/CoreNG/asf/thirdparty/CMSIS/Include/core_cm7.h **** #define SCB_SHCSR_MONITORACT_Msk           (1UL << SCB_SHCSR_MONITORACT_Pos)              /*!< SCB 
 605:/home/torbjorn/eclipse-workspace/CoreNG/asf/thirdparty/CMSIS/Include/core_cm7.h **** 
 606:/home/torbjorn/eclipse-workspace/CoreNG/asf/thirdparty/CMSIS/Include/core_cm7.h **** #define SCB_SHCSR_SVCALLACT_Pos             7                                             /*!< SCB 
 607:/home/torbjorn/eclipse-workspace/CoreNG/asf/thirdparty/CMSIS/Include/core_cm7.h **** #define SCB_SHCSR_SVCALLACT_Msk            (1UL << SCB_SHCSR_SVCALLACT_Pos)               /*!< SCB 
 608:/home/torbjorn/eclipse-workspace/CoreNG/asf/thirdparty/CMSIS/Include/core_cm7.h **** 
 609:/home/torbjorn/eclipse-workspace/CoreNG/asf/thirdparty/CMSIS/Include/core_cm7.h **** #define SCB_SHCSR_USGFAULTACT_Pos           3                                             /*!< SCB 
 610:/home/torbjorn/eclipse-workspace/CoreNG/asf/thirdparty/CMSIS/Include/core_cm7.h **** #define SCB_SHCSR_USGFAULTACT_Msk          (1UL << SCB_SHCSR_USGFAULTACT_Pos)             /*!< SCB 
 611:/home/torbjorn/eclipse-workspace/CoreNG/asf/thirdparty/CMSIS/Include/core_cm7.h **** 
 612:/home/torbjorn/eclipse-workspace/CoreNG/asf/thirdparty/CMSIS/Include/core_cm7.h **** #define SCB_SHCSR_BUSFAULTACT_Pos           1                                             /*!< SCB 
 613:/home/torbjorn/eclipse-workspace/CoreNG/asf/thirdparty/CMSIS/Include/core_cm7.h **** #define SCB_SHCSR_BUSFAULTACT_Msk          (1UL << SCB_SHCSR_BUSFAULTACT_Pos)             /*!< SCB 
 614:/home/torbjorn/eclipse-workspace/CoreNG/asf/thirdparty/CMSIS/Include/core_cm7.h **** 
 615:/home/torbjorn/eclipse-workspace/CoreNG/asf/thirdparty/CMSIS/Include/core_cm7.h **** #define SCB_SHCSR_MEMFAULTACT_Pos           0                                             /*!< SCB 
 616:/home/torbjorn/eclipse-workspace/CoreNG/asf/thirdparty/CMSIS/Include/core_cm7.h **** #define SCB_SHCSR_MEMFAULTACT_Msk          (1UL << SCB_SHCSR_MEMFAULTACT_Pos)             /*!< SCB 
 617:/home/torbjorn/eclipse-workspace/CoreNG/asf/thirdparty/CMSIS/Include/core_cm7.h **** 
 618:/home/torbjorn/eclipse-workspace/CoreNG/asf/thirdparty/CMSIS/Include/core_cm7.h **** /* SCB Configurable Fault Status Registers Definitions */
 619:/home/torbjorn/eclipse-workspace/CoreNG/asf/thirdparty/CMSIS/Include/core_cm7.h **** #define SCB_CFSR_USGFAULTSR_Pos            16                                             /*!< SCB 
 620:/home/torbjorn/eclipse-workspace/CoreNG/asf/thirdparty/CMSIS/Include/core_cm7.h **** #define SCB_CFSR_USGFAULTSR_Msk            (0xFFFFUL << SCB_CFSR_USGFAULTSR_Pos)          /*!< SCB 
 621:/home/torbjorn/eclipse-workspace/CoreNG/asf/thirdparty/CMSIS/Include/core_cm7.h **** 
 622:/home/torbjorn/eclipse-workspace/CoreNG/asf/thirdparty/CMSIS/Include/core_cm7.h **** #define SCB_CFSR_BUSFAULTSR_Pos             8                                             /*!< SCB 
 623:/home/torbjorn/eclipse-workspace/CoreNG/asf/thirdparty/CMSIS/Include/core_cm7.h **** #define SCB_CFSR_BUSFAULTSR_Msk            (0xFFUL << SCB_CFSR_BUSFAULTSR_Pos)            /*!< SCB 
 624:/home/torbjorn/eclipse-workspace/CoreNG/asf/thirdparty/CMSIS/Include/core_cm7.h **** 
 625:/home/torbjorn/eclipse-workspace/CoreNG/asf/thirdparty/CMSIS/Include/core_cm7.h **** #define SCB_CFSR_MEMFAULTSR_Pos             0                                             /*!< SCB 
 626:/home/torbjorn/eclipse-workspace/CoreNG/asf/thirdparty/CMSIS/Include/core_cm7.h **** #define SCB_CFSR_MEMFAULTSR_Msk            (0xFFUL << SCB_CFSR_MEMFAULTSR_Pos)            /*!< SCB 
 627:/home/torbjorn/eclipse-workspace/CoreNG/asf/thirdparty/CMSIS/Include/core_cm7.h **** 
 628:/home/torbjorn/eclipse-workspace/CoreNG/asf/thirdparty/CMSIS/Include/core_cm7.h **** /* SCB Hard Fault Status Registers Definitions */
 629:/home/torbjorn/eclipse-workspace/CoreNG/asf/thirdparty/CMSIS/Include/core_cm7.h **** #define SCB_HFSR_DEBUGEVT_Pos              31                                             /*!< SCB 
 630:/home/torbjorn/eclipse-workspace/CoreNG/asf/thirdparty/CMSIS/Include/core_cm7.h **** #define SCB_HFSR_DEBUGEVT_Msk              (1UL << SCB_HFSR_DEBUGEVT_Pos)                 /*!< SCB 
 631:/home/torbjorn/eclipse-workspace/CoreNG/asf/thirdparty/CMSIS/Include/core_cm7.h **** 
 632:/home/torbjorn/eclipse-workspace/CoreNG/asf/thirdparty/CMSIS/Include/core_cm7.h **** #define SCB_HFSR_FORCED_Pos                30                                             /*!< SCB 
 633:/home/torbjorn/eclipse-workspace/CoreNG/asf/thirdparty/CMSIS/Include/core_cm7.h **** #define SCB_HFSR_FORCED_Msk                (1UL << SCB_HFSR_FORCED_Pos)                   /*!< SCB 
 634:/home/torbjorn/eclipse-workspace/CoreNG/asf/thirdparty/CMSIS/Include/core_cm7.h **** 
 635:/home/torbjorn/eclipse-workspace/CoreNG/asf/thirdparty/CMSIS/Include/core_cm7.h **** #define SCB_HFSR_VECTTBL_Pos                1                                             /*!< SCB 
 636:/home/torbjorn/eclipse-workspace/CoreNG/asf/thirdparty/CMSIS/Include/core_cm7.h **** #define SCB_HFSR_VECTTBL_Msk               (1UL << SCB_HFSR_VECTTBL_Pos)                  /*!< SCB 
 637:/home/torbjorn/eclipse-workspace/CoreNG/asf/thirdparty/CMSIS/Include/core_cm7.h **** 
 638:/home/torbjorn/eclipse-workspace/CoreNG/asf/thirdparty/CMSIS/Include/core_cm7.h **** /* SCB Debug Fault Status Register Definitions */
 639:/home/torbjorn/eclipse-workspace/CoreNG/asf/thirdparty/CMSIS/Include/core_cm7.h **** #define SCB_DFSR_EXTERNAL_Pos               4                                             /*!< SCB 
 640:/home/torbjorn/eclipse-workspace/CoreNG/asf/thirdparty/CMSIS/Include/core_cm7.h **** #define SCB_DFSR_EXTERNAL_Msk              (1UL << SCB_DFSR_EXTERNAL_Pos)                 /*!< SCB 
 641:/home/torbjorn/eclipse-workspace/CoreNG/asf/thirdparty/CMSIS/Include/core_cm7.h **** 
 642:/home/torbjorn/eclipse-workspace/CoreNG/asf/thirdparty/CMSIS/Include/core_cm7.h **** #define SCB_DFSR_VCATCH_Pos                 3                                             /*!< SCB 
 643:/home/torbjorn/eclipse-workspace/CoreNG/asf/thirdparty/CMSIS/Include/core_cm7.h **** #define SCB_DFSR_VCATCH_Msk                (1UL << SCB_DFSR_VCATCH_Pos)                   /*!< SCB 
ARM GAS  /tmp/ccQNhOlE.s 			page 52


 644:/home/torbjorn/eclipse-workspace/CoreNG/asf/thirdparty/CMSIS/Include/core_cm7.h **** 
 645:/home/torbjorn/eclipse-workspace/CoreNG/asf/thirdparty/CMSIS/Include/core_cm7.h **** #define SCB_DFSR_DWTTRAP_Pos                2                                             /*!< SCB 
 646:/home/torbjorn/eclipse-workspace/CoreNG/asf/thirdparty/CMSIS/Include/core_cm7.h **** #define SCB_DFSR_DWTTRAP_Msk               (1UL << SCB_DFSR_DWTTRAP_Pos)                  /*!< SCB 
 647:/home/torbjorn/eclipse-workspace/CoreNG/asf/thirdparty/CMSIS/Include/core_cm7.h **** 
 648:/home/torbjorn/eclipse-workspace/CoreNG/asf/thirdparty/CMSIS/Include/core_cm7.h **** #define SCB_DFSR_BKPT_Pos                   1                                             /*!< SCB 
 649:/home/torbjorn/eclipse-workspace/CoreNG/asf/thirdparty/CMSIS/Include/core_cm7.h **** #define SCB_DFSR_BKPT_Msk                  (1UL << SCB_DFSR_BKPT_Pos)                     /*!< SCB 
 650:/home/torbjorn/eclipse-workspace/CoreNG/asf/thirdparty/CMSIS/Include/core_cm7.h **** 
 651:/home/torbjorn/eclipse-workspace/CoreNG/asf/thirdparty/CMSIS/Include/core_cm7.h **** #define SCB_DFSR_HALTED_Pos                 0                                             /*!< SCB 
 652:/home/torbjorn/eclipse-workspace/CoreNG/asf/thirdparty/CMSIS/Include/core_cm7.h **** #define SCB_DFSR_HALTED_Msk                (1UL << SCB_DFSR_HALTED_Pos)                   /*!< SCB 
 653:/home/torbjorn/eclipse-workspace/CoreNG/asf/thirdparty/CMSIS/Include/core_cm7.h **** 
 654:/home/torbjorn/eclipse-workspace/CoreNG/asf/thirdparty/CMSIS/Include/core_cm7.h **** /* Cache Level ID register */
 655:/home/torbjorn/eclipse-workspace/CoreNG/asf/thirdparty/CMSIS/Include/core_cm7.h **** #define SCB_CLIDR_LOUU_Pos                 27                                             /*!< SCB 
 656:/home/torbjorn/eclipse-workspace/CoreNG/asf/thirdparty/CMSIS/Include/core_cm7.h **** #define SCB_CLIDR_LOUU_Msk                 (7UL << SCB_CLIDR_LOUU_Pos)                    /*!< SCB 
 657:/home/torbjorn/eclipse-workspace/CoreNG/asf/thirdparty/CMSIS/Include/core_cm7.h **** 
 658:/home/torbjorn/eclipse-workspace/CoreNG/asf/thirdparty/CMSIS/Include/core_cm7.h **** #define SCB_CLIDR_LOC_Pos                  24                                             /*!< SCB 
 659:/home/torbjorn/eclipse-workspace/CoreNG/asf/thirdparty/CMSIS/Include/core_cm7.h **** #define SCB_CLIDR_LOC_Msk                  (7UL << SCB_CLIDR_FORMAT_Pos)                  /*!< SCB 
 660:/home/torbjorn/eclipse-workspace/CoreNG/asf/thirdparty/CMSIS/Include/core_cm7.h **** 
 661:/home/torbjorn/eclipse-workspace/CoreNG/asf/thirdparty/CMSIS/Include/core_cm7.h **** /* Cache Type register */
 662:/home/torbjorn/eclipse-workspace/CoreNG/asf/thirdparty/CMSIS/Include/core_cm7.h **** #define SCB_CTR_FORMAT_Pos                 29                                             /*!< SCB 
 663:/home/torbjorn/eclipse-workspace/CoreNG/asf/thirdparty/CMSIS/Include/core_cm7.h **** #define SCB_CTR_FORMAT_Msk                 (7UL << SCB_CTR_FORMAT_Pos)                    /*!< SCB 
 664:/home/torbjorn/eclipse-workspace/CoreNG/asf/thirdparty/CMSIS/Include/core_cm7.h **** 
 665:/home/torbjorn/eclipse-workspace/CoreNG/asf/thirdparty/CMSIS/Include/core_cm7.h **** #define SCB_CTR_CWG_Pos                    24                                             /*!< SCB 
 666:/home/torbjorn/eclipse-workspace/CoreNG/asf/thirdparty/CMSIS/Include/core_cm7.h **** #define SCB_CTR_CWG_Msk                    (0xFUL << SCB_CTR_CWG_Pos)                     /*!< SCB 
 667:/home/torbjorn/eclipse-workspace/CoreNG/asf/thirdparty/CMSIS/Include/core_cm7.h **** 
 668:/home/torbjorn/eclipse-workspace/CoreNG/asf/thirdparty/CMSIS/Include/core_cm7.h **** #define SCB_CTR_ERG_Pos                    20                                             /*!< SCB 
 669:/home/torbjorn/eclipse-workspace/CoreNG/asf/thirdparty/CMSIS/Include/core_cm7.h **** #define SCB_CTR_ERG_Msk                    (0xFUL << SCB_CTR_ERG_Pos)                     /*!< SCB 
 670:/home/torbjorn/eclipse-workspace/CoreNG/asf/thirdparty/CMSIS/Include/core_cm7.h **** 
 671:/home/torbjorn/eclipse-workspace/CoreNG/asf/thirdparty/CMSIS/Include/core_cm7.h **** #define SCB_CTR_DMINLINE_Pos               16                                             /*!< SCB 
 672:/home/torbjorn/eclipse-workspace/CoreNG/asf/thirdparty/CMSIS/Include/core_cm7.h **** #define SCB_CTR_DMINLINE_Msk               (0xFUL << SCB_CTR_DMINLINE_Pos)                /*!< SCB 
 673:/home/torbjorn/eclipse-workspace/CoreNG/asf/thirdparty/CMSIS/Include/core_cm7.h **** 
 674:/home/torbjorn/eclipse-workspace/CoreNG/asf/thirdparty/CMSIS/Include/core_cm7.h **** #define SCB_CTR_IMINLINE_Pos                0                                             /*!< SCB 
 675:/home/torbjorn/eclipse-workspace/CoreNG/asf/thirdparty/CMSIS/Include/core_cm7.h **** #define SCB_CTR_IMINLINE_Msk               (0xFUL << SCB_CTR_IMINLINE_Pos)                /*!< SCB 
 676:/home/torbjorn/eclipse-workspace/CoreNG/asf/thirdparty/CMSIS/Include/core_cm7.h **** 
 677:/home/torbjorn/eclipse-workspace/CoreNG/asf/thirdparty/CMSIS/Include/core_cm7.h **** /* Cache Size ID Register */
 678:/home/torbjorn/eclipse-workspace/CoreNG/asf/thirdparty/CMSIS/Include/core_cm7.h **** #define SCB_CCSIDR_WT_Pos                  31                                             /*!< SCB 
 679:/home/torbjorn/eclipse-workspace/CoreNG/asf/thirdparty/CMSIS/Include/core_cm7.h **** #define SCB_CCSIDR_WT_Msk                  (7UL << SCB_CCSIDR_WT_Pos)                     /*!< SCB 
 680:/home/torbjorn/eclipse-workspace/CoreNG/asf/thirdparty/CMSIS/Include/core_cm7.h **** 
 681:/home/torbjorn/eclipse-workspace/CoreNG/asf/thirdparty/CMSIS/Include/core_cm7.h **** #define SCB_CCSIDR_WB_Pos                  30                                             /*!< SCB 
 682:/home/torbjorn/eclipse-workspace/CoreNG/asf/thirdparty/CMSIS/Include/core_cm7.h **** #define SCB_CCSIDR_WB_Msk                  (7UL << SCB_CCSIDR_WB_Pos)                     /*!< SCB 
 683:/home/torbjorn/eclipse-workspace/CoreNG/asf/thirdparty/CMSIS/Include/core_cm7.h **** 
 684:/home/torbjorn/eclipse-workspace/CoreNG/asf/thirdparty/CMSIS/Include/core_cm7.h **** #define SCB_CCSIDR_RA_Pos                  29                                             /*!< SCB 
 685:/home/torbjorn/eclipse-workspace/CoreNG/asf/thirdparty/CMSIS/Include/core_cm7.h **** #define SCB_CCSIDR_RA_Msk                  (7UL << SCB_CCSIDR_RA_Pos)                     /*!< SCB 
 686:/home/torbjorn/eclipse-workspace/CoreNG/asf/thirdparty/CMSIS/Include/core_cm7.h **** 
 687:/home/torbjorn/eclipse-workspace/CoreNG/asf/thirdparty/CMSIS/Include/core_cm7.h **** #define SCB_CCSIDR_WA_Pos                  28                                             /*!< SCB 
 688:/home/torbjorn/eclipse-workspace/CoreNG/asf/thirdparty/CMSIS/Include/core_cm7.h **** #define SCB_CCSIDR_WA_Msk                  (7UL << SCB_CCSIDR_WA_Pos)                     /*!< SCB 
 689:/home/torbjorn/eclipse-workspace/CoreNG/asf/thirdparty/CMSIS/Include/core_cm7.h **** 
 690:/home/torbjorn/eclipse-workspace/CoreNG/asf/thirdparty/CMSIS/Include/core_cm7.h **** #define SCB_CCSIDR_NUMSETS_Pos             13                                             /*!< SCB 
 691:/home/torbjorn/eclipse-workspace/CoreNG/asf/thirdparty/CMSIS/Include/core_cm7.h **** #define SCB_CCSIDR_NUMSETS_Msk             (0x7FFFUL << SCB_CCSIDR_NUMSETS_Pos)           /*!< SCB 
 692:/home/torbjorn/eclipse-workspace/CoreNG/asf/thirdparty/CMSIS/Include/core_cm7.h **** 
 693:/home/torbjorn/eclipse-workspace/CoreNG/asf/thirdparty/CMSIS/Include/core_cm7.h **** #define SCB_CCSIDR_ASSOCIATIVITY_Pos        3                                             /*!< SCB 
 694:/home/torbjorn/eclipse-workspace/CoreNG/asf/thirdparty/CMSIS/Include/core_cm7.h **** #define SCB_CCSIDR_ASSOCIATIVITY_Msk       (0x3FFUL << SCB_CCSIDR_ASSOCIATIVITY_Pos)      /*!< SCB 
 695:/home/torbjorn/eclipse-workspace/CoreNG/asf/thirdparty/CMSIS/Include/core_cm7.h **** 
 696:/home/torbjorn/eclipse-workspace/CoreNG/asf/thirdparty/CMSIS/Include/core_cm7.h **** #define SCB_CCSIDR_LINESIZE_Pos             0                                             /*!< SCB 
 697:/home/torbjorn/eclipse-workspace/CoreNG/asf/thirdparty/CMSIS/Include/core_cm7.h **** #define SCB_CCSIDR_LINESIZE_Msk            (7UL << SCB_CCSIDR_LINESIZE_Pos)               /*!< SCB 
 698:/home/torbjorn/eclipse-workspace/CoreNG/asf/thirdparty/CMSIS/Include/core_cm7.h **** 
 699:/home/torbjorn/eclipse-workspace/CoreNG/asf/thirdparty/CMSIS/Include/core_cm7.h **** /* Cache Size Selection Register */
 700:/home/torbjorn/eclipse-workspace/CoreNG/asf/thirdparty/CMSIS/Include/core_cm7.h **** #define SCB_CSSELR_LEVEL_Pos                0                                             /*!< SCB 
ARM GAS  /tmp/ccQNhOlE.s 			page 53


 701:/home/torbjorn/eclipse-workspace/CoreNG/asf/thirdparty/CMSIS/Include/core_cm7.h **** #define SCB_CSSELR_LEVEL_Msk               (1UL << SCB_CSSELR_LEVEL_Pos)                    /*!< SC
 702:/home/torbjorn/eclipse-workspace/CoreNG/asf/thirdparty/CMSIS/Include/core_cm7.h **** 
 703:/home/torbjorn/eclipse-workspace/CoreNG/asf/thirdparty/CMSIS/Include/core_cm7.h **** #define SCB_CSSELR_IND_Pos                  0                                             /*!< SCB 
 704:/home/torbjorn/eclipse-workspace/CoreNG/asf/thirdparty/CMSIS/Include/core_cm7.h **** #define SCB_CSSELR_IND_Msk                 (1UL << SCB_CSSELR_IND_Pos)                    /*!< SCB 
 705:/home/torbjorn/eclipse-workspace/CoreNG/asf/thirdparty/CMSIS/Include/core_cm7.h **** 
 706:/home/torbjorn/eclipse-workspace/CoreNG/asf/thirdparty/CMSIS/Include/core_cm7.h **** /* SCB Software Triggered Interrupt Register */
 707:/home/torbjorn/eclipse-workspace/CoreNG/asf/thirdparty/CMSIS/Include/core_cm7.h **** #define SCB_STIR_INTID_Pos                  0                                             /*!< SCB 
 708:/home/torbjorn/eclipse-workspace/CoreNG/asf/thirdparty/CMSIS/Include/core_cm7.h **** #define SCB_STIR_INTID_Msk                 (0x1FFUL << SCB_STIR_INTID_Pos)                /*!< SCB 
 709:/home/torbjorn/eclipse-workspace/CoreNG/asf/thirdparty/CMSIS/Include/core_cm7.h **** 
 710:/home/torbjorn/eclipse-workspace/CoreNG/asf/thirdparty/CMSIS/Include/core_cm7.h **** /* Instruction Tightly-Coupled Memory Control Register*/
 711:/home/torbjorn/eclipse-workspace/CoreNG/asf/thirdparty/CMSIS/Include/core_cm7.h **** #define SCB_ITCMCR_SZ_Pos                   3                                             /*!< SCB 
 712:/home/torbjorn/eclipse-workspace/CoreNG/asf/thirdparty/CMSIS/Include/core_cm7.h **** #define SCB_ITCMCR_SZ_Msk                  (0xFUL << SCB_ITCMCR_SZ_Pos)                   /*!< SCB 
 713:/home/torbjorn/eclipse-workspace/CoreNG/asf/thirdparty/CMSIS/Include/core_cm7.h **** 
 714:/home/torbjorn/eclipse-workspace/CoreNG/asf/thirdparty/CMSIS/Include/core_cm7.h **** #define SCB_ITCMCR_RETEN_Pos                2                                             /*!< SCB 
 715:/home/torbjorn/eclipse-workspace/CoreNG/asf/thirdparty/CMSIS/Include/core_cm7.h **** #define SCB_ITCMCR_RETEN_Msk               (0x1UL << SCB_ITCMCR_RETEN_Pos)                /*!< SCB 
 716:/home/torbjorn/eclipse-workspace/CoreNG/asf/thirdparty/CMSIS/Include/core_cm7.h **** 
 717:/home/torbjorn/eclipse-workspace/CoreNG/asf/thirdparty/CMSIS/Include/core_cm7.h **** #define SCB_ITCMCR_RMW_Pos                  1                                             /*!< SCB 
 718:/home/torbjorn/eclipse-workspace/CoreNG/asf/thirdparty/CMSIS/Include/core_cm7.h **** #define SCB_ITCMCR_RMW_Msk                 (0x1UL << SCB_ITCMCR_RMW_Pos)                  /*!< SCB 
 719:/home/torbjorn/eclipse-workspace/CoreNG/asf/thirdparty/CMSIS/Include/core_cm7.h **** 
 720:/home/torbjorn/eclipse-workspace/CoreNG/asf/thirdparty/CMSIS/Include/core_cm7.h **** #define SCB_ITCMCR_EN_Pos                   0                                             /*!< SCB 
 721:/home/torbjorn/eclipse-workspace/CoreNG/asf/thirdparty/CMSIS/Include/core_cm7.h **** #define SCB_ITCMCR_EN_Msk                  (0x1UL << SCB_ITCMCR_EN_Pos)                   /*!< SCB 
 722:/home/torbjorn/eclipse-workspace/CoreNG/asf/thirdparty/CMSIS/Include/core_cm7.h **** 
 723:/home/torbjorn/eclipse-workspace/CoreNG/asf/thirdparty/CMSIS/Include/core_cm7.h **** /* Data Tightly-Coupled Memory Control Registers */
 724:/home/torbjorn/eclipse-workspace/CoreNG/asf/thirdparty/CMSIS/Include/core_cm7.h **** #define SCB_DTCMCR_SZ_Pos                   3                                             /*!< SCB 
 725:/home/torbjorn/eclipse-workspace/CoreNG/asf/thirdparty/CMSIS/Include/core_cm7.h **** #define SCB_DTCMCR_SZ_Msk                  (0xFUL << SCB_DTCMCR_SZ_Pos)                   /*!< SCB 
 726:/home/torbjorn/eclipse-workspace/CoreNG/asf/thirdparty/CMSIS/Include/core_cm7.h **** 
 727:/home/torbjorn/eclipse-workspace/CoreNG/asf/thirdparty/CMSIS/Include/core_cm7.h **** #define SCB_DTCMCR_RETEN_Pos                2                                             /*!< SCB 
 728:/home/torbjorn/eclipse-workspace/CoreNG/asf/thirdparty/CMSIS/Include/core_cm7.h **** #define SCB_DTCMCR_RETEN_Msk               (1UL << SCB_DTCMCR_RETEN_Pos)                   /*!< SCB
 729:/home/torbjorn/eclipse-workspace/CoreNG/asf/thirdparty/CMSIS/Include/core_cm7.h **** 
 730:/home/torbjorn/eclipse-workspace/CoreNG/asf/thirdparty/CMSIS/Include/core_cm7.h **** #define SCB_DTCMCR_RMW_Pos                  1                                             /*!< SCB 
 731:/home/torbjorn/eclipse-workspace/CoreNG/asf/thirdparty/CMSIS/Include/core_cm7.h **** #define SCB_DTCMCR_RMW_Msk                 (1UL << SCB_DTCMCR_RMW_Pos)                    /*!< SCB 
 732:/home/torbjorn/eclipse-workspace/CoreNG/asf/thirdparty/CMSIS/Include/core_cm7.h **** 
 733:/home/torbjorn/eclipse-workspace/CoreNG/asf/thirdparty/CMSIS/Include/core_cm7.h **** #define SCB_DTCMCR_EN_Pos                   0                                             /*!< SCB 
 734:/home/torbjorn/eclipse-workspace/CoreNG/asf/thirdparty/CMSIS/Include/core_cm7.h **** #define SCB_DTCMCR_EN_Msk                  (1UL << SCB_DTCMCR_EN_Pos)                     /*!< SCB 
 735:/home/torbjorn/eclipse-workspace/CoreNG/asf/thirdparty/CMSIS/Include/core_cm7.h **** 
 736:/home/torbjorn/eclipse-workspace/CoreNG/asf/thirdparty/CMSIS/Include/core_cm7.h **** /* AHBP Control Register */
 737:/home/torbjorn/eclipse-workspace/CoreNG/asf/thirdparty/CMSIS/Include/core_cm7.h **** #define SCB_AHBPCR_SZ_Pos                   1                                             /*!< SCB 
 738:/home/torbjorn/eclipse-workspace/CoreNG/asf/thirdparty/CMSIS/Include/core_cm7.h **** #define SCB_AHBPCR_SZ_Msk                  (7UL << SCB_AHBPCR_SZ_Pos)                     /*!< SCB 
 739:/home/torbjorn/eclipse-workspace/CoreNG/asf/thirdparty/CMSIS/Include/core_cm7.h **** 
 740:/home/torbjorn/eclipse-workspace/CoreNG/asf/thirdparty/CMSIS/Include/core_cm7.h **** #define SCB_AHBPCR_EN_Pos                   0                                             /*!< SCB 
 741:/home/torbjorn/eclipse-workspace/CoreNG/asf/thirdparty/CMSIS/Include/core_cm7.h **** #define SCB_AHBPCR_EN_Msk                  (1UL << SCB_AHBPCR_EN_Pos)                     /*!< SCB 
 742:/home/torbjorn/eclipse-workspace/CoreNG/asf/thirdparty/CMSIS/Include/core_cm7.h **** 
 743:/home/torbjorn/eclipse-workspace/CoreNG/asf/thirdparty/CMSIS/Include/core_cm7.h **** /* L1 Cache Control Register */
 744:/home/torbjorn/eclipse-workspace/CoreNG/asf/thirdparty/CMSIS/Include/core_cm7.h **** #define SCB_CACR_FORCEWT_Pos                2                                             /*!< SCB 
 745:/home/torbjorn/eclipse-workspace/CoreNG/asf/thirdparty/CMSIS/Include/core_cm7.h **** #define SCB_CACR_FORCEWT_Msk               (1UL << SCB_CACR_FORCEWT_Pos)                  /*!< SCB 
 746:/home/torbjorn/eclipse-workspace/CoreNG/asf/thirdparty/CMSIS/Include/core_cm7.h **** 
 747:/home/torbjorn/eclipse-workspace/CoreNG/asf/thirdparty/CMSIS/Include/core_cm7.h **** #define SCB_CACR_ECCEN_Pos                  1                                             /*!< SCB 
 748:/home/torbjorn/eclipse-workspace/CoreNG/asf/thirdparty/CMSIS/Include/core_cm7.h **** #define SCB_CACR_ECCEN_Msk                 (1UL << SCB_CACR_ECCEN_Pos)                    /*!< SCB 
 749:/home/torbjorn/eclipse-workspace/CoreNG/asf/thirdparty/CMSIS/Include/core_cm7.h **** 
 750:/home/torbjorn/eclipse-workspace/CoreNG/asf/thirdparty/CMSIS/Include/core_cm7.h **** #define SCB_CACR_SIWT_Pos                   0                                             /*!< SCB 
 751:/home/torbjorn/eclipse-workspace/CoreNG/asf/thirdparty/CMSIS/Include/core_cm7.h **** #define SCB_CACR_SIWT_Msk                  (1UL << SCB_CACR_SIWT_Pos)                     /*!< SCB 
 752:/home/torbjorn/eclipse-workspace/CoreNG/asf/thirdparty/CMSIS/Include/core_cm7.h **** 
 753:/home/torbjorn/eclipse-workspace/CoreNG/asf/thirdparty/CMSIS/Include/core_cm7.h **** /* AHBS control register */
 754:/home/torbjorn/eclipse-workspace/CoreNG/asf/thirdparty/CMSIS/Include/core_cm7.h **** #define SCB_AHBSCR_INITCOUNT_Pos           11                                             /*!< SCB 
 755:/home/torbjorn/eclipse-workspace/CoreNG/asf/thirdparty/CMSIS/Include/core_cm7.h **** #define SCB_AHBSCR_INITCOUNT_Msk           (0x1FUL << SCB_AHBPCR_INITCOUNT_Pos)           /*!< SCB 
 756:/home/torbjorn/eclipse-workspace/CoreNG/asf/thirdparty/CMSIS/Include/core_cm7.h **** 
 757:/home/torbjorn/eclipse-workspace/CoreNG/asf/thirdparty/CMSIS/Include/core_cm7.h **** #define SCB_AHBSCR_TPRI_Pos                 2                                             /*!< SCB 
ARM GAS  /tmp/ccQNhOlE.s 			page 54


 758:/home/torbjorn/eclipse-workspace/CoreNG/asf/thirdparty/CMSIS/Include/core_cm7.h **** #define SCB_AHBSCR_TPRI_Msk                (0x1FFUL << SCB_AHBPCR_TPRI_Pos)               /*!< SCB 
 759:/home/torbjorn/eclipse-workspace/CoreNG/asf/thirdparty/CMSIS/Include/core_cm7.h **** 
 760:/home/torbjorn/eclipse-workspace/CoreNG/asf/thirdparty/CMSIS/Include/core_cm7.h **** #define SCB_AHBSCR_CTL_Pos                  0                                             /*!< SCB 
 761:/home/torbjorn/eclipse-workspace/CoreNG/asf/thirdparty/CMSIS/Include/core_cm7.h **** #define SCB_AHBSCR_CTL_Msk                 (3UL << SCB_AHBPCR_CTL_Pos)                    /*!< SCB 
 762:/home/torbjorn/eclipse-workspace/CoreNG/asf/thirdparty/CMSIS/Include/core_cm7.h **** 
 763:/home/torbjorn/eclipse-workspace/CoreNG/asf/thirdparty/CMSIS/Include/core_cm7.h **** /* Auxiliary Bus Fault Status Register */
 764:/home/torbjorn/eclipse-workspace/CoreNG/asf/thirdparty/CMSIS/Include/core_cm7.h **** #define SCB_ABFSR_AXIMTYPE_Pos              8                                             /*!< SCB 
 765:/home/torbjorn/eclipse-workspace/CoreNG/asf/thirdparty/CMSIS/Include/core_cm7.h **** #define SCB_ABFSR_AXIMTYPE_Msk             (3UL << SCB_ABFSR_AXIMTYPE_Pos)                /*!< SCB 
 766:/home/torbjorn/eclipse-workspace/CoreNG/asf/thirdparty/CMSIS/Include/core_cm7.h **** 
 767:/home/torbjorn/eclipse-workspace/CoreNG/asf/thirdparty/CMSIS/Include/core_cm7.h **** #define SCB_ABFSR_EPPB_Pos                  4                                             /*!< SCB 
 768:/home/torbjorn/eclipse-workspace/CoreNG/asf/thirdparty/CMSIS/Include/core_cm7.h **** #define SCB_ABFSR_EPPB_Msk                 (1UL << SCB_ABFSR_EPPB_Pos)                    /*!< SCB 
 769:/home/torbjorn/eclipse-workspace/CoreNG/asf/thirdparty/CMSIS/Include/core_cm7.h **** 
 770:/home/torbjorn/eclipse-workspace/CoreNG/asf/thirdparty/CMSIS/Include/core_cm7.h **** #define SCB_ABFSR_AXIM_Pos                  3                                             /*!< SCB 
 771:/home/torbjorn/eclipse-workspace/CoreNG/asf/thirdparty/CMSIS/Include/core_cm7.h **** #define SCB_ABFSR_AXIM_Msk                 (1UL << SCB_ABFSR_AXIM_Pos)                    /*!< SCB 
 772:/home/torbjorn/eclipse-workspace/CoreNG/asf/thirdparty/CMSIS/Include/core_cm7.h **** 
 773:/home/torbjorn/eclipse-workspace/CoreNG/asf/thirdparty/CMSIS/Include/core_cm7.h **** #define SCB_ABFSR_AHBP_Pos                  2                                             /*!< SCB 
 774:/home/torbjorn/eclipse-workspace/CoreNG/asf/thirdparty/CMSIS/Include/core_cm7.h **** #define SCB_ABFSR_AHBP_Msk                 (1UL << SCB_ABFSR_AHBP_Pos)                    /*!< SCB 
 775:/home/torbjorn/eclipse-workspace/CoreNG/asf/thirdparty/CMSIS/Include/core_cm7.h **** 
 776:/home/torbjorn/eclipse-workspace/CoreNG/asf/thirdparty/CMSIS/Include/core_cm7.h **** #define SCB_ABFSR_DTCM_Pos                  1                                             /*!< SCB 
 777:/home/torbjorn/eclipse-workspace/CoreNG/asf/thirdparty/CMSIS/Include/core_cm7.h **** #define SCB_ABFSR_DTCM_Msk                 (1UL << SCB_ABFSR_DTCM_Pos)                    /*!< SCB 
 778:/home/torbjorn/eclipse-workspace/CoreNG/asf/thirdparty/CMSIS/Include/core_cm7.h **** 
 779:/home/torbjorn/eclipse-workspace/CoreNG/asf/thirdparty/CMSIS/Include/core_cm7.h **** #define SCB_ABFSR_ITCM_Pos                  0                                             /*!< SCB 
 780:/home/torbjorn/eclipse-workspace/CoreNG/asf/thirdparty/CMSIS/Include/core_cm7.h **** #define SCB_ABFSR_ITCM_Msk                 (1UL << SCB_ABFSR_ITCM_Pos)                    /*!< SCB 
 781:/home/torbjorn/eclipse-workspace/CoreNG/asf/thirdparty/CMSIS/Include/core_cm7.h **** 
 782:/home/torbjorn/eclipse-workspace/CoreNG/asf/thirdparty/CMSIS/Include/core_cm7.h **** /*@} end of group CMSIS_SCB */
 783:/home/torbjorn/eclipse-workspace/CoreNG/asf/thirdparty/CMSIS/Include/core_cm7.h **** 
 784:/home/torbjorn/eclipse-workspace/CoreNG/asf/thirdparty/CMSIS/Include/core_cm7.h **** 
 785:/home/torbjorn/eclipse-workspace/CoreNG/asf/thirdparty/CMSIS/Include/core_cm7.h **** /** \ingroup  CMSIS_core_register
 786:/home/torbjorn/eclipse-workspace/CoreNG/asf/thirdparty/CMSIS/Include/core_cm7.h ****     \defgroup CMSIS_SCnSCB System Controls not in SCB (SCnSCB)
 787:/home/torbjorn/eclipse-workspace/CoreNG/asf/thirdparty/CMSIS/Include/core_cm7.h ****     \brief      Type definitions for the System Control and ID Register not in the SCB
 788:/home/torbjorn/eclipse-workspace/CoreNG/asf/thirdparty/CMSIS/Include/core_cm7.h ****   @{
 789:/home/torbjorn/eclipse-workspace/CoreNG/asf/thirdparty/CMSIS/Include/core_cm7.h ****  */
 790:/home/torbjorn/eclipse-workspace/CoreNG/asf/thirdparty/CMSIS/Include/core_cm7.h **** 
 791:/home/torbjorn/eclipse-workspace/CoreNG/asf/thirdparty/CMSIS/Include/core_cm7.h **** /** \brief  Structure type to access the System Control and ID Register not in the SCB.
 792:/home/torbjorn/eclipse-workspace/CoreNG/asf/thirdparty/CMSIS/Include/core_cm7.h ****  */
 793:/home/torbjorn/eclipse-workspace/CoreNG/asf/thirdparty/CMSIS/Include/core_cm7.h **** typedef struct
 794:/home/torbjorn/eclipse-workspace/CoreNG/asf/thirdparty/CMSIS/Include/core_cm7.h **** {
 795:/home/torbjorn/eclipse-workspace/CoreNG/asf/thirdparty/CMSIS/Include/core_cm7.h ****        uint32_t RESERVED0[1];
 796:/home/torbjorn/eclipse-workspace/CoreNG/asf/thirdparty/CMSIS/Include/core_cm7.h ****   __I  uint32_t ICTR;                    /*!< Offset: 0x004 (R/ )  Interrupt Controller Type Regist
 797:/home/torbjorn/eclipse-workspace/CoreNG/asf/thirdparty/CMSIS/Include/core_cm7.h ****   __IO uint32_t ACTLR;                   /*!< Offset: 0x008 (R/W)  Auxiliary Control Register      
 798:/home/torbjorn/eclipse-workspace/CoreNG/asf/thirdparty/CMSIS/Include/core_cm7.h **** } SCnSCB_Type;
 799:/home/torbjorn/eclipse-workspace/CoreNG/asf/thirdparty/CMSIS/Include/core_cm7.h **** 
 800:/home/torbjorn/eclipse-workspace/CoreNG/asf/thirdparty/CMSIS/Include/core_cm7.h **** /* Interrupt Controller Type Register Definitions */
 801:/home/torbjorn/eclipse-workspace/CoreNG/asf/thirdparty/CMSIS/Include/core_cm7.h **** #define SCnSCB_ICTR_INTLINESNUM_Pos         0                                          /*!< ICTR: I
 802:/home/torbjorn/eclipse-workspace/CoreNG/asf/thirdparty/CMSIS/Include/core_cm7.h **** #define SCnSCB_ICTR_INTLINESNUM_Msk        (0xFUL << SCnSCB_ICTR_INTLINESNUM_Pos)      /*!< ICTR: I
 803:/home/torbjorn/eclipse-workspace/CoreNG/asf/thirdparty/CMSIS/Include/core_cm7.h **** 
 804:/home/torbjorn/eclipse-workspace/CoreNG/asf/thirdparty/CMSIS/Include/core_cm7.h **** /* Auxiliary Control Register Definitions */
 805:/home/torbjorn/eclipse-workspace/CoreNG/asf/thirdparty/CMSIS/Include/core_cm7.h **** #define SCnSCB_ACTLR_DISITMATBFLUSH_Pos    12                                          /*!< ACTLR: 
 806:/home/torbjorn/eclipse-workspace/CoreNG/asf/thirdparty/CMSIS/Include/core_cm7.h **** #define SCnSCB_ACTLR_DISITMATBFLUSH_Msk    (1UL << SCnSCB_ACTLR_DISITMATBFLUSH_Pos)    /*!< ACTLR: 
 807:/home/torbjorn/eclipse-workspace/CoreNG/asf/thirdparty/CMSIS/Include/core_cm7.h **** 
 808:/home/torbjorn/eclipse-workspace/CoreNG/asf/thirdparty/CMSIS/Include/core_cm7.h **** #define SCnSCB_ACTLR_DISRAMODE_Pos         11                                          /*!< ACTLR: 
 809:/home/torbjorn/eclipse-workspace/CoreNG/asf/thirdparty/CMSIS/Include/core_cm7.h **** #define SCnSCB_ACTLR_DISRAMODE_Msk         (1UL << SCnSCB_ACTLR_DISRAMODE_Pos)         /*!< ACTLR: 
 810:/home/torbjorn/eclipse-workspace/CoreNG/asf/thirdparty/CMSIS/Include/core_cm7.h **** 
 811:/home/torbjorn/eclipse-workspace/CoreNG/asf/thirdparty/CMSIS/Include/core_cm7.h **** #define SCnSCB_ACTLR_FPEXCODIS_Pos         10                                          /*!< ACTLR: 
 812:/home/torbjorn/eclipse-workspace/CoreNG/asf/thirdparty/CMSIS/Include/core_cm7.h **** #define SCnSCB_ACTLR_FPEXCODIS_Msk         (1UL << SCnSCB_ACTLR_FPEXCODIS_Pos)         /*!< ACTLR: 
 813:/home/torbjorn/eclipse-workspace/CoreNG/asf/thirdparty/CMSIS/Include/core_cm7.h **** 
 814:/home/torbjorn/eclipse-workspace/CoreNG/asf/thirdparty/CMSIS/Include/core_cm7.h **** #define SCnSCB_ACTLR_DISFOLD_Pos            2                                          /*!< ACTLR: 
ARM GAS  /tmp/ccQNhOlE.s 			page 55


 815:/home/torbjorn/eclipse-workspace/CoreNG/asf/thirdparty/CMSIS/Include/core_cm7.h **** #define SCnSCB_ACTLR_DISFOLD_Msk           (1UL << SCnSCB_ACTLR_DISFOLD_Pos)           /*!< ACTLR: 
 816:/home/torbjorn/eclipse-workspace/CoreNG/asf/thirdparty/CMSIS/Include/core_cm7.h **** 
 817:/home/torbjorn/eclipse-workspace/CoreNG/asf/thirdparty/CMSIS/Include/core_cm7.h **** #define SCnSCB_ACTLR_DISMCYCINT_Pos         0                                          /*!< ACTLR: 
 818:/home/torbjorn/eclipse-workspace/CoreNG/asf/thirdparty/CMSIS/Include/core_cm7.h **** #define SCnSCB_ACTLR_DISMCYCINT_Msk        (1UL << SCnSCB_ACTLR_DISMCYCINT_Pos)        /*!< ACTLR: 
 819:/home/torbjorn/eclipse-workspace/CoreNG/asf/thirdparty/CMSIS/Include/core_cm7.h **** 
 820:/home/torbjorn/eclipse-workspace/CoreNG/asf/thirdparty/CMSIS/Include/core_cm7.h **** /*@} end of group CMSIS_SCnotSCB */
 821:/home/torbjorn/eclipse-workspace/CoreNG/asf/thirdparty/CMSIS/Include/core_cm7.h **** 
 822:/home/torbjorn/eclipse-workspace/CoreNG/asf/thirdparty/CMSIS/Include/core_cm7.h **** 
 823:/home/torbjorn/eclipse-workspace/CoreNG/asf/thirdparty/CMSIS/Include/core_cm7.h **** /** \ingroup  CMSIS_core_register
 824:/home/torbjorn/eclipse-workspace/CoreNG/asf/thirdparty/CMSIS/Include/core_cm7.h ****     \defgroup CMSIS_SysTick     System Tick Timer (SysTick)
 825:/home/torbjorn/eclipse-workspace/CoreNG/asf/thirdparty/CMSIS/Include/core_cm7.h ****     \brief      Type definitions for the System Timer Registers.
 826:/home/torbjorn/eclipse-workspace/CoreNG/asf/thirdparty/CMSIS/Include/core_cm7.h ****   @{
 827:/home/torbjorn/eclipse-workspace/CoreNG/asf/thirdparty/CMSIS/Include/core_cm7.h ****  */
 828:/home/torbjorn/eclipse-workspace/CoreNG/asf/thirdparty/CMSIS/Include/core_cm7.h **** 
 829:/home/torbjorn/eclipse-workspace/CoreNG/asf/thirdparty/CMSIS/Include/core_cm7.h **** /** \brief  Structure type to access the System Timer (SysTick).
 830:/home/torbjorn/eclipse-workspace/CoreNG/asf/thirdparty/CMSIS/Include/core_cm7.h ****  */
 831:/home/torbjorn/eclipse-workspace/CoreNG/asf/thirdparty/CMSIS/Include/core_cm7.h **** typedef struct
 832:/home/torbjorn/eclipse-workspace/CoreNG/asf/thirdparty/CMSIS/Include/core_cm7.h **** {
 833:/home/torbjorn/eclipse-workspace/CoreNG/asf/thirdparty/CMSIS/Include/core_cm7.h ****   __IO uint32_t CTRL;                    /*!< Offset: 0x000 (R/W)  SysTick Control and Status Regis
 834:/home/torbjorn/eclipse-workspace/CoreNG/asf/thirdparty/CMSIS/Include/core_cm7.h ****   __IO uint32_t LOAD;                    /*!< Offset: 0x004 (R/W)  SysTick Reload Value Register   
 835:/home/torbjorn/eclipse-workspace/CoreNG/asf/thirdparty/CMSIS/Include/core_cm7.h ****   __IO uint32_t VAL;                     /*!< Offset: 0x008 (R/W)  SysTick Current Value Register  
 836:/home/torbjorn/eclipse-workspace/CoreNG/asf/thirdparty/CMSIS/Include/core_cm7.h ****   __I  uint32_t CALIB;                   /*!< Offset: 0x00C (R/ )  SysTick Calibration Register    
 837:/home/torbjorn/eclipse-workspace/CoreNG/asf/thirdparty/CMSIS/Include/core_cm7.h **** } SysTick_Type;
 838:/home/torbjorn/eclipse-workspace/CoreNG/asf/thirdparty/CMSIS/Include/core_cm7.h **** 
 839:/home/torbjorn/eclipse-workspace/CoreNG/asf/thirdparty/CMSIS/Include/core_cm7.h **** /* SysTick Control / Status Register Definitions */
 840:/home/torbjorn/eclipse-workspace/CoreNG/asf/thirdparty/CMSIS/Include/core_cm7.h **** #define SysTick_CTRL_COUNTFLAG_Pos         16                                             /*!< SysT
 841:/home/torbjorn/eclipse-workspace/CoreNG/asf/thirdparty/CMSIS/Include/core_cm7.h **** #define SysTick_CTRL_COUNTFLAG_Msk         (1UL << SysTick_CTRL_COUNTFLAG_Pos)            /*!< SysT
