ARM GAS  /tmp/ccLuO05w.s 			page 1


   1              		.cpu cortex-m7
   2              		.eabi_attribute 28, 1
   3              		.eabi_attribute 20, 1
   4              		.eabi_attribute 21, 1
   5              		.eabi_attribute 23, 3
   6              		.eabi_attribute 24, 1
   7              		.eabi_attribute 25, 1
   8              		.eabi_attribute 26, 1
   9              		.eabi_attribute 30, 2
  10              		.eabi_attribute 34, 1
  11              		.eabi_attribute 18, 4
  12              		.file	"efc.c"
  13              		.text
  14              	.Ltext0:
  15              		.cfi_sections	.debug_frame
  16              		.section	.text.efc_enable_write_protection,"ax",%progbits
  17              		.align	1
  18              		.p2align 2,,3
  19              		.global	efc_enable_write_protection
  20              		.syntax unified
  21              		.thumb
  22              		.thumb_func
  23              		.fpu fpv5-d16
  24              		.type	efc_enable_write_protection, %function
  25              	efc_enable_write_protection:
  26              	.LFB147:
  27              		.file 1 "../asf/sam/drivers/efc/efc.c"
   1:../asf/sam/drivers/efc/efc.c **** /**
   2:../asf/sam/drivers/efc/efc.c ****  * \file
   3:../asf/sam/drivers/efc/efc.c ****  *
   4:../asf/sam/drivers/efc/efc.c ****  * \brief Enhanced Embedded Flash Controller (EEFC) driver for SAM.
   5:../asf/sam/drivers/efc/efc.c ****  *
   6:../asf/sam/drivers/efc/efc.c ****  * Copyright (c) 2011-2016 Atmel Corporation. All rights reserved.
   7:../asf/sam/drivers/efc/efc.c ****  *
   8:../asf/sam/drivers/efc/efc.c ****  * \asf_license_start
   9:../asf/sam/drivers/efc/efc.c ****  *
  10:../asf/sam/drivers/efc/efc.c ****  * \page License
  11:../asf/sam/drivers/efc/efc.c ****  *
  12:../asf/sam/drivers/efc/efc.c ****  * Redistribution and use in source and binary forms, with or without
  13:../asf/sam/drivers/efc/efc.c ****  * modification, are permitted provided that the following conditions are met:
  14:../asf/sam/drivers/efc/efc.c ****  *
  15:../asf/sam/drivers/efc/efc.c ****  * 1. Redistributions of source code must retain the above copyright notice,
  16:../asf/sam/drivers/efc/efc.c ****  *    this list of conditions and the following disclaimer.
  17:../asf/sam/drivers/efc/efc.c ****  *
  18:../asf/sam/drivers/efc/efc.c ****  * 2. Redistributions in binary form must reproduce the above copyright notice,
  19:../asf/sam/drivers/efc/efc.c ****  *    this list of conditions and the following disclaimer in the documentation
  20:../asf/sam/drivers/efc/efc.c ****  *    and/or other materials provided with the distribution.
  21:../asf/sam/drivers/efc/efc.c ****  *
  22:../asf/sam/drivers/efc/efc.c ****  * 3. The name of Atmel may not be used to endorse or promote products derived
  23:../asf/sam/drivers/efc/efc.c ****  *    from this software without specific prior written permission.
  24:../asf/sam/drivers/efc/efc.c ****  *
  25:../asf/sam/drivers/efc/efc.c ****  * 4. This software may only be redistributed and used in connection with an
  26:../asf/sam/drivers/efc/efc.c ****  *    Atmel microcontroller product.
  27:../asf/sam/drivers/efc/efc.c ****  *
  28:../asf/sam/drivers/efc/efc.c ****  * THIS SOFTWARE IS PROVIDED BY ATMEL "AS IS" AND ANY EXPRESS OR IMPLIED
  29:../asf/sam/drivers/efc/efc.c ****  * WARRANTIES, INCLUDING, BUT NOT LIMITED TO, THE IMPLIED WARRANTIES OF
  30:../asf/sam/drivers/efc/efc.c ****  * MERCHANTABILITY, FITNESS FOR A PARTICULAR PURPOSE AND NON-INFRINGEMENT ARE
ARM GAS  /tmp/ccLuO05w.s 			page 2


  31:../asf/sam/drivers/efc/efc.c ****  * EXPRESSLY AND SPECIFICALLY DISCLAIMED. IN NO EVENT SHALL ATMEL BE LIABLE FOR
  32:../asf/sam/drivers/efc/efc.c ****  * ANY DIRECT, INDIRECT, INCIDENTAL, SPECIAL, EXEMPLARY, OR CONSEQUENTIAL
  33:../asf/sam/drivers/efc/efc.c ****  * DAMAGES (INCLUDING, BUT NOT LIMITED TO, PROCUREMENT OF SUBSTITUTE GOODS
  34:../asf/sam/drivers/efc/efc.c ****  * OR SERVICES; LOSS OF USE, DATA, OR PROFITS; OR BUSINESS INTERRUPTION)
  35:../asf/sam/drivers/efc/efc.c ****  * HOWEVER CAUSED AND ON ANY THEORY OF LIABILITY, WHETHER IN CONTRACT,
  36:../asf/sam/drivers/efc/efc.c ****  * STRICT LIABILITY, OR TORT (INCLUDING NEGLIGENCE OR OTHERWISE) ARISING IN
  37:../asf/sam/drivers/efc/efc.c ****  * ANY WAY OUT OF THE USE OF THIS SOFTWARE, EVEN IF ADVISED OF THE
  38:../asf/sam/drivers/efc/efc.c ****  * POSSIBILITY OF SUCH DAMAGE.
  39:../asf/sam/drivers/efc/efc.c ****  *
  40:../asf/sam/drivers/efc/efc.c ****  * \asf_license_stop
  41:../asf/sam/drivers/efc/efc.c ****  *
  42:../asf/sam/drivers/efc/efc.c ****  */
  43:../asf/sam/drivers/efc/efc.c **** /*
  44:../asf/sam/drivers/efc/efc.c ****  * Support and FAQ: visit <a href="http://www.atmel.com/design-support/">Atmel Support</a>
  45:../asf/sam/drivers/efc/efc.c ****  */
  46:../asf/sam/drivers/efc/efc.c **** 
  47:../asf/sam/drivers/efc/efc.c **** #include "efc.h"
  48:../asf/sam/drivers/efc/efc.c **** 
  49:../asf/sam/drivers/efc/efc.c **** /// @cond 0
  50:../asf/sam/drivers/efc/efc.c **** /**INDENT-OFF**/
  51:../asf/sam/drivers/efc/efc.c **** #ifdef __cplusplus
  52:../asf/sam/drivers/efc/efc.c **** extern "C" {
  53:../asf/sam/drivers/efc/efc.c **** #endif
  54:../asf/sam/drivers/efc/efc.c **** /**INDENT-ON**/
  55:../asf/sam/drivers/efc/efc.c **** /// @endcond
  56:../asf/sam/drivers/efc/efc.c **** 
  57:../asf/sam/drivers/efc/efc.c **** /**
  58:../asf/sam/drivers/efc/efc.c ****  * \defgroup sam_drivers_efc_group Enhanced Embedded Flash Controller (EEFC)
  59:../asf/sam/drivers/efc/efc.c ****  *
  60:../asf/sam/drivers/efc/efc.c ****  * The Enhanced Embedded Flash Controller ensures the interface of the Flash
  61:../asf/sam/drivers/efc/efc.c ****  * block with the 32-bit internal bus.
  62:../asf/sam/drivers/efc/efc.c ****  *
  63:../asf/sam/drivers/efc/efc.c ****  * @{
  64:../asf/sam/drivers/efc/efc.c ****  */
  65:../asf/sam/drivers/efc/efc.c **** 
  66:../asf/sam/drivers/efc/efc.c **** /* Address definition for read operation */
  67:../asf/sam/drivers/efc/efc.c **** #if (SAM3XA || SAM3U4 || SAM4SD16 || SAM4SD32)
  68:../asf/sam/drivers/efc/efc.c **** # define READ_BUFF_ADDR0    IFLASH0_ADDR
  69:../asf/sam/drivers/efc/efc.c **** # define READ_BUFF_ADDR1    IFLASH1_ADDR
  70:../asf/sam/drivers/efc/efc.c **** #elif (SAM3S || SAM3N || SAM4E || SAM4N || SAMG || SAMV71 || SAMV70 || SAMS70 || SAME70)
  71:../asf/sam/drivers/efc/efc.c **** # define READ_BUFF_ADDR     IFLASH_ADDR
  72:../asf/sam/drivers/efc/efc.c **** #elif (SAM4C || SAM4CP || SAM4CM)
  73:../asf/sam/drivers/efc/efc.c **** #if (SAM4C32 || SAM4CMS32 || SAM4CMP32)
  74:../asf/sam/drivers/efc/efc.c **** # define READ_BUFF_ADDR0    IFLASH0_CNC_ADDR
  75:../asf/sam/drivers/efc/efc.c **** # define READ_BUFF_ADDR1    IFLASH1_CNC_ADDR
  76:../asf/sam/drivers/efc/efc.c **** #else
  77:../asf/sam/drivers/efc/efc.c **** # define READ_BUFF_ADDR     IFLASH_CNC_ADDR
  78:../asf/sam/drivers/efc/efc.c **** #endif
  79:../asf/sam/drivers/efc/efc.c **** #elif (SAM3U || SAM4S)
  80:../asf/sam/drivers/efc/efc.c **** # define READ_BUFF_ADDR     IFLASH0_ADDR
  81:../asf/sam/drivers/efc/efc.c **** #else
  82:../asf/sam/drivers/efc/efc.c **** # warning Only reading unique ID for sam3/4 is implemented.
  83:../asf/sam/drivers/efc/efc.c **** #endif
  84:../asf/sam/drivers/efc/efc.c **** 
  85:../asf/sam/drivers/efc/efc.c **** /* Flash Writing Protection Key */
  86:../asf/sam/drivers/efc/efc.c **** #define FWP_KEY    0x5Au
  87:../asf/sam/drivers/efc/efc.c **** 
ARM GAS  /tmp/ccLuO05w.s 			page 3


  88:../asf/sam/drivers/efc/efc.c **** #if (SAM4S || SAM4E || SAM4N || SAM4C || SAMG || SAM4CP || SAM4CM)
  89:../asf/sam/drivers/efc/efc.c **** #define EEFC_FCR_FCMD(value) \
  90:../asf/sam/drivers/efc/efc.c **** 	((EEFC_FCR_FCMD_Msk & ((value) << EEFC_FCR_FCMD_Pos)))
  91:../asf/sam/drivers/efc/efc.c **** #define EEFC_ERROR_FLAGS  (EEFC_FSR_FLOCKE | EEFC_FSR_FCMDE | EEFC_FSR_FLERR)
  92:../asf/sam/drivers/efc/efc.c **** #elif (SAMV71 || SAMV70 || SAMS70 || SAME70)
  93:../asf/sam/drivers/efc/efc.c **** #define EEFC_ERROR_FLAGS  (EEFC_FSR_FLOCKE | EEFC_FSR_FCMDE | EEFC_FSR_FLERR \
  94:../asf/sam/drivers/efc/efc.c **** 	| EEFC_FSR_UECCELSB | EEFC_FSR_MECCELSB | EEFC_FSR_UECCEMSB | EEFC_FSR_MECCEMSB)
  95:../asf/sam/drivers/efc/efc.c **** #else
  96:../asf/sam/drivers/efc/efc.c **** #define EEFC_ERROR_FLAGS  (EEFC_FSR_FLOCKE | EEFC_FSR_FCMDE)
  97:../asf/sam/drivers/efc/efc.c **** #endif
  98:../asf/sam/drivers/efc/efc.c **** 
  99:../asf/sam/drivers/efc/efc.c **** #ifndef EEFC_FCR_FKEY_PASSWD
 100:../asf/sam/drivers/efc/efc.c **** #define EEFC_FCR_FKEY_PASSWD EEFC_FCR_FKEY(FWP_KEY)
 101:../asf/sam/drivers/efc/efc.c **** #endif
 102:../asf/sam/drivers/efc/efc.c **** 
 103:../asf/sam/drivers/efc/efc.c **** 
 104:../asf/sam/drivers/efc/efc.c **** /*
 105:../asf/sam/drivers/efc/efc.c ****  * Local function declaration.
 106:../asf/sam/drivers/efc/efc.c ****  * Because they are RAM functions, they need 'extern' declaration.
 107:../asf/sam/drivers/efc/efc.c ****  */
 108:../asf/sam/drivers/efc/efc.c **** extern void efc_write_fmr(Efc *p_efc, uint32_t ul_fmr);
 109:../asf/sam/drivers/efc/efc.c **** extern uint32_t efc_perform_fcr(Efc *p_efc, uint32_t ul_fcr);
 110:../asf/sam/drivers/efc/efc.c **** 
 111:../asf/sam/drivers/efc/efc.c **** /**
 112:../asf/sam/drivers/efc/efc.c ****  * \brief Initialize the EFC controller.
 113:../asf/sam/drivers/efc/efc.c ****  *
 114:../asf/sam/drivers/efc/efc.c ****  * \param ul_access_mode 0 for 128-bit, EEFC_FMR_FAM for 64-bit.
 115:../asf/sam/drivers/efc/efc.c ****  * \param ul_fws The number of wait states in cycle (no shift).
 116:../asf/sam/drivers/efc/efc.c ****  *
 117:../asf/sam/drivers/efc/efc.c ****  * \return 0 if successful.
 118:../asf/sam/drivers/efc/efc.c ****  */
 119:../asf/sam/drivers/efc/efc.c **** uint32_t efc_init(Efc *p_efc, uint32_t ul_access_mode, uint32_t ul_fws)
 120:../asf/sam/drivers/efc/efc.c **** {
 121:../asf/sam/drivers/efc/efc.c **** #if (SAM4S || SAM4E || SAM4N || SAM4C || SAMG || SAM4CP || SAM4CM || \
 122:../asf/sam/drivers/efc/efc.c **** 	 SAMV71 || SAMV70 || SAMS70 || SAME70)
 123:../asf/sam/drivers/efc/efc.c **** 	efc_write_fmr(p_efc, ul_access_mode | EEFC_FMR_FWS(ul_fws) | EEFC_FMR_CLOE);
 124:../asf/sam/drivers/efc/efc.c **** #else
 125:../asf/sam/drivers/efc/efc.c **** 	efc_write_fmr(p_efc, ul_access_mode | EEFC_FMR_FWS(ul_fws));
 126:../asf/sam/drivers/efc/efc.c **** #endif
 127:../asf/sam/drivers/efc/efc.c **** 	return EFC_RC_OK;
 128:../asf/sam/drivers/efc/efc.c **** }
 129:../asf/sam/drivers/efc/efc.c **** 
 130:../asf/sam/drivers/efc/efc.c **** #if (SAM4S || SAM4E || SAM4N || SAM4C || SAMG || SAM4CP || SAM4CM || \
 131:../asf/sam/drivers/efc/efc.c **** 	 SAMV71 || SAMV70 || SAMS70 || SAME70)
 132:../asf/sam/drivers/efc/efc.c **** /**
 133:../asf/sam/drivers/efc/efc.c ****  * \brief Enable code loop optimization.
 134:../asf/sam/drivers/efc/efc.c ****  *
 135:../asf/sam/drivers/efc/efc.c ****  * \param p_efc Pointer to an EFC instance.
 136:../asf/sam/drivers/efc/efc.c ****  */
 137:../asf/sam/drivers/efc/efc.c **** void efc_enable_cloe(Efc *p_efc)
 138:../asf/sam/drivers/efc/efc.c **** {
 139:../asf/sam/drivers/efc/efc.c **** 	uint32_t ul_fmr = p_efc->EEFC_FMR;
 140:../asf/sam/drivers/efc/efc.c **** 	efc_write_fmr(p_efc, ul_fmr | EEFC_FMR_CLOE);
 141:../asf/sam/drivers/efc/efc.c **** }
 142:../asf/sam/drivers/efc/efc.c **** 
 143:../asf/sam/drivers/efc/efc.c **** /**
 144:../asf/sam/drivers/efc/efc.c ****  * \brief Disable code loop optimization.
ARM GAS  /tmp/ccLuO05w.s 			page 4


 145:../asf/sam/drivers/efc/efc.c ****  *
 146:../asf/sam/drivers/efc/efc.c ****  * \param p_efc Pointer to an EFC instance.
 147:../asf/sam/drivers/efc/efc.c ****  */
 148:../asf/sam/drivers/efc/efc.c **** void efc_disable_cloe(Efc *p_efc)
 149:../asf/sam/drivers/efc/efc.c **** {
 150:../asf/sam/drivers/efc/efc.c **** 	uint32_t ul_fmr = p_efc->EEFC_FMR;
 151:../asf/sam/drivers/efc/efc.c **** 	efc_write_fmr(p_efc, ul_fmr & (~EEFC_FMR_CLOE));
 152:../asf/sam/drivers/efc/efc.c **** }
 153:../asf/sam/drivers/efc/efc.c **** #endif
 154:../asf/sam/drivers/efc/efc.c **** 
 155:../asf/sam/drivers/efc/efc.c **** 
 156:../asf/sam/drivers/efc/efc.c **** 
 157:../asf/sam/drivers/efc/efc.c **** /**
 158:../asf/sam/drivers/efc/efc.c ****  * \brief Enable the flash ready interrupt.
 159:../asf/sam/drivers/efc/efc.c ****  *
 160:../asf/sam/drivers/efc/efc.c ****  * \param p_efc Pointer to an EFC instance.
 161:../asf/sam/drivers/efc/efc.c ****  */
 162:../asf/sam/drivers/efc/efc.c **** void efc_enable_frdy_interrupt(Efc *p_efc)
 163:../asf/sam/drivers/efc/efc.c **** {
 164:../asf/sam/drivers/efc/efc.c **** 	uint32_t ul_fmr = p_efc->EEFC_FMR;
 165:../asf/sam/drivers/efc/efc.c **** 
 166:../asf/sam/drivers/efc/efc.c **** 	efc_write_fmr(p_efc, ul_fmr | EEFC_FMR_FRDY);
 167:../asf/sam/drivers/efc/efc.c **** }
 168:../asf/sam/drivers/efc/efc.c **** 
 169:../asf/sam/drivers/efc/efc.c **** /**
 170:../asf/sam/drivers/efc/efc.c ****  * \brief Disable the flash ready interrupt.
 171:../asf/sam/drivers/efc/efc.c ****  *
 172:../asf/sam/drivers/efc/efc.c ****  * \param p_efc Pointer to an EFC instance.
 173:../asf/sam/drivers/efc/efc.c ****  */
 174:../asf/sam/drivers/efc/efc.c **** void efc_disable_frdy_interrupt(Efc *p_efc)
 175:../asf/sam/drivers/efc/efc.c **** {
 176:../asf/sam/drivers/efc/efc.c **** 	uint32_t ul_fmr = p_efc->EEFC_FMR;
 177:../asf/sam/drivers/efc/efc.c **** 
 178:../asf/sam/drivers/efc/efc.c **** 	efc_write_fmr(p_efc, ul_fmr & (~EEFC_FMR_FRDY));
 179:../asf/sam/drivers/efc/efc.c **** }
 180:../asf/sam/drivers/efc/efc.c **** 
 181:../asf/sam/drivers/efc/efc.c **** #if (SAMV71 || SAMV70 || SAMS70 || SAME70)
 182:../asf/sam/drivers/efc/efc.c **** /**
 183:../asf/sam/drivers/efc/efc.c ****  * \brief Enable the write protection.
 184:../asf/sam/drivers/efc/efc.c ****  *
 185:../asf/sam/drivers/efc/efc.c ****  * \param p_efc Pointer to an EFC instance.
 186:../asf/sam/drivers/efc/efc.c ****  */
 187:../asf/sam/drivers/efc/efc.c **** void efc_enable_write_protection(Efc *p_efc)
 188:../asf/sam/drivers/efc/efc.c **** {
  28              		.loc 1 188 0
  29              		.cfi_startproc
  30              		@ args = 0, pretend = 0, frame = 0
  31              		@ frame_needed = 0, uses_anonymous_args = 0
  32              		@ link register save eliminated.
  33              	.LVL0:
 189:../asf/sam/drivers/efc/efc.c **** 	p_efc->EEFC_WPMR = EEFC_WPMR_WPKEY_PASSWD | EEFC_WPMR_WPEN;
  34              		.loc 1 189 0
  35 0000 014B     		ldr	r3, .L2
  36 0002 C0F8E430 		str	r3, [r0, #228]
  37 0006 7047     		bx	lr
  38              	.L3:
  39              		.align	2
ARM GAS  /tmp/ccLuO05w.s 			page 5


  40              	.L2:
  41 0008 01434645 		.word	1162232577
  42              		.cfi_endproc
  43              	.LFE147:
  44              		.size	efc_enable_write_protection, .-efc_enable_write_protection
  45              		.section	.text.efc_disable_write_protection,"ax",%progbits
  46              		.align	1
  47              		.p2align 2,,3
  48              		.global	efc_disable_write_protection
  49              		.syntax unified
  50              		.thumb
  51              		.thumb_func
  52              		.fpu fpv5-d16
  53              		.type	efc_disable_write_protection, %function
  54              	efc_disable_write_protection:
  55              	.LFB148:
 190:../asf/sam/drivers/efc/efc.c **** }
 191:../asf/sam/drivers/efc/efc.c **** 
 192:../asf/sam/drivers/efc/efc.c **** /**
 193:../asf/sam/drivers/efc/efc.c ****  * \brief Disable the write protection.
 194:../asf/sam/drivers/efc/efc.c ****  *
 195:../asf/sam/drivers/efc/efc.c ****  * \param p_efc Pointer to an EFC instance.
 196:../asf/sam/drivers/efc/efc.c ****  */
 197:../asf/sam/drivers/efc/efc.c **** void efc_disable_write_protection(Efc *p_efc)
 198:../asf/sam/drivers/efc/efc.c **** {
  56              		.loc 1 198 0
  57              		.cfi_startproc
  58              		@ args = 0, pretend = 0, frame = 0
  59              		@ frame_needed = 0, uses_anonymous_args = 0
  60              		@ link register save eliminated.
  61              	.LVL1:
 199:../asf/sam/drivers/efc/efc.c **** 	p_efc->EEFC_WPMR = EEFC_WPMR_WPKEY_PASSWD;
  62              		.loc 1 199 0
  63 0000 014B     		ldr	r3, .L5
  64 0002 C0F8E430 		str	r3, [r0, #228]
  65 0006 7047     		bx	lr
  66              	.L6:
  67              		.align	2
  68              	.L5:
  69 0008 00434645 		.word	1162232576
  70              		.cfi_endproc
  71              	.LFE148:
  72              		.size	efc_disable_write_protection, .-efc_disable_write_protection
  73              		.section	.text.efc_get_wait_state,"ax",%progbits
  74              		.align	1
  75              		.p2align 2,,3
  76              		.global	efc_get_wait_state
  77              		.syntax unified
  78              		.thumb
  79              		.thumb_func
  80              		.fpu fpv5-d16
  81              		.type	efc_get_wait_state, %function
  82              	efc_get_wait_state:
  83              	.LFB150:
 200:../asf/sam/drivers/efc/efc.c **** }
 201:../asf/sam/drivers/efc/efc.c **** #else
 202:../asf/sam/drivers/efc/efc.c **** /**
ARM GAS  /tmp/ccLuO05w.s 			page 6


 203:../asf/sam/drivers/efc/efc.c ****  * \brief Set flash access mode.
 204:../asf/sam/drivers/efc/efc.c ****  *
 205:../asf/sam/drivers/efc/efc.c ****  * \param p_efc Pointer to an EFC instance.
 206:../asf/sam/drivers/efc/efc.c ****  * \param ul_mode 0 for 128-bit, EEFC_FMR_FAM for 64-bit.
 207:../asf/sam/drivers/efc/efc.c ****  */
 208:../asf/sam/drivers/efc/efc.c **** void efc_set_flash_access_mode(Efc *p_efc, uint32_t ul_mode)
 209:../asf/sam/drivers/efc/efc.c **** {
 210:../asf/sam/drivers/efc/efc.c **** 	uint32_t ul_fmr = p_efc->EEFC_FMR & (~EEFC_FMR_FAM);
 211:../asf/sam/drivers/efc/efc.c **** 
 212:../asf/sam/drivers/efc/efc.c **** 	efc_write_fmr(p_efc, ul_fmr | ul_mode);
 213:../asf/sam/drivers/efc/efc.c **** }
 214:../asf/sam/drivers/efc/efc.c **** 
 215:../asf/sam/drivers/efc/efc.c **** /**
 216:../asf/sam/drivers/efc/efc.c ****  * \brief Get flash access mode.
 217:../asf/sam/drivers/efc/efc.c ****  *
 218:../asf/sam/drivers/efc/efc.c ****  * \param p_efc Pointer to an EFC instance.
 219:../asf/sam/drivers/efc/efc.c ****  *
 220:../asf/sam/drivers/efc/efc.c ****  * \return 0 for 128-bit or EEFC_FMR_FAM for 64-bit.
 221:../asf/sam/drivers/efc/efc.c ****  */
 222:../asf/sam/drivers/efc/efc.c **** uint32_t efc_get_flash_access_mode(Efc *p_efc)
 223:../asf/sam/drivers/efc/efc.c **** {
 224:../asf/sam/drivers/efc/efc.c **** 	return (p_efc->EEFC_FMR & EEFC_FMR_FAM);
 225:../asf/sam/drivers/efc/efc.c **** }
 226:../asf/sam/drivers/efc/efc.c **** #endif
 227:../asf/sam/drivers/efc/efc.c **** 
 228:../asf/sam/drivers/efc/efc.c **** /**
 229:../asf/sam/drivers/efc/efc.c ****  * \brief Set flash wait state.
 230:../asf/sam/drivers/efc/efc.c ****  *
 231:../asf/sam/drivers/efc/efc.c ****  * \param p_efc Pointer to an EFC instance.
 232:../asf/sam/drivers/efc/efc.c ****  * \param ul_fws The number of wait states in cycle (no shift).
 233:../asf/sam/drivers/efc/efc.c ****  */
 234:../asf/sam/drivers/efc/efc.c **** void efc_set_wait_state(Efc *p_efc, uint32_t ul_fws)
 235:../asf/sam/drivers/efc/efc.c **** {
 236:../asf/sam/drivers/efc/efc.c **** 	uint32_t ul_fmr = p_efc->EEFC_FMR & (~EEFC_FMR_FWS_Msk);
 237:../asf/sam/drivers/efc/efc.c **** 
 238:../asf/sam/drivers/efc/efc.c **** 	efc_write_fmr(p_efc, ul_fmr | EEFC_FMR_FWS(ul_fws));
 239:../asf/sam/drivers/efc/efc.c **** }
 240:../asf/sam/drivers/efc/efc.c **** 
 241:../asf/sam/drivers/efc/efc.c **** /**
 242:../asf/sam/drivers/efc/efc.c ****  * \brief Get flash wait state.
 243:../asf/sam/drivers/efc/efc.c ****  *
 244:../asf/sam/drivers/efc/efc.c ****  * \param p_efc Pointer to an EFC instance.
 245:../asf/sam/drivers/efc/efc.c ****  *
 246:../asf/sam/drivers/efc/efc.c ****  * \return The number of wait states in cycle (no shift).
 247:../asf/sam/drivers/efc/efc.c ****  */
 248:../asf/sam/drivers/efc/efc.c **** uint32_t efc_get_wait_state(Efc *p_efc)
 249:../asf/sam/drivers/efc/efc.c **** {
  84              		.loc 1 249 0
  85              		.cfi_startproc
  86              		@ args = 0, pretend = 0, frame = 0
  87              		@ frame_needed = 0, uses_anonymous_args = 0
  88              		@ link register save eliminated.
  89              	.LVL2:
 250:../asf/sam/drivers/efc/efc.c **** 	return ((p_efc->EEFC_FMR & EEFC_FMR_FWS_Msk) >> EEFC_FMR_FWS_Pos);
  90              		.loc 1 250 0
  91 0000 0068     		ldr	r0, [r0]
  92              	.LVL3:
ARM GAS  /tmp/ccLuO05w.s 			page 7


 251:../asf/sam/drivers/efc/efc.c **** }
  93              		.loc 1 251 0
  94 0002 C0F30320 		ubfx	r0, r0, #8, #4
  95 0006 7047     		bx	lr
  96              		.cfi_endproc
  97              	.LFE150:
  98              		.size	efc_get_wait_state, .-efc_get_wait_state
  99              		.section	.text.efc_get_status,"ax",%progbits
 100              		.align	1
 101              		.p2align 2,,3
 102              		.global	efc_get_status
 103              		.syntax unified
 104              		.thumb
 105              		.thumb_func
 106              		.fpu fpv5-d16
 107              		.type	efc_get_status, %function
 108              	efc_get_status:
 109              	.LFB152:
 252:../asf/sam/drivers/efc/efc.c **** 
 253:../asf/sam/drivers/efc/efc.c **** /**
 254:../asf/sam/drivers/efc/efc.c ****  * \brief Perform the given command and wait until its completion (or an error).
 255:../asf/sam/drivers/efc/efc.c ****  *
 256:../asf/sam/drivers/efc/efc.c ****  * \note Unique ID commands are not supported, use efc_perform_read_sequence.
 257:../asf/sam/drivers/efc/efc.c ****  *
 258:../asf/sam/drivers/efc/efc.c ****  * \param p_efc Pointer to an EFC instance.
 259:../asf/sam/drivers/efc/efc.c ****  * \param ul_command Command to perform.
 260:../asf/sam/drivers/efc/efc.c ****  * \param ul_argument Optional command argument.
 261:../asf/sam/drivers/efc/efc.c ****  *
 262:../asf/sam/drivers/efc/efc.c ****  * \note This function will automatically choose to use IAP function.
 263:../asf/sam/drivers/efc/efc.c ****  *
 264:../asf/sam/drivers/efc/efc.c ****  * \return 0 if successful, otherwise returns an error code.
 265:../asf/sam/drivers/efc/efc.c ****  */
 266:../asf/sam/drivers/efc/efc.c **** uint32_t efc_perform_command(Efc *p_efc, uint32_t ul_command,
 267:../asf/sam/drivers/efc/efc.c **** 		uint32_t ul_argument)
 268:../asf/sam/drivers/efc/efc.c **** {
 269:../asf/sam/drivers/efc/efc.c **** 	uint32_t result;
 270:../asf/sam/drivers/efc/efc.c **** 	irqflags_t flags;
 271:../asf/sam/drivers/efc/efc.c **** 
 272:../asf/sam/drivers/efc/efc.c **** 	/* Unique ID commands are not supported. */
 273:../asf/sam/drivers/efc/efc.c **** 	if (ul_command == EFC_FCMD_STUI || ul_command == EFC_FCMD_SPUI) {
 274:../asf/sam/drivers/efc/efc.c **** 		return EFC_RC_NOT_SUPPORT;
 275:../asf/sam/drivers/efc/efc.c **** 	}
 276:../asf/sam/drivers/efc/efc.c **** 
 277:../asf/sam/drivers/efc/efc.c **** 	flags = cpu_irq_save();
 278:../asf/sam/drivers/efc/efc.c **** 	/* Use RAM Function. */
 279:../asf/sam/drivers/efc/efc.c **** 	result = efc_perform_fcr(p_efc,
 280:../asf/sam/drivers/efc/efc.c **** 			EEFC_FCR_FKEY_PASSWD | EEFC_FCR_FARG(ul_argument) |
 281:../asf/sam/drivers/efc/efc.c **** 			EEFC_FCR_FCMD(ul_command));
 282:../asf/sam/drivers/efc/efc.c **** 	cpu_irq_restore(flags);
 283:../asf/sam/drivers/efc/efc.c **** 	return result;
 284:../asf/sam/drivers/efc/efc.c **** }
 285:../asf/sam/drivers/efc/efc.c **** 
 286:../asf/sam/drivers/efc/efc.c **** /**
 287:../asf/sam/drivers/efc/efc.c ****  * \brief Get the current status of the EEFC.
 288:../asf/sam/drivers/efc/efc.c ****  *
 289:../asf/sam/drivers/efc/efc.c ****  * \note This function clears the value of some status bits (FLOCKE, FCMDE).
 290:../asf/sam/drivers/efc/efc.c ****  *
ARM GAS  /tmp/ccLuO05w.s 			page 8


 291:../asf/sam/drivers/efc/efc.c ****  * \param p_efc Pointer to an EFC instance.
 292:../asf/sam/drivers/efc/efc.c ****  *
 293:../asf/sam/drivers/efc/efc.c ****  * \return The current status.
 294:../asf/sam/drivers/efc/efc.c ****  */
 295:../asf/sam/drivers/efc/efc.c **** uint32_t efc_get_status(Efc *p_efc)
 296:../asf/sam/drivers/efc/efc.c **** {
 110              		.loc 1 296 0
 111              		.cfi_startproc
 112              		@ args = 0, pretend = 0, frame = 0
 113              		@ frame_needed = 0, uses_anonymous_args = 0
 114              		@ link register save eliminated.
 115              	.LVL4:
 297:../asf/sam/drivers/efc/efc.c **** 	return p_efc->EEFC_FSR;
 116              		.loc 1 297 0
 117 0000 8068     		ldr	r0, [r0, #8]
 118              	.LVL5:
 298:../asf/sam/drivers/efc/efc.c **** }
 119              		.loc 1 298 0
 120 0002 7047     		bx	lr
 121              		.cfi_endproc
 122              	.LFE152:
 123              		.size	efc_get_status, .-efc_get_status
 124              		.section	.text.efc_get_result,"ax",%progbits
 125              		.align	1
 126              		.p2align 2,,3
 127              		.global	efc_get_result
 128              		.syntax unified
 129              		.thumb
 130              		.thumb_func
 131              		.fpu fpv5-d16
 132              		.type	efc_get_result, %function
 133              	efc_get_result:
 134              	.LFB153:
 299:../asf/sam/drivers/efc/efc.c **** 
 300:../asf/sam/drivers/efc/efc.c **** /**
 301:../asf/sam/drivers/efc/efc.c ****  * \brief Get the result of the last executed command.
 302:../asf/sam/drivers/efc/efc.c ****  *
 303:../asf/sam/drivers/efc/efc.c ****  * \param p_efc Pointer to an EFC instance.
 304:../asf/sam/drivers/efc/efc.c ****  *
 305:../asf/sam/drivers/efc/efc.c ****  * \return The result of the last executed command.
 306:../asf/sam/drivers/efc/efc.c ****  */
 307:../asf/sam/drivers/efc/efc.c **** uint32_t efc_get_result(Efc *p_efc)
 308:../asf/sam/drivers/efc/efc.c **** {
 135              		.loc 1 308 0
 136              		.cfi_startproc
 137              		@ args = 0, pretend = 0, frame = 0
 138              		@ frame_needed = 0, uses_anonymous_args = 0
 139              		@ link register save eliminated.
 140              	.LVL6:
 309:../asf/sam/drivers/efc/efc.c **** 	return p_efc->EEFC_FRR;
 141              		.loc 1 309 0
 142 0000 C068     		ldr	r0, [r0, #12]
 143              	.LVL7:
 310:../asf/sam/drivers/efc/efc.c **** }
 144              		.loc 1 310 0
 145 0002 7047     		bx	lr
 146              		.cfi_endproc
ARM GAS  /tmp/ccLuO05w.s 			page 9


 147              	.LFE153:
 148              		.size	efc_get_result, .-efc_get_result
 149              		.section	.ramfunc,"ax",%progbits
 150              		.align	1
 151              		.p2align 2,,3
 152              		.global	efc_perform_read_sequence
 153              		.syntax unified
 154              		.thumb
 155              		.thumb_func
 156              		.fpu fpv5-d16
 157              		.type	efc_perform_read_sequence, %function
 158              	efc_perform_read_sequence:
 159              	.LFB154:
 311:../asf/sam/drivers/efc/efc.c **** 
 312:../asf/sam/drivers/efc/efc.c **** /**
 313:../asf/sam/drivers/efc/efc.c ****  * \brief Perform read sequence. Supported sequences are read Unique ID and
 314:../asf/sam/drivers/efc/efc.c ****  * read User Signature
 315:../asf/sam/drivers/efc/efc.c ****  *
 316:../asf/sam/drivers/efc/efc.c ****  * \param p_efc Pointer to an EFC instance.
 317:../asf/sam/drivers/efc/efc.c ****  * \param ul_cmd_st Start command to perform.
 318:../asf/sam/drivers/efc/efc.c ****  * \param ul_cmd_sp Stop command to perform.
 319:../asf/sam/drivers/efc/efc.c ****  * \param p_ul_buf Pointer to an data buffer.
 320:../asf/sam/drivers/efc/efc.c ****  * \param ul_size Buffer size.
 321:../asf/sam/drivers/efc/efc.c ****  *
 322:../asf/sam/drivers/efc/efc.c ****  * \return 0 if successful, otherwise returns an error code.
 323:../asf/sam/drivers/efc/efc.c ****  */
 324:../asf/sam/drivers/efc/efc.c **** __no_inline
 325:../asf/sam/drivers/efc/efc.c **** RAMFUNC
 326:../asf/sam/drivers/efc/efc.c **** uint32_t efc_perform_read_sequence(Efc *p_efc,
 327:../asf/sam/drivers/efc/efc.c **** 		uint32_t ul_cmd_st, uint32_t ul_cmd_sp,
 328:../asf/sam/drivers/efc/efc.c **** 		uint32_t *p_ul_buf, uint32_t ul_size)
 329:../asf/sam/drivers/efc/efc.c **** {
 160              		.loc 1 329 0
 161              		.cfi_startproc
 162              		@ args = 4, pretend = 0, frame = 8
 163              		@ frame_needed = 0, uses_anonymous_args = 0
 164              		@ link register save eliminated.
 165              	.LVL8:
 166 0000 30B4     		push	{r4, r5}
 167              		.cfi_def_cfa_offset 8
 168              		.cfi_offset 4, -8
 169              		.cfi_offset 5, -4
 170 0002 82B0     		sub	sp, sp, #8
 171              		.cfi_def_cfa_offset 16
 172              		.loc 1 329 0
 173 0004 049D     		ldr	r5, [sp, #16]
 330:../asf/sam/drivers/efc/efc.c **** 	volatile uint32_t ul_status;
 331:../asf/sam/drivers/efc/efc.c **** 	uint32_t ul_cnt;
 332:../asf/sam/drivers/efc/efc.c **** 
 333:../asf/sam/drivers/efc/efc.c **** #if (SAM3U4 || SAM3XA || SAM4SD16 || SAM4SD32 || SAM4C32 || SAM4CMS32|| SAM4CMP32)
 334:../asf/sam/drivers/efc/efc.c **** 	uint32_t *p_ul_data =
 335:../asf/sam/drivers/efc/efc.c **** 			(uint32_t *) ((p_efc == EFC0) ?
 336:../asf/sam/drivers/efc/efc.c **** 			READ_BUFF_ADDR0 : READ_BUFF_ADDR1);
 337:../asf/sam/drivers/efc/efc.c **** #elif (SAM3S || SAM4S || SAM3N || SAM3U || SAM4E || SAM4N || SAM4C || SAMG || \
 338:../asf/sam/drivers/efc/efc.c **** 	   SAM4CP || SAM4CM || SAMV71 || SAMV70 || SAMS70 || SAME70)
 339:../asf/sam/drivers/efc/efc.c **** 	uint32_t *p_ul_data = (uint32_t *) READ_BUFF_ADDR;
 340:../asf/sam/drivers/efc/efc.c **** #else
ARM GAS  /tmp/ccLuO05w.s 			page 10


 341:../asf/sam/drivers/efc/efc.c **** 	return EFC_RC_NOT_SUPPORT;
 342:../asf/sam/drivers/efc/efc.c **** #endif
 343:../asf/sam/drivers/efc/efc.c **** 
 344:../asf/sam/drivers/efc/efc.c **** 	if (p_ul_buf == NULL) {
 174              		.loc 1 344 0
 175 0006 43B3     		cbz	r3, .L17
 345:../asf/sam/drivers/efc/efc.c **** 		return EFC_RC_INVALID;
 346:../asf/sam/drivers/efc/efc.c **** 	}
 347:../asf/sam/drivers/efc/efc.c **** 
 348:../asf/sam/drivers/efc/efc.c **** 	p_efc->EEFC_FMR |= (0x1u << 16);
 176              		.loc 1 348 0
 177 0008 0468     		ldr	r4, [r0]
 349:../asf/sam/drivers/efc/efc.c **** 
 350:../asf/sam/drivers/efc/efc.c **** 	/* Send the Start Read command */
 351:../asf/sam/drivers/efc/efc.c **** #if (SAM4S || SAM4E || SAM4N || SAM4C || SAMG || SAM4CP || SAM4CM || \
 352:../asf/sam/drivers/efc/efc.c **** 	 SAMV71 || SAMV70 || SAMS70 || SAME70)
 353:../asf/sam/drivers/efc/efc.c **** 	p_efc->EEFC_FCR = EEFC_FCR_FKEY_PASSWD | EEFC_FCR_FARG(0)
 354:../asf/sam/drivers/efc/efc.c **** 			| EEFC_FCR_FCMD(ul_cmd_st);
 178              		.loc 1 354 0
 179 000a C9B2     		uxtb	r1, r1
 180              	.LVL9:
 348:../asf/sam/drivers/efc/efc.c **** 
 181              		.loc 1 348 0
 182 000c 44F48034 		orr	r4, r4, #65536
 183              		.loc 1 354 0
 184 0010 41F0B441 		orr	r1, r1, #1509949440
 348:../asf/sam/drivers/efc/efc.c **** 
 185              		.loc 1 348 0
 186 0014 0460     		str	r4, [r0]
 353:../asf/sam/drivers/efc/efc.c **** 			| EEFC_FCR_FCMD(ul_cmd_st);
 187              		.loc 1 353 0
 188 0016 4160     		str	r1, [r0, #4]
 189              	.L12:
 355:../asf/sam/drivers/efc/efc.c **** #else
 356:../asf/sam/drivers/efc/efc.c **** 	p_efc->EEFC_FCR = EEFC_FCR_FKEY(FWP_KEY) | EEFC_FCR_FARG(0)
 357:../asf/sam/drivers/efc/efc.c **** 			| EEFC_FCR_FCMD(ul_cmd_st);
 358:../asf/sam/drivers/efc/efc.c **** #endif
 359:../asf/sam/drivers/efc/efc.c **** 	/* Wait for the FRDY bit in the Flash Programming Status Register
 360:../asf/sam/drivers/efc/efc.c **** 	 * (EEFC_FSR) falls.
 361:../asf/sam/drivers/efc/efc.c **** 	 */
 362:../asf/sam/drivers/efc/efc.c **** 	do {
 363:../asf/sam/drivers/efc/efc.c **** 		ul_status = p_efc->EEFC_FSR;
 190              		.loc 1 363 0 discriminator 1
 191 0018 8168     		ldr	r1, [r0, #8]
 192 001a 0191     		str	r1, [sp, #4]
 364:../asf/sam/drivers/efc/efc.c **** 	} while ((ul_status & EEFC_FSR_FRDY) == EEFC_FSR_FRDY);
 193              		.loc 1 364 0 discriminator 1
 194 001c 0199     		ldr	r1, [sp, #4]
 195 001e C907     		lsls	r1, r1, #31
 196 0020 FAD4     		bmi	.L12
 197              	.LVL10:
 365:../asf/sam/drivers/efc/efc.c **** 
 366:../asf/sam/drivers/efc/efc.c **** 	/* The data is located in the first address of the Flash
 367:../asf/sam/drivers/efc/efc.c **** 	 * memory mapping.
 368:../asf/sam/drivers/efc/efc.c **** 	 */
 369:../asf/sam/drivers/efc/efc.c **** 	for (ul_cnt = 0; ul_cnt < ul_size; ul_cnt++) {
 198              		.loc 1 369 0 discriminator 1
ARM GAS  /tmp/ccLuO05w.s 			page 11


 199 0022 45B1     		cbz	r5, .L16
 200              		.loc 1 369 0 is_stmt 0
 201 0024 0F49     		ldr	r1, .L24
 202 0026 03EB8505 		add	r5, r3, r5, lsl #2
 203              	.LVL11:
 204              	.L15:
 370:../asf/sam/drivers/efc/efc.c **** 		p_ul_buf[ul_cnt] = p_ul_data[ul_cnt];
 205              		.loc 1 370 0 is_stmt 1 discriminator 3
 206 002a 51F8044F 		ldr	r4, [r1, #4]!
 207 002e 43F8044B 		str	r4, [r3], #4
 369:../asf/sam/drivers/efc/efc.c **** 		p_ul_buf[ul_cnt] = p_ul_data[ul_cnt];
 208              		.loc 1 369 0 discriminator 3
 209 0032 AB42     		cmp	r3, r5
 210 0034 F9D1     		bne	.L15
 211              	.L16:
 371:../asf/sam/drivers/efc/efc.c **** 	}
 372:../asf/sam/drivers/efc/efc.c **** 
 373:../asf/sam/drivers/efc/efc.c **** 	/* To stop the read mode */
 374:../asf/sam/drivers/efc/efc.c **** 	p_efc->EEFC_FCR =
 375:../asf/sam/drivers/efc/efc.c **** #if (SAM4S || SAM4E || SAM4N || SAM4C || SAMG || SAM4CP || SAM4CM || \
 376:../asf/sam/drivers/efc/efc.c **** 	 SAMV71 || SAMV70 || SAMS70 || SAME70)
 377:../asf/sam/drivers/efc/efc.c **** 			EEFC_FCR_FKEY_PASSWD | EEFC_FCR_FARG(0) |
 378:../asf/sam/drivers/efc/efc.c **** 			EEFC_FCR_FCMD(ul_cmd_sp);
 212              		.loc 1 378 0
 213 0036 D2B2     		uxtb	r2, r2
 214              	.LVL12:
 377:../asf/sam/drivers/efc/efc.c **** 			EEFC_FCR_FCMD(ul_cmd_sp);
 215              		.loc 1 377 0
 216 0038 42F0B442 		orr	r2, r2, #1509949440
 374:../asf/sam/drivers/efc/efc.c **** #if (SAM4S || SAM4E || SAM4N || SAM4C || SAMG || SAM4CP || SAM4CM || \
 217              		.loc 1 374 0
 218 003c 4260     		str	r2, [r0, #4]
 219              	.L14:
 379:../asf/sam/drivers/efc/efc.c **** #else
 380:../asf/sam/drivers/efc/efc.c **** 			EEFC_FCR_FKEY(FWP_KEY) | EEFC_FCR_FARG(0) |
 381:../asf/sam/drivers/efc/efc.c **** 			EEFC_FCR_FCMD(ul_cmd_sp);
 382:../asf/sam/drivers/efc/efc.c **** #endif
 383:../asf/sam/drivers/efc/efc.c **** 	/* Wait for the FRDY bit in the Flash Programming Status Register (EEFC_FSR)
 384:../asf/sam/drivers/efc/efc.c **** 	 * rises.
 385:../asf/sam/drivers/efc/efc.c **** 	 */
 386:../asf/sam/drivers/efc/efc.c **** 	do {
 387:../asf/sam/drivers/efc/efc.c **** 		ul_status = p_efc->EEFC_FSR;
 220              		.loc 1 387 0 discriminator 1
 221 003e 8368     		ldr	r3, [r0, #8]
 222 0040 0193     		str	r3, [sp, #4]
 388:../asf/sam/drivers/efc/efc.c **** 	} while ((ul_status & EEFC_FSR_FRDY) != EEFC_FSR_FRDY);
 223              		.loc 1 388 0 discriminator 1
 224 0042 019B     		ldr	r3, [sp, #4]
 225 0044 DB07     		lsls	r3, r3, #31
 226 0046 FAD5     		bpl	.L14
 389:../asf/sam/drivers/efc/efc.c **** 
 390:../asf/sam/drivers/efc/efc.c **** 	p_efc->EEFC_FMR &= ~(0x1u << 16);
 227              		.loc 1 390 0
 228 0048 0368     		ldr	r3, [r0]
 391:../asf/sam/drivers/efc/efc.c **** 
 392:../asf/sam/drivers/efc/efc.c **** 	return EFC_RC_OK;
 229              		.loc 1 392 0
ARM GAS  /tmp/ccLuO05w.s 			page 12


 230 004a 0022     		movs	r2, #0
 390:../asf/sam/drivers/efc/efc.c **** 
 231              		.loc 1 390 0
 232 004c 23F48033 		bic	r3, r3, #65536
 233 0050 0360     		str	r3, [r0]
 393:../asf/sam/drivers/efc/efc.c **** }
 234              		.loc 1 393 0
 235 0052 1046     		mov	r0, r2
 236              	.LVL13:
 237 0054 02B0     		add	sp, sp, #8
 238              		.cfi_remember_state
 239              		.cfi_def_cfa_offset 8
 240              		@ sp needed
 241 0056 30BC     		pop	{r4, r5}
 242              		.cfi_restore 5
 243              		.cfi_restore 4
 244              		.cfi_def_cfa_offset 0
 245              	.LVL14:
 246 0058 7047     		bx	lr
 247              	.LVL15:
 248              	.L17:
 249              		.cfi_restore_state
 345:../asf/sam/drivers/efc/efc.c **** 	}
 250              		.loc 1 345 0
 251 005a 0222     		movs	r2, #2
 252              	.LVL16:
 253              		.loc 1 393 0
 254 005c 1046     		mov	r0, r2
 255              	.LVL17:
 256 005e 02B0     		add	sp, sp, #8
 257              		.cfi_def_cfa_offset 8
 258              		@ sp needed
 259 0060 30BC     		pop	{r4, r5}
 260              		.cfi_restore 4
 261              		.cfi_restore 5
 262              		.cfi_def_cfa_offset 0
 263              	.LVL18:
 264 0062 7047     		bx	lr
 265              	.L25:
 266              		.align	2
 267              	.L24:
 268 0064 FCFF3F00 		.word	4194300
 269              		.cfi_endproc
 270              	.LFE154:
 271              		.size	efc_perform_read_sequence, .-efc_perform_read_sequence
 272              		.align	1
 273              		.p2align 2,,3
 274              		.global	efc_write_fmr
 275              		.syntax unified
 276              		.thumb
 277              		.thumb_func
 278              		.fpu fpv5-d16
 279              		.type	efc_write_fmr, %function
 280              	efc_write_fmr:
 281              	.LFB155:
 394:../asf/sam/drivers/efc/efc.c **** 
 395:../asf/sam/drivers/efc/efc.c **** /**
ARM GAS  /tmp/ccLuO05w.s 			page 13


 396:../asf/sam/drivers/efc/efc.c ****  * \brief Set mode register.
 397:../asf/sam/drivers/efc/efc.c ****  *
 398:../asf/sam/drivers/efc/efc.c ****  * \param p_efc Pointer to an EFC instance.
 399:../asf/sam/drivers/efc/efc.c ****  * \param ul_fmr Value of mode register
 400:../asf/sam/drivers/efc/efc.c ****  */
 401:../asf/sam/drivers/efc/efc.c **** __no_inline
 402:../asf/sam/drivers/efc/efc.c **** RAMFUNC
 403:../asf/sam/drivers/efc/efc.c **** void efc_write_fmr(Efc *p_efc, uint32_t ul_fmr)
 404:../asf/sam/drivers/efc/efc.c **** {
 282              		.loc 1 404 0
 283              		.cfi_startproc
 284              		@ args = 0, pretend = 0, frame = 0
 285              		@ frame_needed = 0, uses_anonymous_args = 0
 286              		@ link register save eliminated.
 287              	.LVL19:
 405:../asf/sam/drivers/efc/efc.c **** 	p_efc->EEFC_FMR = ul_fmr;
 288              		.loc 1 405 0
 289 0068 0160     		str	r1, [r0]
 290 006a 7047     		bx	lr
 291              		.cfi_endproc
 292              	.LFE155:
 293              		.size	efc_write_fmr, .-efc_write_fmr
 294              		.section	.text.efc_init,"ax",%progbits
 295              		.align	1
 296              		.p2align 2,,3
 297              		.global	efc_init
 298              		.syntax unified
 299              		.thumb
 300              		.thumb_func
 301              		.fpu fpv5-d16
 302              		.type	efc_init, %function
 303              	efc_init:
 304              	.LFB142:
 120:../asf/sam/drivers/efc/efc.c **** #if (SAM4S || SAM4E || SAM4N || SAM4C || SAMG || SAM4CP || SAM4CM || \
 305              		.loc 1 120 0
 306              		.cfi_startproc
 307              		@ args = 0, pretend = 0, frame = 0
 308              		@ frame_needed = 0, uses_anonymous_args = 0
 309              	.LVL20:
 123:../asf/sam/drivers/efc/efc.c **** #else
 310              		.loc 1 123 0
 311 0000 1202     		lsls	r2, r2, #8
 312              	.LVL21:
 313 0002 41F08061 		orr	r1, r1, #67108864
 314              	.LVL22:
 315 0006 02F47062 		and	r2, r2, #3840
 120:../asf/sam/drivers/efc/efc.c **** #if (SAM4S || SAM4E || SAM4N || SAM4C || SAMG || SAM4CP || SAM4CM || \
 316              		.loc 1 120 0
 317 000a 08B5     		push	{r3, lr}
 318              		.cfi_def_cfa_offset 8
 319              		.cfi_offset 3, -8
 320              		.cfi_offset 14, -4
 123:../asf/sam/drivers/efc/efc.c **** #else
 321              		.loc 1 123 0
 322 000c 1143     		orrs	r1, r1, r2
 323 000e FFF7FEFF 		bl	efc_write_fmr
 324              	.LVL23:
ARM GAS  /tmp/ccLuO05w.s 			page 14


 128:../asf/sam/drivers/efc/efc.c **** 
 325              		.loc 1 128 0
 326 0012 0020     		movs	r0, #0
 327              	.LVL24:
 328 0014 08BD     		pop	{r3, pc}
 329              		.cfi_endproc
 330              	.LFE142:
 331              		.size	efc_init, .-efc_init
 332 0016 00BF     		.section	.text.efc_enable_cloe,"ax",%progbits
 333              		.align	1
 334              		.p2align 2,,3
 335              		.global	efc_enable_cloe
 336              		.syntax unified
 337              		.thumb
 338              		.thumb_func
 339              		.fpu fpv5-d16
 340              		.type	efc_enable_cloe, %function
 341              	efc_enable_cloe:
 342              	.LFB143:
 138:../asf/sam/drivers/efc/efc.c **** 	uint32_t ul_fmr = p_efc->EEFC_FMR;
 343              		.loc 1 138 0
 344              		.cfi_startproc
 345              		@ args = 0, pretend = 0, frame = 0
 346              		@ frame_needed = 0, uses_anonymous_args = 0
 347              		@ link register save eliminated.
 348              	.LVL25:
 139:../asf/sam/drivers/efc/efc.c **** 	efc_write_fmr(p_efc, ul_fmr | EEFC_FMR_CLOE);
 349              		.loc 1 139 0
 350 0000 0168     		ldr	r1, [r0]
 351              	.LVL26:
 140:../asf/sam/drivers/efc/efc.c **** }
 352              		.loc 1 140 0
 353 0002 41F08061 		orr	r1, r1, #67108864
 354              	.LVL27:
 355 0006 FFF7FEBF 		b	efc_write_fmr
 356              	.LVL28:
 357              		.cfi_endproc
 358              	.LFE143:
 359              		.size	efc_enable_cloe, .-efc_enable_cloe
 360 000a 00BF     		.section	.text.efc_disable_cloe,"ax",%progbits
 361              		.align	1
 362              		.p2align 2,,3
 363              		.global	efc_disable_cloe
 364              		.syntax unified
 365              		.thumb
 366              		.thumb_func
 367              		.fpu fpv5-d16
 368              		.type	efc_disable_cloe, %function
 369              	efc_disable_cloe:
 370              	.LFB144:
 149:../asf/sam/drivers/efc/efc.c **** 	uint32_t ul_fmr = p_efc->EEFC_FMR;
 371              		.loc 1 149 0
 372              		.cfi_startproc
 373              		@ args = 0, pretend = 0, frame = 0
 374              		@ frame_needed = 0, uses_anonymous_args = 0
 375              		@ link register save eliminated.
 376              	.LVL29:
ARM GAS  /tmp/ccLuO05w.s 			page 15


 150:../asf/sam/drivers/efc/efc.c **** 	efc_write_fmr(p_efc, ul_fmr & (~EEFC_FMR_CLOE));
 377              		.loc 1 150 0
 378 0000 0168     		ldr	r1, [r0]
 379              	.LVL30:
 151:../asf/sam/drivers/efc/efc.c **** }
 380              		.loc 1 151 0
 381 0002 21F08061 		bic	r1, r1, #67108864
 382              	.LVL31:
 383 0006 FFF7FEBF 		b	efc_write_fmr
 384              	.LVL32:
 385              		.cfi_endproc
 386              	.LFE144:
 387              		.size	efc_disable_cloe, .-efc_disable_cloe
 388 000a 00BF     		.section	.text.efc_enable_frdy_interrupt,"ax",%progbits
 389              		.align	1
 390              		.p2align 2,,3
 391              		.global	efc_enable_frdy_interrupt
 392              		.syntax unified
 393              		.thumb
 394              		.thumb_func
 395              		.fpu fpv5-d16
 396              		.type	efc_enable_frdy_interrupt, %function
 397              	efc_enable_frdy_interrupt:
 398              	.LFB145:
 163:../asf/sam/drivers/efc/efc.c **** 	uint32_t ul_fmr = p_efc->EEFC_FMR;
 399              		.loc 1 163 0
 400              		.cfi_startproc
 401              		@ args = 0, pretend = 0, frame = 0
 402              		@ frame_needed = 0, uses_anonymous_args = 0
 403              		@ link register save eliminated.
 404              	.LVL33:
 164:../asf/sam/drivers/efc/efc.c **** 
 405              		.loc 1 164 0
 406 0000 0168     		ldr	r1, [r0]
 407              	.LVL34:
 166:../asf/sam/drivers/efc/efc.c **** }
 408              		.loc 1 166 0
 409 0002 41F00101 		orr	r1, r1, #1
 410              	.LVL35:
 411 0006 FFF7FEBF 		b	efc_write_fmr
 412              	.LVL36:
 413              		.cfi_endproc
 414              	.LFE145:
 415              		.size	efc_enable_frdy_interrupt, .-efc_enable_frdy_interrupt
 416 000a 00BF     		.section	.text.efc_disable_frdy_interrupt,"ax",%progbits
 417              		.align	1
 418              		.p2align 2,,3
 419              		.global	efc_disable_frdy_interrupt
 420              		.syntax unified
 421              		.thumb
 422              		.thumb_func
 423              		.fpu fpv5-d16
 424              		.type	efc_disable_frdy_interrupt, %function
 425              	efc_disable_frdy_interrupt:
 426              	.LFB146:
 175:../asf/sam/drivers/efc/efc.c **** 	uint32_t ul_fmr = p_efc->EEFC_FMR;
 427              		.loc 1 175 0
ARM GAS  /tmp/ccLuO05w.s 			page 16


 428              		.cfi_startproc
 429              		@ args = 0, pretend = 0, frame = 0
 430              		@ frame_needed = 0, uses_anonymous_args = 0
 431              		@ link register save eliminated.
 432              	.LVL37:
 176:../asf/sam/drivers/efc/efc.c **** 
 433              		.loc 1 176 0
 434 0000 0168     		ldr	r1, [r0]
 435              	.LVL38:
 178:../asf/sam/drivers/efc/efc.c **** }
 436              		.loc 1 178 0
 437 0002 21F00101 		bic	r1, r1, #1
 438              	.LVL39:
 439 0006 FFF7FEBF 		b	efc_write_fmr
 440              	.LVL40:
 441              		.cfi_endproc
 442              	.LFE146:
 443              		.size	efc_disable_frdy_interrupt, .-efc_disable_frdy_interrupt
 444 000a 00BF     		.section	.text.efc_set_wait_state,"ax",%progbits
 445              		.align	1
 446              		.p2align 2,,3
 447              		.global	efc_set_wait_state
 448              		.syntax unified
 449              		.thumb
 450              		.thumb_func
 451              		.fpu fpv5-d16
 452              		.type	efc_set_wait_state, %function
 453              	efc_set_wait_state:
 454              	.LFB149:
 235:../asf/sam/drivers/efc/efc.c **** 	uint32_t ul_fmr = p_efc->EEFC_FMR & (~EEFC_FMR_FWS_Msk);
 455              		.loc 1 235 0
 456              		.cfi_startproc
 457              		@ args = 0, pretend = 0, frame = 0
 458              		@ frame_needed = 0, uses_anonymous_args = 0
 459              		@ link register save eliminated.
 460              	.LVL41:
 238:../asf/sam/drivers/efc/efc.c **** }
 461              		.loc 1 238 0
 462 0000 0902     		lsls	r1, r1, #8
 463              	.LVL42:
 236:../asf/sam/drivers/efc/efc.c **** 
 464              		.loc 1 236 0
 465 0002 0368     		ldr	r3, [r0]
 466              	.LVL43:
 238:../asf/sam/drivers/efc/efc.c **** }
 467              		.loc 1 238 0
 468 0004 01F47061 		and	r1, r1, #3840
 236:../asf/sam/drivers/efc/efc.c **** 
 469              		.loc 1 236 0
 470 0008 23F47063 		bic	r3, r3, #3840
 471              	.LVL44:
 238:../asf/sam/drivers/efc/efc.c **** }
 472              		.loc 1 238 0
 473 000c 1943     		orrs	r1, r1, r3
 474 000e FFF7FEBF 		b	efc_write_fmr
 475              	.LVL45:
 476              		.cfi_endproc
ARM GAS  /tmp/ccLuO05w.s 			page 17


 477              	.LFE149:
 478              		.size	efc_set_wait_state, .-efc_set_wait_state
 479 0012 00BF     		.section	.ramfunc
 480              		.align	1
 481              		.p2align 2,,3
 482              		.global	efc_perform_fcr
 483              		.syntax unified
 484              		.thumb
 485              		.thumb_func
 486              		.fpu fpv5-d16
 487              		.type	efc_perform_fcr, %function
 488              	efc_perform_fcr:
 489              	.LFB156:
 406:../asf/sam/drivers/efc/efc.c **** }
 407:../asf/sam/drivers/efc/efc.c **** 
 408:../asf/sam/drivers/efc/efc.c **** /**
 409:../asf/sam/drivers/efc/efc.c ****  * \brief Perform command.
 410:../asf/sam/drivers/efc/efc.c ****  *
 411:../asf/sam/drivers/efc/efc.c ****  * \param p_efc Pointer to an EFC instance.
 412:../asf/sam/drivers/efc/efc.c ****  * \param ul_fcr Flash command.
 413:../asf/sam/drivers/efc/efc.c ****  *
 414:../asf/sam/drivers/efc/efc.c ****  * \return The current status.
 415:../asf/sam/drivers/efc/efc.c ****  */
 416:../asf/sam/drivers/efc/efc.c **** __no_inline
 417:../asf/sam/drivers/efc/efc.c **** RAMFUNC
 418:../asf/sam/drivers/efc/efc.c **** uint32_t efc_perform_fcr(Efc *p_efc, uint32_t ul_fcr)
 419:../asf/sam/drivers/efc/efc.c **** {
 490              		.loc 1 419 0
 491              		.cfi_startproc
 492              		@ args = 0, pretend = 0, frame = 8
 493              		@ frame_needed = 0, uses_anonymous_args = 0
 494              		@ link register save eliminated.
 495              	.LVL46:
 496 006c 82B0     		sub	sp, sp, #8
 497              		.cfi_def_cfa_offset 8
 420:../asf/sam/drivers/efc/efc.c **** 	volatile uint32_t ul_status;
 421:../asf/sam/drivers/efc/efc.c **** 
 422:../asf/sam/drivers/efc/efc.c **** 	p_efc->EEFC_FCR = ul_fcr;
 498              		.loc 1 422 0
 499 006e 4160     		str	r1, [r0, #4]
 500              	.L35:
 423:../asf/sam/drivers/efc/efc.c **** 	do {
 424:../asf/sam/drivers/efc/efc.c **** 		ul_status = p_efc->EEFC_FSR;
 501              		.loc 1 424 0 discriminator 1
 502 0070 8368     		ldr	r3, [r0, #8]
 503 0072 0193     		str	r3, [sp, #4]
 425:../asf/sam/drivers/efc/efc.c **** 	} while ((ul_status & EEFC_FSR_FRDY) != EEFC_FSR_FRDY);
 504              		.loc 1 425 0 discriminator 1
 505 0074 019B     		ldr	r3, [sp, #4]
 506 0076 DB07     		lsls	r3, r3, #31
 507 0078 FAD5     		bpl	.L35
 426:../asf/sam/drivers/efc/efc.c **** 
 427:../asf/sam/drivers/efc/efc.c **** 	return (ul_status & EEFC_ERROR_FLAGS);
 508              		.loc 1 427 0
 509 007a 019B     		ldr	r3, [sp, #4]
 428:../asf/sam/drivers/efc/efc.c **** }
 510              		.loc 1 428 0
ARM GAS  /tmp/ccLuO05w.s 			page 18


 511 007c 0148     		ldr	r0, .L39
 512              	.LVL47:
 513 007e 1840     		ands	r0, r0, r3
 514 0080 02B0     		add	sp, sp, #8
 515              		.cfi_def_cfa_offset 0
 516              		@ sp needed
 517 0082 7047     		bx	lr
 518              	.L40:
 519              		.align	2
 520              	.L39:
 521 0084 0E000F00 		.word	983054
 522              		.cfi_endproc
 523              	.LFE156:
 524              		.size	efc_perform_fcr, .-efc_perform_fcr
 525              		.section	.text.efc_perform_command,"ax",%progbits
 526              		.align	1
 527              		.p2align 2,,3
 528              		.global	efc_perform_command
 529              		.syntax unified
 530              		.thumb
 531              		.thumb_func
 532              		.fpu fpv5-d16
 533              		.type	efc_perform_command, %function
 534              	efc_perform_command:
 535              	.LFB151:
 268:../asf/sam/drivers/efc/efc.c **** 	uint32_t result;
 536              		.loc 1 268 0
 537              		.cfi_startproc
 538              		@ args = 0, pretend = 0, frame = 0
 539              		@ frame_needed = 0, uses_anonymous_args = 0
 540              	.LVL48:
 273:../asf/sam/drivers/efc/efc.c **** 		return EFC_RC_NOT_SUPPORT;
 541              		.loc 1 273 0
 542 0000 A1F10E03 		sub	r3, r1, #14
 543 0004 012B     		cmp	r3, #1
 544 0006 02D8     		bhi	.L48
 274:../asf/sam/drivers/efc/efc.c **** 	}
 545              		.loc 1 274 0
 546 0008 4FF0FF30 		mov	r0, #-1
 547              	.LVL49:
 548 000c 7047     		bx	lr
 549              	.LVL50:
 550              	.L48:
 268:../asf/sam/drivers/efc/efc.c **** 	uint32_t result;
 551              		.loc 1 268 0
 552 000e 70B5     		push	{r4, r5, r6, lr}
 553              		.cfi_def_cfa_offset 16
 554              		.cfi_offset 4, -16
 555              		.cfi_offset 5, -12
 556              		.cfi_offset 6, -8
 557              		.cfi_offset 14, -4
 558              	.LBB32:
 559              	.LBB33:
 560              	.LBB34:
 561              	.LBB35:
 562              		.file 2 "/home/torbjorn/eclipse-workspace/CoreNG/asf/thirdparty/CMSIS/Include/core_cmFunc.h"
   1:/home/torbjorn/eclipse-workspace/CoreNG/asf/thirdparty/CMSIS/Include/core_cmFunc.h **** /**************************************************************************//**
ARM GAS  /tmp/ccLuO05w.s 			page 19


   2:/home/torbjorn/eclipse-workspace/CoreNG/asf/thirdparty/CMSIS/Include/core_cmFunc.h ****  * @file     core_cmFunc.h
   3:/home/torbjorn/eclipse-workspace/CoreNG/asf/thirdparty/CMSIS/Include/core_cmFunc.h ****  * @brief    CMSIS Cortex-M Core Function Access Header File
   4:/home/torbjorn/eclipse-workspace/CoreNG/asf/thirdparty/CMSIS/Include/core_cmFunc.h ****  * @version  V4.00
   5:/home/torbjorn/eclipse-workspace/CoreNG/asf/thirdparty/CMSIS/Include/core_cmFunc.h ****  * @date     28. August 2014
   6:/home/torbjorn/eclipse-workspace/CoreNG/asf/thirdparty/CMSIS/Include/core_cmFunc.h ****  *
   7:/home/torbjorn/eclipse-workspace/CoreNG/asf/thirdparty/CMSIS/Include/core_cmFunc.h ****  * @note
   8:/home/torbjorn/eclipse-workspace/CoreNG/asf/thirdparty/CMSIS/Include/core_cmFunc.h ****  *
   9:/home/torbjorn/eclipse-workspace/CoreNG/asf/thirdparty/CMSIS/Include/core_cmFunc.h ****  ******************************************************************************/
  10:/home/torbjorn/eclipse-workspace/CoreNG/asf/thirdparty/CMSIS/Include/core_cmFunc.h **** /* Copyright (c) 2009 - 2014 ARM LIMITED
  11:/home/torbjorn/eclipse-workspace/CoreNG/asf/thirdparty/CMSIS/Include/core_cmFunc.h **** 
  12:/home/torbjorn/eclipse-workspace/CoreNG/asf/thirdparty/CMSIS/Include/core_cmFunc.h ****    All rights reserved.
  13:/home/torbjorn/eclipse-workspace/CoreNG/asf/thirdparty/CMSIS/Include/core_cmFunc.h ****    Redistribution and use in source and binary forms, with or without
  14:/home/torbjorn/eclipse-workspace/CoreNG/asf/thirdparty/CMSIS/Include/core_cmFunc.h ****    modification, are permitted provided that the following conditions are met:
  15:/home/torbjorn/eclipse-workspace/CoreNG/asf/thirdparty/CMSIS/Include/core_cmFunc.h ****    - Redistributions of source code must retain the above copyright
  16:/home/torbjorn/eclipse-workspace/CoreNG/asf/thirdparty/CMSIS/Include/core_cmFunc.h ****      notice, this list of conditions and the following disclaimer.
  17:/home/torbjorn/eclipse-workspace/CoreNG/asf/thirdparty/CMSIS/Include/core_cmFunc.h ****    - Redistributions in binary form must reproduce the above copyright
  18:/home/torbjorn/eclipse-workspace/CoreNG/asf/thirdparty/CMSIS/Include/core_cmFunc.h ****      notice, this list of conditions and the following disclaimer in the
  19:/home/torbjorn/eclipse-workspace/CoreNG/asf/thirdparty/CMSIS/Include/core_cmFunc.h ****      documentation and/or other materials provided with the distribution.
  20:/home/torbjorn/eclipse-workspace/CoreNG/asf/thirdparty/CMSIS/Include/core_cmFunc.h ****    - Neither the name of ARM nor the names of its contributors may be used
  21:/home/torbjorn/eclipse-workspace/CoreNG/asf/thirdparty/CMSIS/Include/core_cmFunc.h ****      to endorse or promote products derived from this software without
  22:/home/torbjorn/eclipse-workspace/CoreNG/asf/thirdparty/CMSIS/Include/core_cmFunc.h ****      specific prior written permission.
  23:/home/torbjorn/eclipse-workspace/CoreNG/asf/thirdparty/CMSIS/Include/core_cmFunc.h ****    *
  24:/home/torbjorn/eclipse-workspace/CoreNG/asf/thirdparty/CMSIS/Include/core_cmFunc.h ****    THIS SOFTWARE IS PROVIDED BY THE COPYRIGHT HOLDERS AND CONTRIBUTORS "AS IS"
  25:/home/torbjorn/eclipse-workspace/CoreNG/asf/thirdparty/CMSIS/Include/core_cmFunc.h ****    AND ANY EXPRESS OR IMPLIED WARRANTIES, INCLUDING, BUT NOT LIMITED TO, THE
  26:/home/torbjorn/eclipse-workspace/CoreNG/asf/thirdparty/CMSIS/Include/core_cmFunc.h ****    IMPLIED WARRANTIES OF MERCHANTABILITY AND FITNESS FOR A PARTICULAR PURPOSE
  27:/home/torbjorn/eclipse-workspace/CoreNG/asf/thirdparty/CMSIS/Include/core_cmFunc.h ****    ARE DISCLAIMED. IN NO EVENT SHALL COPYRIGHT HOLDERS AND CONTRIBUTORS BE
  28:/home/torbjorn/eclipse-workspace/CoreNG/asf/thirdparty/CMSIS/Include/core_cmFunc.h ****    LIABLE FOR ANY DIRECT, INDIRECT, INCIDENTAL, SPECIAL, EXEMPLARY, OR
  29:/home/torbjorn/eclipse-workspace/CoreNG/asf/thirdparty/CMSIS/Include/core_cmFunc.h ****    CONSEQUENTIAL DAMAGES (INCLUDING, BUT NOT LIMITED TO, PROCUREMENT OF
  30:/home/torbjorn/eclipse-workspace/CoreNG/asf/thirdparty/CMSIS/Include/core_cmFunc.h ****    SUBSTITUTE GOODS OR SERVICES; LOSS OF USE, DATA, OR PROFITS; OR BUSINESS
  31:/home/torbjorn/eclipse-workspace/CoreNG/asf/thirdparty/CMSIS/Include/core_cmFunc.h ****    INTERRUPTION) HOWEVER CAUSED AND ON ANY THEORY OF LIABILITY, WHETHER IN
  32:/home/torbjorn/eclipse-workspace/CoreNG/asf/thirdparty/CMSIS/Include/core_cmFunc.h ****    CONTRACT, STRICT LIABILITY, OR TORT (INCLUDING NEGLIGENCE OR OTHERWISE)
  33:/home/torbjorn/eclipse-workspace/CoreNG/asf/thirdparty/CMSIS/Include/core_cmFunc.h ****    ARISING IN ANY WAY OUT OF THE USE OF THIS SOFTWARE, EVEN IF ADVISED OF THE
  34:/home/torbjorn/eclipse-workspace/CoreNG/asf/thirdparty/CMSIS/Include/core_cmFunc.h ****    POSSIBILITY OF SUCH DAMAGE.
  35:/home/torbjorn/eclipse-workspace/CoreNG/asf/thirdparty/CMSIS/Include/core_cmFunc.h ****    ---------------------------------------------------------------------------*/
  36:/home/torbjorn/eclipse-workspace/CoreNG/asf/thirdparty/CMSIS/Include/core_cmFunc.h **** 
  37:/home/torbjorn/eclipse-workspace/CoreNG/asf/thirdparty/CMSIS/Include/core_cmFunc.h **** 
  38:/home/torbjorn/eclipse-workspace/CoreNG/asf/thirdparty/CMSIS/Include/core_cmFunc.h **** #ifndef __CORE_CMFUNC_H
  39:/home/torbjorn/eclipse-workspace/CoreNG/asf/thirdparty/CMSIS/Include/core_cmFunc.h **** #define __CORE_CMFUNC_H
  40:/home/torbjorn/eclipse-workspace/CoreNG/asf/thirdparty/CMSIS/Include/core_cmFunc.h **** 
  41:/home/torbjorn/eclipse-workspace/CoreNG/asf/thirdparty/CMSIS/Include/core_cmFunc.h **** 
  42:/home/torbjorn/eclipse-workspace/CoreNG/asf/thirdparty/CMSIS/Include/core_cmFunc.h **** /* ###########################  Core Function Access  ########################### */
  43:/home/torbjorn/eclipse-workspace/CoreNG/asf/thirdparty/CMSIS/Include/core_cmFunc.h **** /** \ingroup  CMSIS_Core_FunctionInterface
  44:/home/torbjorn/eclipse-workspace/CoreNG/asf/thirdparty/CMSIS/Include/core_cmFunc.h ****     \defgroup CMSIS_Core_RegAccFunctions CMSIS Core Register Access Functions
  45:/home/torbjorn/eclipse-workspace/CoreNG/asf/thirdparty/CMSIS/Include/core_cmFunc.h ****   @{
  46:/home/torbjorn/eclipse-workspace/CoreNG/asf/thirdparty/CMSIS/Include/core_cmFunc.h ****  */
  47:/home/torbjorn/eclipse-workspace/CoreNG/asf/thirdparty/CMSIS/Include/core_cmFunc.h **** 
  48:/home/torbjorn/eclipse-workspace/CoreNG/asf/thirdparty/CMSIS/Include/core_cmFunc.h **** #if   defined ( __CC_ARM ) /*------------------RealView Compiler -----------------*/
  49:/home/torbjorn/eclipse-workspace/CoreNG/asf/thirdparty/CMSIS/Include/core_cmFunc.h **** /* ARM armcc specific functions */
  50:/home/torbjorn/eclipse-workspace/CoreNG/asf/thirdparty/CMSIS/Include/core_cmFunc.h **** 
  51:/home/torbjorn/eclipse-workspace/CoreNG/asf/thirdparty/CMSIS/Include/core_cmFunc.h **** #if (__ARMCC_VERSION < 400677)
  52:/home/torbjorn/eclipse-workspace/CoreNG/asf/thirdparty/CMSIS/Include/core_cmFunc.h ****   #error "Please use ARM Compiler Toolchain V4.0.677 or later!"
  53:/home/torbjorn/eclipse-workspace/CoreNG/asf/thirdparty/CMSIS/Include/core_cmFunc.h **** #endif
  54:/home/torbjorn/eclipse-workspace/CoreNG/asf/thirdparty/CMSIS/Include/core_cmFunc.h **** 
  55:/home/torbjorn/eclipse-workspace/CoreNG/asf/thirdparty/CMSIS/Include/core_cmFunc.h **** /* intrinsic void __enable_irq();     */
  56:/home/torbjorn/eclipse-workspace/CoreNG/asf/thirdparty/CMSIS/Include/core_cmFunc.h **** /* intrinsic void __disable_irq();    */
  57:/home/torbjorn/eclipse-workspace/CoreNG/asf/thirdparty/CMSIS/Include/core_cmFunc.h **** 
  58:/home/torbjorn/eclipse-workspace/CoreNG/asf/thirdparty/CMSIS/Include/core_cmFunc.h **** /** \brief  Get Control Register
ARM GAS  /tmp/ccLuO05w.s 			page 20


  59:/home/torbjorn/eclipse-workspace/CoreNG/asf/thirdparty/CMSIS/Include/core_cmFunc.h **** 
  60:/home/torbjorn/eclipse-workspace/CoreNG/asf/thirdparty/CMSIS/Include/core_cmFunc.h ****     This function returns the content of the Control Register.
  61:/home/torbjorn/eclipse-workspace/CoreNG/asf/thirdparty/CMSIS/Include/core_cmFunc.h **** 
  62:/home/torbjorn/eclipse-workspace/CoreNG/asf/thirdparty/CMSIS/Include/core_cmFunc.h ****     \return               Control Register value
  63:/home/torbjorn/eclipse-workspace/CoreNG/asf/thirdparty/CMSIS/Include/core_cmFunc.h ****  */
  64:/home/torbjorn/eclipse-workspace/CoreNG/asf/thirdparty/CMSIS/Include/core_cmFunc.h **** __STATIC_INLINE uint32_t __get_CONTROL(void)
  65:/home/torbjorn/eclipse-workspace/CoreNG/asf/thirdparty/CMSIS/Include/core_cmFunc.h **** {
  66:/home/torbjorn/eclipse-workspace/CoreNG/asf/thirdparty/CMSIS/Include/core_cmFunc.h ****   register uint32_t __regControl         __ASM("control");
  67:/home/torbjorn/eclipse-workspace/CoreNG/asf/thirdparty/CMSIS/Include/core_cmFunc.h ****   return(__regControl);
  68:/home/torbjorn/eclipse-workspace/CoreNG/asf/thirdparty/CMSIS/Include/core_cmFunc.h **** }
  69:/home/torbjorn/eclipse-workspace/CoreNG/asf/thirdparty/CMSIS/Include/core_cmFunc.h **** 
  70:/home/torbjorn/eclipse-workspace/CoreNG/asf/thirdparty/CMSIS/Include/core_cmFunc.h **** 
  71:/home/torbjorn/eclipse-workspace/CoreNG/asf/thirdparty/CMSIS/Include/core_cmFunc.h **** /** \brief  Set Control Register
  72:/home/torbjorn/eclipse-workspace/CoreNG/asf/thirdparty/CMSIS/Include/core_cmFunc.h **** 
  73:/home/torbjorn/eclipse-workspace/CoreNG/asf/thirdparty/CMSIS/Include/core_cmFunc.h ****     This function writes the given value to the Control Register.
  74:/home/torbjorn/eclipse-workspace/CoreNG/asf/thirdparty/CMSIS/Include/core_cmFunc.h **** 
  75:/home/torbjorn/eclipse-workspace/CoreNG/asf/thirdparty/CMSIS/Include/core_cmFunc.h ****     \param [in]    control  Control Register value to set
  76:/home/torbjorn/eclipse-workspace/CoreNG/asf/thirdparty/CMSIS/Include/core_cmFunc.h ****  */
  77:/home/torbjorn/eclipse-workspace/CoreNG/asf/thirdparty/CMSIS/Include/core_cmFunc.h **** __STATIC_INLINE void __set_CONTROL(uint32_t control)
  78:/home/torbjorn/eclipse-workspace/CoreNG/asf/thirdparty/CMSIS/Include/core_cmFunc.h **** {
  79:/home/torbjorn/eclipse-workspace/CoreNG/asf/thirdparty/CMSIS/Include/core_cmFunc.h ****   register uint32_t __regControl         __ASM("control");
  80:/home/torbjorn/eclipse-workspace/CoreNG/asf/thirdparty/CMSIS/Include/core_cmFunc.h ****   __regControl = control;
  81:/home/torbjorn/eclipse-workspace/CoreNG/asf/thirdparty/CMSIS/Include/core_cmFunc.h **** }
  82:/home/torbjorn/eclipse-workspace/CoreNG/asf/thirdparty/CMSIS/Include/core_cmFunc.h **** 
  83:/home/torbjorn/eclipse-workspace/CoreNG/asf/thirdparty/CMSIS/Include/core_cmFunc.h **** 
  84:/home/torbjorn/eclipse-workspace/CoreNG/asf/thirdparty/CMSIS/Include/core_cmFunc.h **** /** \brief  Get IPSR Register
  85:/home/torbjorn/eclipse-workspace/CoreNG/asf/thirdparty/CMSIS/Include/core_cmFunc.h **** 
  86:/home/torbjorn/eclipse-workspace/CoreNG/asf/thirdparty/CMSIS/Include/core_cmFunc.h ****     This function returns the content of the IPSR Register.
  87:/home/torbjorn/eclipse-workspace/CoreNG/asf/thirdparty/CMSIS/Include/core_cmFunc.h **** 
  88:/home/torbjorn/eclipse-workspace/CoreNG/asf/thirdparty/CMSIS/Include/core_cmFunc.h ****     \return               IPSR Register value
  89:/home/torbjorn/eclipse-workspace/CoreNG/asf/thirdparty/CMSIS/Include/core_cmFunc.h ****  */
  90:/home/torbjorn/eclipse-workspace/CoreNG/asf/thirdparty/CMSIS/Include/core_cmFunc.h **** __STATIC_INLINE uint32_t __get_IPSR(void)
  91:/home/torbjorn/eclipse-workspace/CoreNG/asf/thirdparty/CMSIS/Include/core_cmFunc.h **** {
  92:/home/torbjorn/eclipse-workspace/CoreNG/asf/thirdparty/CMSIS/Include/core_cmFunc.h ****   register uint32_t __regIPSR          __ASM("ipsr");
  93:/home/torbjorn/eclipse-workspace/CoreNG/asf/thirdparty/CMSIS/Include/core_cmFunc.h ****   return(__regIPSR);
  94:/home/torbjorn/eclipse-workspace/CoreNG/asf/thirdparty/CMSIS/Include/core_cmFunc.h **** }
  95:/home/torbjorn/eclipse-workspace/CoreNG/asf/thirdparty/CMSIS/Include/core_cmFunc.h **** 
  96:/home/torbjorn/eclipse-workspace/CoreNG/asf/thirdparty/CMSIS/Include/core_cmFunc.h **** 
  97:/home/torbjorn/eclipse-workspace/CoreNG/asf/thirdparty/CMSIS/Include/core_cmFunc.h **** /** \brief  Get APSR Register
  98:/home/torbjorn/eclipse-workspace/CoreNG/asf/thirdparty/CMSIS/Include/core_cmFunc.h **** 
  99:/home/torbjorn/eclipse-workspace/CoreNG/asf/thirdparty/CMSIS/Include/core_cmFunc.h ****     This function returns the content of the APSR Register.
 100:/home/torbjorn/eclipse-workspace/CoreNG/asf/thirdparty/CMSIS/Include/core_cmFunc.h **** 
 101:/home/torbjorn/eclipse-workspace/CoreNG/asf/thirdparty/CMSIS/Include/core_cmFunc.h ****     \return               APSR Register value
 102:/home/torbjorn/eclipse-workspace/CoreNG/asf/thirdparty/CMSIS/Include/core_cmFunc.h ****  */
 103:/home/torbjorn/eclipse-workspace/CoreNG/asf/thirdparty/CMSIS/Include/core_cmFunc.h **** __STATIC_INLINE uint32_t __get_APSR(void)
 104:/home/torbjorn/eclipse-workspace/CoreNG/asf/thirdparty/CMSIS/Include/core_cmFunc.h **** {
 105:/home/torbjorn/eclipse-workspace/CoreNG/asf/thirdparty/CMSIS/Include/core_cmFunc.h ****   register uint32_t __regAPSR          __ASM("apsr");
 106:/home/torbjorn/eclipse-workspace/CoreNG/asf/thirdparty/CMSIS/Include/core_cmFunc.h ****   return(__regAPSR);
 107:/home/torbjorn/eclipse-workspace/CoreNG/asf/thirdparty/CMSIS/Include/core_cmFunc.h **** }
 108:/home/torbjorn/eclipse-workspace/CoreNG/asf/thirdparty/CMSIS/Include/core_cmFunc.h **** 
 109:/home/torbjorn/eclipse-workspace/CoreNG/asf/thirdparty/CMSIS/Include/core_cmFunc.h **** 
 110:/home/torbjorn/eclipse-workspace/CoreNG/asf/thirdparty/CMSIS/Include/core_cmFunc.h **** /** \brief  Get xPSR Register
 111:/home/torbjorn/eclipse-workspace/CoreNG/asf/thirdparty/CMSIS/Include/core_cmFunc.h **** 
 112:/home/torbjorn/eclipse-workspace/CoreNG/asf/thirdparty/CMSIS/Include/core_cmFunc.h ****     This function returns the content of the xPSR Register.
 113:/home/torbjorn/eclipse-workspace/CoreNG/asf/thirdparty/CMSIS/Include/core_cmFunc.h **** 
 114:/home/torbjorn/eclipse-workspace/CoreNG/asf/thirdparty/CMSIS/Include/core_cmFunc.h ****     \return               xPSR Register value
 115:/home/torbjorn/eclipse-workspace/CoreNG/asf/thirdparty/CMSIS/Include/core_cmFunc.h ****  */
ARM GAS  /tmp/ccLuO05w.s 			page 21


 116:/home/torbjorn/eclipse-workspace/CoreNG/asf/thirdparty/CMSIS/Include/core_cmFunc.h **** __STATIC_INLINE uint32_t __get_xPSR(void)
 117:/home/torbjorn/eclipse-workspace/CoreNG/asf/thirdparty/CMSIS/Include/core_cmFunc.h **** {
 118:/home/torbjorn/eclipse-workspace/CoreNG/asf/thirdparty/CMSIS/Include/core_cmFunc.h ****   register uint32_t __regXPSR          __ASM("xpsr");
 119:/home/torbjorn/eclipse-workspace/CoreNG/asf/thirdparty/CMSIS/Include/core_cmFunc.h ****   return(__regXPSR);
 120:/home/torbjorn/eclipse-workspace/CoreNG/asf/thirdparty/CMSIS/Include/core_cmFunc.h **** }
 121:/home/torbjorn/eclipse-workspace/CoreNG/asf/thirdparty/CMSIS/Include/core_cmFunc.h **** 
 122:/home/torbjorn/eclipse-workspace/CoreNG/asf/thirdparty/CMSIS/Include/core_cmFunc.h **** 
 123:/home/torbjorn/eclipse-workspace/CoreNG/asf/thirdparty/CMSIS/Include/core_cmFunc.h **** /** \brief  Get Process Stack Pointer
 124:/home/torbjorn/eclipse-workspace/CoreNG/asf/thirdparty/CMSIS/Include/core_cmFunc.h **** 
 125:/home/torbjorn/eclipse-workspace/CoreNG/asf/thirdparty/CMSIS/Include/core_cmFunc.h ****     This function returns the current value of the Process Stack Pointer (PSP).
 126:/home/torbjorn/eclipse-workspace/CoreNG/asf/thirdparty/CMSIS/Include/core_cmFunc.h **** 
 127:/home/torbjorn/eclipse-workspace/CoreNG/asf/thirdparty/CMSIS/Include/core_cmFunc.h ****     \return               PSP Register value
 128:/home/torbjorn/eclipse-workspace/CoreNG/asf/thirdparty/CMSIS/Include/core_cmFunc.h ****  */
 129:/home/torbjorn/eclipse-workspace/CoreNG/asf/thirdparty/CMSIS/Include/core_cmFunc.h **** __STATIC_INLINE uint32_t __get_PSP(void)
 130:/home/torbjorn/eclipse-workspace/CoreNG/asf/thirdparty/CMSIS/Include/core_cmFunc.h **** {
 131:/home/torbjorn/eclipse-workspace/CoreNG/asf/thirdparty/CMSIS/Include/core_cmFunc.h ****   register uint32_t __regProcessStackPointer  __ASM("psp");
 132:/home/torbjorn/eclipse-workspace/CoreNG/asf/thirdparty/CMSIS/Include/core_cmFunc.h ****   return(__regProcessStackPointer);
 133:/home/torbjorn/eclipse-workspace/CoreNG/asf/thirdparty/CMSIS/Include/core_cmFunc.h **** }
 134:/home/torbjorn/eclipse-workspace/CoreNG/asf/thirdparty/CMSIS/Include/core_cmFunc.h **** 
 135:/home/torbjorn/eclipse-workspace/CoreNG/asf/thirdparty/CMSIS/Include/core_cmFunc.h **** 
 136:/home/torbjorn/eclipse-workspace/CoreNG/asf/thirdparty/CMSIS/Include/core_cmFunc.h **** /** \brief  Set Process Stack Pointer
 137:/home/torbjorn/eclipse-workspace/CoreNG/asf/thirdparty/CMSIS/Include/core_cmFunc.h **** 
 138:/home/torbjorn/eclipse-workspace/CoreNG/asf/thirdparty/CMSIS/Include/core_cmFunc.h ****     This function assigns the given value to the Process Stack Pointer (PSP).
 139:/home/torbjorn/eclipse-workspace/CoreNG/asf/thirdparty/CMSIS/Include/core_cmFunc.h **** 
 140:/home/torbjorn/eclipse-workspace/CoreNG/asf/thirdparty/CMSIS/Include/core_cmFunc.h ****     \param [in]    topOfProcStack  Process Stack Pointer value to set
 141:/home/torbjorn/eclipse-workspace/CoreNG/asf/thirdparty/CMSIS/Include/core_cmFunc.h ****  */
 142:/home/torbjorn/eclipse-workspace/CoreNG/asf/thirdparty/CMSIS/Include/core_cmFunc.h **** __STATIC_INLINE void __set_PSP(uint32_t topOfProcStack)
 143:/home/torbjorn/eclipse-workspace/CoreNG/asf/thirdparty/CMSIS/Include/core_cmFunc.h **** {
 144:/home/torbjorn/eclipse-workspace/CoreNG/asf/thirdparty/CMSIS/Include/core_cmFunc.h ****   register uint32_t __regProcessStackPointer  __ASM("psp");
 145:/home/torbjorn/eclipse-workspace/CoreNG/asf/thirdparty/CMSIS/Include/core_cmFunc.h ****   __regProcessStackPointer = topOfProcStack;
 146:/home/torbjorn/eclipse-workspace/CoreNG/asf/thirdparty/CMSIS/Include/core_cmFunc.h **** }
 147:/home/torbjorn/eclipse-workspace/CoreNG/asf/thirdparty/CMSIS/Include/core_cmFunc.h **** 
 148:/home/torbjorn/eclipse-workspace/CoreNG/asf/thirdparty/CMSIS/Include/core_cmFunc.h **** 
 149:/home/torbjorn/eclipse-workspace/CoreNG/asf/thirdparty/CMSIS/Include/core_cmFunc.h **** /** \brief  Get Main Stack Pointer
 150:/home/torbjorn/eclipse-workspace/CoreNG/asf/thirdparty/CMSIS/Include/core_cmFunc.h **** 
 151:/home/torbjorn/eclipse-workspace/CoreNG/asf/thirdparty/CMSIS/Include/core_cmFunc.h ****     This function returns the current value of the Main Stack Pointer (MSP).
 152:/home/torbjorn/eclipse-workspace/CoreNG/asf/thirdparty/CMSIS/Include/core_cmFunc.h **** 
 153:/home/torbjorn/eclipse-workspace/CoreNG/asf/thirdparty/CMSIS/Include/core_cmFunc.h ****     \return               MSP Register value
 154:/home/torbjorn/eclipse-workspace/CoreNG/asf/thirdparty/CMSIS/Include/core_cmFunc.h ****  */
 155:/home/torbjorn/eclipse-workspace/CoreNG/asf/thirdparty/CMSIS/Include/core_cmFunc.h **** __STATIC_INLINE uint32_t __get_MSP(void)
 156:/home/torbjorn/eclipse-workspace/CoreNG/asf/thirdparty/CMSIS/Include/core_cmFunc.h **** {
 157:/home/torbjorn/eclipse-workspace/CoreNG/asf/thirdparty/CMSIS/Include/core_cmFunc.h ****   register uint32_t __regMainStackPointer     __ASM("msp");
 158:/home/torbjorn/eclipse-workspace/CoreNG/asf/thirdparty/CMSIS/Include/core_cmFunc.h ****   return(__regMainStackPointer);
 159:/home/torbjorn/eclipse-workspace/CoreNG/asf/thirdparty/CMSIS/Include/core_cmFunc.h **** }
 160:/home/torbjorn/eclipse-workspace/CoreNG/asf/thirdparty/CMSIS/Include/core_cmFunc.h **** 
 161:/home/torbjorn/eclipse-workspace/CoreNG/asf/thirdparty/CMSIS/Include/core_cmFunc.h **** 
 162:/home/torbjorn/eclipse-workspace/CoreNG/asf/thirdparty/CMSIS/Include/core_cmFunc.h **** /** \brief  Set Main Stack Pointer
 163:/home/torbjorn/eclipse-workspace/CoreNG/asf/thirdparty/CMSIS/Include/core_cmFunc.h **** 
 164:/home/torbjorn/eclipse-workspace/CoreNG/asf/thirdparty/CMSIS/Include/core_cmFunc.h ****     This function assigns the given value to the Main Stack Pointer (MSP).
 165:/home/torbjorn/eclipse-workspace/CoreNG/asf/thirdparty/CMSIS/Include/core_cmFunc.h **** 
 166:/home/torbjorn/eclipse-workspace/CoreNG/asf/thirdparty/CMSIS/Include/core_cmFunc.h ****     \param [in]    topOfMainStack  Main Stack Pointer value to set
 167:/home/torbjorn/eclipse-workspace/CoreNG/asf/thirdparty/CMSIS/Include/core_cmFunc.h ****  */
 168:/home/torbjorn/eclipse-workspace/CoreNG/asf/thirdparty/CMSIS/Include/core_cmFunc.h **** __STATIC_INLINE void __set_MSP(uint32_t topOfMainStack)
 169:/home/torbjorn/eclipse-workspace/CoreNG/asf/thirdparty/CMSIS/Include/core_cmFunc.h **** {
 170:/home/torbjorn/eclipse-workspace/CoreNG/asf/thirdparty/CMSIS/Include/core_cmFunc.h ****   register uint32_t __regMainStackPointer     __ASM("msp");
 171:/home/torbjorn/eclipse-workspace/CoreNG/asf/thirdparty/CMSIS/Include/core_cmFunc.h ****   __regMainStackPointer = topOfMainStack;
 172:/home/torbjorn/eclipse-workspace/CoreNG/asf/thirdparty/CMSIS/Include/core_cmFunc.h **** }
ARM GAS  /tmp/ccLuO05w.s 			page 22


 173:/home/torbjorn/eclipse-workspace/CoreNG/asf/thirdparty/CMSIS/Include/core_cmFunc.h **** 
 174:/home/torbjorn/eclipse-workspace/CoreNG/asf/thirdparty/CMSIS/Include/core_cmFunc.h **** 
 175:/home/torbjorn/eclipse-workspace/CoreNG/asf/thirdparty/CMSIS/Include/core_cmFunc.h **** /** \brief  Get Priority Mask
 176:/home/torbjorn/eclipse-workspace/CoreNG/asf/thirdparty/CMSIS/Include/core_cmFunc.h **** 
 177:/home/torbjorn/eclipse-workspace/CoreNG/asf/thirdparty/CMSIS/Include/core_cmFunc.h ****     This function returns the current state of the priority mask bit from the Priority Mask Registe
 178:/home/torbjorn/eclipse-workspace/CoreNG/asf/thirdparty/CMSIS/Include/core_cmFunc.h **** 
 179:/home/torbjorn/eclipse-workspace/CoreNG/asf/thirdparty/CMSIS/Include/core_cmFunc.h ****     \return               Priority Mask value
 180:/home/torbjorn/eclipse-workspace/CoreNG/asf/thirdparty/CMSIS/Include/core_cmFunc.h ****  */
 181:/home/torbjorn/eclipse-workspace/CoreNG/asf/thirdparty/CMSIS/Include/core_cmFunc.h **** __STATIC_INLINE uint32_t __get_PRIMASK(void)
 182:/home/torbjorn/eclipse-workspace/CoreNG/asf/thirdparty/CMSIS/Include/core_cmFunc.h **** {
 183:/home/torbjorn/eclipse-workspace/CoreNG/asf/thirdparty/CMSIS/Include/core_cmFunc.h ****   register uint32_t __regPriMask         __ASM("primask");
 184:/home/torbjorn/eclipse-workspace/CoreNG/asf/thirdparty/CMSIS/Include/core_cmFunc.h ****   return(__regPriMask);
 185:/home/torbjorn/eclipse-workspace/CoreNG/asf/thirdparty/CMSIS/Include/core_cmFunc.h **** }
 186:/home/torbjorn/eclipse-workspace/CoreNG/asf/thirdparty/CMSIS/Include/core_cmFunc.h **** 
 187:/home/torbjorn/eclipse-workspace/CoreNG/asf/thirdparty/CMSIS/Include/core_cmFunc.h **** 
 188:/home/torbjorn/eclipse-workspace/CoreNG/asf/thirdparty/CMSIS/Include/core_cmFunc.h **** /** \brief  Set Priority Mask
 189:/home/torbjorn/eclipse-workspace/CoreNG/asf/thirdparty/CMSIS/Include/core_cmFunc.h **** 
 190:/home/torbjorn/eclipse-workspace/CoreNG/asf/thirdparty/CMSIS/Include/core_cmFunc.h ****     This function assigns the given value to the Priority Mask Register.
 191:/home/torbjorn/eclipse-workspace/CoreNG/asf/thirdparty/CMSIS/Include/core_cmFunc.h **** 
 192:/home/torbjorn/eclipse-workspace/CoreNG/asf/thirdparty/CMSIS/Include/core_cmFunc.h ****     \param [in]    priMask  Priority Mask
 193:/home/torbjorn/eclipse-workspace/CoreNG/asf/thirdparty/CMSIS/Include/core_cmFunc.h ****  */
 194:/home/torbjorn/eclipse-workspace/CoreNG/asf/thirdparty/CMSIS/Include/core_cmFunc.h **** __STATIC_INLINE void __set_PRIMASK(uint32_t priMask)
 195:/home/torbjorn/eclipse-workspace/CoreNG/asf/thirdparty/CMSIS/Include/core_cmFunc.h **** {
 196:/home/torbjorn/eclipse-workspace/CoreNG/asf/thirdparty/CMSIS/Include/core_cmFunc.h ****   register uint32_t __regPriMask         __ASM("primask");
 197:/home/torbjorn/eclipse-workspace/CoreNG/asf/thirdparty/CMSIS/Include/core_cmFunc.h ****   __regPriMask = (priMask);
 198:/home/torbjorn/eclipse-workspace/CoreNG/asf/thirdparty/CMSIS/Include/core_cmFunc.h **** }
 199:/home/torbjorn/eclipse-workspace/CoreNG/asf/thirdparty/CMSIS/Include/core_cmFunc.h **** 
 200:/home/torbjorn/eclipse-workspace/CoreNG/asf/thirdparty/CMSIS/Include/core_cmFunc.h **** 
 201:/home/torbjorn/eclipse-workspace/CoreNG/asf/thirdparty/CMSIS/Include/core_cmFunc.h **** #if       (__CORTEX_M >= 0x03) || (__CORTEX_SC >= 300)
 202:/home/torbjorn/eclipse-workspace/CoreNG/asf/thirdparty/CMSIS/Include/core_cmFunc.h **** 
 203:/home/torbjorn/eclipse-workspace/CoreNG/asf/thirdparty/CMSIS/Include/core_cmFunc.h **** /** \brief  Enable FIQ
 204:/home/torbjorn/eclipse-workspace/CoreNG/asf/thirdparty/CMSIS/Include/core_cmFunc.h **** 
 205:/home/torbjorn/eclipse-workspace/CoreNG/asf/thirdparty/CMSIS/Include/core_cmFunc.h ****     This function enables FIQ interrupts by clearing the F-bit in the CPSR.
 206:/home/torbjorn/eclipse-workspace/CoreNG/asf/thirdparty/CMSIS/Include/core_cmFunc.h ****     Can only be executed in Privileged modes.
 207:/home/torbjorn/eclipse-workspace/CoreNG/asf/thirdparty/CMSIS/Include/core_cmFunc.h ****  */
 208:/home/torbjorn/eclipse-workspace/CoreNG/asf/thirdparty/CMSIS/Include/core_cmFunc.h **** #define __enable_fault_irq                __enable_fiq
 209:/home/torbjorn/eclipse-workspace/CoreNG/asf/thirdparty/CMSIS/Include/core_cmFunc.h **** 
 210:/home/torbjorn/eclipse-workspace/CoreNG/asf/thirdparty/CMSIS/Include/core_cmFunc.h **** 
 211:/home/torbjorn/eclipse-workspace/CoreNG/asf/thirdparty/CMSIS/Include/core_cmFunc.h **** /** \brief  Disable FIQ
 212:/home/torbjorn/eclipse-workspace/CoreNG/asf/thirdparty/CMSIS/Include/core_cmFunc.h **** 
 213:/home/torbjorn/eclipse-workspace/CoreNG/asf/thirdparty/CMSIS/Include/core_cmFunc.h ****     This function disables FIQ interrupts by setting the F-bit in the CPSR.
 214:/home/torbjorn/eclipse-workspace/CoreNG/asf/thirdparty/CMSIS/Include/core_cmFunc.h ****     Can only be executed in Privileged modes.
 215:/home/torbjorn/eclipse-workspace/CoreNG/asf/thirdparty/CMSIS/Include/core_cmFunc.h ****  */
 216:/home/torbjorn/eclipse-workspace/CoreNG/asf/thirdparty/CMSIS/Include/core_cmFunc.h **** #define __disable_fault_irq               __disable_fiq
 217:/home/torbjorn/eclipse-workspace/CoreNG/asf/thirdparty/CMSIS/Include/core_cmFunc.h **** 
 218:/home/torbjorn/eclipse-workspace/CoreNG/asf/thirdparty/CMSIS/Include/core_cmFunc.h **** 
 219:/home/torbjorn/eclipse-workspace/CoreNG/asf/thirdparty/CMSIS/Include/core_cmFunc.h **** /** \brief  Get Base Priority
 220:/home/torbjorn/eclipse-workspace/CoreNG/asf/thirdparty/CMSIS/Include/core_cmFunc.h **** 
 221:/home/torbjorn/eclipse-workspace/CoreNG/asf/thirdparty/CMSIS/Include/core_cmFunc.h ****     This function returns the current value of the Base Priority register.
 222:/home/torbjorn/eclipse-workspace/CoreNG/asf/thirdparty/CMSIS/Include/core_cmFunc.h **** 
 223:/home/torbjorn/eclipse-workspace/CoreNG/asf/thirdparty/CMSIS/Include/core_cmFunc.h ****     \return               Base Priority register value
 224:/home/torbjorn/eclipse-workspace/CoreNG/asf/thirdparty/CMSIS/Include/core_cmFunc.h ****  */
 225:/home/torbjorn/eclipse-workspace/CoreNG/asf/thirdparty/CMSIS/Include/core_cmFunc.h **** __STATIC_INLINE uint32_t  __get_BASEPRI(void)
 226:/home/torbjorn/eclipse-workspace/CoreNG/asf/thirdparty/CMSIS/Include/core_cmFunc.h **** {
 227:/home/torbjorn/eclipse-workspace/CoreNG/asf/thirdparty/CMSIS/Include/core_cmFunc.h ****   register uint32_t __regBasePri         __ASM("basepri");
 228:/home/torbjorn/eclipse-workspace/CoreNG/asf/thirdparty/CMSIS/Include/core_cmFunc.h ****   return(__regBasePri);
 229:/home/torbjorn/eclipse-workspace/CoreNG/asf/thirdparty/CMSIS/Include/core_cmFunc.h **** }
ARM GAS  /tmp/ccLuO05w.s 			page 23


 230:/home/torbjorn/eclipse-workspace/CoreNG/asf/thirdparty/CMSIS/Include/core_cmFunc.h **** 
 231:/home/torbjorn/eclipse-workspace/CoreNG/asf/thirdparty/CMSIS/Include/core_cmFunc.h **** 
 232:/home/torbjorn/eclipse-workspace/CoreNG/asf/thirdparty/CMSIS/Include/core_cmFunc.h **** /** \brief  Set Base Priority
 233:/home/torbjorn/eclipse-workspace/CoreNG/asf/thirdparty/CMSIS/Include/core_cmFunc.h **** 
 234:/home/torbjorn/eclipse-workspace/CoreNG/asf/thirdparty/CMSIS/Include/core_cmFunc.h ****     This function assigns the given value to the Base Priority register.
 235:/home/torbjorn/eclipse-workspace/CoreNG/asf/thirdparty/CMSIS/Include/core_cmFunc.h **** 
 236:/home/torbjorn/eclipse-workspace/CoreNG/asf/thirdparty/CMSIS/Include/core_cmFunc.h ****     \param [in]    basePri  Base Priority value to set
 237:/home/torbjorn/eclipse-workspace/CoreNG/asf/thirdparty/CMSIS/Include/core_cmFunc.h ****  */
 238:/home/torbjorn/eclipse-workspace/CoreNG/asf/thirdparty/CMSIS/Include/core_cmFunc.h **** __STATIC_INLINE void __set_BASEPRI(uint32_t basePri)
 239:/home/torbjorn/eclipse-workspace/CoreNG/asf/thirdparty/CMSIS/Include/core_cmFunc.h **** {
 240:/home/torbjorn/eclipse-workspace/CoreNG/asf/thirdparty/CMSIS/Include/core_cmFunc.h ****   register uint32_t __regBasePri         __ASM("basepri");
 241:/home/torbjorn/eclipse-workspace/CoreNG/asf/thirdparty/CMSIS/Include/core_cmFunc.h ****   __regBasePri = (basePri & 0xff);
 242:/home/torbjorn/eclipse-workspace/CoreNG/asf/thirdparty/CMSIS/Include/core_cmFunc.h **** }
 243:/home/torbjorn/eclipse-workspace/CoreNG/asf/thirdparty/CMSIS/Include/core_cmFunc.h **** 
 244:/home/torbjorn/eclipse-workspace/CoreNG/asf/thirdparty/CMSIS/Include/core_cmFunc.h **** 
 245:/home/torbjorn/eclipse-workspace/CoreNG/asf/thirdparty/CMSIS/Include/core_cmFunc.h **** /** \brief  Get Fault Mask
 246:/home/torbjorn/eclipse-workspace/CoreNG/asf/thirdparty/CMSIS/Include/core_cmFunc.h **** 
 247:/home/torbjorn/eclipse-workspace/CoreNG/asf/thirdparty/CMSIS/Include/core_cmFunc.h ****     This function returns the current value of the Fault Mask register.
 248:/home/torbjorn/eclipse-workspace/CoreNG/asf/thirdparty/CMSIS/Include/core_cmFunc.h **** 
 249:/home/torbjorn/eclipse-workspace/CoreNG/asf/thirdparty/CMSIS/Include/core_cmFunc.h ****     \return               Fault Mask register value
 250:/home/torbjorn/eclipse-workspace/CoreNG/asf/thirdparty/CMSIS/Include/core_cmFunc.h ****  */
 251:/home/torbjorn/eclipse-workspace/CoreNG/asf/thirdparty/CMSIS/Include/core_cmFunc.h **** __STATIC_INLINE uint32_t __get_FAULTMASK(void)
 252:/home/torbjorn/eclipse-workspace/CoreNG/asf/thirdparty/CMSIS/Include/core_cmFunc.h **** {
 253:/home/torbjorn/eclipse-workspace/CoreNG/asf/thirdparty/CMSIS/Include/core_cmFunc.h ****   register uint32_t __regFaultMask       __ASM("faultmask");
 254:/home/torbjorn/eclipse-workspace/CoreNG/asf/thirdparty/CMSIS/Include/core_cmFunc.h ****   return(__regFaultMask);
 255:/home/torbjorn/eclipse-workspace/CoreNG/asf/thirdparty/CMSIS/Include/core_cmFunc.h **** }
 256:/home/torbjorn/eclipse-workspace/CoreNG/asf/thirdparty/CMSIS/Include/core_cmFunc.h **** 
 257:/home/torbjorn/eclipse-workspace/CoreNG/asf/thirdparty/CMSIS/Include/core_cmFunc.h **** 
 258:/home/torbjorn/eclipse-workspace/CoreNG/asf/thirdparty/CMSIS/Include/core_cmFunc.h **** /** \brief  Set Fault Mask
 259:/home/torbjorn/eclipse-workspace/CoreNG/asf/thirdparty/CMSIS/Include/core_cmFunc.h **** 
 260:/home/torbjorn/eclipse-workspace/CoreNG/asf/thirdparty/CMSIS/Include/core_cmFunc.h ****     This function assigns the given value to the Fault Mask register.
 261:/home/torbjorn/eclipse-workspace/CoreNG/asf/thirdparty/CMSIS/Include/core_cmFunc.h **** 
 262:/home/torbjorn/eclipse-workspace/CoreNG/asf/thirdparty/CMSIS/Include/core_cmFunc.h ****     \param [in]    faultMask  Fault Mask value to set
 263:/home/torbjorn/eclipse-workspace/CoreNG/asf/thirdparty/CMSIS/Include/core_cmFunc.h ****  */
 264:/home/torbjorn/eclipse-workspace/CoreNG/asf/thirdparty/CMSIS/Include/core_cmFunc.h **** __STATIC_INLINE void __set_FAULTMASK(uint32_t faultMask)
 265:/home/torbjorn/eclipse-workspace/CoreNG/asf/thirdparty/CMSIS/Include/core_cmFunc.h **** {
 266:/home/torbjorn/eclipse-workspace/CoreNG/asf/thirdparty/CMSIS/Include/core_cmFunc.h ****   register uint32_t __regFaultMask       __ASM("faultmask");
 267:/home/torbjorn/eclipse-workspace/CoreNG/asf/thirdparty/CMSIS/Include/core_cmFunc.h ****   __regFaultMask = (faultMask & (uint32_t)1);
 268:/home/torbjorn/eclipse-workspace/CoreNG/asf/thirdparty/CMSIS/Include/core_cmFunc.h **** }
 269:/home/torbjorn/eclipse-workspace/CoreNG/asf/thirdparty/CMSIS/Include/core_cmFunc.h **** 
 270:/home/torbjorn/eclipse-workspace/CoreNG/asf/thirdparty/CMSIS/Include/core_cmFunc.h **** #endif /* (__CORTEX_M >= 0x03) || (__CORTEX_SC >= 300) */
 271:/home/torbjorn/eclipse-workspace/CoreNG/asf/thirdparty/CMSIS/Include/core_cmFunc.h **** 
 272:/home/torbjorn/eclipse-workspace/CoreNG/asf/thirdparty/CMSIS/Include/core_cmFunc.h **** 
 273:/home/torbjorn/eclipse-workspace/CoreNG/asf/thirdparty/CMSIS/Include/core_cmFunc.h **** #if       (__CORTEX_M == 0x04) || (__CORTEX_M == 0x07)
 274:/home/torbjorn/eclipse-workspace/CoreNG/asf/thirdparty/CMSIS/Include/core_cmFunc.h **** 
 275:/home/torbjorn/eclipse-workspace/CoreNG/asf/thirdparty/CMSIS/Include/core_cmFunc.h **** /** \brief  Get FPSCR
 276:/home/torbjorn/eclipse-workspace/CoreNG/asf/thirdparty/CMSIS/Include/core_cmFunc.h **** 
 277:/home/torbjorn/eclipse-workspace/CoreNG/asf/thirdparty/CMSIS/Include/core_cmFunc.h ****     This function returns the current value of the Floating Point Status/Control register.
 278:/home/torbjorn/eclipse-workspace/CoreNG/asf/thirdparty/CMSIS/Include/core_cmFunc.h **** 
 279:/home/torbjorn/eclipse-workspace/CoreNG/asf/thirdparty/CMSIS/Include/core_cmFunc.h ****     \return               Floating Point Status/Control register value
 280:/home/torbjorn/eclipse-workspace/CoreNG/asf/thirdparty/CMSIS/Include/core_cmFunc.h ****  */
 281:/home/torbjorn/eclipse-workspace/CoreNG/asf/thirdparty/CMSIS/Include/core_cmFunc.h **** __STATIC_INLINE uint32_t __get_FPSCR(void)
 282:/home/torbjorn/eclipse-workspace/CoreNG/asf/thirdparty/CMSIS/Include/core_cmFunc.h **** {
 283:/home/torbjorn/eclipse-workspace/CoreNG/asf/thirdparty/CMSIS/Include/core_cmFunc.h **** #if (__FPU_PRESENT == 1) && (__FPU_USED == 1)
 284:/home/torbjorn/eclipse-workspace/CoreNG/asf/thirdparty/CMSIS/Include/core_cmFunc.h ****   register uint32_t __regfpscr         __ASM("fpscr");
 285:/home/torbjorn/eclipse-workspace/CoreNG/asf/thirdparty/CMSIS/Include/core_cmFunc.h ****   return(__regfpscr);
 286:/home/torbjorn/eclipse-workspace/CoreNG/asf/thirdparty/CMSIS/Include/core_cmFunc.h **** #else
ARM GAS  /tmp/ccLuO05w.s 			page 24


 287:/home/torbjorn/eclipse-workspace/CoreNG/asf/thirdparty/CMSIS/Include/core_cmFunc.h ****    return(0);
 288:/home/torbjorn/eclipse-workspace/CoreNG/asf/thirdparty/CMSIS/Include/core_cmFunc.h **** #endif
 289:/home/torbjorn/eclipse-workspace/CoreNG/asf/thirdparty/CMSIS/Include/core_cmFunc.h **** }
 290:/home/torbjorn/eclipse-workspace/CoreNG/asf/thirdparty/CMSIS/Include/core_cmFunc.h **** 
 291:/home/torbjorn/eclipse-workspace/CoreNG/asf/thirdparty/CMSIS/Include/core_cmFunc.h **** 
 292:/home/torbjorn/eclipse-workspace/CoreNG/asf/thirdparty/CMSIS/Include/core_cmFunc.h **** /** \brief  Set FPSCR
 293:/home/torbjorn/eclipse-workspace/CoreNG/asf/thirdparty/CMSIS/Include/core_cmFunc.h **** 
 294:/home/torbjorn/eclipse-workspace/CoreNG/asf/thirdparty/CMSIS/Include/core_cmFunc.h ****     This function assigns the given value to the Floating Point Status/Control register.
 295:/home/torbjorn/eclipse-workspace/CoreNG/asf/thirdparty/CMSIS/Include/core_cmFunc.h **** 
 296:/home/torbjorn/eclipse-workspace/CoreNG/asf/thirdparty/CMSIS/Include/core_cmFunc.h ****     \param [in]    fpscr  Floating Point Status/Control value to set
 297:/home/torbjorn/eclipse-workspace/CoreNG/asf/thirdparty/CMSIS/Include/core_cmFunc.h ****  */
 298:/home/torbjorn/eclipse-workspace/CoreNG/asf/thirdparty/CMSIS/Include/core_cmFunc.h **** __STATIC_INLINE void __set_FPSCR(uint32_t fpscr)
 299:/home/torbjorn/eclipse-workspace/CoreNG/asf/thirdparty/CMSIS/Include/core_cmFunc.h **** {
 300:/home/torbjorn/eclipse-workspace/CoreNG/asf/thirdparty/CMSIS/Include/core_cmFunc.h **** #if (__FPU_PRESENT == 1) && (__FPU_USED == 1)
 301:/home/torbjorn/eclipse-workspace/CoreNG/asf/thirdparty/CMSIS/Include/core_cmFunc.h ****   register uint32_t __regfpscr         __ASM("fpscr");
 302:/home/torbjorn/eclipse-workspace/CoreNG/asf/thirdparty/CMSIS/Include/core_cmFunc.h ****   __regfpscr = (fpscr);
 303:/home/torbjorn/eclipse-workspace/CoreNG/asf/thirdparty/CMSIS/Include/core_cmFunc.h **** #endif
 304:/home/torbjorn/eclipse-workspace/CoreNG/asf/thirdparty/CMSIS/Include/core_cmFunc.h **** }
 305:/home/torbjorn/eclipse-workspace/CoreNG/asf/thirdparty/CMSIS/Include/core_cmFunc.h **** 
 306:/home/torbjorn/eclipse-workspace/CoreNG/asf/thirdparty/CMSIS/Include/core_cmFunc.h **** #endif /* (__CORTEX_M == 0x04) || (__CORTEX_M == 0x07) */
 307:/home/torbjorn/eclipse-workspace/CoreNG/asf/thirdparty/CMSIS/Include/core_cmFunc.h **** 
 308:/home/torbjorn/eclipse-workspace/CoreNG/asf/thirdparty/CMSIS/Include/core_cmFunc.h **** 
 309:/home/torbjorn/eclipse-workspace/CoreNG/asf/thirdparty/CMSIS/Include/core_cmFunc.h **** #elif defined ( __GNUC__ ) /*------------------ GNU Compiler ---------------------*/
 310:/home/torbjorn/eclipse-workspace/CoreNG/asf/thirdparty/CMSIS/Include/core_cmFunc.h **** /* GNU gcc specific functions */
 311:/home/torbjorn/eclipse-workspace/CoreNG/asf/thirdparty/CMSIS/Include/core_cmFunc.h **** 
 312:/home/torbjorn/eclipse-workspace/CoreNG/asf/thirdparty/CMSIS/Include/core_cmFunc.h **** /** \brief  Enable IRQ Interrupts
 313:/home/torbjorn/eclipse-workspace/CoreNG/asf/thirdparty/CMSIS/Include/core_cmFunc.h **** 
 314:/home/torbjorn/eclipse-workspace/CoreNG/asf/thirdparty/CMSIS/Include/core_cmFunc.h ****   This function enables IRQ interrupts by clearing the I-bit in the CPSR.
 315:/home/torbjorn/eclipse-workspace/CoreNG/asf/thirdparty/CMSIS/Include/core_cmFunc.h ****   Can only be executed in Privileged modes.
 316:/home/torbjorn/eclipse-workspace/CoreNG/asf/thirdparty/CMSIS/Include/core_cmFunc.h ****  */
 317:/home/torbjorn/eclipse-workspace/CoreNG/asf/thirdparty/CMSIS/Include/core_cmFunc.h **** __attribute__( ( always_inline ) ) __STATIC_INLINE void __enable_irq(void)
 318:/home/torbjorn/eclipse-workspace/CoreNG/asf/thirdparty/CMSIS/Include/core_cmFunc.h **** {
 319:/home/torbjorn/eclipse-workspace/CoreNG/asf/thirdparty/CMSIS/Include/core_cmFunc.h ****   __ASM volatile ("cpsie i" : : : "memory");
 320:/home/torbjorn/eclipse-workspace/CoreNG/asf/thirdparty/CMSIS/Include/core_cmFunc.h **** }
 321:/home/torbjorn/eclipse-workspace/CoreNG/asf/thirdparty/CMSIS/Include/core_cmFunc.h **** 
 322:/home/torbjorn/eclipse-workspace/CoreNG/asf/thirdparty/CMSIS/Include/core_cmFunc.h **** 
 323:/home/torbjorn/eclipse-workspace/CoreNG/asf/thirdparty/CMSIS/Include/core_cmFunc.h **** /** \brief  Disable IRQ Interrupts
 324:/home/torbjorn/eclipse-workspace/CoreNG/asf/thirdparty/CMSIS/Include/core_cmFunc.h **** 
 325:/home/torbjorn/eclipse-workspace/CoreNG/asf/thirdparty/CMSIS/Include/core_cmFunc.h ****   This function disables IRQ interrupts by setting the I-bit in the CPSR.
 326:/home/torbjorn/eclipse-workspace/CoreNG/asf/thirdparty/CMSIS/Include/core_cmFunc.h ****   Can only be executed in Privileged modes.
 327:/home/torbjorn/eclipse-workspace/CoreNG/asf/thirdparty/CMSIS/Include/core_cmFunc.h ****  */
 328:/home/torbjorn/eclipse-workspace/CoreNG/asf/thirdparty/CMSIS/Include/core_cmFunc.h **** __attribute__( ( always_inline ) ) __STATIC_INLINE void __disable_irq(void)
 329:/home/torbjorn/eclipse-workspace/CoreNG/asf/thirdparty/CMSIS/Include/core_cmFunc.h **** {
 330:/home/torbjorn/eclipse-workspace/CoreNG/asf/thirdparty/CMSIS/Include/core_cmFunc.h ****   __ASM volatile ("cpsid i" : : : "memory");
 331:/home/torbjorn/eclipse-workspace/CoreNG/asf/thirdparty/CMSIS/Include/core_cmFunc.h **** }
 332:/home/torbjorn/eclipse-workspace/CoreNG/asf/thirdparty/CMSIS/Include/core_cmFunc.h **** 
 333:/home/torbjorn/eclipse-workspace/CoreNG/asf/thirdparty/CMSIS/Include/core_cmFunc.h **** 
 334:/home/torbjorn/eclipse-workspace/CoreNG/asf/thirdparty/CMSIS/Include/core_cmFunc.h **** /** \brief  Get Control Register
 335:/home/torbjorn/eclipse-workspace/CoreNG/asf/thirdparty/CMSIS/Include/core_cmFunc.h **** 
 336:/home/torbjorn/eclipse-workspace/CoreNG/asf/thirdparty/CMSIS/Include/core_cmFunc.h ****     This function returns the content of the Control Register.
 337:/home/torbjorn/eclipse-workspace/CoreNG/asf/thirdparty/CMSIS/Include/core_cmFunc.h **** 
 338:/home/torbjorn/eclipse-workspace/CoreNG/asf/thirdparty/CMSIS/Include/core_cmFunc.h ****     \return               Control Register value
 339:/home/torbjorn/eclipse-workspace/CoreNG/asf/thirdparty/CMSIS/Include/core_cmFunc.h ****  */
 340:/home/torbjorn/eclipse-workspace/CoreNG/asf/thirdparty/CMSIS/Include/core_cmFunc.h **** __attribute__( ( always_inline ) ) __STATIC_INLINE uint32_t __get_CONTROL(void)
 341:/home/torbjorn/eclipse-workspace/CoreNG/asf/thirdparty/CMSIS/Include/core_cmFunc.h **** {
 342:/home/torbjorn/eclipse-workspace/CoreNG/asf/thirdparty/CMSIS/Include/core_cmFunc.h ****   uint32_t result;
 343:/home/torbjorn/eclipse-workspace/CoreNG/asf/thirdparty/CMSIS/Include/core_cmFunc.h **** 
ARM GAS  /tmp/ccLuO05w.s 			page 25


 344:/home/torbjorn/eclipse-workspace/CoreNG/asf/thirdparty/CMSIS/Include/core_cmFunc.h ****   __ASM volatile ("MRS %0, control" : "=r" (result) );
 345:/home/torbjorn/eclipse-workspace/CoreNG/asf/thirdparty/CMSIS/Include/core_cmFunc.h ****   return(result);
 346:/home/torbjorn/eclipse-workspace/CoreNG/asf/thirdparty/CMSIS/Include/core_cmFunc.h **** }
 347:/home/torbjorn/eclipse-workspace/CoreNG/asf/thirdparty/CMSIS/Include/core_cmFunc.h **** 
 348:/home/torbjorn/eclipse-workspace/CoreNG/asf/thirdparty/CMSIS/Include/core_cmFunc.h **** 
 349:/home/torbjorn/eclipse-workspace/CoreNG/asf/thirdparty/CMSIS/Include/core_cmFunc.h **** /** \brief  Set Control Register
 350:/home/torbjorn/eclipse-workspace/CoreNG/asf/thirdparty/CMSIS/Include/core_cmFunc.h **** 
 351:/home/torbjorn/eclipse-workspace/CoreNG/asf/thirdparty/CMSIS/Include/core_cmFunc.h ****     This function writes the given value to the Control Register.
 352:/home/torbjorn/eclipse-workspace/CoreNG/asf/thirdparty/CMSIS/Include/core_cmFunc.h **** 
 353:/home/torbjorn/eclipse-workspace/CoreNG/asf/thirdparty/CMSIS/Include/core_cmFunc.h ****     \param [in]    control  Control Register value to set
 354:/home/torbjorn/eclipse-workspace/CoreNG/asf/thirdparty/CMSIS/Include/core_cmFunc.h ****  */
 355:/home/torbjorn/eclipse-workspace/CoreNG/asf/thirdparty/CMSIS/Include/core_cmFunc.h **** __attribute__( ( always_inline ) ) __STATIC_INLINE void __set_CONTROL(uint32_t control)
 356:/home/torbjorn/eclipse-workspace/CoreNG/asf/thirdparty/CMSIS/Include/core_cmFunc.h **** {
 357:/home/torbjorn/eclipse-workspace/CoreNG/asf/thirdparty/CMSIS/Include/core_cmFunc.h ****   __ASM volatile ("MSR control, %0" : : "r" (control) : "memory");
 358:/home/torbjorn/eclipse-workspace/CoreNG/asf/thirdparty/CMSIS/Include/core_cmFunc.h **** }
 359:/home/torbjorn/eclipse-workspace/CoreNG/asf/thirdparty/CMSIS/Include/core_cmFunc.h **** 
 360:/home/torbjorn/eclipse-workspace/CoreNG/asf/thirdparty/CMSIS/Include/core_cmFunc.h **** 
 361:/home/torbjorn/eclipse-workspace/CoreNG/asf/thirdparty/CMSIS/Include/core_cmFunc.h **** /** \brief  Get IPSR Register
 362:/home/torbjorn/eclipse-workspace/CoreNG/asf/thirdparty/CMSIS/Include/core_cmFunc.h **** 
 363:/home/torbjorn/eclipse-workspace/CoreNG/asf/thirdparty/CMSIS/Include/core_cmFunc.h ****     This function returns the content of the IPSR Register.
 364:/home/torbjorn/eclipse-workspace/CoreNG/asf/thirdparty/CMSIS/Include/core_cmFunc.h **** 
 365:/home/torbjorn/eclipse-workspace/CoreNG/asf/thirdparty/CMSIS/Include/core_cmFunc.h ****     \return               IPSR Register value
 366:/home/torbjorn/eclipse-workspace/CoreNG/asf/thirdparty/CMSIS/Include/core_cmFunc.h ****  */
 367:/home/torbjorn/eclipse-workspace/CoreNG/asf/thirdparty/CMSIS/Include/core_cmFunc.h **** __attribute__( ( always_inline ) ) __STATIC_INLINE uint32_t __get_IPSR(void)
 368:/home/torbjorn/eclipse-workspace/CoreNG/asf/thirdparty/CMSIS/Include/core_cmFunc.h **** {
 369:/home/torbjorn/eclipse-workspace/CoreNG/asf/thirdparty/CMSIS/Include/core_cmFunc.h ****   uint32_t result;
 370:/home/torbjorn/eclipse-workspace/CoreNG/asf/thirdparty/CMSIS/Include/core_cmFunc.h **** 
 371:/home/torbjorn/eclipse-workspace/CoreNG/asf/thirdparty/CMSIS/Include/core_cmFunc.h ****   __ASM volatile ("MRS %0, ipsr" : "=r" (result) );
 372:/home/torbjorn/eclipse-workspace/CoreNG/asf/thirdparty/CMSIS/Include/core_cmFunc.h ****   return(result);
 373:/home/torbjorn/eclipse-workspace/CoreNG/asf/thirdparty/CMSIS/Include/core_cmFunc.h **** }
 374:/home/torbjorn/eclipse-workspace/CoreNG/asf/thirdparty/CMSIS/Include/core_cmFunc.h **** 
 375:/home/torbjorn/eclipse-workspace/CoreNG/asf/thirdparty/CMSIS/Include/core_cmFunc.h **** 
 376:/home/torbjorn/eclipse-workspace/CoreNG/asf/thirdparty/CMSIS/Include/core_cmFunc.h **** /** \brief  Get APSR Register
 377:/home/torbjorn/eclipse-workspace/CoreNG/asf/thirdparty/CMSIS/Include/core_cmFunc.h **** 
 378:/home/torbjorn/eclipse-workspace/CoreNG/asf/thirdparty/CMSIS/Include/core_cmFunc.h ****     This function returns the content of the APSR Register.
 379:/home/torbjorn/eclipse-workspace/CoreNG/asf/thirdparty/CMSIS/Include/core_cmFunc.h **** 
 380:/home/torbjorn/eclipse-workspace/CoreNG/asf/thirdparty/CMSIS/Include/core_cmFunc.h ****     \return               APSR Register value
 381:/home/torbjorn/eclipse-workspace/CoreNG/asf/thirdparty/CMSIS/Include/core_cmFunc.h ****  */
 382:/home/torbjorn/eclipse-workspace/CoreNG/asf/thirdparty/CMSIS/Include/core_cmFunc.h **** __attribute__( ( always_inline ) ) __STATIC_INLINE uint32_t __get_APSR(void)
 383:/home/torbjorn/eclipse-workspace/CoreNG/asf/thirdparty/CMSIS/Include/core_cmFunc.h **** {
 384:/home/torbjorn/eclipse-workspace/CoreNG/asf/thirdparty/CMSIS/Include/core_cmFunc.h ****   uint32_t result;
 385:/home/torbjorn/eclipse-workspace/CoreNG/asf/thirdparty/CMSIS/Include/core_cmFunc.h **** 
 386:/home/torbjorn/eclipse-workspace/CoreNG/asf/thirdparty/CMSIS/Include/core_cmFunc.h ****   __ASM volatile ("MRS %0, apsr" : "=r" (result) );
 387:/home/torbjorn/eclipse-workspace/CoreNG/asf/thirdparty/CMSIS/Include/core_cmFunc.h ****   return(result);
 388:/home/torbjorn/eclipse-workspace/CoreNG/asf/thirdparty/CMSIS/Include/core_cmFunc.h **** }
 389:/home/torbjorn/eclipse-workspace/CoreNG/asf/thirdparty/CMSIS/Include/core_cmFunc.h **** 
 390:/home/torbjorn/eclipse-workspace/CoreNG/asf/thirdparty/CMSIS/Include/core_cmFunc.h **** 
 391:/home/torbjorn/eclipse-workspace/CoreNG/asf/thirdparty/CMSIS/Include/core_cmFunc.h **** /** \brief  Get xPSR Register
 392:/home/torbjorn/eclipse-workspace/CoreNG/asf/thirdparty/CMSIS/Include/core_cmFunc.h **** 
 393:/home/torbjorn/eclipse-workspace/CoreNG/asf/thirdparty/CMSIS/Include/core_cmFunc.h ****     This function returns the content of the xPSR Register.
 394:/home/torbjorn/eclipse-workspace/CoreNG/asf/thirdparty/CMSIS/Include/core_cmFunc.h **** 
 395:/home/torbjorn/eclipse-workspace/CoreNG/asf/thirdparty/CMSIS/Include/core_cmFunc.h ****     \return               xPSR Register value
 396:/home/torbjorn/eclipse-workspace/CoreNG/asf/thirdparty/CMSIS/Include/core_cmFunc.h ****  */
 397:/home/torbjorn/eclipse-workspace/CoreNG/asf/thirdparty/CMSIS/Include/core_cmFunc.h **** __attribute__( ( always_inline ) ) __STATIC_INLINE uint32_t __get_xPSR(void)
 398:/home/torbjorn/eclipse-workspace/CoreNG/asf/thirdparty/CMSIS/Include/core_cmFunc.h **** {
 399:/home/torbjorn/eclipse-workspace/CoreNG/asf/thirdparty/CMSIS/Include/core_cmFunc.h ****   uint32_t result;
 400:/home/torbjorn/eclipse-workspace/CoreNG/asf/thirdparty/CMSIS/Include/core_cmFunc.h **** 
ARM GAS  /tmp/ccLuO05w.s 			page 26


 401:/home/torbjorn/eclipse-workspace/CoreNG/asf/thirdparty/CMSIS/Include/core_cmFunc.h ****   __ASM volatile ("MRS %0, xpsr" : "=r" (result) );
 402:/home/torbjorn/eclipse-workspace/CoreNG/asf/thirdparty/CMSIS/Include/core_cmFunc.h ****   return(result);
 403:/home/torbjorn/eclipse-workspace/CoreNG/asf/thirdparty/CMSIS/Include/core_cmFunc.h **** }
 404:/home/torbjorn/eclipse-workspace/CoreNG/asf/thirdparty/CMSIS/Include/core_cmFunc.h **** 
 405:/home/torbjorn/eclipse-workspace/CoreNG/asf/thirdparty/CMSIS/Include/core_cmFunc.h **** 
 406:/home/torbjorn/eclipse-workspace/CoreNG/asf/thirdparty/CMSIS/Include/core_cmFunc.h **** /** \brief  Get Process Stack Pointer
 407:/home/torbjorn/eclipse-workspace/CoreNG/asf/thirdparty/CMSIS/Include/core_cmFunc.h **** 
 408:/home/torbjorn/eclipse-workspace/CoreNG/asf/thirdparty/CMSIS/Include/core_cmFunc.h ****     This function returns the current value of the Process Stack Pointer (PSP).
 409:/home/torbjorn/eclipse-workspace/CoreNG/asf/thirdparty/CMSIS/Include/core_cmFunc.h **** 
 410:/home/torbjorn/eclipse-workspace/CoreNG/asf/thirdparty/CMSIS/Include/core_cmFunc.h ****     \return               PSP Register value
 411:/home/torbjorn/eclipse-workspace/CoreNG/asf/thirdparty/CMSIS/Include/core_cmFunc.h ****  */
 412:/home/torbjorn/eclipse-workspace/CoreNG/asf/thirdparty/CMSIS/Include/core_cmFunc.h **** __attribute__( ( always_inline ) ) __STATIC_INLINE uint32_t __get_PSP(void)
 413:/home/torbjorn/eclipse-workspace/CoreNG/asf/thirdparty/CMSIS/Include/core_cmFunc.h **** {
 414:/home/torbjorn/eclipse-workspace/CoreNG/asf/thirdparty/CMSIS/Include/core_cmFunc.h ****   register uint32_t result;
 415:/home/torbjorn/eclipse-workspace/CoreNG/asf/thirdparty/CMSIS/Include/core_cmFunc.h **** 
 416:/home/torbjorn/eclipse-workspace/CoreNG/asf/thirdparty/CMSIS/Include/core_cmFunc.h ****   __ASM volatile ("MRS %0, psp\n"  : "=r" (result) );
 417:/home/torbjorn/eclipse-workspace/CoreNG/asf/thirdparty/CMSIS/Include/core_cmFunc.h ****   return(result);
 418:/home/torbjorn/eclipse-workspace/CoreNG/asf/thirdparty/CMSIS/Include/core_cmFunc.h **** }
 419:/home/torbjorn/eclipse-workspace/CoreNG/asf/thirdparty/CMSIS/Include/core_cmFunc.h **** 
 420:/home/torbjorn/eclipse-workspace/CoreNG/asf/thirdparty/CMSIS/Include/core_cmFunc.h **** 
 421:/home/torbjorn/eclipse-workspace/CoreNG/asf/thirdparty/CMSIS/Include/core_cmFunc.h **** /** \brief  Set Process Stack Pointer
 422:/home/torbjorn/eclipse-workspace/CoreNG/asf/thirdparty/CMSIS/Include/core_cmFunc.h **** 
 423:/home/torbjorn/eclipse-workspace/CoreNG/asf/thirdparty/CMSIS/Include/core_cmFunc.h ****     This function assigns the given value to the Process Stack Pointer (PSP).
 424:/home/torbjorn/eclipse-workspace/CoreNG/asf/thirdparty/CMSIS/Include/core_cmFunc.h **** 
 425:/home/torbjorn/eclipse-workspace/CoreNG/asf/thirdparty/CMSIS/Include/core_cmFunc.h ****     \param [in]    topOfProcStack  Process Stack Pointer value to set
 426:/home/torbjorn/eclipse-workspace/CoreNG/asf/thirdparty/CMSIS/Include/core_cmFunc.h ****  */
 427:/home/torbjorn/eclipse-workspace/CoreNG/asf/thirdparty/CMSIS/Include/core_cmFunc.h **** __attribute__( ( always_inline ) ) __STATIC_INLINE void __set_PSP(uint32_t topOfProcStack)
 428:/home/torbjorn/eclipse-workspace/CoreNG/asf/thirdparty/CMSIS/Include/core_cmFunc.h **** {
 429:/home/torbjorn/eclipse-workspace/CoreNG/asf/thirdparty/CMSIS/Include/core_cmFunc.h ****   __ASM volatile ("MSR psp, %0\n" : : "r" (topOfProcStack) : "sp");
 430:/home/torbjorn/eclipse-workspace/CoreNG/asf/thirdparty/CMSIS/Include/core_cmFunc.h **** }
 431:/home/torbjorn/eclipse-workspace/CoreNG/asf/thirdparty/CMSIS/Include/core_cmFunc.h **** 
 432:/home/torbjorn/eclipse-workspace/CoreNG/asf/thirdparty/CMSIS/Include/core_cmFunc.h **** 
 433:/home/torbjorn/eclipse-workspace/CoreNG/asf/thirdparty/CMSIS/Include/core_cmFunc.h **** /** \brief  Get Main Stack Pointer
 434:/home/torbjorn/eclipse-workspace/CoreNG/asf/thirdparty/CMSIS/Include/core_cmFunc.h **** 
 435:/home/torbjorn/eclipse-workspace/CoreNG/asf/thirdparty/CMSIS/Include/core_cmFunc.h ****     This function returns the current value of the Main Stack Pointer (MSP).
 436:/home/torbjorn/eclipse-workspace/CoreNG/asf/thirdparty/CMSIS/Include/core_cmFunc.h **** 
 437:/home/torbjorn/eclipse-workspace/CoreNG/asf/thirdparty/CMSIS/Include/core_cmFunc.h ****     \return               MSP Register value
 438:/home/torbjorn/eclipse-workspace/CoreNG/asf/thirdparty/CMSIS/Include/core_cmFunc.h ****  */
 439:/home/torbjorn/eclipse-workspace/CoreNG/asf/thirdparty/CMSIS/Include/core_cmFunc.h **** __attribute__( ( always_inline ) ) __STATIC_INLINE uint32_t __get_MSP(void)
 440:/home/torbjorn/eclipse-workspace/CoreNG/asf/thirdparty/CMSIS/Include/core_cmFunc.h **** {
 441:/home/torbjorn/eclipse-workspace/CoreNG/asf/thirdparty/CMSIS/Include/core_cmFunc.h ****   register uint32_t result;
 442:/home/torbjorn/eclipse-workspace/CoreNG/asf/thirdparty/CMSIS/Include/core_cmFunc.h **** 
 443:/home/torbjorn/eclipse-workspace/CoreNG/asf/thirdparty/CMSIS/Include/core_cmFunc.h ****   __ASM volatile ("MRS %0, msp\n" : "=r" (result) );
 444:/home/torbjorn/eclipse-workspace/CoreNG/asf/thirdparty/CMSIS/Include/core_cmFunc.h ****   return(result);
 445:/home/torbjorn/eclipse-workspace/CoreNG/asf/thirdparty/CMSIS/Include/core_cmFunc.h **** }
 446:/home/torbjorn/eclipse-workspace/CoreNG/asf/thirdparty/CMSIS/Include/core_cmFunc.h **** 
 447:/home/torbjorn/eclipse-workspace/CoreNG/asf/thirdparty/CMSIS/Include/core_cmFunc.h **** 
 448:/home/torbjorn/eclipse-workspace/CoreNG/asf/thirdparty/CMSIS/Include/core_cmFunc.h **** /** \brief  Set Main Stack Pointer
 449:/home/torbjorn/eclipse-workspace/CoreNG/asf/thirdparty/CMSIS/Include/core_cmFunc.h **** 
 450:/home/torbjorn/eclipse-workspace/CoreNG/asf/thirdparty/CMSIS/Include/core_cmFunc.h ****     This function assigns the given value to the Main Stack Pointer (MSP).
 451:/home/torbjorn/eclipse-workspace/CoreNG/asf/thirdparty/CMSIS/Include/core_cmFunc.h **** 
 452:/home/torbjorn/eclipse-workspace/CoreNG/asf/thirdparty/CMSIS/Include/core_cmFunc.h ****     \param [in]    topOfMainStack  Main Stack Pointer value to set
 453:/home/torbjorn/eclipse-workspace/CoreNG/asf/thirdparty/CMSIS/Include/core_cmFunc.h ****  */
 454:/home/torbjorn/eclipse-workspace/CoreNG/asf/thirdparty/CMSIS/Include/core_cmFunc.h **** __attribute__( ( always_inline ) ) __STATIC_INLINE void __set_MSP(uint32_t topOfMainStack)
 455:/home/torbjorn/eclipse-workspace/CoreNG/asf/thirdparty/CMSIS/Include/core_cmFunc.h **** {
 456:/home/torbjorn/eclipse-workspace/CoreNG/asf/thirdparty/CMSIS/Include/core_cmFunc.h ****   __ASM volatile ("MSR msp, %0\n" : : "r" (topOfMainStack) : "sp");
 457:/home/torbjorn/eclipse-workspace/CoreNG/asf/thirdparty/CMSIS/Include/core_cmFunc.h **** }
ARM GAS  /tmp/ccLuO05w.s 			page 27


 458:/home/torbjorn/eclipse-workspace/CoreNG/asf/thirdparty/CMSIS/Include/core_cmFunc.h **** 
 459:/home/torbjorn/eclipse-workspace/CoreNG/asf/thirdparty/CMSIS/Include/core_cmFunc.h **** 
 460:/home/torbjorn/eclipse-workspace/CoreNG/asf/thirdparty/CMSIS/Include/core_cmFunc.h **** /** \brief  Get Priority Mask
 461:/home/torbjorn/eclipse-workspace/CoreNG/asf/thirdparty/CMSIS/Include/core_cmFunc.h **** 
 462:/home/torbjorn/eclipse-workspace/CoreNG/asf/thirdparty/CMSIS/Include/core_cmFunc.h ****     This function returns the current state of the priority mask bit from the Priority Mask Registe
 463:/home/torbjorn/eclipse-workspace/CoreNG/asf/thirdparty/CMSIS/Include/core_cmFunc.h **** 
 464:/home/torbjorn/eclipse-workspace/CoreNG/asf/thirdparty/CMSIS/Include/core_cmFunc.h ****     \return               Priority Mask value
 465:/home/torbjorn/eclipse-workspace/CoreNG/asf/thirdparty/CMSIS/Include/core_cmFunc.h ****  */
 466:/home/torbjorn/eclipse-workspace/CoreNG/asf/thirdparty/CMSIS/Include/core_cmFunc.h **** __attribute__( ( always_inline ) ) __STATIC_INLINE uint32_t __get_PRIMASK(void)
 467:/home/torbjorn/eclipse-workspace/CoreNG/asf/thirdparty/CMSIS/Include/core_cmFunc.h **** {
 468:/home/torbjorn/eclipse-workspace/CoreNG/asf/thirdparty/CMSIS/Include/core_cmFunc.h ****   uint32_t result;
 469:/home/torbjorn/eclipse-workspace/CoreNG/asf/thirdparty/CMSIS/Include/core_cmFunc.h **** 
 470:/home/torbjorn/eclipse-workspace/CoreNG/asf/thirdparty/CMSIS/Include/core_cmFunc.h ****   __ASM volatile ("MRS %0, primask" : "=r" (result) );
 563              		.loc 2 470 0
 564              		.syntax unified
 565              	@ 470 "/home/torbjorn/eclipse-workspace/CoreNG/asf/thirdparty/CMSIS/Include/core_cmFunc.h" 1
 566 0010 EFF31084 		MRS r4, primask
 567              	@ 0 "" 2
 568              	.LVL51:
 569              		.thumb
 570              		.syntax unified
 571              	.LBE35:
 572              	.LBE34:
 573              	.LBB36:
 574              	.LBB37:
 330:/home/torbjorn/eclipse-workspace/CoreNG/asf/thirdparty/CMSIS/Include/core_cmFunc.h **** }
 575              		.loc 2 330 0
 576              		.syntax unified
 577              	@ 330 "/home/torbjorn/eclipse-workspace/CoreNG/asf/thirdparty/CMSIS/Include/core_cmFunc.h" 1
 578 0014 72B6     		cpsid i
 579              	@ 0 "" 2
 580              		.thumb
 581              		.syntax unified
 582              	.LBE37:
 583              	.LBE36:
 584              	.LBB38:
 585              	.LBB39:
 586              		.file 3 "/home/torbjorn/eclipse-workspace/CoreNG/asf/thirdparty/CMSIS/Include/core_cmInstr.h"
   1:/home/torbjorn/eclipse-workspace/CoreNG/asf/thirdparty/CMSIS/Include/core_cmInstr.h **** /**************************************************************************//**
   2:/home/torbjorn/eclipse-workspace/CoreNG/asf/thirdparty/CMSIS/Include/core_cmInstr.h ****  * @file     core_cmInstr.h
   3:/home/torbjorn/eclipse-workspace/CoreNG/asf/thirdparty/CMSIS/Include/core_cmInstr.h ****  * @brief    CMSIS Cortex-M Core Instruction Access Header File
   4:/home/torbjorn/eclipse-workspace/CoreNG/asf/thirdparty/CMSIS/Include/core_cmInstr.h ****  * @version  V4.00
   5:/home/torbjorn/eclipse-workspace/CoreNG/asf/thirdparty/CMSIS/Include/core_cmInstr.h ****  * @date     28. August 2014
   6:/home/torbjorn/eclipse-workspace/CoreNG/asf/thirdparty/CMSIS/Include/core_cmInstr.h ****  *
   7:/home/torbjorn/eclipse-workspace/CoreNG/asf/thirdparty/CMSIS/Include/core_cmInstr.h ****  * @note
   8:/home/torbjorn/eclipse-workspace/CoreNG/asf/thirdparty/CMSIS/Include/core_cmInstr.h ****  *
   9:/home/torbjorn/eclipse-workspace/CoreNG/asf/thirdparty/CMSIS/Include/core_cmInstr.h ****  ******************************************************************************/
  10:/home/torbjorn/eclipse-workspace/CoreNG/asf/thirdparty/CMSIS/Include/core_cmInstr.h **** /* Copyright (c) 2009 - 2014 ARM LIMITED
  11:/home/torbjorn/eclipse-workspace/CoreNG/asf/thirdparty/CMSIS/Include/core_cmInstr.h **** 
  12:/home/torbjorn/eclipse-workspace/CoreNG/asf/thirdparty/CMSIS/Include/core_cmInstr.h ****    All rights reserved.
  13:/home/torbjorn/eclipse-workspace/CoreNG/asf/thirdparty/CMSIS/Include/core_cmInstr.h ****    Redistribution and use in source and binary forms, with or without
  14:/home/torbjorn/eclipse-workspace/CoreNG/asf/thirdparty/CMSIS/Include/core_cmInstr.h ****    modification, are permitted provided that the following conditions are met:
  15:/home/torbjorn/eclipse-workspace/CoreNG/asf/thirdparty/CMSIS/Include/core_cmInstr.h ****    - Redistributions of source code must retain the above copyright
  16:/home/torbjorn/eclipse-workspace/CoreNG/asf/thirdparty/CMSIS/Include/core_cmInstr.h ****      notice, this list of conditions and the following disclaimer.
  17:/home/torbjorn/eclipse-workspace/CoreNG/asf/thirdparty/CMSIS/Include/core_cmInstr.h ****    - Redistributions in binary form must reproduce the above copyright
  18:/home/torbjorn/eclipse-workspace/CoreNG/asf/thirdparty/CMSIS/Include/core_cmInstr.h ****      notice, this list of conditions and the following disclaimer in the
  19:/home/torbjorn/eclipse-workspace/CoreNG/asf/thirdparty/CMSIS/Include/core_cmInstr.h ****      documentation and/or other materials provided with the distribution.
ARM GAS  /tmp/ccLuO05w.s 			page 28


  20:/home/torbjorn/eclipse-workspace/CoreNG/asf/thirdparty/CMSIS/Include/core_cmInstr.h ****    - Neither the name of ARM nor the names of its contributors may be used
  21:/home/torbjorn/eclipse-workspace/CoreNG/asf/thirdparty/CMSIS/Include/core_cmInstr.h ****      to endorse or promote products derived from this software without
  22:/home/torbjorn/eclipse-workspace/CoreNG/asf/thirdparty/CMSIS/Include/core_cmInstr.h ****      specific prior written permission.
  23:/home/torbjorn/eclipse-workspace/CoreNG/asf/thirdparty/CMSIS/Include/core_cmInstr.h ****    *
  24:/home/torbjorn/eclipse-workspace/CoreNG/asf/thirdparty/CMSIS/Include/core_cmInstr.h ****    THIS SOFTWARE IS PROVIDED BY THE COPYRIGHT HOLDERS AND CONTRIBUTORS "AS IS"
  25:/home/torbjorn/eclipse-workspace/CoreNG/asf/thirdparty/CMSIS/Include/core_cmInstr.h ****    AND ANY EXPRESS OR IMPLIED WARRANTIES, INCLUDING, BUT NOT LIMITED TO, THE
  26:/home/torbjorn/eclipse-workspace/CoreNG/asf/thirdparty/CMSIS/Include/core_cmInstr.h ****    IMPLIED WARRANTIES OF MERCHANTABILITY AND FITNESS FOR A PARTICULAR PURPOSE
  27:/home/torbjorn/eclipse-workspace/CoreNG/asf/thirdparty/CMSIS/Include/core_cmInstr.h ****    ARE DISCLAIMED. IN NO EVENT SHALL COPYRIGHT HOLDERS AND CONTRIBUTORS BE
  28:/home/torbjorn/eclipse-workspace/CoreNG/asf/thirdparty/CMSIS/Include/core_cmInstr.h ****    LIABLE FOR ANY DIRECT, INDIRECT, INCIDENTAL, SPECIAL, EXEMPLARY, OR
  29:/home/torbjorn/eclipse-workspace/CoreNG/asf/thirdparty/CMSIS/Include/core_cmInstr.h ****    CONSEQUENTIAL DAMAGES (INCLUDING, BUT NOT LIMITED TO, PROCUREMENT OF
  30:/home/torbjorn/eclipse-workspace/CoreNG/asf/thirdparty/CMSIS/Include/core_cmInstr.h ****    SUBSTITUTE GOODS OR SERVICES; LOSS OF USE, DATA, OR PROFITS; OR BUSINESS
  31:/home/torbjorn/eclipse-workspace/CoreNG/asf/thirdparty/CMSIS/Include/core_cmInstr.h ****    INTERRUPTION) HOWEVER CAUSED AND ON ANY THEORY OF LIABILITY, WHETHER IN
  32:/home/torbjorn/eclipse-workspace/CoreNG/asf/thirdparty/CMSIS/Include/core_cmInstr.h ****    CONTRACT, STRICT LIABILITY, OR TORT (INCLUDING NEGLIGENCE OR OTHERWISE)
  33:/home/torbjorn/eclipse-workspace/CoreNG/asf/thirdparty/CMSIS/Include/core_cmInstr.h ****    ARISING IN ANY WAY OUT OF THE USE OF THIS SOFTWARE, EVEN IF ADVISED OF THE
  34:/home/torbjorn/eclipse-workspace/CoreNG/asf/thirdparty/CMSIS/Include/core_cmInstr.h ****    POSSIBILITY OF SUCH DAMAGE.
  35:/home/torbjorn/eclipse-workspace/CoreNG/asf/thirdparty/CMSIS/Include/core_cmInstr.h ****    ---------------------------------------------------------------------------*/
  36:/home/torbjorn/eclipse-workspace/CoreNG/asf/thirdparty/CMSIS/Include/core_cmInstr.h **** 
  37:/home/torbjorn/eclipse-workspace/CoreNG/asf/thirdparty/CMSIS/Include/core_cmInstr.h **** 
  38:/home/torbjorn/eclipse-workspace/CoreNG/asf/thirdparty/CMSIS/Include/core_cmInstr.h **** #ifndef __CORE_CMINSTR_H
  39:/home/torbjorn/eclipse-workspace/CoreNG/asf/thirdparty/CMSIS/Include/core_cmInstr.h **** #define __CORE_CMINSTR_H
  40:/home/torbjorn/eclipse-workspace/CoreNG/asf/thirdparty/CMSIS/Include/core_cmInstr.h **** 
  41:/home/torbjorn/eclipse-workspace/CoreNG/asf/thirdparty/CMSIS/Include/core_cmInstr.h **** 
  42:/home/torbjorn/eclipse-workspace/CoreNG/asf/thirdparty/CMSIS/Include/core_cmInstr.h **** /* ##########################  Core Instruction Access  ######################### */
  43:/home/torbjorn/eclipse-workspace/CoreNG/asf/thirdparty/CMSIS/Include/core_cmInstr.h **** /** \defgroup CMSIS_Core_InstructionInterface CMSIS Core Instruction Interface
  44:/home/torbjorn/eclipse-workspace/CoreNG/asf/thirdparty/CMSIS/Include/core_cmInstr.h ****   Access to dedicated instructions
  45:/home/torbjorn/eclipse-workspace/CoreNG/asf/thirdparty/CMSIS/Include/core_cmInstr.h ****   @{
  46:/home/torbjorn/eclipse-workspace/CoreNG/asf/thirdparty/CMSIS/Include/core_cmInstr.h **** */
  47:/home/torbjorn/eclipse-workspace/CoreNG/asf/thirdparty/CMSIS/Include/core_cmInstr.h **** 
  48:/home/torbjorn/eclipse-workspace/CoreNG/asf/thirdparty/CMSIS/Include/core_cmInstr.h **** #if   defined ( __CC_ARM ) /*------------------RealView Compiler -----------------*/
  49:/home/torbjorn/eclipse-workspace/CoreNG/asf/thirdparty/CMSIS/Include/core_cmInstr.h **** /* ARM armcc specific functions */
  50:/home/torbjorn/eclipse-workspace/CoreNG/asf/thirdparty/CMSIS/Include/core_cmInstr.h **** 
  51:/home/torbjorn/eclipse-workspace/CoreNG/asf/thirdparty/CMSIS/Include/core_cmInstr.h **** #if (__ARMCC_VERSION < 400677)
  52:/home/torbjorn/eclipse-workspace/CoreNG/asf/thirdparty/CMSIS/Include/core_cmInstr.h ****   #error "Please use ARM Compiler Toolchain V4.0.677 or later!"
  53:/home/torbjorn/eclipse-workspace/CoreNG/asf/thirdparty/CMSIS/Include/core_cmInstr.h **** #endif
  54:/home/torbjorn/eclipse-workspace/CoreNG/asf/thirdparty/CMSIS/Include/core_cmInstr.h **** 
  55:/home/torbjorn/eclipse-workspace/CoreNG/asf/thirdparty/CMSIS/Include/core_cmInstr.h **** 
  56:/home/torbjorn/eclipse-workspace/CoreNG/asf/thirdparty/CMSIS/Include/core_cmInstr.h **** /** \brief  No Operation
  57:/home/torbjorn/eclipse-workspace/CoreNG/asf/thirdparty/CMSIS/Include/core_cmInstr.h **** 
  58:/home/torbjorn/eclipse-workspace/CoreNG/asf/thirdparty/CMSIS/Include/core_cmInstr.h ****     No Operation does nothing. This instruction can be used for code alignment purposes.
  59:/home/torbjorn/eclipse-workspace/CoreNG/asf/thirdparty/CMSIS/Include/core_cmInstr.h ****  */
  60:/home/torbjorn/eclipse-workspace/CoreNG/asf/thirdparty/CMSIS/Include/core_cmInstr.h **** #define __NOP                             __nop
  61:/home/torbjorn/eclipse-workspace/CoreNG/asf/thirdparty/CMSIS/Include/core_cmInstr.h **** 
  62:/home/torbjorn/eclipse-workspace/CoreNG/asf/thirdparty/CMSIS/Include/core_cmInstr.h **** 
  63:/home/torbjorn/eclipse-workspace/CoreNG/asf/thirdparty/CMSIS/Include/core_cmInstr.h **** /** \brief  Wait For Interrupt
  64:/home/torbjorn/eclipse-workspace/CoreNG/asf/thirdparty/CMSIS/Include/core_cmInstr.h **** 
  65:/home/torbjorn/eclipse-workspace/CoreNG/asf/thirdparty/CMSIS/Include/core_cmInstr.h ****     Wait For Interrupt is a hint instruction that suspends execution
  66:/home/torbjorn/eclipse-workspace/CoreNG/asf/thirdparty/CMSIS/Include/core_cmInstr.h ****     until one of a number of events occurs.
  67:/home/torbjorn/eclipse-workspace/CoreNG/asf/thirdparty/CMSIS/Include/core_cmInstr.h ****  */
  68:/home/torbjorn/eclipse-workspace/CoreNG/asf/thirdparty/CMSIS/Include/core_cmInstr.h **** #define __WFI                             __wfi
  69:/home/torbjorn/eclipse-workspace/CoreNG/asf/thirdparty/CMSIS/Include/core_cmInstr.h **** 
  70:/home/torbjorn/eclipse-workspace/CoreNG/asf/thirdparty/CMSIS/Include/core_cmInstr.h **** 
  71:/home/torbjorn/eclipse-workspace/CoreNG/asf/thirdparty/CMSIS/Include/core_cmInstr.h **** /** \brief  Wait For Event
  72:/home/torbjorn/eclipse-workspace/CoreNG/asf/thirdparty/CMSIS/Include/core_cmInstr.h **** 
  73:/home/torbjorn/eclipse-workspace/CoreNG/asf/thirdparty/CMSIS/Include/core_cmInstr.h ****     Wait For Event is a hint instruction that permits the processor to enter
  74:/home/torbjorn/eclipse-workspace/CoreNG/asf/thirdparty/CMSIS/Include/core_cmInstr.h ****     a low-power state until one of a number of events occurs.
  75:/home/torbjorn/eclipse-workspace/CoreNG/asf/thirdparty/CMSIS/Include/core_cmInstr.h ****  */
  76:/home/torbjorn/eclipse-workspace/CoreNG/asf/thirdparty/CMSIS/Include/core_cmInstr.h **** #define __WFE                             __wfe
ARM GAS  /tmp/ccLuO05w.s 			page 29


  77:/home/torbjorn/eclipse-workspace/CoreNG/asf/thirdparty/CMSIS/Include/core_cmInstr.h **** 
  78:/home/torbjorn/eclipse-workspace/CoreNG/asf/thirdparty/CMSIS/Include/core_cmInstr.h **** 
  79:/home/torbjorn/eclipse-workspace/CoreNG/asf/thirdparty/CMSIS/Include/core_cmInstr.h **** /** \brief  Send Event
  80:/home/torbjorn/eclipse-workspace/CoreNG/asf/thirdparty/CMSIS/Include/core_cmInstr.h **** 
  81:/home/torbjorn/eclipse-workspace/CoreNG/asf/thirdparty/CMSIS/Include/core_cmInstr.h ****     Send Event is a hint instruction. It causes an event to be signaled to the CPU.
  82:/home/torbjorn/eclipse-workspace/CoreNG/asf/thirdparty/CMSIS/Include/core_cmInstr.h ****  */
  83:/home/torbjorn/eclipse-workspace/CoreNG/asf/thirdparty/CMSIS/Include/core_cmInstr.h **** #define __SEV                             __sev
  84:/home/torbjorn/eclipse-workspace/CoreNG/asf/thirdparty/CMSIS/Include/core_cmInstr.h **** 
  85:/home/torbjorn/eclipse-workspace/CoreNG/asf/thirdparty/CMSIS/Include/core_cmInstr.h **** 
  86:/home/torbjorn/eclipse-workspace/CoreNG/asf/thirdparty/CMSIS/Include/core_cmInstr.h **** /** \brief  Instruction Synchronization Barrier
  87:/home/torbjorn/eclipse-workspace/CoreNG/asf/thirdparty/CMSIS/Include/core_cmInstr.h **** 
  88:/home/torbjorn/eclipse-workspace/CoreNG/asf/thirdparty/CMSIS/Include/core_cmInstr.h ****     Instruction Synchronization Barrier flushes the pipeline in the processor,
  89:/home/torbjorn/eclipse-workspace/CoreNG/asf/thirdparty/CMSIS/Include/core_cmInstr.h ****     so that all instructions following the ISB are fetched from cache or
  90:/home/torbjorn/eclipse-workspace/CoreNG/asf/thirdparty/CMSIS/Include/core_cmInstr.h ****     memory, after the instruction has been completed.
  91:/home/torbjorn/eclipse-workspace/CoreNG/asf/thirdparty/CMSIS/Include/core_cmInstr.h ****  */
  92:/home/torbjorn/eclipse-workspace/CoreNG/asf/thirdparty/CMSIS/Include/core_cmInstr.h **** #define __ISB()                           __isb(0xF)
  93:/home/torbjorn/eclipse-workspace/CoreNG/asf/thirdparty/CMSIS/Include/core_cmInstr.h **** 
  94:/home/torbjorn/eclipse-workspace/CoreNG/asf/thirdparty/CMSIS/Include/core_cmInstr.h **** 
  95:/home/torbjorn/eclipse-workspace/CoreNG/asf/thirdparty/CMSIS/Include/core_cmInstr.h **** /** \brief  Data Synchronization Barrier
  96:/home/torbjorn/eclipse-workspace/CoreNG/asf/thirdparty/CMSIS/Include/core_cmInstr.h **** 
  97:/home/torbjorn/eclipse-workspace/CoreNG/asf/thirdparty/CMSIS/Include/core_cmInstr.h ****     This function acts as a special kind of Data Memory Barrier.
  98:/home/torbjorn/eclipse-workspace/CoreNG/asf/thirdparty/CMSIS/Include/core_cmInstr.h ****     It completes when all explicit memory accesses before this instruction complete.
  99:/home/torbjorn/eclipse-workspace/CoreNG/asf/thirdparty/CMSIS/Include/core_cmInstr.h ****  */
 100:/home/torbjorn/eclipse-workspace/CoreNG/asf/thirdparty/CMSIS/Include/core_cmInstr.h **** #define __DSB()                           __dsb(0xF)
 101:/home/torbjorn/eclipse-workspace/CoreNG/asf/thirdparty/CMSIS/Include/core_cmInstr.h **** 
 102:/home/torbjorn/eclipse-workspace/CoreNG/asf/thirdparty/CMSIS/Include/core_cmInstr.h **** 
 103:/home/torbjorn/eclipse-workspace/CoreNG/asf/thirdparty/CMSIS/Include/core_cmInstr.h **** /** \brief  Data Memory Barrier
 104:/home/torbjorn/eclipse-workspace/CoreNG/asf/thirdparty/CMSIS/Include/core_cmInstr.h **** 
 105:/home/torbjorn/eclipse-workspace/CoreNG/asf/thirdparty/CMSIS/Include/core_cmInstr.h ****     This function ensures the apparent order of the explicit memory operations before
 106:/home/torbjorn/eclipse-workspace/CoreNG/asf/thirdparty/CMSIS/Include/core_cmInstr.h ****     and after the instruction, without ensuring their completion.
 107:/home/torbjorn/eclipse-workspace/CoreNG/asf/thirdparty/CMSIS/Include/core_cmInstr.h ****  */
 108:/home/torbjorn/eclipse-workspace/CoreNG/asf/thirdparty/CMSIS/Include/core_cmInstr.h **** #define __DMB()                           __dmb(0xF)
 109:/home/torbjorn/eclipse-workspace/CoreNG/asf/thirdparty/CMSIS/Include/core_cmInstr.h **** 
 110:/home/torbjorn/eclipse-workspace/CoreNG/asf/thirdparty/CMSIS/Include/core_cmInstr.h **** 
 111:/home/torbjorn/eclipse-workspace/CoreNG/asf/thirdparty/CMSIS/Include/core_cmInstr.h **** /** \brief  Reverse byte order (32 bit)
 112:/home/torbjorn/eclipse-workspace/CoreNG/asf/thirdparty/CMSIS/Include/core_cmInstr.h **** 
 113:/home/torbjorn/eclipse-workspace/CoreNG/asf/thirdparty/CMSIS/Include/core_cmInstr.h ****     This function reverses the byte order in integer value.
 114:/home/torbjorn/eclipse-workspace/CoreNG/asf/thirdparty/CMSIS/Include/core_cmInstr.h **** 
 115:/home/torbjorn/eclipse-workspace/CoreNG/asf/thirdparty/CMSIS/Include/core_cmInstr.h ****     \param [in]    value  Value to reverse
 116:/home/torbjorn/eclipse-workspace/CoreNG/asf/thirdparty/CMSIS/Include/core_cmInstr.h ****     \return               Reversed value
 117:/home/torbjorn/eclipse-workspace/CoreNG/asf/thirdparty/CMSIS/Include/core_cmInstr.h ****  */
 118:/home/torbjorn/eclipse-workspace/CoreNG/asf/thirdparty/CMSIS/Include/core_cmInstr.h **** #define __REV                             __rev
 119:/home/torbjorn/eclipse-workspace/CoreNG/asf/thirdparty/CMSIS/Include/core_cmInstr.h **** 
 120:/home/torbjorn/eclipse-workspace/CoreNG/asf/thirdparty/CMSIS/Include/core_cmInstr.h **** 
 121:/home/torbjorn/eclipse-workspace/CoreNG/asf/thirdparty/CMSIS/Include/core_cmInstr.h **** /** \brief  Reverse byte order (16 bit)
 122:/home/torbjorn/eclipse-workspace/CoreNG/asf/thirdparty/CMSIS/Include/core_cmInstr.h **** 
 123:/home/torbjorn/eclipse-workspace/CoreNG/asf/thirdparty/CMSIS/Include/core_cmInstr.h ****     This function reverses the byte order in two unsigned short values.
 124:/home/torbjorn/eclipse-workspace/CoreNG/asf/thirdparty/CMSIS/Include/core_cmInstr.h **** 
 125:/home/torbjorn/eclipse-workspace/CoreNG/asf/thirdparty/CMSIS/Include/core_cmInstr.h ****     \param [in]    value  Value to reverse
 126:/home/torbjorn/eclipse-workspace/CoreNG/asf/thirdparty/CMSIS/Include/core_cmInstr.h ****     \return               Reversed value
 127:/home/torbjorn/eclipse-workspace/CoreNG/asf/thirdparty/CMSIS/Include/core_cmInstr.h ****  */
 128:/home/torbjorn/eclipse-workspace/CoreNG/asf/thirdparty/CMSIS/Include/core_cmInstr.h **** #ifndef __NO_EMBEDDED_ASM
 129:/home/torbjorn/eclipse-workspace/CoreNG/asf/thirdparty/CMSIS/Include/core_cmInstr.h **** __attribute__((section(".rev16_text"))) __STATIC_INLINE __ASM uint32_t __REV16(uint32_t value)
 130:/home/torbjorn/eclipse-workspace/CoreNG/asf/thirdparty/CMSIS/Include/core_cmInstr.h **** {
 131:/home/torbjorn/eclipse-workspace/CoreNG/asf/thirdparty/CMSIS/Include/core_cmInstr.h ****   rev16 r0, r0
 132:/home/torbjorn/eclipse-workspace/CoreNG/asf/thirdparty/CMSIS/Include/core_cmInstr.h ****   bx lr
 133:/home/torbjorn/eclipse-workspace/CoreNG/asf/thirdparty/CMSIS/Include/core_cmInstr.h **** }
ARM GAS  /tmp/ccLuO05w.s 			page 30


 134:/home/torbjorn/eclipse-workspace/CoreNG/asf/thirdparty/CMSIS/Include/core_cmInstr.h **** #endif
 135:/home/torbjorn/eclipse-workspace/CoreNG/asf/thirdparty/CMSIS/Include/core_cmInstr.h **** 
 136:/home/torbjorn/eclipse-workspace/CoreNG/asf/thirdparty/CMSIS/Include/core_cmInstr.h **** /** \brief  Reverse byte order in signed short value
 137:/home/torbjorn/eclipse-workspace/CoreNG/asf/thirdparty/CMSIS/Include/core_cmInstr.h **** 
 138:/home/torbjorn/eclipse-workspace/CoreNG/asf/thirdparty/CMSIS/Include/core_cmInstr.h ****     This function reverses the byte order in a signed short value with sign extension to integer.
 139:/home/torbjorn/eclipse-workspace/CoreNG/asf/thirdparty/CMSIS/Include/core_cmInstr.h **** 
 140:/home/torbjorn/eclipse-workspace/CoreNG/asf/thirdparty/CMSIS/Include/core_cmInstr.h ****     \param [in]    value  Value to reverse
 141:/home/torbjorn/eclipse-workspace/CoreNG/asf/thirdparty/CMSIS/Include/core_cmInstr.h ****     \return               Reversed value
 142:/home/torbjorn/eclipse-workspace/CoreNG/asf/thirdparty/CMSIS/Include/core_cmInstr.h ****  */
 143:/home/torbjorn/eclipse-workspace/CoreNG/asf/thirdparty/CMSIS/Include/core_cmInstr.h **** #ifndef __NO_EMBEDDED_ASM
 144:/home/torbjorn/eclipse-workspace/CoreNG/asf/thirdparty/CMSIS/Include/core_cmInstr.h **** __attribute__((section(".revsh_text"))) __STATIC_INLINE __ASM int32_t __REVSH(int32_t value)
 145:/home/torbjorn/eclipse-workspace/CoreNG/asf/thirdparty/CMSIS/Include/core_cmInstr.h **** {
 146:/home/torbjorn/eclipse-workspace/CoreNG/asf/thirdparty/CMSIS/Include/core_cmInstr.h ****   revsh r0, r0
 147:/home/torbjorn/eclipse-workspace/CoreNG/asf/thirdparty/CMSIS/Include/core_cmInstr.h ****   bx lr
 148:/home/torbjorn/eclipse-workspace/CoreNG/asf/thirdparty/CMSIS/Include/core_cmInstr.h **** }
 149:/home/torbjorn/eclipse-workspace/CoreNG/asf/thirdparty/CMSIS/Include/core_cmInstr.h **** #endif
 150:/home/torbjorn/eclipse-workspace/CoreNG/asf/thirdparty/CMSIS/Include/core_cmInstr.h **** 
 151:/home/torbjorn/eclipse-workspace/CoreNG/asf/thirdparty/CMSIS/Include/core_cmInstr.h **** 
 152:/home/torbjorn/eclipse-workspace/CoreNG/asf/thirdparty/CMSIS/Include/core_cmInstr.h **** /** \brief  Rotate Right in unsigned value (32 bit)
 153:/home/torbjorn/eclipse-workspace/CoreNG/asf/thirdparty/CMSIS/Include/core_cmInstr.h **** 
 154:/home/torbjorn/eclipse-workspace/CoreNG/asf/thirdparty/CMSIS/Include/core_cmInstr.h ****     This function Rotate Right (immediate) provides the value of the contents of a register rotated
 155:/home/torbjorn/eclipse-workspace/CoreNG/asf/thirdparty/CMSIS/Include/core_cmInstr.h **** 
 156:/home/torbjorn/eclipse-workspace/CoreNG/asf/thirdparty/CMSIS/Include/core_cmInstr.h ****     \param [in]    value  Value to rotate
 157:/home/torbjorn/eclipse-workspace/CoreNG/asf/thirdparty/CMSIS/Include/core_cmInstr.h ****     \param [in]    value  Number of Bits to rotate
 158:/home/torbjorn/eclipse-workspace/CoreNG/asf/thirdparty/CMSIS/Include/core_cmInstr.h ****     \return               Rotated value
 159:/home/torbjorn/eclipse-workspace/CoreNG/asf/thirdparty/CMSIS/Include/core_cmInstr.h ****  */
 160:/home/torbjorn/eclipse-workspace/CoreNG/asf/thirdparty/CMSIS/Include/core_cmInstr.h **** #define __ROR                             __ror
 161:/home/torbjorn/eclipse-workspace/CoreNG/asf/thirdparty/CMSIS/Include/core_cmInstr.h **** 
 162:/home/torbjorn/eclipse-workspace/CoreNG/asf/thirdparty/CMSIS/Include/core_cmInstr.h **** 
 163:/home/torbjorn/eclipse-workspace/CoreNG/asf/thirdparty/CMSIS/Include/core_cmInstr.h **** /** \brief  Breakpoint
 164:/home/torbjorn/eclipse-workspace/CoreNG/asf/thirdparty/CMSIS/Include/core_cmInstr.h **** 
 165:/home/torbjorn/eclipse-workspace/CoreNG/asf/thirdparty/CMSIS/Include/core_cmInstr.h ****     This function causes the processor to enter Debug state.
 166:/home/torbjorn/eclipse-workspace/CoreNG/asf/thirdparty/CMSIS/Include/core_cmInstr.h ****     Debug tools can use this to investigate system state when the instruction at a particular addre
 167:/home/torbjorn/eclipse-workspace/CoreNG/asf/thirdparty/CMSIS/Include/core_cmInstr.h **** 
 168:/home/torbjorn/eclipse-workspace/CoreNG/asf/thirdparty/CMSIS/Include/core_cmInstr.h ****     \param [in]    value  is ignored by the processor.
 169:/home/torbjorn/eclipse-workspace/CoreNG/asf/thirdparty/CMSIS/Include/core_cmInstr.h ****                    If required, a debugger can use it to store additional information about the bre
 170:/home/torbjorn/eclipse-workspace/CoreNG/asf/thirdparty/CMSIS/Include/core_cmInstr.h ****  */
 171:/home/torbjorn/eclipse-workspace/CoreNG/asf/thirdparty/CMSIS/Include/core_cmInstr.h **** #define __BKPT(value)                       __breakpoint(value)
 172:/home/torbjorn/eclipse-workspace/CoreNG/asf/thirdparty/CMSIS/Include/core_cmInstr.h **** 
 173:/home/torbjorn/eclipse-workspace/CoreNG/asf/thirdparty/CMSIS/Include/core_cmInstr.h **** 
 174:/home/torbjorn/eclipse-workspace/CoreNG/asf/thirdparty/CMSIS/Include/core_cmInstr.h **** #if       (__CORTEX_M >= 0x03) || (__CORTEX_SC >= 300)
 175:/home/torbjorn/eclipse-workspace/CoreNG/asf/thirdparty/CMSIS/Include/core_cmInstr.h **** 
 176:/home/torbjorn/eclipse-workspace/CoreNG/asf/thirdparty/CMSIS/Include/core_cmInstr.h **** /** \brief  Reverse bit order of value
 177:/home/torbjorn/eclipse-workspace/CoreNG/asf/thirdparty/CMSIS/Include/core_cmInstr.h **** 
 178:/home/torbjorn/eclipse-workspace/CoreNG/asf/thirdparty/CMSIS/Include/core_cmInstr.h ****     This function reverses the bit order of the given value.
 179:/home/torbjorn/eclipse-workspace/CoreNG/asf/thirdparty/CMSIS/Include/core_cmInstr.h **** 
 180:/home/torbjorn/eclipse-workspace/CoreNG/asf/thirdparty/CMSIS/Include/core_cmInstr.h ****     \param [in]    value  Value to reverse
 181:/home/torbjorn/eclipse-workspace/CoreNG/asf/thirdparty/CMSIS/Include/core_cmInstr.h ****     \return               Reversed value
 182:/home/torbjorn/eclipse-workspace/CoreNG/asf/thirdparty/CMSIS/Include/core_cmInstr.h ****  */
 183:/home/torbjorn/eclipse-workspace/CoreNG/asf/thirdparty/CMSIS/Include/core_cmInstr.h **** #define __RBIT                            __rbit
 184:/home/torbjorn/eclipse-workspace/CoreNG/asf/thirdparty/CMSIS/Include/core_cmInstr.h **** 
 185:/home/torbjorn/eclipse-workspace/CoreNG/asf/thirdparty/CMSIS/Include/core_cmInstr.h **** 
 186:/home/torbjorn/eclipse-workspace/CoreNG/asf/thirdparty/CMSIS/Include/core_cmInstr.h **** /** \brief  LDR Exclusive (8 bit)
 187:/home/torbjorn/eclipse-workspace/CoreNG/asf/thirdparty/CMSIS/Include/core_cmInstr.h **** 
 188:/home/torbjorn/eclipse-workspace/CoreNG/asf/thirdparty/CMSIS/Include/core_cmInstr.h ****     This function executes a exclusive LDR instruction for 8 bit value.
 189:/home/torbjorn/eclipse-workspace/CoreNG/asf/thirdparty/CMSIS/Include/core_cmInstr.h **** 
 190:/home/torbjorn/eclipse-workspace/CoreNG/asf/thirdparty/CMSIS/Include/core_cmInstr.h ****     \param [in]    ptr  Pointer to data
ARM GAS  /tmp/ccLuO05w.s 			page 31


 191:/home/torbjorn/eclipse-workspace/CoreNG/asf/thirdparty/CMSIS/Include/core_cmInstr.h ****     \return             value of type uint8_t at (*ptr)
 192:/home/torbjorn/eclipse-workspace/CoreNG/asf/thirdparty/CMSIS/Include/core_cmInstr.h ****  */
 193:/home/torbjorn/eclipse-workspace/CoreNG/asf/thirdparty/CMSIS/Include/core_cmInstr.h **** #define __LDREXB(ptr)                     ((uint8_t ) __ldrex(ptr))
 194:/home/torbjorn/eclipse-workspace/CoreNG/asf/thirdparty/CMSIS/Include/core_cmInstr.h **** 
 195:/home/torbjorn/eclipse-workspace/CoreNG/asf/thirdparty/CMSIS/Include/core_cmInstr.h **** 
 196:/home/torbjorn/eclipse-workspace/CoreNG/asf/thirdparty/CMSIS/Include/core_cmInstr.h **** /** \brief  LDR Exclusive (16 bit)
 197:/home/torbjorn/eclipse-workspace/CoreNG/asf/thirdparty/CMSIS/Include/core_cmInstr.h **** 
 198:/home/torbjorn/eclipse-workspace/CoreNG/asf/thirdparty/CMSIS/Include/core_cmInstr.h ****     This function executes a exclusive LDR instruction for 16 bit values.
 199:/home/torbjorn/eclipse-workspace/CoreNG/asf/thirdparty/CMSIS/Include/core_cmInstr.h **** 
 200:/home/torbjorn/eclipse-workspace/CoreNG/asf/thirdparty/CMSIS/Include/core_cmInstr.h ****     \param [in]    ptr  Pointer to data
 201:/home/torbjorn/eclipse-workspace/CoreNG/asf/thirdparty/CMSIS/Include/core_cmInstr.h ****     \return        value of type uint16_t at (*ptr)
 202:/home/torbjorn/eclipse-workspace/CoreNG/asf/thirdparty/CMSIS/Include/core_cmInstr.h ****  */
 203:/home/torbjorn/eclipse-workspace/CoreNG/asf/thirdparty/CMSIS/Include/core_cmInstr.h **** #define __LDREXH(ptr)                     ((uint16_t) __ldrex(ptr))
 204:/home/torbjorn/eclipse-workspace/CoreNG/asf/thirdparty/CMSIS/Include/core_cmInstr.h **** 
 205:/home/torbjorn/eclipse-workspace/CoreNG/asf/thirdparty/CMSIS/Include/core_cmInstr.h **** 
 206:/home/torbjorn/eclipse-workspace/CoreNG/asf/thirdparty/CMSIS/Include/core_cmInstr.h **** /** \brief  LDR Exclusive (32 bit)
 207:/home/torbjorn/eclipse-workspace/CoreNG/asf/thirdparty/CMSIS/Include/core_cmInstr.h **** 
 208:/home/torbjorn/eclipse-workspace/CoreNG/asf/thirdparty/CMSIS/Include/core_cmInstr.h ****     This function executes a exclusive LDR instruction for 32 bit values.
 209:/home/torbjorn/eclipse-workspace/CoreNG/asf/thirdparty/CMSIS/Include/core_cmInstr.h **** 
 210:/home/torbjorn/eclipse-workspace/CoreNG/asf/thirdparty/CMSIS/Include/core_cmInstr.h ****     \param [in]    ptr  Pointer to data
 211:/home/torbjorn/eclipse-workspace/CoreNG/asf/thirdparty/CMSIS/Include/core_cmInstr.h ****     \return        value of type uint32_t at (*ptr)
 212:/home/torbjorn/eclipse-workspace/CoreNG/asf/thirdparty/CMSIS/Include/core_cmInstr.h ****  */
 213:/home/torbjorn/eclipse-workspace/CoreNG/asf/thirdparty/CMSIS/Include/core_cmInstr.h **** #define __LDREXW(ptr)                     ((uint32_t ) __ldrex(ptr))
 214:/home/torbjorn/eclipse-workspace/CoreNG/asf/thirdparty/CMSIS/Include/core_cmInstr.h **** 
 215:/home/torbjorn/eclipse-workspace/CoreNG/asf/thirdparty/CMSIS/Include/core_cmInstr.h **** 
 216:/home/torbjorn/eclipse-workspace/CoreNG/asf/thirdparty/CMSIS/Include/core_cmInstr.h **** /** \brief  STR Exclusive (8 bit)
 217:/home/torbjorn/eclipse-workspace/CoreNG/asf/thirdparty/CMSIS/Include/core_cmInstr.h **** 
 218:/home/torbjorn/eclipse-workspace/CoreNG/asf/thirdparty/CMSIS/Include/core_cmInstr.h ****     This function executes a exclusive STR instruction for 8 bit values.
 219:/home/torbjorn/eclipse-workspace/CoreNG/asf/thirdparty/CMSIS/Include/core_cmInstr.h **** 
 220:/home/torbjorn/eclipse-workspace/CoreNG/asf/thirdparty/CMSIS/Include/core_cmInstr.h ****     \param [in]  value  Value to store
 221:/home/torbjorn/eclipse-workspace/CoreNG/asf/thirdparty/CMSIS/Include/core_cmInstr.h ****     \param [in]    ptr  Pointer to location
 222:/home/torbjorn/eclipse-workspace/CoreNG/asf/thirdparty/CMSIS/Include/core_cmInstr.h ****     \return          0  Function succeeded
 223:/home/torbjorn/eclipse-workspace/CoreNG/asf/thirdparty/CMSIS/Include/core_cmInstr.h ****     \return          1  Function failed
 224:/home/torbjorn/eclipse-workspace/CoreNG/asf/thirdparty/CMSIS/Include/core_cmInstr.h ****  */
 225:/home/torbjorn/eclipse-workspace/CoreNG/asf/thirdparty/CMSIS/Include/core_cmInstr.h **** #define __STREXB(value, ptr)              __strex(value, ptr)
 226:/home/torbjorn/eclipse-workspace/CoreNG/asf/thirdparty/CMSIS/Include/core_cmInstr.h **** 
 227:/home/torbjorn/eclipse-workspace/CoreNG/asf/thirdparty/CMSIS/Include/core_cmInstr.h **** 
 228:/home/torbjorn/eclipse-workspace/CoreNG/asf/thirdparty/CMSIS/Include/core_cmInstr.h **** /** \brief  STR Exclusive (16 bit)
 229:/home/torbjorn/eclipse-workspace/CoreNG/asf/thirdparty/CMSIS/Include/core_cmInstr.h **** 
 230:/home/torbjorn/eclipse-workspace/CoreNG/asf/thirdparty/CMSIS/Include/core_cmInstr.h ****     This function executes a exclusive STR instruction for 16 bit values.
 231:/home/torbjorn/eclipse-workspace/CoreNG/asf/thirdparty/CMSIS/Include/core_cmInstr.h **** 
 232:/home/torbjorn/eclipse-workspace/CoreNG/asf/thirdparty/CMSIS/Include/core_cmInstr.h ****     \param [in]  value  Value to store
 233:/home/torbjorn/eclipse-workspace/CoreNG/asf/thirdparty/CMSIS/Include/core_cmInstr.h ****     \param [in]    ptr  Pointer to location
 234:/home/torbjorn/eclipse-workspace/CoreNG/asf/thirdparty/CMSIS/Include/core_cmInstr.h ****     \return          0  Function succeeded
 235:/home/torbjorn/eclipse-workspace/CoreNG/asf/thirdparty/CMSIS/Include/core_cmInstr.h ****     \return          1  Function failed
 236:/home/torbjorn/eclipse-workspace/CoreNG/asf/thirdparty/CMSIS/Include/core_cmInstr.h ****  */
 237:/home/torbjorn/eclipse-workspace/CoreNG/asf/thirdparty/CMSIS/Include/core_cmInstr.h **** #define __STREXH(value, ptr)              __strex(value, ptr)
 238:/home/torbjorn/eclipse-workspace/CoreNG/asf/thirdparty/CMSIS/Include/core_cmInstr.h **** 
 239:/home/torbjorn/eclipse-workspace/CoreNG/asf/thirdparty/CMSIS/Include/core_cmInstr.h **** 
 240:/home/torbjorn/eclipse-workspace/CoreNG/asf/thirdparty/CMSIS/Include/core_cmInstr.h **** /** \brief  STR Exclusive (32 bit)
 241:/home/torbjorn/eclipse-workspace/CoreNG/asf/thirdparty/CMSIS/Include/core_cmInstr.h **** 
 242:/home/torbjorn/eclipse-workspace/CoreNG/asf/thirdparty/CMSIS/Include/core_cmInstr.h ****     This function executes a exclusive STR instruction for 32 bit values.
 243:/home/torbjorn/eclipse-workspace/CoreNG/asf/thirdparty/CMSIS/Include/core_cmInstr.h **** 
 244:/home/torbjorn/eclipse-workspace/CoreNG/asf/thirdparty/CMSIS/Include/core_cmInstr.h ****     \param [in]  value  Value to store
 245:/home/torbjorn/eclipse-workspace/CoreNG/asf/thirdparty/CMSIS/Include/core_cmInstr.h ****     \param [in]    ptr  Pointer to location
 246:/home/torbjorn/eclipse-workspace/CoreNG/asf/thirdparty/CMSIS/Include/core_cmInstr.h ****     \return          0  Function succeeded
 247:/home/torbjorn/eclipse-workspace/CoreNG/asf/thirdparty/CMSIS/Include/core_cmInstr.h ****     \return          1  Function failed
ARM GAS  /tmp/ccLuO05w.s 			page 32


 248:/home/torbjorn/eclipse-workspace/CoreNG/asf/thirdparty/CMSIS/Include/core_cmInstr.h ****  */
 249:/home/torbjorn/eclipse-workspace/CoreNG/asf/thirdparty/CMSIS/Include/core_cmInstr.h **** #define __STREXW(value, ptr)              __strex(value, ptr)
 250:/home/torbjorn/eclipse-workspace/CoreNG/asf/thirdparty/CMSIS/Include/core_cmInstr.h **** 
 251:/home/torbjorn/eclipse-workspace/CoreNG/asf/thirdparty/CMSIS/Include/core_cmInstr.h **** 
 252:/home/torbjorn/eclipse-workspace/CoreNG/asf/thirdparty/CMSIS/Include/core_cmInstr.h **** /** \brief  Remove the exclusive lock
 253:/home/torbjorn/eclipse-workspace/CoreNG/asf/thirdparty/CMSIS/Include/core_cmInstr.h **** 
 254:/home/torbjorn/eclipse-workspace/CoreNG/asf/thirdparty/CMSIS/Include/core_cmInstr.h ****     This function removes the exclusive lock which is created by LDREX.
 255:/home/torbjorn/eclipse-workspace/CoreNG/asf/thirdparty/CMSIS/Include/core_cmInstr.h **** 
 256:/home/torbjorn/eclipse-workspace/CoreNG/asf/thirdparty/CMSIS/Include/core_cmInstr.h ****  */
 257:/home/torbjorn/eclipse-workspace/CoreNG/asf/thirdparty/CMSIS/Include/core_cmInstr.h **** #define __CLREX                           __clrex
 258:/home/torbjorn/eclipse-workspace/CoreNG/asf/thirdparty/CMSIS/Include/core_cmInstr.h **** 
 259:/home/torbjorn/eclipse-workspace/CoreNG/asf/thirdparty/CMSIS/Include/core_cmInstr.h **** 
 260:/home/torbjorn/eclipse-workspace/CoreNG/asf/thirdparty/CMSIS/Include/core_cmInstr.h **** /** \brief  Signed Saturate
 261:/home/torbjorn/eclipse-workspace/CoreNG/asf/thirdparty/CMSIS/Include/core_cmInstr.h **** 
 262:/home/torbjorn/eclipse-workspace/CoreNG/asf/thirdparty/CMSIS/Include/core_cmInstr.h ****     This function saturates a signed value.
 263:/home/torbjorn/eclipse-workspace/CoreNG/asf/thirdparty/CMSIS/Include/core_cmInstr.h **** 
 264:/home/torbjorn/eclipse-workspace/CoreNG/asf/thirdparty/CMSIS/Include/core_cmInstr.h ****     \param [in]  value  Value to be saturated
 265:/home/torbjorn/eclipse-workspace/CoreNG/asf/thirdparty/CMSIS/Include/core_cmInstr.h ****     \param [in]    sat  Bit position to saturate to (1..32)
 266:/home/torbjorn/eclipse-workspace/CoreNG/asf/thirdparty/CMSIS/Include/core_cmInstr.h ****     \return             Saturated value
 267:/home/torbjorn/eclipse-workspace/CoreNG/asf/thirdparty/CMSIS/Include/core_cmInstr.h ****  */
 268:/home/torbjorn/eclipse-workspace/CoreNG/asf/thirdparty/CMSIS/Include/core_cmInstr.h **** #define __SSAT                            __ssat
 269:/home/torbjorn/eclipse-workspace/CoreNG/asf/thirdparty/CMSIS/Include/core_cmInstr.h **** 
 270:/home/torbjorn/eclipse-workspace/CoreNG/asf/thirdparty/CMSIS/Include/core_cmInstr.h **** 
 271:/home/torbjorn/eclipse-workspace/CoreNG/asf/thirdparty/CMSIS/Include/core_cmInstr.h **** /** \brief  Unsigned Saturate
 272:/home/torbjorn/eclipse-workspace/CoreNG/asf/thirdparty/CMSIS/Include/core_cmInstr.h **** 
 273:/home/torbjorn/eclipse-workspace/CoreNG/asf/thirdparty/CMSIS/Include/core_cmInstr.h ****     This function saturates an unsigned value.
 274:/home/torbjorn/eclipse-workspace/CoreNG/asf/thirdparty/CMSIS/Include/core_cmInstr.h **** 
 275:/home/torbjorn/eclipse-workspace/CoreNG/asf/thirdparty/CMSIS/Include/core_cmInstr.h ****     \param [in]  value  Value to be saturated
 276:/home/torbjorn/eclipse-workspace/CoreNG/asf/thirdparty/CMSIS/Include/core_cmInstr.h ****     \param [in]    sat  Bit position to saturate to (0..31)
 277:/home/torbjorn/eclipse-workspace/CoreNG/asf/thirdparty/CMSIS/Include/core_cmInstr.h ****     \return             Saturated value
 278:/home/torbjorn/eclipse-workspace/CoreNG/asf/thirdparty/CMSIS/Include/core_cmInstr.h ****  */
 279:/home/torbjorn/eclipse-workspace/CoreNG/asf/thirdparty/CMSIS/Include/core_cmInstr.h **** #define __USAT                            __usat
 280:/home/torbjorn/eclipse-workspace/CoreNG/asf/thirdparty/CMSIS/Include/core_cmInstr.h **** 
 281:/home/torbjorn/eclipse-workspace/CoreNG/asf/thirdparty/CMSIS/Include/core_cmInstr.h **** 
 282:/home/torbjorn/eclipse-workspace/CoreNG/asf/thirdparty/CMSIS/Include/core_cmInstr.h **** /** \brief  Count leading zeros
 283:/home/torbjorn/eclipse-workspace/CoreNG/asf/thirdparty/CMSIS/Include/core_cmInstr.h **** 
 284:/home/torbjorn/eclipse-workspace/CoreNG/asf/thirdparty/CMSIS/Include/core_cmInstr.h ****     This function counts the number of leading zeros of a data value.
 285:/home/torbjorn/eclipse-workspace/CoreNG/asf/thirdparty/CMSIS/Include/core_cmInstr.h **** 
 286:/home/torbjorn/eclipse-workspace/CoreNG/asf/thirdparty/CMSIS/Include/core_cmInstr.h ****     \param [in]  value  Value to count the leading zeros
 287:/home/torbjorn/eclipse-workspace/CoreNG/asf/thirdparty/CMSIS/Include/core_cmInstr.h ****     \return             number of leading zeros in value
 288:/home/torbjorn/eclipse-workspace/CoreNG/asf/thirdparty/CMSIS/Include/core_cmInstr.h ****  */
 289:/home/torbjorn/eclipse-workspace/CoreNG/asf/thirdparty/CMSIS/Include/core_cmInstr.h **** #define __CLZ                             __clz
 290:/home/torbjorn/eclipse-workspace/CoreNG/asf/thirdparty/CMSIS/Include/core_cmInstr.h **** 
 291:/home/torbjorn/eclipse-workspace/CoreNG/asf/thirdparty/CMSIS/Include/core_cmInstr.h **** 
 292:/home/torbjorn/eclipse-workspace/CoreNG/asf/thirdparty/CMSIS/Include/core_cmInstr.h **** /** \brief  Rotate Right with Extend (32 bit)
 293:/home/torbjorn/eclipse-workspace/CoreNG/asf/thirdparty/CMSIS/Include/core_cmInstr.h **** 
 294:/home/torbjorn/eclipse-workspace/CoreNG/asf/thirdparty/CMSIS/Include/core_cmInstr.h ****     This function moves each bit of a bitstring right by one bit. The carry input is shifted in at 
 295:/home/torbjorn/eclipse-workspace/CoreNG/asf/thirdparty/CMSIS/Include/core_cmInstr.h **** 
 296:/home/torbjorn/eclipse-workspace/CoreNG/asf/thirdparty/CMSIS/Include/core_cmInstr.h ****     \param [in]    value  Value to rotate
 297:/home/torbjorn/eclipse-workspace/CoreNG/asf/thirdparty/CMSIS/Include/core_cmInstr.h ****     \return               Rotated value
 298:/home/torbjorn/eclipse-workspace/CoreNG/asf/thirdparty/CMSIS/Include/core_cmInstr.h ****  */
 299:/home/torbjorn/eclipse-workspace/CoreNG/asf/thirdparty/CMSIS/Include/core_cmInstr.h **** #ifndef __NO_EMBEDDED_ASM
 300:/home/torbjorn/eclipse-workspace/CoreNG/asf/thirdparty/CMSIS/Include/core_cmInstr.h **** __attribute__((section(".rrx_text"))) __STATIC_INLINE __ASM uint32_t __RRX(uint32_t value)
 301:/home/torbjorn/eclipse-workspace/CoreNG/asf/thirdparty/CMSIS/Include/core_cmInstr.h **** {
 302:/home/torbjorn/eclipse-workspace/CoreNG/asf/thirdparty/CMSIS/Include/core_cmInstr.h ****   rrx r0, r0
 303:/home/torbjorn/eclipse-workspace/CoreNG/asf/thirdparty/CMSIS/Include/core_cmInstr.h ****   bx lr
 304:/home/torbjorn/eclipse-workspace/CoreNG/asf/thirdparty/CMSIS/Include/core_cmInstr.h **** }
ARM GAS  /tmp/ccLuO05w.s 			page 33


 305:/home/torbjorn/eclipse-workspace/CoreNG/asf/thirdparty/CMSIS/Include/core_cmInstr.h **** #endif
 306:/home/torbjorn/eclipse-workspace/CoreNG/asf/thirdparty/CMSIS/Include/core_cmInstr.h **** 
 307:/home/torbjorn/eclipse-workspace/CoreNG/asf/thirdparty/CMSIS/Include/core_cmInstr.h **** 
 308:/home/torbjorn/eclipse-workspace/CoreNG/asf/thirdparty/CMSIS/Include/core_cmInstr.h **** /** \brief  LDRT Unprivileged (8 bit)
 309:/home/torbjorn/eclipse-workspace/CoreNG/asf/thirdparty/CMSIS/Include/core_cmInstr.h **** 
 310:/home/torbjorn/eclipse-workspace/CoreNG/asf/thirdparty/CMSIS/Include/core_cmInstr.h ****     This function executes a Unprivileged LDRT instruction for 8 bit value.
 311:/home/torbjorn/eclipse-workspace/CoreNG/asf/thirdparty/CMSIS/Include/core_cmInstr.h **** 
 312:/home/torbjorn/eclipse-workspace/CoreNG/asf/thirdparty/CMSIS/Include/core_cmInstr.h ****     \param [in]    ptr  Pointer to data
 313:/home/torbjorn/eclipse-workspace/CoreNG/asf/thirdparty/CMSIS/Include/core_cmInstr.h ****     \return             value of type uint8_t at (*ptr)
 314:/home/torbjorn/eclipse-workspace/CoreNG/asf/thirdparty/CMSIS/Include/core_cmInstr.h ****  */
 315:/home/torbjorn/eclipse-workspace/CoreNG/asf/thirdparty/CMSIS/Include/core_cmInstr.h **** #define __LDRBT(ptr)                      ((uint8_t )  __ldrt(ptr))
 316:/home/torbjorn/eclipse-workspace/CoreNG/asf/thirdparty/CMSIS/Include/core_cmInstr.h **** 
 317:/home/torbjorn/eclipse-workspace/CoreNG/asf/thirdparty/CMSIS/Include/core_cmInstr.h **** 
 318:/home/torbjorn/eclipse-workspace/CoreNG/asf/thirdparty/CMSIS/Include/core_cmInstr.h **** /** \brief  LDRT Unprivileged (16 bit)
 319:/home/torbjorn/eclipse-workspace/CoreNG/asf/thirdparty/CMSIS/Include/core_cmInstr.h **** 
 320:/home/torbjorn/eclipse-workspace/CoreNG/asf/thirdparty/CMSIS/Include/core_cmInstr.h ****     This function executes a Unprivileged LDRT instruction for 16 bit values.
 321:/home/torbjorn/eclipse-workspace/CoreNG/asf/thirdparty/CMSIS/Include/core_cmInstr.h **** 
 322:/home/torbjorn/eclipse-workspace/CoreNG/asf/thirdparty/CMSIS/Include/core_cmInstr.h ****     \param [in]    ptr  Pointer to data
 323:/home/torbjorn/eclipse-workspace/CoreNG/asf/thirdparty/CMSIS/Include/core_cmInstr.h ****     \return        value of type uint16_t at (*ptr)
 324:/home/torbjorn/eclipse-workspace/CoreNG/asf/thirdparty/CMSIS/Include/core_cmInstr.h ****  */
 325:/home/torbjorn/eclipse-workspace/CoreNG/asf/thirdparty/CMSIS/Include/core_cmInstr.h **** #define __LDRHT(ptr)                      ((uint16_t)  __ldrt(ptr))
 326:/home/torbjorn/eclipse-workspace/CoreNG/asf/thirdparty/CMSIS/Include/core_cmInstr.h **** 
 327:/home/torbjorn/eclipse-workspace/CoreNG/asf/thirdparty/CMSIS/Include/core_cmInstr.h **** 
 328:/home/torbjorn/eclipse-workspace/CoreNG/asf/thirdparty/CMSIS/Include/core_cmInstr.h **** /** \brief  LDRT Unprivileged (32 bit)
 329:/home/torbjorn/eclipse-workspace/CoreNG/asf/thirdparty/CMSIS/Include/core_cmInstr.h **** 
 330:/home/torbjorn/eclipse-workspace/CoreNG/asf/thirdparty/CMSIS/Include/core_cmInstr.h ****     This function executes a Unprivileged LDRT instruction for 32 bit values.
 331:/home/torbjorn/eclipse-workspace/CoreNG/asf/thirdparty/CMSIS/Include/core_cmInstr.h **** 
 332:/home/torbjorn/eclipse-workspace/CoreNG/asf/thirdparty/CMSIS/Include/core_cmInstr.h ****     \param [in]    ptr  Pointer to data
 333:/home/torbjorn/eclipse-workspace/CoreNG/asf/thirdparty/CMSIS/Include/core_cmInstr.h ****     \return        value of type uint32_t at (*ptr)
 334:/home/torbjorn/eclipse-workspace/CoreNG/asf/thirdparty/CMSIS/Include/core_cmInstr.h ****  */
 335:/home/torbjorn/eclipse-workspace/CoreNG/asf/thirdparty/CMSIS/Include/core_cmInstr.h **** #define __LDRT(ptr)                       ((uint32_t ) __ldrt(ptr))
 336:/home/torbjorn/eclipse-workspace/CoreNG/asf/thirdparty/CMSIS/Include/core_cmInstr.h **** 
 337:/home/torbjorn/eclipse-workspace/CoreNG/asf/thirdparty/CMSIS/Include/core_cmInstr.h **** 
 338:/home/torbjorn/eclipse-workspace/CoreNG/asf/thirdparty/CMSIS/Include/core_cmInstr.h **** /** \brief  STRT Unprivileged (8 bit)
 339:/home/torbjorn/eclipse-workspace/CoreNG/asf/thirdparty/CMSIS/Include/core_cmInstr.h **** 
 340:/home/torbjorn/eclipse-workspace/CoreNG/asf/thirdparty/CMSIS/Include/core_cmInstr.h ****     This function executes a Unprivileged STRT instruction for 8 bit values.
 341:/home/torbjorn/eclipse-workspace/CoreNG/asf/thirdparty/CMSIS/Include/core_cmInstr.h **** 
 342:/home/torbjorn/eclipse-workspace/CoreNG/asf/thirdparty/CMSIS/Include/core_cmInstr.h ****     \param [in]  value  Value to store
 343:/home/torbjorn/eclipse-workspace/CoreNG/asf/thirdparty/CMSIS/Include/core_cmInstr.h ****     \param [in]    ptr  Pointer to location
 344:/home/torbjorn/eclipse-workspace/CoreNG/asf/thirdparty/CMSIS/Include/core_cmInstr.h ****  */
 345:/home/torbjorn/eclipse-workspace/CoreNG/asf/thirdparty/CMSIS/Include/core_cmInstr.h **** #define __STRBT(value, ptr)               __strt(value, ptr)
 346:/home/torbjorn/eclipse-workspace/CoreNG/asf/thirdparty/CMSIS/Include/core_cmInstr.h **** 
 347:/home/torbjorn/eclipse-workspace/CoreNG/asf/thirdparty/CMSIS/Include/core_cmInstr.h **** 
 348:/home/torbjorn/eclipse-workspace/CoreNG/asf/thirdparty/CMSIS/Include/core_cmInstr.h **** /** \brief  STRT Unprivileged (16 bit)
 349:/home/torbjorn/eclipse-workspace/CoreNG/asf/thirdparty/CMSIS/Include/core_cmInstr.h **** 
 350:/home/torbjorn/eclipse-workspace/CoreNG/asf/thirdparty/CMSIS/Include/core_cmInstr.h ****     This function executes a Unprivileged STRT instruction for 16 bit values.
 351:/home/torbjorn/eclipse-workspace/CoreNG/asf/thirdparty/CMSIS/Include/core_cmInstr.h **** 
 352:/home/torbjorn/eclipse-workspace/CoreNG/asf/thirdparty/CMSIS/Include/core_cmInstr.h ****     \param [in]  value  Value to store
 353:/home/torbjorn/eclipse-workspace/CoreNG/asf/thirdparty/CMSIS/Include/core_cmInstr.h ****     \param [in]    ptr  Pointer to location
 354:/home/torbjorn/eclipse-workspace/CoreNG/asf/thirdparty/CMSIS/Include/core_cmInstr.h ****  */
 355:/home/torbjorn/eclipse-workspace/CoreNG/asf/thirdparty/CMSIS/Include/core_cmInstr.h **** #define __STRHT(value, ptr)               __strt(value, ptr)
 356:/home/torbjorn/eclipse-workspace/CoreNG/asf/thirdparty/CMSIS/Include/core_cmInstr.h **** 
 357:/home/torbjorn/eclipse-workspace/CoreNG/asf/thirdparty/CMSIS/Include/core_cmInstr.h **** 
 358:/home/torbjorn/eclipse-workspace/CoreNG/asf/thirdparty/CMSIS/Include/core_cmInstr.h **** /** \brief  STRT Unprivileged (32 bit)
 359:/home/torbjorn/eclipse-workspace/CoreNG/asf/thirdparty/CMSIS/Include/core_cmInstr.h **** 
 360:/home/torbjorn/eclipse-workspace/CoreNG/asf/thirdparty/CMSIS/Include/core_cmInstr.h ****     This function executes a Unprivileged STRT instruction for 32 bit values.
 361:/home/torbjorn/eclipse-workspace/CoreNG/asf/thirdparty/CMSIS/Include/core_cmInstr.h **** 
ARM GAS  /tmp/ccLuO05w.s 			page 34


 362:/home/torbjorn/eclipse-workspace/CoreNG/asf/thirdparty/CMSIS/Include/core_cmInstr.h ****     \param [in]  value  Value to store
 363:/home/torbjorn/eclipse-workspace/CoreNG/asf/thirdparty/CMSIS/Include/core_cmInstr.h ****     \param [in]    ptr  Pointer to location
 364:/home/torbjorn/eclipse-workspace/CoreNG/asf/thirdparty/CMSIS/Include/core_cmInstr.h ****  */
 365:/home/torbjorn/eclipse-workspace/CoreNG/asf/thirdparty/CMSIS/Include/core_cmInstr.h **** #define __STRT(value, ptr)                __strt(value, ptr)
 366:/home/torbjorn/eclipse-workspace/CoreNG/asf/thirdparty/CMSIS/Include/core_cmInstr.h **** 
 367:/home/torbjorn/eclipse-workspace/CoreNG/asf/thirdparty/CMSIS/Include/core_cmInstr.h **** #endif /* (__CORTEX_M >= 0x03) || (__CORTEX_SC >= 300) */
 368:/home/torbjorn/eclipse-workspace/CoreNG/asf/thirdparty/CMSIS/Include/core_cmInstr.h **** 
 369:/home/torbjorn/eclipse-workspace/CoreNG/asf/thirdparty/CMSIS/Include/core_cmInstr.h **** 
 370:/home/torbjorn/eclipse-workspace/CoreNG/asf/thirdparty/CMSIS/Include/core_cmInstr.h **** #elif defined ( __GNUC__ ) /*------------------ GNU Compiler ---------------------*/
 371:/home/torbjorn/eclipse-workspace/CoreNG/asf/thirdparty/CMSIS/Include/core_cmInstr.h **** /* GNU gcc specific functions */
 372:/home/torbjorn/eclipse-workspace/CoreNG/asf/thirdparty/CMSIS/Include/core_cmInstr.h **** 
 373:/home/torbjorn/eclipse-workspace/CoreNG/asf/thirdparty/CMSIS/Include/core_cmInstr.h **** /* Define macros for porting to both thumb1 and thumb2.
 374:/home/torbjorn/eclipse-workspace/CoreNG/asf/thirdparty/CMSIS/Include/core_cmInstr.h ****  * For thumb1, use low register (r0-r7), specified by constrant "l"
 375:/home/torbjorn/eclipse-workspace/CoreNG/asf/thirdparty/CMSIS/Include/core_cmInstr.h ****  * Otherwise, use general registers, specified by constrant "r" */
 376:/home/torbjorn/eclipse-workspace/CoreNG/asf/thirdparty/CMSIS/Include/core_cmInstr.h **** #if defined (__thumb__) && !defined (__thumb2__)
 377:/home/torbjorn/eclipse-workspace/CoreNG/asf/thirdparty/CMSIS/Include/core_cmInstr.h **** #define __CMSIS_GCC_OUT_REG(r) "=l" (r)
 378:/home/torbjorn/eclipse-workspace/CoreNG/asf/thirdparty/CMSIS/Include/core_cmInstr.h **** #define __CMSIS_GCC_USE_REG(r) "l" (r)
 379:/home/torbjorn/eclipse-workspace/CoreNG/asf/thirdparty/CMSIS/Include/core_cmInstr.h **** #else
 380:/home/torbjorn/eclipse-workspace/CoreNG/asf/thirdparty/CMSIS/Include/core_cmInstr.h **** #define __CMSIS_GCC_OUT_REG(r) "=r" (r)
 381:/home/torbjorn/eclipse-workspace/CoreNG/asf/thirdparty/CMSIS/Include/core_cmInstr.h **** #define __CMSIS_GCC_USE_REG(r) "r" (r)
 382:/home/torbjorn/eclipse-workspace/CoreNG/asf/thirdparty/CMSIS/Include/core_cmInstr.h **** #endif
 383:/home/torbjorn/eclipse-workspace/CoreNG/asf/thirdparty/CMSIS/Include/core_cmInstr.h **** 
 384:/home/torbjorn/eclipse-workspace/CoreNG/asf/thirdparty/CMSIS/Include/core_cmInstr.h **** /** \brief  No Operation
 385:/home/torbjorn/eclipse-workspace/CoreNG/asf/thirdparty/CMSIS/Include/core_cmInstr.h **** 
 386:/home/torbjorn/eclipse-workspace/CoreNG/asf/thirdparty/CMSIS/Include/core_cmInstr.h ****     No Operation does nothing. This instruction can be used for code alignment purposes.
 387:/home/torbjorn/eclipse-workspace/CoreNG/asf/thirdparty/CMSIS/Include/core_cmInstr.h ****  */
 388:/home/torbjorn/eclipse-workspace/CoreNG/asf/thirdparty/CMSIS/Include/core_cmInstr.h **** __attribute__( ( always_inline ) ) __STATIC_INLINE void __NOP(void)
 389:/home/torbjorn/eclipse-workspace/CoreNG/asf/thirdparty/CMSIS/Include/core_cmInstr.h **** {
 390:/home/torbjorn/eclipse-workspace/CoreNG/asf/thirdparty/CMSIS/Include/core_cmInstr.h ****   __ASM volatile ("nop");
 391:/home/torbjorn/eclipse-workspace/CoreNG/asf/thirdparty/CMSIS/Include/core_cmInstr.h **** }
 392:/home/torbjorn/eclipse-workspace/CoreNG/asf/thirdparty/CMSIS/Include/core_cmInstr.h **** 
 393:/home/torbjorn/eclipse-workspace/CoreNG/asf/thirdparty/CMSIS/Include/core_cmInstr.h **** 
 394:/home/torbjorn/eclipse-workspace/CoreNG/asf/thirdparty/CMSIS/Include/core_cmInstr.h **** /** \brief  Wait For Interrupt
 395:/home/torbjorn/eclipse-workspace/CoreNG/asf/thirdparty/CMSIS/Include/core_cmInstr.h **** 
 396:/home/torbjorn/eclipse-workspace/CoreNG/asf/thirdparty/CMSIS/Include/core_cmInstr.h ****     Wait For Interrupt is a hint instruction that suspends execution
 397:/home/torbjorn/eclipse-workspace/CoreNG/asf/thirdparty/CMSIS/Include/core_cmInstr.h ****     until one of a number of events occurs.
 398:/home/torbjorn/eclipse-workspace/CoreNG/asf/thirdparty/CMSIS/Include/core_cmInstr.h ****  */
 399:/home/torbjorn/eclipse-workspace/CoreNG/asf/thirdparty/CMSIS/Include/core_cmInstr.h **** __attribute__( ( always_inline ) ) __STATIC_INLINE void __WFI(void)
 400:/home/torbjorn/eclipse-workspace/CoreNG/asf/thirdparty/CMSIS/Include/core_cmInstr.h **** {
 401:/home/torbjorn/eclipse-workspace/CoreNG/asf/thirdparty/CMSIS/Include/core_cmInstr.h ****   __ASM volatile ("wfi");
 402:/home/torbjorn/eclipse-workspace/CoreNG/asf/thirdparty/CMSIS/Include/core_cmInstr.h **** }
 403:/home/torbjorn/eclipse-workspace/CoreNG/asf/thirdparty/CMSIS/Include/core_cmInstr.h **** 
 404:/home/torbjorn/eclipse-workspace/CoreNG/asf/thirdparty/CMSIS/Include/core_cmInstr.h **** 
 405:/home/torbjorn/eclipse-workspace/CoreNG/asf/thirdparty/CMSIS/Include/core_cmInstr.h **** /** \brief  Wait For Event
 406:/home/torbjorn/eclipse-workspace/CoreNG/asf/thirdparty/CMSIS/Include/core_cmInstr.h **** 
 407:/home/torbjorn/eclipse-workspace/CoreNG/asf/thirdparty/CMSIS/Include/core_cmInstr.h ****     Wait For Event is a hint instruction that permits the processor to enter
 408:/home/torbjorn/eclipse-workspace/CoreNG/asf/thirdparty/CMSIS/Include/core_cmInstr.h ****     a low-power state until one of a number of events occurs.
 409:/home/torbjorn/eclipse-workspace/CoreNG/asf/thirdparty/CMSIS/Include/core_cmInstr.h ****  */
 410:/home/torbjorn/eclipse-workspace/CoreNG/asf/thirdparty/CMSIS/Include/core_cmInstr.h **** __attribute__( ( always_inline ) ) __STATIC_INLINE void __WFE(void)
 411:/home/torbjorn/eclipse-workspace/CoreNG/asf/thirdparty/CMSIS/Include/core_cmInstr.h **** {
 412:/home/torbjorn/eclipse-workspace/CoreNG/asf/thirdparty/CMSIS/Include/core_cmInstr.h ****   __ASM volatile ("wfe");
 413:/home/torbjorn/eclipse-workspace/CoreNG/asf/thirdparty/CMSIS/Include/core_cmInstr.h **** }
 414:/home/torbjorn/eclipse-workspace/CoreNG/asf/thirdparty/CMSIS/Include/core_cmInstr.h **** 
 415:/home/torbjorn/eclipse-workspace/CoreNG/asf/thirdparty/CMSIS/Include/core_cmInstr.h **** 
 416:/home/torbjorn/eclipse-workspace/CoreNG/asf/thirdparty/CMSIS/Include/core_cmInstr.h **** /** \brief  Send Event
 417:/home/torbjorn/eclipse-workspace/CoreNG/asf/thirdparty/CMSIS/Include/core_cmInstr.h **** 
 418:/home/torbjorn/eclipse-workspace/CoreNG/asf/thirdparty/CMSIS/Include/core_cmInstr.h ****     Send Event is a hint instruction. It causes an event to be signaled to the CPU.
ARM GAS  /tmp/ccLuO05w.s 			page 35


 419:/home/torbjorn/eclipse-workspace/CoreNG/asf/thirdparty/CMSIS/Include/core_cmInstr.h ****  */
 420:/home/torbjorn/eclipse-workspace/CoreNG/asf/thirdparty/CMSIS/Include/core_cmInstr.h **** __attribute__( ( always_inline ) ) __STATIC_INLINE void __SEV(void)
 421:/home/torbjorn/eclipse-workspace/CoreNG/asf/thirdparty/CMSIS/Include/core_cmInstr.h **** {
 422:/home/torbjorn/eclipse-workspace/CoreNG/asf/thirdparty/CMSIS/Include/core_cmInstr.h ****   __ASM volatile ("sev");
 423:/home/torbjorn/eclipse-workspace/CoreNG/asf/thirdparty/CMSIS/Include/core_cmInstr.h **** }
 424:/home/torbjorn/eclipse-workspace/CoreNG/asf/thirdparty/CMSIS/Include/core_cmInstr.h **** 
 425:/home/torbjorn/eclipse-workspace/CoreNG/asf/thirdparty/CMSIS/Include/core_cmInstr.h **** 
 426:/home/torbjorn/eclipse-workspace/CoreNG/asf/thirdparty/CMSIS/Include/core_cmInstr.h **** /** \brief  Instruction Synchronization Barrier
 427:/home/torbjorn/eclipse-workspace/CoreNG/asf/thirdparty/CMSIS/Include/core_cmInstr.h **** 
 428:/home/torbjorn/eclipse-workspace/CoreNG/asf/thirdparty/CMSIS/Include/core_cmInstr.h ****     Instruction Synchronization Barrier flushes the pipeline in the processor,
 429:/home/torbjorn/eclipse-workspace/CoreNG/asf/thirdparty/CMSIS/Include/core_cmInstr.h ****     so that all instructions following the ISB are fetched from cache or
 430:/home/torbjorn/eclipse-workspace/CoreNG/asf/thirdparty/CMSIS/Include/core_cmInstr.h ****     memory, after the instruction has been completed.
 431:/home/torbjorn/eclipse-workspace/CoreNG/asf/thirdparty/CMSIS/Include/core_cmInstr.h ****  */
 432:/home/torbjorn/eclipse-workspace/CoreNG/asf/thirdparty/CMSIS/Include/core_cmInstr.h **** __attribute__( ( always_inline ) ) __STATIC_INLINE void __ISB(void)
 433:/home/torbjorn/eclipse-workspace/CoreNG/asf/thirdparty/CMSIS/Include/core_cmInstr.h **** {
 434:/home/torbjorn/eclipse-workspace/CoreNG/asf/thirdparty/CMSIS/Include/core_cmInstr.h ****   __ASM volatile ("isb");
 435:/home/torbjorn/eclipse-workspace/CoreNG/asf/thirdparty/CMSIS/Include/core_cmInstr.h **** }
 436:/home/torbjorn/eclipse-workspace/CoreNG/asf/thirdparty/CMSIS/Include/core_cmInstr.h **** 
 437:/home/torbjorn/eclipse-workspace/CoreNG/asf/thirdparty/CMSIS/Include/core_cmInstr.h **** 
 438:/home/torbjorn/eclipse-workspace/CoreNG/asf/thirdparty/CMSIS/Include/core_cmInstr.h **** /** \brief  Data Synchronization Barrier
 439:/home/torbjorn/eclipse-workspace/CoreNG/asf/thirdparty/CMSIS/Include/core_cmInstr.h **** 
 440:/home/torbjorn/eclipse-workspace/CoreNG/asf/thirdparty/CMSIS/Include/core_cmInstr.h ****     This function acts as a special kind of Data Memory Barrier.
 441:/home/torbjorn/eclipse-workspace/CoreNG/asf/thirdparty/CMSIS/Include/core_cmInstr.h ****     It completes when all explicit memory accesses before this instruction complete.
 442:/home/torbjorn/eclipse-workspace/CoreNG/asf/thirdparty/CMSIS/Include/core_cmInstr.h ****  */
 443:/home/torbjorn/eclipse-workspace/CoreNG/asf/thirdparty/CMSIS/Include/core_cmInstr.h **** __attribute__( ( always_inline ) ) __STATIC_INLINE void __DSB(void)
 444:/home/torbjorn/eclipse-workspace/CoreNG/asf/thirdparty/CMSIS/Include/core_cmInstr.h **** {
 445:/home/torbjorn/eclipse-workspace/CoreNG/asf/thirdparty/CMSIS/Include/core_cmInstr.h ****   __ASM volatile ("dsb");
 446:/home/torbjorn/eclipse-workspace/CoreNG/asf/thirdparty/CMSIS/Include/core_cmInstr.h **** }
 447:/home/torbjorn/eclipse-workspace/CoreNG/asf/thirdparty/CMSIS/Include/core_cmInstr.h **** 
 448:/home/torbjorn/eclipse-workspace/CoreNG/asf/thirdparty/CMSIS/Include/core_cmInstr.h **** 
 449:/home/torbjorn/eclipse-workspace/CoreNG/asf/thirdparty/CMSIS/Include/core_cmInstr.h **** /** \brief  Data Memory Barrier
 450:/home/torbjorn/eclipse-workspace/CoreNG/asf/thirdparty/CMSIS/Include/core_cmInstr.h **** 
 451:/home/torbjorn/eclipse-workspace/CoreNG/asf/thirdparty/CMSIS/Include/core_cmInstr.h ****     This function ensures the apparent order of the explicit memory operations before
 452:/home/torbjorn/eclipse-workspace/CoreNG/asf/thirdparty/CMSIS/Include/core_cmInstr.h ****     and after the instruction, without ensuring their completion.
 453:/home/torbjorn/eclipse-workspace/CoreNG/asf/thirdparty/CMSIS/Include/core_cmInstr.h ****  */
 454:/home/torbjorn/eclipse-workspace/CoreNG/asf/thirdparty/CMSIS/Include/core_cmInstr.h **** __attribute__( ( always_inline ) ) __STATIC_INLINE void __DMB(void)
 455:/home/torbjorn/eclipse-workspace/CoreNG/asf/thirdparty/CMSIS/Include/core_cmInstr.h **** {
 456:/home/torbjorn/eclipse-workspace/CoreNG/asf/thirdparty/CMSIS/Include/core_cmInstr.h ****   __ASM volatile ("dmb");
 587              		.loc 3 456 0
 588              		.syntax unified
 589              	@ 456 "/home/torbjorn/eclipse-workspace/CoreNG/asf/thirdparty/CMSIS/Include/core_cmInstr.h" 1
 590 0016 BFF35F8F 		dmb
 591              	@ 0 "" 2
 592              		.thumb
 593              		.syntax unified
 594              	.LBE39:
 595              	.LBE38:
 596              	.LBE33:
 597              	.LBE32:
 280:../asf/sam/drivers/efc/efc.c **** 			EEFC_FCR_FCMD(ul_command));
 598              		.loc 1 280 0
 599 001a 0A4B     		ldr	r3, .L49
 281:../asf/sam/drivers/efc/efc.c **** 	cpu_irq_restore(flags);
 600              		.loc 1 281 0
 601 001c C9B2     		uxtb	r1, r1
 602              	.LVL52:
 603              	.LBB42:
ARM GAS  /tmp/ccLuO05w.s 			page 36


 604              	.LBB40:
 605              		.file 4 "/home/torbjorn/eclipse-workspace/CoreNG/asf/common/utils/interrupt/interrupt_sam_nvic.h"
   1:/home/torbjorn/eclipse-workspace/CoreNG/asf/common/utils/interrupt/interrupt_sam_nvic.h **** /**
   2:/home/torbjorn/eclipse-workspace/CoreNG/asf/common/utils/interrupt/interrupt_sam_nvic.h ****  * \file
   3:/home/torbjorn/eclipse-workspace/CoreNG/asf/common/utils/interrupt/interrupt_sam_nvic.h ****  *
   4:/home/torbjorn/eclipse-workspace/CoreNG/asf/common/utils/interrupt/interrupt_sam_nvic.h ****  * \brief Global interrupt management for SAM D20, SAM3 and SAM4 (NVIC based)
   5:/home/torbjorn/eclipse-workspace/CoreNG/asf/common/utils/interrupt/interrupt_sam_nvic.h ****  *
   6:/home/torbjorn/eclipse-workspace/CoreNG/asf/common/utils/interrupt/interrupt_sam_nvic.h ****  * Copyright (c) 2012-2015 Atmel Corporation. All rights reserved.
   7:/home/torbjorn/eclipse-workspace/CoreNG/asf/common/utils/interrupt/interrupt_sam_nvic.h ****  *
   8:/home/torbjorn/eclipse-workspace/CoreNG/asf/common/utils/interrupt/interrupt_sam_nvic.h ****  * \asf_license_start
   9:/home/torbjorn/eclipse-workspace/CoreNG/asf/common/utils/interrupt/interrupt_sam_nvic.h ****  *
  10:/home/torbjorn/eclipse-workspace/CoreNG/asf/common/utils/interrupt/interrupt_sam_nvic.h ****  * \page License
  11:/home/torbjorn/eclipse-workspace/CoreNG/asf/common/utils/interrupt/interrupt_sam_nvic.h ****  *
  12:/home/torbjorn/eclipse-workspace/CoreNG/asf/common/utils/interrupt/interrupt_sam_nvic.h ****  * Redistribution and use in source and binary forms, with or without
  13:/home/torbjorn/eclipse-workspace/CoreNG/asf/common/utils/interrupt/interrupt_sam_nvic.h ****  * modification, are permitted provided that the following conditions are met:
  14:/home/torbjorn/eclipse-workspace/CoreNG/asf/common/utils/interrupt/interrupt_sam_nvic.h ****  *
  15:/home/torbjorn/eclipse-workspace/CoreNG/asf/common/utils/interrupt/interrupt_sam_nvic.h ****  * 1. Redistributions of source code must retain the above copyright notice,
  16:/home/torbjorn/eclipse-workspace/CoreNG/asf/common/utils/interrupt/interrupt_sam_nvic.h ****  *    this list of conditions and the following disclaimer.
  17:/home/torbjorn/eclipse-workspace/CoreNG/asf/common/utils/interrupt/interrupt_sam_nvic.h ****  *
  18:/home/torbjorn/eclipse-workspace/CoreNG/asf/common/utils/interrupt/interrupt_sam_nvic.h ****  * 2. Redistributions in binary form must reproduce the above copyright notice,
  19:/home/torbjorn/eclipse-workspace/CoreNG/asf/common/utils/interrupt/interrupt_sam_nvic.h ****  *    this list of conditions and the following disclaimer in the documentation
  20:/home/torbjorn/eclipse-workspace/CoreNG/asf/common/utils/interrupt/interrupt_sam_nvic.h ****  *    and/or other materials provided with the distribution.
  21:/home/torbjorn/eclipse-workspace/CoreNG/asf/common/utils/interrupt/interrupt_sam_nvic.h ****  *
  22:/home/torbjorn/eclipse-workspace/CoreNG/asf/common/utils/interrupt/interrupt_sam_nvic.h ****  * 3. The name of Atmel may not be used to endorse or promote products derived
  23:/home/torbjorn/eclipse-workspace/CoreNG/asf/common/utils/interrupt/interrupt_sam_nvic.h ****  *    from this software without specific prior written permission.
  24:/home/torbjorn/eclipse-workspace/CoreNG/asf/common/utils/interrupt/interrupt_sam_nvic.h ****  *
  25:/home/torbjorn/eclipse-workspace/CoreNG/asf/common/utils/interrupt/interrupt_sam_nvic.h ****  * 4. This software may only be redistributed and used in connection with an
  26:/home/torbjorn/eclipse-workspace/CoreNG/asf/common/utils/interrupt/interrupt_sam_nvic.h ****  *    Atmel microcontroller product.
  27:/home/torbjorn/eclipse-workspace/CoreNG/asf/common/utils/interrupt/interrupt_sam_nvic.h ****  *
  28:/home/torbjorn/eclipse-workspace/CoreNG/asf/common/utils/interrupt/interrupt_sam_nvic.h ****  * THIS SOFTWARE IS PROVIDED BY ATMEL "AS IS" AND ANY EXPRESS OR IMPLIED
  29:/home/torbjorn/eclipse-workspace/CoreNG/asf/common/utils/interrupt/interrupt_sam_nvic.h ****  * WARRANTIES, INCLUDING, BUT NOT LIMITED TO, THE IMPLIED WARRANTIES OF
  30:/home/torbjorn/eclipse-workspace/CoreNG/asf/common/utils/interrupt/interrupt_sam_nvic.h ****  * MERCHANTABILITY, FITNESS FOR A PARTICULAR PURPOSE AND NON-INFRINGEMENT ARE
  31:/home/torbjorn/eclipse-workspace/CoreNG/asf/common/utils/interrupt/interrupt_sam_nvic.h ****  * EXPRESSLY AND SPECIFICALLY DISCLAIMED. IN NO EVENT SHALL ATMEL BE LIABLE FOR
  32:/home/torbjorn/eclipse-workspace/CoreNG/asf/common/utils/interrupt/interrupt_sam_nvic.h ****  * ANY DIRECT, INDIRECT, INCIDENTAL, SPECIAL, EXEMPLARY, OR CONSEQUENTIAL
  33:/home/torbjorn/eclipse-workspace/CoreNG/asf/common/utils/interrupt/interrupt_sam_nvic.h ****  * DAMAGES (INCLUDING, BUT NOT LIMITED TO, PROCUREMENT OF SUBSTITUTE GOODS
  34:/home/torbjorn/eclipse-workspace/CoreNG/asf/common/utils/interrupt/interrupt_sam_nvic.h ****  * OR SERVICES; LOSS OF USE, DATA, OR PROFITS; OR BUSINESS INTERRUPTION)
  35:/home/torbjorn/eclipse-workspace/CoreNG/asf/common/utils/interrupt/interrupt_sam_nvic.h ****  * HOWEVER CAUSED AND ON ANY THEORY OF LIABILITY, WHETHER IN CONTRACT,
  36:/home/torbjorn/eclipse-workspace/CoreNG/asf/common/utils/interrupt/interrupt_sam_nvic.h ****  * STRICT LIABILITY, OR TORT (INCLUDING NEGLIGENCE OR OTHERWISE) ARISING IN
  37:/home/torbjorn/eclipse-workspace/CoreNG/asf/common/utils/interrupt/interrupt_sam_nvic.h ****  * ANY WAY OUT OF THE USE OF THIS SOFTWARE, EVEN IF ADVISED OF THE
  38:/home/torbjorn/eclipse-workspace/CoreNG/asf/common/utils/interrupt/interrupt_sam_nvic.h ****  * POSSIBILITY OF SUCH DAMAGE.
  39:/home/torbjorn/eclipse-workspace/CoreNG/asf/common/utils/interrupt/interrupt_sam_nvic.h ****  *
  40:/home/torbjorn/eclipse-workspace/CoreNG/asf/common/utils/interrupt/interrupt_sam_nvic.h ****  * \asf_license_stop
  41:/home/torbjorn/eclipse-workspace/CoreNG/asf/common/utils/interrupt/interrupt_sam_nvic.h ****  *
  42:/home/torbjorn/eclipse-workspace/CoreNG/asf/common/utils/interrupt/interrupt_sam_nvic.h ****  */
  43:/home/torbjorn/eclipse-workspace/CoreNG/asf/common/utils/interrupt/interrupt_sam_nvic.h **** /*
  44:/home/torbjorn/eclipse-workspace/CoreNG/asf/common/utils/interrupt/interrupt_sam_nvic.h ****  * Support and FAQ: visit <a href="http://www.atmel.com/design-support/">Atmel Support</a>
  45:/home/torbjorn/eclipse-workspace/CoreNG/asf/common/utils/interrupt/interrupt_sam_nvic.h ****  */
  46:/home/torbjorn/eclipse-workspace/CoreNG/asf/common/utils/interrupt/interrupt_sam_nvic.h **** 
  47:/home/torbjorn/eclipse-workspace/CoreNG/asf/common/utils/interrupt/interrupt_sam_nvic.h **** #ifndef UTILS_INTERRUPT_INTERRUPT_H
  48:/home/torbjorn/eclipse-workspace/CoreNG/asf/common/utils/interrupt/interrupt_sam_nvic.h **** #define UTILS_INTERRUPT_INTERRUPT_H
  49:/home/torbjorn/eclipse-workspace/CoreNG/asf/common/utils/interrupt/interrupt_sam_nvic.h **** 
  50:/home/torbjorn/eclipse-workspace/CoreNG/asf/common/utils/interrupt/interrupt_sam_nvic.h **** #include <compiler.h>
  51:/home/torbjorn/eclipse-workspace/CoreNG/asf/common/utils/interrupt/interrupt_sam_nvic.h **** #include <parts.h>
  52:/home/torbjorn/eclipse-workspace/CoreNG/asf/common/utils/interrupt/interrupt_sam_nvic.h **** 
  53:/home/torbjorn/eclipse-workspace/CoreNG/asf/common/utils/interrupt/interrupt_sam_nvic.h **** #ifdef __cplusplus
  54:/home/torbjorn/eclipse-workspace/CoreNG/asf/common/utils/interrupt/interrupt_sam_nvic.h **** extern "C" {
  55:/home/torbjorn/eclipse-workspace/CoreNG/asf/common/utils/interrupt/interrupt_sam_nvic.h **** #endif
ARM GAS  /tmp/ccLuO05w.s 			page 37


  56:/home/torbjorn/eclipse-workspace/CoreNG/asf/common/utils/interrupt/interrupt_sam_nvic.h **** 
  57:/home/torbjorn/eclipse-workspace/CoreNG/asf/common/utils/interrupt/interrupt_sam_nvic.h **** /**
  58:/home/torbjorn/eclipse-workspace/CoreNG/asf/common/utils/interrupt/interrupt_sam_nvic.h ****  * \weakgroup interrupt_group
  59:/home/torbjorn/eclipse-workspace/CoreNG/asf/common/utils/interrupt/interrupt_sam_nvic.h ****  *
  60:/home/torbjorn/eclipse-workspace/CoreNG/asf/common/utils/interrupt/interrupt_sam_nvic.h ****  * @{
  61:/home/torbjorn/eclipse-workspace/CoreNG/asf/common/utils/interrupt/interrupt_sam_nvic.h ****  */
  62:/home/torbjorn/eclipse-workspace/CoreNG/asf/common/utils/interrupt/interrupt_sam_nvic.h **** 
  63:/home/torbjorn/eclipse-workspace/CoreNG/asf/common/utils/interrupt/interrupt_sam_nvic.h **** /**
  64:/home/torbjorn/eclipse-workspace/CoreNG/asf/common/utils/interrupt/interrupt_sam_nvic.h ****  * \name Interrupt Service Routine definition
  65:/home/torbjorn/eclipse-workspace/CoreNG/asf/common/utils/interrupt/interrupt_sam_nvic.h ****  *
  66:/home/torbjorn/eclipse-workspace/CoreNG/asf/common/utils/interrupt/interrupt_sam_nvic.h ****  * @{
  67:/home/torbjorn/eclipse-workspace/CoreNG/asf/common/utils/interrupt/interrupt_sam_nvic.h ****  */
  68:/home/torbjorn/eclipse-workspace/CoreNG/asf/common/utils/interrupt/interrupt_sam_nvic.h **** 
  69:/home/torbjorn/eclipse-workspace/CoreNG/asf/common/utils/interrupt/interrupt_sam_nvic.h **** /**
  70:/home/torbjorn/eclipse-workspace/CoreNG/asf/common/utils/interrupt/interrupt_sam_nvic.h ****  * \brief Define service routine
  71:/home/torbjorn/eclipse-workspace/CoreNG/asf/common/utils/interrupt/interrupt_sam_nvic.h ****  *
  72:/home/torbjorn/eclipse-workspace/CoreNG/asf/common/utils/interrupt/interrupt_sam_nvic.h ****  * \note For NVIC devices the interrupt service routines are predefined to
  73:/home/torbjorn/eclipse-workspace/CoreNG/asf/common/utils/interrupt/interrupt_sam_nvic.h ****  *       add to vector table in binary generation, so there is no service
  74:/home/torbjorn/eclipse-workspace/CoreNG/asf/common/utils/interrupt/interrupt_sam_nvic.h ****  *       register at run time. The routine collections are in exceptions.h.
  75:/home/torbjorn/eclipse-workspace/CoreNG/asf/common/utils/interrupt/interrupt_sam_nvic.h ****  *
  76:/home/torbjorn/eclipse-workspace/CoreNG/asf/common/utils/interrupt/interrupt_sam_nvic.h ****  * Usage:
  77:/home/torbjorn/eclipse-workspace/CoreNG/asf/common/utils/interrupt/interrupt_sam_nvic.h ****  * \code
  78:/home/torbjorn/eclipse-workspace/CoreNG/asf/common/utils/interrupt/interrupt_sam_nvic.h **** 	ISR(foo_irq_handler)
  79:/home/torbjorn/eclipse-workspace/CoreNG/asf/common/utils/interrupt/interrupt_sam_nvic.h **** 	{
  80:/home/torbjorn/eclipse-workspace/CoreNG/asf/common/utils/interrupt/interrupt_sam_nvic.h **** 	     // Function definition
  81:/home/torbjorn/eclipse-workspace/CoreNG/asf/common/utils/interrupt/interrupt_sam_nvic.h **** 	     ...
  82:/home/torbjorn/eclipse-workspace/CoreNG/asf/common/utils/interrupt/interrupt_sam_nvic.h **** 	}
  83:/home/torbjorn/eclipse-workspace/CoreNG/asf/common/utils/interrupt/interrupt_sam_nvic.h **** \endcode
  84:/home/torbjorn/eclipse-workspace/CoreNG/asf/common/utils/interrupt/interrupt_sam_nvic.h ****  *
  85:/home/torbjorn/eclipse-workspace/CoreNG/asf/common/utils/interrupt/interrupt_sam_nvic.h ****  * \param func Name for the function.
  86:/home/torbjorn/eclipse-workspace/CoreNG/asf/common/utils/interrupt/interrupt_sam_nvic.h ****  */
  87:/home/torbjorn/eclipse-workspace/CoreNG/asf/common/utils/interrupt/interrupt_sam_nvic.h **** #  define ISR(func)   \
  88:/home/torbjorn/eclipse-workspace/CoreNG/asf/common/utils/interrupt/interrupt_sam_nvic.h **** 	void func (void)
  89:/home/torbjorn/eclipse-workspace/CoreNG/asf/common/utils/interrupt/interrupt_sam_nvic.h **** 
  90:/home/torbjorn/eclipse-workspace/CoreNG/asf/common/utils/interrupt/interrupt_sam_nvic.h **** /**
  91:/home/torbjorn/eclipse-workspace/CoreNG/asf/common/utils/interrupt/interrupt_sam_nvic.h ****  * \brief Initialize interrupt vectors
  92:/home/torbjorn/eclipse-workspace/CoreNG/asf/common/utils/interrupt/interrupt_sam_nvic.h ****  *
  93:/home/torbjorn/eclipse-workspace/CoreNG/asf/common/utils/interrupt/interrupt_sam_nvic.h ****  * For NVIC the interrupt vectors are put in vector table. So nothing
  94:/home/torbjorn/eclipse-workspace/CoreNG/asf/common/utils/interrupt/interrupt_sam_nvic.h ****  * to do to initialize them, except defined the vector function with
  95:/home/torbjorn/eclipse-workspace/CoreNG/asf/common/utils/interrupt/interrupt_sam_nvic.h ****  * right name.
  96:/home/torbjorn/eclipse-workspace/CoreNG/asf/common/utils/interrupt/interrupt_sam_nvic.h ****  *
  97:/home/torbjorn/eclipse-workspace/CoreNG/asf/common/utils/interrupt/interrupt_sam_nvic.h ****  * This must be called prior to \ref irq_register_handler.
  98:/home/torbjorn/eclipse-workspace/CoreNG/asf/common/utils/interrupt/interrupt_sam_nvic.h ****  */
  99:/home/torbjorn/eclipse-workspace/CoreNG/asf/common/utils/interrupt/interrupt_sam_nvic.h **** #  define irq_initialize_vectors()   \
 100:/home/torbjorn/eclipse-workspace/CoreNG/asf/common/utils/interrupt/interrupt_sam_nvic.h **** 	do {                             \
 101:/home/torbjorn/eclipse-workspace/CoreNG/asf/common/utils/interrupt/interrupt_sam_nvic.h **** 	} while(0)
 102:/home/torbjorn/eclipse-workspace/CoreNG/asf/common/utils/interrupt/interrupt_sam_nvic.h **** 
 103:/home/torbjorn/eclipse-workspace/CoreNG/asf/common/utils/interrupt/interrupt_sam_nvic.h **** /**
 104:/home/torbjorn/eclipse-workspace/CoreNG/asf/common/utils/interrupt/interrupt_sam_nvic.h ****  * \brief Register handler for interrupt
 105:/home/torbjorn/eclipse-workspace/CoreNG/asf/common/utils/interrupt/interrupt_sam_nvic.h ****  *
 106:/home/torbjorn/eclipse-workspace/CoreNG/asf/common/utils/interrupt/interrupt_sam_nvic.h ****  * For NVIC the interrupt vectors are put in vector table. So nothing
 107:/home/torbjorn/eclipse-workspace/CoreNG/asf/common/utils/interrupt/interrupt_sam_nvic.h ****  * to do to register them, except defined the vector function with
 108:/home/torbjorn/eclipse-workspace/CoreNG/asf/common/utils/interrupt/interrupt_sam_nvic.h ****  * right name.
 109:/home/torbjorn/eclipse-workspace/CoreNG/asf/common/utils/interrupt/interrupt_sam_nvic.h ****  *
 110:/home/torbjorn/eclipse-workspace/CoreNG/asf/common/utils/interrupt/interrupt_sam_nvic.h ****  * Usage:
 111:/home/torbjorn/eclipse-workspace/CoreNG/asf/common/utils/interrupt/interrupt_sam_nvic.h ****  * \code
 112:/home/torbjorn/eclipse-workspace/CoreNG/asf/common/utils/interrupt/interrupt_sam_nvic.h **** 	irq_initialize_vectors();
ARM GAS  /tmp/ccLuO05w.s 			page 38


 113:/home/torbjorn/eclipse-workspace/CoreNG/asf/common/utils/interrupt/interrupt_sam_nvic.h **** 	irq_register_handler(foo_irq_handler);
 114:/home/torbjorn/eclipse-workspace/CoreNG/asf/common/utils/interrupt/interrupt_sam_nvic.h **** \endcode
 115:/home/torbjorn/eclipse-workspace/CoreNG/asf/common/utils/interrupt/interrupt_sam_nvic.h ****  *
 116:/home/torbjorn/eclipse-workspace/CoreNG/asf/common/utils/interrupt/interrupt_sam_nvic.h ****  * \note The function \a func must be defined with the \ref ISR macro.
 117:/home/torbjorn/eclipse-workspace/CoreNG/asf/common/utils/interrupt/interrupt_sam_nvic.h ****  * \note The functions prototypes can be found in the device exception header
 118:/home/torbjorn/eclipse-workspace/CoreNG/asf/common/utils/interrupt/interrupt_sam_nvic.h ****  *       files (exceptions.h).
 119:/home/torbjorn/eclipse-workspace/CoreNG/asf/common/utils/interrupt/interrupt_sam_nvic.h ****  */
 120:/home/torbjorn/eclipse-workspace/CoreNG/asf/common/utils/interrupt/interrupt_sam_nvic.h **** #  define irq_register_handler(int_num, int_prio)                      \
 121:/home/torbjorn/eclipse-workspace/CoreNG/asf/common/utils/interrupt/interrupt_sam_nvic.h **** 	NVIC_ClearPendingIRQ(    (IRQn_Type)int_num);                      \
 122:/home/torbjorn/eclipse-workspace/CoreNG/asf/common/utils/interrupt/interrupt_sam_nvic.h **** 	NVIC_SetPriority(    (IRQn_Type)int_num, int_prio);                \
 123:/home/torbjorn/eclipse-workspace/CoreNG/asf/common/utils/interrupt/interrupt_sam_nvic.h **** 	NVIC_EnableIRQ(      (IRQn_Type)int_num);                          \
 124:/home/torbjorn/eclipse-workspace/CoreNG/asf/common/utils/interrupt/interrupt_sam_nvic.h **** 
 125:/home/torbjorn/eclipse-workspace/CoreNG/asf/common/utils/interrupt/interrupt_sam_nvic.h **** //@}
 126:/home/torbjorn/eclipse-workspace/CoreNG/asf/common/utils/interrupt/interrupt_sam_nvic.h **** 
 127:/home/torbjorn/eclipse-workspace/CoreNG/asf/common/utils/interrupt/interrupt_sam_nvic.h **** #  define cpu_irq_enable()                     \
 128:/home/torbjorn/eclipse-workspace/CoreNG/asf/common/utils/interrupt/interrupt_sam_nvic.h **** 	do {                                       \
 129:/home/torbjorn/eclipse-workspace/CoreNG/asf/common/utils/interrupt/interrupt_sam_nvic.h **** 		g_interrupt_enabled = true;            \
 130:/home/torbjorn/eclipse-workspace/CoreNG/asf/common/utils/interrupt/interrupt_sam_nvic.h **** 		__DMB();                               \
 131:/home/torbjorn/eclipse-workspace/CoreNG/asf/common/utils/interrupt/interrupt_sam_nvic.h **** 		__enable_irq();                        \
 132:/home/torbjorn/eclipse-workspace/CoreNG/asf/common/utils/interrupt/interrupt_sam_nvic.h **** 	} while (0)
 133:/home/torbjorn/eclipse-workspace/CoreNG/asf/common/utils/interrupt/interrupt_sam_nvic.h **** #  define cpu_irq_disable()                    \
 134:/home/torbjorn/eclipse-workspace/CoreNG/asf/common/utils/interrupt/interrupt_sam_nvic.h **** 	do {                                       \
 135:/home/torbjorn/eclipse-workspace/CoreNG/asf/common/utils/interrupt/interrupt_sam_nvic.h **** 		__disable_irq();                       \
 136:/home/torbjorn/eclipse-workspace/CoreNG/asf/common/utils/interrupt/interrupt_sam_nvic.h **** 		__DMB();                               \
 137:/home/torbjorn/eclipse-workspace/CoreNG/asf/common/utils/interrupt/interrupt_sam_nvic.h **** 		g_interrupt_enabled = false;           \
 138:/home/torbjorn/eclipse-workspace/CoreNG/asf/common/utils/interrupt/interrupt_sam_nvic.h **** 	} while (0)
 139:/home/torbjorn/eclipse-workspace/CoreNG/asf/common/utils/interrupt/interrupt_sam_nvic.h **** 
 140:/home/torbjorn/eclipse-workspace/CoreNG/asf/common/utils/interrupt/interrupt_sam_nvic.h **** typedef uint32_t irqflags_t;
 141:/home/torbjorn/eclipse-workspace/CoreNG/asf/common/utils/interrupt/interrupt_sam_nvic.h **** 
 142:/home/torbjorn/eclipse-workspace/CoreNG/asf/common/utils/interrupt/interrupt_sam_nvic.h **** #if !defined(__DOXYGEN__)
 143:/home/torbjorn/eclipse-workspace/CoreNG/asf/common/utils/interrupt/interrupt_sam_nvic.h **** extern volatile bool g_interrupt_enabled;
 144:/home/torbjorn/eclipse-workspace/CoreNG/asf/common/utils/interrupt/interrupt_sam_nvic.h **** #endif
 145:/home/torbjorn/eclipse-workspace/CoreNG/asf/common/utils/interrupt/interrupt_sam_nvic.h **** 
 146:/home/torbjorn/eclipse-workspace/CoreNG/asf/common/utils/interrupt/interrupt_sam_nvic.h **** #define cpu_irq_is_enabled()    (__get_PRIMASK() == 0)
 147:/home/torbjorn/eclipse-workspace/CoreNG/asf/common/utils/interrupt/interrupt_sam_nvic.h **** 
 148:/home/torbjorn/eclipse-workspace/CoreNG/asf/common/utils/interrupt/interrupt_sam_nvic.h **** static volatile uint32_t cpu_irq_critical_section_counter;
 149:/home/torbjorn/eclipse-workspace/CoreNG/asf/common/utils/interrupt/interrupt_sam_nvic.h **** static volatile bool     cpu_irq_prev_interrupt_state;
 150:/home/torbjorn/eclipse-workspace/CoreNG/asf/common/utils/interrupt/interrupt_sam_nvic.h **** 
 151:/home/torbjorn/eclipse-workspace/CoreNG/asf/common/utils/interrupt/interrupt_sam_nvic.h **** static inline irqflags_t cpu_irq_save(void)
 152:/home/torbjorn/eclipse-workspace/CoreNG/asf/common/utils/interrupt/interrupt_sam_nvic.h **** {
 153:/home/torbjorn/eclipse-workspace/CoreNG/asf/common/utils/interrupt/interrupt_sam_nvic.h **** 	irqflags_t flags = cpu_irq_is_enabled();
 154:/home/torbjorn/eclipse-workspace/CoreNG/asf/common/utils/interrupt/interrupt_sam_nvic.h **** 	cpu_irq_disable();
 606              		.loc 4 154 0
 607 001e 0A4D     		ldr	r5, .L49+4
 608 0020 0026     		movs	r6, #0
 609              	.LBE40:
 610              	.LBE42:
 280:../asf/sam/drivers/efc/efc.c **** 			EEFC_FCR_FCMD(ul_command));
 611              		.loc 1 280 0
 612 0022 03EA0222 		and	r2, r3, r2, lsl #8
 613              	.LVL53:
 614              	.LBB43:
 615              	.LBB41:
 616              		.loc 4 154 0
 617 0026 2E70     		strb	r6, [r5]
 618              	.LBE41:
 619              	.LBE43:
ARM GAS  /tmp/ccLuO05w.s 			page 39


 279:../asf/sam/drivers/efc/efc.c **** 			EEFC_FCR_FKEY_PASSWD | EEFC_FCR_FARG(ul_argument) |
 620              		.loc 1 279 0
 621 0028 42F0B442 		orr	r2, r2, #1509949440
 622 002c 1143     		orrs	r1, r1, r2
 623 002e FFF7FEFF 		bl	efc_perform_fcr
 624              	.LVL54:
 625              	.LBB44:
 626              	.LBB45:
 155:/home/torbjorn/eclipse-workspace/CoreNG/asf/common/utils/interrupt/interrupt_sam_nvic.h **** 	return flags;
 156:/home/torbjorn/eclipse-workspace/CoreNG/asf/common/utils/interrupt/interrupt_sam_nvic.h **** }
 157:/home/torbjorn/eclipse-workspace/CoreNG/asf/common/utils/interrupt/interrupt_sam_nvic.h **** 
 158:/home/torbjorn/eclipse-workspace/CoreNG/asf/common/utils/interrupt/interrupt_sam_nvic.h **** static inline bool cpu_irq_is_enabled_flags(irqflags_t flags)
 159:/home/torbjorn/eclipse-workspace/CoreNG/asf/common/utils/interrupt/interrupt_sam_nvic.h **** {
 160:/home/torbjorn/eclipse-workspace/CoreNG/asf/common/utils/interrupt/interrupt_sam_nvic.h **** 	return (flags);
 161:/home/torbjorn/eclipse-workspace/CoreNG/asf/common/utils/interrupt/interrupt_sam_nvic.h **** }
 162:/home/torbjorn/eclipse-workspace/CoreNG/asf/common/utils/interrupt/interrupt_sam_nvic.h **** 
 163:/home/torbjorn/eclipse-workspace/CoreNG/asf/common/utils/interrupt/interrupt_sam_nvic.h **** static inline void cpu_irq_restore(irqflags_t flags)
 164:/home/torbjorn/eclipse-workspace/CoreNG/asf/common/utils/interrupt/interrupt_sam_nvic.h **** {
 165:/home/torbjorn/eclipse-workspace/CoreNG/asf/common/utils/interrupt/interrupt_sam_nvic.h **** 	if (cpu_irq_is_enabled_flags(flags))
 627              		.loc 4 165 0
 628 0032 2CB9     		cbnz	r4, .L41
 166:/home/torbjorn/eclipse-workspace/CoreNG/asf/common/utils/interrupt/interrupt_sam_nvic.h **** 		cpu_irq_enable();
 629              		.loc 4 166 0
 630 0034 0123     		movs	r3, #1
 631 0036 2B70     		strb	r3, [r5]
 632              	.LBB46:
 633              	.LBB47:
 634              		.loc 3 456 0
 635              		.syntax unified
 636              	@ 456 "/home/torbjorn/eclipse-workspace/CoreNG/asf/thirdparty/CMSIS/Include/core_cmInstr.h" 1
 637 0038 BFF35F8F 		dmb
 638              	@ 0 "" 2
 639              		.thumb
 640              		.syntax unified
 641              	.LBE47:
 642              	.LBE46:
 643              	.LBB48:
 644              	.LBB49:
 319:/home/torbjorn/eclipse-workspace/CoreNG/asf/thirdparty/CMSIS/Include/core_cmFunc.h **** }
 645              		.loc 2 319 0
 646              		.syntax unified
 647              	@ 319 "/home/torbjorn/eclipse-workspace/CoreNG/asf/thirdparty/CMSIS/Include/core_cmFunc.h" 1
 648 003c 62B6     		cpsie i
 649              	@ 0 "" 2
 650              		.thumb
 651              		.syntax unified
 652 003e 70BD     		pop	{r4, r5, r6, pc}
 653              	.L41:
 654              	.LBE49:
 655              	.LBE48:
 656              	.LBE45:
 657              	.LBE44:
 284:../asf/sam/drivers/efc/efc.c **** 
 658              		.loc 1 284 0
 659 0040 70BD     		pop	{r4, r5, r6, pc}
 660              	.L50:
 661 0042 00BF     		.align	2
ARM GAS  /tmp/ccLuO05w.s 			page 40


 662              	.L49:
 663 0044 00FFFF00 		.word	16776960
 664 0048 00000000 		.word	g_interrupt_enabled
 665              		.cfi_endproc
 666              	.LFE151:
 667              		.size	efc_perform_command, .-efc_perform_command
 668              		.section	.bss.cpu_irq_critical_section_counter,"aw",%nobits
 669              		.align	2
 670              		.type	cpu_irq_critical_section_counter, %object
 671              		.size	cpu_irq_critical_section_counter, 4
 672              	cpu_irq_critical_section_counter:
 673 0000 00000000 		.space	4
 674              		.section	.bss.cpu_irq_prev_interrupt_state,"aw",%nobits
 675              		.type	cpu_irq_prev_interrupt_state, %object
 676              		.size	cpu_irq_prev_interrupt_state, 1
 677              	cpu_irq_prev_interrupt_state:
 678 0000 00       		.space	1
 679              		.text
 680              	.Letext0:
 681              		.file 5 "/usr/include/newlib/machine/_default_types.h"
 682              		.file 6 "/usr/include/newlib/sys/_stdint.h"
 683              		.file 7 "/home/torbjorn/eclipse-workspace/CoreNG/asf/thirdparty/CMSIS/Include/core_cm7.h"
 684              		.file 8 "/home/torbjorn/eclipse-workspace/CoreNG/variants/same70/system_same70.h"
 685              		.file 9 "/home/torbjorn/eclipse-workspace/CoreNG/asf/sam/utils/cmsis/same70/include/component/efc.
 686              		.file 10 "/usr/include/newlib/sys/lock.h"
 687              		.file 11 "/usr/include/newlib/sys/_types.h"
 688              		.file 12 "/usr/lib/gcc/arm-none-eabi/6.3.1/include/stddef.h"
 689              		.file 13 "/usr/include/newlib/sys/reent.h"
 690              		.file 14 "/usr/include/newlib/stdlib.h"
 691              		.file 15 "../asf/sam/drivers/efc/efc.h"