ARM GAS  /tmp/cc3LTPp7.s 			page 1


   1              		.cpu cortex-m7
   2              		.eabi_attribute 28, 1
   3              		.eabi_attribute 20, 1
   4              		.eabi_attribute 21, 1
   5              		.eabi_attribute 23, 3
   6              		.eabi_attribute 24, 1
   7              		.eabi_attribute 25, 1
   8              		.eabi_attribute 26, 1
   9              		.eabi_attribute 30, 2
  10              		.eabi_attribute 34, 1
  11              		.eabi_attribute 18, 4
  12              		.file	"matrix.c"
  13              		.text
  14              	.Ltext0:
  15              		.cfi_sections	.debug_frame
  16              		.section	.text.matrix_set_master_burst_type,"ax",%progbits
  17              		.align	1
  18              		.p2align 2,,3
  19              		.global	matrix_set_master_burst_type
  20              		.syntax unified
  21              		.thumb
  22              		.thumb_func
  23              		.fpu fpv5-d16
  24              		.type	matrix_set_master_burst_type, %function
  25              	matrix_set_master_burst_type:
  26              	.LFB142:
  27              		.file 1 "../asf/sam/drivers/matrix/matrix.c"
   1:../asf/sam/drivers/matrix/matrix.c **** /**
   2:../asf/sam/drivers/matrix/matrix.c ****  * \file
   3:../asf/sam/drivers/matrix/matrix.c ****  *
   4:../asf/sam/drivers/matrix/matrix.c ****  * \brief Matrix driver for SAM.
   5:../asf/sam/drivers/matrix/matrix.c ****  *
   6:../asf/sam/drivers/matrix/matrix.c ****  * Copyright (c) 2012-2015 Atmel Corporation. All rights reserved.
   7:../asf/sam/drivers/matrix/matrix.c ****  *
   8:../asf/sam/drivers/matrix/matrix.c ****  * \asf_license_start
   9:../asf/sam/drivers/matrix/matrix.c ****  *
  10:../asf/sam/drivers/matrix/matrix.c ****  * \page License
  11:../asf/sam/drivers/matrix/matrix.c ****  *
  12:../asf/sam/drivers/matrix/matrix.c ****  * Redistribution and use in source and binary forms, with or without
  13:../asf/sam/drivers/matrix/matrix.c ****  * modification, are permitted provided that the following conditions are met:
  14:../asf/sam/drivers/matrix/matrix.c ****  *
  15:../asf/sam/drivers/matrix/matrix.c ****  * 1. Redistributions of source code must retain the above copyright notice,
  16:../asf/sam/drivers/matrix/matrix.c ****  *    this list of conditions and the following disclaimer.
  17:../asf/sam/drivers/matrix/matrix.c ****  *
  18:../asf/sam/drivers/matrix/matrix.c ****  * 2. Redistributions in binary form must reproduce the above copyright notice,
  19:../asf/sam/drivers/matrix/matrix.c ****  *    this list of conditions and the following disclaimer in the documentation
  20:../asf/sam/drivers/matrix/matrix.c ****  *    and/or other materials provided with the distribution.
  21:../asf/sam/drivers/matrix/matrix.c ****  *
  22:../asf/sam/drivers/matrix/matrix.c ****  * 3. The name of Atmel may not be used to endorse or promote products derived
  23:../asf/sam/drivers/matrix/matrix.c ****  *    from this software without specific prior written permission.
  24:../asf/sam/drivers/matrix/matrix.c ****  *
  25:../asf/sam/drivers/matrix/matrix.c ****  * 4. This software may only be redistributed and used in connection with an
  26:../asf/sam/drivers/matrix/matrix.c ****  *    Atmel microcontroller product.
  27:../asf/sam/drivers/matrix/matrix.c ****  *
  28:../asf/sam/drivers/matrix/matrix.c ****  * THIS SOFTWARE IS PROVIDED BY ATMEL "AS IS" AND ANY EXPRESS OR IMPLIED
  29:../asf/sam/drivers/matrix/matrix.c ****  * WARRANTIES, INCLUDING, BUT NOT LIMITED TO, THE IMPLIED WARRANTIES OF
  30:../asf/sam/drivers/matrix/matrix.c ****  * MERCHANTABILITY, FITNESS FOR A PARTICULAR PURPOSE AND NON-INFRINGEMENT ARE
ARM GAS  /tmp/cc3LTPp7.s 			page 2


  31:../asf/sam/drivers/matrix/matrix.c ****  * EXPRESSLY AND SPECIFICALLY DISCLAIMED. IN NO EVENT SHALL ATMEL BE LIABLE FOR
  32:../asf/sam/drivers/matrix/matrix.c ****  * ANY DIRECT, INDIRECT, INCIDENTAL, SPECIAL, EXEMPLARY, OR CONSEQUENTIAL
  33:../asf/sam/drivers/matrix/matrix.c ****  * DAMAGES (INCLUDING, BUT NOT LIMITED TO, PROCUREMENT OF SUBSTITUTE GOODS
  34:../asf/sam/drivers/matrix/matrix.c ****  * OR SERVICES; LOSS OF USE, DATA, OR PROFITS; OR BUSINESS INTERRUPTION)
  35:../asf/sam/drivers/matrix/matrix.c ****  * HOWEVER CAUSED AND ON ANY THEORY OF LIABILITY, WHETHER IN CONTRACT,
  36:../asf/sam/drivers/matrix/matrix.c ****  * STRICT LIABILITY, OR TORT (INCLUDING NEGLIGENCE OR OTHERWISE) ARISING IN
  37:../asf/sam/drivers/matrix/matrix.c ****  * ANY WAY OUT OF THE USE OF THIS SOFTWARE, EVEN IF ADVISED OF THE
  38:../asf/sam/drivers/matrix/matrix.c ****  * POSSIBILITY OF SUCH DAMAGE.
  39:../asf/sam/drivers/matrix/matrix.c ****  *
  40:../asf/sam/drivers/matrix/matrix.c ****  * \asf_license_stop
  41:../asf/sam/drivers/matrix/matrix.c ****  *
  42:../asf/sam/drivers/matrix/matrix.c ****  */
  43:../asf/sam/drivers/matrix/matrix.c **** /*
  44:../asf/sam/drivers/matrix/matrix.c ****  * Support and FAQ: visit <a href="http://www.atmel.com/design-support/">Atmel Support</a>
  45:../asf/sam/drivers/matrix/matrix.c ****  */
  46:../asf/sam/drivers/matrix/matrix.c **** 
  47:../asf/sam/drivers/matrix/matrix.c **** #include  "matrix.h"
  48:../asf/sam/drivers/matrix/matrix.c **** 
  49:../asf/sam/drivers/matrix/matrix.c **** /* / @cond 0 */
  50:../asf/sam/drivers/matrix/matrix.c **** /**INDENT-OFF**/
  51:../asf/sam/drivers/matrix/matrix.c **** #ifdef __cplusplus
  52:../asf/sam/drivers/matrix/matrix.c **** extern "C" {
  53:../asf/sam/drivers/matrix/matrix.c **** #endif
  54:../asf/sam/drivers/matrix/matrix.c **** /**INDENT-ON**/
  55:../asf/sam/drivers/matrix/matrix.c **** /* / @endcond */
  56:../asf/sam/drivers/matrix/matrix.c **** 
  57:../asf/sam/drivers/matrix/matrix.c **** /**
  58:../asf/sam/drivers/matrix/matrix.c ****  * \defgroup sam_drivers_matrix_group Matrix (MATRIX)
  59:../asf/sam/drivers/matrix/matrix.c ****  *
  60:../asf/sam/drivers/matrix/matrix.c ****  * \par Purpose
  61:../asf/sam/drivers/matrix/matrix.c ****  *
  62:../asf/sam/drivers/matrix/matrix.c ****  * The Bus Matrix implements a multi-layer AHB that enables parallel access
  63:../asf/sam/drivers/matrix/matrix.c ****  * paths between multiple AHB masters and slaves in a system, which increases
  64:../asf/sam/drivers/matrix/matrix.c ****  * the overall bandwidth.
  65:../asf/sam/drivers/matrix/matrix.c ****  *
  66:../asf/sam/drivers/matrix/matrix.c ****  * @{
  67:../asf/sam/drivers/matrix/matrix.c ****  */
  68:../asf/sam/drivers/matrix/matrix.c **** 
  69:../asf/sam/drivers/matrix/matrix.c **** #if SAM4C
  70:../asf/sam/drivers/matrix/matrix.c **** #ifdef SAM4C_0
  71:../asf/sam/drivers/matrix/matrix.c **** #define MATRIX MATRIX0
  72:../asf/sam/drivers/matrix/matrix.c **** #else
  73:../asf/sam/drivers/matrix/matrix.c **** #define MATRIX MATRIX1
  74:../asf/sam/drivers/matrix/matrix.c **** #endif
  75:../asf/sam/drivers/matrix/matrix.c **** #endif
  76:../asf/sam/drivers/matrix/matrix.c **** 
  77:../asf/sam/drivers/matrix/matrix.c **** #if SAM4CP
  78:../asf/sam/drivers/matrix/matrix.c **** #ifdef SAM4CP_0
  79:../asf/sam/drivers/matrix/matrix.c **** #define MATRIX MATRIX0
  80:../asf/sam/drivers/matrix/matrix.c **** #else
  81:../asf/sam/drivers/matrix/matrix.c **** #define MATRIX MATRIX1
  82:../asf/sam/drivers/matrix/matrix.c **** #endif
  83:../asf/sam/drivers/matrix/matrix.c **** #endif
  84:../asf/sam/drivers/matrix/matrix.c **** 
  85:../asf/sam/drivers/matrix/matrix.c **** #if SAM4CM
  86:../asf/sam/drivers/matrix/matrix.c **** #ifdef SAM4CM_0
  87:../asf/sam/drivers/matrix/matrix.c **** #define MATRIX MATRIX0
ARM GAS  /tmp/cc3LTPp7.s 			page 3


  88:../asf/sam/drivers/matrix/matrix.c **** #else
  89:../asf/sam/drivers/matrix/matrix.c **** #define MATRIX MATRIX1
  90:../asf/sam/drivers/matrix/matrix.c **** #endif
  91:../asf/sam/drivers/matrix/matrix.c **** #endif
  92:../asf/sam/drivers/matrix/matrix.c **** 
  93:../asf/sam/drivers/matrix/matrix.c **** #ifndef MATRIX_WPMR_WPKEY_PASSWD
  94:../asf/sam/drivers/matrix/matrix.c **** #define MATRIX_WPMR_WPKEY_PASSWD    MATRIX_WPMR_WPKEY(0x4D4154U)
  95:../asf/sam/drivers/matrix/matrix.c **** #endif
  96:../asf/sam/drivers/matrix/matrix.c **** 
  97:../asf/sam/drivers/matrix/matrix.c **** /**
  98:../asf/sam/drivers/matrix/matrix.c ****  * \brief Set undefined length burst type of the specified master.
  99:../asf/sam/drivers/matrix/matrix.c ****  *
 100:../asf/sam/drivers/matrix/matrix.c ****  * \param ul_id Master index.
 101:../asf/sam/drivers/matrix/matrix.c ****  * \param burst_type Undefined length burst type.
 102:../asf/sam/drivers/matrix/matrix.c ****  */
 103:../asf/sam/drivers/matrix/matrix.c **** void matrix_set_master_burst_type(uint32_t ul_id, burst_type_t burst_type)
 104:../asf/sam/drivers/matrix/matrix.c **** {
  28              		.loc 1 104 0
  29              		.cfi_startproc
  30              		@ args = 0, pretend = 0, frame = 8
  31              		@ frame_needed = 0, uses_anonymous_args = 0
  32              		@ link register save eliminated.
  33              	.LVL0:
 105:../asf/sam/drivers/matrix/matrix.c **** #if (SAMV70 || SAMS70|| SAME70)
 106:../asf/sam/drivers/matrix/matrix.c **** 	Matrix *p_matrix = MATRIX;
 107:../asf/sam/drivers/matrix/matrix.c **** 	volatile uint32_t *p_MCFG;
 108:../asf/sam/drivers/matrix/matrix.c **** 	volatile uint32_t ul_reg;
 109:../asf/sam/drivers/matrix/matrix.c **** 	uint32_t ul_dlt;
 110:../asf/sam/drivers/matrix/matrix.c **** 
 111:../asf/sam/drivers/matrix/matrix.c **** 	ul_dlt = (uint32_t)&(p_matrix->MATRIX_MCFG1);
 112:../asf/sam/drivers/matrix/matrix.c **** 	ul_dlt = ul_dlt - (uint32_t)&(p_matrix->MATRIX_MCFG0);
  34              		.loc 1 112 0
  35 0000 064A     		ldr	r2, .L3
  36              	.LVL1:
 104:../asf/sam/drivers/matrix/matrix.c **** #if (SAMV70 || SAMS70|| SAME70)
  37              		.loc 1 104 0
  38 0002 82B0     		sub	sp, sp, #8
  39              		.cfi_def_cfa_offset 8
 113:../asf/sam/drivers/matrix/matrix.c **** 
 114:../asf/sam/drivers/matrix/matrix.c **** 	p_MCFG = (volatile uint32_t *)((uint32_t)&(p_matrix->MATRIX_MCFG0) +
 115:../asf/sam/drivers/matrix/matrix.c **** 			ul_id * ul_dlt);
 116:../asf/sam/drivers/matrix/matrix.c **** 
 117:../asf/sam/drivers/matrix/matrix.c **** 	ul_reg = *p_MCFG & (~MATRIX_MCFG0_ULBT_Msk);
  40              		.loc 1 117 0
  41 0004 52F82030 		ldr	r3, [r2, r0, lsl #2]
  42 0008 23F00703 		bic	r3, r3, #7
  43 000c 0193     		str	r3, [sp, #4]
 118:../asf/sam/drivers/matrix/matrix.c **** 	*p_MCFG = ul_reg | (uint32_t)burst_type;
  44              		.loc 1 118 0
  45 000e 019B     		ldr	r3, [sp, #4]
  46 0010 1943     		orrs	r1, r1, r3
  47              	.LVL2:
  48 0012 42F82010 		str	r1, [r2, r0, lsl #2]
 119:../asf/sam/drivers/matrix/matrix.c **** #else
 120:../asf/sam/drivers/matrix/matrix.c **** 	Matrix *p_matrix = MATRIX;
 121:../asf/sam/drivers/matrix/matrix.c **** 	volatile uint32_t ul_reg;
 122:../asf/sam/drivers/matrix/matrix.c **** 
ARM GAS  /tmp/cc3LTPp7.s 			page 4


 123:../asf/sam/drivers/matrix/matrix.c **** 	ul_reg = p_matrix->MATRIX_MCFG[ul_id] & (~MATRIX_MCFG_ULBT_Msk);
 124:../asf/sam/drivers/matrix/matrix.c **** 	p_matrix->MATRIX_MCFG[ul_id] = ul_reg | (uint32_t)burst_type;
 125:../asf/sam/drivers/matrix/matrix.c **** #endif
 126:../asf/sam/drivers/matrix/matrix.c **** }
  49              		.loc 1 126 0
  50 0016 02B0     		add	sp, sp, #8
  51              		.cfi_def_cfa_offset 0
  52              		@ sp needed
  53 0018 7047     		bx	lr
  54              	.L4:
  55 001a 00BF     		.align	2
  56              	.L3:
  57 001c 00800840 		.word	1074298880
  58              		.cfi_endproc
  59              	.LFE142:
  60              		.size	matrix_set_master_burst_type, .-matrix_set_master_burst_type
  61              		.section	.text.matrix_get_master_burst_type,"ax",%progbits
  62              		.align	1
  63              		.p2align 2,,3
  64              		.global	matrix_get_master_burst_type
  65              		.syntax unified
  66              		.thumb
  67              		.thumb_func
  68              		.fpu fpv5-d16
  69              		.type	matrix_get_master_burst_type, %function
  70              	matrix_get_master_burst_type:
  71              	.LFB143:
 127:../asf/sam/drivers/matrix/matrix.c **** 
 128:../asf/sam/drivers/matrix/matrix.c **** /**
 129:../asf/sam/drivers/matrix/matrix.c ****  * \brief Get undefined length burst type of the specified master.
 130:../asf/sam/drivers/matrix/matrix.c ****  *
 131:../asf/sam/drivers/matrix/matrix.c ****  * \param ul_id Master index.
 132:../asf/sam/drivers/matrix/matrix.c ****  *
 133:../asf/sam/drivers/matrix/matrix.c ****  * \return Undefined length burst type.
 134:../asf/sam/drivers/matrix/matrix.c ****  */
 135:../asf/sam/drivers/matrix/matrix.c **** burst_type_t matrix_get_master_burst_type(uint32_t ul_id)
 136:../asf/sam/drivers/matrix/matrix.c **** {
  72              		.loc 1 136 0
  73              		.cfi_startproc
  74              		@ args = 0, pretend = 0, frame = 8
  75              		@ frame_needed = 0, uses_anonymous_args = 0
  76              		@ link register save eliminated.
  77              	.LVL3:
 137:../asf/sam/drivers/matrix/matrix.c **** #if (SAMV70 || SAMS70|| SAME70)
 138:../asf/sam/drivers/matrix/matrix.c **** 	Matrix *p_matrix = MATRIX;
 139:../asf/sam/drivers/matrix/matrix.c **** 	volatile uint32_t *p_MCFG;
 140:../asf/sam/drivers/matrix/matrix.c **** 	volatile uint32_t ul_reg;
 141:../asf/sam/drivers/matrix/matrix.c **** 	uint32_t ul_dlt;
 142:../asf/sam/drivers/matrix/matrix.c **** 
 143:../asf/sam/drivers/matrix/matrix.c **** 	ul_dlt = (uint32_t)&(p_matrix->MATRIX_MCFG1);
 144:../asf/sam/drivers/matrix/matrix.c **** 	ul_dlt = ul_dlt - (uint32_t)&(p_matrix->MATRIX_MCFG0);
  78              		.loc 1 144 0
  79 0000 054B     		ldr	r3, .L7
  80              	.LVL4:
 136:../asf/sam/drivers/matrix/matrix.c **** #if (SAMV70 || SAMS70|| SAME70)
  81              		.loc 1 136 0
  82 0002 82B0     		sub	sp, sp, #8
ARM GAS  /tmp/cc3LTPp7.s 			page 5


  83              		.cfi_def_cfa_offset 8
 145:../asf/sam/drivers/matrix/matrix.c **** 
 146:../asf/sam/drivers/matrix/matrix.c **** 	p_MCFG = (volatile uint32_t *)((uint32_t)&(p_matrix->MATRIX_MCFG0) +
 147:../asf/sam/drivers/matrix/matrix.c **** 			ul_id * ul_dlt);
 148:../asf/sam/drivers/matrix/matrix.c **** 
 149:../asf/sam/drivers/matrix/matrix.c **** 	ul_reg = *p_MCFG & (~MATRIX_MCFG0_ULBT_Msk);
  84              		.loc 1 149 0
  85 0004 53F82030 		ldr	r3, [r3, r0, lsl #2]
  86              	.LVL5:
  87 0008 23F00703 		bic	r3, r3, #7
  88 000c 0193     		str	r3, [sp, #4]
 150:../asf/sam/drivers/matrix/matrix.c **** 	return (burst_type_t)ul_reg;
  89              		.loc 1 150 0
  90 000e 0198     		ldr	r0, [sp, #4]
  91              	.LVL6:
 151:../asf/sam/drivers/matrix/matrix.c **** #else
 152:../asf/sam/drivers/matrix/matrix.c **** 	Matrix *p_matrix = MATRIX;
 153:../asf/sam/drivers/matrix/matrix.c **** 	volatile uint32_t ul_reg;
 154:../asf/sam/drivers/matrix/matrix.c **** 
 155:../asf/sam/drivers/matrix/matrix.c **** 	ul_reg = p_matrix->MATRIX_MCFG[ul_id] & (MATRIX_MCFG_ULBT_Msk);
 156:../asf/sam/drivers/matrix/matrix.c **** 	return (burst_type_t)ul_reg;
 157:../asf/sam/drivers/matrix/matrix.c **** #endif
 158:../asf/sam/drivers/matrix/matrix.c **** }
  92              		.loc 1 158 0
  93 0010 C0B2     		uxtb	r0, r0
  94 0012 02B0     		add	sp, sp, #8
  95              		.cfi_def_cfa_offset 0
  96              		@ sp needed
  97 0014 7047     		bx	lr
  98              	.L8:
  99 0016 00BF     		.align	2
 100              	.L7:
 101 0018 00800840 		.word	1074298880
 102              		.cfi_endproc
 103              	.LFE143:
 104              		.size	matrix_get_master_burst_type, .-matrix_get_master_burst_type
 105              		.section	.text.matrix_set_slave_slot_cycle,"ax",%progbits
 106              		.align	1
 107              		.p2align 2,,3
 108              		.global	matrix_set_slave_slot_cycle
 109              		.syntax unified
 110              		.thumb
 111              		.thumb_func
 112              		.fpu fpv5-d16
 113              		.type	matrix_set_slave_slot_cycle, %function
 114              	matrix_set_slave_slot_cycle:
 115              	.LFB144:
 159:../asf/sam/drivers/matrix/matrix.c **** 
 160:../asf/sam/drivers/matrix/matrix.c **** /**
 161:../asf/sam/drivers/matrix/matrix.c ****  * \brief Set slot cycle of the specified slave.
 162:../asf/sam/drivers/matrix/matrix.c ****  *
 163:../asf/sam/drivers/matrix/matrix.c ****  * \param ul_id Slave index.
 164:../asf/sam/drivers/matrix/matrix.c ****  * \param ul_slot_cycle Number of slot cycle.
 165:../asf/sam/drivers/matrix/matrix.c ****  */
 166:../asf/sam/drivers/matrix/matrix.c **** void matrix_set_slave_slot_cycle(uint32_t ul_id, uint32_t ul_slot_cycle)
 167:../asf/sam/drivers/matrix/matrix.c **** {
 116              		.loc 1 167 0
ARM GAS  /tmp/cc3LTPp7.s 			page 6


 117              		.cfi_startproc
 118              		@ args = 0, pretend = 0, frame = 8
 119              		@ frame_needed = 0, uses_anonymous_args = 0
 120              		@ link register save eliminated.
 121              	.LVL7:
 122 0000 074B     		ldr	r3, .L11
 123 0002 82B0     		sub	sp, sp, #8
 124              		.cfi_def_cfa_offset 8
 168:../asf/sam/drivers/matrix/matrix.c **** 	Matrix *p_matrix = MATRIX;
 169:../asf/sam/drivers/matrix/matrix.c **** 	volatile uint32_t ul_reg;
 170:../asf/sam/drivers/matrix/matrix.c **** 
 171:../asf/sam/drivers/matrix/matrix.c **** 	ul_reg = p_matrix->MATRIX_SCFG[ul_id] & (~MATRIX_SCFG_SLOT_CYCLE_Msk);
 125              		.loc 1 171 0
 126 0004 074A     		ldr	r2, .L11+4
 172:../asf/sam/drivers/matrix/matrix.c **** 	p_matrix->MATRIX_SCFG[ul_id] = ul_reg | MATRIX_SCFG_SLOT_CYCLE(
 127              		.loc 1 172 0
 128 0006 C1F30801 		ubfx	r1, r1, #0, #9
 129              	.LVL8:
 130 000a 03EB8000 		add	r0, r3, r0, lsl #2
 131              	.LVL9:
 171:../asf/sam/drivers/matrix/matrix.c **** 	p_matrix->MATRIX_SCFG[ul_id] = ul_reg | MATRIX_SCFG_SLOT_CYCLE(
 132              		.loc 1 171 0
 133 000e 036C     		ldr	r3, [r0, #64]
 134 0010 1A40     		ands	r2, r2, r3
 135 0012 0192     		str	r2, [sp, #4]
 136              		.loc 1 172 0
 137 0014 019B     		ldr	r3, [sp, #4]
 138 0016 1943     		orrs	r1, r1, r3
 139 0018 0164     		str	r1, [r0, #64]
 173:../asf/sam/drivers/matrix/matrix.c **** 			ul_slot_cycle);
 174:../asf/sam/drivers/matrix/matrix.c **** }
 140              		.loc 1 174 0
 141 001a 02B0     		add	sp, sp, #8
 142              		.cfi_def_cfa_offset 0
 143              		@ sp needed
 144 001c 7047     		bx	lr
 145              	.L12:
 146 001e 00BF     		.align	2
 147              	.L11:
 148 0020 00800840 		.word	1074298880
 149 0024 00FEFFFF 		.word	-512
 150              		.cfi_endproc
 151              	.LFE144:
 152              		.size	matrix_set_slave_slot_cycle, .-matrix_set_slave_slot_cycle
 153              		.section	.text.matrix_get_slave_slot_cycle,"ax",%progbits
 154              		.align	1
 155              		.p2align 2,,3
 156              		.global	matrix_get_slave_slot_cycle
 157              		.syntax unified
 158              		.thumb
 159              		.thumb_func
 160              		.fpu fpv5-d16
 161              		.type	matrix_get_slave_slot_cycle, %function
 162              	matrix_get_slave_slot_cycle:
 163              	.LFB145:
 175:../asf/sam/drivers/matrix/matrix.c **** 
 176:../asf/sam/drivers/matrix/matrix.c **** /**
ARM GAS  /tmp/cc3LTPp7.s 			page 7


 177:../asf/sam/drivers/matrix/matrix.c ****  * \brief Get slot cycle of the specified slave.
 178:../asf/sam/drivers/matrix/matrix.c ****  *
 179:../asf/sam/drivers/matrix/matrix.c ****  * \param ul_id Slave index.
 180:../asf/sam/drivers/matrix/matrix.c ****  *
 181:../asf/sam/drivers/matrix/matrix.c ****  * \return Number of slot cycle.
 182:../asf/sam/drivers/matrix/matrix.c ****  */
 183:../asf/sam/drivers/matrix/matrix.c **** uint32_t matrix_get_slave_slot_cycle(uint32_t ul_id)
 184:../asf/sam/drivers/matrix/matrix.c **** {
 164              		.loc 1 184 0
 165              		.cfi_startproc
 166              		@ args = 0, pretend = 0, frame = 8
 167              		@ frame_needed = 0, uses_anonymous_args = 0
 168              		@ link register save eliminated.
 169              	.LVL10:
 185:../asf/sam/drivers/matrix/matrix.c **** 	Matrix *p_matrix = MATRIX;
 186:../asf/sam/drivers/matrix/matrix.c **** 	volatile uint32_t ul_reg;
 187:../asf/sam/drivers/matrix/matrix.c **** 
 188:../asf/sam/drivers/matrix/matrix.c **** 	ul_reg = p_matrix->MATRIX_SCFG[ul_id] & (MATRIX_SCFG_SLOT_CYCLE_Msk);
 170              		.loc 1 188 0
 171 0000 1030     		adds	r0, r0, #16
 172              	.LVL11:
 173 0002 054B     		ldr	r3, .L15
 184:../asf/sam/drivers/matrix/matrix.c **** 	Matrix *p_matrix = MATRIX;
 174              		.loc 1 184 0
 175 0004 82B0     		sub	sp, sp, #8
 176              		.cfi_def_cfa_offset 8
 177              		.loc 1 188 0
 178 0006 53F82030 		ldr	r3, [r3, r0, lsl #2]
 179 000a C3F30803 		ubfx	r3, r3, #0, #9
 180 000e 0193     		str	r3, [sp, #4]
 189:../asf/sam/drivers/matrix/matrix.c **** 	return (ul_reg >> MATRIX_SCFG_SLOT_CYCLE_Pos);
 181              		.loc 1 189 0
 182 0010 0198     		ldr	r0, [sp, #4]
 183              	.LVL12:
 190:../asf/sam/drivers/matrix/matrix.c **** }
 184              		.loc 1 190 0
 185 0012 02B0     		add	sp, sp, #8
 186              		.cfi_def_cfa_offset 0
 187              		@ sp needed
 188 0014 7047     		bx	lr
 189              	.L16:
 190 0016 00BF     		.align	2
 191              	.L15:
 192 0018 00800840 		.word	1074298880
 193              		.cfi_endproc
 194              	.LFE145:
 195              		.size	matrix_get_slave_slot_cycle, .-matrix_get_slave_slot_cycle
 196              		.section	.text.matrix_set_slave_default_master_type,"ax",%progbits
 197              		.align	1
 198              		.p2align 2,,3
 199              		.global	matrix_set_slave_default_master_type
 200              		.syntax unified
 201              		.thumb
 202              		.thumb_func
 203              		.fpu fpv5-d16
 204              		.type	matrix_set_slave_default_master_type, %function
 205              	matrix_set_slave_default_master_type:
ARM GAS  /tmp/cc3LTPp7.s 			page 8


 206              	.LFB146:
 191:../asf/sam/drivers/matrix/matrix.c **** 
 192:../asf/sam/drivers/matrix/matrix.c **** /**
 193:../asf/sam/drivers/matrix/matrix.c ****  * \brief Set default master type of the specified slave.
 194:../asf/sam/drivers/matrix/matrix.c ****  *
 195:../asf/sam/drivers/matrix/matrix.c ****  * \param ul_id Slave index.
 196:../asf/sam/drivers/matrix/matrix.c ****  * \param type Default master type.
 197:../asf/sam/drivers/matrix/matrix.c ****  */
 198:../asf/sam/drivers/matrix/matrix.c **** void matrix_set_slave_default_master_type(uint32_t ul_id, defaut_master_t type)
 199:../asf/sam/drivers/matrix/matrix.c **** {
 207              		.loc 1 199 0
 208              		.cfi_startproc
 209              		@ args = 0, pretend = 0, frame = 8
 210              		@ frame_needed = 0, uses_anonymous_args = 0
 211              		@ link register save eliminated.
 212              	.LVL13:
 213 0000 064B     		ldr	r3, .L19
 214 0002 82B0     		sub	sp, sp, #8
 215              		.cfi_def_cfa_offset 8
 216 0004 03EB8000 		add	r0, r3, r0, lsl #2
 217              	.LVL14:
 200:../asf/sam/drivers/matrix/matrix.c **** 	Matrix *p_matrix = MATRIX;
 201:../asf/sam/drivers/matrix/matrix.c **** 	volatile uint32_t ul_reg;
 202:../asf/sam/drivers/matrix/matrix.c **** 
 203:../asf/sam/drivers/matrix/matrix.c **** 	ul_reg = p_matrix->MATRIX_SCFG[ul_id] & (~MATRIX_SCFG_DEFMSTR_TYPE_Msk);
 218              		.loc 1 203 0
 219 0008 036C     		ldr	r3, [r0, #64]
 220 000a 23F44033 		bic	r3, r3, #196608
 221 000e 0193     		str	r3, [sp, #4]
 204:../asf/sam/drivers/matrix/matrix.c **** 	p_matrix->MATRIX_SCFG[ul_id] = ul_reg | (uint32_t)type;
 222              		.loc 1 204 0
 223 0010 019B     		ldr	r3, [sp, #4]
 224 0012 1943     		orrs	r1, r1, r3
 225              	.LVL15:
 226 0014 0164     		str	r1, [r0, #64]
 205:../asf/sam/drivers/matrix/matrix.c **** }
 227              		.loc 1 205 0
 228 0016 02B0     		add	sp, sp, #8
 229              		.cfi_def_cfa_offset 0
 230              		@ sp needed
 231 0018 7047     		bx	lr
 232              	.L20:
 233 001a 00BF     		.align	2
 234              	.L19:
 235 001c 00800840 		.word	1074298880
 236              		.cfi_endproc
 237              	.LFE146:
 238              		.size	matrix_set_slave_default_master_type, .-matrix_set_slave_default_master_type
 239              		.section	.text.matrix_get_slave_default_master_type,"ax",%progbits
 240              		.align	1
 241              		.p2align 2,,3
 242              		.global	matrix_get_slave_default_master_type
 243              		.syntax unified
 244              		.thumb
 245              		.thumb_func
 246              		.fpu fpv5-d16
 247              		.type	matrix_get_slave_default_master_type, %function
ARM GAS  /tmp/cc3LTPp7.s 			page 9


 248              	matrix_get_slave_default_master_type:
 249              	.LFB147:
 206:../asf/sam/drivers/matrix/matrix.c **** 
 207:../asf/sam/drivers/matrix/matrix.c **** /**
 208:../asf/sam/drivers/matrix/matrix.c ****  * \brief Get default master type of the specified slave.
 209:../asf/sam/drivers/matrix/matrix.c ****  *
 210:../asf/sam/drivers/matrix/matrix.c ****  * \param ul_id Slave index.
 211:../asf/sam/drivers/matrix/matrix.c ****  *
 212:../asf/sam/drivers/matrix/matrix.c ****  * \return Default master type.
 213:../asf/sam/drivers/matrix/matrix.c ****  */
 214:../asf/sam/drivers/matrix/matrix.c **** defaut_master_t matrix_get_slave_default_master_type(uint32_t ul_id)
 215:../asf/sam/drivers/matrix/matrix.c **** {
 250              		.loc 1 215 0
 251              		.cfi_startproc
 252              		@ args = 0, pretend = 0, frame = 8
 253              		@ frame_needed = 0, uses_anonymous_args = 0
 254              		@ link register save eliminated.
 255              	.LVL16:
 216:../asf/sam/drivers/matrix/matrix.c **** 	Matrix *p_matrix = MATRIX;
 217:../asf/sam/drivers/matrix/matrix.c **** 	volatile uint32_t ul_reg;
 218:../asf/sam/drivers/matrix/matrix.c **** 
 219:../asf/sam/drivers/matrix/matrix.c **** 	ul_reg = p_matrix->MATRIX_SCFG[ul_id] & (MATRIX_SCFG_DEFMSTR_TYPE_Msk);
 256              		.loc 1 219 0
 257 0000 1030     		adds	r0, r0, #16
 258              	.LVL17:
 259 0002 054B     		ldr	r3, .L23
 215:../asf/sam/drivers/matrix/matrix.c **** 	Matrix *p_matrix = MATRIX;
 260              		.loc 1 215 0
 261 0004 82B0     		sub	sp, sp, #8
 262              		.cfi_def_cfa_offset 8
 263              		.loc 1 219 0
 264 0006 53F82030 		ldr	r3, [r3, r0, lsl #2]
 265 000a 03F44033 		and	r3, r3, #196608
 266 000e 0193     		str	r3, [sp, #4]
 220:../asf/sam/drivers/matrix/matrix.c **** 	return (defaut_master_t)ul_reg;
 267              		.loc 1 220 0
 268 0010 0198     		ldr	r0, [sp, #4]
 269              	.LVL18:
 221:../asf/sam/drivers/matrix/matrix.c **** }
 270              		.loc 1 221 0
 271 0012 02B0     		add	sp, sp, #8
 272              		.cfi_def_cfa_offset 0
 273              		@ sp needed
 274 0014 7047     		bx	lr
 275              	.L24:
 276 0016 00BF     		.align	2
 277              	.L23:
 278 0018 00800840 		.word	1074298880
 279              		.cfi_endproc
 280              	.LFE147:
 281              		.size	matrix_get_slave_default_master_type, .-matrix_get_slave_default_master_type
 282              		.section	.text.matrix_set_slave_fixed_default_master,"ax",%progbits
 283              		.align	1
 284              		.p2align 2,,3
 285              		.global	matrix_set_slave_fixed_default_master
 286              		.syntax unified
 287              		.thumb
ARM GAS  /tmp/cc3LTPp7.s 			page 10


 288              		.thumb_func
 289              		.fpu fpv5-d16
 290              		.type	matrix_set_slave_fixed_default_master, %function
 291              	matrix_set_slave_fixed_default_master:
 292              	.LFB148:
 222:../asf/sam/drivers/matrix/matrix.c **** 
 223:../asf/sam/drivers/matrix/matrix.c **** /**
 224:../asf/sam/drivers/matrix/matrix.c ****  * \brief Set fixed default master of the specified slave.
 225:../asf/sam/drivers/matrix/matrix.c ****  *
 226:../asf/sam/drivers/matrix/matrix.c ****  * \param ul_id Slave index.
 227:../asf/sam/drivers/matrix/matrix.c ****  * \param ul_fixed_id Fixed default master index.
 228:../asf/sam/drivers/matrix/matrix.c ****  */
 229:../asf/sam/drivers/matrix/matrix.c **** void matrix_set_slave_fixed_default_master(uint32_t ul_id, uint32_t ul_fixed_id)
 230:../asf/sam/drivers/matrix/matrix.c **** {
 293              		.loc 1 230 0
 294              		.cfi_startproc
 295              		@ args = 0, pretend = 0, frame = 8
 296              		@ frame_needed = 0, uses_anonymous_args = 0
 297              		@ link register save eliminated.
 298              	.LVL19:
 299 0000 074B     		ldr	r3, .L27
 300 0002 82B0     		sub	sp, sp, #8
 301              		.cfi_def_cfa_offset 8
 231:../asf/sam/drivers/matrix/matrix.c **** 	Matrix *p_matrix = MATRIX;
 232:../asf/sam/drivers/matrix/matrix.c **** 	volatile uint32_t ul_reg;
 233:../asf/sam/drivers/matrix/matrix.c **** 
 234:../asf/sam/drivers/matrix/matrix.c **** 	ul_reg = p_matrix->MATRIX_SCFG[ul_id] &
 235:../asf/sam/drivers/matrix/matrix.c **** 			(~MATRIX_SCFG_FIXED_DEFMSTR_Msk);
 236:../asf/sam/drivers/matrix/matrix.c **** 	p_matrix->MATRIX_SCFG[ul_id]
 237:../asf/sam/drivers/matrix/matrix.c **** 		= ul_reg | MATRIX_SCFG_FIXED_DEFMSTR(ul_fixed_id);
 302              		.loc 1 237 0
 303 0004 8904     		lsls	r1, r1, #18
 304              	.LVL20:
 305 0006 03EB8000 		add	r0, r3, r0, lsl #2
 306              	.LVL21:
 307 000a 01F47011 		and	r1, r1, #3932160
 234:../asf/sam/drivers/matrix/matrix.c **** 			(~MATRIX_SCFG_FIXED_DEFMSTR_Msk);
 308              		.loc 1 234 0
 309 000e 036C     		ldr	r3, [r0, #64]
 310 0010 23F47013 		bic	r3, r3, #3932160
 311 0014 0193     		str	r3, [sp, #4]
 312              		.loc 1 237 0
 313 0016 019B     		ldr	r3, [sp, #4]
 314 0018 1943     		orrs	r1, r1, r3
 315 001a 0164     		str	r1, [r0, #64]
 238:../asf/sam/drivers/matrix/matrix.c **** }
 316              		.loc 1 238 0
 317 001c 02B0     		add	sp, sp, #8
 318              		.cfi_def_cfa_offset 0
 319              		@ sp needed
 320 001e 7047     		bx	lr
 321              	.L28:
 322              		.align	2
 323              	.L27:
 324 0020 00800840 		.word	1074298880
 325              		.cfi_endproc
 326              	.LFE148:
ARM GAS  /tmp/cc3LTPp7.s 			page 11


 327              		.size	matrix_set_slave_fixed_default_master, .-matrix_set_slave_fixed_default_master
 328              		.section	.text.matrix_get_slave_fixed_default_master,"ax",%progbits
 329              		.align	1
 330              		.p2align 2,,3
 331              		.global	matrix_get_slave_fixed_default_master
 332              		.syntax unified
 333              		.thumb
 334              		.thumb_func
 335              		.fpu fpv5-d16
 336              		.type	matrix_get_slave_fixed_default_master, %function
 337              	matrix_get_slave_fixed_default_master:
 338              	.LFB149:
 239:../asf/sam/drivers/matrix/matrix.c **** 
 240:../asf/sam/drivers/matrix/matrix.c **** /**
 241:../asf/sam/drivers/matrix/matrix.c ****  * \brief Get fixed default master of the specified slave.
 242:../asf/sam/drivers/matrix/matrix.c ****  *
 243:../asf/sam/drivers/matrix/matrix.c ****  * \param ul_id Slave index.
 244:../asf/sam/drivers/matrix/matrix.c ****  *
 245:../asf/sam/drivers/matrix/matrix.c ****  * \return Fixed default master index.
 246:../asf/sam/drivers/matrix/matrix.c ****  */
 247:../asf/sam/drivers/matrix/matrix.c **** uint32_t matrix_get_slave_fixed_default_master(uint32_t ul_id)
 248:../asf/sam/drivers/matrix/matrix.c **** {
 339              		.loc 1 248 0
 340              		.cfi_startproc
 341              		@ args = 0, pretend = 0, frame = 8
 342              		@ frame_needed = 0, uses_anonymous_args = 0
 343              		@ link register save eliminated.
 344              	.LVL22:
 249:../asf/sam/drivers/matrix/matrix.c **** 	Matrix *p_matrix = MATRIX;
 250:../asf/sam/drivers/matrix/matrix.c **** 	volatile uint32_t ul_reg;
 251:../asf/sam/drivers/matrix/matrix.c **** 
 252:../asf/sam/drivers/matrix/matrix.c **** 	ul_reg = p_matrix->MATRIX_SCFG[ul_id] & (MATRIX_SCFG_FIXED_DEFMSTR_Msk);
 345              		.loc 1 252 0
 346 0000 1030     		adds	r0, r0, #16
 347              	.LVL23:
 348 0002 054B     		ldr	r3, .L31
 248:../asf/sam/drivers/matrix/matrix.c **** 	Matrix *p_matrix = MATRIX;
 349              		.loc 1 248 0
 350 0004 82B0     		sub	sp, sp, #8
 351              		.cfi_def_cfa_offset 8
 352              		.loc 1 252 0
 353 0006 53F82030 		ldr	r3, [r3, r0, lsl #2]
 354 000a 03F47013 		and	r3, r3, #3932160
 355 000e 0193     		str	r3, [sp, #4]
 253:../asf/sam/drivers/matrix/matrix.c **** 	return (ul_reg >> MATRIX_SCFG_FIXED_DEFMSTR_Pos);
 356              		.loc 1 253 0
 357 0010 0198     		ldr	r0, [sp, #4]
 358              	.LVL24:
 254:../asf/sam/drivers/matrix/matrix.c **** }
 359              		.loc 1 254 0
 360 0012 800C     		lsrs	r0, r0, #18
 361 0014 02B0     		add	sp, sp, #8
 362              		.cfi_def_cfa_offset 0
 363              		@ sp needed
 364 0016 7047     		bx	lr
 365              	.L32:
 366              		.align	2
ARM GAS  /tmp/cc3LTPp7.s 			page 12


 367              	.L31:
 368 0018 00800840 		.word	1074298880
 369              		.cfi_endproc
 370              	.LFE149:
 371              		.size	matrix_get_slave_fixed_default_master, .-matrix_get_slave_fixed_default_master
 372              		.section	.text.matrix_set_slave_priority,"ax",%progbits
 373              		.align	1
 374              		.p2align 2,,3
 375              		.global	matrix_set_slave_priority
 376              		.syntax unified
 377              		.thumb
 378              		.thumb_func
 379              		.fpu fpv5-d16
 380              		.type	matrix_set_slave_priority, %function
 381              	matrix_set_slave_priority:
 382              	.LFB150:
 255:../asf/sam/drivers/matrix/matrix.c **** 
 256:../asf/sam/drivers/matrix/matrix.c **** #if !SAM4E && !SAM4C && !SAM4CP && !SAM4CM && \
 257:../asf/sam/drivers/matrix/matrix.c **** 	 !SAMV71 && !SAMV70 && !SAMS70 && !SAME70
 258:../asf/sam/drivers/matrix/matrix.c **** /**
 259:../asf/sam/drivers/matrix/matrix.c ****  * \brief Set slave arbitration type of the specified slave.
 260:../asf/sam/drivers/matrix/matrix.c ****  *
 261:../asf/sam/drivers/matrix/matrix.c ****  * \param ul_id Slave index.
 262:../asf/sam/drivers/matrix/matrix.c ****  * \param type Arbitration type.
 263:../asf/sam/drivers/matrix/matrix.c ****  */
 264:../asf/sam/drivers/matrix/matrix.c **** void matrix_set_slave_arbitration_type(uint32_t ul_id, arbitration_type_t type)
 265:../asf/sam/drivers/matrix/matrix.c **** {
 266:../asf/sam/drivers/matrix/matrix.c **** 	Matrix *p_matrix = MATRIX;
 267:../asf/sam/drivers/matrix/matrix.c **** 	volatile uint32_t ul_reg;
 268:../asf/sam/drivers/matrix/matrix.c **** 
 269:../asf/sam/drivers/matrix/matrix.c **** 	ul_reg = p_matrix->MATRIX_SCFG[ul_id] & (~MATRIX_SCFG_ARBT_Msk);
 270:../asf/sam/drivers/matrix/matrix.c **** 	p_matrix->MATRIX_SCFG[ul_id] = ul_reg | (uint32_t)type;
 271:../asf/sam/drivers/matrix/matrix.c **** }
 272:../asf/sam/drivers/matrix/matrix.c **** 
 273:../asf/sam/drivers/matrix/matrix.c **** /**
 274:../asf/sam/drivers/matrix/matrix.c ****  * \brief Get slave arbitration type of the specified slave.
 275:../asf/sam/drivers/matrix/matrix.c ****  *
 276:../asf/sam/drivers/matrix/matrix.c ****  * \param ul_id Slave index.
 277:../asf/sam/drivers/matrix/matrix.c ****  *
 278:../asf/sam/drivers/matrix/matrix.c ****  * \return Arbitration type.
 279:../asf/sam/drivers/matrix/matrix.c ****  */
 280:../asf/sam/drivers/matrix/matrix.c **** arbitration_type_t matrix_get_slave_arbitration_type(uint32_t ul_id)
 281:../asf/sam/drivers/matrix/matrix.c **** {
 282:../asf/sam/drivers/matrix/matrix.c **** 	Matrix *p_matrix = MATRIX;
 283:../asf/sam/drivers/matrix/matrix.c **** 	volatile uint32_t ul_reg;
 284:../asf/sam/drivers/matrix/matrix.c **** 
 285:../asf/sam/drivers/matrix/matrix.c **** 	ul_reg = p_matrix->MATRIX_SCFG[ul_id] & (MATRIX_SCFG_ARBT_Msk);
 286:../asf/sam/drivers/matrix/matrix.c **** 	return (arbitration_type_t)ul_reg;
 287:../asf/sam/drivers/matrix/matrix.c **** }
 288:../asf/sam/drivers/matrix/matrix.c **** 
 289:../asf/sam/drivers/matrix/matrix.c **** #endif
 290:../asf/sam/drivers/matrix/matrix.c **** 
 291:../asf/sam/drivers/matrix/matrix.c **** /**
 292:../asf/sam/drivers/matrix/matrix.c ****  * \brief Set priority for the specified slave access.
 293:../asf/sam/drivers/matrix/matrix.c ****  *
 294:../asf/sam/drivers/matrix/matrix.c ****  * \param ul_id Slave index.
 295:../asf/sam/drivers/matrix/matrix.c ****  * \param ul_prio Bitmask OR of priorities of master x.
ARM GAS  /tmp/cc3LTPp7.s 			page 13


 296:../asf/sam/drivers/matrix/matrix.c ****  */
 297:../asf/sam/drivers/matrix/matrix.c **** void matrix_set_slave_priority(uint32_t ul_id, uint32_t ul_prio)
 298:../asf/sam/drivers/matrix/matrix.c **** {
 383              		.loc 1 298 0
 384              		.cfi_startproc
 385              		@ args = 0, pretend = 0, frame = 0
 386              		@ frame_needed = 0, uses_anonymous_args = 0
 387              		@ link register save eliminated.
 388              	.LVL25:
 299:../asf/sam/drivers/matrix/matrix.c **** #if (SAMV71 || SAMV70|| SAME70)
 300:../asf/sam/drivers/matrix/matrix.c **** 	Matrix *p_matrix = MATRIX;
 301:../asf/sam/drivers/matrix/matrix.c **** 	p_matrix->MATRIX_PR[ul_id].MATRIX_PRAS = ul_prio;
 389              		.loc 1 301 0
 390 0000 1030     		adds	r0, r0, #16
 391              	.LVL26:
 392 0002 024B     		ldr	r3, .L34
 393 0004 43F83010 		str	r1, [r3, r0, lsl #3]
 394 0008 7047     		bx	lr
 395              	.L35:
 396 000a 00BF     		.align	2
 397              	.L34:
 398 000c 00800840 		.word	1074298880
 399              		.cfi_endproc
 400              	.LFE150:
 401              		.size	matrix_set_slave_priority, .-matrix_set_slave_priority
 402              		.section	.text.matrix_get_slave_priority,"ax",%progbits
 403              		.align	1
 404              		.p2align 2,,3
 405              		.global	matrix_get_slave_priority
 406              		.syntax unified
 407              		.thumb
 408              		.thumb_func
 409              		.fpu fpv5-d16
 410              		.type	matrix_get_slave_priority, %function
 411              	matrix_get_slave_priority:
 412              	.LFB151:
 302:../asf/sam/drivers/matrix/matrix.c **** #else
 303:../asf/sam/drivers/matrix/matrix.c **** 	Matrix *p_matrix = MATRIX;
 304:../asf/sam/drivers/matrix/matrix.c **** 	volatile uint32_t *p_PRAS;
 305:../asf/sam/drivers/matrix/matrix.c **** 	uint32_t ul_dlt;
 306:../asf/sam/drivers/matrix/matrix.c **** 
 307:../asf/sam/drivers/matrix/matrix.c **** 	ul_dlt = (uint32_t)&(p_matrix->MATRIX_PRAS1);
 308:../asf/sam/drivers/matrix/matrix.c **** 	ul_dlt = ul_dlt - (uint32_t)&(p_matrix->MATRIX_PRAS0);
 309:../asf/sam/drivers/matrix/matrix.c **** 
 310:../asf/sam/drivers/matrix/matrix.c **** 	p_PRAS = (volatile uint32_t *)((uint32_t)&(p_matrix->MATRIX_PRAS0) +
 311:../asf/sam/drivers/matrix/matrix.c **** 			ul_id * ul_dlt);
 312:../asf/sam/drivers/matrix/matrix.c **** 
 313:../asf/sam/drivers/matrix/matrix.c **** 	*p_PRAS = ul_prio;
 314:../asf/sam/drivers/matrix/matrix.c **** #endif
 315:../asf/sam/drivers/matrix/matrix.c **** }
 316:../asf/sam/drivers/matrix/matrix.c **** 
 317:../asf/sam/drivers/matrix/matrix.c **** /**
 318:../asf/sam/drivers/matrix/matrix.c ****  * \brief Get priority for the specified slave access.
 319:../asf/sam/drivers/matrix/matrix.c ****  *
 320:../asf/sam/drivers/matrix/matrix.c ****  * \param ul_id Slave index.
 321:../asf/sam/drivers/matrix/matrix.c ****  *
 322:../asf/sam/drivers/matrix/matrix.c ****  * \return Bitmask OR of priorities of master x.
ARM GAS  /tmp/cc3LTPp7.s 			page 14


 323:../asf/sam/drivers/matrix/matrix.c ****  */
 324:../asf/sam/drivers/matrix/matrix.c **** uint32_t matrix_get_slave_priority(uint32_t ul_id)
 325:../asf/sam/drivers/matrix/matrix.c **** {
 413              		.loc 1 325 0
 414              		.cfi_startproc
 415              		@ args = 0, pretend = 0, frame = 0
 416              		@ frame_needed = 0, uses_anonymous_args = 0
 417              		@ link register save eliminated.
 418              	.LVL27:
 326:../asf/sam/drivers/matrix/matrix.c **** #if (SAMV71 || SAMV70|| SAME70)
 327:../asf/sam/drivers/matrix/matrix.c **** 	Matrix *p_matrix = MATRIX;
 328:../asf/sam/drivers/matrix/matrix.c **** 	return p_matrix->MATRIX_PR[ul_id].MATRIX_PRAS;
 419              		.loc 1 328 0
 420 0000 024B     		ldr	r3, .L37
 421 0002 1030     		adds	r0, r0, #16
 422              	.LVL28:
 423 0004 53F83000 		ldr	r0, [r3, r0, lsl #3]
 424              	.LVL29:
 329:../asf/sam/drivers/matrix/matrix.c **** #else
 330:../asf/sam/drivers/matrix/matrix.c **** 	Matrix *p_matrix = MATRIX;
 331:../asf/sam/drivers/matrix/matrix.c **** 	volatile uint32_t *p_PRAS;
 332:../asf/sam/drivers/matrix/matrix.c **** 	uint32_t ul_dlt;
 333:../asf/sam/drivers/matrix/matrix.c **** 
 334:../asf/sam/drivers/matrix/matrix.c **** 	ul_dlt = (uint32_t)&(p_matrix->MATRIX_PRAS1);
 335:../asf/sam/drivers/matrix/matrix.c **** 	ul_dlt = ul_dlt - (uint32_t)&(p_matrix->MATRIX_PRAS0);
 336:../asf/sam/drivers/matrix/matrix.c **** 
 337:../asf/sam/drivers/matrix/matrix.c **** 	p_PRAS = (volatile uint32_t *)((uint32_t)&(p_matrix->MATRIX_PRAS0) +
 338:../asf/sam/drivers/matrix/matrix.c **** 			ul_id * ul_dlt);
 339:../asf/sam/drivers/matrix/matrix.c **** 
 340:../asf/sam/drivers/matrix/matrix.c **** 	return (*p_PRAS);
 341:../asf/sam/drivers/matrix/matrix.c **** #endif
 342:../asf/sam/drivers/matrix/matrix.c **** }
 425              		.loc 1 342 0
 426 0008 7047     		bx	lr
 427              	.L38:
 428 000a 00BF     		.align	2
 429              	.L37:
 430 000c 00800840 		.word	1074298880
 431              		.cfi_endproc
 432              	.LFE151:
 433              		.size	matrix_get_slave_priority, .-matrix_get_slave_priority
 434              		.section	.text.matrix_set_slave_priority_b,"ax",%progbits
 435              		.align	1
 436              		.p2align 2,,3
 437              		.global	matrix_set_slave_priority_b
 438              		.syntax unified
 439              		.thumb
 440              		.thumb_func
 441              		.fpu fpv5-d16
 442              		.type	matrix_set_slave_priority_b, %function
 443              	matrix_set_slave_priority_b:
 444              	.LFB152:
 343:../asf/sam/drivers/matrix/matrix.c **** 
 344:../asf/sam/drivers/matrix/matrix.c **** #if (SAMV71 || SAMV70|| SAME70 || SAMS70)
 345:../asf/sam/drivers/matrix/matrix.c **** /**
 346:../asf/sam/drivers/matrix/matrix.c ****  * \brief Set priority for the specified slave access.
 347:../asf/sam/drivers/matrix/matrix.c ****  *
ARM GAS  /tmp/cc3LTPp7.s 			page 15


 348:../asf/sam/drivers/matrix/matrix.c ****  * \param ul_id Slave index.
 349:../asf/sam/drivers/matrix/matrix.c ****  * \param ul_prio_b Bitmask OR of priorities of master x.
 350:../asf/sam/drivers/matrix/matrix.c ****  */
 351:../asf/sam/drivers/matrix/matrix.c **** void matrix_set_slave_priority_b(uint32_t ul_id, uint32_t ul_prio_b)
 352:../asf/sam/drivers/matrix/matrix.c **** {
 445              		.loc 1 352 0
 446              		.cfi_startproc
 447              		@ args = 0, pretend = 0, frame = 0
 448              		@ frame_needed = 0, uses_anonymous_args = 0
 449              		@ link register save eliminated.
 450              	.LVL30:
 353:../asf/sam/drivers/matrix/matrix.c **** #if (SAMV71 || SAMV70|| SAME70)
 354:../asf/sam/drivers/matrix/matrix.c **** 	Matrix *p_matrix = MATRIX;
 355:../asf/sam/drivers/matrix/matrix.c **** 	p_matrix->MATRIX_PR[ul_id].MATRIX_PRBS = ul_prio_b;
 451              		.loc 1 355 0
 452 0000 C000     		lsls	r0, r0, #3
 453              	.LVL31:
 454 0002 014B     		ldr	r3, .L40
 455 0004 1950     		str	r1, [r3, r0]
 456 0006 7047     		bx	lr
 457              	.L41:
 458              		.align	2
 459              	.L40:
 460 0008 84800840 		.word	1074299012
 461              		.cfi_endproc
 462              	.LFE152:
 463              		.size	matrix_set_slave_priority_b, .-matrix_set_slave_priority_b
 464              		.section	.text.matrix_get_slave_priority_b,"ax",%progbits
 465              		.align	1
 466              		.p2align 2,,3
 467              		.global	matrix_get_slave_priority_b
 468              		.syntax unified
 469              		.thumb
 470              		.thumb_func
 471              		.fpu fpv5-d16
 472              		.type	matrix_get_slave_priority_b, %function
 473              	matrix_get_slave_priority_b:
 474              	.LFB153:
 356:../asf/sam/drivers/matrix/matrix.c **** #else
 357:../asf/sam/drivers/matrix/matrix.c **** 	Matrix *p_matrix = MATRIX;
 358:../asf/sam/drivers/matrix/matrix.c **** 	volatile uint32_t *p_PRAS;
 359:../asf/sam/drivers/matrix/matrix.c **** 	uint32_t ul_dlt;
 360:../asf/sam/drivers/matrix/matrix.c **** 
 361:../asf/sam/drivers/matrix/matrix.c **** 	ul_dlt = (uint32_t)&(p_matrix->MATRIX_PRBS1);
 362:../asf/sam/drivers/matrix/matrix.c **** 	ul_dlt = ul_dlt - (uint32_t)&(p_matrix->MATRIX_PRBS0);
 363:../asf/sam/drivers/matrix/matrix.c **** 
 364:../asf/sam/drivers/matrix/matrix.c **** 	p_PRAS = (volatile uint32_t *)((uint32_t)&(p_matrix->MATRIX_PRBS0) +
 365:../asf/sam/drivers/matrix/matrix.c **** 			ul_id * ul_dlt);
 366:../asf/sam/drivers/matrix/matrix.c **** 
 367:../asf/sam/drivers/matrix/matrix.c **** 	*p_PRAS = ul_prio;
 368:../asf/sam/drivers/matrix/matrix.c **** #endif
 369:../asf/sam/drivers/matrix/matrix.c **** }
 370:../asf/sam/drivers/matrix/matrix.c **** 
 371:../asf/sam/drivers/matrix/matrix.c **** /**
 372:../asf/sam/drivers/matrix/matrix.c ****  * \brief Get priority for the specified slave access.
 373:../asf/sam/drivers/matrix/matrix.c ****  *
 374:../asf/sam/drivers/matrix/matrix.c ****  * \param ul_id Slave index.
ARM GAS  /tmp/cc3LTPp7.s 			page 16


 375:../asf/sam/drivers/matrix/matrix.c ****  *
 376:../asf/sam/drivers/matrix/matrix.c ****  * \return Bitmask OR of priorities of master x.
 377:../asf/sam/drivers/matrix/matrix.c ****  */
 378:../asf/sam/drivers/matrix/matrix.c **** uint32_t matrix_get_slave_priority_b(uint32_t ul_id)
 379:../asf/sam/drivers/matrix/matrix.c **** {
 475              		.loc 1 379 0
 476              		.cfi_startproc
 477              		@ args = 0, pretend = 0, frame = 0
 478              		@ frame_needed = 0, uses_anonymous_args = 0
 479              		@ link register save eliminated.
 480              	.LVL32:
 380:../asf/sam/drivers/matrix/matrix.c **** #if (SAMV71 || SAMV70|| SAME70)
 381:../asf/sam/drivers/matrix/matrix.c **** 	Matrix *p_matrix = MATRIX;
 382:../asf/sam/drivers/matrix/matrix.c **** 	return p_matrix->MATRIX_PR[ul_id].MATRIX_PRBS;
 481              		.loc 1 382 0
 482 0000 014B     		ldr	r3, .L43
 483 0002 C000     		lsls	r0, r0, #3
 484              	.LVL33:
 485 0004 1858     		ldr	r0, [r3, r0]
 383:../asf/sam/drivers/matrix/matrix.c **** #else
 384:../asf/sam/drivers/matrix/matrix.c **** 	Matrix *p_matrix = MATRIX;
 385:../asf/sam/drivers/matrix/matrix.c **** 	volatile uint32_t *p_PRAS;
 386:../asf/sam/drivers/matrix/matrix.c **** 	uint32_t ul_dlt;
 387:../asf/sam/drivers/matrix/matrix.c **** 
 388:../asf/sam/drivers/matrix/matrix.c **** 	ul_dlt = (uint32_t)&(p_matrix->MATRIX_PRBS1);
 389:../asf/sam/drivers/matrix/matrix.c **** 	ul_dlt = ul_dlt - (uint32_t)&(p_matrix->MATRIX_PRBS0);
 390:../asf/sam/drivers/matrix/matrix.c **** 
 391:../asf/sam/drivers/matrix/matrix.c **** 	p_PRAS = (volatile uint32_t *)((uint32_t)&(p_matrix->MATRIX_PRBS0) +
 392:../asf/sam/drivers/matrix/matrix.c **** 			ul_id * ul_dlt);
 393:../asf/sam/drivers/matrix/matrix.c **** 
 394:../asf/sam/drivers/matrix/matrix.c **** 	return (*p_PRAS);
 395:../asf/sam/drivers/matrix/matrix.c **** #endif
 396:../asf/sam/drivers/matrix/matrix.c **** }
 486              		.loc 1 396 0
 487 0006 7047     		bx	lr
 488              	.L44:
 489              		.align	2
 490              	.L43:
 491 0008 84800840 		.word	1074299012
 492              		.cfi_endproc
 493              	.LFE153:
 494              		.size	matrix_get_slave_priority_b, .-matrix_get_slave_priority_b
 495              		.section	.text.matrix_set_master_remap,"ax",%progbits
 496              		.align	1
 497              		.p2align 2,,3
 498              		.global	matrix_set_master_remap
 499              		.syntax unified
 500              		.thumb
 501              		.thumb_func
 502              		.fpu fpv5-d16
 503              		.type	matrix_set_master_remap, %function
 504              	matrix_set_master_remap:
 505              	.LFB154:
 397:../asf/sam/drivers/matrix/matrix.c **** #endif
 398:../asf/sam/drivers/matrix/matrix.c **** 
 399:../asf/sam/drivers/matrix/matrix.c **** #if (SAM3XA || SAM3U || SAM4E ||\
 400:../asf/sam/drivers/matrix/matrix.c **** 	 SAMV71 || SAMV70 || SAMS70 || SAME70)
ARM GAS  /tmp/cc3LTPp7.s 			page 17


 401:../asf/sam/drivers/matrix/matrix.c **** /**
 402:../asf/sam/drivers/matrix/matrix.c ****  * \brief Set bus matrix master remap.
 403:../asf/sam/drivers/matrix/matrix.c ****  *
 404:../asf/sam/drivers/matrix/matrix.c ****  * \param ul_remap Bitmask OR of RCBx: 0 for disable, 1 for enable.
 405:../asf/sam/drivers/matrix/matrix.c ****  */
 406:../asf/sam/drivers/matrix/matrix.c **** void matrix_set_master_remap(uint32_t ul_remap)
 407:../asf/sam/drivers/matrix/matrix.c **** {
 506              		.loc 1 407 0
 507              		.cfi_startproc
 508              		@ args = 0, pretend = 0, frame = 0
 509              		@ frame_needed = 0, uses_anonymous_args = 0
 510              		@ link register save eliminated.
 511              	.LVL34:
 408:../asf/sam/drivers/matrix/matrix.c **** 	Matrix *p_matrix = MATRIX;
 409:../asf/sam/drivers/matrix/matrix.c **** 
 410:../asf/sam/drivers/matrix/matrix.c **** 	p_matrix->MATRIX_MRCR = ul_remap;
 512              		.loc 1 410 0
 513 0000 014B     		ldr	r3, .L46
 514 0002 C3F80001 		str	r0, [r3, #256]
 515 0006 7047     		bx	lr
 516              	.L47:
 517              		.align	2
 518              	.L46:
 519 0008 00800840 		.word	1074298880
 520              		.cfi_endproc
 521              	.LFE154:
 522              		.size	matrix_set_master_remap, .-matrix_set_master_remap
 523              		.section	.text.matrix_get_master_remap,"ax",%progbits
 524              		.align	1
 525              		.p2align 2,,3
 526              		.global	matrix_get_master_remap
 527              		.syntax unified
 528              		.thumb
 529              		.thumb_func
 530              		.fpu fpv5-d16
 531              		.type	matrix_get_master_remap, %function
 532              	matrix_get_master_remap:
 533              	.LFB155:
 411:../asf/sam/drivers/matrix/matrix.c **** }
 412:../asf/sam/drivers/matrix/matrix.c **** 
 413:../asf/sam/drivers/matrix/matrix.c **** /**
 414:../asf/sam/drivers/matrix/matrix.c ****  * \brief Get bus matrix master remap.
 415:../asf/sam/drivers/matrix/matrix.c ****  *
 416:../asf/sam/drivers/matrix/matrix.c ****  * \return Bitmask OR of RCBx: 0 for disable, 1 for enable.
 417:../asf/sam/drivers/matrix/matrix.c ****  */
 418:../asf/sam/drivers/matrix/matrix.c **** uint32_t matrix_get_master_remap(void)
 419:../asf/sam/drivers/matrix/matrix.c **** {
 534              		.loc 1 419 0
 535              		.cfi_startproc
 536              		@ args = 0, pretend = 0, frame = 0
 537              		@ frame_needed = 0, uses_anonymous_args = 0
 538              		@ link register save eliminated.
 539              	.LVL35:
 420:../asf/sam/drivers/matrix/matrix.c **** 	Matrix *p_matrix = MATRIX;
 421:../asf/sam/drivers/matrix/matrix.c **** 
 422:../asf/sam/drivers/matrix/matrix.c **** 	return (p_matrix->MATRIX_MRCR);
 540              		.loc 1 422 0
ARM GAS  /tmp/cc3LTPp7.s 			page 18


 541 0000 014B     		ldr	r3, .L49
 542 0002 D3F80001 		ldr	r0, [r3, #256]
 423:../asf/sam/drivers/matrix/matrix.c **** }
 543              		.loc 1 423 0
 544 0006 7047     		bx	lr
 545              	.L50:
 546              		.align	2
 547              	.L49:
 548 0008 00800840 		.word	1074298880
 549              		.cfi_endproc
 550              	.LFE155:
 551              		.size	matrix_get_master_remap, .-matrix_get_master_remap
 552              		.section	.text.matrix_set_system_io,"ax",%progbits
 553              		.align	1
 554              		.p2align 2,,3
 555              		.global	matrix_set_system_io
 556              		.syntax unified
 557              		.thumb
 558              		.thumb_func
 559              		.fpu fpv5-d16
 560              		.type	matrix_set_system_io, %function
 561              	matrix_set_system_io:
 562              	.LFB156:
 424:../asf/sam/drivers/matrix/matrix.c **** 
 425:../asf/sam/drivers/matrix/matrix.c **** #endif
 426:../asf/sam/drivers/matrix/matrix.c **** 
 427:../asf/sam/drivers/matrix/matrix.c **** #if (SAM3S || SAM3XA || SAM3N || SAM4S || SAM4E || SAM4N || SAM4C || SAMG || SAM4CP || SAM4CM || \
 428:../asf/sam/drivers/matrix/matrix.c **** 	 SAMV71 || SAMV70 || SAMS70 || SAME70)
 429:../asf/sam/drivers/matrix/matrix.c **** /**
 430:../asf/sam/drivers/matrix/matrix.c ****  * \brief Set system IO.
 431:../asf/sam/drivers/matrix/matrix.c ****  *
 432:../asf/sam/drivers/matrix/matrix.c ****  * \param ul_io Bitmask OR of SYSIOx.
 433:../asf/sam/drivers/matrix/matrix.c ****  */
 434:../asf/sam/drivers/matrix/matrix.c **** void matrix_set_system_io(uint32_t ul_io)
 435:../asf/sam/drivers/matrix/matrix.c **** {
 563              		.loc 1 435 0
 564              		.cfi_startproc
 565              		@ args = 0, pretend = 0, frame = 0
 566              		@ frame_needed = 0, uses_anonymous_args = 0
 567              		@ link register save eliminated.
 568              	.LVL36:
 436:../asf/sam/drivers/matrix/matrix.c **** 	Matrix *p_matrix = MATRIX;
 437:../asf/sam/drivers/matrix/matrix.c **** 
 438:../asf/sam/drivers/matrix/matrix.c **** #if (SAM4C || SAM4CP || SAM4CM)
 439:../asf/sam/drivers/matrix/matrix.c **** 
 440:../asf/sam/drivers/matrix/matrix.c **** 	p_matrix->MATRIX_SYSIO = ul_io;
 441:../asf/sam/drivers/matrix/matrix.c **** 
 442:../asf/sam/drivers/matrix/matrix.c **** #elif (SAMV71 || SAMV70 || SAMS70 || SAME70)
 443:../asf/sam/drivers/matrix/matrix.c **** 	
 444:../asf/sam/drivers/matrix/matrix.c **** 	p_matrix->CCFG_SYSIO &= 0xFFFF0000;
 569              		.loc 1 444 0
 570 0000 064B     		ldr	r3, .L52
 445:../asf/sam/drivers/matrix/matrix.c **** 	p_matrix->CCFG_SYSIO |= (ul_io & 0xFFFF);
 571              		.loc 1 445 0
 572 0002 80B2     		uxth	r0, r0
 573              	.LVL37:
 444:../asf/sam/drivers/matrix/matrix.c **** 	p_matrix->CCFG_SYSIO |= (ul_io & 0xFFFF);
ARM GAS  /tmp/cc3LTPp7.s 			page 19


 574              		.loc 1 444 0
 575 0004 064A     		ldr	r2, .L52+4
 576 0006 D3F81411 		ldr	r1, [r3, #276]
 577 000a 0A40     		ands	r2, r2, r1
 578 000c C3F81421 		str	r2, [r3, #276]
 579              		.loc 1 445 0
 580 0010 D3F81421 		ldr	r2, [r3, #276]
 581 0014 1043     		orrs	r0, r0, r2
 582 0016 C3F81401 		str	r0, [r3, #276]
 583 001a 7047     		bx	lr
 584              	.L53:
 585              		.align	2
 586              	.L52:
 587 001c 00800840 		.word	1074298880
 588 0020 0000FFFF 		.word	-65536
 589              		.cfi_endproc
 590              	.LFE156:
 591              		.size	matrix_set_system_io, .-matrix_set_system_io
 592              		.section	.text.matrix_get_system_io,"ax",%progbits
 593              		.align	1
 594              		.p2align 2,,3
 595              		.global	matrix_get_system_io
 596              		.syntax unified
 597              		.thumb
 598              		.thumb_func
 599              		.fpu fpv5-d16
 600              		.type	matrix_get_system_io, %function
 601              	matrix_get_system_io:
 602              	.LFB157:
 446:../asf/sam/drivers/matrix/matrix.c **** 
 447:../asf/sam/drivers/matrix/matrix.c **** #else
 448:../asf/sam/drivers/matrix/matrix.c **** 
 449:../asf/sam/drivers/matrix/matrix.c **** 	p_matrix->CCFG_SYSIO = ul_io;
 450:../asf/sam/drivers/matrix/matrix.c **** 
 451:../asf/sam/drivers/matrix/matrix.c **** #endif
 452:../asf/sam/drivers/matrix/matrix.c **** 
 453:../asf/sam/drivers/matrix/matrix.c **** }
 454:../asf/sam/drivers/matrix/matrix.c **** 
 455:../asf/sam/drivers/matrix/matrix.c **** /**
 456:../asf/sam/drivers/matrix/matrix.c ****  * \brief Get system IO.
 457:../asf/sam/drivers/matrix/matrix.c ****  *
 458:../asf/sam/drivers/matrix/matrix.c ****  * \return Bitmask OR of SYSIOx.
 459:../asf/sam/drivers/matrix/matrix.c ****  */
 460:../asf/sam/drivers/matrix/matrix.c **** uint32_t matrix_get_system_io(void)
 461:../asf/sam/drivers/matrix/matrix.c **** {
 603              		.loc 1 461 0
 604              		.cfi_startproc
 605              		@ args = 0, pretend = 0, frame = 0
 606              		@ frame_needed = 0, uses_anonymous_args = 0
 607              		@ link register save eliminated.
 608              	.LVL38:
 462:../asf/sam/drivers/matrix/matrix.c **** 	Matrix *p_matrix = MATRIX;
 463:../asf/sam/drivers/matrix/matrix.c **** 
 464:../asf/sam/drivers/matrix/matrix.c **** #if (SAM4C || SAM4CP || SAM4CM)
 465:../asf/sam/drivers/matrix/matrix.c **** 
 466:../asf/sam/drivers/matrix/matrix.c **** 	return (p_matrix->MATRIX_SYSIO);
 467:../asf/sam/drivers/matrix/matrix.c **** 
ARM GAS  /tmp/cc3LTPp7.s 			page 20


 468:../asf/sam/drivers/matrix/matrix.c **** #elif (SAMV71 || SAMV70 || SAMS70 || SAME70)
 469:../asf/sam/drivers/matrix/matrix.c **** 
 470:../asf/sam/drivers/matrix/matrix.c **** 	return (p_matrix->CCFG_SYSIO & 0xFFFF);
 609              		.loc 1 470 0
 610 0000 024B     		ldr	r3, .L55
 611 0002 D3F81401 		ldr	r0, [r3, #276]
 471:../asf/sam/drivers/matrix/matrix.c **** 
 472:../asf/sam/drivers/matrix/matrix.c **** #else
 473:../asf/sam/drivers/matrix/matrix.c **** 
 474:../asf/sam/drivers/matrix/matrix.c **** 	return (p_matrix->CCFG_SYSIO);
 475:../asf/sam/drivers/matrix/matrix.c **** 
 476:../asf/sam/drivers/matrix/matrix.c **** #endif
 477:../asf/sam/drivers/matrix/matrix.c **** }
 612              		.loc 1 477 0
 613 0006 80B2     		uxth	r0, r0
 614 0008 7047     		bx	lr
 615              	.L56:
 616 000a 00BF     		.align	2
 617              	.L55:
 618 000c 00800840 		.word	1074298880
 619              		.cfi_endproc
 620              	.LFE157:
 621              		.size	matrix_get_system_io, .-matrix_get_system_io
 622              		.section	.text.matrix_set_nandflash_cs,"ax",%progbits
 623              		.align	1
 624              		.p2align 2,,3
 625              		.global	matrix_set_nandflash_cs
 626              		.syntax unified
 627              		.thumb
 628              		.thumb_func
 629              		.fpu fpv5-d16
 630              		.type	matrix_set_nandflash_cs, %function
 631              	matrix_set_nandflash_cs:
 632              	.LFB158:
 478:../asf/sam/drivers/matrix/matrix.c **** 
 479:../asf/sam/drivers/matrix/matrix.c **** #endif
 480:../asf/sam/drivers/matrix/matrix.c **** 
 481:../asf/sam/drivers/matrix/matrix.c **** #if (SAM3S || SAM4S || SAM4E || SAM4C || SAM4CP || SAM4CM || \
 482:../asf/sam/drivers/matrix/matrix.c **** 	 SAMV71 || SAMV70 || SAMS70 || SAME70)
 483:../asf/sam/drivers/matrix/matrix.c **** /**
 484:../asf/sam/drivers/matrix/matrix.c ****  * \brief Set NAND Flash Chip Select configuration register.
 485:../asf/sam/drivers/matrix/matrix.c ****  *
 486:../asf/sam/drivers/matrix/matrix.c ****  * \param ul_cs Bitmask OR of SMC_NFCSx: 0 if NCSx is not assigned,
 487:../asf/sam/drivers/matrix/matrix.c ****  * 1 if NCSx is assigned.
 488:../asf/sam/drivers/matrix/matrix.c ****  */
 489:../asf/sam/drivers/matrix/matrix.c **** void matrix_set_nandflash_cs(uint32_t ul_cs)
 490:../asf/sam/drivers/matrix/matrix.c **** {
 633              		.loc 1 490 0
 634              		.cfi_startproc
 635              		@ args = 0, pretend = 0, frame = 0
 636              		@ frame_needed = 0, uses_anonymous_args = 0
 637              		@ link register save eliminated.
 638              	.LVL39:
 491:../asf/sam/drivers/matrix/matrix.c **** 	Matrix *p_matrix = MATRIX;
 492:../asf/sam/drivers/matrix/matrix.c **** 
 493:../asf/sam/drivers/matrix/matrix.c **** 
 494:../asf/sam/drivers/matrix/matrix.c **** #if (SAM4C || SAM4CP || SAM4CM)
ARM GAS  /tmp/cc3LTPp7.s 			page 21


 495:../asf/sam/drivers/matrix/matrix.c **** 
 496:../asf/sam/drivers/matrix/matrix.c **** 	p_matrix->MATRIX_SMCNFCS = ul_cs;
 497:../asf/sam/drivers/matrix/matrix.c **** 
 498:../asf/sam/drivers/matrix/matrix.c **** #else
 499:../asf/sam/drivers/matrix/matrix.c **** 
 500:../asf/sam/drivers/matrix/matrix.c **** 	p_matrix->CCFG_SMCNFCS = ul_cs;
 639              		.loc 1 500 0
 640 0000 014B     		ldr	r3, .L58
 641 0002 C3F82401 		str	r0, [r3, #292]
 642 0006 7047     		bx	lr
 643              	.L59:
 644              		.align	2
 645              	.L58:
 646 0008 00800840 		.word	1074298880
 647              		.cfi_endproc
 648              	.LFE158:
 649              		.size	matrix_set_nandflash_cs, .-matrix_set_nandflash_cs
 650              		.section	.text.matrix_get_nandflash_cs,"ax",%progbits
 651              		.align	1
 652              		.p2align 2,,3
 653              		.global	matrix_get_nandflash_cs
 654              		.syntax unified
 655              		.thumb
 656              		.thumb_func
 657              		.fpu fpv5-d16
 658              		.type	matrix_get_nandflash_cs, %function
 659              	matrix_get_nandflash_cs:
 660              	.LFB159:
 501:../asf/sam/drivers/matrix/matrix.c **** 
 502:../asf/sam/drivers/matrix/matrix.c **** #endif
 503:../asf/sam/drivers/matrix/matrix.c **** }
 504:../asf/sam/drivers/matrix/matrix.c **** 
 505:../asf/sam/drivers/matrix/matrix.c **** /**
 506:../asf/sam/drivers/matrix/matrix.c ****  * \brief Get NAND Flash Chip Select configuration register.
 507:../asf/sam/drivers/matrix/matrix.c ****  *
 508:../asf/sam/drivers/matrix/matrix.c ****  * \return Bitmask OR of SMC_NFCSx.
 509:../asf/sam/drivers/matrix/matrix.c ****  */
 510:../asf/sam/drivers/matrix/matrix.c **** uint32_t matrix_get_nandflash_cs(void)
 511:../asf/sam/drivers/matrix/matrix.c **** {
 661              		.loc 1 511 0
 662              		.cfi_startproc
 663              		@ args = 0, pretend = 0, frame = 0
 664              		@ frame_needed = 0, uses_anonymous_args = 0
 665              		@ link register save eliminated.
 666              	.LVL40:
 512:../asf/sam/drivers/matrix/matrix.c **** 	Matrix *p_matrix = MATRIX;
 513:../asf/sam/drivers/matrix/matrix.c **** 
 514:../asf/sam/drivers/matrix/matrix.c **** #if (SAM4C || SAM4CP || SAM4CM)
 515:../asf/sam/drivers/matrix/matrix.c **** 
 516:../asf/sam/drivers/matrix/matrix.c **** 	return (p_matrix->MATRIX_SMCNFCS);
 517:../asf/sam/drivers/matrix/matrix.c **** 
 518:../asf/sam/drivers/matrix/matrix.c **** #else
 519:../asf/sam/drivers/matrix/matrix.c **** 
 520:../asf/sam/drivers/matrix/matrix.c **** 	return (p_matrix->CCFG_SMCNFCS);
 667              		.loc 1 520 0
 668 0000 014B     		ldr	r3, .L61
 669 0002 D3F82401 		ldr	r0, [r3, #292]
ARM GAS  /tmp/cc3LTPp7.s 			page 22


 521:../asf/sam/drivers/matrix/matrix.c **** 
 522:../asf/sam/drivers/matrix/matrix.c **** #endif
 523:../asf/sam/drivers/matrix/matrix.c **** }
 670              		.loc 1 523 0
 671 0006 7047     		bx	lr
 672              	.L62:
 673              		.align	2
 674              	.L61:
 675 0008 00800840 		.word	1074298880
 676              		.cfi_endproc
 677              	.LFE159:
 678              		.size	matrix_get_nandflash_cs, .-matrix_get_nandflash_cs
 679              		.section	.text.matrix_set_writeprotect,"ax",%progbits
 680              		.align	1
 681              		.p2align 2,,3
 682              		.global	matrix_set_writeprotect
 683              		.syntax unified
 684              		.thumb
 685              		.thumb_func
 686              		.fpu fpv5-d16
 687              		.type	matrix_set_writeprotect, %function
 688              	matrix_set_writeprotect:
 689              	.LFB160:
 524:../asf/sam/drivers/matrix/matrix.c **** 
 525:../asf/sam/drivers/matrix/matrix.c **** #endif
 526:../asf/sam/drivers/matrix/matrix.c **** 
 527:../asf/sam/drivers/matrix/matrix.c **** #if (!SAMG)
 528:../asf/sam/drivers/matrix/matrix.c **** /**
 529:../asf/sam/drivers/matrix/matrix.c ****  * \brief Enable or disable write protect of MATRIX registers.
 530:../asf/sam/drivers/matrix/matrix.c ****  *
 531:../asf/sam/drivers/matrix/matrix.c ****  * \param ul_enable 1 to enable, 0 to disable.
 532:../asf/sam/drivers/matrix/matrix.c ****  */
 533:../asf/sam/drivers/matrix/matrix.c **** void matrix_set_writeprotect(uint32_t ul_enable)
 534:../asf/sam/drivers/matrix/matrix.c **** {
 690              		.loc 1 534 0
 691              		.cfi_startproc
 692              		@ args = 0, pretend = 0, frame = 0
 693              		@ frame_needed = 0, uses_anonymous_args = 0
 694              		@ link register save eliminated.
 695              	.LVL41:
 535:../asf/sam/drivers/matrix/matrix.c **** 	Matrix *p_matrix = MATRIX;
 536:../asf/sam/drivers/matrix/matrix.c **** 
 537:../asf/sam/drivers/matrix/matrix.c **** 	if (ul_enable) {
 538:../asf/sam/drivers/matrix/matrix.c **** 		p_matrix->MATRIX_WPMR = MATRIX_WPMR_WPKEY_PASSWD | MATRIX_WPMR_WPEN;
 696              		.loc 1 538 0
 697 0000 044B     		ldr	r3, .L68
 537:../asf/sam/drivers/matrix/matrix.c **** 		p_matrix->MATRIX_WPMR = MATRIX_WPMR_WPKEY_PASSWD | MATRIX_WPMR_WPEN;
 698              		.loc 1 537 0
 699 0002 18B9     		cbnz	r0, .L67
 539:../asf/sam/drivers/matrix/matrix.c **** 	} else {
 540:../asf/sam/drivers/matrix/matrix.c **** 		p_matrix->MATRIX_WPMR = MATRIX_WPMR_WPKEY_PASSWD;
 700              		.loc 1 540 0
 701 0004 044A     		ldr	r2, .L68+4
 702 0006 C3F8E421 		str	r2, [r3, #484]
 703 000a 7047     		bx	lr
 704              	.L67:
 538:../asf/sam/drivers/matrix/matrix.c **** 	} else {
ARM GAS  /tmp/cc3LTPp7.s 			page 23


 705              		.loc 1 538 0
 706 000c 034A     		ldr	r2, .L68+8
 707 000e C3F8E421 		str	r2, [r3, #484]
 708 0012 7047     		bx	lr
 709              	.L69:
 710              		.align	2
 711              	.L68:
 712 0014 00800840 		.word	1074298880
 713 0018 0054414D 		.word	1296126976
 714 001c 0154414D 		.word	1296126977
 715              		.cfi_endproc
 716              	.LFE160:
 717              		.size	matrix_set_writeprotect, .-matrix_set_writeprotect
 718              		.section	.text.matrix_get_writeprotect_status,"ax",%progbits
 719              		.align	1
 720              		.p2align 2,,3
 721              		.global	matrix_get_writeprotect_status
 722              		.syntax unified
 723              		.thumb
 724              		.thumb_func
 725              		.fpu fpv5-d16
 726              		.type	matrix_get_writeprotect_status, %function
 727              	matrix_get_writeprotect_status:
 728              	.LFB161:
 541:../asf/sam/drivers/matrix/matrix.c **** 	}
 542:../asf/sam/drivers/matrix/matrix.c **** }
 543:../asf/sam/drivers/matrix/matrix.c **** 
 544:../asf/sam/drivers/matrix/matrix.c **** /**
 545:../asf/sam/drivers/matrix/matrix.c ****  * \brief Get write protect status.
 546:../asf/sam/drivers/matrix/matrix.c ****  *
 547:../asf/sam/drivers/matrix/matrix.c ****  * \return Write protect status.
 548:../asf/sam/drivers/matrix/matrix.c ****  */
 549:../asf/sam/drivers/matrix/matrix.c **** uint32_t matrix_get_writeprotect_status(void)
 550:../asf/sam/drivers/matrix/matrix.c **** {
 729              		.loc 1 550 0
 730              		.cfi_startproc
 731              		@ args = 0, pretend = 0, frame = 0
 732              		@ frame_needed = 0, uses_anonymous_args = 0
 733              		@ link register save eliminated.
 734              	.LVL42:
 551:../asf/sam/drivers/matrix/matrix.c **** 	Matrix *p_matrix = MATRIX;
 552:../asf/sam/drivers/matrix/matrix.c **** 
 553:../asf/sam/drivers/matrix/matrix.c **** 	return (p_matrix->MATRIX_WPSR);
 735              		.loc 1 553 0
 736 0000 014B     		ldr	r3, .L71
 737 0002 D3F8E801 		ldr	r0, [r3, #488]
 554:../asf/sam/drivers/matrix/matrix.c **** }
 738              		.loc 1 554 0
 739 0006 7047     		bx	lr
 740              	.L72:
 741              		.align	2
 742              	.L71:
 743 0008 00800840 		.word	1074298880
 744              		.cfi_endproc
 745              	.LFE161:
 746              		.size	matrix_get_writeprotect_status, .-matrix_get_writeprotect_status
 747              		.section	.text.matrix_set_can0_addr,"ax",%progbits
ARM GAS  /tmp/cc3LTPp7.s 			page 24


 748              		.align	1
 749              		.p2align 2,,3
 750              		.global	matrix_set_can0_addr
 751              		.syntax unified
 752              		.thumb
 753              		.thumb_func
 754              		.fpu fpv5-d16
 755              		.type	matrix_set_can0_addr, %function
 756              	matrix_set_can0_addr:
 757              	.LFB162:
 555:../asf/sam/drivers/matrix/matrix.c **** #endif
 556:../asf/sam/drivers/matrix/matrix.c **** 
 557:../asf/sam/drivers/matrix/matrix.c **** #if SAMG55
 558:../asf/sam/drivers/matrix/matrix.c **** /**
 559:../asf/sam/drivers/matrix/matrix.c ****  * \brief Set USB device mode.
 560:../asf/sam/drivers/matrix/matrix.c ****  *
 561:../asf/sam/drivers/matrix/matrix.c ****  */
 562:../asf/sam/drivers/matrix/matrix.c **** void matrix_set_usb_device(void)
 563:../asf/sam/drivers/matrix/matrix.c **** {
 564:../asf/sam/drivers/matrix/matrix.c **** 	Matrix *p_matrix = MATRIX;
 565:../asf/sam/drivers/matrix/matrix.c **** 
 566:../asf/sam/drivers/matrix/matrix.c **** 	p_matrix->CCFG_SYSIO &= ~(CCFG_SYSIO_SYSIO10 | CCFG_SYSIO_SYSIO11);
 567:../asf/sam/drivers/matrix/matrix.c **** 
 568:../asf/sam/drivers/matrix/matrix.c **** 	p_matrix->CCFG_USBMR |= CCFG_USBMR_DEVICE;
 569:../asf/sam/drivers/matrix/matrix.c **** }
 570:../asf/sam/drivers/matrix/matrix.c **** 
 571:../asf/sam/drivers/matrix/matrix.c **** /**
 572:../asf/sam/drivers/matrix/matrix.c ****  * \brief Set USB device mode.
 573:../asf/sam/drivers/matrix/matrix.c ****  *
 574:../asf/sam/drivers/matrix/matrix.c ****  */
 575:../asf/sam/drivers/matrix/matrix.c **** void matrix_set_usb_host(void)
 576:../asf/sam/drivers/matrix/matrix.c **** {
 577:../asf/sam/drivers/matrix/matrix.c **** 	Matrix *p_matrix = MATRIX;
 578:../asf/sam/drivers/matrix/matrix.c **** 
 579:../asf/sam/drivers/matrix/matrix.c **** 	p_matrix->CCFG_SYSIO &= ~(CCFG_SYSIO_SYSIO10 | CCFG_SYSIO_SYSIO11);
 580:../asf/sam/drivers/matrix/matrix.c **** 
 581:../asf/sam/drivers/matrix/matrix.c **** 	p_matrix->CCFG_USBMR &= ~CCFG_USBMR_DEVICE;
 582:../asf/sam/drivers/matrix/matrix.c **** }
 583:../asf/sam/drivers/matrix/matrix.c **** #endif
 584:../asf/sam/drivers/matrix/matrix.c **** 
 585:../asf/sam/drivers/matrix/matrix.c **** #if (SAMV71 || SAMV70|| SAME70)
 586:../asf/sam/drivers/matrix/matrix.c **** /**
 587:../asf/sam/drivers/matrix/matrix.c ****  * \brief Set CAN0 DMA base address.
 588:../asf/sam/drivers/matrix/matrix.c ****  *
 589:../asf/sam/drivers/matrix/matrix.c ****  * \param base_addr the 16-bit MSB of the CAN0 DMA base address.
 590:../asf/sam/drivers/matrix/matrix.c ****  */
 591:../asf/sam/drivers/matrix/matrix.c **** void matrix_set_can0_addr(uint32_t base_addr)
 592:../asf/sam/drivers/matrix/matrix.c **** {
 758              		.loc 1 592 0
 759              		.cfi_startproc
 760              		@ args = 0, pretend = 0, frame = 0
 761              		@ frame_needed = 0, uses_anonymous_args = 0
 762              		@ link register save eliminated.
 763              	.LVL43:
 593:../asf/sam/drivers/matrix/matrix.c **** 	Matrix *p_matrix = MATRIX;
 594:../asf/sam/drivers/matrix/matrix.c **** 	p_matrix->CCFG_CAN0 = CCFG_CAN0_CAN0DMABA(base_addr);
 764              		.loc 1 594 0
ARM GAS  /tmp/cc3LTPp7.s 			page 25


 765 0000 0004     		lsls	r0, r0, #16
 766              	.LVL44:
 767 0002 024B     		ldr	r3, .L74
 768 0004 C3F81001 		str	r0, [r3, #272]
 769 0008 7047     		bx	lr
 770              	.L75:
 771 000a 00BF     		.align	2
 772              	.L74:
 773 000c 00800840 		.word	1074298880
 774              		.cfi_endproc
 775              	.LFE162:
 776              		.size	matrix_set_can0_addr, .-matrix_set_can0_addr
 777              		.section	.text.matrix_set_can1_addr,"ax",%progbits
 778              		.align	1
 779              		.p2align 2,,3
 780              		.global	matrix_set_can1_addr
 781              		.syntax unified
 782              		.thumb
 783              		.thumb_func
 784              		.fpu fpv5-d16
 785              		.type	matrix_set_can1_addr, %function
 786              	matrix_set_can1_addr:
 787              	.LFB163:
 595:../asf/sam/drivers/matrix/matrix.c **** }
 596:../asf/sam/drivers/matrix/matrix.c **** 
 597:../asf/sam/drivers/matrix/matrix.c **** /**
 598:../asf/sam/drivers/matrix/matrix.c ****  * \brief Set CAN1 DMA base address.
 599:../asf/sam/drivers/matrix/matrix.c ****  *
 600:../asf/sam/drivers/matrix/matrix.c ****  * \param base_addr the 16-bit MSB of the CAN1 DMA base address.
 601:../asf/sam/drivers/matrix/matrix.c ****  */
 602:../asf/sam/drivers/matrix/matrix.c **** void matrix_set_can1_addr(uint32_t base_addr)
 603:../asf/sam/drivers/matrix/matrix.c **** {
 788              		.loc 1 603 0
 789              		.cfi_startproc
 790              		@ args = 0, pretend = 0, frame = 8
 791              		@ frame_needed = 0, uses_anonymous_args = 0
 792              		@ link register save eliminated.
 793              	.LVL45:
 604:../asf/sam/drivers/matrix/matrix.c **** 	Matrix *p_matrix = MATRIX;
 605:../asf/sam/drivers/matrix/matrix.c **** 	volatile uint32_t ul_reg;
 606:../asf/sam/drivers/matrix/matrix.c **** 
 607:../asf/sam/drivers/matrix/matrix.c **** 	ul_reg = p_matrix->CCFG_SYSIO & (~CCFG_SYSIO_CAN1DMABA_Msk);
 794              		.loc 1 607 0
 795 0000 064A     		ldr	r2, .L78
 603:../asf/sam/drivers/matrix/matrix.c **** 	Matrix *p_matrix = MATRIX;
 796              		.loc 1 603 0
 797 0002 82B0     		sub	sp, sp, #8
 798              		.cfi_def_cfa_offset 8
 799              		.loc 1 607 0
 800 0004 D2F81431 		ldr	r3, [r2, #276]
 801 0008 9BB2     		uxth	r3, r3
 802 000a 0193     		str	r3, [sp, #4]
 608:../asf/sam/drivers/matrix/matrix.c **** 	p_matrix->CCFG_SYSIO = ul_reg | CCFG_SYSIO_CAN1DMABA(base_addr);
 803              		.loc 1 608 0
 804 000c 019B     		ldr	r3, [sp, #4]
 805 000e 43EA0040 		orr	r0, r3, r0, lsl #16
 806              	.LVL46:
ARM GAS  /tmp/cc3LTPp7.s 			page 26


 807 0012 C2F81401 		str	r0, [r2, #276]
 609:../asf/sam/drivers/matrix/matrix.c **** }
 808              		.loc 1 609 0
 809 0016 02B0     		add	sp, sp, #8
 810              		.cfi_def_cfa_offset 0
 811              		@ sp needed
 812 0018 7047     		bx	lr
 813              	.L79:
 814 001a 00BF     		.align	2
 815              	.L78:
 816 001c 00800840 		.word	1074298880
 817              		.cfi_endproc
 818              	.LFE163:
 819              		.size	matrix_set_can1_addr, .-matrix_set_can1_addr
 820              		.section	.bss.cpu_irq_critical_section_counter,"aw",%nobits
 821              		.align	2
 822              		.type	cpu_irq_critical_section_counter, %object
 823              		.size	cpu_irq_critical_section_counter, 4
 824              	cpu_irq_critical_section_counter:
 825 0000 00000000 		.space	4
 826              		.section	.bss.cpu_irq_prev_interrupt_state,"aw",%nobits
 827              		.type	cpu_irq_prev_interrupt_state, %object
 828              		.size	cpu_irq_prev_interrupt_state, 1
 829              	cpu_irq_prev_interrupt_state:
 830 0000 00       		.space	1
 831              		.text
 832              	.Letext0:
 833              		.file 2 "/usr/include/newlib/machine/_default_types.h"
 834              		.file 3 "/usr/include/newlib/sys/_stdint.h"
 835              		.file 4 "/home/torbjorn/eclipse-workspace/CoreNG/asf/thirdparty/CMSIS/Include/core_cm7.h"
 836              		.file 5 "/home/torbjorn/eclipse-workspace/CoreNG/variants/same70/system_same70.h"
 837              		.file 6 "/home/torbjorn/eclipse-workspace/CoreNG/asf/sam/utils/cmsis/same70/include/component/matr
 838              		.file 7 "/usr/include/newlib/sys/lock.h"
 839              		.file 8 "/usr/include/newlib/sys/_types.h"
 840              		.file 9 "/usr/lib/gcc/arm-none-eabi/6.3.1/include/stddef.h"
 841              		.file 10 "/usr/include/newlib/sys/reent.h"
 842              		.file 11 "/usr/include/newlib/stdlib.h"
 843              		.file 12 "/home/torbjorn/eclipse-workspace/CoreNG/asf/common/utils/interrupt/interrupt_sam_nvic.h"
 844              		.file 13 "../asf/sam/drivers/matrix/matrix.h"