ARM GAS  /tmp/ccxTd9og.s 			page 1


   1              		.cpu cortex-m7
   2              		.eabi_attribute 28, 1
   3              		.eabi_attribute 20, 1
   4              		.eabi_attribute 21, 1
   5              		.eabi_attribute 23, 3
   6              		.eabi_attribute 24, 1
   7              		.eabi_attribute 25, 1
   8              		.eabi_attribute 26, 1
   9              		.eabi_attribute 30, 2
  10              		.eabi_attribute 34, 1
  11              		.eabi_attribute 18, 4
  12              		.file	"new.cpp"
  13              		.text
  14              	.Ltext0:
  15              		.cfi_sections	.debug_frame
  16              		.section	.text._Znwj,"ax",%progbits
  17              		.align	1
  18              		.p2align 2,,3
  19              		.global	_Znwj
  20              		.syntax unified
  21              		.thumb
  22              		.thumb_func
  23              		.fpu fpv5-d16
  24              		.type	_Znwj, %function
  25              	_Znwj:
  26              	.LFB15:
  27              		.cfi_startproc
  28              		@ args = 0, pretend = 0, frame = 0
  29              		@ frame_needed = 0, uses_anonymous_args = 0
  30              		@ link register save eliminated.
  31 0000 FFF7FEBF 		b	malloc
  32              		.cfi_endproc
  33              	.LFE15:
  34              		.size	_Znwj, .-_Znwj
  35              		.section	.text._Znaj,"ax",%progbits
  36              		.align	1
  37              		.p2align 2,,3
  38              		.global	_Znaj
  39              		.syntax unified
  40              		.thumb
  41              		.thumb_func
  42              		.fpu fpv5-d16
  43              		.type	_Znaj, %function
  44              	_Znaj:
  45              	.LFB5:
  46              		.file 1 "../cores/arduino/new.cpp"
   1:../cores/arduino/new.cpp **** /*
   2:../cores/arduino/new.cpp ****   Copyright (c) 2014 Arduino.  All right reserved.
   3:../cores/arduino/new.cpp **** 
   4:../cores/arduino/new.cpp ****   This library is free software; you can redistribute it and/or
   5:../cores/arduino/new.cpp ****   modify it under the terms of the GNU Lesser General Public
   6:../cores/arduino/new.cpp ****   License as published by the Free Software Foundation; either
   7:../cores/arduino/new.cpp ****   version 2.1 of the License, or (at your option) any later version.
   8:../cores/arduino/new.cpp **** 
   9:../cores/arduino/new.cpp ****   This library is distributed in the hope that it will be useful,
  10:../cores/arduino/new.cpp ****   but WITHOUT ANY WARRANTY; without even the implied warranty of
  11:../cores/arduino/new.cpp ****   MERCHANTABILITY or FITNESS FOR A PARTICULAR PURPOSE. 
ARM GAS  /tmp/ccxTd9og.s 			page 2


  12:../cores/arduino/new.cpp ****   See the GNU Lesser General Public License for more details.
  13:../cores/arduino/new.cpp **** 
  14:../cores/arduino/new.cpp ****   You should have received a copy of the GNU Lesser General Public
  15:../cores/arduino/new.cpp ****   License along with this library; if not, write to the Free Software
  16:../cores/arduino/new.cpp ****   Foundation, Inc., 51 Franklin St, Fifth Floor, Boston, MA  02110-1301  USA
  17:../cores/arduino/new.cpp **** */
  18:../cores/arduino/new.cpp **** 
  19:../cores/arduino/new.cpp **** #include <stdlib.h>
  20:../cores/arduino/new.cpp **** 
  21:../cores/arduino/new.cpp **** void *operator new(size_t size) {
  22:../cores/arduino/new.cpp ****   return malloc(size);
  23:../cores/arduino/new.cpp **** }
  24:../cores/arduino/new.cpp **** 
  25:../cores/arduino/new.cpp **** void *operator new[](size_t size) {
  47              		.loc 1 25 0
  48              		.cfi_startproc
  49              		@ args = 0, pretend = 0, frame = 0
  50              		@ frame_needed = 0, uses_anonymous_args = 0
  51              		@ link register save eliminated.
  52              	.LVL0:
  26:../cores/arduino/new.cpp ****   return malloc(size);
  53              		.loc 1 26 0
  54 0000 FFF7FEBF 		b	malloc
  55              	.LVL1:
  56              		.cfi_endproc
  57              	.LFE5:
  58              		.size	_Znaj, .-_Znaj
  59              		.section	.text._ZdlPv,"ax",%progbits
  60              		.align	1
  61              		.p2align 2,,3
  62              		.global	_ZdlPv
  63              		.syntax unified
  64              		.thumb
  65              		.thumb_func
  66              		.fpu fpv5-d16
  67              		.type	_ZdlPv, %function
  68              	_ZdlPv:
  69              	.LFB11:
  70              		.cfi_startproc
  71              		@ args = 0, pretend = 0, frame = 0
  72              		@ frame_needed = 0, uses_anonymous_args = 0
  73              		@ link register save eliminated.
  74 0000 FFF7FEBF 		b	free
  75              		.cfi_endproc
  76              	.LFE11:
  77              		.size	_ZdlPv, .-_ZdlPv
  78              		.section	.text._ZdaPv,"ax",%progbits
  79              		.align	1
  80              		.p2align 2,,3
  81              		.global	_ZdaPv
  82              		.syntax unified
  83              		.thumb
  84              		.thumb_func
  85              		.fpu fpv5-d16
  86              		.type	_ZdaPv, %function
  87              	_ZdaPv:
  88              	.LFB7:
ARM GAS  /tmp/ccxTd9og.s 			page 3


  27:../cores/arduino/new.cpp **** }
  28:../cores/arduino/new.cpp **** 
  29:../cores/arduino/new.cpp **** void operator delete(void * ptr) {
  30:../cores/arduino/new.cpp ****   free(ptr);
  31:../cores/arduino/new.cpp **** }
  32:../cores/arduino/new.cpp **** 
  33:../cores/arduino/new.cpp **** void operator delete[](void * ptr) {
  89              		.loc 1 33 0
  90              		.cfi_startproc
  91              		@ args = 0, pretend = 0, frame = 0
  92              		@ frame_needed = 0, uses_anonymous_args = 0
  93              		@ link register save eliminated.
  94              	.LVL2:
  34:../cores/arduino/new.cpp ****   free(ptr);
  95              		.loc 1 34 0
  96 0000 FFF7FEBF 		b	free
  97              	.LVL3:
  98              		.cfi_endproc
  99              	.LFE7:
 100              		.size	_ZdaPv, .-_ZdaPv
 101              		.section	.text._ZdlPvj,"ax",%progbits
 102              		.align	1
 103              		.p2align 2,,3
 104              		.global	_ZdlPvj
 105              		.syntax unified
 106              		.thumb
 107              		.thumb_func
 108              		.fpu fpv5-d16
 109              		.type	_ZdlPvj, %function
 110              	_ZdlPvj:
 111              	.LFB13:
 112              		.cfi_startproc
 113              		@ args = 0, pretend = 0, frame = 0
 114              		@ frame_needed = 0, uses_anonymous_args = 0
 115              		@ link register save eliminated.
 116 0000 FFF7FEBF 		b	free
 117              		.cfi_endproc
 118              	.LFE13:
 119              		.size	_ZdlPvj, .-_ZdlPvj
 120              		.section	.text._ZdaPvj,"ax",%progbits
 121              		.align	1
 122              		.p2align 2,,3
 123              		.global	_ZdaPvj
 124              		.syntax unified
 125              		.thumb
 126              		.thumb_func
 127              		.fpu fpv5-d16
 128              		.type	_ZdaPvj, %function
 129              	_ZdaPvj:
 130              	.LFB9:
  35:../cores/arduino/new.cpp **** }
  36:../cores/arduino/new.cpp **** 
  37:../cores/arduino/new.cpp **** void operator delete(void *ptr, size_t)
  38:../cores/arduino/new.cpp **** {
  39:../cores/arduino/new.cpp **** 	free(ptr);
  40:../cores/arduino/new.cpp **** }
  41:../cores/arduino/new.cpp **** 
ARM GAS  /tmp/ccxTd9og.s 			page 4


  42:../cores/arduino/new.cpp **** void operator delete[](void *ptr, size_t)
  43:../cores/arduino/new.cpp **** {
 131              		.loc 1 43 0
 132              		.cfi_startproc
 133              		@ args = 0, pretend = 0, frame = 0
 134              		@ frame_needed = 0, uses_anonymous_args = 0
 135              		@ link register save eliminated.
 136              	.LVL4:
  44:../cores/arduino/new.cpp **** 	free(ptr);
 137              		.loc 1 44 0
 138 0000 FFF7FEBF 		b	free
 139              	.LVL5:
 140              		.cfi_endproc
 141              	.LFE9:
 142              		.size	_ZdaPvj, .-_ZdaPvj
 143              		.text
 144              	.Letext0:
 145              		.file 2 "/usr/include/newlib/c++/6.3.1/cstdlib"
 146              		.file 3 "/usr/include/newlib/c++/6.3.1/arm-none-eabi/thumb/v7e-m/fpv5/hard/bits/c++config.h"
 147              		.file 4 "/usr/lib/gcc/arm-none-eabi/6.3.1/include/stddef.h"
 148              		.file 5 "/usr/include/newlib/sys/lock.h"
 149              		.file 6 "/usr/include/newlib/sys/_types.h"
 150              		.file 7 "/usr/include/newlib/sys/reent.h"
 151              		.file 8 "/usr/include/newlib/stdlib.h"
 152              		.file 9 "/usr/include/newlib/c++/6.3.1/stdlib.h"
 153              		.file 10 "<built-in>"