ARM GAS  /tmp/ccZzmomm.s 			page 1


   1              		.cpu cortex-m7
   2              		.eabi_attribute 28, 1
   3              		.eabi_attribute 20, 1
   4              		.eabi_attribute 21, 1
   5              		.eabi_attribute 23, 3
   6              		.eabi_attribute 24, 1
   7              		.eabi_attribute 25, 1
   8              		.eabi_attribute 26, 1
   9              		.eabi_attribute 30, 2
  10              		.eabi_attribute 34, 1
  11              		.eabi_attribute 18, 4
  12              		.file	"Print.cpp"
  13              		.text
  14              	.Ltext0:
  15              		.cfi_sections	.debug_frame
  16              		.section	.text._ZN5Print5writeEPKhj,"ax",%progbits
  17              		.align	1
  18              		.p2align 2,,3
  19              		.global	_ZN5Print5writeEPKhj
  20              		.syntax unified
  21              		.thumb
  22              		.thumb_func
  23              		.fpu fpv5-d16
  24              		.type	_ZN5Print5writeEPKhj, %function
  25              	_ZN5Print5writeEPKhj:
  26              	.LFB525:
  27              		.file 1 "../cores/arduino/Print.cpp"
   1:../cores/arduino/Print.cpp **** /*
   2:../cores/arduino/Print.cpp ****  Print.cpp - Base class that provides print() and println()
   3:../cores/arduino/Print.cpp ****  Copyright (c) 2008 David A. Mellis.  All right reserved.
   4:../cores/arduino/Print.cpp ****  
   5:../cores/arduino/Print.cpp ****  This library is free software; you can redistribute it and/or
   6:../cores/arduino/Print.cpp ****  modify it under the terms of the GNU Lesser General Public
   7:../cores/arduino/Print.cpp ****  License as published by the Free Software Foundation; either
   8:../cores/arduino/Print.cpp ****  version 2.1 of the License, or (at your option) any later version.
   9:../cores/arduino/Print.cpp ****  
  10:../cores/arduino/Print.cpp ****  This library is distributed in the hope that it will be useful,
  11:../cores/arduino/Print.cpp ****  but WITHOUT ANY WARRANTY; without even the implied warranty of
  12:../cores/arduino/Print.cpp ****  MERCHANTABILITY or FITNESS FOR A PARTICULAR PURPOSE.  See the GNU
  13:../cores/arduino/Print.cpp ****  Lesser General Public License for more details.
  14:../cores/arduino/Print.cpp ****  
  15:../cores/arduino/Print.cpp ****  You should have received a copy of the GNU Lesser General Public
  16:../cores/arduino/Print.cpp ****  License along with this library; if not, write to the Free Software
  17:../cores/arduino/Print.cpp ****  Foundation, Inc., 51 Franklin St, Fifth Floor, Boston, MA  02110-1301  USA
  18:../cores/arduino/Print.cpp ****  
  19:../cores/arduino/Print.cpp ****  Modified 23 November 2006 by David A. Mellis
  20:../cores/arduino/Print.cpp ****  */
  21:../cores/arduino/Print.cpp **** 
  22:../cores/arduino/Print.cpp **** #include <stdlib.h>
  23:../cores/arduino/Print.cpp **** #include <stdio.h>
  24:../cores/arduino/Print.cpp **** #include <string.h>
  25:../cores/arduino/Print.cpp **** #include <math.h>
  26:../cores/arduino/Print.cpp **** #include "Core.h"
  27:../cores/arduino/Print.cpp **** 
  28:../cores/arduino/Print.cpp **** #include "Print.h"
  29:../cores/arduino/Print.cpp **** 
  30:../cores/arduino/Print.cpp **** // Public Methods //////////////////////////////////////////////////////////////
ARM GAS  /tmp/ccZzmomm.s 			page 2


  31:../cores/arduino/Print.cpp **** 
  32:../cores/arduino/Print.cpp **** /* default implementation: may be overridden */
  33:../cores/arduino/Print.cpp **** size_t Print::write(const uint8_t *buffer, size_t size)
  34:../cores/arduino/Print.cpp **** {
  28              		.loc 1 34 0
  29              		.cfi_startproc
  30              		@ args = 0, pretend = 0, frame = 0
  31              		@ frame_needed = 0, uses_anonymous_args = 0
  32              	.LVL0:
  33 0000 F8B5     		push	{r3, r4, r5, r6, r7, lr}
  34              		.cfi_def_cfa_offset 24
  35              		.cfi_offset 3, -24
  36              		.cfi_offset 4, -20
  37              		.cfi_offset 5, -16
  38              		.cfi_offset 6, -12
  39              		.cfi_offset 7, -8
  40              		.cfi_offset 14, -4
  35:../cores/arduino/Print.cpp ****   size_t n = 0;
  36:../cores/arduino/Print.cpp ****   while (size--) {
  41              		.loc 1 36 0
  42 0002 72B1     		cbz	r2, .L4
  43 0004 0646     		mov	r6, r0
  44 0006 0C46     		mov	r4, r1
  45 0008 8F18     		adds	r7, r1, r2
  46 000a 0025     		movs	r5, #0
  47              	.LVL1:
  48              	.L3:
  37:../cores/arduino/Print.cpp ****     n += write(*buffer++);
  49              		.loc 1 37 0
  50 000c 3368     		ldr	r3, [r6]
  51 000e 3046     		mov	r0, r6
  52 0010 14F8011B 		ldrb	r1, [r4], #1	@ zero_extendqisi2
  53              	.LVL2:
  54 0014 9B68     		ldr	r3, [r3, #8]
  55 0016 9847     		blx	r3
  56              	.LVL3:
  36:../cores/arduino/Print.cpp ****     n += write(*buffer++);
  57              		.loc 1 36 0
  58 0018 A742     		cmp	r7, r4
  59              		.loc 1 37 0
  60 001a 0544     		add	r5, r5, r0
  61              	.LVL4:
  36:../cores/arduino/Print.cpp ****     n += write(*buffer++);
  62              		.loc 1 36 0
  63 001c F6D1     		bne	.L3
  64              	.LVL5:
  65              	.L1:
  38:../cores/arduino/Print.cpp ****   }
  39:../cores/arduino/Print.cpp ****   return n;
  40:../cores/arduino/Print.cpp **** }
  66              		.loc 1 40 0
  67 001e 2846     		mov	r0, r5
  68 0020 F8BD     		pop	{r3, r4, r5, r6, r7, pc}
  69              	.LVL6:
  70              	.L4:
  35:../cores/arduino/Print.cpp ****   while (size--) {
  71              		.loc 1 35 0
ARM GAS  /tmp/ccZzmomm.s 			page 3


  72 0022 1546     		mov	r5, r2
  39:../cores/arduino/Print.cpp **** }
  73              		.loc 1 39 0
  74 0024 FBE7     		b	.L1
  75              		.cfi_endproc
  76              	.LFE525:
  77              		.size	_ZN5Print5writeEPKhj, .-_ZN5Print5writeEPKhj
  78 0026 00BF     		.section	.text._ZN5Print5printEPKc,"ax",%progbits
  79              		.align	1
  80              		.p2align 2,,3
  81              		.global	_ZN5Print5printEPKc
  82              		.syntax unified
  83              		.thumb
  84              		.thumb_func
  85              		.fpu fpv5-d16
  86              		.type	_ZN5Print5printEPKc, %function
  87              	_ZN5Print5printEPKc:
  88              	.LFB526:
  41:../cores/arduino/Print.cpp **** 
  42:../cores/arduino/Print.cpp **** size_t Print::print(const char str[])
  43:../cores/arduino/Print.cpp **** {
  89              		.loc 1 43 0
  90              		.cfi_startproc
  91              		@ args = 0, pretend = 0, frame = 0
  92              		@ frame_needed = 0, uses_anonymous_args = 0
  93              	.LVL7:
  94              	.LBB134:
  95              	.LBB135:
  96              		.file 2 "../cores/arduino/Print.h"
   1:../cores/arduino/Print.h **** /*
   2:../cores/arduino/Print.h ****   Print.h - Base class that provides print() and println()
   3:../cores/arduino/Print.h ****   Copyright (c) 2008 David A. Mellis.  All right reserved.
   4:../cores/arduino/Print.h **** 
   5:../cores/arduino/Print.h ****   This library is free software; you can redistribute it and/or
   6:../cores/arduino/Print.h ****   modify it under the terms of the GNU Lesser General Public
   7:../cores/arduino/Print.h ****   License as published by the Free Software Foundation; either
   8:../cores/arduino/Print.h ****   version 2.1 of the License, or (at your option) any later version.
   9:../cores/arduino/Print.h **** 
  10:../cores/arduino/Print.h ****   This library is distributed in the hope that it will be useful,
  11:../cores/arduino/Print.h ****   but WITHOUT ANY WARRANTY; without even the implied warranty of
  12:../cores/arduino/Print.h ****   MERCHANTABILITY or FITNESS FOR A PARTICULAR PURPOSE.  See the GNU
  13:../cores/arduino/Print.h ****   Lesser General Public License for more details.
  14:../cores/arduino/Print.h **** 
  15:../cores/arduino/Print.h ****   You should have received a copy of the GNU Lesser General Public
  16:../cores/arduino/Print.h ****   License along with this library; if not, write to the Free Software
  17:../cores/arduino/Print.h ****   Foundation, Inc., 51 Franklin St, Fifth Floor, Boston, MA  02110-1301  USA
  18:../cores/arduino/Print.h **** */
  19:../cores/arduino/Print.h **** 
  20:../cores/arduino/Print.h **** #ifndef Print_h
  21:../cores/arduino/Print.h **** #define Print_h
  22:../cores/arduino/Print.h **** 
  23:../cores/arduino/Print.h **** #include <inttypes.h>
  24:../cores/arduino/Print.h **** #include <stdio.h> // for size_t
  25:../cores/arduino/Print.h **** #include <string.h>
  26:../cores/arduino/Print.h **** 
  27:../cores/arduino/Print.h **** #include "Printable.h"
  28:../cores/arduino/Print.h **** 
ARM GAS  /tmp/ccZzmomm.s 			page 4


  29:../cores/arduino/Print.h **** #define DEC 10
  30:../cores/arduino/Print.h **** #define HEX 16
  31:../cores/arduino/Print.h **** #define OCT 8
  32:../cores/arduino/Print.h **** #define BIN 2
  33:../cores/arduino/Print.h **** 
  34:../cores/arduino/Print.h **** class Print
  35:../cores/arduino/Print.h **** {
  36:../cores/arduino/Print.h **** private:
  37:../cores/arduino/Print.h **** 	int write_error;
  38:../cores/arduino/Print.h **** 	size_t printNumber(unsigned long, uint8_t);
  39:../cores/arduino/Print.h **** 	size_t printFloat(double, uint8_t);
  40:../cores/arduino/Print.h **** 
  41:../cores/arduino/Print.h **** protected:
  42:../cores/arduino/Print.h **** 	void setWriteError(int err = 1) { write_error = err; }
  43:../cores/arduino/Print.h **** 
  44:../cores/arduino/Print.h **** public:
  45:../cores/arduino/Print.h ****     Print() : write_error(0) {}
  46:../cores/arduino/Print.h ****     virtual ~Print() {}
  47:../cores/arduino/Print.h ****   
  48:../cores/arduino/Print.h ****     int getWriteError() { return write_error; }
  49:../cores/arduino/Print.h ****     void clearWriteError() { setWriteError(0); }
  50:../cores/arduino/Print.h ****   
  51:../cores/arduino/Print.h ****     virtual size_t write(uint8_t) = 0;
  52:../cores/arduino/Print.h **** 
  53:../cores/arduino/Print.h ****     size_t write(const char *str) {
  54:../cores/arduino/Print.h ****     	return (str == NULL) ? 0 : write((const uint8_t *)str, strlen(str));
  97              		.loc 2 54 0
  98 0000 69B1     		cbz	r1, .L9
  99              	.LBE135:
 100              	.LBE134:
 101              		.loc 1 43 0
 102 0002 70B5     		push	{r4, r5, r6, lr}
 103              		.cfi_def_cfa_offset 16
 104              		.cfi_offset 4, -16
 105              		.cfi_offset 5, -12
 106              		.cfi_offset 6, -8
 107              		.cfi_offset 14, -4
 108 0004 0546     		mov	r5, r0
 109              	.LBB138:
 110              	.LBB136:
 111              		.loc 2 54 0
 112 0006 0846     		mov	r0, r1
 113              	.LVL8:
 114 0008 0C46     		mov	r4, r1
 115 000a FFF7FEFF 		bl	strlen
 116              	.LVL9:
 117 000e 2B68     		ldr	r3, [r5]
 118 0010 0246     		mov	r2, r0
 119 0012 2146     		mov	r1, r4
 120 0014 2846     		mov	r0, r5
 121 0016 DB68     		ldr	r3, [r3, #12]
 122              	.LBE136:
 123              	.LBE138:
  44:../cores/arduino/Print.cpp ****   return write(str);
  45:../cores/arduino/Print.cpp **** }
 124              		.loc 1 45 0
 125 0018 BDE87040 		pop	{r4, r5, r6, lr}
ARM GAS  /tmp/ccZzmomm.s 			page 5


 126              		.cfi_restore 14
 127              		.cfi_restore 6
 128              		.cfi_restore 5
 129              		.cfi_restore 4
 130              		.cfi_def_cfa_offset 0
 131              	.LVL10:
 132              	.LBB139:
 133              	.LBB137:
 134              		.loc 2 54 0
 135 001c 1847     		bx	r3
 136              	.LVL11:
 137              	.L9:
 138              	.LBE137:
 139              	.LBE139:
 140              		.loc 1 45 0
 141 001e 0846     		mov	r0, r1
 142              	.LVL12:
 143 0020 7047     		bx	lr
 144              		.cfi_endproc
 145              	.LFE526:
 146              		.size	_ZN5Print5printEPKc, .-_ZN5Print5printEPKc
 147 0022 00BF     		.section	.text._ZN5Print5printEc,"ax",%progbits
 148              		.align	1
 149              		.p2align 2,,3
 150              		.global	_ZN5Print5printEc
 151              		.syntax unified
 152              		.thumb
 153              		.thumb_func
 154              		.fpu fpv5-d16
 155              		.type	_ZN5Print5printEc, %function
 156              	_ZN5Print5printEc:
 157              	.LFB527:
  46:../cores/arduino/Print.cpp **** 
  47:../cores/arduino/Print.cpp **** size_t Print::print(char c)
  48:../cores/arduino/Print.cpp **** {
 158              		.loc 1 48 0
 159              		.cfi_startproc
 160              		@ args = 0, pretend = 0, frame = 0
 161              		@ frame_needed = 0, uses_anonymous_args = 0
 162              		@ link register save eliminated.
 163              	.LVL13:
  49:../cores/arduino/Print.cpp ****   return write(c);
 164              		.loc 1 49 0
 165 0000 0368     		ldr	r3, [r0]
 166 0002 9B68     		ldr	r3, [r3, #8]
 167 0004 1847     		bx	r3
 168              	.LVL14:
 169              		.cfi_endproc
 170              	.LFE527:
 171              		.size	_ZN5Print5printEc, .-_ZN5Print5printEc
 172 0006 00BF     		.section	.text._ZN5Print5printERK9Printable,"ax",%progbits
 173              		.align	1
 174              		.p2align 2,,3
 175              		.global	_ZN5Print5printERK9Printable
 176              		.syntax unified
 177              		.thumb
 178              		.thumb_func
ARM GAS  /tmp/ccZzmomm.s 			page 6


 179              		.fpu fpv5-d16
 180              		.type	_ZN5Print5printERK9Printable, %function
 181              	_ZN5Print5printERK9Printable:
 182              	.LFB534:
  50:../cores/arduino/Print.cpp **** }
  51:../cores/arduino/Print.cpp **** 
  52:../cores/arduino/Print.cpp **** size_t Print::print(unsigned char b, int base)
  53:../cores/arduino/Print.cpp **** {
  54:../cores/arduino/Print.cpp ****   return print((unsigned long) b, base);
  55:../cores/arduino/Print.cpp **** }
  56:../cores/arduino/Print.cpp **** 
  57:../cores/arduino/Print.cpp **** size_t Print::print(int n, int base)
  58:../cores/arduino/Print.cpp **** {
  59:../cores/arduino/Print.cpp ****   return print((long) n, base);
  60:../cores/arduino/Print.cpp **** }
  61:../cores/arduino/Print.cpp **** 
  62:../cores/arduino/Print.cpp **** size_t Print::print(unsigned int n, int base)
  63:../cores/arduino/Print.cpp **** {
  64:../cores/arduino/Print.cpp ****   return print((unsigned long) n, base);
  65:../cores/arduino/Print.cpp **** }
  66:../cores/arduino/Print.cpp **** 
  67:../cores/arduino/Print.cpp **** size_t Print::print(long n, int base)
  68:../cores/arduino/Print.cpp **** {
  69:../cores/arduino/Print.cpp ****   if (base == 0) {
  70:../cores/arduino/Print.cpp ****     return write(n);
  71:../cores/arduino/Print.cpp ****   } else if (base == 10) {
  72:../cores/arduino/Print.cpp ****     if (n < 0) {
  73:../cores/arduino/Print.cpp ****       int t = print('-');
  74:../cores/arduino/Print.cpp ****       n = -n;
  75:../cores/arduino/Print.cpp ****       return printNumber(n, 10) + t;
  76:../cores/arduino/Print.cpp ****     }
  77:../cores/arduino/Print.cpp ****     return printNumber(n, 10);
  78:../cores/arduino/Print.cpp ****   } else {
  79:../cores/arduino/Print.cpp ****     return printNumber(n, base);
  80:../cores/arduino/Print.cpp ****   }
  81:../cores/arduino/Print.cpp **** }
  82:../cores/arduino/Print.cpp **** 
  83:../cores/arduino/Print.cpp **** size_t Print::print(unsigned long n, int base)
  84:../cores/arduino/Print.cpp **** {
  85:../cores/arduino/Print.cpp ****   if (base == 0) return write(n);
  86:../cores/arduino/Print.cpp ****   else return printNumber(n, base);
  87:../cores/arduino/Print.cpp **** }
  88:../cores/arduino/Print.cpp **** 
  89:../cores/arduino/Print.cpp **** size_t Print::print(double n, int digits)
  90:../cores/arduino/Print.cpp **** {
  91:../cores/arduino/Print.cpp ****   return printFloat(n, digits);
  92:../cores/arduino/Print.cpp **** }
  93:../cores/arduino/Print.cpp **** 
  94:../cores/arduino/Print.cpp **** size_t Print::print(const Printable& x)
  95:../cores/arduino/Print.cpp **** {
 183              		.loc 1 95 0
 184              		.cfi_startproc
 185              		@ args = 0, pretend = 0, frame = 0
 186              		@ frame_needed = 0, uses_anonymous_args = 0
 187              		@ link register save eliminated.
 188              	.LVL15:
 189              		.loc 1 95 0
ARM GAS  /tmp/ccZzmomm.s 			page 7


 190 0000 0B46     		mov	r3, r1
  96:../cores/arduino/Print.cpp ****   return x.printTo(*this);
 191              		.loc 1 96 0
 192 0002 0146     		mov	r1, r0
 193              	.LVL16:
 194 0004 1A68     		ldr	r2, [r3]
 195 0006 1846     		mov	r0, r3
 196              	.LVL17:
 197 0008 9368     		ldr	r3, [r2, #8]
 198              	.LVL18:
 199 000a 1847     		bx	r3
 200              	.LVL19:
 201              		.cfi_endproc
 202              	.LFE534:
 203              		.size	_ZN5Print5printERK9Printable, .-_ZN5Print5printERK9Printable
 204              		.section	.text._ZN5Print7printlnEv,"ax",%progbits
 205              		.align	1
 206              		.p2align 2,,3
 207              		.global	_ZN5Print7printlnEv
 208              		.syntax unified
 209              		.thumb
 210              		.thumb_func
 211              		.fpu fpv5-d16
 212              		.type	_ZN5Print7printlnEv, %function
 213              	_ZN5Print7printlnEv:
 214              	.LFB535:
  97:../cores/arduino/Print.cpp **** }
  98:../cores/arduino/Print.cpp **** 
  99:../cores/arduino/Print.cpp **** size_t Print::println(void)
 100:../cores/arduino/Print.cpp **** {
 215              		.loc 1 100 0
 216              		.cfi_startproc
 217              		@ args = 0, pretend = 0, frame = 0
 218              		@ frame_needed = 0, uses_anonymous_args = 0
 219              	.LVL20:
 220 0000 38B5     		push	{r3, r4, r5, lr}
 221              		.cfi_def_cfa_offset 16
 222              		.cfi_offset 3, -16
 223              		.cfi_offset 4, -12
 224              		.cfi_offset 5, -8
 225              		.cfi_offset 14, -4
 226              	.LBB140:
 227              	.LBB141:
  49:../cores/arduino/Print.cpp **** }
 228              		.loc 1 49 0
 229 0002 0368     		ldr	r3, [r0]
 230              	.LBE141:
 231              	.LBE140:
 232              		.loc 1 100 0
 233 0004 0446     		mov	r4, r0
 234              	.LVL21:
 235              	.LBB144:
 236              	.LBB142:
  49:../cores/arduino/Print.cpp **** }
 237              		.loc 1 49 0
 238 0006 0D21     		movs	r1, #13
 239 0008 9B68     		ldr	r3, [r3, #8]
ARM GAS  /tmp/ccZzmomm.s 			page 8


 240 000a 9847     		blx	r3
 241              	.LVL22:
 242              	.LBE142:
 243              	.LBE144:
 244              	.LBB145:
 245              	.LBB146:
 246 000c 2368     		ldr	r3, [r4]
 247              	.LBE146:
 248              	.LBE145:
 249              	.LBB148:
 250              	.LBB143:
 251 000e 0546     		mov	r5, r0
 252              	.LVL23:
 253              	.LBE143:
 254              	.LBE148:
 255              	.LBB149:
 256              	.LBB147:
 257 0010 0A21     		movs	r1, #10
 258 0012 2046     		mov	r0, r4
 259 0014 9B68     		ldr	r3, [r3, #8]
 260 0016 9847     		blx	r3
 261              	.LVL24:
 262              	.LBE147:
 263              	.LBE149:
 101:../cores/arduino/Print.cpp ****   size_t n = print('\r');
 102:../cores/arduino/Print.cpp ****   n += print('\n');
 103:../cores/arduino/Print.cpp ****   return n;
 104:../cores/arduino/Print.cpp **** }
 264              		.loc 1 104 0
 265 0018 2844     		add	r0, r0, r5
 266              	.LVL25:
 267 001a 38BD     		pop	{r3, r4, r5, pc}
 268              		.cfi_endproc
 269              	.LFE535:
 270              		.size	_ZN5Print7printlnEv, .-_ZN5Print7printlnEv
 271              		.section	.text._ZN5Print7printlnEPKc,"ax",%progbits
 272              		.align	1
 273              		.p2align 2,,3
 274              		.global	_ZN5Print7printlnEPKc
 275              		.syntax unified
 276              		.thumb
 277              		.thumb_func
 278              		.fpu fpv5-d16
 279              		.type	_ZN5Print7printlnEPKc, %function
 280              	_ZN5Print7printlnEPKc:
 281              	.LFB536:
 105:../cores/arduino/Print.cpp **** 
 106:../cores/arduino/Print.cpp **** size_t Print::println(const char c[])
 107:../cores/arduino/Print.cpp **** {
 282              		.loc 1 107 0
 283              		.cfi_startproc
 284              		@ args = 0, pretend = 0, frame = 0
 285              		@ frame_needed = 0, uses_anonymous_args = 0
 286              	.LVL26:
 287 0000 70B5     		push	{r4, r5, r6, lr}
 288              		.cfi_def_cfa_offset 16
 289              		.cfi_offset 4, -16
ARM GAS  /tmp/ccZzmomm.s 			page 9


 290              		.cfi_offset 5, -12
 291              		.cfi_offset 6, -8
 292              		.cfi_offset 14, -4
 293              		.loc 1 107 0
 294 0002 0446     		mov	r4, r0
 295              	.LVL27:
 296              	.LBB160:
 297              	.LBB161:
 298              	.LBB162:
 299              		.loc 2 54 0
 300 0004 0D46     		mov	r5, r1
 301 0006 49B1     		cbz	r1, .L18
 302 0008 0846     		mov	r0, r1
 303              	.LVL28:
 304 000a FFF7FEFF 		bl	strlen
 305              	.LVL29:
 306 000e 2368     		ldr	r3, [r4]
 307 0010 0246     		mov	r2, r0
 308 0012 2946     		mov	r1, r5
 309 0014 DB68     		ldr	r3, [r3, #12]
 310 0016 2046     		mov	r0, r4
 311 0018 9847     		blx	r3
 312              	.LVL30:
 313 001a 0546     		mov	r5, r0
 314              	.LVL31:
 315              	.L18:
 316              	.LBE162:
 317              	.LBE161:
 318              	.LBE160:
 319              	.LBB163:
 320              	.LBB164:
 321              	.LBB165:
 322              	.LBB166:
  49:../cores/arduino/Print.cpp **** }
 323              		.loc 1 49 0
 324 001c 2368     		ldr	r3, [r4]
 325 001e 0D21     		movs	r1, #13
 326 0020 2046     		mov	r0, r4
 327 0022 9B68     		ldr	r3, [r3, #8]
 328 0024 9847     		blx	r3
 329              	.LVL32:
 330 0026 0646     		mov	r6, r0
 331              	.LVL33:
 332              	.LBE166:
 333              	.LBE165:
 334              	.LBB167:
 335              	.LBB168:
 336 0028 2368     		ldr	r3, [r4]
 337 002a 2046     		mov	r0, r4
 338              	.LBE168:
 339              	.LBE167:
 340              	.LBE164:
 341              	.LBE163:
 108:../cores/arduino/Print.cpp ****   size_t n = print(c);
 109:../cores/arduino/Print.cpp ****   n += println();
 342              		.loc 1 109 0
 343 002c 3544     		add	r5, r5, r6
ARM GAS  /tmp/ccZzmomm.s 			page 10


 344              	.LBB172:
 345              	.LBB171:
 346              	.LBB170:
 347              	.LBB169:
  49:../cores/arduino/Print.cpp **** }
 348              		.loc 1 49 0
 349 002e 0A21     		movs	r1, #10
 350 0030 9B68     		ldr	r3, [r3, #8]
 351 0032 9847     		blx	r3
 352              	.LVL34:
 353              	.LBE169:
 354              	.LBE170:
 355              	.LBE171:
 356              	.LBE172:
 110:../cores/arduino/Print.cpp ****   return n;
 111:../cores/arduino/Print.cpp **** }
 357              		.loc 1 111 0
 358 0034 2844     		add	r0, r0, r5
 359 0036 70BD     		pop	{r4, r5, r6, pc}
 360              		.cfi_endproc
 361              	.LFE536:
 362              		.size	_ZN5Print7printlnEPKc, .-_ZN5Print7printlnEPKc
 363              		.section	.text._ZN5Print7printlnEc,"ax",%progbits
 364              		.align	1
 365              		.p2align 2,,3
 366              		.global	_ZN5Print7printlnEc
 367              		.syntax unified
 368              		.thumb
 369              		.thumb_func
 370              		.fpu fpv5-d16
 371              		.type	_ZN5Print7printlnEc, %function
 372              	_ZN5Print7printlnEc:
 373              	.LFB537:
 112:../cores/arduino/Print.cpp **** 
 113:../cores/arduino/Print.cpp **** size_t Print::println(char c)
 114:../cores/arduino/Print.cpp **** {
 374              		.loc 1 114 0
 375              		.cfi_startproc
 376              		@ args = 0, pretend = 0, frame = 0
 377              		@ frame_needed = 0, uses_anonymous_args = 0
 378              	.LVL35:
 379              	.LBB173:
 380              	.LBB174:
  49:../cores/arduino/Print.cpp **** }
 381              		.loc 1 49 0
 382 0000 0368     		ldr	r3, [r0]
 383              	.LBE174:
 384              	.LBE173:
 385              		.loc 1 114 0
 386 0002 70B5     		push	{r4, r5, r6, lr}
 387              		.cfi_def_cfa_offset 16
 388              		.cfi_offset 4, -16
 389              		.cfi_offset 5, -12
 390              		.cfi_offset 6, -8
 391              		.cfi_offset 14, -4
 392              		.loc 1 114 0
 393 0004 0446     		mov	r4, r0
ARM GAS  /tmp/ccZzmomm.s 			page 11


 394              	.LVL36:
 395              	.LBB177:
 396              	.LBB175:
  49:../cores/arduino/Print.cpp **** }
 397              		.loc 1 49 0
 398 0006 9B68     		ldr	r3, [r3, #8]
 399 0008 9847     		blx	r3
 400              	.LVL37:
 401              	.LBE175:
 402              	.LBE177:
 403              	.LBB178:
 404              	.LBB179:
 405              	.LBB180:
 406              	.LBB181:
 407 000a 0D21     		movs	r1, #13
 408 000c 2368     		ldr	r3, [r4]
 409              	.LBE181:
 410              	.LBE180:
 411              	.LBE179:
 412              	.LBE178:
 413              	.LBB190:
 414              	.LBB176:
 415 000e 0646     		mov	r6, r0
 416              	.LVL38:
 417              	.LBE176:
 418              	.LBE190:
 419              	.LBB191:
 420              	.LBB188:
 421              	.LBB183:
 422              	.LBB182:
 423 0010 2046     		mov	r0, r4
 424 0012 9B68     		ldr	r3, [r3, #8]
 425 0014 9847     		blx	r3
 426              	.LVL39:
 427 0016 0546     		mov	r5, r0
 428              	.LVL40:
 429              	.LBE182:
 430              	.LBE183:
 431              	.LBB184:
 432              	.LBB185:
 433 0018 2368     		ldr	r3, [r4]
 434 001a 2046     		mov	r0, r4
 435              	.LBE185:
 436              	.LBE184:
 437              	.LBE188:
 438              	.LBE191:
 115:../cores/arduino/Print.cpp ****   size_t n = print(c);
 116:../cores/arduino/Print.cpp ****   n += println();
 439              		.loc 1 116 0
 440 001c 3544     		add	r5, r5, r6
 441              	.LBB192:
 442              	.LBB189:
 443              	.LBB187:
 444              	.LBB186:
  49:../cores/arduino/Print.cpp **** }
 445              		.loc 1 49 0
 446 001e 0A21     		movs	r1, #10
ARM GAS  /tmp/ccZzmomm.s 			page 12


 447 0020 9B68     		ldr	r3, [r3, #8]
 448 0022 9847     		blx	r3
 449              	.LVL41:
 450              	.LBE186:
 451              	.LBE187:
 452              	.LBE189:
 453              	.LBE192:
 117:../cores/arduino/Print.cpp ****   return n;
 118:../cores/arduino/Print.cpp **** }
 454              		.loc 1 118 0
 455 0024 2844     		add	r0, r0, r5
 456 0026 70BD     		pop	{r4, r5, r6, pc}
 457              		.cfi_endproc
 458              	.LFE537:
 459              		.size	_ZN5Print7printlnEc, .-_ZN5Print7printlnEc
 460              		.section	.text._ZN5Print7printlnERK9Printable,"ax",%progbits
 461              		.align	1
 462              		.p2align 2,,3
 463              		.global	_ZN5Print7printlnERK9Printable
 464              		.syntax unified
 465              		.thumb
 466              		.thumb_func
 467              		.fpu fpv5-d16
 468              		.type	_ZN5Print7printlnERK9Printable, %function
 469              	_ZN5Print7printlnERK9Printable:
 470              	.LFB544:
 119:../cores/arduino/Print.cpp **** 
 120:../cores/arduino/Print.cpp **** size_t Print::println(unsigned char b, int base)
 121:../cores/arduino/Print.cpp **** {
 122:../cores/arduino/Print.cpp ****   size_t n = print(b, base);
 123:../cores/arduino/Print.cpp ****   n += println();
 124:../cores/arduino/Print.cpp ****   return n;
 125:../cores/arduino/Print.cpp **** }
 126:../cores/arduino/Print.cpp **** 
 127:../cores/arduino/Print.cpp **** size_t Print::println(int num, int base)
 128:../cores/arduino/Print.cpp **** {
 129:../cores/arduino/Print.cpp ****   size_t n = print(num, base);
 130:../cores/arduino/Print.cpp ****   n += println();
 131:../cores/arduino/Print.cpp ****   return n;
 132:../cores/arduino/Print.cpp **** }
 133:../cores/arduino/Print.cpp **** 
 134:../cores/arduino/Print.cpp **** size_t Print::println(unsigned int num, int base)
 135:../cores/arduino/Print.cpp **** {
 136:../cores/arduino/Print.cpp ****   size_t n = print(num, base);
 137:../cores/arduino/Print.cpp ****   n += println();
 138:../cores/arduino/Print.cpp ****   return n;
 139:../cores/arduino/Print.cpp **** }
 140:../cores/arduino/Print.cpp **** 
 141:../cores/arduino/Print.cpp **** size_t Print::println(long num, int base)
 142:../cores/arduino/Print.cpp **** {
 143:../cores/arduino/Print.cpp ****   size_t n = print(num, base);
 144:../cores/arduino/Print.cpp ****   n += println();
 145:../cores/arduino/Print.cpp ****   return n;
 146:../cores/arduino/Print.cpp **** }
 147:../cores/arduino/Print.cpp **** 
 148:../cores/arduino/Print.cpp **** size_t Print::println(unsigned long num, int base)
 149:../cores/arduino/Print.cpp **** {
ARM GAS  /tmp/ccZzmomm.s 			page 13


 150:../cores/arduino/Print.cpp ****   size_t n = print(num, base);
 151:../cores/arduino/Print.cpp ****   n += println();
 152:../cores/arduino/Print.cpp ****   return n;
 153:../cores/arduino/Print.cpp **** }
 154:../cores/arduino/Print.cpp **** 
 155:../cores/arduino/Print.cpp **** size_t Print::println(double num, int digits)
 156:../cores/arduino/Print.cpp **** {
 157:../cores/arduino/Print.cpp ****   size_t n = print(num, digits);
 158:../cores/arduino/Print.cpp ****   n += println();
 159:../cores/arduino/Print.cpp ****   return n;
 160:../cores/arduino/Print.cpp **** }
 161:../cores/arduino/Print.cpp **** 
 162:../cores/arduino/Print.cpp **** size_t Print::println(const Printable& x)
 163:../cores/arduino/Print.cpp **** {
 471              		.loc 1 163 0
 472              		.cfi_startproc
 473              		@ args = 0, pretend = 0, frame = 0
 474              		@ frame_needed = 0, uses_anonymous_args = 0
 475              	.LVL42:
 476 0000 70B5     		push	{r4, r5, r6, lr}
 477              		.cfi_def_cfa_offset 16
 478              		.cfi_offset 4, -16
 479              		.cfi_offset 5, -12
 480              		.cfi_offset 6, -8
 481              		.cfi_offset 14, -4
 482              	.LBB193:
 483              	.LBB194:
  96:../cores/arduino/Print.cpp **** }
 484              		.loc 1 96 0
 485 0002 0B68     		ldr	r3, [r1]
 486              	.LBE194:
 487              	.LBE193:
 488              		.loc 1 163 0
 489 0004 0446     		mov	r4, r0
 490              	.LVL43:
 491              	.LBB197:
 492              	.LBB195:
  96:../cores/arduino/Print.cpp **** }
 493              		.loc 1 96 0
 494 0006 0846     		mov	r0, r1
 495              	.LVL44:
 496 0008 9B68     		ldr	r3, [r3, #8]
 497 000a 2146     		mov	r1, r4
 498              	.LVL45:
 499 000c 9847     		blx	r3
 500              	.LVL46:
 501              	.LBE195:
 502              	.LBE197:
 503              	.LBB198:
 504              	.LBB199:
 505              	.LBB200:
 506              	.LBB201:
  49:../cores/arduino/Print.cpp **** }
 507              		.loc 1 49 0
 508 000e 2368     		ldr	r3, [r4]
 509              	.LBE201:
 510              	.LBE200:
ARM GAS  /tmp/ccZzmomm.s 			page 14


 511              	.LBE199:
 512              	.LBE198:
 513              	.LBB210:
 514              	.LBB196:
  96:../cores/arduino/Print.cpp **** }
 515              		.loc 1 96 0
 516 0010 0646     		mov	r6, r0
 517              	.LVL47:
 518              	.LBE196:
 519              	.LBE210:
 520              	.LBB211:
 521              	.LBB208:
 522              	.LBB203:
 523              	.LBB202:
  49:../cores/arduino/Print.cpp **** }
 524              		.loc 1 49 0
 525 0012 0D21     		movs	r1, #13
 526 0014 2046     		mov	r0, r4
 527 0016 9B68     		ldr	r3, [r3, #8]
 528 0018 9847     		blx	r3
 529              	.LVL48:
 530 001a 0546     		mov	r5, r0
 531              	.LVL49:
 532              	.LBE202:
 533              	.LBE203:
 534              	.LBB204:
 535              	.LBB205:
 536 001c 2368     		ldr	r3, [r4]
 537 001e 2046     		mov	r0, r4
 538              	.LBE205:
 539              	.LBE204:
 540              	.LBE208:
 541              	.LBE211:
 164:../cores/arduino/Print.cpp ****   size_t n = print(x);
 165:../cores/arduino/Print.cpp ****   n += println();
 542              		.loc 1 165 0
 543 0020 3544     		add	r5, r5, r6
 544              	.LBB212:
 545              	.LBB209:
 546              	.LBB207:
 547              	.LBB206:
  49:../cores/arduino/Print.cpp **** }
 548              		.loc 1 49 0
 549 0022 0A21     		movs	r1, #10
 550 0024 9B68     		ldr	r3, [r3, #8]
 551 0026 9847     		blx	r3
 552              	.LVL50:
 553              	.LBE206:
 554              	.LBE207:
 555              	.LBE209:
 556              	.LBE212:
 166:../cores/arduino/Print.cpp ****   return n;
 167:../cores/arduino/Print.cpp **** }
 557              		.loc 1 167 0
 558 0028 2844     		add	r0, r0, r5
 559 002a 70BD     		pop	{r4, r5, r6, pc}
 560              		.cfi_endproc
ARM GAS  /tmp/ccZzmomm.s 			page 15


 561              	.LFE544:
 562              		.size	_ZN5Print7printlnERK9Printable, .-_ZN5Print7printlnERK9Printable
 563              		.section	.text._ZN5Print11printNumberEmh,"ax",%progbits
 564              		.align	1
 565              		.p2align 2,,3
 566              		.global	_ZN5Print11printNumberEmh
 567              		.syntax unified
 568              		.thumb
 569              		.thumb_func
 570              		.fpu fpv5-d16
 571              		.type	_ZN5Print11printNumberEmh, %function
 572              	_ZN5Print11printNumberEmh:
 573              	.LFB545:
 168:../cores/arduino/Print.cpp **** 
 169:../cores/arduino/Print.cpp **** // Private Methods /////////////////////////////////////////////////////////////
 170:../cores/arduino/Print.cpp **** 
 171:../cores/arduino/Print.cpp **** size_t Print::printNumber(unsigned long n, uint8_t base) {
 574              		.loc 1 171 0
 575              		.cfi_startproc
 576              		@ args = 0, pretend = 0, frame = 40
 577              		@ frame_needed = 0, uses_anonymous_args = 0
 578              	.LVL51:
 579 0000 F0B5     		push	{r4, r5, r6, r7, lr}
 580              		.cfi_def_cfa_offset 20
 581              		.cfi_offset 4, -20
 582              		.cfi_offset 5, -16
 583              		.cfi_offset 6, -12
 584              		.cfi_offset 7, -8
 585              		.cfi_offset 14, -4
 172:../cores/arduino/Print.cpp ****   char buf[8 * sizeof(long) + 1]; // Assumes 8-bit chars plus zero byte.
 173:../cores/arduino/Print.cpp ****   char *str = &buf[sizeof(buf) - 1];
 174:../cores/arduino/Print.cpp **** 
 175:../cores/arduino/Print.cpp ****   *str = '\0';
 176:../cores/arduino/Print.cpp **** 
 177:../cores/arduino/Print.cpp ****   // prevent crash if called with base == 1
 178:../cores/arduino/Print.cpp ****   if (base < 2) base = 10;
 586              		.loc 1 178 0
 587 0002 012A     		cmp	r2, #1
 171:../cores/arduino/Print.cpp ****   char buf[8 * sizeof(long) + 1]; // Assumes 8-bit chars plus zero byte.
 588              		.loc 1 171 0
 589 0004 8BB0     		sub	sp, sp, #44
 590              		.cfi_def_cfa_offset 64
 591              	.LVL52:
 175:../cores/arduino/Print.cpp **** 
 592              		.loc 1 175 0
 593 0006 4FF00004 		mov	r4, #0
 171:../cores/arduino/Print.cpp ****   char buf[8 * sizeof(long) + 1]; // Assumes 8-bit chars plus zero byte.
 594              		.loc 1 171 0
 595 000a 0646     		mov	r6, r0
 596 000c 0B46     		mov	r3, r1
 175:../cores/arduino/Print.cpp **** 
 597              		.loc 1 175 0
 598 000e 8DF82440 		strb	r4, [sp, #36]
 599              		.loc 1 178 0
 600 0012 21DD     		ble	.L30
 601 0014 1146     		mov	r1, r2
 602              	.LVL53:
ARM GAS  /tmp/ccZzmomm.s 			page 16


 603              	.L26:
 604 0016 0DF12304 		add	r4, sp, #35
 605              	.LVL54:
 606              	.L29:
 607              	.LBB216:
 179:../cores/arduino/Print.cpp **** 
 180:../cores/arduino/Print.cpp ****   do {
 181:../cores/arduino/Print.cpp ****     unsigned long m = n;
 182:../cores/arduino/Print.cpp ****     n /= base;
 183:../cores/arduino/Print.cpp ****     char c = m - base * n;
 184:../cores/arduino/Print.cpp ****     *--str = c < 10 ? c + '0' : c + 'A' - 10;
 608              		.loc 1 184 0
 609 001a 2746     		mov	r7, r4
 182:../cores/arduino/Print.cpp ****     char c = m - base * n;
 610              		.loc 1 182 0
 611 001c B3FBF1F5 		udiv	r5, r3, r1
 612              	.LVL55:
 183:../cores/arduino/Print.cpp ****     *--str = c < 10 ? c + '0' : c + 'A' - 10;
 613              		.loc 1 183 0
 614 0020 05FB1233 		mls	r3, r5, r2, r3
 615              	.LVL56:
 616 0024 03F0FF03 		and	r3, r3, #255
 617              	.LVL57:
 618              		.loc 1 184 0
 619 0028 03F13700 		add	r0, r3, #55
 620 002c 092B     		cmp	r3, #9
 621 002e 03F13003 		add	r3, r3, #48
 622              	.LVL58:
 623 0032 C0B2     		uxtb	r0, r0
 624 0034 98BF     		it	ls
 625 0036 D8B2     		uxtbls	r0, r3
 626 0038 2B46     		mov	r3, r5
 627              	.LVL59:
 628 003a 04F80109 		strb	r0, [r4], #-1
 629              	.LVL60:
 630              	.LBE216:
 185:../cores/arduino/Print.cpp ****   } while(n);
 631              		.loc 1 185 0
 632 003e 002D     		cmp	r5, #0
 633 0040 EBD1     		bne	.L29
 634              	.LVL61:
 635              	.LBB217:
 636              	.LBB218:
 637              		.loc 2 54 0
 638 0042 3846     		mov	r0, r7
 639 0044 FFF7FEFF 		bl	strlen
 640              	.LVL62:
 641 0048 3368     		ldr	r3, [r6]
 642 004a 0246     		mov	r2, r0
 643 004c 3946     		mov	r1, r7
 644 004e DB68     		ldr	r3, [r3, #12]
 645 0050 3046     		mov	r0, r6
 646 0052 9847     		blx	r3
 647              	.LVL63:
 648              	.LBE218:
 649              	.LBE217:
 186:../cores/arduino/Print.cpp **** 
ARM GAS  /tmp/ccZzmomm.s 			page 17


 187:../cores/arduino/Print.cpp ****   return write(str);
 188:../cores/arduino/Print.cpp **** }
 650              		.loc 1 188 0
 651 0054 0BB0     		add	sp, sp, #44
 652              		.cfi_remember_state
 653              		.cfi_def_cfa_offset 20
 654              		@ sp needed
 655 0056 F0BD     		pop	{r4, r5, r6, r7, pc}
 656              	.LVL64:
 657              	.L30:
 658              		.cfi_restore_state
 659 0058 0A21     		movs	r1, #10
 660              	.LVL65:
 178:../cores/arduino/Print.cpp **** 
 661              		.loc 1 178 0
 662 005a 0A46     		mov	r2, r1
 663              	.LVL66:
 664 005c DBE7     		b	.L26
 665              		.cfi_endproc
 666              	.LFE545:
 667              		.size	_ZN5Print11printNumberEmh, .-_ZN5Print11printNumberEmh
 668 005e 00BF     		.section	.text._ZN5Print5printEli,"ax",%progbits
 669              		.align	1
 670              		.p2align 2,,3
 671              		.global	_ZN5Print5printEli
 672              		.syntax unified
 673              		.thumb
 674              		.thumb_func
 675              		.fpu fpv5-d16
 676              		.type	_ZN5Print5printEli, %function
 677              	_ZN5Print5printEli:
 678              	.LFB531:
  68:../cores/arduino/Print.cpp ****   if (base == 0) {
 679              		.loc 1 68 0
 680              		.cfi_startproc
 681              		@ args = 0, pretend = 0, frame = 0
 682              		@ frame_needed = 0, uses_anonymous_args = 0
 683              	.LVL67:
 684 0000 2DE9F041 		push	{r4, r5, r6, r7, r8, lr}
 685              		.cfi_def_cfa_offset 24
 686              		.cfi_offset 4, -24
 687              		.cfi_offset 5, -20
 688              		.cfi_offset 6, -16
 689              		.cfi_offset 7, -12
 690              		.cfi_offset 8, -8
 691              		.cfi_offset 14, -4
  68:../cores/arduino/Print.cpp ****   if (base == 0) {
 692              		.loc 1 68 0
 693 0004 0646     		mov	r6, r0
 694 0006 0D46     		mov	r5, r1
 695              	.LBB232:
  69:../cores/arduino/Print.cpp ****     return write(n);
 696              		.loc 1 69 0
 697 0008 B2B1     		cbz	r2, .L42
 698              	.LBB233:
  71:../cores/arduino/Print.cpp ****     if (n < 0) {
 699              		.loc 1 71 0
ARM GAS  /tmp/ccZzmomm.s 			page 18


 700 000a 0A2A     		cmp	r2, #10
 701 000c 1446     		mov	r4, r2
 702 000e 04D0     		beq	.L43
  79:../cores/arduino/Print.cpp ****   }
 703              		.loc 1 79 0
 704 0010 D2B2     		uxtb	r2, r2
 705              	.LVL68:
 706              	.L41:
 707              	.LBE233:
 708              	.LBE232:
  81:../cores/arduino/Print.cpp **** 
 709              		.loc 1 81 0
 710 0012 BDE8F041 		pop	{r4, r5, r6, r7, r8, lr}
 711              		.cfi_remember_state
 712              		.cfi_restore 14
 713              		.cfi_restore 8
 714              		.cfi_restore 7
 715              		.cfi_restore 6
 716              		.cfi_restore 5
 717              		.cfi_restore 4
 718              		.cfi_def_cfa_offset 0
 719              	.LVL69:
 720              	.LBB237:
 721              	.LBB236:
  79:../cores/arduino/Print.cpp ****   }
 722              		.loc 1 79 0
 723 0016 FFF7FEBF 		b	_ZN5Print11printNumberEmh
 724              	.LVL70:
 725              	.L43:
 726              		.cfi_restore_state
 727              	.LBB234:
 728              	.LBB235:
  72:../cores/arduino/Print.cpp ****       int t = print('-');
 729              		.loc 1 72 0
 730 001a 0029     		cmp	r1, #0
 731 001c F9DA     		bge	.L41
 732              	.LVL71:
 733              	.LBE235:
 734              	.LBE234:
 735              	.LBE236:
 736              	.LBE237:
 737              	.LBB238:
 738              	.LBB239:
 739              	.LBB240:
 740              	.LBB241:
  49:../cores/arduino/Print.cpp **** }
 741              		.loc 1 49 0
 742 001e 0368     		ldr	r3, [r0]
 743 0020 2D21     		movs	r1, #45
 744              	.LVL72:
 745 0022 9B68     		ldr	r3, [r3, #8]
 746 0024 9847     		blx	r3
 747              	.LVL73:
 748 0026 0746     		mov	r7, r0
 749              	.LVL74:
 750              	.LBE241:
 751              	.LBE240:
ARM GAS  /tmp/ccZzmomm.s 			page 19


  75:../cores/arduino/Print.cpp ****     }
 752              		.loc 1 75 0
 753 0028 2246     		mov	r2, r4
 754 002a 6942     		negs	r1, r5
 755              	.LVL75:
 756 002c 3046     		mov	r0, r6
 757              	.LVL76:
 758 002e FFF7FEFF 		bl	_ZN5Print11printNumberEmh
 759              	.LVL77:
 760 0032 3844     		add	r0, r0, r7
 761              	.LVL78:
 762              	.LBE239:
 763              	.LBE238:
  81:../cores/arduino/Print.cpp **** 
 764              		.loc 1 81 0
 765 0034 BDE8F081 		pop	{r4, r5, r6, r7, r8, pc}
 766              	.LVL79:
 767              	.L42:
 768              	.LBB242:
  70:../cores/arduino/Print.cpp ****   } else if (base == 10) {
 769              		.loc 1 70 0
 770 0038 0368     		ldr	r3, [r0]
 771 003a C9B2     		uxtb	r1, r1
 772              	.LVL80:
 773 003c 9B68     		ldr	r3, [r3, #8]
 774              	.LBE242:
  81:../cores/arduino/Print.cpp **** 
 775              		.loc 1 81 0
 776 003e BDE8F041 		pop	{r4, r5, r6, r7, r8, lr}
 777              		.cfi_restore 14
 778              		.cfi_restore 8
 779              		.cfi_restore 7
 780              		.cfi_restore 6
 781              		.cfi_restore 5
 782              		.cfi_restore 4
 783              		.cfi_def_cfa_offset 0
 784              	.LVL81:
 785              	.LBB243:
  70:../cores/arduino/Print.cpp ****   } else if (base == 10) {
 786              		.loc 1 70 0
 787 0042 1847     		bx	r3
 788              	.LVL82:
 789              	.LBE243:
 790              		.cfi_endproc
 791              	.LFE531:
 792              		.size	_ZN5Print5printEli, .-_ZN5Print5printEli
 793              		.section	.text._ZN5Print5printEii,"ax",%progbits
 794              		.align	1
 795              		.p2align 2,,3
 796              		.global	_ZN5Print5printEii
 797              		.syntax unified
 798              		.thumb
 799              		.thumb_func
 800              		.fpu fpv5-d16
 801              		.type	_ZN5Print5printEii, %function
 802              	_ZN5Print5printEii:
 803              	.LFB529:
ARM GAS  /tmp/ccZzmomm.s 			page 20


  58:../cores/arduino/Print.cpp ****   return print((long) n, base);
 804              		.loc 1 58 0
 805              		.cfi_startproc
 806              		@ args = 0, pretend = 0, frame = 0
 807              		@ frame_needed = 0, uses_anonymous_args = 0
 808              		@ link register save eliminated.
 809              	.LVL83:
  59:../cores/arduino/Print.cpp **** }
 810              		.loc 1 59 0
 811 0000 FFF7FEBF 		b	_ZN5Print5printEli
 812              	.LVL84:
 813              		.cfi_endproc
 814              	.LFE529:
 815              		.size	_ZN5Print5printEii, .-_ZN5Print5printEii
 816              		.section	.text._ZN5Print7printlnEii,"ax",%progbits
 817              		.align	1
 818              		.p2align 2,,3
 819              		.global	_ZN5Print7printlnEii
 820              		.syntax unified
 821              		.thumb
 822              		.thumb_func
 823              		.fpu fpv5-d16
 824              		.type	_ZN5Print7printlnEii, %function
 825              	_ZN5Print7printlnEii:
 826              	.LFB539:
 128:../cores/arduino/Print.cpp ****   size_t n = print(num, base);
 827              		.loc 1 128 0
 828              		.cfi_startproc
 829              		@ args = 0, pretend = 0, frame = 0
 830              		@ frame_needed = 0, uses_anonymous_args = 0
 831              	.LVL85:
 832 0000 70B5     		push	{r4, r5, r6, lr}
 833              		.cfi_def_cfa_offset 16
 834              		.cfi_offset 4, -16
 835              		.cfi_offset 5, -12
 836              		.cfi_offset 6, -8
 837              		.cfi_offset 14, -4
 128:../cores/arduino/Print.cpp ****   size_t n = print(num, base);
 838              		.loc 1 128 0
 839 0002 0446     		mov	r4, r0
 840              	.LVL86:
 841              	.LBB244:
 842              	.LBB245:
  59:../cores/arduino/Print.cpp **** }
 843              		.loc 1 59 0
 844 0004 FFF7FEFF 		bl	_ZN5Print5printEli
 845              	.LVL87:
 846              	.LBE245:
 847              	.LBE244:
 848              	.LBB247:
 849              	.LBB248:
 850              	.LBB249:
 851              	.LBB250:
  49:../cores/arduino/Print.cpp **** }
 852              		.loc 1 49 0
 853 0008 0D21     		movs	r1, #13
 854              	.LBE250:
ARM GAS  /tmp/ccZzmomm.s 			page 21


 855              	.LBE249:
 856              	.LBE248:
 857              	.LBE247:
 858              	.LBB259:
 859              	.LBB246:
  59:../cores/arduino/Print.cpp **** }
 860              		.loc 1 59 0
 861 000a 0646     		mov	r6, r0
 862              	.LVL88:
 863              	.LBE246:
 864              	.LBE259:
 865              	.LBB260:
 866              	.LBB257:
 867              	.LBB252:
 868              	.LBB251:
  49:../cores/arduino/Print.cpp **** }
 869              		.loc 1 49 0
 870 000c 2368     		ldr	r3, [r4]
 871 000e 2046     		mov	r0, r4
 872 0010 9B68     		ldr	r3, [r3, #8]
 873 0012 9847     		blx	r3
 874              	.LVL89:
 875 0014 0546     		mov	r5, r0
 876              	.LVL90:
 877              	.LBE251:
 878              	.LBE252:
 879              	.LBB253:
 880              	.LBB254:
 881 0016 2368     		ldr	r3, [r4]
 882 0018 2046     		mov	r0, r4
 883              	.LBE254:
 884              	.LBE253:
 885              	.LBE257:
 886              	.LBE260:
 130:../cores/arduino/Print.cpp ****   return n;
 887              		.loc 1 130 0
 888 001a 3544     		add	r5, r5, r6
 889              	.LBB261:
 890              	.LBB258:
 891              	.LBB256:
 892              	.LBB255:
  49:../cores/arduino/Print.cpp **** }
 893              		.loc 1 49 0
 894 001c 0A21     		movs	r1, #10
 895 001e 9B68     		ldr	r3, [r3, #8]
 896 0020 9847     		blx	r3
 897              	.LVL91:
 898              	.LBE255:
 899              	.LBE256:
 900              	.LBE258:
 901              	.LBE261:
 132:../cores/arduino/Print.cpp **** 
 902              		.loc 1 132 0
 903 0022 2844     		add	r0, r0, r5
 904 0024 70BD     		pop	{r4, r5, r6, pc}
 905              		.cfi_endproc
 906              	.LFE539:
ARM GAS  /tmp/ccZzmomm.s 			page 22


 907              		.size	_ZN5Print7printlnEii, .-_ZN5Print7printlnEii
 908 0026 00BF     		.section	.text._ZN5Print7printlnEli,"ax",%progbits
 909              		.align	1
 910              		.p2align 2,,3
 911              		.global	_ZN5Print7printlnEli
 912              		.syntax unified
 913              		.thumb
 914              		.thumb_func
 915              		.fpu fpv5-d16
 916              		.type	_ZN5Print7printlnEli, %function
 917              	_ZN5Print7printlnEli:
 918              	.LFB541:
 142:../cores/arduino/Print.cpp ****   size_t n = print(num, base);
 919              		.loc 1 142 0
 920              		.cfi_startproc
 921              		@ args = 0, pretend = 0, frame = 0
 922              		@ frame_needed = 0, uses_anonymous_args = 0
 923              	.LVL92:
 924 0000 70B5     		push	{r4, r5, r6, lr}
 925              		.cfi_def_cfa_offset 16
 926              		.cfi_offset 4, -16
 927              		.cfi_offset 5, -12
 928              		.cfi_offset 6, -8
 929              		.cfi_offset 14, -4
 142:../cores/arduino/Print.cpp ****   size_t n = print(num, base);
 930              		.loc 1 142 0
 931 0002 0446     		mov	r4, r0
 143:../cores/arduino/Print.cpp ****   n += println();
 932              		.loc 1 143 0
 933 0004 FFF7FEFF 		bl	_ZN5Print5printEli
 934              	.LVL93:
 935              	.LBB262:
 936              	.LBB263:
 937              	.LBB264:
 938              	.LBB265:
  49:../cores/arduino/Print.cpp **** }
 939              		.loc 1 49 0
 940 0008 0D21     		movs	r1, #13
 941              	.LBE265:
 942              	.LBE264:
 943              	.LBE263:
 944              	.LBE262:
 143:../cores/arduino/Print.cpp ****   n += println();
 945              		.loc 1 143 0
 946 000a 0546     		mov	r5, r0
 947              	.LVL94:
 948              	.LBB271:
 949              	.LBB270:
 950              	.LBB267:
 951              	.LBB266:
  49:../cores/arduino/Print.cpp **** }
 952              		.loc 1 49 0
 953 000c 2368     		ldr	r3, [r4]
 954 000e 2046     		mov	r0, r4
 955              	.LVL95:
 956 0010 9B68     		ldr	r3, [r3, #8]
 957 0012 9847     		blx	r3
ARM GAS  /tmp/ccZzmomm.s 			page 23


 958              	.LVL96:
 959 0014 0646     		mov	r6, r0
 960              	.LVL97:
 961              	.LBE266:
 962              	.LBE267:
 963              	.LBB268:
 964              	.LBB269:
 965 0016 2368     		ldr	r3, [r4]
 966 0018 2046     		mov	r0, r4
 967 001a 3544     		add	r5, r5, r6
 968              	.LVL98:
 969 001c 0A21     		movs	r1, #10
 970 001e 9B68     		ldr	r3, [r3, #8]
 971 0020 9847     		blx	r3
 972              	.LVL99:
 973              	.LBE269:
 974              	.LBE268:
 975              	.LBE270:
 976              	.LBE271:
 146:../cores/arduino/Print.cpp **** 
 977              		.loc 1 146 0
 978 0022 2844     		add	r0, r0, r5
 979              	.LVL100:
 980 0024 70BD     		pop	{r4, r5, r6, pc}
 981              		.cfi_endproc
 982              	.LFE541:
 983              		.size	_ZN5Print7printlnEli, .-_ZN5Print7printlnEli
 984 0026 00BF     		.section	.text._ZN5Print5printEmi,"ax",%progbits
 985              		.align	1
 986              		.p2align 2,,3
 987              		.global	_ZN5Print5printEmi
 988              		.syntax unified
 989              		.thumb
 990              		.thumb_func
 991              		.fpu fpv5-d16
 992              		.type	_ZN5Print5printEmi, %function
 993              	_ZN5Print5printEmi:
 994              	.LFB532:
  84:../cores/arduino/Print.cpp ****   if (base == 0) return write(n);
 995              		.loc 1 84 0
 996              		.cfi_startproc
 997              		@ args = 0, pretend = 0, frame = 0
 998              		@ frame_needed = 0, uses_anonymous_args = 0
 999              		@ link register save eliminated.
 1000              	.LVL101:
  85:../cores/arduino/Print.cpp ****   else return printNumber(n, base);
 1001              		.loc 1 85 0
 1002 0000 12B1     		cbz	r2, .L54
  86:../cores/arduino/Print.cpp **** }
 1003              		.loc 1 86 0
 1004 0002 D2B2     		uxtb	r2, r2
 1005              	.LVL102:
 1006 0004 FFF7FEBF 		b	_ZN5Print11printNumberEmh
 1007              	.LVL103:
 1008              	.L54:
 1009              	.LBB274:
 1010              	.LBB275:
ARM GAS  /tmp/ccZzmomm.s 			page 24


  85:../cores/arduino/Print.cpp ****   else return printNumber(n, base);
 1011              		.loc 1 85 0
 1012 0008 0268     		ldr	r2, [r0]
 1013              	.LVL104:
 1014 000a C9B2     		uxtb	r1, r1
 1015              	.LVL105:
 1016              	.LBE275:
 1017              	.LBE274:
  84:../cores/arduino/Print.cpp ****   if (base == 0) return write(n);
 1018              		.loc 1 84 0
 1019 000c 10B4     		push	{r4}
 1020              		.cfi_def_cfa_offset 4
 1021              		.cfi_offset 4, -4
 1022              	.LBB278:
 1023              	.LBB276:
  85:../cores/arduino/Print.cpp ****   else return printNumber(n, base);
 1024              		.loc 1 85 0
 1025 000e 9368     		ldr	r3, [r2, #8]
 1026              	.LBE276:
 1027              	.LBE278:
  87:../cores/arduino/Print.cpp **** 
 1028              		.loc 1 87 0
 1029 0010 5DF8044B 		ldr	r4, [sp], #4
 1030              		.cfi_restore 4
 1031              		.cfi_def_cfa_offset 0
 1032              	.LBB279:
 1033              	.LBB277:
  85:../cores/arduino/Print.cpp ****   else return printNumber(n, base);
 1034              		.loc 1 85 0
 1035 0014 1847     		bx	r3
 1036              	.LVL106:
 1037              	.LBE277:
 1038              	.LBE279:
 1039              		.cfi_endproc
 1040              	.LFE532:
 1041              		.size	_ZN5Print5printEmi, .-_ZN5Print5printEmi
 1042 0016 00BF     		.section	.text._ZN5Print5printEhi,"ax",%progbits
 1043              		.align	1
 1044              		.p2align 2,,3
 1045              		.global	_ZN5Print5printEhi
 1046              		.syntax unified
 1047              		.thumb
 1048              		.thumb_func
 1049              		.fpu fpv5-d16
 1050              		.type	_ZN5Print5printEhi, %function
 1051              	_ZN5Print5printEhi:
 1052              	.LFB528:
  53:../cores/arduino/Print.cpp ****   return print((unsigned long) b, base);
 1053              		.loc 1 53 0
 1054              		.cfi_startproc
 1055              		@ args = 0, pretend = 0, frame = 0
 1056              		@ frame_needed = 0, uses_anonymous_args = 0
 1057              		@ link register save eliminated.
 1058              	.LVL107:
  54:../cores/arduino/Print.cpp **** }
 1059              		.loc 1 54 0
 1060 0000 FFF7FEBF 		b	_ZN5Print5printEmi
ARM GAS  /tmp/ccZzmomm.s 			page 25


 1061              	.LVL108:
 1062              		.cfi_endproc
 1063              	.LFE528:
 1064              		.size	_ZN5Print5printEhi, .-_ZN5Print5printEhi
 1065              		.section	.text._ZN5Print7printlnEhi,"ax",%progbits
 1066              		.align	1
 1067              		.p2align 2,,3
 1068              		.global	_ZN5Print7printlnEhi
 1069              		.syntax unified
 1070              		.thumb
 1071              		.thumb_func
 1072              		.fpu fpv5-d16
 1073              		.type	_ZN5Print7printlnEhi, %function
 1074              	_ZN5Print7printlnEhi:
 1075              	.LFB538:
 121:../cores/arduino/Print.cpp ****   size_t n = print(b, base);
 1076              		.loc 1 121 0
 1077              		.cfi_startproc
 1078              		@ args = 0, pretend = 0, frame = 0
 1079              		@ frame_needed = 0, uses_anonymous_args = 0
 1080              	.LVL109:
 1081 0000 70B5     		push	{r4, r5, r6, lr}
 1082              		.cfi_def_cfa_offset 16
 1083              		.cfi_offset 4, -16
 1084              		.cfi_offset 5, -12
 1085              		.cfi_offset 6, -8
 1086              		.cfi_offset 14, -4
 121:../cores/arduino/Print.cpp ****   size_t n = print(b, base);
 1087              		.loc 1 121 0
 1088 0002 0446     		mov	r4, r0
 1089              	.LVL110:
 1090              	.LBB280:
 1091              	.LBB281:
  54:../cores/arduino/Print.cpp **** }
 1092              		.loc 1 54 0
 1093 0004 FFF7FEFF 		bl	_ZN5Print5printEmi
 1094              	.LVL111:
 1095              	.LBE281:
 1096              	.LBE280:
 1097              	.LBB283:
 1098              	.LBB284:
 1099              	.LBB285:
 1100              	.LBB286:
  49:../cores/arduino/Print.cpp **** }
 1101              		.loc 1 49 0
 1102 0008 0D21     		movs	r1, #13
 1103              	.LBE286:
 1104              	.LBE285:
 1105              	.LBE284:
 1106              	.LBE283:
 1107              	.LBB295:
 1108              	.LBB282:
  54:../cores/arduino/Print.cpp **** }
 1109              		.loc 1 54 0
 1110 000a 0646     		mov	r6, r0
 1111              	.LVL112:
 1112              	.LBE282:
ARM GAS  /tmp/ccZzmomm.s 			page 26


 1113              	.LBE295:
 1114              	.LBB296:
 1115              	.LBB293:
 1116              	.LBB288:
 1117              	.LBB287:
  49:../cores/arduino/Print.cpp **** }
 1118              		.loc 1 49 0
 1119 000c 2368     		ldr	r3, [r4]
 1120 000e 2046     		mov	r0, r4
 1121 0010 9B68     		ldr	r3, [r3, #8]
 1122 0012 9847     		blx	r3
 1123              	.LVL113:
 1124 0014 0546     		mov	r5, r0
 1125              	.LVL114:
 1126              	.LBE287:
 1127              	.LBE288:
 1128              	.LBB289:
 1129              	.LBB290:
 1130 0016 2368     		ldr	r3, [r4]
 1131 0018 2046     		mov	r0, r4
 1132              	.LBE290:
 1133              	.LBE289:
 1134              	.LBE293:
 1135              	.LBE296:
 123:../cores/arduino/Print.cpp ****   return n;
 1136              		.loc 1 123 0
 1137 001a 3544     		add	r5, r5, r6
 1138              	.LBB297:
 1139              	.LBB294:
 1140              	.LBB292:
 1141              	.LBB291:
  49:../cores/arduino/Print.cpp **** }
 1142              		.loc 1 49 0
 1143 001c 0A21     		movs	r1, #10
 1144 001e 9B68     		ldr	r3, [r3, #8]
 1145 0020 9847     		blx	r3
 1146              	.LVL115:
 1147              	.LBE291:
 1148              	.LBE292:
 1149              	.LBE294:
 1150              	.LBE297:
 125:../cores/arduino/Print.cpp **** 
 1151              		.loc 1 125 0
 1152 0022 2844     		add	r0, r0, r5
 1153 0024 70BD     		pop	{r4, r5, r6, pc}
 1154              		.cfi_endproc
 1155              	.LFE538:
 1156              		.size	_ZN5Print7printlnEhi, .-_ZN5Print7printlnEhi
 1157 0026 00BF     		.section	.text._ZN5Print5printEji,"ax",%progbits
 1158              		.align	1
 1159              		.p2align 2,,3
 1160              		.global	_ZN5Print5printEji
 1161              		.syntax unified
 1162              		.thumb
 1163              		.thumb_func
 1164              		.fpu fpv5-d16
 1165              		.type	_ZN5Print5printEji, %function
ARM GAS  /tmp/ccZzmomm.s 			page 27


 1166              	_ZN5Print5printEji:
 1167              	.LFB530:
  63:../cores/arduino/Print.cpp ****   return print((unsigned long) n, base);
 1168              		.loc 1 63 0
 1169              		.cfi_startproc
 1170              		@ args = 0, pretend = 0, frame = 0
 1171              		@ frame_needed = 0, uses_anonymous_args = 0
 1172              		@ link register save eliminated.
 1173              	.LVL116:
  64:../cores/arduino/Print.cpp **** }
 1174              		.loc 1 64 0
 1175 0000 FFF7FEBF 		b	_ZN5Print5printEmi
 1176              	.LVL117:
 1177              		.cfi_endproc
 1178              	.LFE530:
 1179              		.size	_ZN5Print5printEji, .-_ZN5Print5printEji
 1180              		.section	.text._ZN5Print7printlnEji,"ax",%progbits
 1181              		.align	1
 1182              		.p2align 2,,3
 1183              		.global	_ZN5Print7printlnEji
 1184              		.syntax unified
 1185              		.thumb
 1186              		.thumb_func
 1187              		.fpu fpv5-d16
 1188              		.type	_ZN5Print7printlnEji, %function
 1189              	_ZN5Print7printlnEji:
 1190              	.LFB540:
 135:../cores/arduino/Print.cpp ****   size_t n = print(num, base);
 1191              		.loc 1 135 0
 1192              		.cfi_startproc
 1193              		@ args = 0, pretend = 0, frame = 0
 1194              		@ frame_needed = 0, uses_anonymous_args = 0
 1195              	.LVL118:
 1196 0000 70B5     		push	{r4, r5, r6, lr}
 1197              		.cfi_def_cfa_offset 16
 1198              		.cfi_offset 4, -16
 1199              		.cfi_offset 5, -12
 1200              		.cfi_offset 6, -8
 1201              		.cfi_offset 14, -4
 135:../cores/arduino/Print.cpp ****   size_t n = print(num, base);
 1202              		.loc 1 135 0
 1203 0002 0446     		mov	r4, r0
 1204              	.LVL119:
 1205              	.LBB298:
 1206              	.LBB299:
  64:../cores/arduino/Print.cpp **** }
 1207              		.loc 1 64 0
 1208 0004 FFF7FEFF 		bl	_ZN5Print5printEmi
 1209              	.LVL120:
 1210              	.LBE299:
 1211              	.LBE298:
 1212              	.LBB301:
 1213              	.LBB302:
 1214              	.LBB303:
 1215              	.LBB304:
  49:../cores/arduino/Print.cpp **** }
 1216              		.loc 1 49 0
ARM GAS  /tmp/ccZzmomm.s 			page 28


 1217 0008 0D21     		movs	r1, #13
 1218              	.LBE304:
 1219              	.LBE303:
 1220              	.LBE302:
 1221              	.LBE301:
 1222              	.LBB313:
 1223              	.LBB300:
  64:../cores/arduino/Print.cpp **** }
 1224              		.loc 1 64 0
 1225 000a 0646     		mov	r6, r0
 1226              	.LVL121:
 1227              	.LBE300:
 1228              	.LBE313:
 1229              	.LBB314:
 1230              	.LBB311:
 1231              	.LBB306:
 1232              	.LBB305:
  49:../cores/arduino/Print.cpp **** }
 1233              		.loc 1 49 0
 1234 000c 2368     		ldr	r3, [r4]
 1235 000e 2046     		mov	r0, r4
 1236 0010 9B68     		ldr	r3, [r3, #8]
 1237 0012 9847     		blx	r3
 1238              	.LVL122:
 1239 0014 0546     		mov	r5, r0
 1240              	.LVL123:
 1241              	.LBE305:
 1242              	.LBE306:
 1243              	.LBB307:
 1244              	.LBB308:
 1245 0016 2368     		ldr	r3, [r4]
 1246 0018 2046     		mov	r0, r4
 1247              	.LBE308:
 1248              	.LBE307:
 1249              	.LBE311:
 1250              	.LBE314:
 137:../cores/arduino/Print.cpp ****   return n;
 1251              		.loc 1 137 0
 1252 001a 3544     		add	r5, r5, r6
 1253              	.LBB315:
 1254              	.LBB312:
 1255              	.LBB310:
 1256              	.LBB309:
  49:../cores/arduino/Print.cpp **** }
 1257              		.loc 1 49 0
 1258 001c 0A21     		movs	r1, #10
 1259 001e 9B68     		ldr	r3, [r3, #8]
 1260 0020 9847     		blx	r3
 1261              	.LVL124:
 1262              	.LBE309:
 1263              	.LBE310:
 1264              	.LBE312:
 1265              	.LBE315:
 139:../cores/arduino/Print.cpp **** 
 1266              		.loc 1 139 0
 1267 0022 2844     		add	r0, r0, r5
 1268 0024 70BD     		pop	{r4, r5, r6, pc}
ARM GAS  /tmp/ccZzmomm.s 			page 29


 1269              		.cfi_endproc
 1270              	.LFE540:
 1271              		.size	_ZN5Print7printlnEji, .-_ZN5Print7printlnEji
 1272 0026 00BF     		.section	.text._ZN5Print7printlnEmi,"ax",%progbits
 1273              		.align	1
 1274              		.p2align 2,,3
 1275              		.global	_ZN5Print7printlnEmi
 1276              		.syntax unified
 1277              		.thumb
 1278              		.thumb_func
 1279              		.fpu fpv5-d16
 1280              		.type	_ZN5Print7printlnEmi, %function
 1281              	_ZN5Print7printlnEmi:
 1282              	.LFB542:
 149:../cores/arduino/Print.cpp ****   size_t n = print(num, base);
 1283              		.loc 1 149 0
 1284              		.cfi_startproc
 1285              		@ args = 0, pretend = 0, frame = 0
 1286              		@ frame_needed = 0, uses_anonymous_args = 0
 1287              	.LVL125:
 1288 0000 70B5     		push	{r4, r5, r6, lr}
 1289              		.cfi_def_cfa_offset 16
 1290              		.cfi_offset 4, -16
 1291              		.cfi_offset 5, -12
 1292              		.cfi_offset 6, -8
 1293              		.cfi_offset 14, -4
 149:../cores/arduino/Print.cpp ****   size_t n = print(num, base);
 1294              		.loc 1 149 0
 1295 0002 0446     		mov	r4, r0
 150:../cores/arduino/Print.cpp ****   n += println();
 1296              		.loc 1 150 0
 1297 0004 FFF7FEFF 		bl	_ZN5Print5printEmi
 1298              	.LVL126:
 1299              	.LBB316:
 1300              	.LBB317:
 1301              	.LBB318:
 1302              	.LBB319:
  49:../cores/arduino/Print.cpp **** }
 1303              		.loc 1 49 0
 1304 0008 0D21     		movs	r1, #13
 1305              	.LBE319:
 1306              	.LBE318:
 1307              	.LBE317:
 1308              	.LBE316:
 150:../cores/arduino/Print.cpp ****   n += println();
 1309              		.loc 1 150 0
 1310 000a 0546     		mov	r5, r0
 1311              	.LVL127:
 1312              	.LBB325:
 1313              	.LBB324:
 1314              	.LBB321:
 1315              	.LBB320:
  49:../cores/arduino/Print.cpp **** }
 1316              		.loc 1 49 0
 1317 000c 2368     		ldr	r3, [r4]
 1318 000e 2046     		mov	r0, r4
 1319              	.LVL128:
ARM GAS  /tmp/ccZzmomm.s 			page 30


 1320 0010 9B68     		ldr	r3, [r3, #8]
 1321 0012 9847     		blx	r3
 1322              	.LVL129:
 1323 0014 0646     		mov	r6, r0
 1324              	.LVL130:
 1325              	.LBE320:
 1326              	.LBE321:
 1327              	.LBB322:
 1328              	.LBB323:
 1329 0016 2368     		ldr	r3, [r4]
 1330 0018 2046     		mov	r0, r4
 1331 001a 3544     		add	r5, r5, r6
 1332              	.LVL131:
 1333 001c 0A21     		movs	r1, #10
 1334 001e 9B68     		ldr	r3, [r3, #8]
 1335 0020 9847     		blx	r3
 1336              	.LVL132:
 1337              	.LBE323:
 1338              	.LBE322:
 1339              	.LBE324:
 1340              	.LBE325:
 153:../cores/arduino/Print.cpp **** 
 1341              		.loc 1 153 0
 1342 0022 2844     		add	r0, r0, r5
 1343              	.LVL133:
 1344 0024 70BD     		pop	{r4, r5, r6, pc}
 1345              		.cfi_endproc
 1346              	.LFE542:
 1347              		.size	_ZN5Print7printlnEmi, .-_ZN5Print7printlnEmi
 1348 0026 00BF     		.section	.text._ZN5Print10printFloatEdh,"ax",%progbits
 1349              		.align	1
 1350              		.p2align 2,,3
 1351              		.global	_ZN5Print10printFloatEdh
 1352              		.syntax unified
 1353              		.thumb
 1354              		.thumb_func
 1355              		.fpu fpv5-d16
 1356              		.type	_ZN5Print10printFloatEdh, %function
 1357              	_ZN5Print10printFloatEdh:
 1358              	.LFB546:
 189:../cores/arduino/Print.cpp **** 
 190:../cores/arduino/Print.cpp **** size_t Print::printFloat(double number, uint8_t digits) 
 191:../cores/arduino/Print.cpp **** { 
 1359              		.loc 1 191 0
 1360              		.cfi_startproc
 1361              		@ args = 0, pretend = 0, frame = 16
 1362              		@ frame_needed = 0, uses_anonymous_args = 0
 1363              	.LVL134:
 1364              	.LBB372:
 1365              	.LBB373:
 1366              		.file 3 "/usr/include/newlib/c++/6.3.1/cmath"
   1:/usr/include/newlib/c++/6.3.1/cmath **** // -*- C++ -*- C forwarding header.
   2:/usr/include/newlib/c++/6.3.1/cmath **** 
   3:/usr/include/newlib/c++/6.3.1/cmath **** // Copyright (C) 1997-2016 Free Software Foundation, Inc.
   4:/usr/include/newlib/c++/6.3.1/cmath **** //
   5:/usr/include/newlib/c++/6.3.1/cmath **** // This file is part of the GNU ISO C++ Library.  This library is free
   6:/usr/include/newlib/c++/6.3.1/cmath **** // software; you can redistribute it and/or modify it under the
ARM GAS  /tmp/ccZzmomm.s 			page 31


   7:/usr/include/newlib/c++/6.3.1/cmath **** // terms of the GNU General Public License as published by the
   8:/usr/include/newlib/c++/6.3.1/cmath **** // Free Software Foundation; either version 3, or (at your option)
   9:/usr/include/newlib/c++/6.3.1/cmath **** // any later version.
  10:/usr/include/newlib/c++/6.3.1/cmath **** 
  11:/usr/include/newlib/c++/6.3.1/cmath **** // This library is distributed in the hope that it will be useful,
  12:/usr/include/newlib/c++/6.3.1/cmath **** // but WITHOUT ANY WARRANTY; without even the implied warranty of
  13:/usr/include/newlib/c++/6.3.1/cmath **** // MERCHANTABILITY or FITNESS FOR A PARTICULAR PURPOSE.  See the
  14:/usr/include/newlib/c++/6.3.1/cmath **** // GNU General Public License for more details.
  15:/usr/include/newlib/c++/6.3.1/cmath **** 
  16:/usr/include/newlib/c++/6.3.1/cmath **** // Under Section 7 of GPL version 3, you are granted additional
  17:/usr/include/newlib/c++/6.3.1/cmath **** // permissions described in the GCC Runtime Library Exception, version
  18:/usr/include/newlib/c++/6.3.1/cmath **** // 3.1, as published by the Free Software Foundation.
  19:/usr/include/newlib/c++/6.3.1/cmath **** 
  20:/usr/include/newlib/c++/6.3.1/cmath **** // You should have received a copy of the GNU General Public License and
  21:/usr/include/newlib/c++/6.3.1/cmath **** // a copy of the GCC Runtime Library Exception along with this program;
  22:/usr/include/newlib/c++/6.3.1/cmath **** // see the files COPYING3 and COPYING.RUNTIME respectively.  If not, see
  23:/usr/include/newlib/c++/6.3.1/cmath **** // <http://www.gnu.org/licenses/>.
  24:/usr/include/newlib/c++/6.3.1/cmath **** 
  25:/usr/include/newlib/c++/6.3.1/cmath **** /** @file include/cmath
  26:/usr/include/newlib/c++/6.3.1/cmath ****  *  This is a Standard C++ Library file.  You should @c \#include this file
  27:/usr/include/newlib/c++/6.3.1/cmath ****  *  in your programs, rather than any of the @a *.h implementation files.
  28:/usr/include/newlib/c++/6.3.1/cmath ****  *
  29:/usr/include/newlib/c++/6.3.1/cmath ****  *  This is the C++ version of the Standard C Library header @c math.h,
  30:/usr/include/newlib/c++/6.3.1/cmath ****  *  and its contents are (mostly) the same as that header, but are all
  31:/usr/include/newlib/c++/6.3.1/cmath ****  *  contained in the namespace @c std (except for names which are defined
  32:/usr/include/newlib/c++/6.3.1/cmath ****  *  as macros in C).
  33:/usr/include/newlib/c++/6.3.1/cmath ****  */
  34:/usr/include/newlib/c++/6.3.1/cmath **** 
  35:/usr/include/newlib/c++/6.3.1/cmath **** //
  36:/usr/include/newlib/c++/6.3.1/cmath **** // ISO C++ 14882: 26.5  C library
  37:/usr/include/newlib/c++/6.3.1/cmath **** //
  38:/usr/include/newlib/c++/6.3.1/cmath **** 
  39:/usr/include/newlib/c++/6.3.1/cmath **** #pragma GCC system_header
  40:/usr/include/newlib/c++/6.3.1/cmath **** 
  41:/usr/include/newlib/c++/6.3.1/cmath **** #include <bits/c++config.h>
  42:/usr/include/newlib/c++/6.3.1/cmath **** #include <bits/cpp_type_traits.h>
  43:/usr/include/newlib/c++/6.3.1/cmath **** #include <ext/type_traits.h>
  44:/usr/include/newlib/c++/6.3.1/cmath **** #define _GLIBCXX_INCLUDE_NEXT_C_HEADERS
  45:/usr/include/newlib/c++/6.3.1/cmath **** #include_next <math.h>
  46:/usr/include/newlib/c++/6.3.1/cmath **** #undef _GLIBCXX_INCLUDE_NEXT_C_HEADERS
  47:/usr/include/newlib/c++/6.3.1/cmath **** 
  48:/usr/include/newlib/c++/6.3.1/cmath **** #ifndef _GLIBCXX_CMATH
  49:/usr/include/newlib/c++/6.3.1/cmath **** #define _GLIBCXX_CMATH 1
  50:/usr/include/newlib/c++/6.3.1/cmath **** 
  51:/usr/include/newlib/c++/6.3.1/cmath **** // Get rid of those macros defined in <math.h> in lieu of real functions.
  52:/usr/include/newlib/c++/6.3.1/cmath **** #undef abs
  53:/usr/include/newlib/c++/6.3.1/cmath **** #undef div
  54:/usr/include/newlib/c++/6.3.1/cmath **** #undef acos
  55:/usr/include/newlib/c++/6.3.1/cmath **** #undef asin
  56:/usr/include/newlib/c++/6.3.1/cmath **** #undef atan
  57:/usr/include/newlib/c++/6.3.1/cmath **** #undef atan2
  58:/usr/include/newlib/c++/6.3.1/cmath **** #undef ceil
  59:/usr/include/newlib/c++/6.3.1/cmath **** #undef cos
  60:/usr/include/newlib/c++/6.3.1/cmath **** #undef cosh
  61:/usr/include/newlib/c++/6.3.1/cmath **** #undef exp
  62:/usr/include/newlib/c++/6.3.1/cmath **** #undef fabs
  63:/usr/include/newlib/c++/6.3.1/cmath **** #undef floor
ARM GAS  /tmp/ccZzmomm.s 			page 32


  64:/usr/include/newlib/c++/6.3.1/cmath **** #undef fmod
  65:/usr/include/newlib/c++/6.3.1/cmath **** #undef frexp
  66:/usr/include/newlib/c++/6.3.1/cmath **** #undef ldexp
  67:/usr/include/newlib/c++/6.3.1/cmath **** #undef log
  68:/usr/include/newlib/c++/6.3.1/cmath **** #undef log10
  69:/usr/include/newlib/c++/6.3.1/cmath **** #undef modf
  70:/usr/include/newlib/c++/6.3.1/cmath **** #undef pow
  71:/usr/include/newlib/c++/6.3.1/cmath **** #undef sin
  72:/usr/include/newlib/c++/6.3.1/cmath **** #undef sinh
  73:/usr/include/newlib/c++/6.3.1/cmath **** #undef sqrt
  74:/usr/include/newlib/c++/6.3.1/cmath **** #undef tan
  75:/usr/include/newlib/c++/6.3.1/cmath **** #undef tanh
  76:/usr/include/newlib/c++/6.3.1/cmath **** 
  77:/usr/include/newlib/c++/6.3.1/cmath **** extern "C++"
  78:/usr/include/newlib/c++/6.3.1/cmath **** {
  79:/usr/include/newlib/c++/6.3.1/cmath **** namespace std _GLIBCXX_VISIBILITY(default)
  80:/usr/include/newlib/c++/6.3.1/cmath **** {
  81:/usr/include/newlib/c++/6.3.1/cmath **** _GLIBCXX_BEGIN_NAMESPACE_VERSION
  82:/usr/include/newlib/c++/6.3.1/cmath **** 
  83:/usr/include/newlib/c++/6.3.1/cmath **** #ifndef __CORRECT_ISO_CPP_MATH_H_PROTO
  84:/usr/include/newlib/c++/6.3.1/cmath ****   inline _GLIBCXX_CONSTEXPR double
  85:/usr/include/newlib/c++/6.3.1/cmath ****   abs(double __x)
  86:/usr/include/newlib/c++/6.3.1/cmath ****   { return __builtin_fabs(__x); }
  87:/usr/include/newlib/c++/6.3.1/cmath **** #endif
  88:/usr/include/newlib/c++/6.3.1/cmath **** 
  89:/usr/include/newlib/c++/6.3.1/cmath **** #ifndef __CORRECT_ISO_CPP_MATH_H_PROTO
  90:/usr/include/newlib/c++/6.3.1/cmath ****   inline _GLIBCXX_CONSTEXPR float
  91:/usr/include/newlib/c++/6.3.1/cmath ****   abs(float __x)
  92:/usr/include/newlib/c++/6.3.1/cmath ****   { return __builtin_fabsf(__x); }
  93:/usr/include/newlib/c++/6.3.1/cmath **** 
  94:/usr/include/newlib/c++/6.3.1/cmath ****   inline _GLIBCXX_CONSTEXPR long double
  95:/usr/include/newlib/c++/6.3.1/cmath ****   abs(long double __x)
  96:/usr/include/newlib/c++/6.3.1/cmath ****   { return __builtin_fabsl(__x); }
  97:/usr/include/newlib/c++/6.3.1/cmath **** #endif
  98:/usr/include/newlib/c++/6.3.1/cmath **** 
  99:/usr/include/newlib/c++/6.3.1/cmath ****   template<typename _Tp>
 100:/usr/include/newlib/c++/6.3.1/cmath ****     inline _GLIBCXX_CONSTEXPR
 101:/usr/include/newlib/c++/6.3.1/cmath ****     typename __gnu_cxx::__enable_if<__is_integer<_Tp>::__value,
 102:/usr/include/newlib/c++/6.3.1/cmath ****                                     double>::__type
 103:/usr/include/newlib/c++/6.3.1/cmath ****     abs(_Tp __x)
 104:/usr/include/newlib/c++/6.3.1/cmath ****     { return __builtin_fabs(__x); }
 105:/usr/include/newlib/c++/6.3.1/cmath **** 
 106:/usr/include/newlib/c++/6.3.1/cmath ****   using ::acos;
 107:/usr/include/newlib/c++/6.3.1/cmath **** 
 108:/usr/include/newlib/c++/6.3.1/cmath **** #ifndef __CORRECT_ISO_CPP_MATH_H_PROTO
 109:/usr/include/newlib/c++/6.3.1/cmath ****   inline _GLIBCXX_CONSTEXPR float
 110:/usr/include/newlib/c++/6.3.1/cmath ****   acos(float __x)
 111:/usr/include/newlib/c++/6.3.1/cmath ****   { return __builtin_acosf(__x); }
 112:/usr/include/newlib/c++/6.3.1/cmath **** 
 113:/usr/include/newlib/c++/6.3.1/cmath ****   inline _GLIBCXX_CONSTEXPR long double
 114:/usr/include/newlib/c++/6.3.1/cmath ****   acos(long double __x)
 115:/usr/include/newlib/c++/6.3.1/cmath ****   { return __builtin_acosl(__x); }
 116:/usr/include/newlib/c++/6.3.1/cmath **** #endif
 117:/usr/include/newlib/c++/6.3.1/cmath **** 
 118:/usr/include/newlib/c++/6.3.1/cmath ****   template<typename _Tp>
 119:/usr/include/newlib/c++/6.3.1/cmath ****     inline _GLIBCXX_CONSTEXPR
 120:/usr/include/newlib/c++/6.3.1/cmath ****     typename __gnu_cxx::__enable_if<__is_integer<_Tp>::__value, 
ARM GAS  /tmp/ccZzmomm.s 			page 33


 121:/usr/include/newlib/c++/6.3.1/cmath ****                                     double>::__type
 122:/usr/include/newlib/c++/6.3.1/cmath ****     acos(_Tp __x)
 123:/usr/include/newlib/c++/6.3.1/cmath ****     { return __builtin_acos(__x); }
 124:/usr/include/newlib/c++/6.3.1/cmath **** 
 125:/usr/include/newlib/c++/6.3.1/cmath ****   using ::asin;
 126:/usr/include/newlib/c++/6.3.1/cmath **** 
 127:/usr/include/newlib/c++/6.3.1/cmath **** #ifndef __CORRECT_ISO_CPP_MATH_H_PROTO
 128:/usr/include/newlib/c++/6.3.1/cmath ****   inline _GLIBCXX_CONSTEXPR float
 129:/usr/include/newlib/c++/6.3.1/cmath ****   asin(float __x)
 130:/usr/include/newlib/c++/6.3.1/cmath ****   { return __builtin_asinf(__x); }
 131:/usr/include/newlib/c++/6.3.1/cmath **** 
 132:/usr/include/newlib/c++/6.3.1/cmath ****   inline _GLIBCXX_CONSTEXPR long double
 133:/usr/include/newlib/c++/6.3.1/cmath ****   asin(long double __x)
 134:/usr/include/newlib/c++/6.3.1/cmath ****   { return __builtin_asinl(__x); }
 135:/usr/include/newlib/c++/6.3.1/cmath **** #endif
 136:/usr/include/newlib/c++/6.3.1/cmath **** 
 137:/usr/include/newlib/c++/6.3.1/cmath ****   template<typename _Tp>
 138:/usr/include/newlib/c++/6.3.1/cmath ****     inline _GLIBCXX_CONSTEXPR
 139:/usr/include/newlib/c++/6.3.1/cmath ****     typename __gnu_cxx::__enable_if<__is_integer<_Tp>::__value,
 140:/usr/include/newlib/c++/6.3.1/cmath ****                                     double>::__type
 141:/usr/include/newlib/c++/6.3.1/cmath ****     asin(_Tp __x)
 142:/usr/include/newlib/c++/6.3.1/cmath ****     { return __builtin_asin(__x); }
 143:/usr/include/newlib/c++/6.3.1/cmath **** 
 144:/usr/include/newlib/c++/6.3.1/cmath ****   using ::atan;
 145:/usr/include/newlib/c++/6.3.1/cmath **** 
 146:/usr/include/newlib/c++/6.3.1/cmath **** #ifndef __CORRECT_ISO_CPP_MATH_H_PROTO
 147:/usr/include/newlib/c++/6.3.1/cmath ****   inline _GLIBCXX_CONSTEXPR float
 148:/usr/include/newlib/c++/6.3.1/cmath ****   atan(float __x)
 149:/usr/include/newlib/c++/6.3.1/cmath ****   { return __builtin_atanf(__x); }
 150:/usr/include/newlib/c++/6.3.1/cmath **** 
 151:/usr/include/newlib/c++/6.3.1/cmath ****   inline _GLIBCXX_CONSTEXPR long double
 152:/usr/include/newlib/c++/6.3.1/cmath ****   atan(long double __x)
 153:/usr/include/newlib/c++/6.3.1/cmath ****   { return __builtin_atanl(__x); }
 154:/usr/include/newlib/c++/6.3.1/cmath **** #endif
 155:/usr/include/newlib/c++/6.3.1/cmath **** 
 156:/usr/include/newlib/c++/6.3.1/cmath ****   template<typename _Tp>
 157:/usr/include/newlib/c++/6.3.1/cmath ****     inline _GLIBCXX_CONSTEXPR
 158:/usr/include/newlib/c++/6.3.1/cmath ****     typename __gnu_cxx::__enable_if<__is_integer<_Tp>::__value,
 159:/usr/include/newlib/c++/6.3.1/cmath ****                                     double>::__type
 160:/usr/include/newlib/c++/6.3.1/cmath ****     atan(_Tp __x)
 161:/usr/include/newlib/c++/6.3.1/cmath ****     { return __builtin_atan(__x); }
 162:/usr/include/newlib/c++/6.3.1/cmath **** 
 163:/usr/include/newlib/c++/6.3.1/cmath ****   using ::atan2;
 164:/usr/include/newlib/c++/6.3.1/cmath **** 
 165:/usr/include/newlib/c++/6.3.1/cmath **** #ifndef __CORRECT_ISO_CPP_MATH_H_PROTO
 166:/usr/include/newlib/c++/6.3.1/cmath ****   inline _GLIBCXX_CONSTEXPR float
 167:/usr/include/newlib/c++/6.3.1/cmath ****   atan2(float __y, float __x)
 168:/usr/include/newlib/c++/6.3.1/cmath ****   { return __builtin_atan2f(__y, __x); }
 169:/usr/include/newlib/c++/6.3.1/cmath **** 
 170:/usr/include/newlib/c++/6.3.1/cmath ****   inline _GLIBCXX_CONSTEXPR long double
 171:/usr/include/newlib/c++/6.3.1/cmath ****   atan2(long double __y, long double __x)
 172:/usr/include/newlib/c++/6.3.1/cmath ****   { return __builtin_atan2l(__y, __x); }
 173:/usr/include/newlib/c++/6.3.1/cmath **** #endif
 174:/usr/include/newlib/c++/6.3.1/cmath **** 
 175:/usr/include/newlib/c++/6.3.1/cmath ****   template<typename _Tp, typename _Up>
 176:/usr/include/newlib/c++/6.3.1/cmath ****     inline _GLIBCXX_CONSTEXPR
 177:/usr/include/newlib/c++/6.3.1/cmath ****     typename __gnu_cxx::__promote_2<_Tp, _Up>::__type
ARM GAS  /tmp/ccZzmomm.s 			page 34


 178:/usr/include/newlib/c++/6.3.1/cmath ****     atan2(_Tp __y, _Up __x)
 179:/usr/include/newlib/c++/6.3.1/cmath ****     {
 180:/usr/include/newlib/c++/6.3.1/cmath ****       typedef typename __gnu_cxx::__promote_2<_Tp, _Up>::__type __type;
 181:/usr/include/newlib/c++/6.3.1/cmath ****       return atan2(__type(__y), __type(__x));
 182:/usr/include/newlib/c++/6.3.1/cmath ****     }
 183:/usr/include/newlib/c++/6.3.1/cmath **** 
 184:/usr/include/newlib/c++/6.3.1/cmath ****   using ::ceil;
 185:/usr/include/newlib/c++/6.3.1/cmath **** 
 186:/usr/include/newlib/c++/6.3.1/cmath **** #ifndef __CORRECT_ISO_CPP_MATH_H_PROTO
 187:/usr/include/newlib/c++/6.3.1/cmath ****   inline _GLIBCXX_CONSTEXPR float
 188:/usr/include/newlib/c++/6.3.1/cmath ****   ceil(float __x)
 189:/usr/include/newlib/c++/6.3.1/cmath ****   { return __builtin_ceilf(__x); }
 190:/usr/include/newlib/c++/6.3.1/cmath **** 
 191:/usr/include/newlib/c++/6.3.1/cmath ****   inline _GLIBCXX_CONSTEXPR long double
 192:/usr/include/newlib/c++/6.3.1/cmath ****   ceil(long double __x)
 193:/usr/include/newlib/c++/6.3.1/cmath ****   { return __builtin_ceill(__x); }
 194:/usr/include/newlib/c++/6.3.1/cmath **** #endif
 195:/usr/include/newlib/c++/6.3.1/cmath **** 
 196:/usr/include/newlib/c++/6.3.1/cmath ****   template<typename _Tp>
 197:/usr/include/newlib/c++/6.3.1/cmath ****     inline _GLIBCXX_CONSTEXPR
 198:/usr/include/newlib/c++/6.3.1/cmath ****     typename __gnu_cxx::__enable_if<__is_integer<_Tp>::__value, 
 199:/usr/include/newlib/c++/6.3.1/cmath ****                                     double>::__type
 200:/usr/include/newlib/c++/6.3.1/cmath ****     ceil(_Tp __x)
 201:/usr/include/newlib/c++/6.3.1/cmath ****     { return __builtin_ceil(__x); }
 202:/usr/include/newlib/c++/6.3.1/cmath **** 
 203:/usr/include/newlib/c++/6.3.1/cmath ****   using ::cos;
 204:/usr/include/newlib/c++/6.3.1/cmath **** 
 205:/usr/include/newlib/c++/6.3.1/cmath **** #ifndef __CORRECT_ISO_CPP_MATH_H_PROTO
 206:/usr/include/newlib/c++/6.3.1/cmath ****   inline _GLIBCXX_CONSTEXPR float
 207:/usr/include/newlib/c++/6.3.1/cmath ****   cos(float __x)
 208:/usr/include/newlib/c++/6.3.1/cmath ****   { return __builtin_cosf(__x); }
 209:/usr/include/newlib/c++/6.3.1/cmath **** 
 210:/usr/include/newlib/c++/6.3.1/cmath ****   inline _GLIBCXX_CONSTEXPR long double
 211:/usr/include/newlib/c++/6.3.1/cmath ****   cos(long double __x)
 212:/usr/include/newlib/c++/6.3.1/cmath ****   { return __builtin_cosl(__x); }
 213:/usr/include/newlib/c++/6.3.1/cmath **** #endif
 214:/usr/include/newlib/c++/6.3.1/cmath **** 
 215:/usr/include/newlib/c++/6.3.1/cmath ****   template<typename _Tp>
 216:/usr/include/newlib/c++/6.3.1/cmath ****     inline _GLIBCXX_CONSTEXPR
 217:/usr/include/newlib/c++/6.3.1/cmath ****     typename __gnu_cxx::__enable_if<__is_integer<_Tp>::__value,
 218:/usr/include/newlib/c++/6.3.1/cmath ****                                     double>::__type
 219:/usr/include/newlib/c++/6.3.1/cmath ****     cos(_Tp __x)
 220:/usr/include/newlib/c++/6.3.1/cmath ****     { return __builtin_cos(__x); }
 221:/usr/include/newlib/c++/6.3.1/cmath **** 
 222:/usr/include/newlib/c++/6.3.1/cmath ****   using ::cosh;
 223:/usr/include/newlib/c++/6.3.1/cmath **** 
 224:/usr/include/newlib/c++/6.3.1/cmath **** #ifndef __CORRECT_ISO_CPP_MATH_H_PROTO
 225:/usr/include/newlib/c++/6.3.1/cmath ****   inline _GLIBCXX_CONSTEXPR float
 226:/usr/include/newlib/c++/6.3.1/cmath ****   cosh(float __x)
 227:/usr/include/newlib/c++/6.3.1/cmath ****   { return __builtin_coshf(__x); }
 228:/usr/include/newlib/c++/6.3.1/cmath **** 
 229:/usr/include/newlib/c++/6.3.1/cmath ****   inline _GLIBCXX_CONSTEXPR long double
 230:/usr/include/newlib/c++/6.3.1/cmath ****   cosh(long double __x)
 231:/usr/include/newlib/c++/6.3.1/cmath ****   { return __builtin_coshl(__x); }
 232:/usr/include/newlib/c++/6.3.1/cmath **** #endif
 233:/usr/include/newlib/c++/6.3.1/cmath **** 
 234:/usr/include/newlib/c++/6.3.1/cmath ****   template<typename _Tp>
ARM GAS  /tmp/ccZzmomm.s 			page 35


 235:/usr/include/newlib/c++/6.3.1/cmath ****     inline _GLIBCXX_CONSTEXPR
 236:/usr/include/newlib/c++/6.3.1/cmath ****     typename __gnu_cxx::__enable_if<__is_integer<_Tp>::__value,
 237:/usr/include/newlib/c++/6.3.1/cmath ****                                     double>::__type
 238:/usr/include/newlib/c++/6.3.1/cmath ****     cosh(_Tp __x)
 239:/usr/include/newlib/c++/6.3.1/cmath ****     { return __builtin_cosh(__x); }
 240:/usr/include/newlib/c++/6.3.1/cmath **** 
 241:/usr/include/newlib/c++/6.3.1/cmath ****   using ::exp;
 242:/usr/include/newlib/c++/6.3.1/cmath **** 
 243:/usr/include/newlib/c++/6.3.1/cmath **** #ifndef __CORRECT_ISO_CPP_MATH_H_PROTO
 244:/usr/include/newlib/c++/6.3.1/cmath ****   inline _GLIBCXX_CONSTEXPR float
 245:/usr/include/newlib/c++/6.3.1/cmath ****   exp(float __x)
 246:/usr/include/newlib/c++/6.3.1/cmath ****   { return __builtin_expf(__x); }
 247:/usr/include/newlib/c++/6.3.1/cmath **** 
 248:/usr/include/newlib/c++/6.3.1/cmath ****   inline _GLIBCXX_CONSTEXPR long double
 249:/usr/include/newlib/c++/6.3.1/cmath ****   exp(long double __x)
 250:/usr/include/newlib/c++/6.3.1/cmath ****   { return __builtin_expl(__x); }
 251:/usr/include/newlib/c++/6.3.1/cmath **** #endif
 252:/usr/include/newlib/c++/6.3.1/cmath **** 
 253:/usr/include/newlib/c++/6.3.1/cmath ****   template<typename _Tp>
 254:/usr/include/newlib/c++/6.3.1/cmath ****     inline _GLIBCXX_CONSTEXPR
 255:/usr/include/newlib/c++/6.3.1/cmath ****     typename __gnu_cxx::__enable_if<__is_integer<_Tp>::__value,
 256:/usr/include/newlib/c++/6.3.1/cmath ****                                     double>::__type
 257:/usr/include/newlib/c++/6.3.1/cmath ****     exp(_Tp __x)
 258:/usr/include/newlib/c++/6.3.1/cmath ****     { return __builtin_exp(__x); }
 259:/usr/include/newlib/c++/6.3.1/cmath **** 
 260:/usr/include/newlib/c++/6.3.1/cmath ****   using ::fabs;
 261:/usr/include/newlib/c++/6.3.1/cmath **** 
 262:/usr/include/newlib/c++/6.3.1/cmath **** #ifndef __CORRECT_ISO_CPP_MATH_H_PROTO
 263:/usr/include/newlib/c++/6.3.1/cmath ****   inline _GLIBCXX_CONSTEXPR float
 264:/usr/include/newlib/c++/6.3.1/cmath ****   fabs(float __x)
 265:/usr/include/newlib/c++/6.3.1/cmath ****   { return __builtin_fabsf(__x); }
 266:/usr/include/newlib/c++/6.3.1/cmath **** 
 267:/usr/include/newlib/c++/6.3.1/cmath ****   inline _GLIBCXX_CONSTEXPR long double
 268:/usr/include/newlib/c++/6.3.1/cmath ****   fabs(long double __x)
 269:/usr/include/newlib/c++/6.3.1/cmath ****   { return __builtin_fabsl(__x); }
 270:/usr/include/newlib/c++/6.3.1/cmath **** #endif
 271:/usr/include/newlib/c++/6.3.1/cmath **** 
 272:/usr/include/newlib/c++/6.3.1/cmath ****   template<typename _Tp>
 273:/usr/include/newlib/c++/6.3.1/cmath ****     inline _GLIBCXX_CONSTEXPR
 274:/usr/include/newlib/c++/6.3.1/cmath ****     typename __gnu_cxx::__enable_if<__is_integer<_Tp>::__value,
 275:/usr/include/newlib/c++/6.3.1/cmath ****                                     double>::__type
 276:/usr/include/newlib/c++/6.3.1/cmath ****     fabs(_Tp __x)
 277:/usr/include/newlib/c++/6.3.1/cmath ****     { return __builtin_fabs(__x); }
 278:/usr/include/newlib/c++/6.3.1/cmath **** 
 279:/usr/include/newlib/c++/6.3.1/cmath ****   using ::floor;
 280:/usr/include/newlib/c++/6.3.1/cmath **** 
 281:/usr/include/newlib/c++/6.3.1/cmath **** #ifndef __CORRECT_ISO_CPP_MATH_H_PROTO
 282:/usr/include/newlib/c++/6.3.1/cmath ****   inline _GLIBCXX_CONSTEXPR float
 283:/usr/include/newlib/c++/6.3.1/cmath ****   floor(float __x)
 284:/usr/include/newlib/c++/6.3.1/cmath ****   { return __builtin_floorf(__x); }
 285:/usr/include/newlib/c++/6.3.1/cmath **** 
 286:/usr/include/newlib/c++/6.3.1/cmath ****   inline _GLIBCXX_CONSTEXPR long double
 287:/usr/include/newlib/c++/6.3.1/cmath ****   floor(long double __x)
 288:/usr/include/newlib/c++/6.3.1/cmath ****   { return __builtin_floorl(__x); }
 289:/usr/include/newlib/c++/6.3.1/cmath **** #endif
 290:/usr/include/newlib/c++/6.3.1/cmath **** 
 291:/usr/include/newlib/c++/6.3.1/cmath ****   template<typename _Tp>
ARM GAS  /tmp/ccZzmomm.s 			page 36


 292:/usr/include/newlib/c++/6.3.1/cmath ****     inline _GLIBCXX_CONSTEXPR
 293:/usr/include/newlib/c++/6.3.1/cmath ****     typename __gnu_cxx::__enable_if<__is_integer<_Tp>::__value,
 294:/usr/include/newlib/c++/6.3.1/cmath ****                                     double>::__type
 295:/usr/include/newlib/c++/6.3.1/cmath ****     floor(_Tp __x)
 296:/usr/include/newlib/c++/6.3.1/cmath ****     { return __builtin_floor(__x); }
 297:/usr/include/newlib/c++/6.3.1/cmath **** 
 298:/usr/include/newlib/c++/6.3.1/cmath ****   using ::fmod;
 299:/usr/include/newlib/c++/6.3.1/cmath **** 
 300:/usr/include/newlib/c++/6.3.1/cmath **** #ifndef __CORRECT_ISO_CPP_MATH_H_PROTO
 301:/usr/include/newlib/c++/6.3.1/cmath ****   inline _GLIBCXX_CONSTEXPR float
 302:/usr/include/newlib/c++/6.3.1/cmath ****   fmod(float __x, float __y)
 303:/usr/include/newlib/c++/6.3.1/cmath ****   { return __builtin_fmodf(__x, __y); }
 304:/usr/include/newlib/c++/6.3.1/cmath **** 
 305:/usr/include/newlib/c++/6.3.1/cmath ****   inline _GLIBCXX_CONSTEXPR long double
 306:/usr/include/newlib/c++/6.3.1/cmath ****   fmod(long double __x, long double __y)
 307:/usr/include/newlib/c++/6.3.1/cmath ****   { return __builtin_fmodl(__x, __y); }
 308:/usr/include/newlib/c++/6.3.1/cmath **** #endif
 309:/usr/include/newlib/c++/6.3.1/cmath **** 
 310:/usr/include/newlib/c++/6.3.1/cmath ****   template<typename _Tp, typename _Up>
 311:/usr/include/newlib/c++/6.3.1/cmath ****     inline _GLIBCXX_CONSTEXPR
 312:/usr/include/newlib/c++/6.3.1/cmath ****     typename __gnu_cxx::__promote_2<_Tp, _Up>::__type
 313:/usr/include/newlib/c++/6.3.1/cmath ****     fmod(_Tp __x, _Up __y)
 314:/usr/include/newlib/c++/6.3.1/cmath ****     {
 315:/usr/include/newlib/c++/6.3.1/cmath ****       typedef typename __gnu_cxx::__promote_2<_Tp, _Up>::__type __type;
 316:/usr/include/newlib/c++/6.3.1/cmath ****       return fmod(__type(__x), __type(__y));
 317:/usr/include/newlib/c++/6.3.1/cmath ****     }
 318:/usr/include/newlib/c++/6.3.1/cmath **** 
 319:/usr/include/newlib/c++/6.3.1/cmath ****   using ::frexp;
 320:/usr/include/newlib/c++/6.3.1/cmath **** 
 321:/usr/include/newlib/c++/6.3.1/cmath **** #ifndef __CORRECT_ISO_CPP_MATH_H_PROTO
 322:/usr/include/newlib/c++/6.3.1/cmath ****   inline float
 323:/usr/include/newlib/c++/6.3.1/cmath ****   frexp(float __x, int* __exp)
 324:/usr/include/newlib/c++/6.3.1/cmath ****   { return __builtin_frexpf(__x, __exp); }
 325:/usr/include/newlib/c++/6.3.1/cmath **** 
 326:/usr/include/newlib/c++/6.3.1/cmath ****   inline long double
 327:/usr/include/newlib/c++/6.3.1/cmath ****   frexp(long double __x, int* __exp)
 328:/usr/include/newlib/c++/6.3.1/cmath ****   { return __builtin_frexpl(__x, __exp); }
 329:/usr/include/newlib/c++/6.3.1/cmath **** #endif
 330:/usr/include/newlib/c++/6.3.1/cmath **** 
 331:/usr/include/newlib/c++/6.3.1/cmath ****   template<typename _Tp>
 332:/usr/include/newlib/c++/6.3.1/cmath ****     inline _GLIBCXX_CONSTEXPR
 333:/usr/include/newlib/c++/6.3.1/cmath ****     typename __gnu_cxx::__enable_if<__is_integer<_Tp>::__value, 
 334:/usr/include/newlib/c++/6.3.1/cmath ****                                     double>::__type
 335:/usr/include/newlib/c++/6.3.1/cmath ****     frexp(_Tp __x, int* __exp)
 336:/usr/include/newlib/c++/6.3.1/cmath ****     { return __builtin_frexp(__x, __exp); }
 337:/usr/include/newlib/c++/6.3.1/cmath **** 
 338:/usr/include/newlib/c++/6.3.1/cmath ****   using ::ldexp;
 339:/usr/include/newlib/c++/6.3.1/cmath **** 
 340:/usr/include/newlib/c++/6.3.1/cmath **** #ifndef __CORRECT_ISO_CPP_MATH_H_PROTO
 341:/usr/include/newlib/c++/6.3.1/cmath ****   inline _GLIBCXX_CONSTEXPR float
 342:/usr/include/newlib/c++/6.3.1/cmath ****   ldexp(float __x, int __exp)
 343:/usr/include/newlib/c++/6.3.1/cmath ****   { return __builtin_ldexpf(__x, __exp); }
 344:/usr/include/newlib/c++/6.3.1/cmath **** 
 345:/usr/include/newlib/c++/6.3.1/cmath ****   inline _GLIBCXX_CONSTEXPR long double
 346:/usr/include/newlib/c++/6.3.1/cmath ****   ldexp(long double __x, int __exp)
 347:/usr/include/newlib/c++/6.3.1/cmath ****   { return __builtin_ldexpl(__x, __exp); }
 348:/usr/include/newlib/c++/6.3.1/cmath **** #endif
ARM GAS  /tmp/ccZzmomm.s 			page 37


 349:/usr/include/newlib/c++/6.3.1/cmath **** 
 350:/usr/include/newlib/c++/6.3.1/cmath ****   template<typename _Tp>
 351:/usr/include/newlib/c++/6.3.1/cmath ****     inline _GLIBCXX_CONSTEXPR
 352:/usr/include/newlib/c++/6.3.1/cmath ****     typename __gnu_cxx::__enable_if<__is_integer<_Tp>::__value, 
 353:/usr/include/newlib/c++/6.3.1/cmath ****                                     double>::__type
 354:/usr/include/newlib/c++/6.3.1/cmath ****     ldexp(_Tp __x, int __exp)
 355:/usr/include/newlib/c++/6.3.1/cmath ****     { return __builtin_ldexp(__x, __exp); }
 356:/usr/include/newlib/c++/6.3.1/cmath **** 
 357:/usr/include/newlib/c++/6.3.1/cmath ****   using ::log;
 358:/usr/include/newlib/c++/6.3.1/cmath **** 
 359:/usr/include/newlib/c++/6.3.1/cmath **** #ifndef __CORRECT_ISO_CPP_MATH_H_PROTO
 360:/usr/include/newlib/c++/6.3.1/cmath ****   inline _GLIBCXX_CONSTEXPR float
 361:/usr/include/newlib/c++/6.3.1/cmath ****   log(float __x)
 362:/usr/include/newlib/c++/6.3.1/cmath ****   { return __builtin_logf(__x); }
 363:/usr/include/newlib/c++/6.3.1/cmath **** 
 364:/usr/include/newlib/c++/6.3.1/cmath ****   inline _GLIBCXX_CONSTEXPR long double
 365:/usr/include/newlib/c++/6.3.1/cmath ****   log(long double __x)
 366:/usr/include/newlib/c++/6.3.1/cmath ****   { return __builtin_logl(__x); }
 367:/usr/include/newlib/c++/6.3.1/cmath **** #endif
 368:/usr/include/newlib/c++/6.3.1/cmath **** 
 369:/usr/include/newlib/c++/6.3.1/cmath ****   template<typename _Tp>
 370:/usr/include/newlib/c++/6.3.1/cmath ****     inline _GLIBCXX_CONSTEXPR
 371:/usr/include/newlib/c++/6.3.1/cmath ****     typename __gnu_cxx::__enable_if<__is_integer<_Tp>::__value, 
 372:/usr/include/newlib/c++/6.3.1/cmath ****                                     double>::__type
 373:/usr/include/newlib/c++/6.3.1/cmath ****     log(_Tp __x)
 374:/usr/include/newlib/c++/6.3.1/cmath ****     { return __builtin_log(__x); }
 375:/usr/include/newlib/c++/6.3.1/cmath **** 
 376:/usr/include/newlib/c++/6.3.1/cmath ****   using ::log10;
 377:/usr/include/newlib/c++/6.3.1/cmath **** 
 378:/usr/include/newlib/c++/6.3.1/cmath **** #ifndef __CORRECT_ISO_CPP_MATH_H_PROTO
 379:/usr/include/newlib/c++/6.3.1/cmath ****   inline _GLIBCXX_CONSTEXPR float
 380:/usr/include/newlib/c++/6.3.1/cmath ****   log10(float __x)
 381:/usr/include/newlib/c++/6.3.1/cmath ****   { return __builtin_log10f(__x); }
 382:/usr/include/newlib/c++/6.3.1/cmath **** 
 383:/usr/include/newlib/c++/6.3.1/cmath ****   inline _GLIBCXX_CONSTEXPR long double
 384:/usr/include/newlib/c++/6.3.1/cmath ****   log10(long double __x)
 385:/usr/include/newlib/c++/6.3.1/cmath ****   { return __builtin_log10l(__x); }
 386:/usr/include/newlib/c++/6.3.1/cmath **** #endif
 387:/usr/include/newlib/c++/6.3.1/cmath **** 
 388:/usr/include/newlib/c++/6.3.1/cmath ****   template<typename _Tp>
 389:/usr/include/newlib/c++/6.3.1/cmath ****     inline _GLIBCXX_CONSTEXPR
 390:/usr/include/newlib/c++/6.3.1/cmath ****     typename __gnu_cxx::__enable_if<__is_integer<_Tp>::__value,
 391:/usr/include/newlib/c++/6.3.1/cmath ****                                     double>::__type
 392:/usr/include/newlib/c++/6.3.1/cmath ****     log10(_Tp __x)
 393:/usr/include/newlib/c++/6.3.1/cmath ****     { return __builtin_log10(__x); }
 394:/usr/include/newlib/c++/6.3.1/cmath **** 
 395:/usr/include/newlib/c++/6.3.1/cmath ****   using ::modf;
 396:/usr/include/newlib/c++/6.3.1/cmath **** 
 397:/usr/include/newlib/c++/6.3.1/cmath **** #ifndef __CORRECT_ISO_CPP_MATH_H_PROTO
 398:/usr/include/newlib/c++/6.3.1/cmath ****   inline float
 399:/usr/include/newlib/c++/6.3.1/cmath ****   modf(float __x, float* __iptr)
 400:/usr/include/newlib/c++/6.3.1/cmath ****   { return __builtin_modff(__x, __iptr); }
 401:/usr/include/newlib/c++/6.3.1/cmath **** 
 402:/usr/include/newlib/c++/6.3.1/cmath ****   inline long double
 403:/usr/include/newlib/c++/6.3.1/cmath ****   modf(long double __x, long double* __iptr)
 404:/usr/include/newlib/c++/6.3.1/cmath ****   { return __builtin_modfl(__x, __iptr); }
 405:/usr/include/newlib/c++/6.3.1/cmath **** #endif
ARM GAS  /tmp/ccZzmomm.s 			page 38


 406:/usr/include/newlib/c++/6.3.1/cmath **** 
 407:/usr/include/newlib/c++/6.3.1/cmath ****   using ::pow;
 408:/usr/include/newlib/c++/6.3.1/cmath **** 
 409:/usr/include/newlib/c++/6.3.1/cmath **** #ifndef __CORRECT_ISO_CPP_MATH_H_PROTO
 410:/usr/include/newlib/c++/6.3.1/cmath ****   inline _GLIBCXX_CONSTEXPR float
 411:/usr/include/newlib/c++/6.3.1/cmath ****   pow(float __x, float __y)
 412:/usr/include/newlib/c++/6.3.1/cmath ****   { return __builtin_powf(__x, __y); }
 413:/usr/include/newlib/c++/6.3.1/cmath **** 
 414:/usr/include/newlib/c++/6.3.1/cmath ****   inline _GLIBCXX_CONSTEXPR long double
 415:/usr/include/newlib/c++/6.3.1/cmath ****   pow(long double __x, long double __y)
 416:/usr/include/newlib/c++/6.3.1/cmath ****   { return __builtin_powl(__x, __y); }
 417:/usr/include/newlib/c++/6.3.1/cmath **** 
 418:/usr/include/newlib/c++/6.3.1/cmath **** #if __cplusplus < 201103L
 419:/usr/include/newlib/c++/6.3.1/cmath ****   // _GLIBCXX_RESOLVE_LIB_DEFECTS
 420:/usr/include/newlib/c++/6.3.1/cmath ****   // DR 550. What should the return type of pow(float,int) be?
 421:/usr/include/newlib/c++/6.3.1/cmath ****   inline double
 422:/usr/include/newlib/c++/6.3.1/cmath ****   pow(double __x, int __i)
 423:/usr/include/newlib/c++/6.3.1/cmath ****   { return __builtin_powi(__x, __i); }
 424:/usr/include/newlib/c++/6.3.1/cmath **** 
 425:/usr/include/newlib/c++/6.3.1/cmath ****   inline float
 426:/usr/include/newlib/c++/6.3.1/cmath ****   pow(float __x, int __n)
 427:/usr/include/newlib/c++/6.3.1/cmath ****   { return __builtin_powif(__x, __n); }
 428:/usr/include/newlib/c++/6.3.1/cmath **** 
 429:/usr/include/newlib/c++/6.3.1/cmath ****   inline long double
 430:/usr/include/newlib/c++/6.3.1/cmath ****   pow(long double __x, int __n)
 431:/usr/include/newlib/c++/6.3.1/cmath ****   { return __builtin_powil(__x, __n); }
 432:/usr/include/newlib/c++/6.3.1/cmath **** #endif
 433:/usr/include/newlib/c++/6.3.1/cmath **** #endif
 434:/usr/include/newlib/c++/6.3.1/cmath **** 
 435:/usr/include/newlib/c++/6.3.1/cmath ****   template<typename _Tp, typename _Up>
 436:/usr/include/newlib/c++/6.3.1/cmath ****     inline _GLIBCXX_CONSTEXPR
 437:/usr/include/newlib/c++/6.3.1/cmath ****     typename __gnu_cxx::__promote_2<_Tp, _Up>::__type
 438:/usr/include/newlib/c++/6.3.1/cmath ****     pow(_Tp __x, _Up __y)
 439:/usr/include/newlib/c++/6.3.1/cmath ****     {
 440:/usr/include/newlib/c++/6.3.1/cmath ****       typedef typename __gnu_cxx::__promote_2<_Tp, _Up>::__type __type;
 441:/usr/include/newlib/c++/6.3.1/cmath ****       return pow(__type(__x), __type(__y));
 442:/usr/include/newlib/c++/6.3.1/cmath ****     }
 443:/usr/include/newlib/c++/6.3.1/cmath **** 
 444:/usr/include/newlib/c++/6.3.1/cmath ****   using ::sin;
 445:/usr/include/newlib/c++/6.3.1/cmath **** 
 446:/usr/include/newlib/c++/6.3.1/cmath **** #ifndef __CORRECT_ISO_CPP_MATH_H_PROTO
 447:/usr/include/newlib/c++/6.3.1/cmath ****   inline _GLIBCXX_CONSTEXPR float
 448:/usr/include/newlib/c++/6.3.1/cmath ****   sin(float __x)
 449:/usr/include/newlib/c++/6.3.1/cmath ****   { return __builtin_sinf(__x); }
 450:/usr/include/newlib/c++/6.3.1/cmath **** 
 451:/usr/include/newlib/c++/6.3.1/cmath ****   inline _GLIBCXX_CONSTEXPR long double
 452:/usr/include/newlib/c++/6.3.1/cmath ****   sin(long double __x)
 453:/usr/include/newlib/c++/6.3.1/cmath ****   { return __builtin_sinl(__x); }
 454:/usr/include/newlib/c++/6.3.1/cmath **** #endif
 455:/usr/include/newlib/c++/6.3.1/cmath **** 
 456:/usr/include/newlib/c++/6.3.1/cmath ****   template<typename _Tp>
 457:/usr/include/newlib/c++/6.3.1/cmath ****     inline _GLIBCXX_CONSTEXPR
 458:/usr/include/newlib/c++/6.3.1/cmath ****     typename __gnu_cxx::__enable_if<__is_integer<_Tp>::__value, 
 459:/usr/include/newlib/c++/6.3.1/cmath ****                                     double>::__type
 460:/usr/include/newlib/c++/6.3.1/cmath ****     sin(_Tp __x)
 461:/usr/include/newlib/c++/6.3.1/cmath ****     { return __builtin_sin(__x); }
 462:/usr/include/newlib/c++/6.3.1/cmath **** 
ARM GAS  /tmp/ccZzmomm.s 			page 39


 463:/usr/include/newlib/c++/6.3.1/cmath ****   using ::sinh;
 464:/usr/include/newlib/c++/6.3.1/cmath **** 
 465:/usr/include/newlib/c++/6.3.1/cmath **** #ifndef __CORRECT_ISO_CPP_MATH_H_PROTO
 466:/usr/include/newlib/c++/6.3.1/cmath ****   inline _GLIBCXX_CONSTEXPR float
 467:/usr/include/newlib/c++/6.3.1/cmath ****   sinh(float __x)
 468:/usr/include/newlib/c++/6.3.1/cmath ****   { return __builtin_sinhf(__x); }
 469:/usr/include/newlib/c++/6.3.1/cmath **** 
 470:/usr/include/newlib/c++/6.3.1/cmath ****   inline _GLIBCXX_CONSTEXPR long double
 471:/usr/include/newlib/c++/6.3.1/cmath ****   sinh(long double __x)
 472:/usr/include/newlib/c++/6.3.1/cmath ****   { return __builtin_sinhl(__x); }
 473:/usr/include/newlib/c++/6.3.1/cmath **** #endif
 474:/usr/include/newlib/c++/6.3.1/cmath **** 
 475:/usr/include/newlib/c++/6.3.1/cmath ****   template<typename _Tp>
 476:/usr/include/newlib/c++/6.3.1/cmath ****     inline _GLIBCXX_CONSTEXPR
 477:/usr/include/newlib/c++/6.3.1/cmath ****     typename __gnu_cxx::__enable_if<__is_integer<_Tp>::__value, 
 478:/usr/include/newlib/c++/6.3.1/cmath ****                                     double>::__type
 479:/usr/include/newlib/c++/6.3.1/cmath ****     sinh(_Tp __x)
 480:/usr/include/newlib/c++/6.3.1/cmath ****     { return __builtin_sinh(__x); }
 481:/usr/include/newlib/c++/6.3.1/cmath **** 
 482:/usr/include/newlib/c++/6.3.1/cmath ****   using ::sqrt;
 483:/usr/include/newlib/c++/6.3.1/cmath **** 
 484:/usr/include/newlib/c++/6.3.1/cmath **** #ifndef __CORRECT_ISO_CPP_MATH_H_PROTO
 485:/usr/include/newlib/c++/6.3.1/cmath ****   inline _GLIBCXX_CONSTEXPR float
 486:/usr/include/newlib/c++/6.3.1/cmath ****   sqrt(float __x)
 487:/usr/include/newlib/c++/6.3.1/cmath ****   { return __builtin_sqrtf(__x); }
 488:/usr/include/newlib/c++/6.3.1/cmath **** 
 489:/usr/include/newlib/c++/6.3.1/cmath ****   inline _GLIBCXX_CONSTEXPR long double
 490:/usr/include/newlib/c++/6.3.1/cmath ****   sqrt(long double __x)
 491:/usr/include/newlib/c++/6.3.1/cmath ****   { return __builtin_sqrtl(__x); }
 492:/usr/include/newlib/c++/6.3.1/cmath **** #endif
 493:/usr/include/newlib/c++/6.3.1/cmath **** 
 494:/usr/include/newlib/c++/6.3.1/cmath ****   template<typename _Tp>
 495:/usr/include/newlib/c++/6.3.1/cmath ****     inline _GLIBCXX_CONSTEXPR
 496:/usr/include/newlib/c++/6.3.1/cmath ****     typename __gnu_cxx::__enable_if<__is_integer<_Tp>::__value, 
 497:/usr/include/newlib/c++/6.3.1/cmath ****                                     double>::__type
 498:/usr/include/newlib/c++/6.3.1/cmath ****     sqrt(_Tp __x)
 499:/usr/include/newlib/c++/6.3.1/cmath ****     { return __builtin_sqrt(__x); }
 500:/usr/include/newlib/c++/6.3.1/cmath **** 
 501:/usr/include/newlib/c++/6.3.1/cmath ****   using ::tan;
 502:/usr/include/newlib/c++/6.3.1/cmath **** 
 503:/usr/include/newlib/c++/6.3.1/cmath **** #ifndef __CORRECT_ISO_CPP_MATH_H_PROTO
 504:/usr/include/newlib/c++/6.3.1/cmath ****   inline _GLIBCXX_CONSTEXPR float
 505:/usr/include/newlib/c++/6.3.1/cmath ****   tan(float __x)
 506:/usr/include/newlib/c++/6.3.1/cmath ****   { return __builtin_tanf(__x); }
 507:/usr/include/newlib/c++/6.3.1/cmath **** 
 508:/usr/include/newlib/c++/6.3.1/cmath ****   inline _GLIBCXX_CONSTEXPR long double
 509:/usr/include/newlib/c++/6.3.1/cmath ****   tan(long double __x)
 510:/usr/include/newlib/c++/6.3.1/cmath ****   { return __builtin_tanl(__x); }
 511:/usr/include/newlib/c++/6.3.1/cmath **** #endif
 512:/usr/include/newlib/c++/6.3.1/cmath **** 
 513:/usr/include/newlib/c++/6.3.1/cmath ****   template<typename _Tp>
 514:/usr/include/newlib/c++/6.3.1/cmath ****     inline _GLIBCXX_CONSTEXPR
 515:/usr/include/newlib/c++/6.3.1/cmath ****     typename __gnu_cxx::__enable_if<__is_integer<_Tp>::__value, 
 516:/usr/include/newlib/c++/6.3.1/cmath ****                                     double>::__type
 517:/usr/include/newlib/c++/6.3.1/cmath ****     tan(_Tp __x)
 518:/usr/include/newlib/c++/6.3.1/cmath ****     { return __builtin_tan(__x); }
 519:/usr/include/newlib/c++/6.3.1/cmath **** 
ARM GAS  /tmp/ccZzmomm.s 			page 40


 520:/usr/include/newlib/c++/6.3.1/cmath ****   using ::tanh;
 521:/usr/include/newlib/c++/6.3.1/cmath **** 
 522:/usr/include/newlib/c++/6.3.1/cmath **** #ifndef __CORRECT_ISO_CPP_MATH_H_PROTO
 523:/usr/include/newlib/c++/6.3.1/cmath ****   inline _GLIBCXX_CONSTEXPR float
 524:/usr/include/newlib/c++/6.3.1/cmath ****   tanh(float __x)
 525:/usr/include/newlib/c++/6.3.1/cmath ****   { return __builtin_tanhf(__x); }
 526:/usr/include/newlib/c++/6.3.1/cmath **** 
 527:/usr/include/newlib/c++/6.3.1/cmath ****   inline _GLIBCXX_CONSTEXPR long double
 528:/usr/include/newlib/c++/6.3.1/cmath ****   tanh(long double __x)
 529:/usr/include/newlib/c++/6.3.1/cmath ****   { return __builtin_tanhl(__x); }
 530:/usr/include/newlib/c++/6.3.1/cmath **** #endif
 531:/usr/include/newlib/c++/6.3.1/cmath **** 
 532:/usr/include/newlib/c++/6.3.1/cmath ****   template<typename _Tp>
 533:/usr/include/newlib/c++/6.3.1/cmath ****     inline _GLIBCXX_CONSTEXPR
 534:/usr/include/newlib/c++/6.3.1/cmath ****     typename __gnu_cxx::__enable_if<__is_integer<_Tp>::__value, 
 535:/usr/include/newlib/c++/6.3.1/cmath ****                                     double>::__type
 536:/usr/include/newlib/c++/6.3.1/cmath ****     tanh(_Tp __x)
 537:/usr/include/newlib/c++/6.3.1/cmath ****     { return __builtin_tanh(__x); }
 538:/usr/include/newlib/c++/6.3.1/cmath **** 
 539:/usr/include/newlib/c++/6.3.1/cmath **** _GLIBCXX_END_NAMESPACE_VERSION
 540:/usr/include/newlib/c++/6.3.1/cmath **** } // namespace
 541:/usr/include/newlib/c++/6.3.1/cmath **** 
 542:/usr/include/newlib/c++/6.3.1/cmath **** #if _GLIBCXX_USE_C99_MATH
 543:/usr/include/newlib/c++/6.3.1/cmath **** #if !_GLIBCXX_USE_C99_FP_MACROS_DYNAMIC
 544:/usr/include/newlib/c++/6.3.1/cmath **** 
 545:/usr/include/newlib/c++/6.3.1/cmath **** // These are possible macros imported from C99-land.
 546:/usr/include/newlib/c++/6.3.1/cmath **** #undef fpclassify
 547:/usr/include/newlib/c++/6.3.1/cmath **** #undef isfinite
 548:/usr/include/newlib/c++/6.3.1/cmath **** #undef isinf
 549:/usr/include/newlib/c++/6.3.1/cmath **** #undef isnan
 550:/usr/include/newlib/c++/6.3.1/cmath **** #undef isnormal
 551:/usr/include/newlib/c++/6.3.1/cmath **** #undef signbit
 552:/usr/include/newlib/c++/6.3.1/cmath **** #undef isgreater
 553:/usr/include/newlib/c++/6.3.1/cmath **** #undef isgreaterequal
 554:/usr/include/newlib/c++/6.3.1/cmath **** #undef isless
 555:/usr/include/newlib/c++/6.3.1/cmath **** #undef islessequal
 556:/usr/include/newlib/c++/6.3.1/cmath **** #undef islessgreater
 557:/usr/include/newlib/c++/6.3.1/cmath **** #undef isunordered
 558:/usr/include/newlib/c++/6.3.1/cmath **** 
 559:/usr/include/newlib/c++/6.3.1/cmath **** namespace std _GLIBCXX_VISIBILITY(default)
 560:/usr/include/newlib/c++/6.3.1/cmath **** {
 561:/usr/include/newlib/c++/6.3.1/cmath **** _GLIBCXX_BEGIN_NAMESPACE_VERSION
 562:/usr/include/newlib/c++/6.3.1/cmath **** 
 563:/usr/include/newlib/c++/6.3.1/cmath **** #if __cplusplus >= 201103L
 564:/usr/include/newlib/c++/6.3.1/cmath **** 
 565:/usr/include/newlib/c++/6.3.1/cmath **** #ifndef __CORRECT_ISO_CPP11_MATH_H_PROTO_FP
 566:/usr/include/newlib/c++/6.3.1/cmath ****   constexpr int
 567:/usr/include/newlib/c++/6.3.1/cmath ****   fpclassify(float __x)
 568:/usr/include/newlib/c++/6.3.1/cmath ****   { return __builtin_fpclassify(FP_NAN, FP_INFINITE, FP_NORMAL,
 569:/usr/include/newlib/c++/6.3.1/cmath **** 				FP_SUBNORMAL, FP_ZERO, __x); }
 570:/usr/include/newlib/c++/6.3.1/cmath **** 
 571:/usr/include/newlib/c++/6.3.1/cmath ****   constexpr int
 572:/usr/include/newlib/c++/6.3.1/cmath ****   fpclassify(double __x)
 573:/usr/include/newlib/c++/6.3.1/cmath ****   { return __builtin_fpclassify(FP_NAN, FP_INFINITE, FP_NORMAL,
 574:/usr/include/newlib/c++/6.3.1/cmath **** 				FP_SUBNORMAL, FP_ZERO, __x); }
 575:/usr/include/newlib/c++/6.3.1/cmath **** 
 576:/usr/include/newlib/c++/6.3.1/cmath ****   constexpr int
ARM GAS  /tmp/ccZzmomm.s 			page 41


 577:/usr/include/newlib/c++/6.3.1/cmath ****   fpclassify(long double __x)
 578:/usr/include/newlib/c++/6.3.1/cmath ****   { return __builtin_fpclassify(FP_NAN, FP_INFINITE, FP_NORMAL,
 579:/usr/include/newlib/c++/6.3.1/cmath **** 				FP_SUBNORMAL, FP_ZERO, __x); }
 580:/usr/include/newlib/c++/6.3.1/cmath **** #endif
 581:/usr/include/newlib/c++/6.3.1/cmath **** 
 582:/usr/include/newlib/c++/6.3.1/cmath **** #ifndef __CORRECT_ISO_CPP11_MATH_H_PROTO_INT
 583:/usr/include/newlib/c++/6.3.1/cmath ****   template<typename _Tp>
 584:/usr/include/newlib/c++/6.3.1/cmath ****     constexpr typename __gnu_cxx::__enable_if<__is_integer<_Tp>::__value,
 585:/usr/include/newlib/c++/6.3.1/cmath ****                                               int>::__type
 586:/usr/include/newlib/c++/6.3.1/cmath ****     fpclassify(_Tp __x)
 587:/usr/include/newlib/c++/6.3.1/cmath ****     { return __x != 0 ? FP_NORMAL : FP_ZERO; }
 588:/usr/include/newlib/c++/6.3.1/cmath **** #endif
 589:/usr/include/newlib/c++/6.3.1/cmath **** 
 590:/usr/include/newlib/c++/6.3.1/cmath **** #ifndef __CORRECT_ISO_CPP11_MATH_H_PROTO_FP
 591:/usr/include/newlib/c++/6.3.1/cmath ****   constexpr bool
 592:/usr/include/newlib/c++/6.3.1/cmath ****   isfinite(float __x)
 593:/usr/include/newlib/c++/6.3.1/cmath ****   { return __builtin_isfinite(__x); }
 594:/usr/include/newlib/c++/6.3.1/cmath **** 
 595:/usr/include/newlib/c++/6.3.1/cmath ****   constexpr bool
 596:/usr/include/newlib/c++/6.3.1/cmath ****   isfinite(double __x)
 597:/usr/include/newlib/c++/6.3.1/cmath ****   { return __builtin_isfinite(__x); }
 598:/usr/include/newlib/c++/6.3.1/cmath **** 
 599:/usr/include/newlib/c++/6.3.1/cmath ****   constexpr bool
 600:/usr/include/newlib/c++/6.3.1/cmath ****   isfinite(long double __x)
 601:/usr/include/newlib/c++/6.3.1/cmath ****   { return __builtin_isfinite(__x); }
 602:/usr/include/newlib/c++/6.3.1/cmath **** #endif
 603:/usr/include/newlib/c++/6.3.1/cmath **** 
 604:/usr/include/newlib/c++/6.3.1/cmath **** #ifndef __CORRECT_ISO_CPP11_MATH_H_PROTO_INT
 605:/usr/include/newlib/c++/6.3.1/cmath ****   template<typename _Tp>
 606:/usr/include/newlib/c++/6.3.1/cmath ****     constexpr typename __gnu_cxx::__enable_if<__is_integer<_Tp>::__value,
 607:/usr/include/newlib/c++/6.3.1/cmath ****                                               bool>::__type
 608:/usr/include/newlib/c++/6.3.1/cmath ****     isfinite(_Tp __x)
 609:/usr/include/newlib/c++/6.3.1/cmath ****     { return true; }
 610:/usr/include/newlib/c++/6.3.1/cmath **** #endif
 611:/usr/include/newlib/c++/6.3.1/cmath **** 
 612:/usr/include/newlib/c++/6.3.1/cmath **** #ifndef __CORRECT_ISO_CPP11_MATH_H_PROTO_FP
 613:/usr/include/newlib/c++/6.3.1/cmath ****   constexpr bool
 614:/usr/include/newlib/c++/6.3.1/cmath ****   isinf(float __x)
 615:/usr/include/newlib/c++/6.3.1/cmath ****   { return __builtin_isinf(__x); }
 616:/usr/include/newlib/c++/6.3.1/cmath **** 
 617:/usr/include/newlib/c++/6.3.1/cmath **** #if _GLIBCXX_HAVE_OBSOLETE_ISINF \
 618:/usr/include/newlib/c++/6.3.1/cmath ****   && !_GLIBCXX_NO_OBSOLETE_ISINF_ISNAN_DYNAMIC
 619:/usr/include/newlib/c++/6.3.1/cmath ****   using ::isinf;
 620:/usr/include/newlib/c++/6.3.1/cmath **** #else
 621:/usr/include/newlib/c++/6.3.1/cmath ****   constexpr bool
 622:/usr/include/newlib/c++/6.3.1/cmath ****   isinf(double __x)
 623:/usr/include/newlib/c++/6.3.1/cmath ****   { return __builtin_isinf(__x); }
 624:/usr/include/newlib/c++/6.3.1/cmath **** #endif
 625:/usr/include/newlib/c++/6.3.1/cmath **** 
 626:/usr/include/newlib/c++/6.3.1/cmath ****   constexpr bool
 627:/usr/include/newlib/c++/6.3.1/cmath ****   isinf(long double __x)
 628:/usr/include/newlib/c++/6.3.1/cmath ****   { return __builtin_isinf(__x); }
 629:/usr/include/newlib/c++/6.3.1/cmath **** #endif
 630:/usr/include/newlib/c++/6.3.1/cmath **** 
 631:/usr/include/newlib/c++/6.3.1/cmath **** #ifndef __CORRECT_ISO_CPP11_MATH_H_PROTO_INT
 632:/usr/include/newlib/c++/6.3.1/cmath ****   template<typename _Tp>
 633:/usr/include/newlib/c++/6.3.1/cmath ****     constexpr typename __gnu_cxx::__enable_if<__is_integer<_Tp>::__value,
ARM GAS  /tmp/ccZzmomm.s 			page 42


 634:/usr/include/newlib/c++/6.3.1/cmath ****                                               bool>::__type
 635:/usr/include/newlib/c++/6.3.1/cmath ****     isinf(_Tp __x)
 636:/usr/include/newlib/c++/6.3.1/cmath ****     { return false; }
 637:/usr/include/newlib/c++/6.3.1/cmath **** #endif
 638:/usr/include/newlib/c++/6.3.1/cmath **** 
 639:/usr/include/newlib/c++/6.3.1/cmath **** #ifndef __CORRECT_ISO_CPP11_MATH_H_PROTO_FP
 640:/usr/include/newlib/c++/6.3.1/cmath ****   constexpr bool
 641:/usr/include/newlib/c++/6.3.1/cmath ****   isnan(float __x)
 642:/usr/include/newlib/c++/6.3.1/cmath ****   { return __builtin_isnan(__x); }
 643:/usr/include/newlib/c++/6.3.1/cmath **** 
 644:/usr/include/newlib/c++/6.3.1/cmath **** #if _GLIBCXX_HAVE_OBSOLETE_ISNAN \
 645:/usr/include/newlib/c++/6.3.1/cmath ****   && !_GLIBCXX_NO_OBSOLETE_ISINF_ISNAN_DYNAMIC
 646:/usr/include/newlib/c++/6.3.1/cmath ****   using ::isnan;
 647:/usr/include/newlib/c++/6.3.1/cmath **** #else
 648:/usr/include/newlib/c++/6.3.1/cmath ****   constexpr bool
 649:/usr/include/newlib/c++/6.3.1/cmath ****   isnan(double __x)
 650:/usr/include/newlib/c++/6.3.1/cmath ****   { return __builtin_isnan(__x); }
 1367              		.loc 3 650 0
 1368 0000 B4EE400B 		vcmp.f64	d0, d0
 1369              	.LBE373:
 1370              	.LBE372:
 1371              		.loc 1 191 0
 1372 0004 70B5     		push	{r4, r5, r6, lr}
 1373              		.cfi_def_cfa_offset 16
 1374              		.cfi_offset 4, -16
 1375              		.cfi_offset 5, -12
 1376              		.cfi_offset 6, -8
 1377              		.cfi_offset 14, -4
 1378              	.LBB376:
 1379              	.LBB374:
 1380              		.loc 3 650 0
 1381 0006 F1EE10FA 		vmrs	APSR_nzcv, FPSCR
 1382              	.LBE374:
 1383              	.LBE376:
 1384              		.loc 1 191 0
 1385 000a 0646     		mov	r6, r0
 1386 000c 2DED068B 		vpush.64	{d8, d9, d10}
 1387              		.cfi_def_cfa_offset 40
 1388              		.cfi_offset 80, -40
 1389              		.cfi_offset 81, -36
 1390              		.cfi_offset 82, -32
 1391              		.cfi_offset 83, -28
 1392              		.cfi_offset 84, -24
 1393              		.cfi_offset 85, -20
 1394 0010 84B0     		sub	sp, sp, #16
 1395              		.cfi_def_cfa_offset 56
 1396              	.LBB377:
 1397              	.LBB375:
 1398              		.loc 3 650 0
 1399 0012 64D6     		bvs	.L96
 1400              	.LVL135:
 1401              	.LBE375:
 1402              	.LBE377:
 1403              	.LBB378:
 1404              	.LBB379:
 623:/usr/include/newlib/c++/6.3.1/cmath **** #endif
 1405              		.loc 3 623 0
ARM GAS  /tmp/ccZzmomm.s 			page 43


 1406 0014 B0EEC07B 		vabs.f64	d7, d0
 1407              	.LBE379:
 1408              	.LBE378:
 192:../cores/arduino/Print.cpp ****   size_t n = 0;
 193:../cores/arduino/Print.cpp ****   
 194:../cores/arduino/Print.cpp ****   if (std::isnan(number)) return print("nan");
 195:../cores/arduino/Print.cpp ****   if (std::isinf(number)) return print("inf");
 1409              		.loc 1 195 0
 1410 0018 9FED436B 		vldr.64	d6, .L99
 1411 001c B4EE467B 		vcmp.f64	d7, d6
 1412 0020 F1EE10FA 		vmrs	APSR_nzcv, FPSCR
 1413 0024 5FDC     		bgt	.L97
 196:../cores/arduino/Print.cpp ****   if (number > (double)4294967040.0) return print ("ovf");  // constant determined empirically
 1414              		.loc 1 196 0
 1415 0026 9FED427B 		vldr.64	d7, .L99+8
 1416 002a B4EEC70B 		vcmpe.f64	d0, d7
 1417 002e F1EE10FA 		vmrs	APSR_nzcv, FPSCR
 1418 0032 4ADC     		bgt	.L92
 197:../cores/arduino/Print.cpp ****   if (number <-(double)4294967040.0) return print ("ovf");  // constant determined empirically
 1419              		.loc 1 197 0
 1420 0034 9FED407B 		vldr.64	d7, .L99+16
 1421 0038 B4EEC70B 		vcmpe.f64	d0, d7
 1422 003c F1EE10FA 		vmrs	APSR_nzcv, FPSCR
 1423 0040 43D4     		bmi	.L92
 1424              	.LBB380:
 1425              	.LBB381:
 198:../cores/arduino/Print.cpp ****   
 199:../cores/arduino/Print.cpp ****   // Handle negative numbers
 200:../cores/arduino/Print.cpp ****   if (number < (double)0.0)
 1426              		.loc 1 200 0
 1427 0042 B5EEC00B 		vcmpe.f64	d0, #0
 1428 0046 0C46     		mov	r4, r1
 1429              	.LVL136:
 1430 0048 F1EE10FA 		vmrs	APSR_nzcv, FPSCR
 1431 004c 4FD4     		bmi	.L98
 192:../cores/arduino/Print.cpp ****   
 1432              		.loc 1 192 0
 1433 004e 0025     		movs	r5, #0
 1434              	.LVL137:
 1435              	.L70:
 1436              	.LBB382:
 201:../cores/arduino/Print.cpp ****   {
 202:../cores/arduino/Print.cpp ****      n += print('-');
 203:../cores/arduino/Print.cpp ****      number = -number;
 204:../cores/arduino/Print.cpp ****   }
 205:../cores/arduino/Print.cpp **** 
 206:../cores/arduino/Print.cpp ****   // Round correctly so that print(1.999, 2) prints as "2.00"
 207:../cores/arduino/Print.cpp ****   double rounding = 0.5;
 208:../cores/arduino/Print.cpp ****   for (uint8_t i=0; i<digits; ++i)
 1437              		.loc 1 208 0
 1438 0050 002C     		cmp	r4, #0
 1439 0052 5AD0     		beq	.L78
 1440 0054 B6EE008B 		vmov.f64	d8, #5.0e-1
 1441 0058 0023     		movs	r3, #0
 209:../cores/arduino/Print.cpp ****   {
 210:../cores/arduino/Print.cpp ****     rounding /= (double)10.0;
 1442              		.loc 1 210 0
ARM GAS  /tmp/ccZzmomm.s 			page 44


 1443 005a B2EE047B 		vmov.f64	d7, #1.0e+1
 1444              	.LVL138:
 1445              	.L73:
 208:../cores/arduino/Print.cpp ****   {
 1446              		.loc 1 208 0
 1447 005e 0133     		adds	r3, r3, #1
 1448              	.LVL139:
 1449              		.loc 1 210 0
 1450 0060 88EE078B 		vdiv.f64	d8, d8, d7
 1451              	.LVL140:
 208:../cores/arduino/Print.cpp ****   {
 1452              		.loc 1 208 0
 1453 0064 DBB2     		uxtb	r3, r3
 1454              	.LVL141:
 1455 0066 9C42     		cmp	r4, r3
 1456 0068 F9DC     		bgt	.L73
 1457              	.LBE382:
 211:../cores/arduino/Print.cpp ****   }
 212:../cores/arduino/Print.cpp ****   
 213:../cores/arduino/Print.cpp ****   number += rounding;
 1458              		.loc 1 213 0
 1459 006a 38EE008B 		vadd.f64	d8, d8, d0
 1460              	.LVL142:
 1461              	.LBB383:
 1462              	.LBB384:
  86:../cores/arduino/Print.cpp **** }
 1463              		.loc 1 86 0
 1464 006e 0A22     		movs	r2, #10
 1465 0070 3046     		mov	r0, r6
 1466              	.LBE384:
 1467              	.LBE383:
 1468              	.LBB389:
 214:../cores/arduino/Print.cpp **** 
 215:../cores/arduino/Print.cpp ****   // Extract the integer part of the number and print it
 216:../cores/arduino/Print.cpp ****   unsigned long int_part = (unsigned long)number;
 217:../cores/arduino/Print.cpp ****   double remainder = number - (double)int_part;
 218:../cores/arduino/Print.cpp ****   n += print(int_part);
 219:../cores/arduino/Print.cpp **** 
 220:../cores/arduino/Print.cpp ****   // Print the decimal point, but only if there are digits beyond
 221:../cores/arduino/Print.cpp ****   if (digits > 0) {
 222:../cores/arduino/Print.cpp ****     n += print("."); 
 223:../cores/arduino/Print.cpp ****   }
 224:../cores/arduino/Print.cpp **** 
 225:../cores/arduino/Print.cpp ****   // Extract digits from the remainder one at a time
 226:../cores/arduino/Print.cpp ****   while (digits-- > 0)
 227:../cores/arduino/Print.cpp ****   {
 228:../cores/arduino/Print.cpp ****     remainder *= (double)10.0;
 1469              		.loc 1 228 0
 1470 0072 B2EE04AB 		vmov.f64	d10, #1.0e+1
 1471              	.LBE389:
 216:../cores/arduino/Print.cpp ****   double remainder = number - (double)int_part;
 1472              		.loc 1 216 0
 1473 0076 FCEEC87B 		vcvt.u32.f64	s15, d8
 1474              	.LVL143:
 217:../cores/arduino/Print.cpp ****   n += print(int_part);
 1475              		.loc 1 217 0
 1476 007a B8EE670B 		vcvt.f64.u32	d0, s15
ARM GAS  /tmp/ccZzmomm.s 			page 45


 1477              	.LBB394:
 1478              	.LBB385:
  86:../cores/arduino/Print.cpp **** }
 1479              		.loc 1 86 0
 1480 007e 17EE901A 		vmov	r1, s15	@ int
 1481              	.LBE385:
 1482              	.LBE394:
 217:../cores/arduino/Print.cpp ****   n += print(int_part);
 1483              		.loc 1 217 0
 1484 0082 38EE408B 		vsub.f64	d8, d8, d0
 1485              	.LVL144:
 1486              	.LBB395:
 1487              	.LBB386:
  86:../cores/arduino/Print.cpp **** }
 1488              		.loc 1 86 0
 1489 0086 FFF7FEFF 		bl	_ZN5Print11printNumberEmh
 1490              	.LVL145:
 1491              	.LBE386:
 1492              	.LBE395:
 1493              	.LBB396:
 1494              	.LBB397:
 1495              	.LBB398:
 1496              		.loc 2 54 0
 1497 008a 3368     		ldr	r3, [r6]
 1498              	.LBE398:
 1499              	.LBE397:
 1500              	.LBE396:
 218:../cores/arduino/Print.cpp **** 
 1501              		.loc 1 218 0
 1502 008c 0544     		add	r5, r5, r0
 1503              	.LVL146:
 1504              	.LBB401:
 1505              	.LBB400:
 1506              	.LBB399:
 1507              		.loc 2 54 0
 1508 008e 0122     		movs	r2, #1
 1509 0090 2B49     		ldr	r1, .L99+24
 1510 0092 DB68     		ldr	r3, [r3, #12]
 1511 0094 3046     		mov	r0, r6
 1512 0096 9847     		blx	r3
 1513              	.LVL147:
 1514              	.LBE399:
 1515              	.LBE400:
 1516              	.LBE401:
 222:../cores/arduino/Print.cpp ****   }
 1517              		.loc 1 222 0
 1518 0098 0544     		add	r5, r5, r0
 1519              	.LVL148:
 1520              	.L74:
 1521              	.LBB402:
 1522              		.loc 1 228 0
 1523 009a 28EE0A8B 		vmul.f64	d8, d8, d10
 1524              	.LVL149:
 1525              	.LBB390:
 1526              	.LBB391:
  59:../cores/arduino/Print.cpp **** }
 1527              		.loc 1 59 0
ARM GAS  /tmp/ccZzmomm.s 			page 46


 1528 009e 0A22     		movs	r2, #10
 1529 00a0 3046     		mov	r0, r6
 1530 00a2 013C     		subs	r4, r4, #1
 1531              	.LVL150:
 1532              	.LBE391:
 1533              	.LBE390:
 229:../cores/arduino/Print.cpp ****     int toPrint = int(remainder);
 1534              		.loc 1 229 0
 1535 00a4 BDEEC89B 		vcvt.s32.f64	s18, d8
 1536              	.LVL151:
 1537              	.LBB393:
 1538              	.LBB392:
  59:../cores/arduino/Print.cpp **** }
 1539              		.loc 1 59 0
 1540 00a8 19EE101A 		vmov	r1, s18	@ int
 1541 00ac FFF7FEFF 		bl	_ZN5Print5printEli
 1542              	.LVL152:
 1543              	.LBE392:
 1544              	.LBE393:
 230:../cores/arduino/Print.cpp ****     n += print(toPrint);
 231:../cores/arduino/Print.cpp ****     remainder -= toPrint; 
 1545              		.loc 1 231 0
 1546 00b0 B8EEC99B 		vcvt.f64.s32	d9, s18
 1547              	.LVL153:
 1548              	.LBE402:
 226:../cores/arduino/Print.cpp ****   {
 1549              		.loc 1 226 0
 1550 00b4 14F0FF04 		ands	r4, r4, #255
 1551              	.LBB403:
 230:../cores/arduino/Print.cpp ****     n += print(toPrint);
 1552              		.loc 1 230 0
 1553 00b8 0544     		add	r5, r5, r0
 1554              	.LVL154:
 1555              		.loc 1 231 0
 1556 00ba 38EE498B 		vsub.f64	d8, d8, d9
 1557              	.LVL155:
 1558              	.LBE403:
 226:../cores/arduino/Print.cpp ****   {
 1559              		.loc 1 226 0
 1560 00be ECD1     		bne	.L74
 1561              	.LVL156:
 1562              	.L63:
 1563              	.LBE381:
 1564              	.LBE380:
 232:../cores/arduino/Print.cpp ****   } 
 233:../cores/arduino/Print.cpp ****   
 234:../cores/arduino/Print.cpp ****   return n;
 235:../cores/arduino/Print.cpp **** }
 1565              		.loc 1 235 0
 1566 00c0 2846     		mov	r0, r5
 1567 00c2 04B0     		add	sp, sp, #16
 1568              		.cfi_remember_state
 1569              		.cfi_def_cfa_offset 40
 1570              		@ sp needed
 1571 00c4 BDEC068B 		vldm	sp!, {d8-d10}
 1572              		.cfi_restore 84
 1573              		.cfi_restore 85
ARM GAS  /tmp/ccZzmomm.s 			page 47


 1574              		.cfi_restore 82
 1575              		.cfi_restore 83
 1576              		.cfi_restore 80
 1577              		.cfi_restore 81
 1578              		.cfi_def_cfa_offset 16
 1579 00c8 70BD     		pop	{r4, r5, r6, pc}
 1580              	.LVL157:
 1581              	.L92:
 1582              		.cfi_restore_state
 1583              	.LBB411:
 1584              	.LBB412:
 1585              	.LBB413:
 1586              		.loc 2 54 0
 1587 00ca 3368     		ldr	r3, [r6]
 1588 00cc 0322     		movs	r2, #3
 1589 00ce 1D49     		ldr	r1, .L99+28
 1590              	.LVL158:
 1591              	.L91:
 1592              	.LBE413:
 1593              	.LBE412:
 1594              	.LBE411:
 1595              	.LBB414:
 1596              	.LBB415:
 1597              	.LBB416:
 1598 00d0 DB68     		ldr	r3, [r3, #12]
 1599              	.LBE416:
 1600              	.LBE415:
 1601              	.LBE414:
 1602              		.loc 1 235 0
 1603 00d2 04B0     		add	sp, sp, #16
 1604              		.cfi_remember_state
 1605              		.cfi_def_cfa_offset 40
 1606              		@ sp needed
 1607 00d4 BDEC068B 		vldm	sp!, {d8-d10}
 1608              		.cfi_restore 84
 1609              		.cfi_restore 85
 1610              		.cfi_restore 82
 1611              		.cfi_restore 83
 1612              		.cfi_restore 80
 1613              		.cfi_restore 81
 1614              		.cfi_def_cfa_offset 16
 1615 00d8 BDE87040 		pop	{r4, r5, r6, lr}
 1616              		.cfi_restore 14
 1617              		.cfi_restore 6
 1618              		.cfi_restore 5
 1619              		.cfi_restore 4
 1620              		.cfi_def_cfa_offset 0
 1621              	.LBB419:
 1622              	.LBB418:
 1623              	.LBB417:
 1624              		.loc 2 54 0
 1625 00dc 1847     		bx	r3
 1626              	.LVL159:
 1627              	.L96:
 1628              		.cfi_restore_state
 1629 00de 0368     		ldr	r3, [r0]
 1630 00e0 0322     		movs	r2, #3
ARM GAS  /tmp/ccZzmomm.s 			page 48


 1631 00e2 1949     		ldr	r1, .L99+32
 1632              	.LVL160:
 1633 00e4 F4E7     		b	.L91
 1634              	.LVL161:
 1635              	.L97:
 1636              	.LBE417:
 1637              	.LBE418:
 1638              	.LBE419:
 1639              	.LBB420:
 1640              	.LBB421:
 1641              	.LBB422:
 1642 00e6 3368     		ldr	r3, [r6]
 1643 00e8 0322     		movs	r2, #3
 1644 00ea 1849     		ldr	r1, .L99+36
 1645              	.LVL162:
 1646 00ec F0E7     		b	.L91
 1647              	.LVL163:
 1648              	.L98:
 1649              	.LBE422:
 1650              	.LBE421:
 1651              	.LBE420:
 1652              	.LBB423:
 1653              	.LBB410:
 203:../cores/arduino/Print.cpp ****   }
 1654              		.loc 1 203 0
 1655 00ee B1EE400B 		vneg.f64	d0, d0
 1656              	.LVL164:
 1657              	.LBB404:
 1658              	.LBB405:
  49:../cores/arduino/Print.cpp **** }
 1659              		.loc 1 49 0
 1660 00f2 3368     		ldr	r3, [r6]
 1661 00f4 2D21     		movs	r1, #45
 1662              	.LVL165:
 1663 00f6 9B68     		ldr	r3, [r3, #8]
 1664              	.LBE405:
 1665              	.LBE404:
 203:../cores/arduino/Print.cpp ****   }
 1666              		.loc 1 203 0
 1667 00f8 8DED000B 		vstr.64	d0, [sp]
 1668 00fc 8DED020B 		vstr.64	d0, [sp, #8]
 1669              	.LBB407:
 1670              	.LBB406:
  49:../cores/arduino/Print.cpp **** }
 1671              		.loc 1 49 0
 1672 0100 9847     		blx	r3
 1673              	.LVL166:
 1674 0102 0546     		mov	r5, r0
 1675              	.LVL167:
 1676 0104 9DED000B 		vldr.64	d0, [sp]
 1677 0108 A2E7     		b	.L70
 1678              	.LVL168:
 1679              	.L78:
 1680              	.LBE406:
 1681              	.LBE407:
 213:../cores/arduino/Print.cpp **** 
 1682              		.loc 1 213 0
ARM GAS  /tmp/ccZzmomm.s 			page 49


 1683 010a B6EE007B 		vmov.f64	d7, #5.0e-1
 1684              	.LBB408:
 1685              	.LBB387:
  86:../cores/arduino/Print.cpp **** }
 1686              		.loc 1 86 0
 1687 010e 3046     		mov	r0, r6
 1688 0110 0A22     		movs	r2, #10
 1689              	.LBE387:
 1690              	.LBE408:
 213:../cores/arduino/Print.cpp **** 
 1691              		.loc 1 213 0
 1692 0112 30EE070B 		vadd.f64	d0, d0, d7
 1693              	.LVL169:
 1694              	.LBB409:
 1695              	.LBB388:
  86:../cores/arduino/Print.cpp **** }
 1696              		.loc 1 86 0
 1697 0116 FCEEC07B 		vcvt.u32.f64	s15, d0
 1698 011a 17EE901A 		vmov	r1, s15	@ int
 1699 011e FFF7FEFF 		bl	_ZN5Print11printNumberEmh
 1700              	.LVL170:
 1701              	.LBE388:
 1702              	.LBE409:
 218:../cores/arduino/Print.cpp **** 
 1703              		.loc 1 218 0
 1704 0122 0544     		add	r5, r5, r0
 1705              	.LVL171:
 1706 0124 CCE7     		b	.L63
 1707              	.L100:
 1708 0126 00BF     		.align	3
 1709              	.L99:
 1710 0128 FFFFFFFF 		.word	4294967295
 1711 012c FFFFEF7F 		.word	2146435071
 1712 0130 000000E0 		.word	3758096384
 1713 0134 FFFFEF41 		.word	1106247679
 1714 0138 000000E0 		.word	3758096384
 1715 013c FFFFEFC1 		.word	-1041235969
 1716 0140 0C000000 		.word	.LC3
 1717 0144 04000000 		.word	.LC1
 1718 0148 08000000 		.word	.LC2
 1719 014c 00000000 		.word	.LC0
 1720              	.LBE410:
 1721              	.LBE423:
 1722              		.cfi_endproc
 1723              	.LFE546:
 1724              		.size	_ZN5Print10printFloatEdh, .-_ZN5Print10printFloatEdh
 1725              		.section	.text._ZN5Print5printEdi,"ax",%progbits
 1726              		.align	1
 1727              		.p2align 2,,3
 1728              		.global	_ZN5Print5printEdi
 1729              		.syntax unified
 1730              		.thumb
 1731              		.thumb_func
 1732              		.fpu fpv5-d16
 1733              		.type	_ZN5Print5printEdi, %function
 1734              	_ZN5Print5printEdi:
 1735              	.LFB533:
ARM GAS  /tmp/ccZzmomm.s 			page 50


  90:../cores/arduino/Print.cpp ****   return printFloat(n, digits);
 1736              		.loc 1 90 0
 1737              		.cfi_startproc
 1738              		@ args = 0, pretend = 0, frame = 0
 1739              		@ frame_needed = 0, uses_anonymous_args = 0
 1740              		@ link register save eliminated.
 1741              	.LVL172:
  91:../cores/arduino/Print.cpp **** }
 1742              		.loc 1 91 0
 1743 0000 C9B2     		uxtb	r1, r1
 1744              	.LVL173:
 1745 0002 FFF7FEBF 		b	_ZN5Print10printFloatEdh
 1746              	.LVL174:
 1747              		.cfi_endproc
 1748              	.LFE533:
 1749              		.size	_ZN5Print5printEdi, .-_ZN5Print5printEdi
 1750 0006 00BF     		.section	.text._ZN5Print7printlnEdi,"ax",%progbits
 1751              		.align	1
 1752              		.p2align 2,,3
 1753              		.global	_ZN5Print7printlnEdi
 1754              		.syntax unified
 1755              		.thumb
 1756              		.thumb_func
 1757              		.fpu fpv5-d16
 1758              		.type	_ZN5Print7printlnEdi, %function
 1759              	_ZN5Print7printlnEdi:
 1760              	.LFB543:
 156:../cores/arduino/Print.cpp ****   size_t n = print(num, digits);
 1761              		.loc 1 156 0
 1762              		.cfi_startproc
 1763              		@ args = 0, pretend = 0, frame = 0
 1764              		@ frame_needed = 0, uses_anonymous_args = 0
 1765              	.LVL175:
 1766 0000 70B5     		push	{r4, r5, r6, lr}
 1767              		.cfi_def_cfa_offset 16
 1768              		.cfi_offset 4, -16
 1769              		.cfi_offset 5, -12
 1770              		.cfi_offset 6, -8
 1771              		.cfi_offset 14, -4
 156:../cores/arduino/Print.cpp ****   size_t n = print(num, digits);
 1772              		.loc 1 156 0
 1773 0002 0446     		mov	r4, r0
 1774              	.LVL176:
 1775              	.LBB424:
 1776              	.LBB425:
  91:../cores/arduino/Print.cpp **** }
 1777              		.loc 1 91 0
 1778 0004 C9B2     		uxtb	r1, r1
 1779              	.LVL177:
 1780 0006 FFF7FEFF 		bl	_ZN5Print10printFloatEdh
 1781              	.LVL178:
 1782              	.LBE425:
 1783              	.LBE424:
 1784              	.LBB427:
 1785              	.LBB428:
 1786              	.LBB429:
 1787              	.LBB430:
ARM GAS  /tmp/ccZzmomm.s 			page 51


  49:../cores/arduino/Print.cpp **** }
 1788              		.loc 1 49 0
 1789 000a 0D21     		movs	r1, #13
 1790 000c 2368     		ldr	r3, [r4]
 1791              	.LBE430:
 1792              	.LBE429:
 1793              	.LBE428:
 1794              	.LBE427:
 1795              	.LBB439:
 1796              	.LBB426:
  91:../cores/arduino/Print.cpp **** }
 1797              		.loc 1 91 0
 1798 000e 0646     		mov	r6, r0
 1799              	.LVL179:
 1800              	.LBE426:
 1801              	.LBE439:
 1802              	.LBB440:
 1803              	.LBB437:
 1804              	.LBB432:
 1805              	.LBB431:
  49:../cores/arduino/Print.cpp **** }
 1806              		.loc 1 49 0
 1807 0010 2046     		mov	r0, r4
 1808 0012 9B68     		ldr	r3, [r3, #8]
 1809 0014 9847     		blx	r3
 1810              	.LVL180:
 1811 0016 0546     		mov	r5, r0
 1812              	.LVL181:
 1813              	.LBE431:
 1814              	.LBE432:
 1815              	.LBB433:
 1816              	.LBB434:
 1817 0018 2368     		ldr	r3, [r4]
 1818 001a 2046     		mov	r0, r4
 1819              	.LBE434:
 1820              	.LBE433:
 1821              	.LBE437:
 1822              	.LBE440:
 158:../cores/arduino/Print.cpp ****   return n;
 1823              		.loc 1 158 0
 1824 001c 3544     		add	r5, r5, r6
 1825              	.LBB441:
 1826              	.LBB438:
 1827              	.LBB436:
 1828              	.LBB435:
  49:../cores/arduino/Print.cpp **** }
 1829              		.loc 1 49 0
 1830 001e 0A21     		movs	r1, #10
 1831 0020 9B68     		ldr	r3, [r3, #8]
 1832 0022 9847     		blx	r3
 1833              	.LVL182:
 1834              	.LBE435:
 1835              	.LBE436:
 1836              	.LBE438:
 1837              	.LBE441:
 160:../cores/arduino/Print.cpp **** 
 1838              		.loc 1 160 0
ARM GAS  /tmp/ccZzmomm.s 			page 52


 1839 0024 2844     		add	r0, r0, r5
 1840 0026 70BD     		pop	{r4, r5, r6, pc}
 1841              		.cfi_endproc
 1842              	.LFE543:
 1843              		.size	_ZN5Print7printlnEdi, .-_ZN5Print7printlnEdi
 1844              		.global	_ZTV5Print
 1845              		.section	.bss._ZL28cpu_irq_prev_interrupt_state,"aw",%nobits
 1846              		.type	_ZL28cpu_irq_prev_interrupt_state, %object
 1847              		.size	_ZL28cpu_irq_prev_interrupt_state, 1
 1848              	_ZL28cpu_irq_prev_interrupt_state:
 1849 0000 00       		.space	1
 1850              		.section	.bss._ZL32cpu_irq_critical_section_counter,"aw",%nobits
 1851              		.align	2
 1852              		.type	_ZL32cpu_irq_critical_section_counter, %object
 1853              		.size	_ZL32cpu_irq_critical_section_counter, 4
 1854              	_ZL32cpu_irq_critical_section_counter:
 1855 0000 00000000 		.space	4
 1856              		.section	.rodata._ZN5Print10printFloatEdh.str1.4,"aMS",%progbits,1
 1857              		.align	2
 1858              	.LC0:
 1859 0000 696E6600 		.ascii	"inf\000"
 1860              	.LC1:
 1861 0004 6F766600 		.ascii	"ovf\000"
 1862              	.LC2:
 1863 0008 6E616E00 		.ascii	"nan\000"
 1864              	.LC3:
 1865 000c 2E00     		.ascii	".\000"
 1866              		.section	.rodata._ZTV5Print,"a",%progbits
 1867              		.align	2
 1868              		.type	_ZTV5Print, %object
 1869              		.size	_ZTV5Print, 24
 1870              	_ZTV5Print:
 1871 0000 00000000 		.word	0
 1872 0004 00000000 		.word	0
 1873 0008 00000000 		.word	0
 1874 000c 00000000 		.word	0
 1875 0010 00000000 		.word	__cxa_pure_virtual
 1876 0014 00000000 		.word	_ZN5Print5writeEPKhj
 1877              		.text
 1878              	.Letext0:
 1879              		.file 4 "/usr/include/newlib/c++/6.3.1/cstdlib"
 1880              		.file 5 "/usr/include/newlib/c++/6.3.1/bits/cpp_type_traits.h"
 1881              		.file 6 "/usr/include/newlib/c++/6.3.1/cstdint"
 1882              		.file 7 "/usr/include/newlib/c++/6.3.1/cstddef"
 1883              		.file 8 "/usr/include/newlib/c++/6.3.1/arm-none-eabi/thumb/v7e-m/fpv5/hard/bits/c++config.h"
 1884              		.file 9 "/usr/lib/gcc/arm-none-eabi/6.3.1/include/stddef.h"
 1885              		.file 10 "/usr/include/newlib/machine/_default_types.h"
 1886              		.file 11 "/usr/include/newlib/sys/lock.h"
 1887              		.file 12 "/usr/include/newlib/sys/_types.h"
 1888              		.file 13 "/usr/include/newlib/sys/reent.h"
 1889              		.file 14 "/usr/include/newlib/stdlib.h"
 1890              		.file 15 "/usr/include/newlib/c++/6.3.1/stdlib.h"
 1891              		.file 16 "/usr/include/newlib/sys/_stdint.h"
 1892              		.file 17 "/usr/include/newlib/math.h"
 1893              		.file 18 "/usr/include/newlib/c++/6.3.1/math.h"
 1894              		.file 19 "/usr/include/newlib/stdint.h"
 1895              		.file 20 "/home/torbjorn/eclipse-workspace/CoreNG/asf/thirdparty/CMSIS/Include/core_cm7.h"
ARM GAS  /tmp/ccZzmomm.s 			page 53


 1896              		.file 21 "/home/torbjorn/eclipse-workspace/CoreNG/variants/same70/system_same70.h"
 1897              		.file 22 "/home/torbjorn/eclipse-workspace/CoreNG/asf/sam/utils/cmsis/same70/include/component/pio
 1898              		.file 23 "/home/torbjorn/eclipse-workspace/CoreNG/asf/common/utils/interrupt/interrupt_sam_nvic.h"
 1899              		.file 24 "/home/torbjorn/eclipse-workspace/CoreNG/asf/sam/drivers/pio/pio.h"
 1900              		.file 25 "../cores/arduino/Core.h"
 1901              		.file 26 "/usr/include/newlib/ctype.h"
 1902              		.file 27 "/home/torbjorn/eclipse-workspace/CoreNG/cores/arduino/RingBuffer.h"
 1903              		.file 28 "/home/torbjorn/eclipse-workspace/CoreNG/cores/arduino/UARTClass.h"
 1904              		.file 29 "/usr/include/newlib/time.h"
 1905              		.file 30 "/home/torbjorn/eclipse-workspace/CoreNG/variants/same70/variant.h"
 1906              		.file 31 "../cores/arduino/USB/USBSerial.h"
 1907              		.file 32 "../cores/arduino/Printable.h"
 1908              		.file 33 "<built-in>"
 1909              		.file 34 "/usr/include/newlib/string.h"