ARM GAS  /tmp/ccmSFvTJ.s 			page 1


   1              		.cpu cortex-m7
   2              		.eabi_attribute 28, 1
   3              		.eabi_attribute 20, 1
   4              		.eabi_attribute 21, 1
   5              		.eabi_attribute 23, 3
   6              		.eabi_attribute 24, 1
   7              		.eabi_attribute 25, 1
   8              		.eabi_attribute 26, 1
   9              		.eabi_attribute 30, 2
  10              		.eabi_attribute 34, 1
  11              		.eabi_attribute 18, 4
  12              		.file	"pwm.c"
  13              		.text
  14              	.Ltext0:
  15              		.cfi_sections	.debug_frame
  16              		.section	.text.pwm_clocks_generate,"ax",%progbits
  17              		.align	1
  18              		.p2align 2,,3
  19              		.syntax unified
  20              		.thumb
  21              		.thumb_func
  22              		.fpu fpv5-d16
  23              		.type	pwm_clocks_generate, %function
  24              	pwm_clocks_generate:
  25              	.LFB142:
  26              		.file 1 "../asf/sam/drivers/pwm/pwm.c"
   1:../asf/sam/drivers/pwm/pwm.c **** /**
   2:../asf/sam/drivers/pwm/pwm.c ****  * \file
   3:../asf/sam/drivers/pwm/pwm.c ****  *
   4:../asf/sam/drivers/pwm/pwm.c ****  * \brief Pulse Width Modulation (PWM) driver for SAM.
   5:../asf/sam/drivers/pwm/pwm.c ****  *
   6:../asf/sam/drivers/pwm/pwm.c ****  * Copyright (c) 2011-2016 Atmel Corporation. All rights reserved.
   7:../asf/sam/drivers/pwm/pwm.c ****  *
   8:../asf/sam/drivers/pwm/pwm.c ****  * \asf_license_start
   9:../asf/sam/drivers/pwm/pwm.c ****  *
  10:../asf/sam/drivers/pwm/pwm.c ****  * \page License
  11:../asf/sam/drivers/pwm/pwm.c ****  *
  12:../asf/sam/drivers/pwm/pwm.c ****  * Redistribution and use in source and binary forms, with or without
  13:../asf/sam/drivers/pwm/pwm.c ****  * modification, are permitted provided that the following conditions are met:
  14:../asf/sam/drivers/pwm/pwm.c ****  *
  15:../asf/sam/drivers/pwm/pwm.c ****  * 1. Redistributions of source code must retain the above copyright notice,
  16:../asf/sam/drivers/pwm/pwm.c ****  *    this list of conditions and the following disclaimer.
  17:../asf/sam/drivers/pwm/pwm.c ****  *
  18:../asf/sam/drivers/pwm/pwm.c ****  * 2. Redistributions in binary form must reproduce the above copyright notice,
  19:../asf/sam/drivers/pwm/pwm.c ****  *    this list of conditions and the following disclaimer in the documentation
  20:../asf/sam/drivers/pwm/pwm.c ****  *    and/or other materials provided with the distribution.
  21:../asf/sam/drivers/pwm/pwm.c ****  *
  22:../asf/sam/drivers/pwm/pwm.c ****  * 3. The name of Atmel may not be used to endorse or promote products derived
  23:../asf/sam/drivers/pwm/pwm.c ****  *    from this software without specific prior written permission.
  24:../asf/sam/drivers/pwm/pwm.c ****  *
  25:../asf/sam/drivers/pwm/pwm.c ****  * 4. This software may only be redistributed and used in connection with an
  26:../asf/sam/drivers/pwm/pwm.c ****  *    Atmel microcontroller product.
  27:../asf/sam/drivers/pwm/pwm.c ****  *
  28:../asf/sam/drivers/pwm/pwm.c ****  * THIS SOFTWARE IS PROVIDED BY ATMEL "AS IS" AND ANY EXPRESS OR IMPLIED
  29:../asf/sam/drivers/pwm/pwm.c ****  * WARRANTIES, INCLUDING, BUT NOT LIMITED TO, THE IMPLIED WARRANTIES OF
  30:../asf/sam/drivers/pwm/pwm.c ****  * MERCHANTABILITY, FITNESS FOR A PARTICULAR PURPOSE AND NON-INFRINGEMENT ARE
  31:../asf/sam/drivers/pwm/pwm.c ****  * EXPRESSLY AND SPECIFICALLY DISCLAIMED. IN NO EVENT SHALL ATMEL BE LIABLE FOR
ARM GAS  /tmp/ccmSFvTJ.s 			page 2


  32:../asf/sam/drivers/pwm/pwm.c ****  * ANY DIRECT, INDIRECT, INCIDENTAL, SPECIAL, EXEMPLARY, OR CONSEQUENTIAL
  33:../asf/sam/drivers/pwm/pwm.c ****  * DAMAGES (INCLUDING, BUT NOT LIMITED TO, PROCUREMENT OF SUBSTITUTE GOODS
  34:../asf/sam/drivers/pwm/pwm.c ****  * OR SERVICES; LOSS OF USE, DATA, OR PROFITS; OR BUSINESS INTERRUPTION)
  35:../asf/sam/drivers/pwm/pwm.c ****  * HOWEVER CAUSED AND ON ANY THEORY OF LIABILITY, WHETHER IN CONTRACT,
  36:../asf/sam/drivers/pwm/pwm.c ****  * STRICT LIABILITY, OR TORT (INCLUDING NEGLIGENCE OR OTHERWISE) ARISING IN
  37:../asf/sam/drivers/pwm/pwm.c ****  * ANY WAY OUT OF THE USE OF THIS SOFTWARE, EVEN IF ADVISED OF THE
  38:../asf/sam/drivers/pwm/pwm.c ****  * POSSIBILITY OF SUCH DAMAGE.
  39:../asf/sam/drivers/pwm/pwm.c ****  *
  40:../asf/sam/drivers/pwm/pwm.c ****  * \asf_license_stop
  41:../asf/sam/drivers/pwm/pwm.c ****  *
  42:../asf/sam/drivers/pwm/pwm.c ****  */
  43:../asf/sam/drivers/pwm/pwm.c **** /*
  44:../asf/sam/drivers/pwm/pwm.c ****  * Support and FAQ: visit <a href="http://www.atmel.com/design-support/">Atmel Support</a>
  45:../asf/sam/drivers/pwm/pwm.c ****  */
  46:../asf/sam/drivers/pwm/pwm.c **** 
  47:../asf/sam/drivers/pwm/pwm.c **** #include "pwm.h"
  48:../asf/sam/drivers/pwm/pwm.c **** 
  49:../asf/sam/drivers/pwm/pwm.c **** /// @cond 0
  50:../asf/sam/drivers/pwm/pwm.c **** /**INDENT-OFF**/
  51:../asf/sam/drivers/pwm/pwm.c **** #ifdef __cplusplus
  52:../asf/sam/drivers/pwm/pwm.c **** extern "C" {
  53:../asf/sam/drivers/pwm/pwm.c **** #endif
  54:../asf/sam/drivers/pwm/pwm.c **** /**INDENT-ON**/
  55:../asf/sam/drivers/pwm/pwm.c **** /// @endcond
  56:../asf/sam/drivers/pwm/pwm.c **** 
  57:../asf/sam/drivers/pwm/pwm.c **** /**
  58:../asf/sam/drivers/pwm/pwm.c ****  * \defgroup sam_drivers_pwm_group Pulse Width Modulation (PWM)
  59:../asf/sam/drivers/pwm/pwm.c ****  *
  60:../asf/sam/drivers/pwm/pwm.c ****  * See \ref sam_pwm_quickstart.
  61:../asf/sam/drivers/pwm/pwm.c ****  *
  62:../asf/sam/drivers/pwm/pwm.c ****  * Driver for the PWM (Pulse Width Modulation). This driver provides access to the
  63:../asf/sam/drivers/pwm/pwm.c ****  * main features of the PWM controller.
  64:../asf/sam/drivers/pwm/pwm.c ****  *
  65:../asf/sam/drivers/pwm/pwm.c ****  * @{
  66:../asf/sam/drivers/pwm/pwm.c ****  */
  67:../asf/sam/drivers/pwm/pwm.c **** 
  68:../asf/sam/drivers/pwm/pwm.c **** #ifndef PWM_WPCR_WPKEY_PASSWD
  69:../asf/sam/drivers/pwm/pwm.c **** #  define PWM_WPCR_WPKEY_PASSWD 0x50574D00
  70:../asf/sam/drivers/pwm/pwm.c **** #endif
  71:../asf/sam/drivers/pwm/pwm.c **** 
  72:../asf/sam/drivers/pwm/pwm.c **** #ifndef PWM_WPCR_WPCMD_DISABLE_SW_PROT
  73:../asf/sam/drivers/pwm/pwm.c **** #  define PWM_WPCR_WPCMD_DISABLE_SW_PROT (PWM_WPCR_WPCMD(0))
  74:../asf/sam/drivers/pwm/pwm.c **** #endif
  75:../asf/sam/drivers/pwm/pwm.c **** 
  76:../asf/sam/drivers/pwm/pwm.c **** #ifndef PWM_WPCR_WPCMD_ENABLE_SW_PROT
  77:../asf/sam/drivers/pwm/pwm.c **** #  define PWM_WPCR_WPCMD_ENABLE_SW_PROT (PWM_WPCR_WPCMD(1))
  78:../asf/sam/drivers/pwm/pwm.c **** #endif
  79:../asf/sam/drivers/pwm/pwm.c **** 
  80:../asf/sam/drivers/pwm/pwm.c **** #ifndef PWM_WPCR_WPCMD_ENABLE_HW_PROT
  81:../asf/sam/drivers/pwm/pwm.c **** #  define PWM_WPCR_WPCMD_ENABLE_HW_PROT (PWM_WPCR_WPCMD(2))
  82:../asf/sam/drivers/pwm/pwm.c **** #endif
  83:../asf/sam/drivers/pwm/pwm.c **** 
  84:../asf/sam/drivers/pwm/pwm.c **** #define PWM_CLOCK_DIV_MAX  256
  85:../asf/sam/drivers/pwm/pwm.c **** #define PWM_CLOCK_PRE_MAX  11
  86:../asf/sam/drivers/pwm/pwm.c **** 
  87:../asf/sam/drivers/pwm/pwm.c **** /**
  88:../asf/sam/drivers/pwm/pwm.c ****  * \brief Find a prescaler/divisor couple to generate the desired ul_frequency
ARM GAS  /tmp/ccmSFvTJ.s 			page 3


  89:../asf/sam/drivers/pwm/pwm.c ****  * from ul_mck.
  90:../asf/sam/drivers/pwm/pwm.c ****  *
  91:../asf/sam/drivers/pwm/pwm.c ****  * \param ul_frequency Desired frequency in Hz.
  92:../asf/sam/drivers/pwm/pwm.c ****  * \param ul_mck Master clock frequency in Hz.
  93:../asf/sam/drivers/pwm/pwm.c ****  *
  94:../asf/sam/drivers/pwm/pwm.c ****  * \retval Return the value to be set in the PWM Clock Register (PWM Mode Register for
  95:../asf/sam/drivers/pwm/pwm.c ****  * SAM3N/SAM4N/SAM4C/SAM4CP/SAM4CM) or PWM_INVALID_ARGUMENT if the configuration cannot be met.
  96:../asf/sam/drivers/pwm/pwm.c ****  */
  97:../asf/sam/drivers/pwm/pwm.c **** static uint32_t pwm_clocks_generate(uint32_t ul_frequency, uint32_t ul_mck)
  98:../asf/sam/drivers/pwm/pwm.c **** {
  27              		.loc 1 98 0
  28              		.cfi_startproc
  29              		@ args = 0, pretend = 0, frame = 48
  30              		@ frame_needed = 0, uses_anonymous_args = 0
  31              	.LVL0:
  32 0000 F0B5     		push	{r4, r5, r6, r7, lr}
  33              		.cfi_def_cfa_offset 20
  34              		.cfi_offset 4, -20
  35              		.cfi_offset 5, -16
  36              		.cfi_offset 6, -12
  37              		.cfi_offset 7, -8
  38              		.cfi_offset 14, -4
  99:../asf/sam/drivers/pwm/pwm.c **** 	uint32_t ul_divisors[PWM_CLOCK_PRE_MAX] =
  39              		.loc 1 99 0
  40 0002 114E     		ldr	r6, .L8
  98:../asf/sam/drivers/pwm/pwm.c **** 	uint32_t ul_divisors[PWM_CLOCK_PRE_MAX] =
  41              		.loc 1 98 0
  42 0004 8DB0     		sub	sp, sp, #52
  43              		.cfi_def_cfa_offset 72
  98:../asf/sam/drivers/pwm/pwm.c **** 	uint32_t ul_divisors[PWM_CLOCK_PRE_MAX] =
  44              		.loc 1 98 0
  45 0006 8646     		mov	lr, r0
  46 0008 0F46     		mov	r7, r1
  47              		.loc 1 99 0
  48 000a 01AD     		add	r5, sp, #4
  49 000c 0FCE     		ldmia	r6!, {r0, r1, r2, r3}
  50              	.LVL1:
  51 000e 2C46     		mov	r4, r5
  52 0010 0FC5     		stmia	r5!, {r0, r1, r2, r3}
  53 0012 0FCE     		ldmia	r6!, {r0, r1, r2, r3}
  54 0014 0FC5     		stmia	r5!, {r0, r1, r2, r3}
  55 0016 96E80700 		ldm	r6, {r0, r1, r2}
 100:../asf/sam/drivers/pwm/pwm.c **** 			{1, 2, 4, 8, 16, 32, 64, 128, 256, 512, 1024 };
 101:../asf/sam/drivers/pwm/pwm.c **** 	uint32_t ul_pre = 0;
  56              		.loc 1 101 0
  57 001a 0023     		movs	r3, #0
  99:../asf/sam/drivers/pwm/pwm.c **** 			{1, 2, 4, 8, 16, 32, 64, 128, 256, 512, 1024 };
  58              		.loc 1 99 0
  59 001c 85E80700 		stm	r5, {r0, r1, r2}
  60              	.LVL2:
  61              	.L3:
 102:../asf/sam/drivers/pwm/pwm.c **** 	uint32_t ul_div;
 103:../asf/sam/drivers/pwm/pwm.c **** 
 104:../asf/sam/drivers/pwm/pwm.c **** 	/* Find prescaler and divisor values */
 105:../asf/sam/drivers/pwm/pwm.c **** 	do {
 106:../asf/sam/drivers/pwm/pwm.c **** 		ul_div = (ul_mck / ul_divisors[ul_pre]) / ul_frequency;
  62              		.loc 1 106 0
ARM GAS  /tmp/ccmSFvTJ.s 			page 4


  63 0020 54F8040B 		ldr	r0, [r4], #4
  64 0024 B7FBF0F0 		udiv	r0, r7, r0
  65 0028 B0FBFEF0 		udiv	r0, r0, lr
  66              	.LVL3:
 107:../asf/sam/drivers/pwm/pwm.c **** 		if (ul_div <= PWM_CLOCK_DIV_MAX) {
  67              		.loc 1 107 0
  68 002c B0F5807F 		cmp	r0, #256
  69 0030 06D9     		bls	.L2
 108:../asf/sam/drivers/pwm/pwm.c **** 			break;
 109:../asf/sam/drivers/pwm/pwm.c **** 		}
 110:../asf/sam/drivers/pwm/pwm.c **** 		ul_pre++;
  70              		.loc 1 110 0
  71 0032 0133     		adds	r3, r3, #1
  72              	.LVL4:
 111:../asf/sam/drivers/pwm/pwm.c **** 	} while (ul_pre < PWM_CLOCK_PRE_MAX);
  73              		.loc 1 111 0
  74 0034 0B2B     		cmp	r3, #11
  75 0036 F3D1     		bne	.L3
 112:../asf/sam/drivers/pwm/pwm.c **** 
 113:../asf/sam/drivers/pwm/pwm.c **** 	/* Return result */
 114:../asf/sam/drivers/pwm/pwm.c **** 	if (ul_pre < PWM_CLOCK_PRE_MAX) {
 115:../asf/sam/drivers/pwm/pwm.c **** 		return ul_div | (ul_pre << 8);
 116:../asf/sam/drivers/pwm/pwm.c **** 	} else {
 117:../asf/sam/drivers/pwm/pwm.c **** 		return PWM_INVALID_ARGUMENT;
  76              		.loc 1 117 0
  77 0038 4FF6FF70 		movw	r0, #65535
  78              	.LVL5:
 118:../asf/sam/drivers/pwm/pwm.c **** 	}
 119:../asf/sam/drivers/pwm/pwm.c **** }
  79              		.loc 1 119 0
  80 003c 0DB0     		add	sp, sp, #52
  81              		.cfi_remember_state
  82              		.cfi_def_cfa_offset 20
  83              		@ sp needed
  84 003e F0BD     		pop	{r4, r5, r6, r7, pc}
  85              	.LVL6:
  86              	.L2:
  87              		.cfi_restore_state
 115:../asf/sam/drivers/pwm/pwm.c **** 	} else {
  88              		.loc 1 115 0
  89 0040 40EA0320 		orr	r0, r0, r3, lsl #8
  90              	.LVL7:
  91              		.loc 1 119 0
  92 0044 0DB0     		add	sp, sp, #52
  93              		.cfi_def_cfa_offset 20
  94              		@ sp needed
  95 0046 F0BD     		pop	{r4, r5, r6, r7, pc}
  96              	.LVL8:
  97              	.L9:
  98              		.align	2
  99              	.L8:
 100 0048 00000000 		.word	.LANCHOR0
 101              		.cfi_endproc
 102              	.LFE142:
 103              		.size	pwm_clocks_generate, .-pwm_clocks_generate
 104              		.section	.text.pwm_init,"ax",%progbits
 105              		.align	1
ARM GAS  /tmp/ccmSFvTJ.s 			page 5


 106              		.p2align 2,,3
 107              		.global	pwm_init
 108              		.syntax unified
 109              		.thumb
 110              		.thumb_func
 111              		.fpu fpv5-d16
 112              		.type	pwm_init, %function
 113              	pwm_init:
 114              	.LFB143:
 120:../asf/sam/drivers/pwm/pwm.c **** 
 121:../asf/sam/drivers/pwm/pwm.c **** /**
 122:../asf/sam/drivers/pwm/pwm.c ****  * \brief Initialize the PWM source clock (clock A and clock B).
 123:../asf/sam/drivers/pwm/pwm.c ****  *
 124:../asf/sam/drivers/pwm/pwm.c ****  * \param p_pwm Pointer to a PWM instance.
 125:../asf/sam/drivers/pwm/pwm.c ****  * \param clock_config PWM clock configuration.
 126:../asf/sam/drivers/pwm/pwm.c ****  *
 127:../asf/sam/drivers/pwm/pwm.c ****  * \retval 0 if initialization succeeds, otherwise fails.
 128:../asf/sam/drivers/pwm/pwm.c ****  */
 129:../asf/sam/drivers/pwm/pwm.c **** uint32_t pwm_init(Pwm *p_pwm, pwm_clock_t *clock_config)
 130:../asf/sam/drivers/pwm/pwm.c **** {
 115              		.loc 1 130 0
 116              		.cfi_startproc
 117              		@ args = 0, pretend = 0, frame = 0
 118              		@ frame_needed = 0, uses_anonymous_args = 0
 119              	.LVL9:
 120 0000 70B5     		push	{r4, r5, r6, lr}
 121              		.cfi_def_cfa_offset 16
 122              		.cfi_offset 4, -16
 123              		.cfi_offset 5, -12
 124              		.cfi_offset 6, -8
 125              		.cfi_offset 14, -4
 131:../asf/sam/drivers/pwm/pwm.c **** 	uint32_t clock = 0;
 132:../asf/sam/drivers/pwm/pwm.c **** 	uint32_t result;
 133:../asf/sam/drivers/pwm/pwm.c **** 
 134:../asf/sam/drivers/pwm/pwm.c **** 	/* Clock A */
 135:../asf/sam/drivers/pwm/pwm.c **** 	if (clock_config->ul_clka != 0) {
 126              		.loc 1 135 0
 127 0002 0C68     		ldr	r4, [r1]
 130:../asf/sam/drivers/pwm/pwm.c **** 	uint32_t clock = 0;
 128              		.loc 1 130 0
 129 0004 0D46     		mov	r5, r1
 130 0006 0646     		mov	r6, r0
 131              		.loc 1 135 0
 132 0008 44B1     		cbz	r4, .L11
 136:../asf/sam/drivers/pwm/pwm.c **** 		result = pwm_clocks_generate(clock_config->ul_clka, clock_config->ul_mck);
 133              		.loc 1 136 0
 134 000a 2046     		mov	r0, r4
 135              	.LVL10:
 136 000c 8968     		ldr	r1, [r1, #8]
 137              	.LVL11:
 138 000e FFF7FEFF 		bl	pwm_clocks_generate
 139              	.LVL12:
 137:../asf/sam/drivers/pwm/pwm.c **** 		if (result == PWM_INVALID_ARGUMENT) {
 140              		.loc 1 137 0
 141 0012 4FF6FF73 		movw	r3, #65535
 136:../asf/sam/drivers/pwm/pwm.c **** 		result = pwm_clocks_generate(clock_config->ul_clka, clock_config->ul_mck);
 142              		.loc 1 136 0
ARM GAS  /tmp/ccmSFvTJ.s 			page 6


 143 0016 0446     		mov	r4, r0
 144              	.LVL13:
 145              		.loc 1 137 0
 146 0018 9842     		cmp	r0, r3
 147 001a 0CD0     		beq	.L10
 148              	.LVL14:
 149              	.L11:
 138:../asf/sam/drivers/pwm/pwm.c **** 			return result;
 139:../asf/sam/drivers/pwm/pwm.c **** 		}
 140:../asf/sam/drivers/pwm/pwm.c **** 
 141:../asf/sam/drivers/pwm/pwm.c **** 		clock = result;
 142:../asf/sam/drivers/pwm/pwm.c **** 	}
 143:../asf/sam/drivers/pwm/pwm.c **** 
 144:../asf/sam/drivers/pwm/pwm.c **** 	/* Clock B */
 145:../asf/sam/drivers/pwm/pwm.c **** 	if (clock_config->ul_clkb != 0) {
 150              		.loc 1 145 0
 151 001c 6868     		ldr	r0, [r5, #4]
 152 001e 40B1     		cbz	r0, .L13
 146:../asf/sam/drivers/pwm/pwm.c **** 		result = pwm_clocks_generate(clock_config->ul_clkb, clock_config->ul_mck);
 153              		.loc 1 146 0
 154 0020 A968     		ldr	r1, [r5, #8]
 155 0022 FFF7FEFF 		bl	pwm_clocks_generate
 156              	.LVL15:
 147:../asf/sam/drivers/pwm/pwm.c **** 
 148:../asf/sam/drivers/pwm/pwm.c **** 		if (result == PWM_INVALID_ARGUMENT) {
 157              		.loc 1 148 0
 158 0026 4FF6FF73 		movw	r3, #65535
 159 002a 9842     		cmp	r0, r3
 160 002c 05D0     		beq	.L14
 149:../asf/sam/drivers/pwm/pwm.c **** 			return result;
 150:../asf/sam/drivers/pwm/pwm.c **** 		}
 151:../asf/sam/drivers/pwm/pwm.c **** 
 152:../asf/sam/drivers/pwm/pwm.c **** 		clock |= (result << 16);
 161              		.loc 1 152 0
 162 002e 44EA0044 		orr	r4, r4, r0, lsl #16
 163              	.LVL16:
 164              	.L13:
 153:../asf/sam/drivers/pwm/pwm.c **** 	}
 154:../asf/sam/drivers/pwm/pwm.c **** #if (SAM3N || SAM4N || SAM4C || SAM4CP || SAM4CM)
 155:../asf/sam/drivers/pwm/pwm.c **** 	p_pwm->PWM_MR = clock;
 156:../asf/sam/drivers/pwm/pwm.c **** #else
 157:../asf/sam/drivers/pwm/pwm.c **** 	p_pwm->PWM_CLK = clock;
 165              		.loc 1 157 0
 166 0032 3460     		str	r4, [r6]
 158:../asf/sam/drivers/pwm/pwm.c **** #endif
 159:../asf/sam/drivers/pwm/pwm.c **** 	return 0;
 167              		.loc 1 159 0
 168 0034 0024     		movs	r4, #0
 169              	.LVL17:
 170              	.L10:
 160:../asf/sam/drivers/pwm/pwm.c **** }
 171              		.loc 1 160 0
 172 0036 2046     		mov	r0, r4
 173 0038 70BD     		pop	{r4, r5, r6, pc}
 174              	.LVL18:
 175              	.L14:
 176 003a 0446     		mov	r4, r0
ARM GAS  /tmp/ccmSFvTJ.s 			page 7


 177              	.LVL19:
 178 003c FBE7     		b	.L10
 179              		.cfi_endproc
 180              	.LFE143:
 181              		.size	pwm_init, .-pwm_init
 182 003e 00BF     		.section	.text.pwm_channel_init,"ax",%progbits
 183              		.align	1
 184              		.p2align 2,,3
 185              		.global	pwm_channel_init
 186              		.syntax unified
 187              		.thumb
 188              		.thumb_func
 189              		.fpu fpv5-d16
 190              		.type	pwm_channel_init, %function
 191              	pwm_channel_init:
 192              	.LFB144:
 161:../asf/sam/drivers/pwm/pwm.c **** 
 162:../asf/sam/drivers/pwm/pwm.c **** /**
 163:../asf/sam/drivers/pwm/pwm.c ****  * \brief Initialize one PWM channel.
 164:../asf/sam/drivers/pwm/pwm.c ****  *
 165:../asf/sam/drivers/pwm/pwm.c ****  * \param p_pwm Pointer to a PWM instance.
 166:../asf/sam/drivers/pwm/pwm.c ****  * \param p_channel Configurations of the specified PWM channel.
 167:../asf/sam/drivers/pwm/pwm.c ****  *
 168:../asf/sam/drivers/pwm/pwm.c ****  * \retval 0 if initialization succeeds, otherwise fails.
 169:../asf/sam/drivers/pwm/pwm.c ****  */
 170:../asf/sam/drivers/pwm/pwm.c **** uint32_t pwm_channel_init(Pwm *p_pwm, pwm_channel_t *p_channel)
 171:../asf/sam/drivers/pwm/pwm.c **** {
 193              		.loc 1 171 0
 194              		.cfi_startproc
 195              		@ args = 0, pretend = 0, frame = 0
 196              		@ frame_needed = 0, uses_anonymous_args = 0
 197              	.LVL20:
 172:../asf/sam/drivers/pwm/pwm.c **** 	uint32_t tmp_reg = 0;
 173:../asf/sam/drivers/pwm/pwm.c **** 	uint32_t ch_num = p_channel->channel;
 174:../asf/sam/drivers/pwm/pwm.c **** 
 175:../asf/sam/drivers/pwm/pwm.c **** 	/* Channel Mode/Clock Register */
 176:../asf/sam/drivers/pwm/pwm.c **** 	tmp_reg = (p_channel->ul_prescaler & 0xF) |
 198              		.loc 1 176 0
 199 0000 4B68     		ldr	r3, [r1, #4]
 177:../asf/sam/drivers/pwm/pwm.c **** 			(p_channel->polarity << 9) |
 178:../asf/sam/drivers/pwm/pwm.c **** #if (SAM3U || SAM3S || SAM3XA || SAM4S || SAM4E || SAMV70 || SAMV71 || SAME70 || SAMS70)
 179:../asf/sam/drivers/pwm/pwm.c **** 			(p_channel->counter_event) |
 200              		.loc 1 179 0
 201 0002 8A8A     		ldrh	r2, [r1, #20]
 176:../asf/sam/drivers/pwm/pwm.c **** 			(p_channel->polarity << 9) |
 202              		.loc 1 176 0
 203 0004 03F00F03 		and	r3, r3, #15
 171:../asf/sam/drivers/pwm/pwm.c **** 	uint32_t tmp_reg = 0;
 204              		.loc 1 171 0
 205 0008 F0B5     		push	{r4, r5, r6, r7, lr}
 206              		.cfi_def_cfa_offset 20
 207              		.cfi_offset 4, -20
 208              		.cfi_offset 5, -16
 209              		.cfi_offset 6, -12
 210              		.cfi_offset 7, -8
 211              		.cfi_offset 14, -4
 176:../asf/sam/drivers/pwm/pwm.c **** 			(p_channel->polarity << 9) |
ARM GAS  /tmp/ccmSFvTJ.s 			page 8


 212              		.loc 1 176 0
 213 000a 1A43     		orrs	r2, r2, r3
 180:../asf/sam/drivers/pwm/pwm.c **** 			(p_channel->b_deadtime_generator << 16) |
 181:../asf/sam/drivers/pwm/pwm.c **** 			(p_channel->b_pwmh_output_inverted << 17) |
 182:../asf/sam/drivers/pwm/pwm.c **** 			(p_channel->b_pwml_output_inverted << 18) |
 183:../asf/sam/drivers/pwm/pwm.c **** #endif
 184:../asf/sam/drivers/pwm/pwm.c **** 			(p_channel->alignment);
 214              		.loc 1 184 0
 215 000c 0C89     		ldrh	r4, [r1, #8]
 177:../asf/sam/drivers/pwm/pwm.c **** #if (SAM3U || SAM3S || SAM3XA || SAM4S || SAM4E || SAMV70 || SAMV71 || SAME70 || SAMS70)
 216              		.loc 1 177 0
 217 000e 8E7A     		ldrb	r6, [r1, #10]	@ zero_extendqisi2
 176:../asf/sam/drivers/pwm/pwm.c **** 			(p_channel->polarity << 9) |
 218              		.loc 1 176 0
 219 0010 2243     		orrs	r2, r2, r4
 180:../asf/sam/drivers/pwm/pwm.c **** 			(p_channel->b_deadtime_generator << 16) |
 220              		.loc 1 180 0
 221 0012 8D7D     		ldrb	r5, [r1, #22]	@ zero_extendqisi2
 181:../asf/sam/drivers/pwm/pwm.c **** 			(p_channel->b_pwml_output_inverted << 18) |
 222              		.loc 1 181 0
 223 0014 91F817E0 		ldrb	lr, [r1, #23]	@ zero_extendqisi2
 176:../asf/sam/drivers/pwm/pwm.c **** 			(p_channel->polarity << 9) |
 224              		.loc 1 176 0
 225 0018 42EA4622 		orr	r2, r2, r6, lsl #9
 182:../asf/sam/drivers/pwm/pwm.c **** #endif
 226              		.loc 1 182 0
 227 001c 0C7E     		ldrb	r4, [r1, #24]	@ zero_extendqisi2
 173:../asf/sam/drivers/pwm/pwm.c **** 
 228              		.loc 1 173 0
 229 001e 0B68     		ldr	r3, [r1]
 230              	.LVL21:
 176:../asf/sam/drivers/pwm/pwm.c **** 			(p_channel->polarity << 9) |
 231              		.loc 1 176 0
 232 0020 42EA0542 		orr	r2, r2, r5, lsl #16
 185:../asf/sam/drivers/pwm/pwm.c **** 	p_pwm->PWM_CH_NUM[ch_num].PWM_CMR = tmp_reg;
 186:../asf/sam/drivers/pwm/pwm.c **** 
 187:../asf/sam/drivers/pwm/pwm.c **** 	/* Channel Duty Cycle Register */
 188:../asf/sam/drivers/pwm/pwm.c **** 	p_pwm->PWM_CH_NUM[ch_num].PWM_CDTY = p_channel->ul_duty;
 233              		.loc 1 188 0
 234 0024 CF68     		ldr	r7, [r1, #12]
 189:../asf/sam/drivers/pwm/pwm.c **** 
 190:../asf/sam/drivers/pwm/pwm.c **** 	/* Channel Period Register */
 191:../asf/sam/drivers/pwm/pwm.c **** 	p_pwm->PWM_CH_NUM[ch_num].PWM_CPRD = p_channel->ul_period;
 235              		.loc 1 191 0
 236 0026 0E69     		ldr	r6, [r1, #16]
 176:../asf/sam/drivers/pwm/pwm.c **** 			(p_channel->polarity << 9) |
 237              		.loc 1 176 0
 238 0028 42EA4E42 		orr	r2, r2, lr, lsl #17
 239 002c 42EA8442 		orr	r2, r2, r4, lsl #18
 240              	.LVL22:
 241 0030 00EB4314 		add	r4, r0, r3, lsl #5
 185:../asf/sam/drivers/pwm/pwm.c **** 	p_pwm->PWM_CH_NUM[ch_num].PWM_CMR = tmp_reg;
 242              		.loc 1 185 0
 243 0034 C4F80022 		str	r2, [r4, #512]
 188:../asf/sam/drivers/pwm/pwm.c **** 
 244              		.loc 1 188 0
 245 0038 C4F80472 		str	r7, [r4, #516]
ARM GAS  /tmp/ccmSFvTJ.s 			page 9


 246              		.loc 1 191 0
 247 003c C4F80C62 		str	r6, [r4, #524]
 192:../asf/sam/drivers/pwm/pwm.c **** 	
 193:../asf/sam/drivers/pwm/pwm.c **** #if (SAM3U || SAM3S || SAM3XA || SAM4S || SAM4E || SAMV70 || SAMV71 || SAME70 || SAMS70)
 194:../asf/sam/drivers/pwm/pwm.c **** 	/* Channel Dead Time Register */
 195:../asf/sam/drivers/pwm/pwm.c **** 	if (p_channel->b_deadtime_generator) {
 248              		.loc 1 195 0
 249 0040 1DB1     		cbz	r5, .L23
 196:../asf/sam/drivers/pwm/pwm.c **** 		p_pwm->PWM_CH_NUM[ch_num].PWM_DT =
 197:../asf/sam/drivers/pwm/pwm.c **** 				PWM_DT_DTL(p_channel->
 198:../asf/sam/drivers/pwm/pwm.c **** 				us_deadtime_pwml) | PWM_DT_DTH(p_channel->
 250              		.loc 1 198 0
 251 0042 D1F81A20 		ldr	r2, [r1, #26]	@ unaligned
 252              	.LVL23:
 196:../asf/sam/drivers/pwm/pwm.c **** 		p_pwm->PWM_CH_NUM[ch_num].PWM_DT =
 253              		.loc 1 196 0
 254 0046 C4F81822 		str	r2, [r4, #536]
 255              	.L23:
 199:../asf/sam/drivers/pwm/pwm.c **** 				us_deadtime_pwmh);
 200:../asf/sam/drivers/pwm/pwm.c **** 	}
 201:../asf/sam/drivers/pwm/pwm.c **** 
 202:../asf/sam/drivers/pwm/pwm.c **** 	/* Output Selection Register */
 203:../asf/sam/drivers/pwm/pwm.c **** 	tmp_reg  = p_pwm->PWM_OS & (~((PWM_OS_OSH0 | PWM_OS_OSL0) << ch_num));
 256              		.loc 1 203 0
 257 004a 4FF0011E 		mov	lr, #65537
 258              	.LVL24:
 204:../asf/sam/drivers/pwm/pwm.c **** 	tmp_reg |= ((p_channel->output_selection.b_override_pwmh) << ch_num) |
 205:../asf/sam/drivers/pwm/pwm.c **** 			(((p_channel->output_selection.b_override_pwml) << ch_num)
 259              		.loc 1 205 0
 260 004e CF7F     		ldrb	r7, [r1, #31]	@ zero_extendqisi2
 204:../asf/sam/drivers/pwm/pwm.c **** 	tmp_reg |= ((p_channel->output_selection.b_override_pwmh) << ch_num) |
 261              		.loc 1 204 0
 262 0050 8D7F     		ldrb	r5, [r1, #30]	@ zero_extendqisi2
 263              	.LVL25:
 206:../asf/sam/drivers/pwm/pwm.c **** 					<< 16);
 207:../asf/sam/drivers/pwm/pwm.c **** 	p_pwm->PWM_OS = tmp_reg;
 208:../asf/sam/drivers/pwm/pwm.c **** 
 209:../asf/sam/drivers/pwm/pwm.c **** 	/* Output Override Value Register */
 210:../asf/sam/drivers/pwm/pwm.c **** 	tmp_reg  = p_pwm->PWM_OOV & (~((PWM_OOV_OOVH0 | PWM_OOV_OOVL0) << ch_num));
 211:../asf/sam/drivers/pwm/pwm.c **** 	tmp_reg |= ((p_channel->output_selection.override_level_pwmh) << ch_num) |
 212:../asf/sam/drivers/pwm/pwm.c **** 			(((p_channel->output_selection.override_level_pwml) << ch_num)
 213:../asf/sam/drivers/pwm/pwm.c **** 					<< 16);
 214:../asf/sam/drivers/pwm/pwm.c **** 	p_pwm->PWM_OOV = tmp_reg;
 215:../asf/sam/drivers/pwm/pwm.c **** 
 216:../asf/sam/drivers/pwm/pwm.c **** 	/* Sync Channels Mode Register */
 217:../asf/sam/drivers/pwm/pwm.c **** 	uint32_t channel = (1 << ch_num);
 264              		.loc 1 217 0
 265 0052 0126     		movs	r6, #1
 203:../asf/sam/drivers/pwm/pwm.c **** 	tmp_reg |= ((p_channel->output_selection.b_override_pwmh) << ch_num) |
 266              		.loc 1 203 0
 267 0054 0EFA03FE 		lsl	lr, lr, r3
 268 0058 846C     		ldr	r4, [r0, #72]
 205:../asf/sam/drivers/pwm/pwm.c **** 					<< 16);
 269              		.loc 1 205 0
 270 005a 9F40     		lsls	r7, r7, r3
 204:../asf/sam/drivers/pwm/pwm.c **** 			(((p_channel->output_selection.b_override_pwml) << ch_num)
 271              		.loc 1 204 0
ARM GAS  /tmp/ccmSFvTJ.s 			page 10


 272 005c 9D40     		lsls	r5, r5, r3
 203:../asf/sam/drivers/pwm/pwm.c **** 	tmp_reg |= ((p_channel->output_selection.b_override_pwmh) << ch_num) |
 273              		.loc 1 203 0
 274 005e 6FEA0E02 		mvn	r2, lr
 275              		.loc 1 217 0
 276 0062 9E40     		lsls	r6, r6, r3
 204:../asf/sam/drivers/pwm/pwm.c **** 			(((p_channel->output_selection.b_override_pwml) << ch_num)
 277              		.loc 1 204 0
 278 0064 45EA0745 		orr	r5, r5, r7, lsl #16
 212:../asf/sam/drivers/pwm/pwm.c **** 					<< 16);
 279              		.loc 1 212 0
 280 0068 91F82170 		ldrb	r7, [r1, #33]	@ zero_extendqisi2
 203:../asf/sam/drivers/pwm/pwm.c **** 	tmp_reg |= ((p_channel->output_selection.b_override_pwmh) << ch_num) |
 281              		.loc 1 203 0
 282 006c 04EA020E 		and	lr, r4, r2
 283              	.LVL26:
 211:../asf/sam/drivers/pwm/pwm.c **** 			(((p_channel->output_selection.override_level_pwml) << ch_num)
 284              		.loc 1 211 0
 285 0070 91F82040 		ldrb	r4, [r1, #32]	@ zero_extendqisi2
 212:../asf/sam/drivers/pwm/pwm.c **** 					<< 16);
 286              		.loc 1 212 0
 287 0074 9F40     		lsls	r7, r7, r3
 204:../asf/sam/drivers/pwm/pwm.c **** 			(((p_channel->output_selection.b_override_pwml) << ch_num)
 288              		.loc 1 204 0
 289 0076 45EA0E05 		orr	r5, r5, lr
 290              	.LVL27:
 211:../asf/sam/drivers/pwm/pwm.c **** 			(((p_channel->output_selection.override_level_pwml) << ch_num)
 291              		.loc 1 211 0
 292 007a 9C40     		lsls	r4, r4, r3
 207:../asf/sam/drivers/pwm/pwm.c **** 
 293              		.loc 1 207 0
 294 007c 8564     		str	r5, [r0, #72]
 211:../asf/sam/drivers/pwm/pwm.c **** 			(((p_channel->output_selection.override_level_pwml) << ch_num)
 295              		.loc 1 211 0
 296 007e 44EA0744 		orr	r4, r4, r7, lsl #16
 210:../asf/sam/drivers/pwm/pwm.c **** 	tmp_reg |= ((p_channel->output_selection.override_level_pwmh) << ch_num) |
 297              		.loc 1 210 0
 298 0082 476C     		ldr	r7, [r0, #68]
 218:../asf/sam/drivers/pwm/pwm.c **** 	if (p_channel->b_sync_ch) {
 299              		.loc 1 218 0
 300 0084 91F82250 		ldrb	r5, [r1, #34]	@ zero_extendqisi2
 301              	.LVL28:
 210:../asf/sam/drivers/pwm/pwm.c **** 	tmp_reg |= ((p_channel->output_selection.override_level_pwmh) << ch_num) |
 302              		.loc 1 210 0
 303 0088 3A40     		ands	r2, r2, r7
 304              	.LVL29:
 211:../asf/sam/drivers/pwm/pwm.c **** 			(((p_channel->output_selection.override_level_pwml) << ch_num)
 305              		.loc 1 211 0
 306 008a 2243     		orrs	r2, r2, r4
 307              	.LVL30:
 214:../asf/sam/drivers/pwm/pwm.c **** 
 308              		.loc 1 214 0
 309 008c 4264     		str	r2, [r0, #68]
 219:../asf/sam/drivers/pwm/pwm.c **** 		p_pwm->PWM_SCM |= channel;
 310              		.loc 1 219 0
 311 008e 026A     		ldr	r2, [r0, #32]
 312              	.LVL31:
ARM GAS  /tmp/ccmSFvTJ.s 			page 11


 218:../asf/sam/drivers/pwm/pwm.c **** 		p_pwm->PWM_SCM |= channel;
 313              		.loc 1 218 0
 314 0090 002D     		cmp	r5, #0
 315 0092 4CD0     		beq	.L24
 220:../asf/sam/drivers/pwm/pwm.c **** 	} else {
 221:../asf/sam/drivers/pwm/pwm.c **** 		p_pwm->PWM_SCM &= ~((uint32_t) channel);
 222:../asf/sam/drivers/pwm/pwm.c **** 	}
 223:../asf/sam/drivers/pwm/pwm.c **** 
 224:../asf/sam/drivers/pwm/pwm.c **** 	/* Fault Protection Value Register */
 225:../asf/sam/drivers/pwm/pwm.c **** #if (SAM4E || SAMV70 || SAMV71 || SAME70 || SAMS70)
 226:../asf/sam/drivers/pwm/pwm.c **** 	if (p_channel->ul_fault_output_pwmh == PWM_HIGHZ) {
 316              		.loc 1 226 0
 317 0094 91F82450 		ldrb	r5, [r1, #36]	@ zero_extendqisi2
 219:../asf/sam/drivers/pwm/pwm.c **** 	} else {
 318              		.loc 1 219 0
 319 0098 3243     		orrs	r2, r2, r6
 320              		.loc 1 226 0
 321 009a 022D     		cmp	r5, #2
 219:../asf/sam/drivers/pwm/pwm.c **** 	} else {
 322              		.loc 1 219 0
 323 009c 0262     		str	r2, [r0, #32]
 324              	.LVL32:
 325              		.loc 1 226 0
 326 009e 4DD0     		beq	.L38
 327              	.L26:
 227:../asf/sam/drivers/pwm/pwm.c **** 		p_pwm->PWM_FPV2 |= (0x01 << ch_num);
 228:../asf/sam/drivers/pwm/pwm.c **** 	} else {
 229:../asf/sam/drivers/pwm/pwm.c **** 		p_pwm->PWM_FPV2 &= ~(0x01 << ch_num);
 328              		.loc 1 229 0
 329 00a0 D0F8C040 		ldr	r4, [r0, #192]
 330              	.LVL33:
 331 00a4 F243     		mvns	r2, r6
 230:../asf/sam/drivers/pwm/pwm.c **** 		if (p_channel->ul_fault_output_pwmh == PWM_HIGH) {
 332              		.loc 1 230 0
 333 00a6 012D     		cmp	r5, #1
 229:../asf/sam/drivers/pwm/pwm.c **** 		if (p_channel->ul_fault_output_pwmh == PWM_HIGH) {
 334              		.loc 1 229 0
 335 00a8 04EA0204 		and	r4, r4, r2
 336 00ac C0F8C040 		str	r4, [r0, #192]
 337              		.loc 1 230 0
 338 00b0 58D0     		beq	.L39
 231:../asf/sam/drivers/pwm/pwm.c **** 			p_pwm->PWM_FPV1 |= (0x01 << ch_num);
 232:../asf/sam/drivers/pwm/pwm.c **** 		} else {
 233:../asf/sam/drivers/pwm/pwm.c **** 			p_pwm->PWM_FPV1 &= (~(0x01 << ch_num));
 339              		.loc 1 233 0
 340 00b2 846E     		ldr	r4, [r0, #104]
 341 00b4 2240     		ands	r2, r2, r4
 342 00b6 8266     		str	r2, [r0, #104]
 343              	.L27:
 234:../asf/sam/drivers/pwm/pwm.c **** 		}
 235:../asf/sam/drivers/pwm/pwm.c **** 	}
 236:../asf/sam/drivers/pwm/pwm.c **** 	if (p_channel->ul_fault_output_pwml == PWM_HIGHZ) {
 344              		.loc 1 236 0
 345 00b8 91F82570 		ldrb	r7, [r1, #37]	@ zero_extendqisi2
 346              	.LVL34:
 347 00bc 022F     		cmp	r7, #2
 348 00be 46D0     		beq	.L40
ARM GAS  /tmp/ccmSFvTJ.s 			page 12


 349              	.L29:
 237:../asf/sam/drivers/pwm/pwm.c **** 		p_pwm->PWM_FPV2 |= ((0x01 << ch_num) << 16);
 238:../asf/sam/drivers/pwm/pwm.c **** 	} else {
 239:../asf/sam/drivers/pwm/pwm.c **** 		p_pwm->PWM_FPV2 &= ~((0x01 << ch_num) << 16);
 350              		.loc 1 239 0
 351 00c0 3204     		lsls	r2, r6, #16
 352 00c2 D0F8C050 		ldr	r5, [r0, #192]
 240:../asf/sam/drivers/pwm/pwm.c **** 		if (p_channel->ul_fault_output_pwml == PWM_HIGH) {
 353              		.loc 1 240 0
 354 00c6 012F     		cmp	r7, #1
 239:../asf/sam/drivers/pwm/pwm.c **** 		if (p_channel->ul_fault_output_pwml == PWM_HIGH) {
 355              		.loc 1 239 0
 356 00c8 6FEA0204 		mvn	r4, r2
 357 00cc 05EA0405 		and	r5, r5, r4
 358 00d0 C0F8C050 		str	r5, [r0, #192]
 359              		.loc 1 240 0
 360 00d4 42D0     		beq	.L41
 241:../asf/sam/drivers/pwm/pwm.c **** 			p_pwm->PWM_FPV1 |= ((0x01 << ch_num) << 16);
 242:../asf/sam/drivers/pwm/pwm.c **** 		} else {
 243:../asf/sam/drivers/pwm/pwm.c **** 			p_pwm->PWM_FPV1 &= (~((0x01 << ch_num) << 16));
 361              		.loc 1 243 0
 362 00d6 826E     		ldr	r2, [r0, #104]
 363 00d8 1440     		ands	r4, r4, r2
 364 00da 8466     		str	r4, [r0, #104]
 365              	.L30:
 366              	.LVL35:
 244:../asf/sam/drivers/pwm/pwm.c **** 		}
 245:../asf/sam/drivers/pwm/pwm.c **** 	}
 246:../asf/sam/drivers/pwm/pwm.c **** #else
 247:../asf/sam/drivers/pwm/pwm.c **** 	if (p_channel->ul_fault_output_pwmh == PWM_HIGH) {
 248:../asf/sam/drivers/pwm/pwm.c **** 		p_pwm->PWM_FPV |= (0x01 << ch_num);
 249:../asf/sam/drivers/pwm/pwm.c **** 	} else {
 250:../asf/sam/drivers/pwm/pwm.c **** 		p_pwm->PWM_FPV &= (~(0x01 << ch_num));
 251:../asf/sam/drivers/pwm/pwm.c **** 	}
 252:../asf/sam/drivers/pwm/pwm.c **** 	if (p_channel->ul_fault_output_pwml == PWM_HIGH) {
 253:../asf/sam/drivers/pwm/pwm.c **** 		p_pwm->PWM_FPV |= ((0x01 << ch_num) << 16);
 254:../asf/sam/drivers/pwm/pwm.c **** 	} else {
 255:../asf/sam/drivers/pwm/pwm.c **** 		p_pwm->PWM_FPV &= (~((0x01 << ch_num) << 16));
 256:../asf/sam/drivers/pwm/pwm.c **** 	}
 257:../asf/sam/drivers/pwm/pwm.c **** #endif
 258:../asf/sam/drivers/pwm/pwm.c **** 	/* Fault Protection Enable Register */
 259:../asf/sam/drivers/pwm/pwm.c **** 	uint32_t fault_enable_reg = 0;
 260:../asf/sam/drivers/pwm/pwm.c **** #if (SAM3XA)
 261:../asf/sam/drivers/pwm/pwm.c **** 	if (ch_num < 4) {
 262:../asf/sam/drivers/pwm/pwm.c **** 		ch_num *= 8;
 263:../asf/sam/drivers/pwm/pwm.c **** 		fault_enable_reg = p_pwm->PWM_FPE1;
 264:../asf/sam/drivers/pwm/pwm.c **** 		fault_enable_reg &= ~(0xFF << ch_num);
 265:../asf/sam/drivers/pwm/pwm.c **** 		fault_enable_reg |= ((p_channel->fault_id) << ch_num);
 266:../asf/sam/drivers/pwm/pwm.c **** 		p_pwm->PWM_FPE1 = fault_enable_reg;
 267:../asf/sam/drivers/pwm/pwm.c **** 	} else {
 268:../asf/sam/drivers/pwm/pwm.c **** 		ch_num -= 4;
 269:../asf/sam/drivers/pwm/pwm.c **** 		ch_num *= 8;
 270:../asf/sam/drivers/pwm/pwm.c **** 		fault_enable_reg = p_pwm->PWM_FPE2;
 271:../asf/sam/drivers/pwm/pwm.c **** 		fault_enable_reg &= ~(0xFF << ch_num);
 272:../asf/sam/drivers/pwm/pwm.c **** 		fault_enable_reg |= ((p_channel->fault_id) << ch_num);
 273:../asf/sam/drivers/pwm/pwm.c **** 		p_pwm->PWM_FPE2 = fault_enable_reg;
 274:../asf/sam/drivers/pwm/pwm.c **** 	}
ARM GAS  /tmp/ccmSFvTJ.s 			page 13


 275:../asf/sam/drivers/pwm/pwm.c **** #endif
 276:../asf/sam/drivers/pwm/pwm.c **** 
 277:../asf/sam/drivers/pwm/pwm.c **** #if (SAM3U || SAM3S || SAM4S || SAM4E || SAMV70 || SAMV71 || SAME70 || SAMS70)
 278:../asf/sam/drivers/pwm/pwm.c **** 	ch_num *= 8;
 367              		.loc 1 278 0
 368 00dc DB00     		lsls	r3, r3, #3
 369              	.LVL36:
 279:../asf/sam/drivers/pwm/pwm.c **** 	fault_enable_reg = p_pwm->PWM_FPE;
 280:../asf/sam/drivers/pwm/pwm.c **** 	fault_enable_reg &= ~(0xFF << ch_num);
 370              		.loc 1 280 0
 371 00de FF25     		movs	r5, #255
 279:../asf/sam/drivers/pwm/pwm.c **** 	fault_enable_reg = p_pwm->PWM_FPE;
 372              		.loc 1 279 0
 373 00e0 C46E     		ldr	r4, [r0, #108]
 374              	.LVL37:
 281:../asf/sam/drivers/pwm/pwm.c **** 	fault_enable_reg |= ((p_channel->fault_id) << ch_num);
 375              		.loc 1 281 0
 376 00e2 91F82320 		ldrb	r2, [r1, #35]	@ zero_extendqisi2
 280:../asf/sam/drivers/pwm/pwm.c **** 	fault_enable_reg |= ((p_channel->fault_id) << ch_num);
 377              		.loc 1 280 0
 378 00e6 9D40     		lsls	r5, r5, r3
 379              		.loc 1 281 0
 380 00e8 9A40     		lsls	r2, r2, r3
 280:../asf/sam/drivers/pwm/pwm.c **** 	fault_enable_reg |= ((p_channel->fault_id) << ch_num);
 381              		.loc 1 280 0
 382 00ea 24EA0504 		bic	r4, r4, r5
 383              	.LVL38:
 384              		.loc 1 281 0
 385 00ee 2243     		orrs	r2, r2, r4
 386              	.LVL39:
 282:../asf/sam/drivers/pwm/pwm.c **** 	p_pwm->PWM_FPE = fault_enable_reg;
 387              		.loc 1 282 0
 388 00f0 C266     		str	r2, [r0, #108]
 283:../asf/sam/drivers/pwm/pwm.c **** #endif
 284:../asf/sam/drivers/pwm/pwm.c **** #endif
 285:../asf/sam/drivers/pwm/pwm.c **** 
 286:../asf/sam/drivers/pwm/pwm.c **** #if SAM4E
 287:../asf/sam/drivers/pwm/pwm.c **** 	if (!ch_num) {
 288:../asf/sam/drivers/pwm/pwm.c **** 		if (p_channel->spread_spectrum_mode ==
 289:../asf/sam/drivers/pwm/pwm.c **** 				PWM_SPREAD_SPECTRUM_MODE_RANDOM) {
 290:../asf/sam/drivers/pwm/pwm.c **** 			p_pwm->PWM_SSPR = PWM_SSPR_SPRD(p_channel->ul_spread) |
 291:../asf/sam/drivers/pwm/pwm.c **** 					PWM_SSPR_SPRDM;
 292:../asf/sam/drivers/pwm/pwm.c **** 		} else {
 293:../asf/sam/drivers/pwm/pwm.c **** 			p_pwm->PWM_SSPR = PWM_SSPR_SPRD(p_channel->ul_spread);
 294:../asf/sam/drivers/pwm/pwm.c **** 		}
 295:../asf/sam/drivers/pwm/pwm.c **** 	}
 296:../asf/sam/drivers/pwm/pwm.c **** 	p_pwm->PWM_CH_NUM_0X400[ch_num].PWM_CAE =
 297:../asf/sam/drivers/pwm/pwm.c **** 			PWM_CAE_ADEDGV(p_channel->ul_additional_edge) |
 298:../asf/sam/drivers/pwm/pwm.c **** 			p_channel->additional_edge_mode;
 299:../asf/sam/drivers/pwm/pwm.c **** #elif (SAMV70 || SAMV71 || SAME70 || SAMS70)
 300:../asf/sam/drivers/pwm/pwm.c **** 	if (!ch_num) {
 389              		.loc 1 300 0
 390 00f2 53B9     		cbnz	r3, .L32
 301:../asf/sam/drivers/pwm/pwm.c **** 		if (p_channel->spread_spectrum_mode ==
 391              		.loc 1 301 0
 392 00f4 91F82C20 		ldrb	r2, [r1, #44]	@ zero_extendqisi2
 393              	.LVL40:
ARM GAS  /tmp/ccmSFvTJ.s 			page 14


 394 00f8 012A     		cmp	r2, #1
 302:../asf/sam/drivers/pwm/pwm.c **** 		PWM_SPREAD_SPECTRUM_MODE_RANDOM) {
 303:../asf/sam/drivers/pwm/pwm.c **** 			p_pwm->PWM_SSPR = PWM_SSPR_SPRD(p_channel->ul_spread) |
 395              		.loc 1 303 0
 396 00fa 8A6A     		ldr	r2, [r1, #40]
 397 00fc 22F07F42 		bic	r2, r2, #-16777216
 398 0100 08BF     		it	eq
 399 0102 42F08072 		orreq	r2, r2, #16777216
 304:../asf/sam/drivers/pwm/pwm.c **** 			PWM_SSPR_SPRDM;
 305:../asf/sam/drivers/pwm/pwm.c **** 			} else {
 306:../asf/sam/drivers/pwm/pwm.c **** 			p_pwm->PWM_SSPR = PWM_SSPR_SPRD(p_channel->ul_spread);
 400              		.loc 1 306 0
 401 0106 C0F8A020 		str	r2, [r0, #160]
 402              	.LVL41:
 403              	.L32:
 404 010a 00EB4313 		add	r3, r0, r3, lsl #5
 405              	.LVL42:
 307:../asf/sam/drivers/pwm/pwm.c **** 		}
 308:../asf/sam/drivers/pwm/pwm.c **** 	}
 309:../asf/sam/drivers/pwm/pwm.c **** 	p_pwm->PWM_CH_NUM[ch_num].PWM_CMR &= (~PWM_CMR_PPM);
 310:../asf/sam/drivers/pwm/pwm.c **** 	p_pwm->PWM_CH_NUM[ch_num].PWM_CMR |= (p_channel->ul_ppm_mode & PWM_CMR_PPM);
 406              		.loc 1 310 0
 407 010e 8A6B     		ldr	r2, [r1, #56]
 311:../asf/sam/drivers/pwm/pwm.c **** #endif
 312:../asf/sam/drivers/pwm/pwm.c **** 
 313:../asf/sam/drivers/pwm/pwm.c **** 	return 0;
 314:../asf/sam/drivers/pwm/pwm.c **** }
 408              		.loc 1 314 0
 409 0110 0020     		movs	r0, #0
 410              	.LVL43:
 309:../asf/sam/drivers/pwm/pwm.c **** 	p_pwm->PWM_CH_NUM[ch_num].PWM_CMR |= (p_channel->ul_ppm_mode & PWM_CMR_PPM);
 411              		.loc 1 309 0
 412 0112 D3F80012 		ldr	r1, [r3, #512]
 413              	.LVL44:
 310:../asf/sam/drivers/pwm/pwm.c **** #endif
 414              		.loc 1 310 0
 415 0116 02F40022 		and	r2, r2, #524288
 309:../asf/sam/drivers/pwm/pwm.c **** 	p_pwm->PWM_CH_NUM[ch_num].PWM_CMR |= (p_channel->ul_ppm_mode & PWM_CMR_PPM);
 416              		.loc 1 309 0
 417 011a 21F40021 		bic	r1, r1, #524288
 418 011e C3F80012 		str	r1, [r3, #512]
 310:../asf/sam/drivers/pwm/pwm.c **** #endif
 419              		.loc 1 310 0
 420 0122 D3F80012 		ldr	r1, [r3, #512]
 421 0126 0A43     		orrs	r2, r2, r1
 422 0128 C3F80022 		str	r2, [r3, #512]
 423              		.loc 1 314 0
 424 012c F0BD     		pop	{r4, r5, r6, r7, pc}
 425              	.LVL45:
 426              	.L24:
 226:../asf/sam/drivers/pwm/pwm.c **** 		p_pwm->PWM_FPV2 |= (0x01 << ch_num);
 427              		.loc 1 226 0
 428 012e 91F82450 		ldrb	r5, [r1, #36]	@ zero_extendqisi2
 221:../asf/sam/drivers/pwm/pwm.c **** 	}
 429              		.loc 1 221 0
 430 0132 22EA0602 		bic	r2, r2, r6
 226:../asf/sam/drivers/pwm/pwm.c **** 		p_pwm->PWM_FPV2 |= (0x01 << ch_num);
ARM GAS  /tmp/ccmSFvTJ.s 			page 15


 431              		.loc 1 226 0
 432 0136 022D     		cmp	r5, #2
 221:../asf/sam/drivers/pwm/pwm.c **** 	}
 433              		.loc 1 221 0
 434 0138 0262     		str	r2, [r0, #32]
 435              	.LVL46:
 226:../asf/sam/drivers/pwm/pwm.c **** 		p_pwm->PWM_FPV2 |= (0x01 << ch_num);
 436              		.loc 1 226 0
 437 013a B1D1     		bne	.L26
 438              	.L38:
 227:../asf/sam/drivers/pwm/pwm.c **** 	} else {
 439              		.loc 1 227 0
 440 013c D0F8C020 		ldr	r2, [r0, #192]
 236:../asf/sam/drivers/pwm/pwm.c **** 		p_pwm->PWM_FPV2 |= ((0x01 << ch_num) << 16);
 441              		.loc 1 236 0
 442 0140 91F82570 		ldrb	r7, [r1, #37]	@ zero_extendqisi2
 443              	.LVL47:
 227:../asf/sam/drivers/pwm/pwm.c **** 	} else {
 444              		.loc 1 227 0
 445 0144 3243     		orrs	r2, r2, r6
 236:../asf/sam/drivers/pwm/pwm.c **** 		p_pwm->PWM_FPV2 |= ((0x01 << ch_num) << 16);
 446              		.loc 1 236 0
 447 0146 022F     		cmp	r7, #2
 227:../asf/sam/drivers/pwm/pwm.c **** 	} else {
 448              		.loc 1 227 0
 449 0148 C0F8C020 		str	r2, [r0, #192]
 236:../asf/sam/drivers/pwm/pwm.c **** 		p_pwm->PWM_FPV2 |= ((0x01 << ch_num) << 16);
 450              		.loc 1 236 0
 451 014c B8D1     		bne	.L29
 452              	.L40:
 237:../asf/sam/drivers/pwm/pwm.c **** 	} else {
 453              		.loc 1 237 0
 454 014e D0F8C020 		ldr	r2, [r0, #192]
 455 0152 42EA0642 		orr	r2, r2, r6, lsl #16
 456 0156 C0F8C020 		str	r2, [r0, #192]
 457 015a BFE7     		b	.L30
 458              	.L41:
 241:../asf/sam/drivers/pwm/pwm.c **** 		} else {
 459              		.loc 1 241 0
 460 015c 846E     		ldr	r4, [r0, #104]
 461 015e 2243     		orrs	r2, r2, r4
 462 0160 8266     		str	r2, [r0, #104]
 463 0162 BBE7     		b	.L30
 464              	.LVL48:
 465              	.L39:
 231:../asf/sam/drivers/pwm/pwm.c **** 		} else {
 466              		.loc 1 231 0
 467 0164 826E     		ldr	r2, [r0, #104]
 468 0166 3243     		orrs	r2, r2, r6
 469 0168 8266     		str	r2, [r0, #104]
 470 016a A5E7     		b	.L27
 471              		.cfi_endproc
 472              	.LFE144:
 473              		.size	pwm_channel_init, .-pwm_channel_init
 474              		.section	.text.pwm_channel_update_period,"ax",%progbits
 475              		.align	1
 476              		.p2align 2,,3
ARM GAS  /tmp/ccmSFvTJ.s 			page 16


 477              		.global	pwm_channel_update_period
 478              		.syntax unified
 479              		.thumb
 480              		.thumb_func
 481              		.fpu fpv5-d16
 482              		.type	pwm_channel_update_period, %function
 483              	pwm_channel_update_period:
 484              	.LFB145:
 315:../asf/sam/drivers/pwm/pwm.c **** 
 316:../asf/sam/drivers/pwm/pwm.c **** /**
 317:../asf/sam/drivers/pwm/pwm.c ****  * \brief Change the period of the PWM channel.
 318:../asf/sam/drivers/pwm/pwm.c ****  *
 319:../asf/sam/drivers/pwm/pwm.c ****  * \param p_pwm Pointer to a PWM instance.
 320:../asf/sam/drivers/pwm/pwm.c ****  * \param p_channel Configurations of the specified PWM channel.
 321:../asf/sam/drivers/pwm/pwm.c ****  * \param ul_period New period value.
 322:../asf/sam/drivers/pwm/pwm.c ****  *
 323:../asf/sam/drivers/pwm/pwm.c ****  * \retval 0 if changing succeeds, otherwise fails.
 324:../asf/sam/drivers/pwm/pwm.c ****  */
 325:../asf/sam/drivers/pwm/pwm.c **** uint32_t pwm_channel_update_period(Pwm *p_pwm, pwm_channel_t *p_channel,
 326:../asf/sam/drivers/pwm/pwm.c **** 		uint32_t ul_period)
 327:../asf/sam/drivers/pwm/pwm.c **** {
 485              		.loc 1 327 0
 486              		.cfi_startproc
 487              		@ args = 0, pretend = 0, frame = 0
 488              		@ frame_needed = 0, uses_anonymous_args = 0
 489              		@ link register save eliminated.
 490              	.LVL49:
 328:../asf/sam/drivers/pwm/pwm.c **** 	uint32_t ch_num = p_channel->channel;
 329:../asf/sam/drivers/pwm/pwm.c **** 
 330:../asf/sam/drivers/pwm/pwm.c **** 	/** Check parameter */
 331:../asf/sam/drivers/pwm/pwm.c **** 	if (p_channel->ul_duty > ul_period) {
 491              		.loc 1 331 0
 492 0000 CB68     		ldr	r3, [r1, #12]
 493 0002 9342     		cmp	r3, r2
 494 0004 03D9     		bls	.L49
 332:../asf/sam/drivers/pwm/pwm.c **** 		return PWM_INVALID_ARGUMENT;
 495              		.loc 1 332 0
 496 0006 4FF6FF73 		movw	r3, #65535
 333:../asf/sam/drivers/pwm/pwm.c **** 	} else {
 334:../asf/sam/drivers/pwm/pwm.c **** 		/* Save new period value */
 335:../asf/sam/drivers/pwm/pwm.c **** 		p_channel->ul_period = ul_period;
 336:../asf/sam/drivers/pwm/pwm.c **** 
 337:../asf/sam/drivers/pwm/pwm.c **** #if (SAM3N || SAM4N || SAM4C || SAM4CP || SAM4CM)
 338:../asf/sam/drivers/pwm/pwm.c **** 		/* Set CPD bit to change period value */
 339:../asf/sam/drivers/pwm/pwm.c **** 		p_pwm->PWM_CH_NUM[ch_num].PWM_CMR |= PWM_CMR_CPD;
 340:../asf/sam/drivers/pwm/pwm.c **** 
 341:../asf/sam/drivers/pwm/pwm.c **** 		p_pwm->PWM_CH_NUM[ch_num].PWM_CUPD = ul_period;
 342:../asf/sam/drivers/pwm/pwm.c **** #else
 343:../asf/sam/drivers/pwm/pwm.c **** 		p_pwm->PWM_CH_NUM[ch_num].PWM_CPRDUPD = ul_period;
 344:../asf/sam/drivers/pwm/pwm.c **** #endif
 345:../asf/sam/drivers/pwm/pwm.c **** 	}
 346:../asf/sam/drivers/pwm/pwm.c **** 
 347:../asf/sam/drivers/pwm/pwm.c **** 	return 0;
 348:../asf/sam/drivers/pwm/pwm.c **** }
 497              		.loc 1 348 0
 498 000a 1846     		mov	r0, r3
 499              	.LVL50:
ARM GAS  /tmp/ccmSFvTJ.s 			page 17


 500 000c 7047     		bx	lr
 501              	.LVL51:
 502              	.L49:
 327:../asf/sam/drivers/pwm/pwm.c **** 	uint32_t ch_num = p_channel->channel;
 503              		.loc 1 327 0
 504 000e 10B4     		push	{r4}
 505              		.cfi_def_cfa_offset 4
 506              		.cfi_offset 4, -4
 328:../asf/sam/drivers/pwm/pwm.c **** 
 507              		.loc 1 328 0
 508 0010 0C68     		ldr	r4, [r1]
 347:../asf/sam/drivers/pwm/pwm.c **** }
 509              		.loc 1 347 0
 510 0012 0023     		movs	r3, #0
 335:../asf/sam/drivers/pwm/pwm.c **** 
 511              		.loc 1 335 0
 512 0014 0A61     		str	r2, [r1, #16]
 343:../asf/sam/drivers/pwm/pwm.c **** #endif
 513              		.loc 1 343 0
 514 0016 00EB4410 		add	r0, r0, r4, lsl #5
 515              	.LVL52:
 516              		.loc 1 348 0
 517 001a 5DF8044B 		ldr	r4, [sp], #4
 518              		.cfi_restore 4
 519              		.cfi_def_cfa_offset 0
 343:../asf/sam/drivers/pwm/pwm.c **** #endif
 520              		.loc 1 343 0
 521 001e C0F81022 		str	r2, [r0, #528]
 522              		.loc 1 348 0
 523 0022 1846     		mov	r0, r3
 524 0024 7047     		bx	lr
 525              		.cfi_endproc
 526              	.LFE145:
 527              		.size	pwm_channel_update_period, .-pwm_channel_update_period
 528 0026 00BF     		.section	.text.pwm_channel_update_duty,"ax",%progbits
 529              		.align	1
 530              		.p2align 2,,3
 531              		.global	pwm_channel_update_duty
 532              		.syntax unified
 533              		.thumb
 534              		.thumb_func
 535              		.fpu fpv5-d16
 536              		.type	pwm_channel_update_duty, %function
 537              	pwm_channel_update_duty:
 538              	.LFB146:
 349:../asf/sam/drivers/pwm/pwm.c **** 
 350:../asf/sam/drivers/pwm/pwm.c **** /**
 351:../asf/sam/drivers/pwm/pwm.c ****  * \brief Change the duty cycle of the PWM channel.
 352:../asf/sam/drivers/pwm/pwm.c ****  *
 353:../asf/sam/drivers/pwm/pwm.c ****  * \param p_pwm Pointer to a PWM instance.
 354:../asf/sam/drivers/pwm/pwm.c ****  * \param p_channel Configurations of the specified PWM channel.
 355:../asf/sam/drivers/pwm/pwm.c ****  * \param ul_duty New duty cycle value.
 356:../asf/sam/drivers/pwm/pwm.c ****  *
 357:../asf/sam/drivers/pwm/pwm.c ****  * \retval 0 if changing succeeds, otherwise fails.
 358:../asf/sam/drivers/pwm/pwm.c ****  */
 359:../asf/sam/drivers/pwm/pwm.c **** uint32_t pwm_channel_update_duty(Pwm *p_pwm, pwm_channel_t *p_channel,
 360:../asf/sam/drivers/pwm/pwm.c **** 		uint32_t ul_duty)
ARM GAS  /tmp/ccmSFvTJ.s 			page 18


 361:../asf/sam/drivers/pwm/pwm.c **** {
 539              		.loc 1 361 0
 540              		.cfi_startproc
 541              		@ args = 0, pretend = 0, frame = 0
 542              		@ frame_needed = 0, uses_anonymous_args = 0
 543              		@ link register save eliminated.
 544              	.LVL53:
 362:../asf/sam/drivers/pwm/pwm.c **** 	uint32_t ch_num = p_channel->channel;
 363:../asf/sam/drivers/pwm/pwm.c **** 
 364:../asf/sam/drivers/pwm/pwm.c **** 		/** Check parameter */
 365:../asf/sam/drivers/pwm/pwm.c **** 	if (p_channel->ul_period < ul_duty) {
 545              		.loc 1 365 0
 546 0000 0B69     		ldr	r3, [r1, #16]
 547 0002 9342     		cmp	r3, r2
 548 0004 03D2     		bcs	.L57
 366:../asf/sam/drivers/pwm/pwm.c **** 		return PWM_INVALID_ARGUMENT;
 549              		.loc 1 366 0
 550 0006 4FF6FF73 		movw	r3, #65535
 367:../asf/sam/drivers/pwm/pwm.c **** 	} else {
 368:../asf/sam/drivers/pwm/pwm.c **** 		/* Save new duty cycle value */
 369:../asf/sam/drivers/pwm/pwm.c **** 		p_channel->ul_duty = ul_duty;
 370:../asf/sam/drivers/pwm/pwm.c **** 
 371:../asf/sam/drivers/pwm/pwm.c **** #if (SAM3N || SAM4N || SAM4C || SAM4CP || SAM4CM)
 372:../asf/sam/drivers/pwm/pwm.c **** 		/* Clear CPD bit to change duty cycle value */
 373:../asf/sam/drivers/pwm/pwm.c **** 		uint32_t mode = p_pwm->PWM_CH_NUM[ch_num].PWM_CMR;
 374:../asf/sam/drivers/pwm/pwm.c **** 		mode &= ~PWM_CMR_CPD;
 375:../asf/sam/drivers/pwm/pwm.c **** 		p_pwm->PWM_CH_NUM[ch_num].PWM_CMR = mode;
 376:../asf/sam/drivers/pwm/pwm.c **** 
 377:../asf/sam/drivers/pwm/pwm.c **** 		p_pwm->PWM_CH_NUM[ch_num].PWM_CUPD = ul_duty;
 378:../asf/sam/drivers/pwm/pwm.c **** #else
 379:../asf/sam/drivers/pwm/pwm.c **** 		p_pwm->PWM_CH_NUM[ch_num].PWM_CDTYUPD = ul_duty;
 380:../asf/sam/drivers/pwm/pwm.c **** #endif
 381:../asf/sam/drivers/pwm/pwm.c **** 	}
 382:../asf/sam/drivers/pwm/pwm.c **** 
 383:../asf/sam/drivers/pwm/pwm.c **** 	return 0;
 384:../asf/sam/drivers/pwm/pwm.c **** }
 551              		.loc 1 384 0
 552 000a 1846     		mov	r0, r3
 553              	.LVL54:
 554 000c 7047     		bx	lr
 555              	.LVL55:
 556              	.L57:
 361:../asf/sam/drivers/pwm/pwm.c **** 	uint32_t ch_num = p_channel->channel;
 557              		.loc 1 361 0
 558 000e 10B4     		push	{r4}
 559              		.cfi_def_cfa_offset 4
 560              		.cfi_offset 4, -4
 362:../asf/sam/drivers/pwm/pwm.c **** 
 561              		.loc 1 362 0
 562 0010 0C68     		ldr	r4, [r1]
 383:../asf/sam/drivers/pwm/pwm.c **** }
 563              		.loc 1 383 0
 564 0012 0023     		movs	r3, #0
 369:../asf/sam/drivers/pwm/pwm.c **** 
 565              		.loc 1 369 0
 566 0014 CA60     		str	r2, [r1, #12]
 379:../asf/sam/drivers/pwm/pwm.c **** #endif
ARM GAS  /tmp/ccmSFvTJ.s 			page 19


 567              		.loc 1 379 0
 568 0016 00EB4410 		add	r0, r0, r4, lsl #5
 569              	.LVL56:
 570              		.loc 1 384 0
 571 001a 5DF8044B 		ldr	r4, [sp], #4
 572              		.cfi_restore 4
 573              		.cfi_def_cfa_offset 0
 379:../asf/sam/drivers/pwm/pwm.c **** #endif
 574              		.loc 1 379 0
 575 001e C0F80822 		str	r2, [r0, #520]
 576              		.loc 1 384 0
 577 0022 1846     		mov	r0, r3
 578 0024 7047     		bx	lr
 579              		.cfi_endproc
 580              	.LFE146:
 581              		.size	pwm_channel_update_duty, .-pwm_channel_update_duty
 582 0026 00BF     		.section	.text.pwm_channel_get_counter,"ax",%progbits
 583              		.align	1
 584              		.p2align 2,,3
 585              		.global	pwm_channel_get_counter
 586              		.syntax unified
 587              		.thumb
 588              		.thumb_func
 589              		.fpu fpv5-d16
 590              		.type	pwm_channel_get_counter, %function
 591              	pwm_channel_get_counter:
 592              	.LFB147:
 385:../asf/sam/drivers/pwm/pwm.c **** 
 386:../asf/sam/drivers/pwm/pwm.c **** /**
 387:../asf/sam/drivers/pwm/pwm.c ****  * \brief Return channel counter value.
 388:../asf/sam/drivers/pwm/pwm.c ****  *
 389:../asf/sam/drivers/pwm/pwm.c ****  * \param p_pwm Pointer to a PWM instance.
 390:../asf/sam/drivers/pwm/pwm.c ****  * \param p_channel Configurations of the specified PWM channel.
 391:../asf/sam/drivers/pwm/pwm.c ****  *
 392:../asf/sam/drivers/pwm/pwm.c ****  * \return channel Counter value.
 393:../asf/sam/drivers/pwm/pwm.c ****  */
 394:../asf/sam/drivers/pwm/pwm.c **** uint32_t pwm_channel_get_counter(Pwm *p_pwm, pwm_channel_t *p_channel)
 395:../asf/sam/drivers/pwm/pwm.c **** {
 593              		.loc 1 395 0
 594              		.cfi_startproc
 595              		@ args = 0, pretend = 0, frame = 0
 596              		@ frame_needed = 0, uses_anonymous_args = 0
 597              		@ link register save eliminated.
 598              	.LVL57:
 396:../asf/sam/drivers/pwm/pwm.c **** 	return p_pwm->PWM_CH_NUM[p_channel->channel].PWM_CCNT;
 599              		.loc 1 396 0
 600 0000 0B68     		ldr	r3, [r1]
 601 0002 00EB4310 		add	r0, r0, r3, lsl #5
 602              	.LVL58:
 603 0006 D0F81402 		ldr	r0, [r0, #532]
 397:../asf/sam/drivers/pwm/pwm.c **** }
 604              		.loc 1 397 0
 605 000a 7047     		bx	lr
 606              		.cfi_endproc
 607              	.LFE147:
 608              		.size	pwm_channel_get_counter, .-pwm_channel_get_counter
 609              		.section	.text.pwm_channel_enable,"ax",%progbits
ARM GAS  /tmp/ccmSFvTJ.s 			page 20


 610              		.align	1
 611              		.p2align 2,,3
 612              		.global	pwm_channel_enable
 613              		.syntax unified
 614              		.thumb
 615              		.thumb_func
 616              		.fpu fpv5-d16
 617              		.type	pwm_channel_enable, %function
 618              	pwm_channel_enable:
 619              	.LFB148:
 398:../asf/sam/drivers/pwm/pwm.c **** 
 399:../asf/sam/drivers/pwm/pwm.c **** 
 400:../asf/sam/drivers/pwm/pwm.c **** /**
 401:../asf/sam/drivers/pwm/pwm.c ****  * \brief Enable the PWM channel.
 402:../asf/sam/drivers/pwm/pwm.c ****  *
 403:../asf/sam/drivers/pwm/pwm.c ****  * \note The PWM channel should be initialized by pwm_channel_init() before it is enabled.
 404:../asf/sam/drivers/pwm/pwm.c ****  *
 405:../asf/sam/drivers/pwm/pwm.c ****  * \param p_pwm Pointer to a PWM instance.
 406:../asf/sam/drivers/pwm/pwm.c ****  * \param ul_channel PWM channel number to enable.
 407:../asf/sam/drivers/pwm/pwm.c ****  */
 408:../asf/sam/drivers/pwm/pwm.c **** void pwm_channel_enable(Pwm *p_pwm, uint32_t ul_channel)
 409:../asf/sam/drivers/pwm/pwm.c **** {
 620              		.loc 1 409 0
 621              		.cfi_startproc
 622              		@ args = 0, pretend = 0, frame = 0
 623              		@ frame_needed = 0, uses_anonymous_args = 0
 624              		@ link register save eliminated.
 625              	.LVL59:
 410:../asf/sam/drivers/pwm/pwm.c **** 	p_pwm->PWM_ENA = (1 << ul_channel);
 626              		.loc 1 410 0
 627 0000 0123     		movs	r3, #1
 628 0002 03FA01F1 		lsl	r1, r3, r1
 629              	.LVL60:
 630 0006 4160     		str	r1, [r0, #4]
 631 0008 7047     		bx	lr
 632              		.cfi_endproc
 633              	.LFE148:
 634              		.size	pwm_channel_enable, .-pwm_channel_enable
 635              		.section	.text.pwm_channel_disable,"ax",%progbits
 636              		.align	1
 637              		.p2align 2,,3
 638              		.global	pwm_channel_disable
 639              		.syntax unified
 640              		.thumb
 641              		.thumb_func
 642              		.fpu fpv5-d16
 643              		.type	pwm_channel_disable, %function
 644              	pwm_channel_disable:
 645              	.LFB149:
 411:../asf/sam/drivers/pwm/pwm.c **** }
 412:../asf/sam/drivers/pwm/pwm.c **** 
 413:../asf/sam/drivers/pwm/pwm.c **** /**
 414:../asf/sam/drivers/pwm/pwm.c ****  * \brief Disable the PWM channel.
 415:../asf/sam/drivers/pwm/pwm.c ****  *
 416:../asf/sam/drivers/pwm/pwm.c ****  * \note A disabled PWM channel can be re-initialized using pwm_channel_init().
 417:../asf/sam/drivers/pwm/pwm.c ****  *
 418:../asf/sam/drivers/pwm/pwm.c ****  * \param p_pwm Pointer to a PWM instance.
ARM GAS  /tmp/ccmSFvTJ.s 			page 21


 419:../asf/sam/drivers/pwm/pwm.c ****  * \param ul_channel PWM channel number to disable.
 420:../asf/sam/drivers/pwm/pwm.c ****  */
 421:../asf/sam/drivers/pwm/pwm.c **** void pwm_channel_disable(Pwm *p_pwm, uint32_t ul_channel)
 422:../asf/sam/drivers/pwm/pwm.c **** {
 646              		.loc 1 422 0
 647              		.cfi_startproc
 648              		@ args = 0, pretend = 0, frame = 0
 649              		@ frame_needed = 0, uses_anonymous_args = 0
 650              		@ link register save eliminated.
 651              	.LVL61:
 423:../asf/sam/drivers/pwm/pwm.c **** 	p_pwm->PWM_DIS = (1 << ul_channel);
 652              		.loc 1 423 0
 653 0000 0123     		movs	r3, #1
 654 0002 03FA01F1 		lsl	r1, r3, r1
 655              	.LVL62:
 656 0006 8160     		str	r1, [r0, #8]
 657 0008 7047     		bx	lr
 658              		.cfi_endproc
 659              	.LFE149:
 660              		.size	pwm_channel_disable, .-pwm_channel_disable
 661              		.section	.text.pwm_channel_get_status,"ax",%progbits
 662              		.align	1
 663              		.p2align 2,,3
 664              		.global	pwm_channel_get_status
 665              		.syntax unified
 666              		.thumb
 667              		.thumb_func
 668              		.fpu fpv5-d16
 669              		.type	pwm_channel_get_status, %function
 670              	pwm_channel_get_status:
 671              	.LFB150:
 424:../asf/sam/drivers/pwm/pwm.c **** }
 425:../asf/sam/drivers/pwm/pwm.c **** 
 426:../asf/sam/drivers/pwm/pwm.c **** 
 427:../asf/sam/drivers/pwm/pwm.c **** /**
 428:../asf/sam/drivers/pwm/pwm.c ****  * \brief Check which PWM channel is enabled.
 429:../asf/sam/drivers/pwm/pwm.c ****  *
 430:../asf/sam/drivers/pwm/pwm.c ****  * \param p_pwm Pointer to a PWM instance.
 431:../asf/sam/drivers/pwm/pwm.c ****  * \param p_channel Configurations of the specified PWM channel.
 432:../asf/sam/drivers/pwm/pwm.c ****  *
 433:../asf/sam/drivers/pwm/pwm.c ****  * \return Bitmask of enabled PWM channel(s).
 434:../asf/sam/drivers/pwm/pwm.c ****  */
 435:../asf/sam/drivers/pwm/pwm.c **** uint32_t pwm_channel_get_status(Pwm *p_pwm)
 436:../asf/sam/drivers/pwm/pwm.c **** {
 672              		.loc 1 436 0
 673              		.cfi_startproc
 674              		@ args = 0, pretend = 0, frame = 0
 675              		@ frame_needed = 0, uses_anonymous_args = 0
 676              		@ link register save eliminated.
 677              	.LVL63:
 437:../asf/sam/drivers/pwm/pwm.c **** 	return p_pwm->PWM_SR;
 678              		.loc 1 437 0
 679 0000 C068     		ldr	r0, [r0, #12]
 680              	.LVL64:
 438:../asf/sam/drivers/pwm/pwm.c **** }
 681              		.loc 1 438 0
 682 0002 7047     		bx	lr
ARM GAS  /tmp/ccmSFvTJ.s 			page 22


 683              		.cfi_endproc
 684              	.LFE150:
 685              		.size	pwm_channel_get_status, .-pwm_channel_get_status
 686              		.section	.text.pwm_channel_get_interrupt_status,"ax",%progbits
 687              		.align	1
 688              		.p2align 2,,3
 689              		.global	pwm_channel_get_interrupt_status
 690              		.syntax unified
 691              		.thumb
 692              		.thumb_func
 693              		.fpu fpv5-d16
 694              		.type	pwm_channel_get_interrupt_status, %function
 695              	pwm_channel_get_interrupt_status:
 696              	.LFB151:
 439:../asf/sam/drivers/pwm/pwm.c **** 
 440:../asf/sam/drivers/pwm/pwm.c **** /**
 441:../asf/sam/drivers/pwm/pwm.c ****  * \brief Get channel counter event and fault protection trigger interrupt status.
 442:../asf/sam/drivers/pwm/pwm.c ****  *
 443:../asf/sam/drivers/pwm/pwm.c ****  * \param p_pwm Pointer to a PWM instance.
 444:../asf/sam/drivers/pwm/pwm.c ****  *
 445:../asf/sam/drivers/pwm/pwm.c ****  * \return Channel counter event and fault protection trigger interrupt status.
 446:../asf/sam/drivers/pwm/pwm.c ****  */
 447:../asf/sam/drivers/pwm/pwm.c **** uint32_t pwm_channel_get_interrupt_status(Pwm *p_pwm)
 448:../asf/sam/drivers/pwm/pwm.c **** {
 697              		.loc 1 448 0
 698              		.cfi_startproc
 699              		@ args = 0, pretend = 0, frame = 0
 700              		@ frame_needed = 0, uses_anonymous_args = 0
 701              		@ link register save eliminated.
 702              	.LVL65:
 449:../asf/sam/drivers/pwm/pwm.c **** #if (SAM3N || SAM4N || SAM4C || SAM4CP || SAM4CM)
 450:../asf/sam/drivers/pwm/pwm.c **** 	return p_pwm->PWM_ISR;
 451:../asf/sam/drivers/pwm/pwm.c **** #else
 452:../asf/sam/drivers/pwm/pwm.c **** 	return p_pwm->PWM_ISR1;
 703              		.loc 1 452 0
 704 0000 C069     		ldr	r0, [r0, #28]
 705              	.LVL66:
 453:../asf/sam/drivers/pwm/pwm.c **** #endif
 454:../asf/sam/drivers/pwm/pwm.c **** }
 706              		.loc 1 454 0
 707 0002 7047     		bx	lr
 708              		.cfi_endproc
 709              	.LFE151:
 710              		.size	pwm_channel_get_interrupt_status, .-pwm_channel_get_interrupt_status
 711              		.section	.text.pwm_channel_get_interrupt_mask,"ax",%progbits
 712              		.align	1
 713              		.p2align 2,,3
 714              		.global	pwm_channel_get_interrupt_mask
 715              		.syntax unified
 716              		.thumb
 717              		.thumb_func
 718              		.fpu fpv5-d16
 719              		.type	pwm_channel_get_interrupt_mask, %function
 720              	pwm_channel_get_interrupt_mask:
 721              	.LFB152:
 455:../asf/sam/drivers/pwm/pwm.c **** 
 456:../asf/sam/drivers/pwm/pwm.c **** /**
ARM GAS  /tmp/ccmSFvTJ.s 			page 23


 457:../asf/sam/drivers/pwm/pwm.c ****  * \brief Get channel counter event and fault protection trigger interrupt mask.
 458:../asf/sam/drivers/pwm/pwm.c ****  *
 459:../asf/sam/drivers/pwm/pwm.c ****  * \param p_pwm Pointer to a PWM instance.
 460:../asf/sam/drivers/pwm/pwm.c ****  *
 461:../asf/sam/drivers/pwm/pwm.c ****  * \return Channel counter event and fault protection trigger interrupt mask.
 462:../asf/sam/drivers/pwm/pwm.c ****  */
 463:../asf/sam/drivers/pwm/pwm.c **** uint32_t pwm_channel_get_interrupt_mask(Pwm *p_pwm)
 464:../asf/sam/drivers/pwm/pwm.c **** {
 722              		.loc 1 464 0
 723              		.cfi_startproc
 724              		@ args = 0, pretend = 0, frame = 0
 725              		@ frame_needed = 0, uses_anonymous_args = 0
 726              		@ link register save eliminated.
 727              	.LVL67:
 465:../asf/sam/drivers/pwm/pwm.c **** #if (SAM3N || SAM4N || SAM4C || SAM4CP || SAM4CM)
 466:../asf/sam/drivers/pwm/pwm.c **** 	return p_pwm->PWM_IMR;
 467:../asf/sam/drivers/pwm/pwm.c **** #else
 468:../asf/sam/drivers/pwm/pwm.c **** 	return p_pwm->PWM_IMR1;
 728              		.loc 1 468 0
 729 0000 8069     		ldr	r0, [r0, #24]
 730              	.LVL68:
 469:../asf/sam/drivers/pwm/pwm.c **** #endif
 470:../asf/sam/drivers/pwm/pwm.c **** }
 731              		.loc 1 470 0
 732 0002 7047     		bx	lr
 733              		.cfi_endproc
 734              	.LFE152:
 735              		.size	pwm_channel_get_interrupt_mask, .-pwm_channel_get_interrupt_mask
 736              		.section	.text.pwm_channel_enable_interrupt,"ax",%progbits
 737              		.align	1
 738              		.p2align 2,,3
 739              		.global	pwm_channel_enable_interrupt
 740              		.syntax unified
 741              		.thumb
 742              		.thumb_func
 743              		.fpu fpv5-d16
 744              		.type	pwm_channel_enable_interrupt, %function
 745              	pwm_channel_enable_interrupt:
 746              	.LFB153:
 471:../asf/sam/drivers/pwm/pwm.c **** 
 472:../asf/sam/drivers/pwm/pwm.c **** /**
 473:../asf/sam/drivers/pwm/pwm.c ****  * \brief Enable the interrupt of a channel counter event and fault protection.
 474:../asf/sam/drivers/pwm/pwm.c ****  *
 475:../asf/sam/drivers/pwm/pwm.c ****  * \param p_pwm Pointer to a PWM instance.
 476:../asf/sam/drivers/pwm/pwm.c ****  * \param ul_event Channel number to enable counter event interrupt.
 477:../asf/sam/drivers/pwm/pwm.c ****  * \param ul_fault Channel number to enable fault protection interrupt(ignored
 478:../asf/sam/drivers/pwm/pwm.c ****  * by SAM3N/SAM4N/SAM4C/SAM4CP/SAM4CM).
 479:../asf/sam/drivers/pwm/pwm.c ****  */
 480:../asf/sam/drivers/pwm/pwm.c **** void pwm_channel_enable_interrupt(Pwm *p_pwm, uint32_t ul_event,
 481:../asf/sam/drivers/pwm/pwm.c **** 		uint32_t ul_fault)
 482:../asf/sam/drivers/pwm/pwm.c **** {
 747              		.loc 1 482 0
 748              		.cfi_startproc
 749              		@ args = 0, pretend = 0, frame = 0
 750              		@ frame_needed = 0, uses_anonymous_args = 0
 751              		@ link register save eliminated.
 752              	.LVL69:
ARM GAS  /tmp/ccmSFvTJ.s 			page 24


 483:../asf/sam/drivers/pwm/pwm.c **** #if (SAM3N || SAM4N || SAM4C || SAM4CP || SAM4CM)
 484:../asf/sam/drivers/pwm/pwm.c **** 	p_pwm->PWM_IER = (1 << ul_event);
 485:../asf/sam/drivers/pwm/pwm.c **** 	/* avoid Cppcheck Warning */
 486:../asf/sam/drivers/pwm/pwm.c **** 	UNUSED(ul_fault);
 487:../asf/sam/drivers/pwm/pwm.c **** #else
 488:../asf/sam/drivers/pwm/pwm.c **** 	p_pwm->PWM_IER1 = (1 << ul_event) | (1 << (ul_fault + 16));
 753              		.loc 1 488 0
 754 0000 0123     		movs	r3, #1
 755 0002 1032     		adds	r2, r2, #16
 756              	.LVL70:
 757 0004 03FA01F1 		lsl	r1, r3, r1
 758              	.LVL71:
 759 0008 03FA02F2 		lsl	r2, r3, r2
 760              	.LVL72:
 761 000c 0A43     		orrs	r2, r2, r1
 762 000e 0261     		str	r2, [r0, #16]
 763 0010 7047     		bx	lr
 764              		.cfi_endproc
 765              	.LFE153:
 766              		.size	pwm_channel_enable_interrupt, .-pwm_channel_enable_interrupt
 767 0012 00BF     		.section	.text.pwm_channel_disable_interrupt,"ax",%progbits
 768              		.align	1
 769              		.p2align 2,,3
 770              		.global	pwm_channel_disable_interrupt
 771              		.syntax unified
 772              		.thumb
 773              		.thumb_func
 774              		.fpu fpv5-d16
 775              		.type	pwm_channel_disable_interrupt, %function
 776              	pwm_channel_disable_interrupt:
 777              	.LFB154:
 489:../asf/sam/drivers/pwm/pwm.c **** #endif
 490:../asf/sam/drivers/pwm/pwm.c **** }
 491:../asf/sam/drivers/pwm/pwm.c **** 
 492:../asf/sam/drivers/pwm/pwm.c **** 
 493:../asf/sam/drivers/pwm/pwm.c **** /**
 494:../asf/sam/drivers/pwm/pwm.c ****  * \brief Disable the interrupt of a channel counter event and fault protection.
 495:../asf/sam/drivers/pwm/pwm.c ****  *
 496:../asf/sam/drivers/pwm/pwm.c ****  * \param p_pwm Pointer to a PWM instance.
 497:../asf/sam/drivers/pwm/pwm.c ****  * \param ul_event Bitmask of channel number to disable counter event interrupt.
 498:../asf/sam/drivers/pwm/pwm.c ****  * \param ul_fault Bitmask of channel number to disable fault protection
 499:../asf/sam/drivers/pwm/pwm.c ****  * interrupt(ignored by SAM3N/SAM4N/SAM4C/SAM4CP/SAM4CM).
 500:../asf/sam/drivers/pwm/pwm.c ****  */
 501:../asf/sam/drivers/pwm/pwm.c **** void pwm_channel_disable_interrupt(Pwm *p_pwm, uint32_t ul_event,
 502:../asf/sam/drivers/pwm/pwm.c **** 		uint32_t ul_fault)
 503:../asf/sam/drivers/pwm/pwm.c **** {
 778              		.loc 1 503 0
 779              		.cfi_startproc
 780              		@ args = 0, pretend = 0, frame = 0
 781              		@ frame_needed = 0, uses_anonymous_args = 0
 782              		@ link register save eliminated.
 783              	.LVL73:
 504:../asf/sam/drivers/pwm/pwm.c **** #if (SAM3N || SAM4N || SAM4C || SAM4CP || SAM4CM)
 505:../asf/sam/drivers/pwm/pwm.c **** 	p_pwm->PWM_IDR = (1 << ul_event);
 506:../asf/sam/drivers/pwm/pwm.c **** 	/* avoid Cppcheck Warning */
 507:../asf/sam/drivers/pwm/pwm.c **** 	UNUSED(ul_fault);
 508:../asf/sam/drivers/pwm/pwm.c **** #else
ARM GAS  /tmp/ccmSFvTJ.s 			page 25


 509:../asf/sam/drivers/pwm/pwm.c **** 	p_pwm->PWM_IDR1 = (1 << ul_event) | (1 << (ul_fault + 16));
 784              		.loc 1 509 0
 785 0000 0123     		movs	r3, #1
 786 0002 1032     		adds	r2, r2, #16
 787              	.LVL74:
 788 0004 03FA01F1 		lsl	r1, r3, r1
 789              	.LVL75:
 790 0008 03FA02F2 		lsl	r2, r3, r2
 791              	.LVL76:
 792 000c 0A43     		orrs	r2, r2, r1
 793 000e 4261     		str	r2, [r0, #20]
 794 0010 7047     		bx	lr
 795              		.cfi_endproc
 796              	.LFE154:
 797              		.size	pwm_channel_disable_interrupt, .-pwm_channel_disable_interrupt
 798 0012 00BF     		.section	.text.pwm_channel_update_output,"ax",%progbits
 799              		.align	1
 800              		.p2align 2,,3
 801              		.global	pwm_channel_update_output
 802              		.syntax unified
 803              		.thumb
 804              		.thumb_func
 805              		.fpu fpv5-d16
 806              		.type	pwm_channel_update_output, %function
 807              	pwm_channel_update_output:
 808              	.LFB155:
 510:../asf/sam/drivers/pwm/pwm.c **** #endif
 511:../asf/sam/drivers/pwm/pwm.c **** }
 512:../asf/sam/drivers/pwm/pwm.c **** 
 513:../asf/sam/drivers/pwm/pwm.c **** 
 514:../asf/sam/drivers/pwm/pwm.c **** #if (SAM3U || SAM3S || SAM3XA || SAM4S || SAM4E || SAMV70 || SAMV71 || SAME70 || SAMS70)
 515:../asf/sam/drivers/pwm/pwm.c **** /**
 516:../asf/sam/drivers/pwm/pwm.c ****  * \brief Change output selection of the PWM channel.
 517:../asf/sam/drivers/pwm/pwm.c ****  *
 518:../asf/sam/drivers/pwm/pwm.c ****  * \param p_pwm Pointer to a PWM instance.
 519:../asf/sam/drivers/pwm/pwm.c ****  * \param p_channel Configurations of the specified PWM channel.
 520:../asf/sam/drivers/pwm/pwm.c ****  * \param p_output New PWM channel output selection.
 521:../asf/sam/drivers/pwm/pwm.c ****  * \param b_sync Boolean of changing of output selection. Set true to change the output synchronous
 522:../asf/sam/drivers/pwm/pwm.c ****  */
 523:../asf/sam/drivers/pwm/pwm.c **** void pwm_channel_update_output(Pwm *p_pwm, pwm_channel_t *p_channel,
 524:../asf/sam/drivers/pwm/pwm.c **** 		pwm_output_t *p_output, bool b_sync)
 525:../asf/sam/drivers/pwm/pwm.c **** {
 809              		.loc 1 525 0
 810              		.cfi_startproc
 811              		@ args = 0, pretend = 0, frame = 0
 812              		@ frame_needed = 0, uses_anonymous_args = 0
 813              	.LVL77:
 814 0000 F0B5     		push	{r4, r5, r6, r7, lr}
 815              		.cfi_def_cfa_offset 20
 816              		.cfi_offset 4, -20
 817              		.cfi_offset 5, -16
 818              		.cfi_offset 6, -12
 819              		.cfi_offset 7, -8
 820              		.cfi_offset 14, -4
 526:../asf/sam/drivers/pwm/pwm.c **** 	uint32_t ch_num = p_channel->channel;
 527:../asf/sam/drivers/pwm/pwm.c **** #if 0	// dc42
 528:../asf/sam/drivers/pwm/pwm.c **** 	uint32_t channel = (1 << ch_num);
ARM GAS  /tmp/ccmSFvTJ.s 			page 26


 529:../asf/sam/drivers/pwm/pwm.c **** #endif
 530:../asf/sam/drivers/pwm/pwm.c **** 
 531:../asf/sam/drivers/pwm/pwm.c **** 	bool override_pwmh = p_output->b_override_pwmh;
 532:../asf/sam/drivers/pwm/pwm.c **** 	bool override_pwml = p_output->b_override_pwml;
 533:../asf/sam/drivers/pwm/pwm.c **** 	uint32_t pwmh = p_output->override_level_pwmh;
 821              		.loc 1 533 0
 822 0002 92F802C0 		ldrb	ip, [r2, #2]	@ zero_extendqisi2
 534:../asf/sam/drivers/pwm/pwm.c **** 	uint32_t pwml = p_output->override_level_pwml;
 535:../asf/sam/drivers/pwm/pwm.c **** 
 536:../asf/sam/drivers/pwm/pwm.c **** 	/* Save new output configuration */
 537:../asf/sam/drivers/pwm/pwm.c **** 	p_channel->output_selection.b_override_pwmh = override_pwmh;
 538:../asf/sam/drivers/pwm/pwm.c **** 	p_channel->output_selection.b_override_pwml = override_pwml;
 539:../asf/sam/drivers/pwm/pwm.c **** 	p_channel->output_selection.override_level_pwmh = (pwm_level_t) pwmh;
 540:../asf/sam/drivers/pwm/pwm.c **** 	p_channel->output_selection.override_level_pwml = (pwm_level_t) pwml;
 541:../asf/sam/drivers/pwm/pwm.c **** 
 542:../asf/sam/drivers/pwm/pwm.c **** 	/* Change override output level */
 543:../asf/sam/drivers/pwm/pwm.c **** 	uint32_t override_value = p_pwm->PWM_OOV;
 544:../asf/sam/drivers/pwm/pwm.c **** 	override_value &= ~((PWM_OOV_OOVH0 | PWM_OOV_OOVL0) << ch_num);
 823              		.loc 1 544 0
 824 0006 4FF00117 		mov	r7, #65537
 534:../asf/sam/drivers/pwm/pwm.c **** 	uint32_t pwml = p_output->override_level_pwml;
 825              		.loc 1 534 0
 826 000a 92F803E0 		ldrb	lr, [r2, #3]	@ zero_extendqisi2
 526:../asf/sam/drivers/pwm/pwm.c **** 	uint32_t ch_num = p_channel->channel;
 827              		.loc 1 526 0
 828 000e 0D68     		ldr	r5, [r1]
 829              	.LVL78:
 545:../asf/sam/drivers/pwm/pwm.c **** 	override_value |= (((pwml << 16) | pwmh) << ch_num);
 830              		.loc 1 545 0
 831 0010 4CEA0E46 		orr	r6, ip, lr, lsl #16
 544:../asf/sam/drivers/pwm/pwm.c **** 	override_value |= (((pwml << 16) | pwmh) << ch_num);
 832              		.loc 1 544 0
 833 0014 07FA05F4 		lsl	r4, r7, r5
 543:../asf/sam/drivers/pwm/pwm.c **** 	override_value &= ~((PWM_OOV_OOVH0 | PWM_OOV_OOVL0) << ch_num);
 834              		.loc 1 543 0
 835 0018 476C     		ldr	r7, [r0, #68]
 836              		.loc 1 545 0
 837 001a AE40     		lsls	r6, r6, r5
 544:../asf/sam/drivers/pwm/pwm.c **** 	override_value |= (((pwml << 16) | pwmh) << ch_num);
 838              		.loc 1 544 0
 839 001c 27EA0407 		bic	r7, r7, r4
 531:../asf/sam/drivers/pwm/pwm.c **** 	bool override_pwml = p_output->b_override_pwml;
 840              		.loc 1 531 0
 841 0020 1478     		ldrb	r4, [r2]	@ zero_extendqisi2
 842              	.LVL79:
 532:../asf/sam/drivers/pwm/pwm.c **** 	uint32_t pwmh = p_output->override_level_pwmh;
 843              		.loc 1 532 0
 844 0022 5278     		ldrb	r2, [r2, #1]	@ zero_extendqisi2
 845              	.LVL80:
 846              		.loc 1 545 0
 847 0024 3E43     		orrs	r6, r6, r7
 848              	.LVL81:
 539:../asf/sam/drivers/pwm/pwm.c **** 	p_channel->output_selection.override_level_pwml = (pwm_level_t) pwml;
 849              		.loc 1 539 0
 850 0026 81F820C0 		strb	ip, [r1, #32]
 537:../asf/sam/drivers/pwm/pwm.c **** 	p_channel->output_selection.b_override_pwml = override_pwml;
 851              		.loc 1 537 0
ARM GAS  /tmp/ccmSFvTJ.s 			page 27


 852 002a 8C77     		strb	r4, [r1, #30]
 538:../asf/sam/drivers/pwm/pwm.c **** 	p_channel->output_selection.override_level_pwmh = (pwm_level_t) pwmh;
 853              		.loc 1 538 0
 854 002c CA77     		strb	r2, [r1, #31]
 540:../asf/sam/drivers/pwm/pwm.c **** 
 855              		.loc 1 540 0
 856 002e 81F821E0 		strb	lr, [r1, #33]
 546:../asf/sam/drivers/pwm/pwm.c **** 	p_pwm->PWM_OOV = override_value;
 547:../asf/sam/drivers/pwm/pwm.c **** 
 548:../asf/sam/drivers/pwm/pwm.c **** 	/* Apply new output selection */
 549:../asf/sam/drivers/pwm/pwm.c **** 	if (b_sync) {
 550:../asf/sam/drivers/pwm/pwm.c **** 		p_pwm->PWM_OSSUPD = ((override_pwml << ch_num) << 16) |
 551:../asf/sam/drivers/pwm/pwm.c **** 			(override_pwmh << ch_num);
 552:../asf/sam/drivers/pwm/pwm.c **** 		p_pwm->PWM_OSCUPD = ((!override_pwml << ch_num) << 16) |
 857              		.loc 1 552 0
 858 0032 82F00101 		eor	r1, r2, #1
 859              	.LVL82:
 546:../asf/sam/drivers/pwm/pwm.c **** 	p_pwm->PWM_OOV = override_value;
 860              		.loc 1 546 0
 861 0036 4664     		str	r6, [r0, #68]
 549:../asf/sam/drivers/pwm/pwm.c **** 		p_pwm->PWM_OSSUPD = ((override_pwml << ch_num) << 16) |
 862              		.loc 1 549 0
 863 0038 6BB9     		cbnz	r3, .L70
 553:../asf/sam/drivers/pwm/pwm.c **** 			(!override_pwmh << ch_num);
 554:../asf/sam/drivers/pwm/pwm.c **** 	} else {
 555:../asf/sam/drivers/pwm/pwm.c **** 		p_pwm->PWM_OSS = ((override_pwml << ch_num) << 16) |
 556:../asf/sam/drivers/pwm/pwm.c **** 			(override_pwmh << ch_num);
 557:../asf/sam/drivers/pwm/pwm.c **** 		p_pwm->PWM_OSC = ((!override_pwml << ch_num) << 16) |
 558:../asf/sam/drivers/pwm/pwm.c **** 			(!override_pwmh << ch_num);
 864              		.loc 1 558 0
 865 003a 84F00103 		eor	r3, r4, #1
 866              	.LVL83:
 555:../asf/sam/drivers/pwm/pwm.c **** 			(override_pwmh << ch_num);
 867              		.loc 1 555 0
 868 003e AA40     		lsls	r2, r2, r5
 869              	.LVL84:
 556:../asf/sam/drivers/pwm/pwm.c **** 		p_pwm->PWM_OSC = ((!override_pwml << ch_num) << 16) |
 870              		.loc 1 556 0
 871 0040 AC40     		lsls	r4, r4, r5
 872              	.LVL85:
 557:../asf/sam/drivers/pwm/pwm.c **** 			(!override_pwmh << ch_num);
 873              		.loc 1 557 0
 874 0042 A940     		lsls	r1, r1, r5
 875              	.LVL86:
 876              		.loc 1 558 0
 877 0044 03FA05F5 		lsl	r5, r3, r5
 878              	.LVL87:
 555:../asf/sam/drivers/pwm/pwm.c **** 			(override_pwmh << ch_num);
 879              		.loc 1 555 0
 880 0048 44EA0244 		orr	r4, r4, r2, lsl #16
 557:../asf/sam/drivers/pwm/pwm.c **** 			(!override_pwmh << ch_num);
 881              		.loc 1 557 0
 882 004c 45EA0145 		orr	r5, r5, r1, lsl #16
 555:../asf/sam/drivers/pwm/pwm.c **** 			(override_pwmh << ch_num);
 883              		.loc 1 555 0
 884 0050 C464     		str	r4, [r0, #76]
 557:../asf/sam/drivers/pwm/pwm.c **** 			(!override_pwmh << ch_num);
ARM GAS  /tmp/ccmSFvTJ.s 			page 28


 885              		.loc 1 557 0
 886 0052 0565     		str	r5, [r0, #80]
 887 0054 F0BD     		pop	{r4, r5, r6, r7, pc}
 888              	.LVL88:
 889              	.L70:
 553:../asf/sam/drivers/pwm/pwm.c **** 	} else {
 890              		.loc 1 553 0
 891 0056 84F00103 		eor	r3, r4, #1
 892              	.LVL89:
 550:../asf/sam/drivers/pwm/pwm.c **** 			(override_pwmh << ch_num);
 893              		.loc 1 550 0
 894 005a AA40     		lsls	r2, r2, r5
 895              	.LVL90:
 551:../asf/sam/drivers/pwm/pwm.c **** 		p_pwm->PWM_OSCUPD = ((!override_pwml << ch_num) << 16) |
 896              		.loc 1 551 0
 897 005c AC40     		lsls	r4, r4, r5
 898              	.LVL91:
 552:../asf/sam/drivers/pwm/pwm.c **** 			(!override_pwmh << ch_num);
 899              		.loc 1 552 0
 900 005e A940     		lsls	r1, r1, r5
 901              	.LVL92:
 553:../asf/sam/drivers/pwm/pwm.c **** 	} else {
 902              		.loc 1 553 0
 903 0060 03FA05F5 		lsl	r5, r3, r5
 904              	.LVL93:
 550:../asf/sam/drivers/pwm/pwm.c **** 			(override_pwmh << ch_num);
 905              		.loc 1 550 0
 906 0064 44EA0244 		orr	r4, r4, r2, lsl #16
 552:../asf/sam/drivers/pwm/pwm.c **** 			(!override_pwmh << ch_num);
 907              		.loc 1 552 0
 908 0068 45EA0145 		orr	r5, r5, r1, lsl #16
 550:../asf/sam/drivers/pwm/pwm.c **** 			(override_pwmh << ch_num);
 909              		.loc 1 550 0
 910 006c 4465     		str	r4, [r0, #84]
 552:../asf/sam/drivers/pwm/pwm.c **** 			(!override_pwmh << ch_num);
 911              		.loc 1 552 0
 912 006e 8565     		str	r5, [r0, #88]
 913 0070 F0BD     		pop	{r4, r5, r6, r7, pc}
 914              		.cfi_endproc
 915              	.LFE155:
 916              		.size	pwm_channel_update_output, .-pwm_channel_update_output
 917 0072 00BF     		.section	.text.pwm_channel_update_dead_time,"ax",%progbits
 918              		.align	1
 919              		.p2align 2,,3
 920              		.global	pwm_channel_update_dead_time
 921              		.syntax unified
 922              		.thumb
 923              		.thumb_func
 924              		.fpu fpv5-d16
 925              		.type	pwm_channel_update_dead_time, %function
 926              	pwm_channel_update_dead_time:
 927              	.LFB156:
 559:../asf/sam/drivers/pwm/pwm.c **** 	}
 560:../asf/sam/drivers/pwm/pwm.c **** }
 561:../asf/sam/drivers/pwm/pwm.c **** 
 562:../asf/sam/drivers/pwm/pwm.c **** /**
 563:../asf/sam/drivers/pwm/pwm.c ****  * \brief Change dead-time value for PWM outputs.
ARM GAS  /tmp/ccmSFvTJ.s 			page 29


 564:../asf/sam/drivers/pwm/pwm.c ****  *
 565:../asf/sam/drivers/pwm/pwm.c ****  * \param p_pwm Pointer to a PWM instance.
 566:../asf/sam/drivers/pwm/pwm.c ****  * \param p_channel Configurations of the specified PWM channel.
 567:../asf/sam/drivers/pwm/pwm.c ****  * \param us_deadtime_pwmh New dead-time value for PWMH output.
 568:../asf/sam/drivers/pwm/pwm.c ****  * \param us_deadtime_pwml New dead-time value for PWML output.
 569:../asf/sam/drivers/pwm/pwm.c ****  */
 570:../asf/sam/drivers/pwm/pwm.c **** void pwm_channel_update_dead_time(Pwm *p_pwm, pwm_channel_t *p_channel,
 571:../asf/sam/drivers/pwm/pwm.c **** 		uint16_t us_deadtime_pwmh, uint16_t us_deadtime_pwml)
 572:../asf/sam/drivers/pwm/pwm.c **** {
 928              		.loc 1 572 0
 929              		.cfi_startproc
 930              		@ args = 0, pretend = 0, frame = 0
 931              		@ frame_needed = 0, uses_anonymous_args = 0
 932              		@ link register save eliminated.
 933              	.LVL94:
 934 0000 30B4     		push	{r4, r5}
 935              		.cfi_def_cfa_offset 8
 936              		.cfi_offset 4, -8
 937              		.cfi_offset 5, -4
 573:../asf/sam/drivers/pwm/pwm.c **** 	/* Save new dead time value */
 574:../asf/sam/drivers/pwm/pwm.c **** 	p_channel->us_deadtime_pwmh = us_deadtime_pwmh;
 575:../asf/sam/drivers/pwm/pwm.c **** 	p_channel->us_deadtime_pwml = us_deadtime_pwml;
 576:../asf/sam/drivers/pwm/pwm.c **** 
 577:../asf/sam/drivers/pwm/pwm.c **** 	/* Write channel dead time update register */
 578:../asf/sam/drivers/pwm/pwm.c **** 	p_pwm->PWM_CH_NUM[p_channel->channel].PWM_DTUPD =
 938              		.loc 1 578 0
 939 0002 0C68     		ldr	r4, [r1]
 579:../asf/sam/drivers/pwm/pwm.c **** 			PWM_DTUPD_DTLUPD(us_deadtime_pwml) |
 940              		.loc 1 579 0
 941 0004 42EA0345 		orr	r5, r2, r3, lsl #16
 574:../asf/sam/drivers/pwm/pwm.c **** 	p_channel->us_deadtime_pwml = us_deadtime_pwml;
 942              		.loc 1 574 0
 943 0008 4A83     		strh	r2, [r1, #26]	@ movhi
 578:../asf/sam/drivers/pwm/pwm.c **** 			PWM_DTUPD_DTLUPD(us_deadtime_pwml) |
 944              		.loc 1 578 0
 945 000a 00EB4410 		add	r0, r0, r4, lsl #5
 946              	.LVL95:
 575:../asf/sam/drivers/pwm/pwm.c **** 
 947              		.loc 1 575 0
 948 000e 8B83     		strh	r3, [r1, #28]	@ movhi
 578:../asf/sam/drivers/pwm/pwm.c **** 			PWM_DTUPD_DTLUPD(us_deadtime_pwml) |
 949              		.loc 1 578 0
 950 0010 C0F81C52 		str	r5, [r0, #540]
 580:../asf/sam/drivers/pwm/pwm.c **** 			PWM_DTUPD_DTHUPD(us_deadtime_pwmh);
 581:../asf/sam/drivers/pwm/pwm.c **** }
 951              		.loc 1 581 0
 952 0014 30BC     		pop	{r4, r5}
 953              		.cfi_restore 5
 954              		.cfi_restore 4
 955              		.cfi_def_cfa_offset 0
 956 0016 7047     		bx	lr
 957              		.cfi_endproc
 958              	.LFE156:
 959              		.size	pwm_channel_update_dead_time, .-pwm_channel_update_dead_time
 960              		.section	.text.pwm_fault_init,"ax",%progbits
 961              		.align	1
 962              		.p2align 2,,3
ARM GAS  /tmp/ccmSFvTJ.s 			page 30


 963              		.global	pwm_fault_init
 964              		.syntax unified
 965              		.thumb
 966              		.thumb_func
 967              		.fpu fpv5-d16
 968              		.type	pwm_fault_init, %function
 969              	pwm_fault_init:
 970              	.LFB157:
 582:../asf/sam/drivers/pwm/pwm.c **** 
 583:../asf/sam/drivers/pwm/pwm.c **** 
 584:../asf/sam/drivers/pwm/pwm.c **** 
 585:../asf/sam/drivers/pwm/pwm.c **** /**
 586:../asf/sam/drivers/pwm/pwm.c ****  * \brief Initialize the behavior of a fault input.
 587:../asf/sam/drivers/pwm/pwm.c ****  *
 588:../asf/sam/drivers/pwm/pwm.c ****  * \param p_pwm Pointer to a PWM instance.
 589:../asf/sam/drivers/pwm/pwm.c ****  * \param p_fault Configurations of a fault input.
 590:../asf/sam/drivers/pwm/pwm.c ****  *
 591:../asf/sam/drivers/pwm/pwm.c ****  * \retval 0 if configuration succeeds, otherwise fails.
 592:../asf/sam/drivers/pwm/pwm.c ****  */
 593:../asf/sam/drivers/pwm/pwm.c **** uint32_t pwm_fault_init(Pwm *p_pwm, pwm_fault_t *p_fault)
 594:../asf/sam/drivers/pwm/pwm.c **** {
 971              		.loc 1 594 0
 972              		.cfi_startproc
 973              		@ args = 0, pretend = 0, frame = 0
 974              		@ frame_needed = 0, uses_anonymous_args = 0
 975              		@ link register save eliminated.
 976              	.LVL96:
 977 0000 10B4     		push	{r4}
 978              		.cfi_def_cfa_offset 4
 979              		.cfi_offset 4, -4
 595:../asf/sam/drivers/pwm/pwm.c **** 	uint32_t fault_id = p_fault->fault_id;
 596:../asf/sam/drivers/pwm/pwm.c **** 	uint32_t fault_reg = p_pwm->PWM_FMR;
 597:../asf/sam/drivers/pwm/pwm.c **** 
 598:../asf/sam/drivers/pwm/pwm.c **** 	/** Polarity of fault input */
 599:../asf/sam/drivers/pwm/pwm.c **** 	if (p_fault->polarity == PWM_HIGH) {
 980              		.loc 1 599 0
 981 0002 4C78     		ldrb	r4, [r1, #1]	@ zero_extendqisi2
 595:../asf/sam/drivers/pwm/pwm.c **** 	uint32_t fault_id = p_fault->fault_id;
 982              		.loc 1 595 0
 983 0004 0A78     		ldrb	r2, [r1]	@ zero_extendqisi2
 984              	.LVL97:
 985              		.loc 1 599 0
 986 0006 012C     		cmp	r4, #1
 596:../asf/sam/drivers/pwm/pwm.c **** 
 987              		.loc 1 596 0
 988 0008 C36D     		ldr	r3, [r0, #92]
 989              	.LVL98:
 600:../asf/sam/drivers/pwm/pwm.c **** 		fault_reg |= fault_id;
 601:../asf/sam/drivers/pwm/pwm.c **** 	} else {
 602:../asf/sam/drivers/pwm/pwm.c **** 		fault_reg &= ~fault_id;
 603:../asf/sam/drivers/pwm/pwm.c **** 	}
 604:../asf/sam/drivers/pwm/pwm.c **** 	/** Boolean of clearing fault flag */
 605:../asf/sam/drivers/pwm/pwm.c **** 	if (p_fault->b_clear) {
 990              		.loc 1 605 0
 991 000a 8C78     		ldrb	r4, [r1, #2]	@ zero_extendqisi2
 600:../asf/sam/drivers/pwm/pwm.c **** 		fault_reg |= fault_id;
 992              		.loc 1 600 0
ARM GAS  /tmp/ccmSFvTJ.s 			page 31


 993 000c 0CBF     		ite	eq
 994 000e 1343     		orreq	r3, r3, r2
 995              	.LVL99:
 602:../asf/sam/drivers/pwm/pwm.c **** 	}
 996              		.loc 1 602 0
 997 0010 9343     		bicne	r3, r3, r2
 998              	.LVL100:
 999              		.loc 1 605 0
 1000 0012 54B1     		cbz	r4, .L76
 606:../asf/sam/drivers/pwm/pwm.c **** 		fault_reg |= (fault_id << 8);
 607:../asf/sam/drivers/pwm/pwm.c **** 	} else {
 608:../asf/sam/drivers/pwm/pwm.c **** 		fault_reg &= ~(fault_id << 8);
 609:../asf/sam/drivers/pwm/pwm.c **** 	}
 610:../asf/sam/drivers/pwm/pwm.c **** 	/** Boolean of fault filtering */
 611:../asf/sam/drivers/pwm/pwm.c **** 	if (p_fault->b_filtered) {
 1001              		.loc 1 611 0
 1002 0014 C978     		ldrb	r1, [r1, #3]	@ zero_extendqisi2
 1003              	.LVL101:
 606:../asf/sam/drivers/pwm/pwm.c **** 		fault_reg |= (fault_id << 8);
 1004              		.loc 1 606 0
 1005 0016 43EA0223 		orr	r3, r3, r2, lsl #8
 1006              	.LVL102:
 1007              		.loc 1 611 0
 1008 001a 59B9     		cbnz	r1, .L81
 1009              	.L78:
 612:../asf/sam/drivers/pwm/pwm.c **** 		fault_reg |= (fault_id << 16);
 613:../asf/sam/drivers/pwm/pwm.c **** 	} else {
 614:../asf/sam/drivers/pwm/pwm.c **** 		fault_reg &= ~(fault_id << 16);
 1010              		.loc 1 614 0
 1011 001c 23EA0243 		bic	r3, r3, r2, lsl #16
 1012              	.LVL103:
 615:../asf/sam/drivers/pwm/pwm.c **** 	}
 616:../asf/sam/drivers/pwm/pwm.c **** 
 617:../asf/sam/drivers/pwm/pwm.c **** 	p_pwm->PWM_FMR = fault_reg;
 618:../asf/sam/drivers/pwm/pwm.c **** 
 619:../asf/sam/drivers/pwm/pwm.c **** 	return 0;
 620:../asf/sam/drivers/pwm/pwm.c **** }
 1013              		.loc 1 620 0
 1014 0020 5DF8044B 		ldr	r4, [sp], #4
 1015              		.cfi_remember_state
 1016              		.cfi_restore 4
 1017              		.cfi_def_cfa_offset 0
 617:../asf/sam/drivers/pwm/pwm.c **** 
 1018              		.loc 1 617 0
 1019 0024 C365     		str	r3, [r0, #92]
 1020              		.loc 1 620 0
 1021 0026 0020     		movs	r0, #0
 1022              	.LVL104:
 1023 0028 7047     		bx	lr
 1024              	.LVL105:
 1025              	.L76:
 1026              		.cfi_restore_state
 611:../asf/sam/drivers/pwm/pwm.c **** 		fault_reg |= (fault_id << 16);
 1027              		.loc 1 611 0
 1028 002a C978     		ldrb	r1, [r1, #3]	@ zero_extendqisi2
 1029              	.LVL106:
 608:../asf/sam/drivers/pwm/pwm.c **** 	}
ARM GAS  /tmp/ccmSFvTJ.s 			page 32


 1030              		.loc 1 608 0
 1031 002c 23EA0223 		bic	r3, r3, r2, lsl #8
 1032              	.LVL107:
 611:../asf/sam/drivers/pwm/pwm.c **** 		fault_reg |= (fault_id << 16);
 1033              		.loc 1 611 0
 1034 0030 0029     		cmp	r1, #0
 1035 0032 F3D0     		beq	.L78
 1036              	.L81:
 612:../asf/sam/drivers/pwm/pwm.c **** 	} else {
 1037              		.loc 1 612 0
 1038 0034 43EA0243 		orr	r3, r3, r2, lsl #16
 1039              	.LVL108:
 1040              		.loc 1 620 0
 1041 0038 5DF8044B 		ldr	r4, [sp], #4
 1042              		.cfi_restore 4
 1043              		.cfi_def_cfa_offset 0
 617:../asf/sam/drivers/pwm/pwm.c **** 
 1044              		.loc 1 617 0
 1045 003c C365     		str	r3, [r0, #92]
 1046              		.loc 1 620 0
 1047 003e 0020     		movs	r0, #0
 1048              	.LVL109:
 1049 0040 7047     		bx	lr
 1050              		.cfi_endproc
 1051              	.LFE157:
 1052              		.size	pwm_fault_init, .-pwm_fault_init
 1053 0042 00BF     		.section	.text.pwm_fault_get_status,"ax",%progbits
 1054              		.align	1
 1055              		.p2align 2,,3
 1056              		.global	pwm_fault_get_status
 1057              		.syntax unified
 1058              		.thumb
 1059              		.thumb_func
 1060              		.fpu fpv5-d16
 1061              		.type	pwm_fault_get_status, %function
 1062              	pwm_fault_get_status:
 1063              	.LFB158:
 621:../asf/sam/drivers/pwm/pwm.c **** 
 622:../asf/sam/drivers/pwm/pwm.c **** /**
 623:../asf/sam/drivers/pwm/pwm.c ****  * \brief Get fault status.
 624:../asf/sam/drivers/pwm/pwm.c ****  *
 625:../asf/sam/drivers/pwm/pwm.c ****  * \param p_pwm Pointer to a PWM instance.
 626:../asf/sam/drivers/pwm/pwm.c ****  *
 627:../asf/sam/drivers/pwm/pwm.c ****  * \return Bitmask of IDs of all active faulty.
 628:../asf/sam/drivers/pwm/pwm.c ****  */
 629:../asf/sam/drivers/pwm/pwm.c **** uint32_t pwm_fault_get_status(Pwm *p_pwm)
 630:../asf/sam/drivers/pwm/pwm.c **** {
 1064              		.loc 1 630 0
 1065              		.cfi_startproc
 1066              		@ args = 0, pretend = 0, frame = 0
 1067              		@ frame_needed = 0, uses_anonymous_args = 0
 1068              		@ link register save eliminated.
 1069              	.LVL110:
 631:../asf/sam/drivers/pwm/pwm.c **** 	return ((p_pwm->PWM_FSR >> 8) & 0xFF);
 1070              		.loc 1 631 0
 1071 0000 006E     		ldr	r0, [r0, #96]
 1072              	.LVL111:
ARM GAS  /tmp/ccmSFvTJ.s 			page 33


 632:../asf/sam/drivers/pwm/pwm.c **** }
 1073              		.loc 1 632 0
 1074 0002 C0F30720 		ubfx	r0, r0, #8, #8
 1075 0006 7047     		bx	lr
 1076              		.cfi_endproc
 1077              	.LFE158:
 1078              		.size	pwm_fault_get_status, .-pwm_fault_get_status
 1079              		.section	.text.pwm_fault_get_input_level,"ax",%progbits
 1080              		.align	1
 1081              		.p2align 2,,3
 1082              		.global	pwm_fault_get_input_level
 1083              		.syntax unified
 1084              		.thumb
 1085              		.thumb_func
 1086              		.fpu fpv5-d16
 1087              		.type	pwm_fault_get_input_level, %function
 1088              	pwm_fault_get_input_level:
 1089              	.LFB159:
 633:../asf/sam/drivers/pwm/pwm.c **** 
 634:../asf/sam/drivers/pwm/pwm.c **** /**
 635:../asf/sam/drivers/pwm/pwm.c ****  * \brief Get the level of a fault input.
 636:../asf/sam/drivers/pwm/pwm.c ****  *
 637:../asf/sam/drivers/pwm/pwm.c ****  * \param p_pwm Pointer to a PWM instance.
 638:../asf/sam/drivers/pwm/pwm.c ****  * \param id Faulty ID.
 639:../asf/sam/drivers/pwm/pwm.c ****  *
 640:../asf/sam/drivers/pwm/pwm.c ****  * \return Level of the fault input.
 641:../asf/sam/drivers/pwm/pwm.c ****  */
 642:../asf/sam/drivers/pwm/pwm.c **** pwm_level_t pwm_fault_get_input_level(Pwm *p_pwm, pwm_fault_id_t id)
 643:../asf/sam/drivers/pwm/pwm.c **** {
 1090              		.loc 1 643 0
 1091              		.cfi_startproc
 1092              		@ args = 0, pretend = 0, frame = 0
 1093              		@ frame_needed = 0, uses_anonymous_args = 0
 1094              		@ link register save eliminated.
 1095              	.LVL112:
 644:../asf/sam/drivers/pwm/pwm.c **** 	uint32_t fault_status_reg = p_pwm->PWM_FSR;
 1096              		.loc 1 644 0
 1097 0000 006E     		ldr	r0, [r0, #96]
 1098              	.LVL113:
 645:../asf/sam/drivers/pwm/pwm.c **** 	fault_status_reg >>= id;
 1099              		.loc 1 645 0
 1100 0002 C840     		lsrs	r0, r0, r1
 1101              	.LVL114:
 646:../asf/sam/drivers/pwm/pwm.c **** 
 647:../asf/sam/drivers/pwm/pwm.c **** 	return ((fault_status_reg & 1) ? PWM_HIGH : PWM_LOW);
 648:../asf/sam/drivers/pwm/pwm.c **** }
 1102              		.loc 1 648 0
 1103 0004 00F00100 		and	r0, r0, #1
 1104 0008 7047     		bx	lr
 1105              		.cfi_endproc
 1106              	.LFE159:
 1107              		.size	pwm_fault_get_input_level, .-pwm_fault_get_input_level
 1108 000a 00BF     		.section	.text.pwm_fault_clear_status,"ax",%progbits
 1109              		.align	1
 1110              		.p2align 2,,3
 1111              		.global	pwm_fault_clear_status
 1112              		.syntax unified
ARM GAS  /tmp/ccmSFvTJ.s 			page 34


 1113              		.thumb
 1114              		.thumb_func
 1115              		.fpu fpv5-d16
 1116              		.type	pwm_fault_clear_status, %function
 1117              	pwm_fault_clear_status:
 1118              	.LFB160:
 649:../asf/sam/drivers/pwm/pwm.c **** 
 650:../asf/sam/drivers/pwm/pwm.c **** /**
 651:../asf/sam/drivers/pwm/pwm.c ****  * \brief Clear a fault input.
 652:../asf/sam/drivers/pwm/pwm.c ****  *
 653:../asf/sam/drivers/pwm/pwm.c ****  * \param p_pwm Pointer to a PWM instance.
 654:../asf/sam/drivers/pwm/pwm.c ****  * \param id Faulty ID.
 655:../asf/sam/drivers/pwm/pwm.c ****  */
 656:../asf/sam/drivers/pwm/pwm.c **** void pwm_fault_clear_status(Pwm *p_pwm, pwm_fault_id_t id)
 657:../asf/sam/drivers/pwm/pwm.c **** {
 1119              		.loc 1 657 0
 1120              		.cfi_startproc
 1121              		@ args = 0, pretend = 0, frame = 0
 1122              		@ frame_needed = 0, uses_anonymous_args = 0
 1123              		@ link register save eliminated.
 1124              	.LVL115:
 658:../asf/sam/drivers/pwm/pwm.c **** 	p_pwm->PWM_FCR = id;
 1125              		.loc 1 658 0
 1126 0000 4166     		str	r1, [r0, #100]
 1127 0002 7047     		bx	lr
 1128              		.cfi_endproc
 1129              	.LFE160:
 1130              		.size	pwm_fault_clear_status, .-pwm_fault_clear_status
 1131              		.section	.text.pwm_cmp_init,"ax",%progbits
 1132              		.align	1
 1133              		.p2align 2,,3
 1134              		.global	pwm_cmp_init
 1135              		.syntax unified
 1136              		.thumb
 1137              		.thumb_func
 1138              		.fpu fpv5-d16
 1139              		.type	pwm_cmp_init, %function
 1140              	pwm_cmp_init:
 1141              	.LFB161:
 659:../asf/sam/drivers/pwm/pwm.c **** }
 660:../asf/sam/drivers/pwm/pwm.c **** 
 661:../asf/sam/drivers/pwm/pwm.c **** /**
 662:../asf/sam/drivers/pwm/pwm.c ****  * \brief Initialize PWM comparison unit.
 663:../asf/sam/drivers/pwm/pwm.c ****  *
 664:../asf/sam/drivers/pwm/pwm.c ****  * \param p_pwm Pointer to a PWM instance.
 665:../asf/sam/drivers/pwm/pwm.c ****  * \param p_cmp Configurations of PWM comparison tagged by unit.
 666:../asf/sam/drivers/pwm/pwm.c ****  *
 667:../asf/sam/drivers/pwm/pwm.c ****  * \retval 0 if initialization succeeds, otherwise fails.
 668:../asf/sam/drivers/pwm/pwm.c ****  */
 669:../asf/sam/drivers/pwm/pwm.c **** uint32_t pwm_cmp_init(Pwm *p_pwm, pwm_cmp_t *p_cmp)
 670:../asf/sam/drivers/pwm/pwm.c **** {
 1142              		.loc 1 670 0
 1143              		.cfi_startproc
 1144              		@ args = 0, pretend = 0, frame = 0
 1145              		@ frame_needed = 0, uses_anonymous_args = 0
 1146              	.LVL116:
 1147 0000 F0B5     		push	{r4, r5, r6, r7, lr}
ARM GAS  /tmp/ccmSFvTJ.s 			page 35


 1148              		.cfi_def_cfa_offset 20
 1149              		.cfi_offset 4, -20
 1150              		.cfi_offset 5, -16
 1151              		.cfi_offset 6, -12
 1152              		.cfi_offset 7, -8
 1153              		.cfi_offset 14, -4
 671:../asf/sam/drivers/pwm/pwm.c **** 	uint32_t unit = p_cmp->unit;
 672:../asf/sam/drivers/pwm/pwm.c **** 
 673:../asf/sam/drivers/pwm/pwm.c **** 	p_pwm->PWM_CMP[unit].PWM_CMPV = PWM_CMPV_CV(p_cmp->ul_value) |
 674:../asf/sam/drivers/pwm/pwm.c **** 			(p_cmp->b_is_decrementing << 24);
 675:../asf/sam/drivers/pwm/pwm.c **** 
 676:../asf/sam/drivers/pwm/pwm.c **** 	p_pwm->PWM_CMP[unit].PWM_CMPM = PWM_CMPM_CTR(p_cmp->ul_trigger) |
 1154              		.loc 1 676 0
 1155 0002 0B69     		ldr	r3, [r1, #16]
 677:../asf/sam/drivers/pwm/pwm.c **** 			PWM_CMPM_CPR(p_cmp->ul_period) |
 1156              		.loc 1 677 0
 1157 0004 4C69     		ldr	r4, [r1, #20]
 671:../asf/sam/drivers/pwm/pwm.c **** 	uint32_t unit = p_cmp->unit;
 1158              		.loc 1 671 0
 1159 0006 0A68     		ldr	r2, [r1]
 1160              	.LVL117:
 676:../asf/sam/drivers/pwm/pwm.c **** 			PWM_CMPM_CPR(p_cmp->ul_period) |
 1161              		.loc 1 676 0
 1162 0008 1B01     		lsls	r3, r3, #4
 678:../asf/sam/drivers/pwm/pwm.c **** 			PWM_CMPM_CUPR(p_cmp->ul_update_period);
 1163              		.loc 1 678 0
 1164 000a 8D69     		ldr	r5, [r1, #24]
 677:../asf/sam/drivers/pwm/pwm.c **** 			PWM_CMPM_CPR(p_cmp->ul_period) |
 1165              		.loc 1 677 0
 1166 000c 2602     		lsls	r6, r4, #8
 673:../asf/sam/drivers/pwm/pwm.c **** 			(p_cmp->b_is_decrementing << 24);
 1167              		.loc 1 673 0
 1168 000e 8C68     		ldr	r4, [r1, #8]
 1169 0010 02F11307 		add	r7, r2, #19
 674:../asf/sam/drivers/pwm/pwm.c **** 
 1170              		.loc 1 674 0
 1171 0014 91F80CE0 		ldrb	lr, [r1, #12]	@ zero_extendqisi2
 677:../asf/sam/drivers/pwm/pwm.c **** 			PWM_CMPM_CUPR(p_cmp->ul_update_period);
 1172              		.loc 1 677 0
 1173 0018 06F47066 		and	r6, r6, #3840
 676:../asf/sam/drivers/pwm/pwm.c **** 			PWM_CMPM_CPR(p_cmp->ul_period) |
 1174              		.loc 1 676 0
 1175 001c DBB2     		uxtb	r3, r3
 673:../asf/sam/drivers/pwm/pwm.c **** 			(p_cmp->b_is_decrementing << 24);
 1176              		.loc 1 673 0
 1177 001e 24F07F44 		bic	r4, r4, #-16777216
 1178              		.loc 1 678 0
 1179 0022 2D04     		lsls	r5, r5, #16
 673:../asf/sam/drivers/pwm/pwm.c **** 			(p_cmp->b_is_decrementing << 24);
 1180              		.loc 1 673 0
 1181 0024 44EA0E64 		orr	r4, r4, lr, lsl #24
 676:../asf/sam/drivers/pwm/pwm.c **** 			PWM_CMPM_CPR(p_cmp->ul_period) |
 1182              		.loc 1 676 0
 1183 0028 3343     		orrs	r3, r3, r6
 1184              		.loc 1 678 0
 1185 002a 05F47025 		and	r5, r5, #983040
 676:../asf/sam/drivers/pwm/pwm.c **** 			PWM_CMPM_CPR(p_cmp->ul_period) |
ARM GAS  /tmp/ccmSFvTJ.s 			page 36


 1186              		.loc 1 676 0
 1187 002e 1601     		lsls	r6, r2, #4
 673:../asf/sam/drivers/pwm/pwm.c **** 			(p_cmp->b_is_decrementing << 24);
 1188              		.loc 1 673 0
 1189 0030 3F01     		lsls	r7, r7, #4
 677:../asf/sam/drivers/pwm/pwm.c **** 			PWM_CMPM_CUPR(p_cmp->ul_update_period);
 1190              		.loc 1 677 0
 1191 0032 2B43     		orrs	r3, r3, r5
 676:../asf/sam/drivers/pwm/pwm.c **** 			PWM_CMPM_CPR(p_cmp->ul_period) |
 1192              		.loc 1 676 0
 1193 0034 00EB060E 		add	lr, r0, r6
 679:../asf/sam/drivers/pwm/pwm.c **** 
 680:../asf/sam/drivers/pwm/pwm.c **** 	/** Boolean of generating a match pulse */
 681:../asf/sam/drivers/pwm/pwm.c **** 	if (p_cmp->b_pulse_on_line_0) {
 1194              		.loc 1 681 0
 1195 0038 0D7F     		ldrb	r5, [r1, #28]	@ zero_extendqisi2
 673:../asf/sam/drivers/pwm/pwm.c **** 			(p_cmp->b_is_decrementing << 24);
 1196              		.loc 1 673 0
 1197 003a C451     		str	r4, [r0, r7]
 682:../asf/sam/drivers/pwm/pwm.c **** 		p_pwm->PWM_ELMR[0] |= (1 << unit);
 1198              		.loc 1 682 0
 1199 003c 0124     		movs	r4, #1
 676:../asf/sam/drivers/pwm/pwm.c **** 			PWM_CMPM_CPR(p_cmp->ul_period) |
 1200              		.loc 1 676 0
 1201 003e CEF83831 		str	r3, [lr, #312]
 1202              		.loc 1 682 0
 1203 0042 04FA02F2 		lsl	r2, r4, r2
 1204              	.LVL118:
 1205 0046 C36F     		ldr	r3, [r0, #124]
 681:../asf/sam/drivers/pwm/pwm.c **** 		p_pwm->PWM_ELMR[0] |= (1 << unit);
 1206              		.loc 1 681 0
 1207 0048 9DB1     		cbz	r5, .L86
 1208              		.loc 1 682 0
 1209 004a 1343     		orrs	r3, r3, r2
 1210 004c C367     		str	r3, [r0, #124]
 1211              	.LVL119:
 683:../asf/sam/drivers/pwm/pwm.c **** 	} else {
 684:../asf/sam/drivers/pwm/pwm.c **** 		p_pwm->PWM_ELMR[0] &= ~((uint32_t) (1 << unit));
 685:../asf/sam/drivers/pwm/pwm.c **** 	}
 686:../asf/sam/drivers/pwm/pwm.c **** 	/** Boolean of generating a match pulse */
 687:../asf/sam/drivers/pwm/pwm.c **** 	if (p_cmp->b_pulse_on_line_1) {
 1212              		.loc 1 687 0
 1213 004e 4B7F     		ldrb	r3, [r1, #29]	@ zero_extendqisi2
 1214 0050 ABB1     		cbz	r3, .L88
 1215              	.L94:
 688:../asf/sam/drivers/pwm/pwm.c **** 		p_pwm->PWM_ELMR[1] |= (1 << unit);
 1216              		.loc 1 688 0
 1217 0052 D0F88030 		ldr	r3, [r0, #128]
 1218 0056 1A43     		orrs	r2, r2, r3
 689:../asf/sam/drivers/pwm/pwm.c **** 	} else {
 690:../asf/sam/drivers/pwm/pwm.c **** 		p_pwm->PWM_ELMR[1] &= ~((uint32_t) (1 << unit));
 691:../asf/sam/drivers/pwm/pwm.c **** 	}
 692:../asf/sam/drivers/pwm/pwm.c **** 
 693:../asf/sam/drivers/pwm/pwm.c **** 	/** Boolean of comparison enable */
 694:../asf/sam/drivers/pwm/pwm.c **** 	if (p_cmp->b_enable) {
 1219              		.loc 1 694 0
 1220 0058 0B79     		ldrb	r3, [r1, #4]	@ zero_extendqisi2
ARM GAS  /tmp/ccmSFvTJ.s 			page 37


 688:../asf/sam/drivers/pwm/pwm.c **** 		p_pwm->PWM_ELMR[1] |= (1 << unit);
 1221              		.loc 1 688 0
 1222 005a C0F88020 		str	r2, [r0, #128]
 695:../asf/sam/drivers/pwm/pwm.c **** 		p_pwm->PWM_CMP[unit].PWM_CMPM |= PWM_CMPM_CEN;
 1223              		.loc 1 695 0
 1224 005e 3044     		add	r0, r0, r6
 1225              	.LVL120:
 694:../asf/sam/drivers/pwm/pwm.c **** 		p_pwm->PWM_CMP[unit].PWM_CMPM |= PWM_CMPM_CEN;
 1226              		.loc 1 694 0
 1227 0060 BBB9     		cbnz	r3, .L93
 1228              	.L90:
 696:../asf/sam/drivers/pwm/pwm.c **** 	} else {
 697:../asf/sam/drivers/pwm/pwm.c **** 		p_pwm->PWM_CMP[unit].PWM_CMPM &= ~PWM_CMPM_CEN;
 1229              		.loc 1 697 0
 1230 0062 D0F83831 		ldr	r3, [r0, #312]
 1231 0066 23F00103 		bic	r3, r3, #1
 1232 006a C0F83831 		str	r3, [r0, #312]
 698:../asf/sam/drivers/pwm/pwm.c **** 	}
 699:../asf/sam/drivers/pwm/pwm.c **** 
 700:../asf/sam/drivers/pwm/pwm.c **** 	return 0;
 701:../asf/sam/drivers/pwm/pwm.c **** }
 1233              		.loc 1 701 0
 1234 006e 0020     		movs	r0, #0
 1235 0070 F0BD     		pop	{r4, r5, r6, r7, pc}
 1236              	.LVL121:
 1237              	.L86:
 684:../asf/sam/drivers/pwm/pwm.c **** 	}
 1238              		.loc 1 684 0
 1239 0072 23EA0203 		bic	r3, r3, r2
 1240 0076 C367     		str	r3, [r0, #124]
 1241              	.LVL122:
 687:../asf/sam/drivers/pwm/pwm.c **** 		p_pwm->PWM_ELMR[1] |= (1 << unit);
 1242              		.loc 1 687 0
 1243 0078 4B7F     		ldrb	r3, [r1, #29]	@ zero_extendqisi2
 1244 007a 002B     		cmp	r3, #0
 1245 007c E9D1     		bne	.L94
 1246              	.L88:
 690:../asf/sam/drivers/pwm/pwm.c **** 	}
 1247              		.loc 1 690 0
 1248 007e D0F88030 		ldr	r3, [r0, #128]
 1249 0082 23EA0202 		bic	r2, r3, r2
 694:../asf/sam/drivers/pwm/pwm.c **** 		p_pwm->PWM_CMP[unit].PWM_CMPM |= PWM_CMPM_CEN;
 1250              		.loc 1 694 0
 1251 0086 0B79     		ldrb	r3, [r1, #4]	@ zero_extendqisi2
 690:../asf/sam/drivers/pwm/pwm.c **** 	}
 1252              		.loc 1 690 0
 1253 0088 C0F88020 		str	r2, [r0, #128]
 695:../asf/sam/drivers/pwm/pwm.c **** 	} else {
 1254              		.loc 1 695 0
 1255 008c 3044     		add	r0, r0, r6
 1256              	.LVL123:
 694:../asf/sam/drivers/pwm/pwm.c **** 		p_pwm->PWM_CMP[unit].PWM_CMPM |= PWM_CMPM_CEN;
 1257              		.loc 1 694 0
 1258 008e 002B     		cmp	r3, #0
 1259 0090 E7D0     		beq	.L90
 1260              	.L93:
 695:../asf/sam/drivers/pwm/pwm.c **** 	} else {
ARM GAS  /tmp/ccmSFvTJ.s 			page 38


 1261              		.loc 1 695 0
 1262 0092 D0F83831 		ldr	r3, [r0, #312]
 1263 0096 43F00103 		orr	r3, r3, #1
 1264 009a C0F83831 		str	r3, [r0, #312]
 1265              		.loc 1 701 0
 1266 009e 0020     		movs	r0, #0
 1267 00a0 F0BD     		pop	{r4, r5, r6, r7, pc}
 1268              		.cfi_endproc
 1269              	.LFE161:
 1270              		.size	pwm_cmp_init, .-pwm_cmp_init
 1271 00a2 00BF     		.section	.text.pwm_cmp_change_setting,"ax",%progbits
 1272              		.align	1
 1273              		.p2align 2,,3
 1274              		.global	pwm_cmp_change_setting
 1275              		.syntax unified
 1276              		.thumb
 1277              		.thumb_func
 1278              		.fpu fpv5-d16
 1279              		.type	pwm_cmp_change_setting, %function
 1280              	pwm_cmp_change_setting:
 1281              	.LFB162:
 702:../asf/sam/drivers/pwm/pwm.c **** 
 703:../asf/sam/drivers/pwm/pwm.c **** 
 704:../asf/sam/drivers/pwm/pwm.c **** /**
 705:../asf/sam/drivers/pwm/pwm.c ****  * \brief Change the setting of PWM comparison.
 706:../asf/sam/drivers/pwm/pwm.c ****  *
 707:../asf/sam/drivers/pwm/pwm.c ****  * \param p_pwm Pointer to a PWM instance.
 708:../asf/sam/drivers/pwm/pwm.c ****  * \param p_cmp Configurations of PWM comparison tagged by unit.
 709:../asf/sam/drivers/pwm/pwm.c ****  *
 710:../asf/sam/drivers/pwm/pwm.c ****  * \retval 0 if changing succeeds, otherwise fails.
 711:../asf/sam/drivers/pwm/pwm.c ****  */
 712:../asf/sam/drivers/pwm/pwm.c **** uint32_t pwm_cmp_change_setting(Pwm *p_pwm, pwm_cmp_t *p_cmp)
 713:../asf/sam/drivers/pwm/pwm.c **** {
 1282              		.loc 1 713 0
 1283              		.cfi_startproc
 1284              		@ args = 0, pretend = 0, frame = 0
 1285              		@ frame_needed = 0, uses_anonymous_args = 0
 1286              	.LVL124:
 714:../asf/sam/drivers/pwm/pwm.c **** 	uint32_t unit = p_cmp->unit;
 715:../asf/sam/drivers/pwm/pwm.c **** 
 716:../asf/sam/drivers/pwm/pwm.c **** 	p_pwm->PWM_CMP[unit].PWM_CMPVUPD = PWM_CMPV_CV(p_cmp->ul_value) |
 717:../asf/sam/drivers/pwm/pwm.c **** 			(p_cmp->b_is_decrementing << 24);
 718:../asf/sam/drivers/pwm/pwm.c **** 
 719:../asf/sam/drivers/pwm/pwm.c **** 	p_pwm->PWM_CMP[unit].PWM_CMPMUPD = PWM_CMPM_CTR(p_cmp->ul_trigger) |
 720:../asf/sam/drivers/pwm/pwm.c **** 			PWM_CMPM_CPR(p_cmp->ul_period) |
 1287              		.loc 1 720 0
 1288 0000 4A69     		ldr	r2, [r1, #20]
 719:../asf/sam/drivers/pwm/pwm.c **** 			PWM_CMPM_CPR(p_cmp->ul_period) |
 1289              		.loc 1 719 0
 1290 0002 0B69     		ldr	r3, [r1, #16]
 713:../asf/sam/drivers/pwm/pwm.c **** 	uint32_t unit = p_cmp->unit;
 1291              		.loc 1 713 0
 1292 0004 F0B5     		push	{r4, r5, r6, r7, lr}
 1293              		.cfi_def_cfa_offset 20
 1294              		.cfi_offset 4, -20
 1295              		.cfi_offset 5, -16
 1296              		.cfi_offset 6, -12
ARM GAS  /tmp/ccmSFvTJ.s 			page 39


 1297              		.cfi_offset 7, -8
 1298              		.cfi_offset 14, -4
 719:../asf/sam/drivers/pwm/pwm.c **** 			PWM_CMPM_CPR(p_cmp->ul_period) |
 1299              		.loc 1 719 0
 1300 0006 1B01     		lsls	r3, r3, #4
 721:../asf/sam/drivers/pwm/pwm.c **** 			PWM_CMPM_CUPR(p_cmp->ul_update_period);
 1301              		.loc 1 721 0
 1302 0008 8D69     		ldr	r5, [r1, #24]
 720:../asf/sam/drivers/pwm/pwm.c **** 			PWM_CMPM_CUPR(p_cmp->ul_update_period);
 1303              		.loc 1 720 0
 1304 000a 1602     		lsls	r6, r2, #8
 716:../asf/sam/drivers/pwm/pwm.c **** 			(p_cmp->b_is_decrementing << 24);
 1305              		.loc 1 716 0
 1306 000c 8C68     		ldr	r4, [r1, #8]
 714:../asf/sam/drivers/pwm/pwm.c **** 
 1307              		.loc 1 714 0
 1308 000e 0A68     		ldr	r2, [r1]
 1309              	.LVL125:
 719:../asf/sam/drivers/pwm/pwm.c **** 			PWM_CMPM_CPR(p_cmp->ul_period) |
 1310              		.loc 1 719 0
 1311 0010 DBB2     		uxtb	r3, r3
 720:../asf/sam/drivers/pwm/pwm.c **** 			PWM_CMPM_CUPR(p_cmp->ul_update_period);
 1312              		.loc 1 720 0
 1313 0012 06F47066 		and	r6, r6, #3840
 1314              		.loc 1 721 0
 1315 0016 2D04     		lsls	r5, r5, #16
 717:../asf/sam/drivers/pwm/pwm.c **** 
 1316              		.loc 1 717 0
 1317 0018 91F80CE0 		ldrb	lr, [r1, #12]	@ zero_extendqisi2
 716:../asf/sam/drivers/pwm/pwm.c **** 			(p_cmp->b_is_decrementing << 24);
 1318              		.loc 1 716 0
 1319 001c 02F11307 		add	r7, r2, #19
 719:../asf/sam/drivers/pwm/pwm.c **** 			PWM_CMPM_CPR(p_cmp->ul_period) |
 1320              		.loc 1 719 0
 1321 0020 3343     		orrs	r3, r3, r6
 1322              		.loc 1 721 0
 1323 0022 05F47025 		and	r5, r5, #983040
 716:../asf/sam/drivers/pwm/pwm.c **** 			(p_cmp->b_is_decrementing << 24);
 1324              		.loc 1 716 0
 1325 0026 24F07F44 		bic	r4, r4, #-16777216
 719:../asf/sam/drivers/pwm/pwm.c **** 			PWM_CMPM_CPR(p_cmp->ul_period) |
 1326              		.loc 1 719 0
 1327 002a 1601     		lsls	r6, r2, #4
 720:../asf/sam/drivers/pwm/pwm.c **** 			PWM_CMPM_CUPR(p_cmp->ul_update_period);
 1328              		.loc 1 720 0
 1329 002c 2B43     		orrs	r3, r3, r5
 716:../asf/sam/drivers/pwm/pwm.c **** 			(p_cmp->b_is_decrementing << 24);
 1330              		.loc 1 716 0
 1331 002e 00EB0715 		add	r5, r0, r7, lsl #4
 1332 0032 44EA0E64 		orr	r4, r4, lr, lsl #24
 722:../asf/sam/drivers/pwm/pwm.c **** 
 723:../asf/sam/drivers/pwm/pwm.c **** 	/** Boolean of generating a match pulse */
 724:../asf/sam/drivers/pwm/pwm.c **** 	if (p_cmp->b_pulse_on_line_0) {
 1333              		.loc 1 724 0
 1334 0036 0F7F     		ldrb	r7, [r1, #28]	@ zero_extendqisi2
 719:../asf/sam/drivers/pwm/pwm.c **** 			PWM_CMPM_CPR(p_cmp->ul_period) |
 1335              		.loc 1 719 0
ARM GAS  /tmp/ccmSFvTJ.s 			page 40


 1336 0038 00EB060E 		add	lr, r0, r6
 716:../asf/sam/drivers/pwm/pwm.c **** 			(p_cmp->b_is_decrementing << 24);
 1337              		.loc 1 716 0
 1338 003c 6C60     		str	r4, [r5, #4]
 725:../asf/sam/drivers/pwm/pwm.c **** 		p_pwm->PWM_ELMR[0] |= (1 << unit);
 1339              		.loc 1 725 0
 1340 003e 0124     		movs	r4, #1
 719:../asf/sam/drivers/pwm/pwm.c **** 			PWM_CMPM_CPR(p_cmp->ul_period) |
 1341              		.loc 1 719 0
 1342 0040 CEF83C31 		str	r3, [lr, #316]
 1343              		.loc 1 725 0
 1344 0044 04FA02F2 		lsl	r2, r4, r2
 1345              	.LVL126:
 1346 0048 C36F     		ldr	r3, [r0, #124]
 724:../asf/sam/drivers/pwm/pwm.c **** 		p_pwm->PWM_ELMR[0] |= (1 << unit);
 1347              		.loc 1 724 0
 1348 004a 9FB1     		cbz	r7, .L96
 1349              		.loc 1 725 0
 1350 004c 1343     		orrs	r3, r3, r2
 1351 004e C367     		str	r3, [r0, #124]
 1352              	.LVL127:
 726:../asf/sam/drivers/pwm/pwm.c **** 	} else {
 727:../asf/sam/drivers/pwm/pwm.c **** 		p_pwm->PWM_ELMR[0] &= ~((uint32_t) (1 << unit));
 728:../asf/sam/drivers/pwm/pwm.c **** 	}
 729:../asf/sam/drivers/pwm/pwm.c **** 	/** Boolean of generating a match pulse */
 730:../asf/sam/drivers/pwm/pwm.c **** 	if (p_cmp->b_pulse_on_line_1) {
 1353              		.loc 1 730 0
 1354 0050 4B7F     		ldrb	r3, [r1, #29]	@ zero_extendqisi2
 1355 0052 ABB1     		cbz	r3, .L98
 1356              	.L104:
 731:../asf/sam/drivers/pwm/pwm.c **** 		p_pwm->PWM_ELMR[1] |= (1 << unit);
 1357              		.loc 1 731 0
 1358 0054 D0F88030 		ldr	r3, [r0, #128]
 1359 0058 1A43     		orrs	r2, r2, r3
 732:../asf/sam/drivers/pwm/pwm.c **** 	} else {
 733:../asf/sam/drivers/pwm/pwm.c **** 		p_pwm->PWM_ELMR[1] &= ~((uint32_t) (1 << unit));
 734:../asf/sam/drivers/pwm/pwm.c **** 	}
 735:../asf/sam/drivers/pwm/pwm.c **** 
 736:../asf/sam/drivers/pwm/pwm.c **** 	/** Boolean of comparison enable */
 737:../asf/sam/drivers/pwm/pwm.c **** 	if (p_cmp->b_enable) {
 1360              		.loc 1 737 0
 1361 005a 0B79     		ldrb	r3, [r1, #4]	@ zero_extendqisi2
 731:../asf/sam/drivers/pwm/pwm.c **** 		p_pwm->PWM_ELMR[1] |= (1 << unit);
 1362              		.loc 1 731 0
 1363 005c C0F88020 		str	r2, [r0, #128]
 738:../asf/sam/drivers/pwm/pwm.c **** 		p_pwm->PWM_CMP[unit].PWM_CMPMUPD |= PWM_CMPM_CEN;
 1364              		.loc 1 738 0
 1365 0060 3044     		add	r0, r0, r6
 1366              	.LVL128:
 737:../asf/sam/drivers/pwm/pwm.c **** 		p_pwm->PWM_CMP[unit].PWM_CMPMUPD |= PWM_CMPM_CEN;
 1367              		.loc 1 737 0
 1368 0062 BBB9     		cbnz	r3, .L103
 1369              	.L100:
 739:../asf/sam/drivers/pwm/pwm.c **** 	} else {
 740:../asf/sam/drivers/pwm/pwm.c **** 		p_pwm->PWM_CMP[unit].PWM_CMPMUPD &= ~PWM_CMPM_CEN;
 1370              		.loc 1 740 0
 1371 0064 D0F83C31 		ldr	r3, [r0, #316]
ARM GAS  /tmp/ccmSFvTJ.s 			page 41


 1372 0068 23F00103 		bic	r3, r3, #1
 1373 006c C0F83C31 		str	r3, [r0, #316]
 741:../asf/sam/drivers/pwm/pwm.c **** 	}
 742:../asf/sam/drivers/pwm/pwm.c **** 
 743:../asf/sam/drivers/pwm/pwm.c **** 	return 0;
 744:../asf/sam/drivers/pwm/pwm.c **** }
 1374              		.loc 1 744 0
 1375 0070 0020     		movs	r0, #0
 1376 0072 F0BD     		pop	{r4, r5, r6, r7, pc}
 1377              	.LVL129:
 1378              	.L96:
 727:../asf/sam/drivers/pwm/pwm.c **** 	}
 1379              		.loc 1 727 0
 1380 0074 23EA0203 		bic	r3, r3, r2
 1381 0078 C367     		str	r3, [r0, #124]
 1382              	.LVL130:
 730:../asf/sam/drivers/pwm/pwm.c **** 		p_pwm->PWM_ELMR[1] |= (1 << unit);
 1383              		.loc 1 730 0
 1384 007a 4B7F     		ldrb	r3, [r1, #29]	@ zero_extendqisi2
 1385 007c 002B     		cmp	r3, #0
 1386 007e E9D1     		bne	.L104
 1387              	.L98:
 733:../asf/sam/drivers/pwm/pwm.c **** 	}
 1388              		.loc 1 733 0
 1389 0080 D0F88030 		ldr	r3, [r0, #128]
 1390 0084 23EA0202 		bic	r2, r3, r2
 737:../asf/sam/drivers/pwm/pwm.c **** 		p_pwm->PWM_CMP[unit].PWM_CMPMUPD |= PWM_CMPM_CEN;
 1391              		.loc 1 737 0
 1392 0088 0B79     		ldrb	r3, [r1, #4]	@ zero_extendqisi2
 733:../asf/sam/drivers/pwm/pwm.c **** 	}
 1393              		.loc 1 733 0
 1394 008a C0F88020 		str	r2, [r0, #128]
 738:../asf/sam/drivers/pwm/pwm.c **** 	} else {
 1395              		.loc 1 738 0
 1396 008e 3044     		add	r0, r0, r6
 1397              	.LVL131:
 737:../asf/sam/drivers/pwm/pwm.c **** 		p_pwm->PWM_CMP[unit].PWM_CMPMUPD |= PWM_CMPM_CEN;
 1398              		.loc 1 737 0
 1399 0090 002B     		cmp	r3, #0
 1400 0092 E7D0     		beq	.L100
 1401              	.L103:
 738:../asf/sam/drivers/pwm/pwm.c **** 	} else {
 1402              		.loc 1 738 0
 1403 0094 D0F83C31 		ldr	r3, [r0, #316]
 1404 0098 43F00103 		orr	r3, r3, #1
 1405 009c C0F83C31 		str	r3, [r0, #316]
 1406              		.loc 1 744 0
 1407 00a0 0020     		movs	r0, #0
 1408 00a2 F0BD     		pop	{r4, r5, r6, r7, pc}
 1409              		.cfi_endproc
 1410              	.LFE162:
 1411              		.size	pwm_cmp_change_setting, .-pwm_cmp_change_setting
 1412              		.section	.text.pwm_cmp_get_period_counter,"ax",%progbits
 1413              		.align	1
 1414              		.p2align 2,,3
 1415              		.global	pwm_cmp_get_period_counter
 1416              		.syntax unified
ARM GAS  /tmp/ccmSFvTJ.s 			page 42


 1417              		.thumb
 1418              		.thumb_func
 1419              		.fpu fpv5-d16
 1420              		.type	pwm_cmp_get_period_counter, %function
 1421              	pwm_cmp_get_period_counter:
 1422              	.LFB184:
 1423              		.cfi_startproc
 1424              		@ args = 0, pretend = 0, frame = 0
 1425              		@ frame_needed = 0, uses_anonymous_args = 0
 1426              		@ link register save eliminated.
 1427 0000 00EB0111 		add	r1, r0, r1, lsl #4
 1428 0004 D1F83801 		ldr	r0, [r1, #312]
 1429 0008 00F00F00 		and	r0, r0, #15
 1430 000c 7047     		bx	lr
 1431              		.cfi_endproc
 1432              	.LFE184:
 1433              		.size	pwm_cmp_get_period_counter, .-pwm_cmp_get_period_counter
 1434 000e 00BF     		.section	.text.pwm_cmp_get_update_counter,"ax",%progbits
 1435              		.align	1
 1436              		.p2align 2,,3
 1437              		.global	pwm_cmp_get_update_counter
 1438              		.syntax unified
 1439              		.thumb
 1440              		.thumb_func
 1441              		.fpu fpv5-d16
 1442              		.type	pwm_cmp_get_update_counter, %function
 1443              	pwm_cmp_get_update_counter:
 1444              	.LFB164:
 745:../asf/sam/drivers/pwm/pwm.c **** 
 746:../asf/sam/drivers/pwm/pwm.c **** 
 747:../asf/sam/drivers/pwm/pwm.c **** /**
 748:../asf/sam/drivers/pwm/pwm.c ****  * \brief Report the value of the comparison period counter.
 749:../asf/sam/drivers/pwm/pwm.c ****  *
 750:../asf/sam/drivers/pwm/pwm.c ****  * \param p_pwm	Pointer to a PWM instance.
 751:../asf/sam/drivers/pwm/pwm.c ****  * \param ul_cmp_unit PWM comparison unit number.
 752:../asf/sam/drivers/pwm/pwm.c ****  *
 753:../asf/sam/drivers/pwm/pwm.c ****  * \return Value of the comparison period counter.
 754:../asf/sam/drivers/pwm/pwm.c ****  */
 755:../asf/sam/drivers/pwm/pwm.c **** uint32_t pwm_cmp_get_period_counter(Pwm *p_pwm, uint32_t ul_cmp_unit)
 756:../asf/sam/drivers/pwm/pwm.c **** {
 757:../asf/sam/drivers/pwm/pwm.c **** 	return (PWM_CMPM_CPRCNT(p_pwm->PWM_CMP[ul_cmp_unit].PWM_CMPM)
 758:../asf/sam/drivers/pwm/pwm.c **** 			>> PWM_CMPM_CPRCNT_Pos);
 759:../asf/sam/drivers/pwm/pwm.c **** }
 760:../asf/sam/drivers/pwm/pwm.c **** 
 761:../asf/sam/drivers/pwm/pwm.c **** /**
 762:../asf/sam/drivers/pwm/pwm.c ****  * \brief Report the value of the comparison update period counter.
 763:../asf/sam/drivers/pwm/pwm.c ****  *
 764:../asf/sam/drivers/pwm/pwm.c ****  * \param p_pwm Pointer to a PWM instance.
 765:../asf/sam/drivers/pwm/pwm.c ****  * \param ul_cmp_unit PWM comparison unit number.
 766:../asf/sam/drivers/pwm/pwm.c ****  *
 767:../asf/sam/drivers/pwm/pwm.c ****  * \return Value of the comparison update period counter.
 768:../asf/sam/drivers/pwm/pwm.c ****  */
 769:../asf/sam/drivers/pwm/pwm.c **** uint32_t pwm_cmp_get_update_counter(Pwm *p_pwm, uint32_t ul_cmp_unit)
 770:../asf/sam/drivers/pwm/pwm.c **** {
 1445              		.loc 1 770 0
 1446              		.cfi_startproc
 1447              		@ args = 0, pretend = 0, frame = 0
ARM GAS  /tmp/ccmSFvTJ.s 			page 43


 1448              		@ frame_needed = 0, uses_anonymous_args = 0
 1449              		@ link register save eliminated.
 1450              	.LVL132:
 771:../asf/sam/drivers/pwm/pwm.c **** 	return (PWM_CMPM_CUPRCNT(p_pwm->PWM_CMP[ul_cmp_unit].PWM_CMPM)
 1451              		.loc 1 771 0
 1452 0000 00EB0111 		add	r1, r0, r1, lsl #4
 1453              	.LVL133:
 1454 0004 D1F83801 		ldr	r0, [r1, #312]
 1455              	.LVL134:
 772:../asf/sam/drivers/pwm/pwm.c **** 			>> PWM_CMPM_CUPRCNT_Pos);
 773:../asf/sam/drivers/pwm/pwm.c **** }
 1456              		.loc 1 773 0
 1457 0008 00F00F00 		and	r0, r0, #15
 1458 000c 7047     		bx	lr
 1459              		.cfi_endproc
 1460              	.LFE164:
 1461              		.size	pwm_cmp_get_update_counter, .-pwm_cmp_get_update_counter
 1462 000e 00BF     		.section	.text.pwm_cmp_enable_interrupt,"ax",%progbits
 1463              		.align	1
 1464              		.p2align 2,,3
 1465              		.global	pwm_cmp_enable_interrupt
 1466              		.syntax unified
 1467              		.thumb
 1468              		.thumb_func
 1469              		.fpu fpv5-d16
 1470              		.type	pwm_cmp_enable_interrupt, %function
 1471              	pwm_cmp_enable_interrupt:
 1472              	.LFB165:
 774:../asf/sam/drivers/pwm/pwm.c **** 
 775:../asf/sam/drivers/pwm/pwm.c **** 
 776:../asf/sam/drivers/pwm/pwm.c **** /**
 777:../asf/sam/drivers/pwm/pwm.c ****  * \brief Enable the interrupt of comparison.
 778:../asf/sam/drivers/pwm/pwm.c ****  *
 779:../asf/sam/drivers/pwm/pwm.c ****  * \param p_pwm Pointer to a PWM instance.
 780:../asf/sam/drivers/pwm/pwm.c ****  * \param ul_sources Bitmask of comparison unit.
 781:../asf/sam/drivers/pwm/pwm.c ****  * \param type PWM_CMP_MATCH enables the match interrupt of the unit. PWM_CMP_UPDATE enables the up
 782:../asf/sam/drivers/pwm/pwm.c ****  */
 783:../asf/sam/drivers/pwm/pwm.c **** void pwm_cmp_enable_interrupt(Pwm *p_pwm, uint32_t ul_sources,
 784:../asf/sam/drivers/pwm/pwm.c **** 		pwm_cmp_interrupt_t type)
 785:../asf/sam/drivers/pwm/pwm.c **** {
 1473              		.loc 1 785 0
 1474              		.cfi_startproc
 1475              		@ args = 0, pretend = 0, frame = 0
 1476              		@ frame_needed = 0, uses_anonymous_args = 0
 1477              		@ link register save eliminated.
 1478              	.LVL135:
 786:../asf/sam/drivers/pwm/pwm.c **** 	if (type == PWM_CMP_MATCH) {
 1479              		.loc 1 786 0
 1480 0000 082A     		cmp	r2, #8
 1481 0002 08D0     		beq	.L110
 787:../asf/sam/drivers/pwm/pwm.c **** 		p_pwm->PWM_IER2 = ((1 << ul_sources) << 8);
 788:../asf/sam/drivers/pwm/pwm.c **** 	} else if (type == PWM_CMP_UPDATE) {
 1482              		.loc 1 788 0
 1483 0004 102A     		cmp	r2, #16
 1484 0006 00D0     		beq	.L111
 1485 0008 7047     		bx	lr
 1486              	.L111:
ARM GAS  /tmp/ccmSFvTJ.s 			page 44


 789:../asf/sam/drivers/pwm/pwm.c **** 		p_pwm->PWM_IER2 = ((1 << ul_sources) << 16);
 1487              		.loc 1 789 0
 1488 000a 4FF48033 		mov	r3, #65536
 1489 000e 03FA01F1 		lsl	r1, r3, r1
 1490              	.LVL136:
 1491 0012 4163     		str	r1, [r0, #52]
 1492 0014 7047     		bx	lr
 1493              	.LVL137:
 1494              	.L110:
 787:../asf/sam/drivers/pwm/pwm.c **** 		p_pwm->PWM_IER2 = ((1 << ul_sources) << 8);
 1495              		.loc 1 787 0
 1496 0016 4FF48073 		mov	r3, #256
 1497 001a 03FA01F1 		lsl	r1, r3, r1
 1498              	.LVL138:
 1499 001e 4163     		str	r1, [r0, #52]
 1500 0020 7047     		bx	lr
 1501              		.cfi_endproc
 1502              	.LFE165:
 1503              		.size	pwm_cmp_enable_interrupt, .-pwm_cmp_enable_interrupt
 1504 0022 00BF     		.section	.text.pwm_cmp_disable_interrupt,"ax",%progbits
 1505              		.align	1
 1506              		.p2align 2,,3
 1507              		.global	pwm_cmp_disable_interrupt
 1508              		.syntax unified
 1509              		.thumb
 1510              		.thumb_func
 1511              		.fpu fpv5-d16
 1512              		.type	pwm_cmp_disable_interrupt, %function
 1513              	pwm_cmp_disable_interrupt:
 1514              	.LFB166:
 790:../asf/sam/drivers/pwm/pwm.c **** 	} else {
 791:../asf/sam/drivers/pwm/pwm.c **** 		/* Do Nothing */
 792:../asf/sam/drivers/pwm/pwm.c **** 	}
 793:../asf/sam/drivers/pwm/pwm.c **** }
 794:../asf/sam/drivers/pwm/pwm.c **** 
 795:../asf/sam/drivers/pwm/pwm.c **** 
 796:../asf/sam/drivers/pwm/pwm.c **** /**
 797:../asf/sam/drivers/pwm/pwm.c ****  * \brief Disable the interrupt of comparison.
 798:../asf/sam/drivers/pwm/pwm.c ****  *
 799:../asf/sam/drivers/pwm/pwm.c ****  * \param p_pwm Pointer to a PWM instance.
 800:../asf/sam/drivers/pwm/pwm.c ****  * \param ul_sources Bitmask of comparison unit.
 801:../asf/sam/drivers/pwm/pwm.c ****  * \param type PWM_CMP_MATCH disables the match interrupt of the unit. PWM_CMP_UPDATE disables the 
 802:../asf/sam/drivers/pwm/pwm.c ****  */
 803:../asf/sam/drivers/pwm/pwm.c **** void pwm_cmp_disable_interrupt(Pwm *p_pwm, uint32_t ul_sources,
 804:../asf/sam/drivers/pwm/pwm.c **** 		pwm_cmp_interrupt_t type)
 805:../asf/sam/drivers/pwm/pwm.c **** {
 1515              		.loc 1 805 0
 1516              		.cfi_startproc
 1517              		@ args = 0, pretend = 0, frame = 0
 1518              		@ frame_needed = 0, uses_anonymous_args = 0
 1519              		@ link register save eliminated.
 1520              	.LVL139:
 806:../asf/sam/drivers/pwm/pwm.c **** 	if (type == PWM_CMP_MATCH) {
 1521              		.loc 1 806 0
 1522 0000 082A     		cmp	r2, #8
 1523 0002 08D0     		beq	.L115
 807:../asf/sam/drivers/pwm/pwm.c **** 		p_pwm->PWM_IDR2 = ((1 << ul_sources) << 8);
ARM GAS  /tmp/ccmSFvTJ.s 			page 45


 808:../asf/sam/drivers/pwm/pwm.c **** 	} else if (type == PWM_CMP_UPDATE) {
 1524              		.loc 1 808 0
 1525 0004 102A     		cmp	r2, #16
 1526 0006 00D0     		beq	.L116
 1527 0008 7047     		bx	lr
 1528              	.L116:
 809:../asf/sam/drivers/pwm/pwm.c **** 		p_pwm->PWM_IDR2 = ((1 << ul_sources) << 16);
 1529              		.loc 1 809 0
 1530 000a 4FF48033 		mov	r3, #65536
 1531 000e 03FA01F1 		lsl	r1, r3, r1
 1532              	.LVL140:
 1533 0012 8163     		str	r1, [r0, #56]
 1534 0014 7047     		bx	lr
 1535              	.LVL141:
 1536              	.L115:
 807:../asf/sam/drivers/pwm/pwm.c **** 		p_pwm->PWM_IDR2 = ((1 << ul_sources) << 8);
 1537              		.loc 1 807 0
 1538 0016 4FF48073 		mov	r3, #256
 1539 001a 03FA01F1 		lsl	r1, r3, r1
 1540              	.LVL142:
 1541 001e 8163     		str	r1, [r0, #56]
 1542 0020 7047     		bx	lr
 1543              		.cfi_endproc
 1544              	.LFE166:
 1545              		.size	pwm_cmp_disable_interrupt, .-pwm_cmp_disable_interrupt
 1546 0022 00BF     		.section	.text.pwm_sync_init,"ax",%progbits
 1547              		.align	1
 1548              		.p2align 2,,3
 1549              		.global	pwm_sync_init
 1550              		.syntax unified
 1551              		.thumb
 1552              		.thumb_func
 1553              		.fpu fpv5-d16
 1554              		.type	pwm_sync_init, %function
 1555              	pwm_sync_init:
 1556              	.LFB167:
 810:../asf/sam/drivers/pwm/pwm.c **** 	} else {
 811:../asf/sam/drivers/pwm/pwm.c **** 		/* Do Nothing */
 812:../asf/sam/drivers/pwm/pwm.c **** 	}
 813:../asf/sam/drivers/pwm/pwm.c **** }
 814:../asf/sam/drivers/pwm/pwm.c **** 
 815:../asf/sam/drivers/pwm/pwm.c **** #if !(SAMV70 || SAMV71 || SAME70 || SAMS70)
 816:../asf/sam/drivers/pwm/pwm.c **** /**
 817:../asf/sam/drivers/pwm/pwm.c ****  * \brief Set PDC transfer request mode.
 818:../asf/sam/drivers/pwm/pwm.c ****  *
 819:../asf/sam/drivers/pwm/pwm.c ****  * \note If configure Synchronous channels update mode as 'PWM_SYNC_UPDATE_MODE_0' or 'PWM_SYNC_UPD
 820:../asf/sam/drivers/pwm/pwm.c ****  *
 821:../asf/sam/drivers/pwm/pwm.c ****  * \param p_pwm Pointer to a PWM instance.
 822:../asf/sam/drivers/pwm/pwm.c ****  * \param request_mode PDC transfer request mode.
 823:../asf/sam/drivers/pwm/pwm.c ****  * \param ul_cmp_unit PWM comparison unit number for PDC transfer request.
 824:../asf/sam/drivers/pwm/pwm.c ****  */
 825:../asf/sam/drivers/pwm/pwm.c **** void pwm_pdc_set_request_mode(Pwm *p_pwm, pwm_pdc_request_mode_t request_mode,
 826:../asf/sam/drivers/pwm/pwm.c **** 		uint32_t ul_cmp_unit)
 827:../asf/sam/drivers/pwm/pwm.c **** {
 828:../asf/sam/drivers/pwm/pwm.c **** 	uint32_t sync_mode = p_pwm->PWM_SCM;
 829:../asf/sam/drivers/pwm/pwm.c **** 
 830:../asf/sam/drivers/pwm/pwm.c **** 	sync_mode &= ~(PWM_SCM_PTRCS_Msk | PWM_SCM_PTRM);
ARM GAS  /tmp/ccmSFvTJ.s 			page 46


 831:../asf/sam/drivers/pwm/pwm.c **** 	sync_mode |= (PWM_SCM_PTRCS(ul_cmp_unit) | request_mode);
 832:../asf/sam/drivers/pwm/pwm.c **** 
 833:../asf/sam/drivers/pwm/pwm.c **** 	p_pwm->PWM_SCM = sync_mode;
 834:../asf/sam/drivers/pwm/pwm.c **** }
 835:../asf/sam/drivers/pwm/pwm.c **** 
 836:../asf/sam/drivers/pwm/pwm.c **** 
 837:../asf/sam/drivers/pwm/pwm.c **** 
 838:../asf/sam/drivers/pwm/pwm.c **** /**
 839:../asf/sam/drivers/pwm/pwm.c ****  * \brief Enable the interrupt of PDC transfer.
 840:../asf/sam/drivers/pwm/pwm.c ****  *
 841:../asf/sam/drivers/pwm/pwm.c ****  * \param p_pwm Pointer to a PWM instance.
 842:../asf/sam/drivers/pwm/pwm.c ****  * \param ul_sources Bitmask of PWM PDC transfer interrupt sources.
 843:../asf/sam/drivers/pwm/pwm.c ****  */
 844:../asf/sam/drivers/pwm/pwm.c **** void pwm_pdc_enable_interrupt(Pwm *p_pwm, uint32_t ul_sources)
 845:../asf/sam/drivers/pwm/pwm.c **** {
 846:../asf/sam/drivers/pwm/pwm.c **** 	p_pwm->PWM_IER2 = ul_sources;
 847:../asf/sam/drivers/pwm/pwm.c **** }
 848:../asf/sam/drivers/pwm/pwm.c **** 
 849:../asf/sam/drivers/pwm/pwm.c **** /**
 850:../asf/sam/drivers/pwm/pwm.c ****  * \brief Disable the interrupt of PDC transfer.
 851:../asf/sam/drivers/pwm/pwm.c ****  *
 852:../asf/sam/drivers/pwm/pwm.c ****  * \param p_pwm Pointer to a PWM instance.
 853:../asf/sam/drivers/pwm/pwm.c ****  * \param ul_sources Bitmask of PWM PDC transfer interrupt sources.
 854:../asf/sam/drivers/pwm/pwm.c ****  */
 855:../asf/sam/drivers/pwm/pwm.c **** void pwm_pdc_disable_interrupt(Pwm *p_pwm, uint32_t ul_sources)
 856:../asf/sam/drivers/pwm/pwm.c **** {
 857:../asf/sam/drivers/pwm/pwm.c **** 	p_pwm->PWM_IDR2 = ul_sources;
 858:../asf/sam/drivers/pwm/pwm.c **** }
 859:../asf/sam/drivers/pwm/pwm.c **** #endif
 860:../asf/sam/drivers/pwm/pwm.c **** 
 861:../asf/sam/drivers/pwm/pwm.c **** /**
 862:../asf/sam/drivers/pwm/pwm.c ****  * \brief Initialize synchronous channels update mode and period.
 863:../asf/sam/drivers/pwm/pwm.c ****  *
 864:../asf/sam/drivers/pwm/pwm.c ****  * \param p_pwm Pointer to a PWM instance.
 865:../asf/sam/drivers/pwm/pwm.c ****  * \param mode Synchronous channels update mode.
 866:../asf/sam/drivers/pwm/pwm.c ****  * \param ul_update_period Time between each update of the synchronous channels.
 867:../asf/sam/drivers/pwm/pwm.c ****  *
 868:../asf/sam/drivers/pwm/pwm.c ****  * \retval 0 if initialization succeeds, otherwise fails.
 869:../asf/sam/drivers/pwm/pwm.c ****  */
 870:../asf/sam/drivers/pwm/pwm.c **** uint32_t pwm_sync_init(Pwm *p_pwm, pwm_sync_update_mode_t mode,
 871:../asf/sam/drivers/pwm/pwm.c **** 		uint32_t ul_update_period)
 872:../asf/sam/drivers/pwm/pwm.c **** {
 1557              		.loc 1 872 0
 1558              		.cfi_startproc
 1559              		@ args = 0, pretend = 0, frame = 0
 1560              		@ frame_needed = 0, uses_anonymous_args = 0
 1561              		@ link register save eliminated.
 1562              	.LVL143:
 1563 0000 10B4     		push	{r4}
 1564              		.cfi_def_cfa_offset 4
 1565              		.cfi_offset 4, -4
 1566              		.loc 1 872 0
 1567 0002 0446     		mov	r4, r0
 873:../asf/sam/drivers/pwm/pwm.c **** 	uint32_t sync_mode = p_pwm->PWM_SCM;
 874:../asf/sam/drivers/pwm/pwm.c **** 
 875:../asf/sam/drivers/pwm/pwm.c **** 	sync_mode &= ~PWM_SCM_UPDM_Msk;
 876:../asf/sam/drivers/pwm/pwm.c **** 	sync_mode |= mode;
ARM GAS  /tmp/ccmSFvTJ.s 			page 47


 877:../asf/sam/drivers/pwm/pwm.c **** 
 878:../asf/sam/drivers/pwm/pwm.c **** 	p_pwm->PWM_SCM = sync_mode;
 879:../asf/sam/drivers/pwm/pwm.c **** 
 880:../asf/sam/drivers/pwm/pwm.c **** 	p_pwm->PWM_SCUP = PWM_SCUP_UPR(ul_update_period);
 1568              		.loc 1 880 0
 1569 0004 02F00F02 		and	r2, r2, #15
 1570              	.LVL144:
 881:../asf/sam/drivers/pwm/pwm.c **** 
 882:../asf/sam/drivers/pwm/pwm.c **** 	return 0;
 883:../asf/sam/drivers/pwm/pwm.c **** }
 1571              		.loc 1 883 0
 1572 0008 0020     		movs	r0, #0
 1573              	.LVL145:
 873:../asf/sam/drivers/pwm/pwm.c **** 	uint32_t sync_mode = p_pwm->PWM_SCM;
 1574              		.loc 1 873 0
 1575 000a 236A     		ldr	r3, [r4, #32]
 1576              	.LVL146:
 875:../asf/sam/drivers/pwm/pwm.c **** 	sync_mode |= mode;
 1577              		.loc 1 875 0
 1578 000c 23F44033 		bic	r3, r3, #196608
 1579              	.LVL147:
 876:../asf/sam/drivers/pwm/pwm.c **** 
 1580              		.loc 1 876 0
 1581 0010 1943     		orrs	r1, r1, r3
 1582              	.LVL148:
 878:../asf/sam/drivers/pwm/pwm.c **** 
 1583              		.loc 1 878 0
 1584 0012 2162     		str	r1, [r4, #32]
 880:../asf/sam/drivers/pwm/pwm.c **** 
 1585              		.loc 1 880 0
 1586 0014 E262     		str	r2, [r4, #44]
 1587              		.loc 1 883 0
 1588 0016 5DF8044B 		ldr	r4, [sp], #4
 1589              		.cfi_restore 4
 1590              		.cfi_def_cfa_offset 0
 1591              	.LVL149:
 1592 001a 7047     		bx	lr
 1593              		.cfi_endproc
 1594              	.LFE167:
 1595              		.size	pwm_sync_init, .-pwm_sync_init
 1596              		.section	.text.pwm_sync_unlock_update,"ax",%progbits
 1597              		.align	1
 1598              		.p2align 2,,3
 1599              		.global	pwm_sync_unlock_update
 1600              		.syntax unified
 1601              		.thumb
 1602              		.thumb_func
 1603              		.fpu fpv5-d16
 1604              		.type	pwm_sync_unlock_update, %function
 1605              	pwm_sync_unlock_update:
 1606              	.LFB168:
 884:../asf/sam/drivers/pwm/pwm.c **** 
 885:../asf/sam/drivers/pwm/pwm.c **** /**
 886:../asf/sam/drivers/pwm/pwm.c ****  * \brief Unlock the update of synchronous channels.
 887:../asf/sam/drivers/pwm/pwm.c ****  *
 888:../asf/sam/drivers/pwm/pwm.c ****  * \note After unlock, synchronous channels will be updated at the next PWM period.
 889:../asf/sam/drivers/pwm/pwm.c ****  *
ARM GAS  /tmp/ccmSFvTJ.s 			page 48


 890:../asf/sam/drivers/pwm/pwm.c ****  * \param p_pwm Pointer to a PWM instance.
 891:../asf/sam/drivers/pwm/pwm.c ****  */
 892:../asf/sam/drivers/pwm/pwm.c **** void pwm_sync_unlock_update(Pwm *p_pwm)
 893:../asf/sam/drivers/pwm/pwm.c **** {
 1607              		.loc 1 893 0
 1608              		.cfi_startproc
 1609              		@ args = 0, pretend = 0, frame = 0
 1610              		@ frame_needed = 0, uses_anonymous_args = 0
 1611              		@ link register save eliminated.
 1612              	.LVL150:
 894:../asf/sam/drivers/pwm/pwm.c **** 	p_pwm->PWM_SCUC = PWM_SCUC_UPDULOCK;
 1613              		.loc 1 894 0
 1614 0000 0123     		movs	r3, #1
 1615 0002 8362     		str	r3, [r0, #40]
 1616 0004 7047     		bx	lr
 1617              		.cfi_endproc
 1618              	.LFE168:
 1619              		.size	pwm_sync_unlock_update, .-pwm_sync_unlock_update
 1620 0006 00BF     		.section	.text.pwm_sync_change_period,"ax",%progbits
 1621              		.align	1
 1622              		.p2align 2,,3
 1623              		.global	pwm_sync_change_period
 1624              		.syntax unified
 1625              		.thumb
 1626              		.thumb_func
 1627              		.fpu fpv5-d16
 1628              		.type	pwm_sync_change_period, %function
 1629              	pwm_sync_change_period:
 1630              	.LFB169:
 895:../asf/sam/drivers/pwm/pwm.c **** }
 896:../asf/sam/drivers/pwm/pwm.c **** 
 897:../asf/sam/drivers/pwm/pwm.c **** /**
 898:../asf/sam/drivers/pwm/pwm.c ****  * \brief Change the wanted time between each update of the synchronous channels.
 899:../asf/sam/drivers/pwm/pwm.c ****  *
 900:../asf/sam/drivers/pwm/pwm.c ****  * \param p_pwm Pointer to a PWM instance.
 901:../asf/sam/drivers/pwm/pwm.c ****  * \param ul_update_period Time between each update of the synchronous channels.
 902:../asf/sam/drivers/pwm/pwm.c ****  */
 903:../asf/sam/drivers/pwm/pwm.c **** void pwm_sync_change_period(Pwm *p_pwm, uint32_t ul_update_period)
 904:../asf/sam/drivers/pwm/pwm.c **** {
 1631              		.loc 1 904 0
 1632              		.cfi_startproc
 1633              		@ args = 0, pretend = 0, frame = 0
 1634              		@ frame_needed = 0, uses_anonymous_args = 0
 1635              		@ link register save eliminated.
 1636              	.LVL151:
 905:../asf/sam/drivers/pwm/pwm.c **** 	p_pwm->PWM_SCUPUPD = PWM_SCUPUPD_UPRUPD(ul_update_period);
 1637              		.loc 1 905 0
 1638 0000 01F00F01 		and	r1, r1, #15
 1639              	.LVL152:
 1640 0004 0163     		str	r1, [r0, #48]
 1641 0006 7047     		bx	lr
 1642              		.cfi_endproc
 1643              	.LFE169:
 1644              		.size	pwm_sync_change_period, .-pwm_sync_change_period
 1645              		.section	.text.pwm_sync_get_period_counter,"ax",%progbits
 1646              		.align	1
 1647              		.p2align 2,,3
ARM GAS  /tmp/ccmSFvTJ.s 			page 49


 1648              		.global	pwm_sync_get_period_counter
 1649              		.syntax unified
 1650              		.thumb
 1651              		.thumb_func
 1652              		.fpu fpv5-d16
 1653              		.type	pwm_sync_get_period_counter, %function
 1654              	pwm_sync_get_period_counter:
 1655              	.LFB170:
 906:../asf/sam/drivers/pwm/pwm.c **** }
 907:../asf/sam/drivers/pwm/pwm.c **** 
 908:../asf/sam/drivers/pwm/pwm.c **** /**
 909:../asf/sam/drivers/pwm/pwm.c ****  * \brief Get the value of the synchronization update period counter.
 910:../asf/sam/drivers/pwm/pwm.c ****  *
 911:../asf/sam/drivers/pwm/pwm.c ****  * \param p_pwm Pointer to a PWM instance.
 912:../asf/sam/drivers/pwm/pwm.c ****  *
 913:../asf/sam/drivers/pwm/pwm.c ****  * \return Value of the synchronization update Period Counter.
 914:../asf/sam/drivers/pwm/pwm.c ****  */
 915:../asf/sam/drivers/pwm/pwm.c **** uint32_t pwm_sync_get_period_counter(Pwm *p_pwm)
 916:../asf/sam/drivers/pwm/pwm.c **** {
 1656              		.loc 1 916 0
 1657              		.cfi_startproc
 1658              		@ args = 0, pretend = 0, frame = 0
 1659              		@ frame_needed = 0, uses_anonymous_args = 0
 1660              		@ link register save eliminated.
 1661              	.LVL153:
 917:../asf/sam/drivers/pwm/pwm.c **** 	return PWM_SCUP_UPRCNT(p_pwm->PWM_SCUP);
 1662              		.loc 1 917 0
 1663 0000 C06A     		ldr	r0, [r0, #44]
 1664              	.LVL154:
 1665 0002 0001     		lsls	r0, r0, #4
 918:../asf/sam/drivers/pwm/pwm.c **** }
 1666              		.loc 1 918 0
 1667 0004 00F0F000 		and	r0, r0, #240
 1668 0008 7047     		bx	lr
 1669              		.cfi_endproc
 1670              	.LFE170:
 1671              		.size	pwm_sync_get_period_counter, .-pwm_sync_get_period_counter
 1672 000a 00BF     		.section	.text.pwm_sync_enable_interrupt,"ax",%progbits
 1673              		.align	1
 1674              		.p2align 2,,3
 1675              		.global	pwm_sync_enable_interrupt
 1676              		.syntax unified
 1677              		.thumb
 1678              		.thumb_func
 1679              		.fpu fpv5-d16
 1680              		.type	pwm_sync_enable_interrupt, %function
 1681              	pwm_sync_enable_interrupt:
 1682              	.LFB171:
 919:../asf/sam/drivers/pwm/pwm.c **** 
 920:../asf/sam/drivers/pwm/pwm.c **** /**
 921:../asf/sam/drivers/pwm/pwm.c ****  * \brief Enable the interrupt of synchronous channel.
 922:../asf/sam/drivers/pwm/pwm.c ****  *
 923:../asf/sam/drivers/pwm/pwm.c ****  * \param p_pwm Pointer to a PWM instance.
 924:../asf/sam/drivers/pwm/pwm.c ****  * \param ul_sources Bitmask of PWM synchronous channels interrupt sources.
 925:../asf/sam/drivers/pwm/pwm.c ****  */
 926:../asf/sam/drivers/pwm/pwm.c **** void pwm_sync_enable_interrupt(Pwm *p_pwm, uint32_t ul_sources)
 927:../asf/sam/drivers/pwm/pwm.c **** {
ARM GAS  /tmp/ccmSFvTJ.s 			page 50


 1683              		.loc 1 927 0
 1684              		.cfi_startproc
 1685              		@ args = 0, pretend = 0, frame = 0
 1686              		@ frame_needed = 0, uses_anonymous_args = 0
 1687              		@ link register save eliminated.
 1688              	.LVL155:
 928:../asf/sam/drivers/pwm/pwm.c **** 	p_pwm->PWM_IER2 = ul_sources;
 1689              		.loc 1 928 0
 1690 0000 4163     		str	r1, [r0, #52]
 1691 0002 7047     		bx	lr
 1692              		.cfi_endproc
 1693              	.LFE171:
 1694              		.size	pwm_sync_enable_interrupt, .-pwm_sync_enable_interrupt
 1695              		.section	.text.pwm_sync_disable_interrupt,"ax",%progbits
 1696              		.align	1
 1697              		.p2align 2,,3
 1698              		.global	pwm_sync_disable_interrupt
 1699              		.syntax unified
 1700              		.thumb
 1701              		.thumb_func
 1702              		.fpu fpv5-d16
 1703              		.type	pwm_sync_disable_interrupt, %function
 1704              	pwm_sync_disable_interrupt:
 1705              	.LFB172:
 929:../asf/sam/drivers/pwm/pwm.c **** }
 930:../asf/sam/drivers/pwm/pwm.c **** 
 931:../asf/sam/drivers/pwm/pwm.c **** /**
 932:../asf/sam/drivers/pwm/pwm.c ****  * \brief Disable the interrupt of synchronous channels.
 933:../asf/sam/drivers/pwm/pwm.c ****  *
 934:../asf/sam/drivers/pwm/pwm.c ****  * \param p_pwm Pointer to a PWM instance.
 935:../asf/sam/drivers/pwm/pwm.c ****  * \param ul_sources Bitmask of PWM synchronous channels interrupt sources.
 936:../asf/sam/drivers/pwm/pwm.c ****  */
 937:../asf/sam/drivers/pwm/pwm.c **** void pwm_sync_disable_interrupt(Pwm *p_pwm, uint32_t ul_sources)
 938:../asf/sam/drivers/pwm/pwm.c **** {
 1706              		.loc 1 938 0
 1707              		.cfi_startproc
 1708              		@ args = 0, pretend = 0, frame = 0
 1709              		@ frame_needed = 0, uses_anonymous_args = 0
 1710              		@ link register save eliminated.
 1711              	.LVL156:
 939:../asf/sam/drivers/pwm/pwm.c **** 	p_pwm->PWM_IDR2 = ul_sources;
 1712              		.loc 1 939 0
 1713 0000 8163     		str	r1, [r0, #56]
 1714 0002 7047     		bx	lr
 1715              		.cfi_endproc
 1716              	.LFE172:
 1717              		.size	pwm_sync_disable_interrupt, .-pwm_sync_disable_interrupt
 1718              		.section	.text.pwm_enable_protect,"ax",%progbits
 1719              		.align	1
 1720              		.p2align 2,,3
 1721              		.global	pwm_enable_protect
 1722              		.syntax unified
 1723              		.thumb
 1724              		.thumb_func
 1725              		.fpu fpv5-d16
 1726              		.type	pwm_enable_protect, %function
 1727              	pwm_enable_protect:
ARM GAS  /tmp/ccmSFvTJ.s 			page 51


 1728              	.LFB173:
 940:../asf/sam/drivers/pwm/pwm.c **** }
 941:../asf/sam/drivers/pwm/pwm.c **** 
 942:../asf/sam/drivers/pwm/pwm.c **** /**
 943:../asf/sam/drivers/pwm/pwm.c ****  * \brief Enable PWM write protect.
 944:../asf/sam/drivers/pwm/pwm.c ****  *
 945:../asf/sam/drivers/pwm/pwm.c ****  * \param p_pwm Pointer to a PWM instance.
 946:../asf/sam/drivers/pwm/pwm.c ****  * \param ul_group Bitmask of PWM register group.
 947:../asf/sam/drivers/pwm/pwm.c ****  * \param b_sw Boolean of software protect. True for software protect and false for hardware protec
 948:../asf/sam/drivers/pwm/pwm.c ****  */
 949:../asf/sam/drivers/pwm/pwm.c **** void pwm_enable_protect(Pwm *p_pwm, uint32_t ul_group, bool b_sw)
 950:../asf/sam/drivers/pwm/pwm.c **** {
 1729              		.loc 1 950 0
 1730              		.cfi_startproc
 1731              		@ args = 0, pretend = 0, frame = 0
 1732              		@ frame_needed = 0, uses_anonymous_args = 0
 1733              		@ link register save eliminated.
 1734              	.LVL157:
 951:../asf/sam/drivers/pwm/pwm.c **** 	uint32_t wp = 0;
 952:../asf/sam/drivers/pwm/pwm.c **** 
 953:../asf/sam/drivers/pwm/pwm.c **** 	if (b_sw) {
 1735              		.loc 1 953 0
 1736 0000 2AB9     		cbnz	r2, .L127
 954:../asf/sam/drivers/pwm/pwm.c **** 		wp = PWM_WPCR_WPKEY_PASSWD | (ul_group << 2) |
 955:../asf/sam/drivers/pwm/pwm.c **** 				PWM_WPCR_WPCMD_ENABLE_SW_PROT;
 956:../asf/sam/drivers/pwm/pwm.c **** 	} else {
 957:../asf/sam/drivers/pwm/pwm.c **** 		wp = PWM_WPCR_WPKEY_PASSWD | (ul_group << 2) |
 1737              		.loc 1 957 0
 1738 0002 064B     		ldr	r3, .L128
 1739 0004 43EA8101 		orr	r1, r3, r1, lsl #2
 1740              	.LVL158:
 958:../asf/sam/drivers/pwm/pwm.c **** 				PWM_WPCR_WPCMD_ENABLE_HW_PROT;
 959:../asf/sam/drivers/pwm/pwm.c **** 	}
 960:../asf/sam/drivers/pwm/pwm.c **** 
 961:../asf/sam/drivers/pwm/pwm.c **** 	p_pwm->PWM_WPCR = wp;
 1741              		.loc 1 961 0
 1742 0008 C0F8E410 		str	r1, [r0, #228]
 1743 000c 7047     		bx	lr
 1744              	.LVL159:
 1745              	.L127:
 954:../asf/sam/drivers/pwm/pwm.c **** 		wp = PWM_WPCR_WPKEY_PASSWD | (ul_group << 2) |
 1746              		.loc 1 954 0
 1747 000e 044B     		ldr	r3, .L128+4
 1748 0010 43EA8101 		orr	r1, r3, r1, lsl #2
 1749              	.LVL160:
 1750              		.loc 1 961 0
 1751 0014 C0F8E410 		str	r1, [r0, #228]
 1752 0018 7047     		bx	lr
 1753              	.L129:
 1754 001a 00BF     		.align	2
 1755              	.L128:
 1756 001c 024D5750 		.word	1347898626
 1757 0020 014D5750 		.word	1347898625
 1758              		.cfi_endproc
 1759              	.LFE173:
 1760              		.size	pwm_enable_protect, .-pwm_enable_protect
 1761              		.section	.text.pwm_disable_protect,"ax",%progbits
ARM GAS  /tmp/ccmSFvTJ.s 			page 52


 1762              		.align	1
 1763              		.p2align 2,,3
 1764              		.global	pwm_disable_protect
 1765              		.syntax unified
 1766              		.thumb
 1767              		.thumb_func
 1768              		.fpu fpv5-d16
 1769              		.type	pwm_disable_protect, %function
 1770              	pwm_disable_protect:
 1771              	.LFB174:
 962:../asf/sam/drivers/pwm/pwm.c **** }
 963:../asf/sam/drivers/pwm/pwm.c **** 
 964:../asf/sam/drivers/pwm/pwm.c **** /**
 965:../asf/sam/drivers/pwm/pwm.c ****  * \brief Disable PWM write protect.
 966:../asf/sam/drivers/pwm/pwm.c ****  *
 967:../asf/sam/drivers/pwm/pwm.c ****  * \note Only a hardware reset of PWM controller (handled by PMC) can disable hardware write protec
 968:../asf/sam/drivers/pwm/pwm.c ****  *
 969:../asf/sam/drivers/pwm/pwm.c ****  * \param p_pwm Pointer to a PWM instance.
 970:../asf/sam/drivers/pwm/pwm.c ****  * \param ul_group Bitmask of PWM register group.
 971:../asf/sam/drivers/pwm/pwm.c ****  */
 972:../asf/sam/drivers/pwm/pwm.c **** void pwm_disable_protect(Pwm *p_pwm, uint32_t ul_group)
 973:../asf/sam/drivers/pwm/pwm.c **** {
 1772              		.loc 1 973 0
 1773              		.cfi_startproc
 1774              		@ args = 0, pretend = 0, frame = 0
 1775              		@ frame_needed = 0, uses_anonymous_args = 0
 1776              		@ link register save eliminated.
 1777              	.LVL161:
 974:../asf/sam/drivers/pwm/pwm.c **** 	p_pwm->PWM_WPCR = PWM_WPCR_WPKEY_PASSWD
 975:../asf/sam/drivers/pwm/pwm.c **** 			 | (ul_group << 2) | PWM_WPCR_WPCMD_DISABLE_SW_PROT;
 1778              		.loc 1 975 0
 1779 0000 024B     		ldr	r3, .L131
 1780 0002 43EA8101 		orr	r1, r3, r1, lsl #2
 1781              	.LVL162:
 974:../asf/sam/drivers/pwm/pwm.c **** 	p_pwm->PWM_WPCR = PWM_WPCR_WPKEY_PASSWD
 1782              		.loc 1 974 0
 1783 0006 C0F8E410 		str	r1, [r0, #228]
 1784 000a 7047     		bx	lr
 1785              	.L132:
 1786              		.align	2
 1787              	.L131:
 1788 000c 004D5750 		.word	1347898624
 1789              		.cfi_endproc
 1790              	.LFE174:
 1791              		.size	pwm_disable_protect, .-pwm_disable_protect
 1792              		.section	.text.pwm_get_protect_status,"ax",%progbits
 1793              		.align	1
 1794              		.p2align 2,,3
 1795              		.global	pwm_get_protect_status
 1796              		.syntax unified
 1797              		.thumb
 1798              		.thumb_func
 1799              		.fpu fpv5-d16
 1800              		.type	pwm_get_protect_status, %function
 1801              	pwm_get_protect_status:
 1802              	.LFB175:
 976:../asf/sam/drivers/pwm/pwm.c **** }
ARM GAS  /tmp/ccmSFvTJ.s 			page 53


 977:../asf/sam/drivers/pwm/pwm.c **** 
 978:../asf/sam/drivers/pwm/pwm.c **** /**
 979:../asf/sam/drivers/pwm/pwm.c ****  * \brief Get PWM write protect status.
 980:../asf/sam/drivers/pwm/pwm.c ****  *
 981:../asf/sam/drivers/pwm/pwm.c ****  * \param p_pwm Pointer to a PWM instance.
 982:../asf/sam/drivers/pwm/pwm.c ****  * \param p_protect Pointer to a structure stored PWM protect status.
 983:../asf/sam/drivers/pwm/pwm.c ****  *
 984:../asf/sam/drivers/pwm/pwm.c ****  * \retval 0 Protection disabled.
 985:../asf/sam/drivers/pwm/pwm.c ****  * \retval 1 Protection enabled.
 986:../asf/sam/drivers/pwm/pwm.c ****  */
 987:../asf/sam/drivers/pwm/pwm.c **** bool pwm_get_protect_status(Pwm *p_pwm, pwm_protect_t *p_protect)
 988:../asf/sam/drivers/pwm/pwm.c **** {
 1803              		.loc 1 988 0
 1804              		.cfi_startproc
 1805              		@ args = 0, pretend = 0, frame = 0
 1806              		@ frame_needed = 0, uses_anonymous_args = 0
 1807              		@ link register save eliminated.
 1808              	.LVL163:
 989:../asf/sam/drivers/pwm/pwm.c **** 	uint32_t wpsr = p_pwm->PWM_WPSR;
 1809              		.loc 1 989 0
 1810 0000 D0F8E830 		ldr	r3, [r0, #232]
 1811              	.LVL164:
 990:../asf/sam/drivers/pwm/pwm.c **** 
 991:../asf/sam/drivers/pwm/pwm.c **** 	p_protect->ul_hw_status = (wpsr >> 8) & 0x3F;
 1812              		.loc 1 991 0
 1813 0004 C3F30520 		ubfx	r0, r3, #8, #6
 1814              	.LVL165:
 992:../asf/sam/drivers/pwm/pwm.c **** 	/** Bitmask of PWM register group for write protect software status */
 993:../asf/sam/drivers/pwm/pwm.c **** 	p_protect->ul_sw_status = (wpsr & 0x3F);
 1815              		.loc 1 993 0
 1816 0008 03F03F02 		and	r2, r3, #63
 1817 000c 81E80500 		stm	r1, {r0, r2}
 994:../asf/sam/drivers/pwm/pwm.c **** 
 995:../asf/sam/drivers/pwm/pwm.c **** 	if ((PWM_WPSR_WPVS & wpsr) == PWM_WPSR_WPVS) {
 1818              		.loc 1 995 0
 1819 0010 13F08000 		ands	r0, r3, #128
 1820 0014 02D0     		beq	.L134
 996:../asf/sam/drivers/pwm/pwm.c **** 		p_protect->ul_offset =
 997:../asf/sam/drivers/pwm/pwm.c **** 				(wpsr & PWM_WPSR_WPVSRC_Msk) >>
 1821              		.loc 1 997 0
 1822 0016 1B0C     		lsrs	r3, r3, #16
 1823              	.LVL166:
 998:../asf/sam/drivers/pwm/pwm.c **** 				PWM_WPSR_WPVSRC_Pos;
 999:../asf/sam/drivers/pwm/pwm.c **** 		return true;
 1824              		.loc 1 999 0
 1825 0018 0120     		movs	r0, #1
 996:../asf/sam/drivers/pwm/pwm.c **** 		p_protect->ul_offset =
 1826              		.loc 1 996 0
 1827 001a 8B60     		str	r3, [r1, #8]
 1828              	.L134:
1000:../asf/sam/drivers/pwm/pwm.c **** 	} else {
1001:../asf/sam/drivers/pwm/pwm.c **** 		return false;
1002:../asf/sam/drivers/pwm/pwm.c **** 	}
1003:../asf/sam/drivers/pwm/pwm.c **** }
 1829              		.loc 1 1003 0
 1830 001c 7047     		bx	lr
 1831              		.cfi_endproc
ARM GAS  /tmp/ccmSFvTJ.s 			page 54


 1832              	.LFE175:
 1833              		.size	pwm_get_protect_status, .-pwm_get_protect_status
 1834 001e 00BF     		.section	.text.pwm_get_interrupt_status,"ax",%progbits
 1835              		.align	1
 1836              		.p2align 2,,3
 1837              		.global	pwm_get_interrupt_status
 1838              		.syntax unified
 1839              		.thumb
 1840              		.thumb_func
 1841              		.fpu fpv5-d16
 1842              		.type	pwm_get_interrupt_status, %function
 1843              	pwm_get_interrupt_status:
 1844              	.LFB176:
1004:../asf/sam/drivers/pwm/pwm.c **** 
1005:../asf/sam/drivers/pwm/pwm.c **** /**
1006:../asf/sam/drivers/pwm/pwm.c ****  * \brief Get interrupt status of PDC transfer, synchronous channels and comparison.
1007:../asf/sam/drivers/pwm/pwm.c ****  *
1008:../asf/sam/drivers/pwm/pwm.c ****  * \param p_pwm Pointer to a PWM instance.
1009:../asf/sam/drivers/pwm/pwm.c ****  *
1010:../asf/sam/drivers/pwm/pwm.c ****  * \return Interrupt status of PDC transfer, synchronous channels and comparison.
1011:../asf/sam/drivers/pwm/pwm.c ****  */
1012:../asf/sam/drivers/pwm/pwm.c **** uint32_t pwm_get_interrupt_status(Pwm *p_pwm)
1013:../asf/sam/drivers/pwm/pwm.c **** {
 1845              		.loc 1 1013 0
 1846              		.cfi_startproc
 1847              		@ args = 0, pretend = 0, frame = 0
 1848              		@ frame_needed = 0, uses_anonymous_args = 0
 1849              		@ link register save eliminated.
 1850              	.LVL167:
1014:../asf/sam/drivers/pwm/pwm.c **** 	return p_pwm->PWM_ISR2;
 1851              		.loc 1 1014 0
 1852 0000 006C     		ldr	r0, [r0, #64]
 1853              	.LVL168:
1015:../asf/sam/drivers/pwm/pwm.c **** }
 1854              		.loc 1 1015 0
 1855 0002 7047     		bx	lr
 1856              		.cfi_endproc
 1857              	.LFE176:
 1858              		.size	pwm_get_interrupt_status, .-pwm_get_interrupt_status
 1859              		.section	.text.pwm_get_interrupt_mask,"ax",%progbits
 1860              		.align	1
 1861              		.p2align 2,,3
 1862              		.global	pwm_get_interrupt_mask
 1863              		.syntax unified
 1864              		.thumb
 1865              		.thumb_func
 1866              		.fpu fpv5-d16
 1867              		.type	pwm_get_interrupt_mask, %function
 1868              	pwm_get_interrupt_mask:
 1869              	.LFB177:
1016:../asf/sam/drivers/pwm/pwm.c **** 
1017:../asf/sam/drivers/pwm/pwm.c **** /**
1018:../asf/sam/drivers/pwm/pwm.c ****  * \brief Get interrupt mask of PDC transfer, synchronous channels and comparison.
1019:../asf/sam/drivers/pwm/pwm.c ****  *
1020:../asf/sam/drivers/pwm/pwm.c ****  * \param p_pwm Pointer to a PWM instance.
1021:../asf/sam/drivers/pwm/pwm.c ****  *
1022:../asf/sam/drivers/pwm/pwm.c ****  * \return Interrupt mask of PDC transfer, synchronous channels and comparison.
ARM GAS  /tmp/ccmSFvTJ.s 			page 55


1023:../asf/sam/drivers/pwm/pwm.c ****  */
1024:../asf/sam/drivers/pwm/pwm.c **** uint32_t pwm_get_interrupt_mask(Pwm *p_pwm)
1025:../asf/sam/drivers/pwm/pwm.c **** {
 1870              		.loc 1 1025 0
 1871              		.cfi_startproc
 1872              		@ args = 0, pretend = 0, frame = 0
 1873              		@ frame_needed = 0, uses_anonymous_args = 0
 1874              		@ link register save eliminated.
 1875              	.LVL169:
1026:../asf/sam/drivers/pwm/pwm.c **** 	return p_pwm->PWM_IMR2;
 1876              		.loc 1 1026 0
 1877 0000 C06B     		ldr	r0, [r0, #60]
 1878              	.LVL170:
1027:../asf/sam/drivers/pwm/pwm.c **** }
 1879              		.loc 1 1027 0
 1880 0002 7047     		bx	lr
 1881              		.cfi_endproc
 1882              	.LFE177:
 1883              		.size	pwm_get_interrupt_mask, .-pwm_get_interrupt_mask
 1884              		.section	.text.pwm_stepper_motor_init,"ax",%progbits
 1885              		.align	1
 1886              		.p2align 2,,3
 1887              		.global	pwm_stepper_motor_init
 1888              		.syntax unified
 1889              		.thumb
 1890              		.thumb_func
 1891              		.fpu fpv5-d16
 1892              		.type	pwm_stepper_motor_init, %function
 1893              	pwm_stepper_motor_init:
 1894              	.LFB178:
1028:../asf/sam/drivers/pwm/pwm.c **** #endif
1029:../asf/sam/drivers/pwm/pwm.c **** 
1030:../asf/sam/drivers/pwm/pwm.c **** #if (SAM3S || SAM3XA || SAM4S || SAM4E || SAMV70 || SAMV71 || SAME70 || SAMS70)
1031:../asf/sam/drivers/pwm/pwm.c **** /**
1032:../asf/sam/drivers/pwm/pwm.c ****  * \brief Initialize PWM stepper motor mode.
1033:../asf/sam/drivers/pwm/pwm.c ****  *
1034:../asf/sam/drivers/pwm/pwm.c ****  * \param p_pwm Pointer to a PWM instance.
1035:../asf/sam/drivers/pwm/pwm.c ****  * \param pair PWM channels used by stepper motor.
1036:../asf/sam/drivers/pwm/pwm.c ****  * \param b_enable_gray Set true to enable gray count generation. Set false to disable it.
1037:../asf/sam/drivers/pwm/pwm.c ****  * \param b_down Set true to use down counter. Set false to use up counter.
1038:../asf/sam/drivers/pwm/pwm.c ****  */
1039:../asf/sam/drivers/pwm/pwm.c **** void pwm_stepper_motor_init(Pwm *p_pwm, pwm_stepper_motor_pair_t pair,
1040:../asf/sam/drivers/pwm/pwm.c **** 		bool b_enable_gray, bool b_down)
1041:../asf/sam/drivers/pwm/pwm.c **** {
 1895              		.loc 1 1041 0
 1896              		.cfi_startproc
 1897              		@ args = 0, pretend = 0, frame = 0
 1898              		@ frame_needed = 0, uses_anonymous_args = 0
 1899              		@ link register save eliminated.
 1900              	.LVL171:
 1901 0000 10B4     		push	{r4}
 1902              		.cfi_def_cfa_offset 4
 1903              		.cfi_offset 4, -4
1042:../asf/sam/drivers/pwm/pwm.c **** 	uint32_t motor = p_pwm->PWM_SMMR;
1043:../asf/sam/drivers/pwm/pwm.c **** 
1044:../asf/sam/drivers/pwm/pwm.c **** 	motor &= ~((PWM_SMMR_GCEN0 | PWM_SMMR_DOWN0) << pair);
 1904              		.loc 1 1044 0
ARM GAS  /tmp/ccmSFvTJ.s 			page 56


 1905 0002 4FF00114 		mov	r4, #65537
1045:../asf/sam/drivers/pwm/pwm.c **** 	motor |= ((b_enable_gray | (b_down << 16)) << pair);
 1906              		.loc 1 1045 0
 1907 0006 42EA0343 		orr	r3, r2, r3, lsl #16
 1908              	.LVL172:
1042:../asf/sam/drivers/pwm/pwm.c **** 	uint32_t motor = p_pwm->PWM_SMMR;
 1909              		.loc 1 1042 0
 1910 000a D0F8B020 		ldr	r2, [r0, #176]
 1911              	.LVL173:
1044:../asf/sam/drivers/pwm/pwm.c **** 	motor |= ((b_enable_gray | (b_down << 16)) << pair);
 1912              		.loc 1 1044 0
 1913 000e 8C40     		lsls	r4, r4, r1
 1914              		.loc 1 1045 0
 1915 0010 8B40     		lsls	r3, r3, r1
1044:../asf/sam/drivers/pwm/pwm.c **** 	motor |= ((b_enable_gray | (b_down << 16)) << pair);
 1916              		.loc 1 1044 0
 1917 0012 22EA0401 		bic	r1, r2, r4
 1918              	.LVL174:
1046:../asf/sam/drivers/pwm/pwm.c **** 
1047:../asf/sam/drivers/pwm/pwm.c **** 	p_pwm->PWM_SMMR = motor;
1048:../asf/sam/drivers/pwm/pwm.c **** }
 1919              		.loc 1 1048 0
 1920 0016 5DF8044B 		ldr	r4, [sp], #4
 1921              		.cfi_restore 4
 1922              		.cfi_def_cfa_offset 0
1045:../asf/sam/drivers/pwm/pwm.c **** 
 1923              		.loc 1 1045 0
 1924 001a 0B43     		orrs	r3, r3, r1
 1925              	.LVL175:
1047:../asf/sam/drivers/pwm/pwm.c **** }
 1926              		.loc 1 1047 0
 1927 001c C0F8B030 		str	r3, [r0, #176]
 1928              		.loc 1 1048 0
 1929 0020 7047     		bx	lr
 1930              		.cfi_endproc
 1931              	.LFE178:
 1932              		.size	pwm_stepper_motor_init, .-pwm_stepper_motor_init
 1933 0022 00BF     		.section	.text.pwm_channel_update_spread,"ax",%progbits
 1934              		.align	1
 1935              		.p2align 2,,3
 1936              		.global	pwm_channel_update_spread
 1937              		.syntax unified
 1938              		.thumb
 1939              		.thumb_func
 1940              		.fpu fpv5-d16
 1941              		.type	pwm_channel_update_spread, %function
 1942              	pwm_channel_update_spread:
 1943              	.LFB179:
1049:../asf/sam/drivers/pwm/pwm.c **** #endif
1050:../asf/sam/drivers/pwm/pwm.c **** 
1051:../asf/sam/drivers/pwm/pwm.c **** #if SAM4E
1052:../asf/sam/drivers/pwm/pwm.c **** /**
1053:../asf/sam/drivers/pwm/pwm.c ****  * \brief Change spread spectrum value.
1054:../asf/sam/drivers/pwm/pwm.c ****  *
1055:../asf/sam/drivers/pwm/pwm.c ****  * \param p_pwm Pointer to a PWM instance.
1056:../asf/sam/drivers/pwm/pwm.c ****  * \param p_channel Configurations of the specified PWM channel.
1057:../asf/sam/drivers/pwm/pwm.c ****  * \param ul_spread New spread spectrum value.
ARM GAS  /tmp/ccmSFvTJ.s 			page 57


1058:../asf/sam/drivers/pwm/pwm.c ****  */
1059:../asf/sam/drivers/pwm/pwm.c **** void pwm_channel_update_spread(Pwm *p_pwm, pwm_channel_t *p_channel,
1060:../asf/sam/drivers/pwm/pwm.c **** 		uint32_t ul_spread)
1061:../asf/sam/drivers/pwm/pwm.c **** {
1062:../asf/sam/drivers/pwm/pwm.c **** 	/* Save new spread spectrum value */
1063:../asf/sam/drivers/pwm/pwm.c **** 	p_channel->ul_spread = ul_spread;
1064:../asf/sam/drivers/pwm/pwm.c **** 
1065:../asf/sam/drivers/pwm/pwm.c **** 	/* Write spread spectrum update register */
1066:../asf/sam/drivers/pwm/pwm.c **** 	p_pwm->PWM_SSPUP = PWM_SSPUP_SPRDUP(ul_spread);
1067:../asf/sam/drivers/pwm/pwm.c **** }
1068:../asf/sam/drivers/pwm/pwm.c **** 
1069:../asf/sam/drivers/pwm/pwm.c **** /**
1070:../asf/sam/drivers/pwm/pwm.c ****  * \brief Change additional edge value and mode.
1071:../asf/sam/drivers/pwm/pwm.c ****  *
1072:../asf/sam/drivers/pwm/pwm.c ****  * \param p_pwm Pointer to a PWM instance.
1073:../asf/sam/drivers/pwm/pwm.c ****  * \param p_channel Configurations of the specified PWM channel.
1074:../asf/sam/drivers/pwm/pwm.c ****  * \param ul_additional_edge New additional edge value.
1075:../asf/sam/drivers/pwm/pwm.c ****  * \param additional_edge_mode New additional edge mode.
1076:../asf/sam/drivers/pwm/pwm.c ****  */
1077:../asf/sam/drivers/pwm/pwm.c **** void pwm_channel_update_additional_edge(Pwm *p_pwm, pwm_channel_t *p_channel,
1078:../asf/sam/drivers/pwm/pwm.c **** 		uint32_t ul_additional_edge,
1079:../asf/sam/drivers/pwm/pwm.c **** 		pwm_additional_edge_mode_t additional_edge_mode)
1080:../asf/sam/drivers/pwm/pwm.c **** {
1081:../asf/sam/drivers/pwm/pwm.c **** 	/* Save new additional edge value */
1082:../asf/sam/drivers/pwm/pwm.c **** 	p_channel->ul_additional_edge = ul_additional_edge;
1083:../asf/sam/drivers/pwm/pwm.c **** 	p_channel->additional_edge_mode = additional_edge_mode;
1084:../asf/sam/drivers/pwm/pwm.c **** 
1085:../asf/sam/drivers/pwm/pwm.c **** 	/* Write channel additional edge update register */
1086:../asf/sam/drivers/pwm/pwm.c **** 	p_pwm->PWM_CH_NUM_0X400[p_channel->channel].PWM_CAEUPD =
1087:../asf/sam/drivers/pwm/pwm.c **** 			PWM_CAEUPD_ADEDGVUP(ul_additional_edge) | additional_edge_mode;
1088:../asf/sam/drivers/pwm/pwm.c **** }
1089:../asf/sam/drivers/pwm/pwm.c **** 
1090:../asf/sam/drivers/pwm/pwm.c **** /**
1091:../asf/sam/drivers/pwm/pwm.c ****  * \brief Change polarity mode.
1092:../asf/sam/drivers/pwm/pwm.c ****  *
1093:../asf/sam/drivers/pwm/pwm.c ****  * \param p_pwm Pointer to a PWM instance.
1094:../asf/sam/drivers/pwm/pwm.c ****  * \param p_channel Configurations of the specified PWM channel.
1095:../asf/sam/drivers/pwm/pwm.c ****  * \param polarity_inversion_flag Polarity invertion.
1096:../asf/sam/drivers/pwm/pwm.c ****  * \param polarity_flag Polarity value.
1097:../asf/sam/drivers/pwm/pwm.c ****  */
1098:../asf/sam/drivers/pwm/pwm.c **** void pwm_channel_update_polarity_mode(Pwm *p_pwm, pwm_channel_t *p_channel,
1099:../asf/sam/drivers/pwm/pwm.c **** 		bool polarity_inversion_flag, pwm_level_t polarity_value)
1100:../asf/sam/drivers/pwm/pwm.c **** {
1101:../asf/sam/drivers/pwm/pwm.c **** 	if (polarity_inversion_flag) {
1102:../asf/sam/drivers/pwm/pwm.c **** 		/* Set polarity inversion to the update register */
1103:../asf/sam/drivers/pwm/pwm.c **** 		p_pwm->PWM_CH_NUM_0X400[p_channel->channel].PWM_CMUPD =
1104:../asf/sam/drivers/pwm/pwm.c **** 				PWM_CMUPD_CPOLINVUP;
1105:../asf/sam/drivers/pwm/pwm.c **** 	} else {
1106:../asf/sam/drivers/pwm/pwm.c **** 		/* Save new polarity value */
1107:../asf/sam/drivers/pwm/pwm.c **** 		p_channel->polarity = polarity_value;
1108:../asf/sam/drivers/pwm/pwm.c **** 
1109:../asf/sam/drivers/pwm/pwm.c **** 		/* Write new polarity value to update register */
1110:../asf/sam/drivers/pwm/pwm.c **** 		if (polarity_value == PWM_HIGH) {
1111:../asf/sam/drivers/pwm/pwm.c **** 			p_pwm->PWM_CH_NUM_0X400[p_channel->channel].PWM_CMUPD =
1112:../asf/sam/drivers/pwm/pwm.c **** 					PWM_CMUPD_CPOLUP;
1113:../asf/sam/drivers/pwm/pwm.c **** 		} else {
1114:../asf/sam/drivers/pwm/pwm.c **** 			p_pwm->PWM_CH_NUM_0X400[p_channel->channel].PWM_CMUPD = 0;
ARM GAS  /tmp/ccmSFvTJ.s 			page 58


1115:../asf/sam/drivers/pwm/pwm.c **** 		}
1116:../asf/sam/drivers/pwm/pwm.c **** 	}
1117:../asf/sam/drivers/pwm/pwm.c **** }
1118:../asf/sam/drivers/pwm/pwm.c **** #elif (SAMV70 || SAMV71 || SAME70 || SAMS70)
1119:../asf/sam/drivers/pwm/pwm.c **** /**
1120:../asf/sam/drivers/pwm/pwm.c ****  * \brief Change spread spectrum value.
1121:../asf/sam/drivers/pwm/pwm.c ****  *
1122:../asf/sam/drivers/pwm/pwm.c ****  * \param p_pwm Pointer to a PWM instance.
1123:../asf/sam/drivers/pwm/pwm.c ****  * \param p_channel Configurations of the specified PWM channel.
1124:../asf/sam/drivers/pwm/pwm.c ****  * \param ul_spread New spread spectrum value.
1125:../asf/sam/drivers/pwm/pwm.c ****  */
1126:../asf/sam/drivers/pwm/pwm.c **** void pwm_channel_update_spread(Pwm *p_pwm, pwm_channel_t *p_channel,
1127:../asf/sam/drivers/pwm/pwm.c **** 		uint32_t ul_spread)
1128:../asf/sam/drivers/pwm/pwm.c **** {
 1944              		.loc 1 1128 0
 1945              		.cfi_startproc
 1946              		@ args = 0, pretend = 0, frame = 0
 1947              		@ frame_needed = 0, uses_anonymous_args = 0
 1948              		@ link register save eliminated.
 1949              	.LVL176:
1129:../asf/sam/drivers/pwm/pwm.c **** 	/* Save new spread spectrum value */
1130:../asf/sam/drivers/pwm/pwm.c **** 	p_channel->ul_spread = ul_spread;
1131:../asf/sam/drivers/pwm/pwm.c **** 
1132:../asf/sam/drivers/pwm/pwm.c **** 	/* Write spread spectrum update register */
1133:../asf/sam/drivers/pwm/pwm.c **** 	p_pwm->PWM_SSPUP = PWM_SSPUP_SPRDUP(ul_spread);
 1950              		.loc 1 1133 0
 1951 0000 22F07F43 		bic	r3, r2, #-16777216
1130:../asf/sam/drivers/pwm/pwm.c **** 
 1952              		.loc 1 1130 0
 1953 0004 8A62     		str	r2, [r1, #40]
 1954              		.loc 1 1133 0
 1955 0006 C0F8A430 		str	r3, [r0, #164]
 1956 000a 7047     		bx	lr
 1957              		.cfi_endproc
 1958              	.LFE179:
 1959              		.size	pwm_channel_update_spread, .-pwm_channel_update_spread
 1960              		.section	.text.pwm_channel_update_leading_edge,"ax",%progbits
 1961              		.align	1
 1962              		.p2align 2,,3
 1963              		.global	pwm_channel_update_leading_edge
 1964              		.syntax unified
 1965              		.thumb
 1966              		.thumb_func
 1967              		.fpu fpv5-d16
 1968              		.type	pwm_channel_update_leading_edge, %function
 1969              	pwm_channel_update_leading_edge:
 1970              	.LFB180:
1134:../asf/sam/drivers/pwm/pwm.c **** }
1135:../asf/sam/drivers/pwm/pwm.c **** 
1136:../asf/sam/drivers/pwm/pwm.c **** /**
1137:../asf/sam/drivers/pwm/pwm.c ****  * \brief Change leading edge value and mode.
1138:../asf/sam/drivers/pwm/pwm.c ****  *
1139:../asf/sam/drivers/pwm/pwm.c ****  * \param p_pwm Pointer to a PWM instance.
1140:../asf/sam/drivers/pwm/pwm.c ****  * \param p_channel Configurations of the specified PWM channel.
1141:../asf/sam/drivers/pwm/pwm.c ****  * \param ul_leading_edge_delay Leading-Edge Blanking Delay for TRGINx.
1142:../asf/sam/drivers/pwm/pwm.c ****  * \param leading_edge_blanking_mode New additional edge mode.
1143:../asf/sam/drivers/pwm/pwm.c ****  */
ARM GAS  /tmp/ccmSFvTJ.s 			page 59


1144:../asf/sam/drivers/pwm/pwm.c **** void pwm_channel_update_leading_edge(Pwm *p_pwm, pwm_channel_t *p_channel,
1145:../asf/sam/drivers/pwm/pwm.c **** 		uint32_t ul_leading_edge_delay,
1146:../asf/sam/drivers/pwm/pwm.c **** 		pwm_leading_edge_blanking_mode_t leading_edge_blanking_mode)
1147:../asf/sam/drivers/pwm/pwm.c **** {
 1971              		.loc 1 1147 0
 1972              		.cfi_startproc
 1973              		@ args = 0, pretend = 0, frame = 0
 1974              		@ frame_needed = 0, uses_anonymous_args = 0
 1975              		@ link register save eliminated.
 1976              	.LVL177:
 1977 0000 10B4     		push	{r4}
 1978              		.cfi_def_cfa_offset 4
 1979              		.cfi_offset 4, -4
1148:../asf/sam/drivers/pwm/pwm.c **** 	/* Save new leading edge value */
1149:../asf/sam/drivers/pwm/pwm.c **** 	p_channel->ul_leading_edge_delay = ul_leading_edge_delay;
1150:../asf/sam/drivers/pwm/pwm.c **** 	p_channel->leading_edge_blanking_mode = leading_edge_blanking_mode;
1151:../asf/sam/drivers/pwm/pwm.c **** 
1152:../asf/sam/drivers/pwm/pwm.c **** 	/* Write channel leading edge update register */
1153:../asf/sam/drivers/pwm/pwm.c **** 	if (p_channel->channel == 1) {
 1980              		.loc 1 1153 0
 1981 0002 0C68     		ldr	r4, [r1]
1149:../asf/sam/drivers/pwm/pwm.c **** 	p_channel->leading_edge_blanking_mode = leading_edge_blanking_mode;
 1982              		.loc 1 1149 0
 1983 0004 0A63     		str	r2, [r1, #48]
 1984              		.loc 1 1153 0
 1985 0006 012C     		cmp	r4, #1
1150:../asf/sam/drivers/pwm/pwm.c **** 
 1986              		.loc 1 1150 0
 1987 0008 4B63     		str	r3, [r1, #52]
 1988              		.loc 1 1153 0
 1989 000a 10D0     		beq	.L147
1154:../asf/sam/drivers/pwm/pwm.c **** 		p_pwm->PWM_LEBR1 = PWM_LEBR1_LEBDELAY(ul_leading_edge_delay) | leading_edge_blanking_mode;
1155:../asf/sam/drivers/pwm/pwm.c **** 	} else if (p_channel->channel == 2) {
 1990              		.loc 1 1155 0
 1991 000c 022C     		cmp	r4, #2
 1992 000e 16D0     		beq	.L148
1156:../asf/sam/drivers/pwm/pwm.c **** 		p_pwm->PWM_LEBR2 = PWM_LEBR2_LEBDELAY(ul_leading_edge_delay) | leading_edge_blanking_mode;
1157:../asf/sam/drivers/pwm/pwm.c **** 	} else if (p_channel->channel == 3) {
 1993              		.loc 1 1157 0
 1994 0010 032C     		cmp	r4, #3
 1995 0012 1CD0     		beq	.L149
1158:../asf/sam/drivers/pwm/pwm.c **** 		p_pwm->PWM_LEBR3 = PWM_LEBR3_LEBDELAY(ul_leading_edge_delay) | leading_edge_blanking_mode;
1159:../asf/sam/drivers/pwm/pwm.c **** 	} else if (p_channel->channel == 4) {
 1996              		.loc 1 1159 0
 1997 0014 042C     		cmp	r4, #4
 1998 0016 02D0     		beq	.L150
1160:../asf/sam/drivers/pwm/pwm.c **** 		p_pwm->PWM_LEBR4 = PWM_LEBR4_LEBDELAY(ul_leading_edge_delay) | leading_edge_blanking_mode;
1161:../asf/sam/drivers/pwm/pwm.c **** 	}
1162:../asf/sam/drivers/pwm/pwm.c **** }
 1999              		.loc 1 1162 0
 2000 0018 5DF8044B 		ldr	r4, [sp], #4
 2001              		.cfi_remember_state
 2002              		.cfi_restore 4
 2003              		.cfi_def_cfa_offset 0
 2004 001c 7047     		bx	lr
 2005              	.L150:
 2006              		.cfi_restore_state
ARM GAS  /tmp/ccmSFvTJ.s 			page 60


1160:../asf/sam/drivers/pwm/pwm.c **** 		p_pwm->PWM_LEBR4 = PWM_LEBR4_LEBDELAY(ul_leading_edge_delay) | leading_edge_blanking_mode;
 2007              		.loc 1 1160 0
 2008 001e 02F07F02 		and	r2, r2, #127
 2009              	.LVL178:
 2010              		.loc 1 1162 0
 2011 0022 5DF8044B 		ldr	r4, [sp], #4
 2012              		.cfi_remember_state
 2013              		.cfi_restore 4
 2014              		.cfi_def_cfa_offset 0
1160:../asf/sam/drivers/pwm/pwm.c **** 		p_pwm->PWM_LEBR4 = PWM_LEBR4_LEBDELAY(ul_leading_edge_delay) | leading_edge_blanking_mode;
 2015              		.loc 1 1160 0
 2016 0026 1343     		orrs	r3, r3, r2
 2017              	.LVL179:
 2018 0028 C0F89034 		str	r3, [r0, #1168]
 2019              		.loc 1 1162 0
 2020 002c 7047     		bx	lr
 2021              	.LVL180:
 2022              	.L147:
 2023              		.cfi_restore_state
1154:../asf/sam/drivers/pwm/pwm.c **** 	} else if (p_channel->channel == 2) {
 2024              		.loc 1 1154 0
 2025 002e 02F07F02 		and	r2, r2, #127
 2026              	.LVL181:
 2027              		.loc 1 1162 0
 2028 0032 5DF8044B 		ldr	r4, [sp], #4
 2029              		.cfi_remember_state
 2030              		.cfi_restore 4
 2031              		.cfi_def_cfa_offset 0
1154:../asf/sam/drivers/pwm/pwm.c **** 	} else if (p_channel->channel == 2) {
 2032              		.loc 1 1154 0
 2033 0036 1343     		orrs	r3, r3, r2
 2034              	.LVL182:
 2035 0038 C0F83034 		str	r3, [r0, #1072]
 2036              		.loc 1 1162 0
 2037 003c 7047     		bx	lr
 2038              	.LVL183:
 2039              	.L148:
 2040              		.cfi_restore_state
1156:../asf/sam/drivers/pwm/pwm.c **** 	} else if (p_channel->channel == 3) {
 2041              		.loc 1 1156 0
 2042 003e 02F07F02 		and	r2, r2, #127
 2043              	.LVL184:
 2044              		.loc 1 1162 0
 2045 0042 5DF8044B 		ldr	r4, [sp], #4
 2046              		.cfi_remember_state
 2047              		.cfi_restore 4
 2048              		.cfi_def_cfa_offset 0
1156:../asf/sam/drivers/pwm/pwm.c **** 	} else if (p_channel->channel == 3) {
 2049              		.loc 1 1156 0
 2050 0046 1343     		orrs	r3, r3, r2
 2051              	.LVL185:
 2052 0048 C0F85034 		str	r3, [r0, #1104]
 2053              		.loc 1 1162 0
 2054 004c 7047     		bx	lr
 2055              	.LVL186:
 2056              	.L149:
 2057              		.cfi_restore_state
ARM GAS  /tmp/ccmSFvTJ.s 			page 61


1158:../asf/sam/drivers/pwm/pwm.c **** 	} else if (p_channel->channel == 4) {
 2058              		.loc 1 1158 0
 2059 004e 02F07F02 		and	r2, r2, #127
 2060              	.LVL187:
 2061              		.loc 1 1162 0
 2062 0052 5DF8044B 		ldr	r4, [sp], #4
 2063              		.cfi_restore 4
 2064              		.cfi_def_cfa_offset 0
1158:../asf/sam/drivers/pwm/pwm.c **** 	} else if (p_channel->channel == 4) {
 2065              		.loc 1 1158 0
 2066 0056 1343     		orrs	r3, r3, r2
 2067              	.LVL188:
 2068 0058 C0F87034 		str	r3, [r0, #1136]
 2069              		.loc 1 1162 0
 2070 005c 7047     		bx	lr
 2071              		.cfi_endproc
 2072              	.LFE180:
 2073              		.size	pwm_channel_update_leading_edge, .-pwm_channel_update_leading_edge
 2074 005e 00BF     		.section	.text.pwm_set_dma_duty,"ax",%progbits
 2075              		.align	1
 2076              		.p2align 2,,3
 2077              		.global	pwm_set_dma_duty
 2078              		.syntax unified
 2079              		.thumb
 2080              		.thumb_func
 2081              		.fpu fpv5-d16
 2082              		.type	pwm_set_dma_duty, %function
 2083              	pwm_set_dma_duty:
 2084              	.LFB181:
1163:../asf/sam/drivers/pwm/pwm.c **** #endif
1164:../asf/sam/drivers/pwm/pwm.c **** 
1165:../asf/sam/drivers/pwm/pwm.c **** #if (SAMV70 || SAMV71 || SAME70 || SAMS70)
1166:../asf/sam/drivers/pwm/pwm.c **** /**
1167:../asf/sam/drivers/pwm/pwm.c ****  * \brief Set dma duty.
1168:../asf/sam/drivers/pwm/pwm.c ****  *
1169:../asf/sam/drivers/pwm/pwm.c ****  * \param p_pwm Pointer to a PWM instance.
1170:../asf/sam/drivers/pwm/pwm.c ****  * \param ul_dma_duty_value The dma duty to be set.
1171:../asf/sam/drivers/pwm/pwm.c ****  */
1172:../asf/sam/drivers/pwm/pwm.c **** void pwm_set_dma_duty(Pwm *p_pwm, uint32_t ul_dma_duty_value)
1173:../asf/sam/drivers/pwm/pwm.c **** {
 2085              		.loc 1 1173 0
 2086              		.cfi_startproc
 2087              		@ args = 0, pretend = 0, frame = 0
 2088              		@ frame_needed = 0, uses_anonymous_args = 0
 2089              		@ link register save eliminated.
 2090              	.LVL189:
1174:../asf/sam/drivers/pwm/pwm.c **** 	uint32_t ul_mask = p_pwm->PWM_DMAR & (~PWM_DMAR_DMADUTY_Msk);
1175:../asf/sam/drivers/pwm/pwm.c **** 	p_pwm->PWM_DMAR = ul_mask | PWM_DMAR_DMADUTY(ul_dma_duty_value);
 2091              		.loc 1 1175 0
 2092 0000 21F07F43 		bic	r3, r1, #-16777216
1174:../asf/sam/drivers/pwm/pwm.c **** 	uint32_t ul_mask = p_pwm->PWM_DMAR & (~PWM_DMAR_DMADUTY_Msk);
 2093              		.loc 1 1174 0
 2094 0004 416A     		ldr	r1, [r0, #36]
 2095              	.LVL190:
 2096 0006 01F07F41 		and	r1, r1, #-16777216
 2097              	.LVL191:
 2098              		.loc 1 1175 0
ARM GAS  /tmp/ccmSFvTJ.s 			page 62


 2099 000a 1943     		orrs	r1, r1, r3
 2100              	.LVL192:
 2101 000c 4162     		str	r1, [r0, #36]
 2102 000e 7047     		bx	lr
 2103              		.cfi_endproc
 2104              	.LFE181:
 2105              		.size	pwm_set_dma_duty, .-pwm_set_dma_duty
 2106              		.section	.text.pwm_set_ext_trigger_mode,"ax",%progbits
 2107              		.align	1
 2108              		.p2align 2,,3
 2109              		.global	pwm_set_ext_trigger_mode
 2110              		.syntax unified
 2111              		.thumb
 2112              		.thumb_func
 2113              		.fpu fpv5-d16
 2114              		.type	pwm_set_ext_trigger_mode, %function
 2115              	pwm_set_ext_trigger_mode:
 2116              	.LFB182:
1176:../asf/sam/drivers/pwm/pwm.c **** }
1177:../asf/sam/drivers/pwm/pwm.c **** 
1178:../asf/sam/drivers/pwm/pwm.c **** /**
1179:../asf/sam/drivers/pwm/pwm.c ****  * \brief set external trigger mode.
1180:../asf/sam/drivers/pwm/pwm.c ****  *
1181:../asf/sam/drivers/pwm/pwm.c ****  * \param p_pwm Pointer to a PWM instance.
1182:../asf/sam/drivers/pwm/pwm.c ****  * \param p_channel Configurations of the specified PWM channel.
1183:../asf/sam/drivers/pwm/pwm.c ****  * \param ul_mode The external trigger mode to be set.
1184:../asf/sam/drivers/pwm/pwm.c ****  */
1185:../asf/sam/drivers/pwm/pwm.c **** void pwm_set_ext_trigger_mode(Pwm *p_pwm, pwm_channel_t *p_channel, uint32_t ul_mode)
1186:../asf/sam/drivers/pwm/pwm.c **** {
 2117              		.loc 1 1186 0
 2118              		.cfi_startproc
 2119              		@ args = 0, pretend = 0, frame = 0
 2120              		@ frame_needed = 0, uses_anonymous_args = 0
 2121              		@ link register save eliminated.
 2122              	.LVL193:
1187:../asf/sam/drivers/pwm/pwm.c **** 	if (p_channel->channel == 1) {
 2123              		.loc 1 1187 0
 2124 0000 0B68     		ldr	r3, [r1]
 2125 0002 012B     		cmp	r3, #1
 2126 0004 09D0     		beq	.L157
1188:../asf/sam/drivers/pwm/pwm.c **** 			p_pwm->PWM_ETRG1 = ul_mode;
1189:../asf/sam/drivers/pwm/pwm.c **** 		} else if (p_channel->channel == 2) {
 2127              		.loc 1 1189 0
 2128 0006 022B     		cmp	r3, #2
 2129 0008 0AD0     		beq	.L158
1190:../asf/sam/drivers/pwm/pwm.c **** 			p_pwm->PWM_ETRG2 = ul_mode;
1191:../asf/sam/drivers/pwm/pwm.c **** 		} else if (p_channel->channel == 3) {
 2130              		.loc 1 1191 0
 2131 000a 032B     		cmp	r3, #3
 2132 000c 0BD0     		beq	.L159
1192:../asf/sam/drivers/pwm/pwm.c **** 			p_pwm->PWM_ETRG3 = ul_mode;
1193:../asf/sam/drivers/pwm/pwm.c **** 		} else if (p_channel->channel == 4) {
 2133              		.loc 1 1193 0
 2134 000e 042B     		cmp	r3, #4
 2135 0010 00D0     		beq	.L160
 2136 0012 7047     		bx	lr
 2137              	.L160:
ARM GAS  /tmp/ccmSFvTJ.s 			page 63


1194:../asf/sam/drivers/pwm/pwm.c **** 			p_pwm->PWM_ETRG4 = ul_mode;
 2138              		.loc 1 1194 0
 2139 0014 C0F88C24 		str	r2, [r0, #1164]
 2140 0018 7047     		bx	lr
 2141              	.L157:
1188:../asf/sam/drivers/pwm/pwm.c **** 		} else if (p_channel->channel == 2) {
 2142              		.loc 1 1188 0
 2143 001a C0F82C24 		str	r2, [r0, #1068]
 2144 001e 7047     		bx	lr
 2145              	.L158:
1190:../asf/sam/drivers/pwm/pwm.c **** 		} else if (p_channel->channel == 3) {
 2146              		.loc 1 1190 0
 2147 0020 C0F84C24 		str	r2, [r0, #1100]
 2148 0024 7047     		bx	lr
 2149              	.L159:
1192:../asf/sam/drivers/pwm/pwm.c **** 		} else if (p_channel->channel == 4) {
 2150              		.loc 1 1192 0
 2151 0026 C0F86C24 		str	r2, [r0, #1132]
 2152 002a 7047     		bx	lr
 2153              		.cfi_endproc
 2154              	.LFE182:
 2155              		.size	pwm_set_ext_trigger_mode, .-pwm_set_ext_trigger_mode
 2156              		.section	.rodata
 2157              		.align	2
 2158              		.set	.LANCHOR0,. + 0
 2159              	.LC0:
 2160 0000 01000000 		.word	1
 2161 0004 02000000 		.word	2
 2162 0008 04000000 		.word	4
 2163 000c 08000000 		.word	8
 2164 0010 10000000 		.word	16
 2165 0014 20000000 		.word	32
 2166 0018 40000000 		.word	64
 2167 001c 80000000 		.word	128
 2168 0020 00010000 		.word	256
 2169 0024 00020000 		.word	512
 2170 0028 00040000 		.word	1024
 2171              		.section	.bss.cpu_irq_critical_section_counter,"aw",%nobits
 2172              		.align	2
 2173              		.type	cpu_irq_critical_section_counter, %object
 2174              		.size	cpu_irq_critical_section_counter, 4
 2175              	cpu_irq_critical_section_counter:
 2176 0000 00000000 		.space	4
 2177              		.section	.bss.cpu_irq_prev_interrupt_state,"aw",%nobits
 2178              		.type	cpu_irq_prev_interrupt_state, %object
 2179              		.size	cpu_irq_prev_interrupt_state, 1
 2180              	cpu_irq_prev_interrupt_state:
 2181 0000 00       		.space	1
 2182              		.text
 2183              	.Letext0:
 2184              		.file 2 "/usr/include/newlib/machine/_default_types.h"
 2185              		.file 3 "/usr/include/newlib/sys/_stdint.h"
 2186              		.file 4 "/home/torbjorn/eclipse-workspace/CoreNG/asf/thirdparty/CMSIS/Include/core_cm7.h"
 2187              		.file 5 "/home/torbjorn/eclipse-workspace/CoreNG/variants/same70/system_same70.h"
 2188              		.file 6 "/home/torbjorn/eclipse-workspace/CoreNG/asf/sam/utils/cmsis/same70/include/component/pwm.
 2189              		.file 7 "/usr/include/newlib/sys/lock.h"
 2190              		.file 8 "/usr/include/newlib/sys/_types.h"
ARM GAS  /tmp/ccmSFvTJ.s 			page 64


 2191              		.file 9 "/usr/lib/gcc/arm-none-eabi/6.3.1/include/stddef.h"
 2192              		.file 10 "/usr/include/newlib/sys/reent.h"
 2193              		.file 11 "/usr/include/newlib/stdlib.h"
 2194              		.file 12 "/home/torbjorn/eclipse-workspace/CoreNG/asf/common/utils/interrupt/interrupt_sam_nvic.h"
 2195              		.file 13 "../asf/sam/drivers/pwm/pwm.h"