ARM GAS  /tmp/ccybDQNt.s 			page 1


   1              		.cpu cortex-m7
   2              		.eabi_attribute 28, 1
   3              		.eabi_attribute 20, 1
   4              		.eabi_attribute 21, 1
   5              		.eabi_attribute 23, 3
   6              		.eabi_attribute 24, 1
   7              		.eabi_attribute 25, 1
   8              		.eabi_attribute 26, 1
   9              		.eabi_attribute 30, 2
  10              		.eabi_attribute 34, 1
  11              		.eabi_attribute 18, 4
  12              		.file	"rswdt.c"
  13              		.text
  14              	.Ltext0:
  15              		.cfi_sections	.debug_frame
  16              		.section	.text.rswdt_get_timeout_value,"ax",%progbits
  17              		.align	1
  18              		.p2align 2,,3
  19              		.global	rswdt_get_timeout_value
  20              		.syntax unified
  21              		.thumb
  22              		.thumb_func
  23              		.fpu fpv5-d16
  24              		.type	rswdt_get_timeout_value, %function
  25              	rswdt_get_timeout_value:
  26              	.LFB142:
  27              		.file 1 "../asf/sam/drivers/rswdt/rswdt.c"
   1:../asf/sam/drivers/rswdt/rswdt.c **** /**
   2:../asf/sam/drivers/rswdt/rswdt.c ****  * \file
   3:../asf/sam/drivers/rswdt/rswdt.c ****  *
   4:../asf/sam/drivers/rswdt/rswdt.c ****  * \brief Reinforced Safety Watchdog Timer (RSWDT) driver for SAM.
   5:../asf/sam/drivers/rswdt/rswdt.c ****  *
   6:../asf/sam/drivers/rswdt/rswdt.c ****  * Copyright (c) 2015-2017 Atmel Corporation. All rights reserved.
   7:../asf/sam/drivers/rswdt/rswdt.c ****  *
   8:../asf/sam/drivers/rswdt/rswdt.c ****  * \asf_license_start
   9:../asf/sam/drivers/rswdt/rswdt.c ****  *
  10:../asf/sam/drivers/rswdt/rswdt.c ****  * \page License
  11:../asf/sam/drivers/rswdt/rswdt.c ****  *
  12:../asf/sam/drivers/rswdt/rswdt.c ****  * Redistribution and use in source and binary forms, with or without
  13:../asf/sam/drivers/rswdt/rswdt.c ****  * modification, are permitted provided that the following conditions are met:
  14:../asf/sam/drivers/rswdt/rswdt.c ****  *
  15:../asf/sam/drivers/rswdt/rswdt.c ****  * 1. Redistributions of source code must retain the above copyright notice,
  16:../asf/sam/drivers/rswdt/rswdt.c ****  *    this list of conditions and the following disclaimer.
  17:../asf/sam/drivers/rswdt/rswdt.c ****  *
  18:../asf/sam/drivers/rswdt/rswdt.c ****  * 2. Redistributions in binary form must reproduce the above copyright notice,
  19:../asf/sam/drivers/rswdt/rswdt.c ****  *    this list of conditions and the following disclaimer in the documentation
  20:../asf/sam/drivers/rswdt/rswdt.c ****  *    and/or other materials provided with the distribution.
  21:../asf/sam/drivers/rswdt/rswdt.c ****  *
  22:../asf/sam/drivers/rswdt/rswdt.c ****  * 3. The name of Atmel may not be used to endorse or promote products derived
  23:../asf/sam/drivers/rswdt/rswdt.c ****  *    from this software without specific prior written permission.
  24:../asf/sam/drivers/rswdt/rswdt.c ****  *
  25:../asf/sam/drivers/rswdt/rswdt.c ****  * 4. This software may only be redistributed and used in connection with an
  26:../asf/sam/drivers/rswdt/rswdt.c ****  *    Atmel microcontroller product.
  27:../asf/sam/drivers/rswdt/rswdt.c ****  *
  28:../asf/sam/drivers/rswdt/rswdt.c ****  * THIS SOFTWARE IS PROVIDED BY ATMEL "AS IS" AND ANY EXPRESS OR IMPLIED
  29:../asf/sam/drivers/rswdt/rswdt.c ****  * WARRANTIES, INCLUDING, BUT NOT LIMITED TO, THE IMPLIED WARRANTIES OF
  30:../asf/sam/drivers/rswdt/rswdt.c ****  * MERCHANTABILITY, FITNESS FOR A PARTICULAR PURPOSE AND NON-INFRINGEMENT ARE
ARM GAS  /tmp/ccybDQNt.s 			page 2


  31:../asf/sam/drivers/rswdt/rswdt.c ****  * EXPRESSLY AND SPECIFICALLY DISCLAIMED. IN NO EVENT SHALL ATMEL BE LIABLE FOR
  32:../asf/sam/drivers/rswdt/rswdt.c ****  * ANY DIRECT, INDIRECT, INCIDENTAL, SPECIAL, EXEMPLARY, OR CONSEQUENTIAL
  33:../asf/sam/drivers/rswdt/rswdt.c ****  * DAMAGES (INCLUDING, BUT NOT LIMITED TO, PROCUREMENT OF SUBSTITUTE GOODS
  34:../asf/sam/drivers/rswdt/rswdt.c ****  * OR SERVICES; LOSS OF USE, DATA, OR PROFITS; OR BUSINESS INTERRUPTION)
  35:../asf/sam/drivers/rswdt/rswdt.c ****  * HOWEVER CAUSED AND ON ANY THEORY OF LIABILITY, WHETHER IN CONTRACT,
  36:../asf/sam/drivers/rswdt/rswdt.c ****  * STRICT LIABILITY, OR TORT (INCLUDING NEGLIGENCE OR OTHERWISE) ARISING IN
  37:../asf/sam/drivers/rswdt/rswdt.c ****  * ANY WAY OUT OF THE USE OF THIS SOFTWARE, EVEN IF ADVISED OF THE
  38:../asf/sam/drivers/rswdt/rswdt.c ****  * POSSIBILITY OF SUCH DAMAGE.
  39:../asf/sam/drivers/rswdt/rswdt.c ****  *
  40:../asf/sam/drivers/rswdt/rswdt.c ****  * \asf_license_stop
  41:../asf/sam/drivers/rswdt/rswdt.c ****  *
  42:../asf/sam/drivers/rswdt/rswdt.c ****  */
  43:../asf/sam/drivers/rswdt/rswdt.c **** /*
  44:../asf/sam/drivers/rswdt/rswdt.c ****  * Support and FAQ: visit <a href="http://www.atmel.com/design-support/">Atmel Support</a>
  45:../asf/sam/drivers/rswdt/rswdt.c ****  */
  46:../asf/sam/drivers/rswdt/rswdt.c **** 
  47:../asf/sam/drivers/rswdt/rswdt.c **** #include "rswdt.h"
  48:../asf/sam/drivers/rswdt/rswdt.c **** 
  49:../asf/sam/drivers/rswdt/rswdt.c **** /// @cond 0
  50:../asf/sam/drivers/rswdt/rswdt.c **** /**INDENT-OFF**/
  51:../asf/sam/drivers/rswdt/rswdt.c **** #ifdef __cplusplus
  52:../asf/sam/drivers/rswdt/rswdt.c **** extern "C" {
  53:../asf/sam/drivers/rswdt/rswdt.c **** #endif
  54:../asf/sam/drivers/rswdt/rswdt.c **** /**INDENT-ON**/
  55:../asf/sam/drivers/rswdt/rswdt.c **** /// @endcond
  56:../asf/sam/drivers/rswdt/rswdt.c **** 
  57:../asf/sam/drivers/rswdt/rswdt.c **** /**
  58:../asf/sam/drivers/rswdt/rswdt.c ****  * \defgroup sam_drivers_rswdt_group Reinforced Safety Watchdog Timer (RSWDT)
  59:../asf/sam/drivers/rswdt/rswdt.c ****  *
  60:../asf/sam/drivers/rswdt/rswdt.c ****  * Driver for the RSWDT (Reinforced Safety Watchdog Timer). This driver provides access to the main
  61:../asf/sam/drivers/rswdt/rswdt.c ****  * features of the RSWDT controller.
  62:../asf/sam/drivers/rswdt/rswdt.c ****  * The Reinforced Safety Watchdog Timer can be used to prevent system lock-up if the software
  63:../asf/sam/drivers/rswdt/rswdt.c ****  * becomes trapped in a deadlock. It features a 12-bit down counter that allows
  64:../asf/sam/drivers/rswdt/rswdt.c ****  * a watchdog period of up to 16 seconds (slow clock at 32.768 kHz). It can
  65:../asf/sam/drivers/rswdt/rswdt.c ****  * generate a general reset or a processor reset only. In addition, it can be
  66:../asf/sam/drivers/rswdt/rswdt.c ****  * stopped while the processor is in debug mode or idle mode.
  67:../asf/sam/drivers/rswdt/rswdt.c ****  *
  68:../asf/sam/drivers/rswdt/rswdt.c ****  * @{
  69:../asf/sam/drivers/rswdt/rswdt.c ****  */
  70:../asf/sam/drivers/rswdt/rswdt.c **** 
  71:../asf/sam/drivers/rswdt/rswdt.c **** #define RSWDT_KEY_PASSWORD  0xC4000000
  72:../asf/sam/drivers/rswdt/rswdt.c **** #define RSWDT_SLCK_DIV      128
  73:../asf/sam/drivers/rswdt/rswdt.c **** #define RSWDT_MAX_VALUE     4095
  74:../asf/sam/drivers/rswdt/rswdt.c **** 
  75:../asf/sam/drivers/rswdt/rswdt.c **** /**
  76:../asf/sam/drivers/rswdt/rswdt.c ****  * \brief Get counter value or permitted range value of reinforced safety watchdog timer from the
  77:../asf/sam/drivers/rswdt/rswdt.c ****  * desired timeout period (in us).
  78:../asf/sam/drivers/rswdt/rswdt.c ****  *
  79:../asf/sam/drivers/rswdt/rswdt.c ****  * \note The value returned by this function can be used by rswdt_init() if it is
  80:../asf/sam/drivers/rswdt/rswdt.c ****  * not RSWDT_INVALID_ARGUMENT.
  81:../asf/sam/drivers/rswdt/rswdt.c ****  *
  82:../asf/sam/drivers/rswdt/rswdt.c ****  * \param ul_us The desired timeout period (in us).
  83:../asf/sam/drivers/rswdt/rswdt.c ****  * \param ul_sclk The slow clock on board (in Hz).
  84:../asf/sam/drivers/rswdt/rswdt.c ****  *
  85:../asf/sam/drivers/rswdt/rswdt.c ****  * \return If the desired period is beyond the reinforced safety watchdog period, this function
  86:../asf/sam/drivers/rswdt/rswdt.c ****  * returns RSWDT_INVALID_ARGUMENT. Otherwise it returns valid value.
  87:../asf/sam/drivers/rswdt/rswdt.c ****  */
ARM GAS  /tmp/ccybDQNt.s 			page 3


  88:../asf/sam/drivers/rswdt/rswdt.c **** uint32_t rswdt_get_timeout_value(uint32_t ul_us, uint32_t ul_sclk)
  89:../asf/sam/drivers/rswdt/rswdt.c **** {
  28              		.loc 1 89 0
  29              		.cfi_startproc
  30              		@ args = 0, pretend = 0, frame = 0
  31              		@ frame_needed = 0, uses_anonymous_args = 0
  32              		@ link register save eliminated.
  33              	.LVL0:
  90:../asf/sam/drivers/rswdt/rswdt.c **** 	uint32_t max, min;
  91:../asf/sam/drivers/rswdt/rswdt.c **** 
  92:../asf/sam/drivers/rswdt/rswdt.c **** 	min = RSWDT_SLCK_DIV * 1000000 / ul_sclk;
  34              		.loc 1 92 0
  35 0000 084B     		ldr	r3, .L6
  36 0002 B3FBF1F1 		udiv	r1, r3, r1
  37              	.LVL1:
  93:../asf/sam/drivers/rswdt/rswdt.c **** 	max = min * RSWDT_MAX_VALUE;
  38              		.loc 1 93 0
  39 0006 C1EB0133 		rsb	r3, r1, r1, lsl #12
  94:../asf/sam/drivers/rswdt/rswdt.c **** 
  95:../asf/sam/drivers/rswdt/rswdt.c **** 	if ((ul_us < min) || (ul_us > max)) {
  40              		.loc 1 95 0
  41 000a 8342     		cmp	r3, r0
  42 000c 01D3     		bcc	.L3
  43 000e 8142     		cmp	r1, r0
  44 0010 02D9     		bls	.L5
  45              	.L3:
  96:../asf/sam/drivers/rswdt/rswdt.c **** 		return RSWDT_INVALID_ARGUMENT;
  46              		.loc 1 96 0
  47 0012 4FF6FF70 		movw	r0, #65535
  48              	.LVL2:
  97:../asf/sam/drivers/rswdt/rswdt.c **** 	}
  98:../asf/sam/drivers/rswdt/rswdt.c **** 
  99:../asf/sam/drivers/rswdt/rswdt.c **** 	return RSWDT_MR_WDV(ul_us / min);
 100:../asf/sam/drivers/rswdt/rswdt.c **** }
  49              		.loc 1 100 0
  50 0016 7047     		bx	lr
  51              	.LVL3:
  52              	.L5:
  99:../asf/sam/drivers/rswdt/rswdt.c **** }
  53              		.loc 1 99 0
  54 0018 B0FBF1F0 		udiv	r0, r0, r1
  55              	.LVL4:
  56 001c C0F30B00 		ubfx	r0, r0, #0, #12
  57 0020 7047     		bx	lr
  58              	.L7:
  59 0022 00BF     		.align	2
  60              	.L6:
  61 0024 0020A107 		.word	128000000
  62              		.cfi_endproc
  63              	.LFE142:
  64              		.size	rswdt_get_timeout_value, .-rswdt_get_timeout_value
  65              		.section	.text.rswdt_init,"ax",%progbits
  66              		.align	1
  67              		.p2align 2,,3
  68              		.global	rswdt_init
  69              		.syntax unified
  70              		.thumb
ARM GAS  /tmp/ccybDQNt.s 			page 4


  71              		.thumb_func
  72              		.fpu fpv5-d16
  73              		.type	rswdt_init, %function
  74              	rswdt_init:
  75              	.LFB143:
 101:../asf/sam/drivers/rswdt/rswdt.c **** 
 102:../asf/sam/drivers/rswdt/rswdt.c **** /**
 103:../asf/sam/drivers/rswdt/rswdt.c ****  * \brief Initialize reinforced safety watchdog timer with the given mode.
 104:../asf/sam/drivers/rswdt/rswdt.c ****  *
 105:../asf/sam/drivers/rswdt/rswdt.c ****  * \param p_rswdt Pointer to a RSWDT instance.
 106:../asf/sam/drivers/rswdt/rswdt.c ****  * \param ul_mode Bitmask of reinforced safety watchdog timer mode.
 107:../asf/sam/drivers/rswdt/rswdt.c ****  * \param us_counter The value loaded in the 12-bit Reinforced Safety Watchdog Counter.
 108:../asf/sam/drivers/rswdt/rswdt.c ****  * \param us_delta The permitted range for reloading the Reinforced Safety Watchdog Timer.
 109:../asf/sam/drivers/rswdt/rswdt.c ****  */
 110:../asf/sam/drivers/rswdt/rswdt.c **** void rswdt_init(Rswdt *p_rswdt, uint32_t ul_mode, uint16_t us_counter,
 111:../asf/sam/drivers/rswdt/rswdt.c **** 		uint16_t us_delta)
 112:../asf/sam/drivers/rswdt/rswdt.c **** {
  76              		.loc 1 112 0
  77              		.cfi_startproc
  78              		@ args = 0, pretend = 0, frame = 0
  79              		@ frame_needed = 0, uses_anonymous_args = 0
  80              		@ link register save eliminated.
  81              	.LVL5:
 113:../asf/sam/drivers/rswdt/rswdt.c **** #if (SAMV71 || SAMV70 || SAME70 || SAMS70)
 114:../asf/sam/drivers/rswdt/rswdt.c **** 	p_rswdt->RSWDT_MR = ul_mode |
 115:../asf/sam/drivers/rswdt/rswdt.c **** 			RSWDT_MR_WDV(us_counter);
  82              		.loc 1 115 0
  83 0000 C2F30B02 		ubfx	r2, r2, #0, #12
  84              	.LVL6:
 114:../asf/sam/drivers/rswdt/rswdt.c **** 			RSWDT_MR_WDV(us_counter);
  85              		.loc 1 114 0
  86 0004 0A43     		orrs	r2, r2, r1
  87 0006 4260     		str	r2, [r0, #4]
  88 0008 7047     		bx	lr
  89              		.cfi_endproc
  90              	.LFE143:
  91              		.size	rswdt_init, .-rswdt_init
  92 000a 00BF     		.section	.text.rswdt_disable,"ax",%progbits
  93              		.align	1
  94              		.p2align 2,,3
  95              		.global	rswdt_disable
  96              		.syntax unified
  97              		.thumb
  98              		.thumb_func
  99              		.fpu fpv5-d16
 100              		.type	rswdt_disable, %function
 101              	rswdt_disable:
 102              	.LFB144:
 116:../asf/sam/drivers/rswdt/rswdt.c **** #else
 117:../asf/sam/drivers/rswdt/rswdt.c **** 	p_rswdt->RSWDT_MR = ul_mode |
 118:../asf/sam/drivers/rswdt/rswdt.c **** 			RSWDT_MR_WDV(us_counter) | RSWDT_MR_WDD(us_delta);
 119:../asf/sam/drivers/rswdt/rswdt.c **** #endif
 120:../asf/sam/drivers/rswdt/rswdt.c **** }
 121:../asf/sam/drivers/rswdt/rswdt.c **** 
 122:../asf/sam/drivers/rswdt/rswdt.c **** /**
 123:../asf/sam/drivers/rswdt/rswdt.c ****  * \brief Disable the reinforced safety watchdog timer.
 124:../asf/sam/drivers/rswdt/rswdt.c ****  */
ARM GAS  /tmp/ccybDQNt.s 			page 5


 125:../asf/sam/drivers/rswdt/rswdt.c **** void rswdt_disable(Rswdt *p_rswdt)
 126:../asf/sam/drivers/rswdt/rswdt.c **** {
 103              		.loc 1 126 0
 104              		.cfi_startproc
 105              		@ args = 0, pretend = 0, frame = 0
 106              		@ frame_needed = 0, uses_anonymous_args = 0
 107              		@ link register save eliminated.
 108              	.LVL7:
 127:../asf/sam/drivers/rswdt/rswdt.c **** 	p_rswdt->RSWDT_MR = RSWDT_MR_WDDIS;
 109              		.loc 1 127 0
 110 0000 4FF40043 		mov	r3, #32768
 111 0004 4360     		str	r3, [r0, #4]
 112 0006 7047     		bx	lr
 113              		.cfi_endproc
 114              	.LFE144:
 115              		.size	rswdt_disable, .-rswdt_disable
 116              		.section	.text.rswdt_restart,"ax",%progbits
 117              		.align	1
 118              		.p2align 2,,3
 119              		.global	rswdt_restart
 120              		.syntax unified
 121              		.thumb
 122              		.thumb_func
 123              		.fpu fpv5-d16
 124              		.type	rswdt_restart, %function
 125              	rswdt_restart:
 126              	.LFB145:
 128:../asf/sam/drivers/rswdt/rswdt.c **** }
 129:../asf/sam/drivers/rswdt/rswdt.c **** 
 130:../asf/sam/drivers/rswdt/rswdt.c **** /**
 131:../asf/sam/drivers/rswdt/rswdt.c ****  * \brief Restart the reinforced safety watchdog timer.
 132:../asf/sam/drivers/rswdt/rswdt.c ****  */
 133:../asf/sam/drivers/rswdt/rswdt.c **** void rswdt_restart(Rswdt *p_rswdt)
 134:../asf/sam/drivers/rswdt/rswdt.c **** {
 127              		.loc 1 134 0
 128              		.cfi_startproc
 129              		@ args = 0, pretend = 0, frame = 0
 130              		@ frame_needed = 0, uses_anonymous_args = 0
 131              		@ link register save eliminated.
 132              	.LVL8:
 135:../asf/sam/drivers/rswdt/rswdt.c **** 	if (p_rswdt == RSWDT) {
 133              		.loc 1 135 0
 134 0000 034B     		ldr	r3, .L13
 135 0002 9842     		cmp	r0, r3
 136 0004 00D0     		beq	.L12
 137 0006 7047     		bx	lr
 138              	.L12:
 136:../asf/sam/drivers/rswdt/rswdt.c **** 		p_rswdt->RSWDT_CR = RSWDT_KEY_PASSWORD | RSWDT_CR_WDRSTT;
 139              		.loc 1 136 0
 140 0008 024B     		ldr	r3, .L13+4
 141 000a 0360     		str	r3, [r0]
 142 000c 7047     		bx	lr
 143              	.L14:
 144 000e 00BF     		.align	2
 145              	.L13:
 146 0010 00190E40 		.word	1074665728
 147 0014 010000C4 		.word	-1006632959
ARM GAS  /tmp/ccybDQNt.s 			page 6


 148              		.cfi_endproc
 149              	.LFE145:
 150              		.size	rswdt_restart, .-rswdt_restart
 151              		.section	.text.rswdt_get_status,"ax",%progbits
 152              		.align	1
 153              		.p2align 2,,3
 154              		.global	rswdt_get_status
 155              		.syntax unified
 156              		.thumb
 157              		.thumb_func
 158              		.fpu fpv5-d16
 159              		.type	rswdt_get_status, %function
 160              	rswdt_get_status:
 161              	.LFB146:
 137:../asf/sam/drivers/rswdt/rswdt.c **** 	}
 138:../asf/sam/drivers/rswdt/rswdt.c **** }
 139:../asf/sam/drivers/rswdt/rswdt.c **** 
 140:../asf/sam/drivers/rswdt/rswdt.c **** /**
 141:../asf/sam/drivers/rswdt/rswdt.c ****  * \brief Check the reinforced safety watchdog timer status.
 142:../asf/sam/drivers/rswdt/rswdt.c ****  *
 143:../asf/sam/drivers/rswdt/rswdt.c ****  * \return Bitmask of reinforced safety watchdog timer status.
 144:../asf/sam/drivers/rswdt/rswdt.c ****  */
 145:../asf/sam/drivers/rswdt/rswdt.c **** uint32_t rswdt_get_status(Rswdt *p_rswdt)
 146:../asf/sam/drivers/rswdt/rswdt.c **** {
 162              		.loc 1 146 0
 163              		.cfi_startproc
 164              		@ args = 0, pretend = 0, frame = 0
 165              		@ frame_needed = 0, uses_anonymous_args = 0
 166              		@ link register save eliminated.
 167              	.LVL9:
 147:../asf/sam/drivers/rswdt/rswdt.c **** 	return p_rswdt->RSWDT_SR;
 168              		.loc 1 147 0
 169 0000 8068     		ldr	r0, [r0, #8]
 170              	.LVL10:
 148:../asf/sam/drivers/rswdt/rswdt.c **** }
 171              		.loc 1 148 0
 172 0002 7047     		bx	lr
 173              		.cfi_endproc
 174              	.LFE146:
 175              		.size	rswdt_get_status, .-rswdt_get_status
 176              		.section	.text.rswdt_get_us_timeout_period,"ax",%progbits
 177              		.align	1
 178              		.p2align 2,,3
 179              		.global	rswdt_get_us_timeout_period
 180              		.syntax unified
 181              		.thumb
 182              		.thumb_func
 183              		.fpu fpv5-d16
 184              		.type	rswdt_get_us_timeout_period, %function
 185              	rswdt_get_us_timeout_period:
 186              	.LFB147:
 149:../asf/sam/drivers/rswdt/rswdt.c **** 
 150:../asf/sam/drivers/rswdt/rswdt.c **** /**
 151:../asf/sam/drivers/rswdt/rswdt.c ****  * \brief Get the timeout period of the Reinforced Safety WatchDog Timer in microseconds.
 152:../asf/sam/drivers/rswdt/rswdt.c ****  *
 153:../asf/sam/drivers/rswdt/rswdt.c ****  * \param p_rswdt Pointer to a RSWDT instance.
 154:../asf/sam/drivers/rswdt/rswdt.c ****  * \param ul_sclk The slow clock frequency (in Hz).
ARM GAS  /tmp/ccybDQNt.s 			page 7


 155:../asf/sam/drivers/rswdt/rswdt.c ****  *
 156:../asf/sam/drivers/rswdt/rswdt.c ****  * \return The timeout period in microseconds.
 157:../asf/sam/drivers/rswdt/rswdt.c ****  */
 158:../asf/sam/drivers/rswdt/rswdt.c **** uint32_t rswdt_get_us_timeout_period(Rswdt *p_rswdt, uint32_t ul_sclk)
 159:../asf/sam/drivers/rswdt/rswdt.c **** {
 187              		.loc 1 159 0
 188              		.cfi_startproc
 189              		@ args = 0, pretend = 0, frame = 0
 190              		@ frame_needed = 0, uses_anonymous_args = 0
 191              		@ link register save eliminated.
 192              	.LVL11:
 160:../asf/sam/drivers/rswdt/rswdt.c **** 	return RSWDT_MR_WDV(p_rswdt->RSWDT_MR) * RSWDT_SLCK_DIV / ul_sclk * 1000000;
 193              		.loc 1 160 0
 194 0000 4368     		ldr	r3, [r0, #4]
 195 0002 044A     		ldr	r2, .L17
 196 0004 C3F30B03 		ubfx	r3, r3, #0, #12
 197 0008 DB01     		lsls	r3, r3, #7
 198 000a B3FBF1F1 		udiv	r1, r3, r1
 199              	.LVL12:
 161:../asf/sam/drivers/rswdt/rswdt.c **** }
 200              		.loc 1 161 0
 201 000e 02FB01F0 		mul	r0, r2, r1
 202              	.LVL13:
 203 0012 7047     		bx	lr
 204              	.L18:
 205              		.align	2
 206              	.L17:
 207 0014 40420F00 		.word	1000000
 208              		.cfi_endproc
 209              	.LFE147:
 210              		.size	rswdt_get_us_timeout_period, .-rswdt_get_us_timeout_period
 211              		.section	.bss.cpu_irq_critical_section_counter,"aw",%nobits
 212              		.align	2
 213              		.type	cpu_irq_critical_section_counter, %object
 214              		.size	cpu_irq_critical_section_counter, 4
 215              	cpu_irq_critical_section_counter:
 216 0000 00000000 		.space	4
 217              		.section	.bss.cpu_irq_prev_interrupt_state,"aw",%nobits
 218              		.type	cpu_irq_prev_interrupt_state, %object
 219              		.size	cpu_irq_prev_interrupt_state, 1
 220              	cpu_irq_prev_interrupt_state:
 221 0000 00       		.space	1
 222              		.text
 223              	.Letext0:
 224              		.file 2 "/usr/include/newlib/machine/_default_types.h"
 225              		.file 3 "/usr/include/newlib/sys/_stdint.h"
 226              		.file 4 "/home/torbjorn/eclipse-workspace/CoreNG/asf/thirdparty/CMSIS/Include/core_cm7.h"
 227              		.file 5 "/home/torbjorn/eclipse-workspace/CoreNG/variants/same70/system_same70.h"
 228              		.file 6 "/home/torbjorn/eclipse-workspace/CoreNG/asf/sam/utils/cmsis/same70/include/component/rswd
 229              		.file 7 "/usr/include/newlib/sys/lock.h"
 230              		.file 8 "/usr/include/newlib/sys/_types.h"
 231              		.file 9 "/usr/lib/gcc/arm-none-eabi/6.3.1/include/stddef.h"
 232              		.file 10 "/usr/include/newlib/sys/reent.h"
 233              		.file 11 "/usr/include/newlib/stdlib.h"
 234              		.file 12 "/home/torbjorn/eclipse-workspace/CoreNG/asf/common/utils/interrupt/interrupt_sam_nvic.h"