ARM GAS  /tmp/cc7QW4Yp.s 			page 1


   1              		.cpu cortex-m7
   2              		.eabi_attribute 28, 1
   3              		.eabi_attribute 20, 1
   4              		.eabi_attribute 21, 1
   5              		.eabi_attribute 23, 3
   6              		.eabi_attribute 24, 1
   7              		.eabi_attribute 25, 1
   8              		.eabi_attribute 26, 1
   9              		.eabi_attribute 30, 2
  10              		.eabi_attribute 34, 1
  11              		.eabi_attribute 18, 4
  12              		.file	"syscalls.c"
  13              		.text
  14              	.Ltext0:
  15              		.cfi_sections	.debug_frame
  16              		.section	.text._sbrk,"ax",%progbits
  17              		.align	1
  18              		.p2align 2,,3
  19              		.global	_sbrk
  20              		.syntax unified
  21              		.thumb
  22              		.thumb_func
  23              		.fpu fpv5-d16
  24              		.type	_sbrk, %function
  25              	_sbrk:
  26              	.LFB142:
  27              		.file 1 "../cores/arduino/syscalls.c"
   1:../cores/arduino/syscalls.c **** /*
   2:../cores/arduino/syscalls.c ****   Copyright (c) 2011 Arduino.  All right reserved.
   3:../cores/arduino/syscalls.c **** 
   4:../cores/arduino/syscalls.c ****   This library is free software; you can redistribute it and/or
   5:../cores/arduino/syscalls.c ****   modify it under the terms of the GNU Lesser General Public
   6:../cores/arduino/syscalls.c ****   License as published by the Free Software Foundation; either
   7:../cores/arduino/syscalls.c ****   version 2.1 of the License, or (at your option) any later version.
   8:../cores/arduino/syscalls.c **** 
   9:../cores/arduino/syscalls.c ****   This library is distributed in the hope that it will be useful,
  10:../cores/arduino/syscalls.c ****   but WITHOUT ANY WARRANTY; without even the implied warranty of
  11:../cores/arduino/syscalls.c ****   MERCHANTABILITY or FITNESS FOR A PARTICULAR PURPOSE.
  12:../cores/arduino/syscalls.c ****   See the GNU Lesser General Public License for more details.
  13:../cores/arduino/syscalls.c **** 
  14:../cores/arduino/syscalls.c ****   You should have received a copy of the GNU Lesser General Public
  15:../cores/arduino/syscalls.c ****   License along with this library; if not, write to the Free Software
  16:../cores/arduino/syscalls.c ****   Foundation, Inc., 51 Franklin St, Fifth Floor, Boston, MA  02110-1301  USA
  17:../cores/arduino/syscalls.c **** */
  18:../cores/arduino/syscalls.c **** 
  19:../cores/arduino/syscalls.c **** /**
  20:../cores/arduino/syscalls.c ****   * \file syscalls.c
  21:../cores/arduino/syscalls.c ****   *
  22:../cores/arduino/syscalls.c ****   * Implementation of newlib syscall.
  23:../cores/arduino/syscalls.c ****   *
  24:../cores/arduino/syscalls.c ****   */
  25:../cores/arduino/syscalls.c **** 
  26:../cores/arduino/syscalls.c **** /*----------------------------------------------------------------------------
  27:../cores/arduino/syscalls.c ****  *        Headers
  28:../cores/arduino/syscalls.c ****  *----------------------------------------------------------------------------*/
  29:../cores/arduino/syscalls.c **** 
  30:../cores/arduino/syscalls.c **** 
ARM GAS  /tmp/cc7QW4Yp.s 			page 2


  31:../cores/arduino/syscalls.c **** #include "syscalls.h"
  32:../cores/arduino/syscalls.c **** 
  33:../cores/arduino/syscalls.c **** #include <stdio.h>
  34:../cores/arduino/syscalls.c **** #include <stdarg.h>
  35:../cores/arduino/syscalls.c **** #include "compiler.h"
  36:../cores/arduino/syscalls.c **** #if defined (  __GNUC__  ) /* GCC CS3 */
  37:../cores/arduino/syscalls.c ****   #include <sys/types.h>
  38:../cores/arduino/syscalls.c ****   #include <sys/stat.h>
  39:../cores/arduino/syscalls.c **** #endif
  40:../cores/arduino/syscalls.c **** 
  41:../cores/arduino/syscalls.c **** // Helper macro to mark unused parameters and prevent compiler warnings.
  42:../cores/arduino/syscalls.c **** // Appends _UNUSED to the variable name to prevent accidentally using them.
  43:../cores/arduino/syscalls.c **** #undef UNUSED
  44:../cores/arduino/syscalls.c **** #ifdef __GNUC__
  45:../cores/arduino/syscalls.c **** #  define UNUSED(x) x ## _UNUSED __attribute__((__unused__))
  46:../cores/arduino/syscalls.c **** #else
  47:../cores/arduino/syscalls.c **** #  define UNUSED(x) x ## _UNUSED
  48:../cores/arduino/syscalls.c **** #endif
  49:../cores/arduino/syscalls.c **** 
  50:../cores/arduino/syscalls.c **** /*----------------------------------------------------------------------------
  51:../cores/arduino/syscalls.c ****  *        Exported variables
  52:../cores/arduino/syscalls.c ****  *----------------------------------------------------------------------------*/
  53:../cores/arduino/syscalls.c **** 
  54:../cores/arduino/syscalls.c **** #undef errno
  55:../cores/arduino/syscalls.c **** int errno = 0;
  56:../cores/arduino/syscalls.c **** extern int  _end ;
  57:../cores/arduino/syscalls.c **** 
  58:../cores/arduino/syscalls.c **** /*----------------------------------------------------------------------------
  59:../cores/arduino/syscalls.c ****  *        Exported functions
  60:../cores/arduino/syscalls.c ****  *----------------------------------------------------------------------------*/
  61:../cores/arduino/syscalls.c **** extern void _exit( int status ) ;
  62:../cores/arduino/syscalls.c **** extern void _kill( int pid, int sig ) ;
  63:../cores/arduino/syscalls.c **** extern int _getpid ( void ) ;
  64:../cores/arduino/syscalls.c **** 
  65:../cores/arduino/syscalls.c **** extern caddr_t _sbrk ( int incr )
  66:../cores/arduino/syscalls.c **** {
  28              		.loc 1 66 0
  29              		.cfi_startproc
  30              		@ args = 0, pretend = 0, frame = 0
  31              		@ frame_needed = 0, uses_anonymous_args = 0
  32              		@ link register save eliminated.
  33              	.LVL0:
  67:../cores/arduino/syscalls.c ****     static unsigned char *heap = NULL ;
  68:../cores/arduino/syscalls.c ****     unsigned char *prev_heap ;
  69:../cores/arduino/syscalls.c **** 
  70:../cores/arduino/syscalls.c ****     if ( heap == NULL )
  34              		.loc 1 70 0
  35 0000 044A     		ldr	r2, .L4
  36 0002 0549     		ldr	r1, .L4+4
  37 0004 1368     		ldr	r3, [r2]
  38 0006 002B     		cmp	r3, #0
  39 0008 08BF     		it	eq
  40 000a 0B46     		moveq	r3, r1
  41              	.LVL1:
  71:../cores/arduino/syscalls.c ****     {
  72:../cores/arduino/syscalls.c ****         heap = (unsigned char *)&_end ;
  73:../cores/arduino/syscalls.c ****     }
ARM GAS  /tmp/cc7QW4Yp.s 			page 3


  74:../cores/arduino/syscalls.c ****     prev_heap = heap;
  75:../cores/arduino/syscalls.c **** 
  76:../cores/arduino/syscalls.c ****     heap += incr ;
  42              		.loc 1 76 0
  43 000c 1918     		adds	r1, r3, r0
  77:../cores/arduino/syscalls.c **** 
  78:../cores/arduino/syscalls.c ****     return (caddr_t) prev_heap ;
  79:../cores/arduino/syscalls.c **** }
  44              		.loc 1 79 0
  45 000e 1846     		mov	r0, r3
  46              	.LVL2:
  76:../cores/arduino/syscalls.c **** 
  47              		.loc 1 76 0
  48 0010 1160     		str	r1, [r2]
  49              	.LVL3:
  50              		.loc 1 79 0
  51 0012 7047     		bx	lr
  52              	.L5:
  53              		.align	2
  54              	.L4:
  55 0014 00000000 		.word	.LANCHOR0
  56 0018 00000000 		.word	_end
  57              		.cfi_endproc
  58              	.LFE142:
  59              		.size	_sbrk, .-_sbrk
  60              		.section	.text.link,"ax",%progbits
  61              		.align	1
  62              		.p2align 2,,3
  63              		.global	link
  64              		.syntax unified
  65              		.thumb
  66              		.thumb_func
  67              		.fpu fpv5-d16
  68              		.type	link, %function
  69              	link:
  70              	.LFB143:
  80:../cores/arduino/syscalls.c **** 
  81:../cores/arduino/syscalls.c **** extern int link( UNUSED(char *cOld), UNUSED(char *cNew) )
  82:../cores/arduino/syscalls.c **** {
  71              		.loc 1 82 0
  72              		.cfi_startproc
  73              		@ args = 0, pretend = 0, frame = 0
  74              		@ frame_needed = 0, uses_anonymous_args = 0
  75              		@ link register save eliminated.
  76              	.LVL4:
  83:../cores/arduino/syscalls.c ****     return -1 ;
  84:../cores/arduino/syscalls.c **** }
  77              		.loc 1 84 0
  78 0000 4FF0FF30 		mov	r0, #-1
  79              	.LVL5:
  80 0004 7047     		bx	lr
  81              		.cfi_endproc
  82              	.LFE143:
  83              		.size	link, .-link
  84 0006 00BF     		.section	.text._close,"ax",%progbits
  85              		.align	1
  86              		.p2align 2,,3
ARM GAS  /tmp/cc7QW4Yp.s 			page 4


  87              		.global	_close
  88              		.syntax unified
  89              		.thumb
  90              		.thumb_func
  91              		.fpu fpv5-d16
  92              		.type	_close, %function
  93              	_close:
  94              	.LFB144:
  85:../cores/arduino/syscalls.c **** 
  86:../cores/arduino/syscalls.c **** extern int _close( UNUSED(int file) )
  87:../cores/arduino/syscalls.c **** {
  95              		.loc 1 87 0
  96              		.cfi_startproc
  97              		@ args = 0, pretend = 0, frame = 0
  98              		@ frame_needed = 0, uses_anonymous_args = 0
  99              		@ link register save eliminated.
 100              	.LVL6:
  88:../cores/arduino/syscalls.c ****     return -1 ;
  89:../cores/arduino/syscalls.c **** }
 101              		.loc 1 89 0
 102 0000 4FF0FF30 		mov	r0, #-1
 103              	.LVL7:
 104 0004 7047     		bx	lr
 105              		.cfi_endproc
 106              	.LFE144:
 107              		.size	_close, .-_close
 108 0006 00BF     		.section	.text._fstat,"ax",%progbits
 109              		.align	1
 110              		.p2align 2,,3
 111              		.global	_fstat
 112              		.syntax unified
 113              		.thumb
 114              		.thumb_func
 115              		.fpu fpv5-d16
 116              		.type	_fstat, %function
 117              	_fstat:
 118              	.LFB145:
  90:../cores/arduino/syscalls.c **** 
  91:../cores/arduino/syscalls.c **** extern int _fstat( UNUSED(int file), struct stat *st )
  92:../cores/arduino/syscalls.c **** {
 119              		.loc 1 92 0
 120              		.cfi_startproc
 121              		@ args = 0, pretend = 0, frame = 0
 122              		@ frame_needed = 0, uses_anonymous_args = 0
 123              		@ link register save eliminated.
 124              	.LVL8:
  93:../cores/arduino/syscalls.c ****     st->st_mode = S_IFCHR ;
 125              		.loc 1 93 0
 126 0000 4FF40053 		mov	r3, #8192
  94:../cores/arduino/syscalls.c ****     return 0 ;
  95:../cores/arduino/syscalls.c **** }
 127              		.loc 1 95 0
 128 0004 0020     		movs	r0, #0
 129              	.LVL9:
  93:../cores/arduino/syscalls.c ****     st->st_mode = S_IFCHR ;
 130              		.loc 1 93 0
 131 0006 4B60     		str	r3, [r1, #4]
ARM GAS  /tmp/cc7QW4Yp.s 			page 5


 132              		.loc 1 95 0
 133 0008 7047     		bx	lr
 134              		.cfi_endproc
 135              	.LFE145:
 136              		.size	_fstat, .-_fstat
 137 000a 00BF     		.section	.text._isatty,"ax",%progbits
 138              		.align	1
 139              		.p2align 2,,3
 140              		.global	_isatty
 141              		.syntax unified
 142              		.thumb
 143              		.thumb_func
 144              		.fpu fpv5-d16
 145              		.type	_isatty, %function
 146              	_isatty:
 147              	.LFB146:
  96:../cores/arduino/syscalls.c **** 
  97:../cores/arduino/syscalls.c **** extern int _isatty( UNUSED(int file) )
  98:../cores/arduino/syscalls.c **** {
 148              		.loc 1 98 0
 149              		.cfi_startproc
 150              		@ args = 0, pretend = 0, frame = 0
 151              		@ frame_needed = 0, uses_anonymous_args = 0
 152              		@ link register save eliminated.
 153              	.LVL10:
  99:../cores/arduino/syscalls.c ****     return 1 ;
 100:../cores/arduino/syscalls.c **** }
 154              		.loc 1 100 0
 155 0000 0120     		movs	r0, #1
 156              	.LVL11:
 157 0002 7047     		bx	lr
 158              		.cfi_endproc
 159              	.LFE146:
 160              		.size	_isatty, .-_isatty
 161              		.section	.text._lseek,"ax",%progbits
 162              		.align	1
 163              		.p2align 2,,3
 164              		.global	_lseek
 165              		.syntax unified
 166              		.thumb
 167              		.thumb_func
 168              		.fpu fpv5-d16
 169              		.type	_lseek, %function
 170              	_lseek:
 171              	.LFB147:
 101:../cores/arduino/syscalls.c **** 
 102:../cores/arduino/syscalls.c **** extern int _lseek( UNUSED(int file), UNUSED(int ptr), UNUSED(int dir) )
 103:../cores/arduino/syscalls.c **** {
 172              		.loc 1 103 0
 173              		.cfi_startproc
 174              		@ args = 0, pretend = 0, frame = 0
 175              		@ frame_needed = 0, uses_anonymous_args = 0
 176              		@ link register save eliminated.
 177              	.LVL12:
 104:../cores/arduino/syscalls.c ****     return 0 ;
 105:../cores/arduino/syscalls.c **** }
 178              		.loc 1 105 0
ARM GAS  /tmp/cc7QW4Yp.s 			page 6


 179 0000 0020     		movs	r0, #0
 180              	.LVL13:
 181 0002 7047     		bx	lr
 182              		.cfi_endproc
 183              	.LFE147:
 184              		.size	_lseek, .-_lseek
 185              		.section	.text._read,"ax",%progbits
 186              		.align	1
 187              		.p2align 2,,3
 188              		.global	_read
 189              		.syntax unified
 190              		.thumb
 191              		.thumb_func
 192              		.fpu fpv5-d16
 193              		.type	_read, %function
 194              	_read:
 195              	.LFB148:
 106:../cores/arduino/syscalls.c **** 
 107:../cores/arduino/syscalls.c **** extern int _read(UNUSED(int file), UNUSED(char *ptr), UNUSED(int len) )
 108:../cores/arduino/syscalls.c **** {
 196              		.loc 1 108 0
 197              		.cfi_startproc
 198              		@ args = 0, pretend = 0, frame = 0
 199              		@ frame_needed = 0, uses_anonymous_args = 0
 200              		@ link register save eliminated.
 201              	.LVL14:
 109:../cores/arduino/syscalls.c ****     return 0 ;
 110:../cores/arduino/syscalls.c **** }
 202              		.loc 1 110 0
 203 0000 0020     		movs	r0, #0
 204              	.LVL15:
 205 0002 7047     		bx	lr
 206              		.cfi_endproc
 207              	.LFE148:
 208              		.size	_read, .-_read
 209              		.section	.text._write,"ax",%progbits
 210              		.align	1
 211              		.p2align 2,,3
 212              		.global	_write
 213              		.syntax unified
 214              		.thumb
 215              		.thumb_func
 216              		.fpu fpv5-d16
 217              		.type	_write, %function
 218              	_write:
 219              	.LFB149:
 111:../cores/arduino/syscalls.c **** 
 112:../cores/arduino/syscalls.c **** extern int _write( UNUSED(int file), char *ptr, int len )
 113:../cores/arduino/syscalls.c **** {
 220              		.loc 1 113 0
 221              		.cfi_startproc
 222              		@ args = 0, pretend = 0, frame = 0
 223              		@ frame_needed = 0, uses_anonymous_args = 0
 224              		@ link register save eliminated.
 225              	.LVL16:
 114:../cores/arduino/syscalls.c **** 	return len;
 115:../cores/arduino/syscalls.c **** }
ARM GAS  /tmp/cc7QW4Yp.s 			page 7


 226              		.loc 1 115 0
 227 0000 1046     		mov	r0, r2
 228              	.LVL17:
 229 0002 7047     		bx	lr
 230              		.cfi_endproc
 231              	.LFE149:
 232              		.size	_write, .-_write
 233              		.section	.text._exit,"ax",%progbits
 234              		.align	1
 235              		.p2align 2,,3
 236              		.global	_exit
 237              		.syntax unified
 238              		.thumb
 239              		.thumb_func
 240              		.fpu fpv5-d16
 241              		.type	_exit, %function
 242              	_exit:
 243              	.LFB150:
 116:../cores/arduino/syscalls.c **** 
 117:../cores/arduino/syscalls.c **** extern void _exit( int status )
 118:../cores/arduino/syscalls.c **** {
 244              		.loc 1 118 0
 245              		.cfi_startproc
 246              		@ Volatile: function does not return.
 247              		@ args = 0, pretend = 0, frame = 0
 248              		@ frame_needed = 0, uses_anonymous_args = 0
 249              		@ link register save eliminated.
 250              	.LVL18:
 251              	.L14:
 252 0000 FEE7     		b	.L14
 253              		.cfi_endproc
 254              	.LFE150:
 255              		.size	_exit, .-_exit
 256 0002 00BF     		.section	.text._kill,"ax",%progbits
 257              		.align	1
 258              		.p2align 2,,3
 259              		.global	_kill
 260              		.syntax unified
 261              		.thumb
 262              		.thumb_func
 263              		.fpu fpv5-d16
 264              		.type	_kill, %function
 265              	_kill:
 266              	.LFB151:
 119:../cores/arduino/syscalls.c **** 	for ( ; ; ) ;
 120:../cores/arduino/syscalls.c **** }
 121:../cores/arduino/syscalls.c **** 
 122:../cores/arduino/syscalls.c **** extern void _kill( UNUSED(int pid), UNUSED(int sig) )
 123:../cores/arduino/syscalls.c **** {
 267              		.loc 1 123 0
 268              		.cfi_startproc
 269              		@ args = 0, pretend = 0, frame = 0
 270              		@ frame_needed = 0, uses_anonymous_args = 0
 271              		@ link register save eliminated.
 272              	.LVL19:
 273 0000 7047     		bx	lr
 274              		.cfi_endproc
ARM GAS  /tmp/cc7QW4Yp.s 			page 8


 275              	.LFE151:
 276              		.size	_kill, .-_kill
 277 0002 00BF     		.section	.text._getpid,"ax",%progbits
 278              		.align	1
 279              		.p2align 2,,3
 280              		.global	_getpid
 281              		.syntax unified
 282              		.thumb
 283              		.thumb_func
 284              		.fpu fpv5-d16
 285              		.type	_getpid, %function
 286              	_getpid:
 287              	.LFB152:
 124:../cores/arduino/syscalls.c ****     return ;
 125:../cores/arduino/syscalls.c **** }
 126:../cores/arduino/syscalls.c **** 
 127:../cores/arduino/syscalls.c **** extern int _getpid ( void )
 128:../cores/arduino/syscalls.c **** {
 288              		.loc 1 128 0
 289              		.cfi_startproc
 290              		@ args = 0, pretend = 0, frame = 0
 291              		@ frame_needed = 0, uses_anonymous_args = 0
 292              		@ link register save eliminated.
 129:../cores/arduino/syscalls.c ****     return -1 ;
 130:../cores/arduino/syscalls.c **** }
 293              		.loc 1 130 0
 294 0000 4FF0FF30 		mov	r0, #-1
 295 0004 7047     		bx	lr
 296              		.cfi_endproc
 297              	.LFE152:
 298              		.size	_getpid, .-_getpid
 299              		.global	errno
 300 0006 00BF     		.section	.bss.cpu_irq_critical_section_counter,"aw",%nobits
 301              		.align	2
 302              		.type	cpu_irq_critical_section_counter, %object
 303              		.size	cpu_irq_critical_section_counter, 4
 304              	cpu_irq_critical_section_counter:
 305 0000 00000000 		.space	4
 306              		.section	.bss.cpu_irq_prev_interrupt_state,"aw",%nobits
 307              		.type	cpu_irq_prev_interrupt_state, %object
 308              		.size	cpu_irq_prev_interrupt_state, 1
 309              	cpu_irq_prev_interrupt_state:
 310 0000 00       		.space	1
 311              		.section	.bss.errno,"aw",%nobits
 312              		.align	2
 313              		.type	errno, %object
 314              		.size	errno, 4
 315              	errno:
 316 0000 00000000 		.space	4
 317              		.section	.bss.heap.9174,"aw",%nobits
 318              		.align	2
 319              		.set	.LANCHOR0,. + 0
 320              		.type	heap.9174, %object
 321              		.size	heap.9174, 4
 322              	heap.9174:
 323 0000 00000000 		.space	4
 324              		.text
ARM GAS  /tmp/cc7QW4Yp.s 			page 9


 325              	.Letext0:
 326              		.file 2 "/usr/include/newlib/machine/_default_types.h"
 327              		.file 3 "/usr/include/newlib/sys/lock.h"
 328              		.file 4 "/usr/include/newlib/sys/_types.h"
 329              		.file 5 "/usr/lib/gcc/arm-none-eabi/6.3.1/include/stddef.h"
 330              		.file 6 "/usr/include/newlib/sys/reent.h"
 331              		.file 7 "/usr/include/newlib/sys/_stdint.h"
 332              		.file 8 "/usr/include/newlib/sys/_timeval.h"
 333              		.file 9 "/usr/include/newlib/sys/types.h"
 334              		.file 10 "/usr/include/newlib/time.h"
 335              		.file 11 "/usr/include/newlib/sys/stat.h"
 336              		.file 12 "/home/torbjorn/eclipse-workspace/CoreNG/asf/thirdparty/CMSIS/Include/core_cm7.h"
 337              		.file 13 "/home/torbjorn/eclipse-workspace/CoreNG/variants/same70/system_same70.h"
 338              		.file 14 "/usr/include/newlib/stdlib.h"
 339              		.file 15 "/home/torbjorn/eclipse-workspace/CoreNG/asf/common/utils/interrupt/interrupt_sam_nvic.h"