ARM GAS  /tmp/cczlRLZa.s 			page 1


   1              		.cpu cortex-m7
   2              		.eabi_attribute 28, 1
   3              		.eabi_attribute 20, 1
   4              		.eabi_attribute 21, 1
   5              		.eabi_attribute 23, 3
   6              		.eabi_attribute 24, 1
   7              		.eabi_attribute 25, 1
   8              		.eabi_attribute 26, 1
   9              		.eabi_attribute 30, 2
  10              		.eabi_attribute 34, 1
  11              		.eabi_attribute 18, 4
  12              		.file	"system_same70.c"
  13              		.text
  14              	.Ltext0:
  15              		.cfi_sections	.debug_frame
  16              		.section	.text.SystemInit,"ax",%progbits
  17              		.align	1
  18              		.p2align 2,,3
  19              		.global	SystemInit
  20              		.syntax unified
  21              		.thumb
  22              		.thumb_func
  23              		.fpu fpv5-d16
  24              		.type	SystemInit, %function
  25              	SystemInit:
  26              	.LFB131:
  27              		.file 1 "../variants/same70/system_same70.c"
   1:../variants/same70/system_same70.c **** /**
   2:../variants/same70/system_same70.c ****  * \file
   3:../variants/same70/system_same70.c ****  *
   4:../variants/same70/system_same70.c ****  * Copyright (c) 2015 Atmel Corporation. All rights reserved.
   5:../variants/same70/system_same70.c ****  *
   6:../variants/same70/system_same70.c ****  * \asf_license_start
   7:../variants/same70/system_same70.c ****  *
   8:../variants/same70/system_same70.c ****  * \page License
   9:../variants/same70/system_same70.c ****  *
  10:../variants/same70/system_same70.c ****  * Redistribution and use in source and binary forms, with or without
  11:../variants/same70/system_same70.c ****  * modification, are permitted provided that the following conditions are met:
  12:../variants/same70/system_same70.c ****  *
  13:../variants/same70/system_same70.c ****  * 1. Redistributions of source code must retain the above copyright notice,
  14:../variants/same70/system_same70.c ****  *    this list of conditions and the following disclaimer.
  15:../variants/same70/system_same70.c ****  *
  16:../variants/same70/system_same70.c ****  * 2. Redistributions in binary form must reproduce the above copyright notice,
  17:../variants/same70/system_same70.c ****  *    this list of conditions and the following disclaimer in the documentation
  18:../variants/same70/system_same70.c ****  *    and/or other materials provided with the distribution.
  19:../variants/same70/system_same70.c ****  *
  20:../variants/same70/system_same70.c ****  * 3. The name of Atmel may not be used to endorse or promote products derived
  21:../variants/same70/system_same70.c ****  *    from this software without specific prior written permission.
  22:../variants/same70/system_same70.c ****  *
  23:../variants/same70/system_same70.c ****  * 4. This software may only be redistributed and used in connection with an
  24:../variants/same70/system_same70.c ****  *    Atmel microcontroller product.
  25:../variants/same70/system_same70.c ****  *
  26:../variants/same70/system_same70.c ****  * THIS SOFTWARE IS PROVIDED BY ATMEL "AS IS" AND ANY EXPRESS OR IMPLIED
  27:../variants/same70/system_same70.c ****  * WARRANTIES, INCLUDING, BUT NOT LIMITED TO, THE IMPLIED WARRANTIES OF
  28:../variants/same70/system_same70.c ****  * MERCHANTABILITY, FITNESS FOR A PARTICULAR PURPOSE AND NON-INFRINGEMENT ARE
  29:../variants/same70/system_same70.c ****  * EXPRESSLY AND SPECIFICALLY DISCLAIMED. IN NO EVENT SHALL ATMEL BE LIABLE FOR
  30:../variants/same70/system_same70.c ****  * ANY DIRECT, INDIRECT, INCIDENTAL, SPECIAL, EXEMPLARY, OR CONSEQUENTIAL
ARM GAS  /tmp/cczlRLZa.s 			page 2


  31:../variants/same70/system_same70.c ****  * DAMAGES (INCLUDING, BUT NOT LIMITED TO, PROCUREMENT OF SUBSTITUTE GOODS
  32:../variants/same70/system_same70.c ****  * OR SERVICES; LOSS OF USE, DATA, OR PROFITS; OR BUSINESS INTERRUPTION)
  33:../variants/same70/system_same70.c ****  * HOWEVER CAUSED AND ON ANY THEORY OF LIABILITY, WHETHER IN CONTRACT,
  34:../variants/same70/system_same70.c ****  * STRICT LIABILITY, OR TORT (INCLUDING NEGLIGENCE OR OTHERWISE) ARISING IN
  35:../variants/same70/system_same70.c ****  * ANY WAY OUT OF THE USE OF THIS SOFTWARE, EVEN IF ADVISED OF THE
  36:../variants/same70/system_same70.c ****  * POSSIBILITY OF SUCH DAMAGE.
  37:../variants/same70/system_same70.c ****  *
  38:../variants/same70/system_same70.c ****  * \asf_license_stop
  39:../variants/same70/system_same70.c ****  *
  40:../variants/same70/system_same70.c ****  */
  41:../variants/same70/system_same70.c **** /*
  42:../variants/same70/system_same70.c ****  * Support and FAQ: visit <a href="http://www.atmel.com/design-support/">Atmel Support</a>
  43:../variants/same70/system_same70.c ****  */
  44:../variants/same70/system_same70.c **** 
  45:../variants/same70/system_same70.c **** #include "same70.h"
  46:../variants/same70/system_same70.c **** 
  47:../variants/same70/system_same70.c **** /* @cond 0 */
  48:../variants/same70/system_same70.c **** /**INDENT-OFF**/
  49:../variants/same70/system_same70.c **** #ifdef __cplusplus
  50:../variants/same70/system_same70.c **** extern "C" {
  51:../variants/same70/system_same70.c **** #endif
  52:../variants/same70/system_same70.c **** /**INDENT-ON**/
  53:../variants/same70/system_same70.c **** /* @endcond */
  54:../variants/same70/system_same70.c **** 
  55:../variants/same70/system_same70.c **** /* %ATMEL_SYSTEM% */
  56:../variants/same70/system_same70.c **** /* Clock Settings (600MHz PLL VDDIO 3.3V and VDDCORE 1.2V) */
  57:../variants/same70/system_same70.c **** /* Clock Settings (300MHz HCLK, 150MHz MCK)=> PRESC = 2, MDIV = 2 */
  58:../variants/same70/system_same70.c **** #define SYS_BOARD_OSCOUNT   (CKGR_MOR_MOSCXTST(0x8U))
  59:../variants/same70/system_same70.c **** #define SYS_BOARD_PLLAR     (CKGR_PLLAR_ONE | CKGR_PLLAR_MULA(0x31U) | \
  60:../variants/same70/system_same70.c ****                             CKGR_PLLAR_PLLACOUNT(0x3fU) | CKGR_PLLAR_DIVA(0x1U))
  61:../variants/same70/system_same70.c **** #define SYS_BOARD_MCKR      (PMC_MCKR_PRES_CLK_2 | PMC_MCKR_CSS_PLLA_CLK | (1<<8))
  62:../variants/same70/system_same70.c **** 
  63:../variants/same70/system_same70.c **** uint32_t SystemCoreClock = CHIP_FREQ_XTAL_12M;
  64:../variants/same70/system_same70.c **** 
  65:../variants/same70/system_same70.c **** /**
  66:../variants/same70/system_same70.c ****  * \brief Setup the microcontroller system.
  67:../variants/same70/system_same70.c ****  * Initialize the System and update the SystemFrequency variable.
  68:../variants/same70/system_same70.c ****  */
  69:../variants/same70/system_same70.c ****  void SystemInit( void )
  70:../variants/same70/system_same70.c **** {
  28              		.loc 1 70 0
  29              		.cfi_startproc
  30              		@ args = 0, pretend = 0, frame = 0
  31              		@ frame_needed = 0, uses_anonymous_args = 0
  32              		@ link register save eliminated.
  71:../variants/same70/system_same70.c ****   /* Set FWS according to SYS_BOARD_MCKR configuration */
  72:../variants/same70/system_same70.c ****   EFC->EEFC_FMR = EEFC_FMR_FWS(5);
  33              		.loc 1 72 0
  34 0000 1B4A     		ldr	r2, .L23
  35 0002 4FF4A061 		mov	r1, #1280
  73:../variants/same70/system_same70.c **** 
  74:../variants/same70/system_same70.c ****   /* Initialize main oscillator */
  75:../variants/same70/system_same70.c ****   if ( !(PMC->CKGR_MOR & CKGR_MOR_MOSCSEL) )
  36              		.loc 1 75 0
  37 0006 1B4B     		ldr	r3, .L23+4
  72:../variants/same70/system_same70.c **** 
  38              		.loc 1 72 0
ARM GAS  /tmp/cczlRLZa.s 			page 3


  39 0008 1160     		str	r1, [r2]
  40              		.loc 1 75 0
  41 000a 1A6A     		ldr	r2, [r3, #32]
  42 000c D201     		lsls	r2, r2, #7
  43 000e 05D4     		bmi	.L5
  76:../variants/same70/system_same70.c ****   {
  77:../variants/same70/system_same70.c ****     PMC->CKGR_MOR = CKGR_MOR_KEY_PASSWD | SYS_BOARD_OSCOUNT | CKGR_MOR_MOSCRCEN | CKGR_MOR_MOSCXTEN
  44              		.loc 1 77 0
  45 0010 1949     		ldr	r1, .L23+8
  78:../variants/same70/system_same70.c **** 
  79:../variants/same70/system_same70.c ****     while ( !(PMC->PMC_SR & PMC_SR_MOSCXTS) )
  46              		.loc 1 79 0
  47 0012 1A46     		mov	r2, r3
  77:../variants/same70/system_same70.c **** 
  48              		.loc 1 77 0
  49 0014 1962     		str	r1, [r3, #32]
  50              	.L4:
  51              		.loc 1 79 0 discriminator 1
  52 0016 936E     		ldr	r3, [r2, #104]
  53 0018 D807     		lsls	r0, r3, #31
  54 001a FCD5     		bpl	.L4
  55              	.L5:
  80:../variants/same70/system_same70.c ****     {
  81:../variants/same70/system_same70.c ****     }
  82:../variants/same70/system_same70.c ****   }
  83:../variants/same70/system_same70.c **** 
  84:../variants/same70/system_same70.c ****   /* Switch to 3-20MHz Xtal oscillator */
  85:../variants/same70/system_same70.c ****   PMC->CKGR_MOR = CKGR_MOR_KEY_PASSWD | SYS_BOARD_OSCOUNT | CKGR_MOR_MOSCRCEN | CKGR_MOR_MOSCXTEN |
  56              		.loc 1 85 0
  57 001c 154B     		ldr	r3, .L23+4
  58 001e 1749     		ldr	r1, .L23+12
  86:../variants/same70/system_same70.c **** 
  87:../variants/same70/system_same70.c ****   while ( !(PMC->PMC_SR & PMC_SR_MOSCSELS) )
  59              		.loc 1 87 0
  60 0020 1A46     		mov	r2, r3
  85:../variants/same70/system_same70.c **** 
  61              		.loc 1 85 0
  62 0022 1962     		str	r1, [r3, #32]
  63              	.L3:
  64              		.loc 1 87 0 discriminator 1
  65 0024 936E     		ldr	r3, [r2, #104]
  66 0026 D903     		lsls	r1, r3, #15
  67 0028 FCD5     		bpl	.L3
  88:../variants/same70/system_same70.c ****   {
  89:../variants/same70/system_same70.c ****   }
  90:../variants/same70/system_same70.c **** 
  91:../variants/same70/system_same70.c ****   PMC->PMC_MCKR = (PMC->PMC_MCKR & ~(uint32_t)PMC_MCKR_CSS_Msk) | PMC_MCKR_CSS_MAIN_CLK;
  68              		.loc 1 91 0
  69 002a 136B     		ldr	r3, [r2, #48]
  92:../variants/same70/system_same70.c **** 
  93:../variants/same70/system_same70.c ****   while ( !(PMC->PMC_SR & PMC_SR_MCKRDY) )
  70              		.loc 1 93 0
  71 002c 1148     		ldr	r0, .L23+4
  91:../variants/same70/system_same70.c **** 
  72              		.loc 1 91 0
  73 002e 23F00303 		bic	r3, r3, #3
  74 0032 43F00103 		orr	r3, r3, #1
ARM GAS  /tmp/cczlRLZa.s 			page 4


  75 0036 1363     		str	r3, [r2, #48]
  76              	.L6:
  77              		.loc 1 93 0 discriminator 1
  78 0038 836E     		ldr	r3, [r0, #104]
  79 003a 1B07     		lsls	r3, r3, #28
  80 003c FCD5     		bpl	.L6
  94:../variants/same70/system_same70.c ****   {
  95:../variants/same70/system_same70.c ****   }
  96:../variants/same70/system_same70.c **** 
  97:../variants/same70/system_same70.c ****   /* Initialize PLLA */
  98:../variants/same70/system_same70.c ****   PMC->CKGR_PLLAR = SYS_BOARD_PLLAR;
  81              		.loc 1 98 0
  82 003e 104B     		ldr	r3, .L23+16
  99:../variants/same70/system_same70.c ****   while ( !(PMC->PMC_SR & PMC_SR_LOCKA) )
  83              		.loc 1 99 0
  84 0040 0C49     		ldr	r1, .L23+4
  98:../variants/same70/system_same70.c ****   while ( !(PMC->PMC_SR & PMC_SR_LOCKA) )
  85              		.loc 1 98 0
  86 0042 8362     		str	r3, [r0, #40]
  87              	.L7:
  88              		.loc 1 99 0 discriminator 1
  89 0044 8B6E     		ldr	r3, [r1, #104]
  90 0046 9807     		lsls	r0, r3, #30
  91 0048 FCD5     		bpl	.L7
 100:../variants/same70/system_same70.c ****   {
 101:../variants/same70/system_same70.c ****   }
 102:../variants/same70/system_same70.c **** 
 103:../variants/same70/system_same70.c ****   /* Switch to main clock */
 104:../variants/same70/system_same70.c ****   PMC->PMC_MCKR = (SYS_BOARD_MCKR & ~PMC_MCKR_CSS_Msk) | PMC_MCKR_CSS_MAIN_CLK;
  92              		.loc 1 104 0
  93 004a 40F21113 		movw	r3, #273
 105:../variants/same70/system_same70.c ****   while ( !(PMC->PMC_SR & PMC_SR_MCKRDY) )
  94              		.loc 1 105 0
  95 004e 094A     		ldr	r2, .L23+4
 104:../variants/same70/system_same70.c ****   while ( !(PMC->PMC_SR & PMC_SR_MCKRDY) )
  96              		.loc 1 104 0
  97 0050 0B63     		str	r3, [r1, #48]
  98              	.L8:
  99              		.loc 1 105 0 discriminator 1
 100 0052 936E     		ldr	r3, [r2, #104]
 101 0054 1907     		lsls	r1, r3, #28
 102 0056 FCD5     		bpl	.L8
 106:../variants/same70/system_same70.c ****   {
 107:../variants/same70/system_same70.c ****   }
 108:../variants/same70/system_same70.c **** 
 109:../variants/same70/system_same70.c ****   /* Switch to PLLA */
 110:../variants/same70/system_same70.c ****   PMC->PMC_MCKR = SYS_BOARD_MCKR;
 103              		.loc 1 110 0
 104 0058 4FF48973 		mov	r3, #274
 111:../variants/same70/system_same70.c ****   while ( !(PMC->PMC_SR & PMC_SR_MCKRDY) )
 105              		.loc 1 111 0
 106 005c 0549     		ldr	r1, .L23+4
 110:../variants/same70/system_same70.c ****   while ( !(PMC->PMC_SR & PMC_SR_MCKRDY) )
 107              		.loc 1 110 0
 108 005e 1363     		str	r3, [r2, #48]
 109              	.L9:
 110              		.loc 1 111 0 discriminator 1
ARM GAS  /tmp/cczlRLZa.s 			page 5


 111 0060 8B6E     		ldr	r3, [r1, #104]
 112 0062 1B07     		lsls	r3, r3, #28
 113 0064 FCD5     		bpl	.L9
 112:../variants/same70/system_same70.c ****   {
 113:../variants/same70/system_same70.c ****   }
 114:../variants/same70/system_same70.c **** 
 115:../variants/same70/system_same70.c ****   SystemCoreClock = CHIP_FREQ_CPU_MAX;
 114              		.loc 1 115 0
 115 0066 074B     		ldr	r3, .L23+20
 116 0068 074A     		ldr	r2, .L23+24
 117 006a 1A60     		str	r2, [r3]
 118 006c 7047     		bx	lr
 119              	.L24:
 120 006e 00BF     		.align	2
 121              	.L23:
 122 0070 000C0E40 		.word	1074662400
 123 0074 00060E40 		.word	1074660864
 124 0078 09083700 		.word	3606537
 125 007c 09083701 		.word	20383753
 126 0080 013F3120 		.word	540098305
 127 0084 00000000 		.word	.LANCHOR0
 128 0088 00A3E111 		.word	300000000
 129              		.cfi_endproc
 130              	.LFE131:
 131              		.size	SystemInit, .-SystemInit
 132              		.section	.text.SystemCoreClockUpdate,"ax",%progbits
 133              		.align	1
 134              		.p2align 2,,3
 135              		.global	SystemCoreClockUpdate
 136              		.syntax unified
 137              		.thumb
 138              		.thumb_func
 139              		.fpu fpv5-d16
 140              		.type	SystemCoreClockUpdate, %function
 141              	SystemCoreClockUpdate:
 142              	.LFB132:
 116:../variants/same70/system_same70.c **** }
 117:../variants/same70/system_same70.c **** 
 118:../variants/same70/system_same70.c **** void SystemCoreClockUpdate( void )
 119:../variants/same70/system_same70.c **** {
 143              		.loc 1 119 0
 144              		.cfi_startproc
 145              		@ args = 0, pretend = 0, frame = 0
 146              		@ frame_needed = 0, uses_anonymous_args = 0
 147              		@ link register save eliminated.
 120:../variants/same70/system_same70.c ****   /* Determine clock frequency according to clock register values */
 121:../variants/same70/system_same70.c ****   switch (PMC->PMC_MCKR & (uint32_t) PMC_MCKR_CSS_Msk)
 148              		.loc 1 121 0
 149 0000 314A     		ldr	r2, .L47
 150 0002 136B     		ldr	r3, [r2, #48]
 151 0004 03F00303 		and	r3, r3, #3
 152 0008 012B     		cmp	r3, #1
 153 000a 3DD0     		beq	.L27
 154 000c 26D3     		bcc	.L28
 155 000e 022B     		cmp	r3, #2
 156 0010 0DD0     		beq	.L29
 157 0012 2E49     		ldr	r1, .L47+4
ARM GAS  /tmp/cczlRLZa.s 			page 6


 158 0014 0B68     		ldr	r3, [r1]
 159              	.L30:
 122:../variants/same70/system_same70.c ****   {
 123:../variants/same70/system_same70.c ****     case PMC_MCKR_CSS_SLOW_CLK: /* Slow clock */
 124:../variants/same70/system_same70.c ****       if ( SUPC->SUPC_SR & SUPC_SR_OSCSEL )
 125:../variants/same70/system_same70.c ****       {
 126:../variants/same70/system_same70.c ****         SystemCoreClock = CHIP_FREQ_XTAL_32K;
 127:../variants/same70/system_same70.c ****       }
 128:../variants/same70/system_same70.c ****       else
 129:../variants/same70/system_same70.c ****       {
 130:../variants/same70/system_same70.c ****         SystemCoreClock = CHIP_FREQ_SLCK_RC;
 131:../variants/same70/system_same70.c ****       }
 132:../variants/same70/system_same70.c ****     break;
 133:../variants/same70/system_same70.c **** 
 134:../variants/same70/system_same70.c ****     case PMC_MCKR_CSS_MAIN_CLK: /* Main clock */
 135:../variants/same70/system_same70.c ****       if ( PMC->CKGR_MOR & CKGR_MOR_MOSCSEL )
 136:../variants/same70/system_same70.c ****       {
 137:../variants/same70/system_same70.c ****         SystemCoreClock = CHIP_FREQ_XTAL_12M;
 138:../variants/same70/system_same70.c ****       }
 139:../variants/same70/system_same70.c ****       else
 140:../variants/same70/system_same70.c ****       {
 141:../variants/same70/system_same70.c ****         SystemCoreClock = CHIP_FREQ_MAINCK_RC_4MHZ;
 142:../variants/same70/system_same70.c **** 
 143:../variants/same70/system_same70.c ****         switch ( PMC->CKGR_MOR & CKGR_MOR_MOSCRCF_Msk )
 144:../variants/same70/system_same70.c ****         {
 145:../variants/same70/system_same70.c ****           case CKGR_MOR_MOSCRCF_4_MHz:
 146:../variants/same70/system_same70.c ****           break;
 147:../variants/same70/system_same70.c **** 
 148:../variants/same70/system_same70.c ****           case CKGR_MOR_MOSCRCF_8_MHz:
 149:../variants/same70/system_same70.c ****             SystemCoreClock *= 2U;
 150:../variants/same70/system_same70.c ****           break;
 151:../variants/same70/system_same70.c **** 
 152:../variants/same70/system_same70.c ****           case CKGR_MOR_MOSCRCF_12_MHz:
 153:../variants/same70/system_same70.c ****             SystemCoreClock *= 3U;
 154:../variants/same70/system_same70.c ****           break;
 155:../variants/same70/system_same70.c **** 
 156:../variants/same70/system_same70.c ****           default:
 157:../variants/same70/system_same70.c ****           break;
 158:../variants/same70/system_same70.c ****         }
 159:../variants/same70/system_same70.c ****       }
 160:../variants/same70/system_same70.c ****     break;
 161:../variants/same70/system_same70.c **** 
 162:../variants/same70/system_same70.c ****     case PMC_MCKR_CSS_PLLA_CLK:	/* PLLA clock */
 163:../variants/same70/system_same70.c ****       if ( PMC->CKGR_MOR & CKGR_MOR_MOSCSEL )
 164:../variants/same70/system_same70.c ****       {
 165:../variants/same70/system_same70.c ****         SystemCoreClock = CHIP_FREQ_XTAL_12M ;
 166:../variants/same70/system_same70.c ****       }
 167:../variants/same70/system_same70.c ****       else
 168:../variants/same70/system_same70.c ****       {
 169:../variants/same70/system_same70.c ****         SystemCoreClock = CHIP_FREQ_MAINCK_RC_4MHZ;
 170:../variants/same70/system_same70.c **** 
 171:../variants/same70/system_same70.c ****         switch ( PMC->CKGR_MOR & CKGR_MOR_MOSCRCF_Msk )
 172:../variants/same70/system_same70.c ****         {
 173:../variants/same70/system_same70.c ****           case CKGR_MOR_MOSCRCF_4_MHz:
 174:../variants/same70/system_same70.c ****           break;
 175:../variants/same70/system_same70.c **** 
 176:../variants/same70/system_same70.c ****           case CKGR_MOR_MOSCRCF_8_MHz:
ARM GAS  /tmp/cczlRLZa.s 			page 7


 177:../variants/same70/system_same70.c ****             SystemCoreClock *= 2U;
 178:../variants/same70/system_same70.c ****           break;
 179:../variants/same70/system_same70.c **** 
 180:../variants/same70/system_same70.c ****           case CKGR_MOR_MOSCRCF_12_MHz:
 181:../variants/same70/system_same70.c ****             SystemCoreClock *= 3U;
 182:../variants/same70/system_same70.c ****           break;
 183:../variants/same70/system_same70.c **** 
 184:../variants/same70/system_same70.c ****           default:
 185:../variants/same70/system_same70.c ****           break;
 186:../variants/same70/system_same70.c ****         }
 187:../variants/same70/system_same70.c ****       }
 188:../variants/same70/system_same70.c **** 
 189:../variants/same70/system_same70.c ****       if ( (uint32_t) (PMC->PMC_MCKR & (uint32_t) PMC_MCKR_CSS_Msk) == PMC_MCKR_CSS_PLLA_CLK )
 190:../variants/same70/system_same70.c ****       {
 191:../variants/same70/system_same70.c ****         SystemCoreClock *= ((((PMC->CKGR_PLLAR) & CKGR_PLLAR_MULA_Msk) >> CKGR_PLLAR_MULA_Pos) + 1U
 192:../variants/same70/system_same70.c ****         SystemCoreClock /= ((((PMC->CKGR_PLLAR) & CKGR_PLLAR_DIVA_Msk) >> CKGR_PLLAR_DIVA_Pos));
 193:../variants/same70/system_same70.c ****       }
 194:../variants/same70/system_same70.c ****     break;
 195:../variants/same70/system_same70.c **** 
 196:../variants/same70/system_same70.c ****     default:
 197:../variants/same70/system_same70.c ****     break;
 198:../variants/same70/system_same70.c ****   }
 199:../variants/same70/system_same70.c **** 
 200:../variants/same70/system_same70.c ****   if ( (PMC->PMC_MCKR & PMC_MCKR_PRES_Msk) == PMC_MCKR_PRES_CLK_3 )
 160              		.loc 1 200 0
 161 0016 2C48     		ldr	r0, .L47
 162 0018 026B     		ldr	r2, [r0, #48]
 163 001a 02F07002 		and	r2, r2, #112
 164 001e 702A     		cmp	r2, #112
 165 0020 2CD0     		beq	.L45
 166              	.L39:
 201:../variants/same70/system_same70.c ****   {
 202:../variants/same70/system_same70.c ****     SystemCoreClock /= 3U;
 203:../variants/same70/system_same70.c ****   }
 204:../variants/same70/system_same70.c ****   else
 205:../variants/same70/system_same70.c ****   {
 206:../variants/same70/system_same70.c ****     SystemCoreClock >>= ((PMC->PMC_MCKR & PMC_MCKR_PRES_Msk) >> PMC_MCKR_PRES_Pos);
 167              		.loc 1 206 0
 168 0022 026B     		ldr	r2, [r0, #48]
 169 0024 C2F30212 		ubfx	r2, r2, #4, #3
 170 0028 D340     		lsrs	r3, r3, r2
 171 002a 0B60     		str	r3, [r1]
 172 002c 7047     		bx	lr
 173              	.L29:
 163:../variants/same70/system_same70.c ****       {
 174              		.loc 1 163 0
 175 002e 136A     		ldr	r3, [r2, #32]
 165:../variants/same70/system_same70.c ****       }
 176              		.loc 1 165 0
 177 0030 2649     		ldr	r1, .L47+4
 163:../variants/same70/system_same70.c ****       {
 178              		.loc 1 163 0
 179 0032 DB01     		lsls	r3, r3, #7
 180 0034 38D5     		bpl	.L46
 181              	.L38:
 181:../variants/same70/system_same70.c ****           break;
 182              		.loc 1 181 0
ARM GAS  /tmp/cczlRLZa.s 			page 8


 183 0036 264B     		ldr	r3, .L47+8
 184 0038 0B60     		str	r3, [r1]
 185              	.L36:
 189:../variants/same70/system_same70.c ****       {
 186              		.loc 1 189 0
 187 003a 2348     		ldr	r0, .L47
 188 003c 026B     		ldr	r2, [r0, #48]
 189 003e 02F00302 		and	r2, r2, #3
 190 0042 022A     		cmp	r2, #2
 191 0044 E7D1     		bne	.L30
 191:../variants/same70/system_same70.c ****         SystemCoreClock /= ((((PMC->CKGR_PLLAR) & CKGR_PLLAR_DIVA_Msk) >> CKGR_PLLAR_DIVA_Pos));
 192              		.loc 1 191 0
 193 0046 826A     		ldr	r2, [r0, #40]
 192:../variants/same70/system_same70.c ****       }
 194              		.loc 1 192 0
 195 0048 806A     		ldr	r0, [r0, #40]
 191:../variants/same70/system_same70.c ****         SystemCoreClock /= ((((PMC->CKGR_PLLAR) & CKGR_PLLAR_DIVA_Msk) >> CKGR_PLLAR_DIVA_Pos));
 196              		.loc 1 191 0
 197 004a C2F30A42 		ubfx	r2, r2, #16, #11
 192:../variants/same70/system_same70.c ****       }
 198              		.loc 1 192 0
 199 004e C0B2     		uxtb	r0, r0
 191:../variants/same70/system_same70.c ****         SystemCoreClock /= ((((PMC->CKGR_PLLAR) & CKGR_PLLAR_DIVA_Msk) >> CKGR_PLLAR_DIVA_Pos));
 200              		.loc 1 191 0
 201 0050 02FB0333 		mla	r3, r2, r3, r3
 192:../variants/same70/system_same70.c ****       }
 202              		.loc 1 192 0
 203 0054 B3FBF0F3 		udiv	r3, r3, r0
 204 0058 0B60     		str	r3, [r1]
 205 005a DCE7     		b	.L30
 206              	.L28:
 124:../variants/same70/system_same70.c ****       {
 207              		.loc 1 124 0
 208 005c 1D4B     		ldr	r3, .L47+12
 126:../variants/same70/system_same70.c ****       }
 209              		.loc 1 126 0
 210 005e 1B49     		ldr	r1, .L47+4
 124:../variants/same70/system_same70.c ****       {
 211              		.loc 1 124 0
 212 0060 5B69     		ldr	r3, [r3, #20]
 200:../variants/same70/system_same70.c ****   {
 213              		.loc 1 200 0
 214 0062 1948     		ldr	r0, .L47
 124:../variants/same70/system_same70.c ****       {
 215              		.loc 1 124 0
 216 0064 1B06     		lsls	r3, r3, #24
 126:../variants/same70/system_same70.c ****       }
 217              		.loc 1 126 0
 218 0066 4CBF     		ite	mi
 219 0068 4FF40043 		movmi	r3, #32768
 130:../variants/same70/system_same70.c ****       }
 220              		.loc 1 130 0
 221 006c 4FF4FA43 		movpl	r3, #32000
 222 0070 0B60     		str	r3, [r1]
 200:../variants/same70/system_same70.c ****   {
 223              		.loc 1 200 0
 224 0072 026B     		ldr	r2, [r0, #48]
ARM GAS  /tmp/cczlRLZa.s 			page 9


 225 0074 02F07002 		and	r2, r2, #112
 226 0078 702A     		cmp	r2, #112
 227 007a D2D1     		bne	.L39
 228              	.L45:
 202:../variants/same70/system_same70.c ****   }
 229              		.loc 1 202 0
 230 007c 164A     		ldr	r2, .L47+16
 231 007e A2FB0323 		umull	r2, r3, r2, r3
 232 0082 5B08     		lsrs	r3, r3, #1
 233 0084 0B60     		str	r3, [r1]
 234 0086 7047     		bx	lr
 235              	.L27:
 135:../variants/same70/system_same70.c ****       {
 236              		.loc 1 135 0
 237 0088 136A     		ldr	r3, [r2, #32]
 137:../variants/same70/system_same70.c ****       }
 238              		.loc 1 137 0
 239 008a 1049     		ldr	r1, .L47+4
 135:../variants/same70/system_same70.c ****       {
 240              		.loc 1 135 0
 241 008c D801     		lsls	r0, r3, #7
 242 008e 08D4     		bmi	.L34
 141:../variants/same70/system_same70.c **** 
 243              		.loc 1 141 0
 244 0090 124B     		ldr	r3, .L47+20
 245 0092 0B60     		str	r3, [r1]
 143:../variants/same70/system_same70.c ****         {
 246              		.loc 1 143 0
 247 0094 126A     		ldr	r2, [r2, #32]
 248 0096 02F07002 		and	r2, r2, #112
 249 009a 102A     		cmp	r2, #16
 250 009c 11D0     		beq	.L33
 251 009e 202A     		cmp	r2, #32
 252 00a0 B9D1     		bne	.L30
 253              	.L34:
 153:../variants/same70/system_same70.c ****           break;
 254              		.loc 1 153 0
 255 00a2 0B4B     		ldr	r3, .L47+8
 256 00a4 0B60     		str	r3, [r1]
 154:../variants/same70/system_same70.c **** 
 257              		.loc 1 154 0
 258 00a6 B6E7     		b	.L30
 259              	.L46:
 169:../variants/same70/system_same70.c **** 
 260              		.loc 1 169 0
 261 00a8 0C4B     		ldr	r3, .L47+20
 262 00aa 0B60     		str	r3, [r1]
 171:../variants/same70/system_same70.c ****         {
 263              		.loc 1 171 0
 264 00ac 126A     		ldr	r2, [r2, #32]
 265 00ae 02F07002 		and	r2, r2, #112
 266 00b2 102A     		cmp	r2, #16
 267 00b4 02D0     		beq	.L37
 268 00b6 202A     		cmp	r2, #32
 269 00b8 BDD0     		beq	.L38
 270 00ba BEE7     		b	.L36
 271              	.L37:
ARM GAS  /tmp/cczlRLZa.s 			page 10


 177:../variants/same70/system_same70.c ****           break;
 272              		.loc 1 177 0
 273 00bc 084B     		ldr	r3, .L47+24
 274 00be 0B60     		str	r3, [r1]
 178:../variants/same70/system_same70.c **** 
 275              		.loc 1 178 0
 276 00c0 BBE7     		b	.L36
 277              	.L33:
 149:../variants/same70/system_same70.c ****           break;
 278              		.loc 1 149 0
 279 00c2 074B     		ldr	r3, .L47+24
 280 00c4 0B60     		str	r3, [r1]
 150:../variants/same70/system_same70.c **** 
 281              		.loc 1 150 0
 282 00c6 A6E7     		b	.L30
 283              	.L48:
 284              		.align	2
 285              	.L47:
 286 00c8 00060E40 		.word	1074660864
 287 00cc 00000000 		.word	.LANCHOR0
 288 00d0 001BB700 		.word	12000000
 289 00d4 10180E40 		.word	1074665488
 290 00d8 ABAAAAAA 		.word	-1431655765
 291 00dc 00093D00 		.word	4000000
 292 00e0 00127A00 		.word	8000000
 293              		.cfi_endproc
 294              	.LFE132:
 295              		.size	SystemCoreClockUpdate, .-SystemCoreClockUpdate
 296              		.section	.text.system_init_flash,"ax",%progbits
 297              		.align	1
 298              		.p2align 2,,3
 299              		.global	system_init_flash
 300              		.syntax unified
 301              		.thumb
 302              		.thumb_func
 303              		.fpu fpv5-d16
 304              		.type	system_init_flash, %function
 305              	system_init_flash:
 306              	.LFB133:
 207:../variants/same70/system_same70.c ****   }
 208:../variants/same70/system_same70.c **** }
 209:../variants/same70/system_same70.c **** /**
 210:../variants/same70/system_same70.c ****  * Initialize flash.
 211:../variants/same70/system_same70.c ****  */
 212:../variants/same70/system_same70.c **** void system_init_flash( uint32_t ul_clk )
 213:../variants/same70/system_same70.c **** {
 307              		.loc 1 213 0
 308              		.cfi_startproc
 309              		@ args = 0, pretend = 0, frame = 0
 310              		@ frame_needed = 0, uses_anonymous_args = 0
 311              		@ link register save eliminated.
 312              	.LVL0:
 214:../variants/same70/system_same70.c ****   /* Set FWS for embedded Flash access according to operating frequency */
 215:../variants/same70/system_same70.c ****   if ( ul_clk < CHIP_FREQ_FWS_0 )
 313              		.loc 1 215 0
 314 0000 124B     		ldr	r3, .L60
 315 0002 9842     		cmp	r0, r3
ARM GAS  /tmp/cczlRLZa.s 			page 11


 316 0004 15D9     		bls	.L56
 216:../variants/same70/system_same70.c ****   {
 217:../variants/same70/system_same70.c ****     EFC->EEFC_FMR = EEFC_FMR_FWS(0)|EEFC_FMR_CLOE;
 218:../variants/same70/system_same70.c ****   }
 219:../variants/same70/system_same70.c ****   else
 220:../variants/same70/system_same70.c ****   {
 221:../variants/same70/system_same70.c ****     if (ul_clk < CHIP_FREQ_FWS_1)
 317              		.loc 1 221 0
 318 0006 124B     		ldr	r3, .L60+4
 319 0008 9842     		cmp	r0, r3
 320 000a 0ED9     		bls	.L57
 222:../variants/same70/system_same70.c ****     {
 223:../variants/same70/system_same70.c ****       EFC->EEFC_FMR = EEFC_FMR_FWS(1)|EEFC_FMR_CLOE;
 224:../variants/same70/system_same70.c ****     }
 225:../variants/same70/system_same70.c ****     else
 226:../variants/same70/system_same70.c ****     {
 227:../variants/same70/system_same70.c ****       if (ul_clk < CHIP_FREQ_FWS_2)
 321              		.loc 1 227 0
 322 000c 114B     		ldr	r3, .L60+8
 323 000e 9842     		cmp	r0, r3
 324 0010 18D9     		bls	.L58
 228:../variants/same70/system_same70.c ****       {
 229:../variants/same70/system_same70.c ****         EFC->EEFC_FMR = EEFC_FMR_FWS(2)|EEFC_FMR_CLOE;
 230:../variants/same70/system_same70.c ****       }
 231:../variants/same70/system_same70.c ****       else
 232:../variants/same70/system_same70.c ****       {
 233:../variants/same70/system_same70.c ****         if ( ul_clk < CHIP_FREQ_FWS_3 )
 325              		.loc 1 233 0
 326 0012 114B     		ldr	r3, .L60+12
 327 0014 9842     		cmp	r0, r3
 328 0016 11D9     		bls	.L59
 234:../variants/same70/system_same70.c ****         {
 235:../variants/same70/system_same70.c ****           EFC->EEFC_FMR = EEFC_FMR_FWS(3)|EEFC_FMR_CLOE;
 236:../variants/same70/system_same70.c ****         }
 237:../variants/same70/system_same70.c ****         else
 238:../variants/same70/system_same70.c ****         {
 239:../variants/same70/system_same70.c ****           if ( ul_clk < CHIP_FREQ_FWS_4 )
 329              		.loc 1 239 0
 330 0018 104B     		ldr	r3, .L60+16
 331 001a 9842     		cmp	r0, r3
 240:../variants/same70/system_same70.c ****           {
 241:../variants/same70/system_same70.c ****             EFC->EEFC_FMR = EEFC_FMR_FWS(4)|EEFC_FMR_CLOE;
 332              		.loc 1 241 0
 333 001c 104B     		ldr	r3, .L60+20
 334 001e 94BF     		ite	ls
 335 0020 4FF00422 		movls	r2, #67109888
 242:../variants/same70/system_same70.c ****           }
 243:../variants/same70/system_same70.c ****           else
 244:../variants/same70/system_same70.c ****           {
 245:../variants/same70/system_same70.c ****             EFC->EEFC_FMR = EEFC_FMR_FWS(5)|EEFC_FMR_CLOE;
 336              		.loc 1 245 0
 337 0024 0F4A     		ldrhi	r2, .L60+24
 338 0026 1A60     		str	r2, [r3]
 339 0028 7047     		bx	lr
 340              	.L57:
 223:../variants/same70/system_same70.c ****     }
 341              		.loc 1 223 0
ARM GAS  /tmp/cczlRLZa.s 			page 12


 342 002a 0D4B     		ldr	r3, .L60+20
 343 002c 0E4A     		ldr	r2, .L60+28
 344 002e 1A60     		str	r2, [r3]
 345 0030 7047     		bx	lr
 346              	.L56:
 217:../variants/same70/system_same70.c ****   }
 347              		.loc 1 217 0
 348 0032 0B4B     		ldr	r3, .L60+20
 349 0034 4FF08062 		mov	r2, #67108864
 350 0038 1A60     		str	r2, [r3]
 351 003a 7047     		bx	lr
 352              	.L59:
 235:../variants/same70/system_same70.c ****         }
 353              		.loc 1 235 0
 354 003c 084B     		ldr	r3, .L60+20
 355 003e 0B4A     		ldr	r2, .L60+32
 356 0040 1A60     		str	r2, [r3]
 357 0042 7047     		bx	lr
 358              	.L58:
 229:../variants/same70/system_same70.c ****       }
 359              		.loc 1 229 0
 360 0044 064B     		ldr	r3, .L60+20
 361 0046 0A4A     		ldr	r2, .L60+36
 362 0048 1A60     		str	r2, [r3]
 363 004a 7047     		bx	lr
 364              	.L61:
 365              		.align	2
 366              	.L60:
 367 004c BFF35E01 		.word	22999999
 368 0050 7FE7BD02 		.word	45999999
 369 0054 3FDB1C04 		.word	68999999
 370 0058 FFCE7B05 		.word	91999999
 371 005c BFC2DA06 		.word	114999999
 372 0060 000C0E40 		.word	1074662400
 373 0064 00050004 		.word	67110144
 374 0068 00010004 		.word	67109120
 375 006c 00030004 		.word	67109632
 376 0070 00020004 		.word	67109376
 377              		.cfi_endproc
 378              	.LFE133:
 379              		.size	system_init_flash, .-system_init_flash
 380              		.global	SystemCoreClock
 381              		.section	.data.SystemCoreClock,"aw",%progbits
 382              		.align	2
 383              		.set	.LANCHOR0,. + 0
 384              		.type	SystemCoreClock, %object
 385              		.size	SystemCoreClock, 4
 386              	SystemCoreClock:
 387 0000 001BB700 		.word	12000000
 388              		.text
 389              	.Letext0:
 390              		.file 2 "/usr/include/newlib/machine/_default_types.h"
 391              		.file 3 "/usr/include/newlib/sys/_stdint.h"
 392              		.file 4 "/home/torbjorn/eclipse-workspace/CoreNG/asf/thirdparty/CMSIS/Include/core_cm7.h"
 393              		.file 5 "/home/torbjorn/eclipse-workspace/CoreNG/variants/same70/system_same70.h"
 394              		.file 6 "/home/torbjorn/eclipse-workspace/CoreNG/asf/sam/utils/cmsis/same70/include/component/efc.
 395              		.file 7 "/home/torbjorn/eclipse-workspace/CoreNG/asf/sam/utils/cmsis/same70/include/component/pmc.
ARM GAS  /tmp/cczlRLZa.s 			page 13


 396              		.file 8 "/home/torbjorn/eclipse-workspace/CoreNG/asf/sam/utils/cmsis/same70/include/component/supc