ARM GAS  /tmp/ccsh7mrZ.s 			page 1


   1              		.cpu cortex-m7
   2              		.eabi_attribute 28, 1
   3              		.eabi_attribute 20, 1
   4              		.eabi_attribute 21, 1
   5              		.eabi_attribute 23, 3
   6              		.eabi_attribute 24, 1
   7              		.eabi_attribute 25, 1
   8              		.eabi_attribute 26, 1
   9              		.eabi_attribute 30, 2
  10              		.eabi_attribute 34, 1
  11              		.eabi_attribute 18, 4
  12              		.file	"twihs.c"
  13              		.text
  14              	.Ltext0:
  15              		.cfi_sections	.debug_frame
  16              		.section	.text.twihs_enable_master_mode,"ax",%progbits
  17              		.align	1
  18              		.p2align 2,,3
  19              		.global	twihs_enable_master_mode
  20              		.syntax unified
  21              		.thumb
  22              		.thumb_func
  23              		.fpu fpv5-d16
  24              		.type	twihs_enable_master_mode, %function
  25              	twihs_enable_master_mode:
  26              	.LFB167:
  27              		.file 1 "../asf/sam/drivers/twihs/twihs.c"
   1:../asf/sam/drivers/twihs/twihs.c **** /**
   2:../asf/sam/drivers/twihs/twihs.c ****  * \file
   3:../asf/sam/drivers/twihs/twihs.c ****  *
   4:../asf/sam/drivers/twihs/twihs.c ****  * \brief Two-Wire Interface (TWIHS) driver for SAM.
   5:../asf/sam/drivers/twihs/twihs.c ****  *
   6:../asf/sam/drivers/twihs/twihs.c ****  * Copyright (c) 2013-2016 Atmel Corporation. All rights reserved.
   7:../asf/sam/drivers/twihs/twihs.c ****  *
   8:../asf/sam/drivers/twihs/twihs.c ****  * \asf_license_start
   9:../asf/sam/drivers/twihs/twihs.c ****  *
  10:../asf/sam/drivers/twihs/twihs.c ****  * \page License
  11:../asf/sam/drivers/twihs/twihs.c ****  *
  12:../asf/sam/drivers/twihs/twihs.c ****  * Redistribution and use in source and binary forms, with or without
  13:../asf/sam/drivers/twihs/twihs.c ****  * modification, are permitted provided that the following conditions are met:
  14:../asf/sam/drivers/twihs/twihs.c ****  *
  15:../asf/sam/drivers/twihs/twihs.c ****  * 1. Redistributions of source code must retain the above copyright notice,
  16:../asf/sam/drivers/twihs/twihs.c ****  *    this list of conditions and the following disclaimer.
  17:../asf/sam/drivers/twihs/twihs.c ****  *
  18:../asf/sam/drivers/twihs/twihs.c ****  * 2. Redistributions in binary form must reproduce the above copyright notice,
  19:../asf/sam/drivers/twihs/twihs.c ****  *    this list of conditions and the following disclaimer in the documentation
  20:../asf/sam/drivers/twihs/twihs.c ****  *    and/or other materials provided with the distribution.
  21:../asf/sam/drivers/twihs/twihs.c ****  *
  22:../asf/sam/drivers/twihs/twihs.c ****  * 3. The name of Atmel may not be used to endorse or promote products derived
  23:../asf/sam/drivers/twihs/twihs.c ****  *    from this software without specific prior written permission.
  24:../asf/sam/drivers/twihs/twihs.c ****  *
  25:../asf/sam/drivers/twihs/twihs.c ****  * 4. This software may only be redistributed and used in connection with an
  26:../asf/sam/drivers/twihs/twihs.c ****  *    Atmel microcontroller product.
  27:../asf/sam/drivers/twihs/twihs.c ****  *
  28:../asf/sam/drivers/twihs/twihs.c ****  * THIS SOFTWARE IS PROVIDED BY ATMEL "AS IS" AND ANY EXPRESS OR IMPLIED
  29:../asf/sam/drivers/twihs/twihs.c ****  * WARRANTIES, INCLUDING, BUT NOT LIMITED TO, THE IMPLIED WARRANTIES OF
  30:../asf/sam/drivers/twihs/twihs.c ****  * MERCHANTABILITY, FITNESS FOR A PARTICULAR PURPOSE AND NON-INFRINGEMENT ARE
ARM GAS  /tmp/ccsh7mrZ.s 			page 2


  31:../asf/sam/drivers/twihs/twihs.c ****  * EXPRESSLY AND SPECIFICALLY DISCLAIMED. IN NO EVENT SHALL ATMEL BE LIABLE FOR
  32:../asf/sam/drivers/twihs/twihs.c ****  * ANY DIRECT, INDIRECT, INCIDENTAL, SPECIAL, EXEMPLARY, OR CONSEQUENTIAL
  33:../asf/sam/drivers/twihs/twihs.c ****  * DAMAGES (INCLUDING, BUT NOT LIMITED TO, PROCUREMENT OF SUBSTITUTE GOODS
  34:../asf/sam/drivers/twihs/twihs.c ****  * OR SERVICES; LOSS OF USE, DATA, OR PROFITS; OR BUSINESS INTERRUPTION)
  35:../asf/sam/drivers/twihs/twihs.c ****  * HOWEVER CAUSED AND ON ANY THEORY OF LIABILITY, WHETHER IN CONTRACT,
  36:../asf/sam/drivers/twihs/twihs.c ****  * STRICT LIABILITY, OR TORT (INCLUDING NEGLIGENCE OR OTHERWISE) ARISING IN
  37:../asf/sam/drivers/twihs/twihs.c ****  * ANY WAY OUT OF THE USE OF THIS SOFTWARE, EVEN IF ADVISED OF THE
  38:../asf/sam/drivers/twihs/twihs.c ****  * POSSIBILITY OF SUCH DAMAGE.
  39:../asf/sam/drivers/twihs/twihs.c ****  *
  40:../asf/sam/drivers/twihs/twihs.c ****  * \asf_license_stop
  41:../asf/sam/drivers/twihs/twihs.c ****  *
  42:../asf/sam/drivers/twihs/twihs.c ****  */
  43:../asf/sam/drivers/twihs/twihs.c **** /*
  44:../asf/sam/drivers/twihs/twihs.c ****  * Support and FAQ: visit <a href="http://www.atmel.com/design-support/">Atmel Support</a>
  45:../asf/sam/drivers/twihs/twihs.c ****  */
  46:../asf/sam/drivers/twihs/twihs.c **** 
  47:../asf/sam/drivers/twihs/twihs.c **** #include "twihs.h"
  48:../asf/sam/drivers/twihs/twihs.c **** 
  49:../asf/sam/drivers/twihs/twihs.c **** /// @cond 0
  50:../asf/sam/drivers/twihs/twihs.c **** /**INDENT-OFF**/
  51:../asf/sam/drivers/twihs/twihs.c **** #ifdef __cplusplus
  52:../asf/sam/drivers/twihs/twihs.c **** extern "C" {
  53:../asf/sam/drivers/twihs/twihs.c **** #endif
  54:../asf/sam/drivers/twihs/twihs.c **** /**INDENT-ON**/
  55:../asf/sam/drivers/twihs/twihs.c **** /// @endcond
  56:../asf/sam/drivers/twihs/twihs.c **** 
  57:../asf/sam/drivers/twihs/twihs.c **** /**
  58:../asf/sam/drivers/twihs/twihs.c ****  * \defgroup sam_drivers_twihs_group High-Speed Two-Wire Interface (TWIHS)
  59:../asf/sam/drivers/twihs/twihs.c ****  *
  60:../asf/sam/drivers/twihs/twihs.c ****  * Driver for the TWIHS (High-Speed Two-Wire Interface). This driver provides access to the main
  61:../asf/sam/drivers/twihs/twihs.c ****  * features of the TWIHS controller.
  62:../asf/sam/drivers/twihs/twihs.c ****  * The TWIHS interconnects components on a unique two-wire bus.
  63:../asf/sam/drivers/twihs/twihs.c ****  * The TWIHS is programmable as a master or a slave with sequential or single-byte access.
  64:../asf/sam/drivers/twihs/twihs.c ****  * Multiple master capability is supported.
  65:../asf/sam/drivers/twihs/twihs.c ****  * The High Speed of 3.4Mbits per second can be achieved in slave mode only.
  66:../asf/sam/drivers/twihs/twihs.c ****  *
  67:../asf/sam/drivers/twihs/twihs.c ****  * \par Usage
  68:../asf/sam/drivers/twihs/twihs.c ****  *
  69:../asf/sam/drivers/twihs/twihs.c ****  * -# Enable the TWIHS peripheral clock in the PMC.
  70:../asf/sam/drivers/twihs/twihs.c ****  * -# Enable the required TWIHS PIOs (see pio.h).
  71:../asf/sam/drivers/twihs/twihs.c ****  * -# Enable TWIHS master mode by calling twihs_enable_master_mode if it is a master on the I2C bus
  72:../asf/sam/drivers/twihs/twihs.c ****  * -# Configure the TWIHS in master mode by calling twihs_master_init.
  73:../asf/sam/drivers/twihs/twihs.c ****  * -# Send data to a slave device on the I2C bus by calling twihs_master_write.
  74:../asf/sam/drivers/twihs/twihs.c ****  * -# Receive data from a slave device on the I2C bus by calling the twihs_master_read.
  75:../asf/sam/drivers/twihs/twihs.c ****  * -# Enable TWIHS slave mode by calling twihs_enable_slave_mode if it is a slave on the I2C bus.
  76:../asf/sam/drivers/twihs/twihs.c ****  * -# Configure the TWIHS in slave mode by calling twihs_slave_init.
  77:../asf/sam/drivers/twihs/twihs.c ****  *
  78:../asf/sam/drivers/twihs/twihs.c ****  * @{
  79:../asf/sam/drivers/twihs/twihs.c ****  */
  80:../asf/sam/drivers/twihs/twihs.c **** 
  81:../asf/sam/drivers/twihs/twihs.c **** /* Low level time limit of I2C Fast Mode. */
  82:../asf/sam/drivers/twihs/twihs.c **** #define LOW_LEVEL_TIME_LIMIT   384000
  83:../asf/sam/drivers/twihs/twihs.c **** #define I2C_FAST_MODE_SPEED    400000
  84:../asf/sam/drivers/twihs/twihs.c **** #define TWIHS_CLK_DIVIDER      2
  85:../asf/sam/drivers/twihs/twihs.c **** #define TWIHS_CLK_CALC_ARGU    3
  86:../asf/sam/drivers/twihs/twihs.c **** #define TWIHS_CLK_DIV_MAX      0xFF
  87:../asf/sam/drivers/twihs/twihs.c **** #define TWIHS_CLK_DIV_MIN      7
ARM GAS  /tmp/ccsh7mrZ.s 			page 3


  88:../asf/sam/drivers/twihs/twihs.c **** 
  89:../asf/sam/drivers/twihs/twihs.c **** /**
  90:../asf/sam/drivers/twihs/twihs.c ****  * \brief Enable TWIHS master mode.
  91:../asf/sam/drivers/twihs/twihs.c ****  *
  92:../asf/sam/drivers/twihs/twihs.c ****  * \param p_twihs Pointer to a TWIHS instance.
  93:../asf/sam/drivers/twihs/twihs.c ****  */
  94:../asf/sam/drivers/twihs/twihs.c **** void twihs_enable_master_mode(Twihs *p_twihs)
  95:../asf/sam/drivers/twihs/twihs.c **** {
  28              		.loc 1 95 0
  29              		.cfi_startproc
  30              		@ args = 0, pretend = 0, frame = 0
  31              		@ frame_needed = 0, uses_anonymous_args = 0
  32              		@ link register save eliminated.
  33              	.LVL0:
  96:../asf/sam/drivers/twihs/twihs.c **** 	/* Set Master Disable bit and Slave Disable bit */
  97:../asf/sam/drivers/twihs/twihs.c **** 	p_twihs->TWIHS_CR = TWIHS_CR_MSDIS;
  34              		.loc 1 97 0
  35 0000 0821     		movs	r1, #8
  98:../asf/sam/drivers/twihs/twihs.c **** 	p_twihs->TWIHS_CR = TWIHS_CR_SVDIS;
  36              		.loc 1 98 0
  37 0002 2022     		movs	r2, #32
  99:../asf/sam/drivers/twihs/twihs.c **** 
 100:../asf/sam/drivers/twihs/twihs.c **** 	/* Set Master Enable bit */
 101:../asf/sam/drivers/twihs/twihs.c **** 	p_twihs->TWIHS_CR = TWIHS_CR_MSEN;
  38              		.loc 1 101 0
  39 0004 0423     		movs	r3, #4
  97:../asf/sam/drivers/twihs/twihs.c **** 	p_twihs->TWIHS_CR = TWIHS_CR_SVDIS;
  40              		.loc 1 97 0
  41 0006 0160     		str	r1, [r0]
  98:../asf/sam/drivers/twihs/twihs.c **** 	p_twihs->TWIHS_CR = TWIHS_CR_SVDIS;
  42              		.loc 1 98 0
  43 0008 0260     		str	r2, [r0]
  44              		.loc 1 101 0
  45 000a 0360     		str	r3, [r0]
  46 000c 7047     		bx	lr
  47              		.cfi_endproc
  48              	.LFE167:
  49              		.size	twihs_enable_master_mode, .-twihs_enable_master_mode
  50 000e 00BF     		.section	.text.twihs_disable_master_mode,"ax",%progbits
  51              		.align	1
  52              		.p2align 2,,3
  53              		.global	twihs_disable_master_mode
  54              		.syntax unified
  55              		.thumb
  56              		.thumb_func
  57              		.fpu fpv5-d16
  58              		.type	twihs_disable_master_mode, %function
  59              	twihs_disable_master_mode:
  60              	.LFB168:
 102:../asf/sam/drivers/twihs/twihs.c **** }
 103:../asf/sam/drivers/twihs/twihs.c **** 
 104:../asf/sam/drivers/twihs/twihs.c **** /**
 105:../asf/sam/drivers/twihs/twihs.c ****  * \brief Disable TWIHS master mode.
 106:../asf/sam/drivers/twihs/twihs.c ****  *
 107:../asf/sam/drivers/twihs/twihs.c ****  * \param p_twihs Pointer to a TWIHS instance.
 108:../asf/sam/drivers/twihs/twihs.c ****  */
 109:../asf/sam/drivers/twihs/twihs.c **** void twihs_disable_master_mode(Twihs *p_twihs)
ARM GAS  /tmp/ccsh7mrZ.s 			page 4


 110:../asf/sam/drivers/twihs/twihs.c **** {
  61              		.loc 1 110 0
  62              		.cfi_startproc
  63              		@ args = 0, pretend = 0, frame = 0
  64              		@ frame_needed = 0, uses_anonymous_args = 0
  65              		@ link register save eliminated.
  66              	.LVL1:
 111:../asf/sam/drivers/twihs/twihs.c **** 	/* Set Master Disable bit */
 112:../asf/sam/drivers/twihs/twihs.c **** 	p_twihs->TWIHS_CR = TWIHS_CR_MSDIS;
  67              		.loc 1 112 0
  68 0000 0823     		movs	r3, #8
  69 0002 0360     		str	r3, [r0]
  70 0004 7047     		bx	lr
  71              		.cfi_endproc
  72              	.LFE168:
  73              		.size	twihs_disable_master_mode, .-twihs_disable_master_mode
  74 0006 00BF     		.section	.text.twihs_set_speed,"ax",%progbits
  75              		.align	1
  76              		.p2align 2,,3
  77              		.global	twihs_set_speed
  78              		.syntax unified
  79              		.thumb
  80              		.thumb_func
  81              		.fpu fpv5-d16
  82              		.type	twihs_set_speed, %function
  83              	twihs_set_speed:
  84              	.LFB170:
 113:../asf/sam/drivers/twihs/twihs.c **** }
 114:../asf/sam/drivers/twihs/twihs.c **** 
 115:../asf/sam/drivers/twihs/twihs.c **** /**
 116:../asf/sam/drivers/twihs/twihs.c ****  * \brief Initialize TWIHS master mode.
 117:../asf/sam/drivers/twihs/twihs.c ****  *
 118:../asf/sam/drivers/twihs/twihs.c ****  * \param p_twihs Pointer to a TWIHS instance.
 119:../asf/sam/drivers/twihs/twihs.c ****  * \param p_opt Options for initializing the TWIHS module (see \ref twihs_options_t).
 120:../asf/sam/drivers/twihs/twihs.c ****  *
 121:../asf/sam/drivers/twihs/twihs.c ****  * \return TWIHS_SUCCESS if initialization is complete, error code otherwise.
 122:../asf/sam/drivers/twihs/twihs.c ****  */
 123:../asf/sam/drivers/twihs/twihs.c **** uint32_t twihs_master_init(Twihs *p_twihs, const twihs_options_t *p_opt)
 124:../asf/sam/drivers/twihs/twihs.c **** {
 125:../asf/sam/drivers/twihs/twihs.c **** 	uint32_t status = TWIHS_SUCCESS;
 126:../asf/sam/drivers/twihs/twihs.c **** 
 127:../asf/sam/drivers/twihs/twihs.c **** 	/* Disable TWIHS interrupts */
 128:../asf/sam/drivers/twihs/twihs.c **** 	p_twihs->TWIHS_IDR = ~0UL;
 129:../asf/sam/drivers/twihs/twihs.c **** 
 130:../asf/sam/drivers/twihs/twihs.c **** 	/* Dummy read in status register */
 131:../asf/sam/drivers/twihs/twihs.c **** 	p_twihs->TWIHS_SR;
 132:../asf/sam/drivers/twihs/twihs.c **** 
 133:../asf/sam/drivers/twihs/twihs.c **** 	/* Reset TWIHS peripheral */
 134:../asf/sam/drivers/twihs/twihs.c **** 	twihs_reset(p_twihs);
 135:../asf/sam/drivers/twihs/twihs.c **** 
 136:../asf/sam/drivers/twihs/twihs.c **** 	twihs_enable_master_mode(p_twihs);
 137:../asf/sam/drivers/twihs/twihs.c **** 
 138:../asf/sam/drivers/twihs/twihs.c **** 	/* Select the speed */
 139:../asf/sam/drivers/twihs/twihs.c **** 	if (twihs_set_speed(p_twihs, p_opt->speed, p_opt->master_clk) == FAIL) {
 140:../asf/sam/drivers/twihs/twihs.c **** 		/* The desired speed setting is rejected */
 141:../asf/sam/drivers/twihs/twihs.c **** 		status = TWIHS_INVALID_ARGUMENT;
 142:../asf/sam/drivers/twihs/twihs.c **** 	}
ARM GAS  /tmp/ccsh7mrZ.s 			page 5


 143:../asf/sam/drivers/twihs/twihs.c **** 
 144:../asf/sam/drivers/twihs/twihs.c **** 	return status;
 145:../asf/sam/drivers/twihs/twihs.c **** }
 146:../asf/sam/drivers/twihs/twihs.c **** 
 147:../asf/sam/drivers/twihs/twihs.c **** /**
 148:../asf/sam/drivers/twihs/twihs.c ****  * \brief Set the I2C bus speed in conjunction with the clock frequency.
 149:../asf/sam/drivers/twihs/twihs.c ****  *
 150:../asf/sam/drivers/twihs/twihs.c ****  * \param p_twihs Pointer to a TWIHS instance.
 151:../asf/sam/drivers/twihs/twihs.c ****  * \param ul_speed The desired I2C bus speed (in Hz).
 152:../asf/sam/drivers/twihs/twihs.c ****  * \param ul_mck Main clock of the device (in Hz).
 153:../asf/sam/drivers/twihs/twihs.c ****  *
 154:../asf/sam/drivers/twihs/twihs.c ****  * \retval PASS New speed setting is accepted.
 155:../asf/sam/drivers/twihs/twihs.c ****  * \retval FAIL New speed setting is rejected.
 156:../asf/sam/drivers/twihs/twihs.c ****  */
 157:../asf/sam/drivers/twihs/twihs.c **** uint32_t twihs_set_speed(Twihs *p_twihs, uint32_t ul_speed, uint32_t ul_mck)
 158:../asf/sam/drivers/twihs/twihs.c **** {
  85              		.loc 1 158 0
  86              		.cfi_startproc
  87              		@ args = 0, pretend = 0, frame = 0
  88              		@ frame_needed = 0, uses_anonymous_args = 0
  89              		@ link register save eliminated.
  90              	.LVL2:
 159:../asf/sam/drivers/twihs/twihs.c **** 	uint32_t ckdiv = 0;
 160:../asf/sam/drivers/twihs/twihs.c **** 	uint32_t c_lh_div;
 161:../asf/sam/drivers/twihs/twihs.c **** 	uint32_t cldiv, chdiv;
 162:../asf/sam/drivers/twihs/twihs.c **** 
 163:../asf/sam/drivers/twihs/twihs.c **** 	/* High-Speed can be only used in slave mode, 400k is the max speed allowed for master */
 164:../asf/sam/drivers/twihs/twihs.c **** 	if (ul_speed > I2C_FAST_MODE_SPEED) {
  91              		.loc 1 164 0
  92 0000 2C4B     		ldr	r3, .L42
  93 0002 9942     		cmp	r1, r3
 158:../asf/sam/drivers/twihs/twihs.c **** 	uint32_t ckdiv = 0;
  94              		.loc 1 158 0
  95 0004 30B4     		push	{r4, r5}
  96              		.cfi_def_cfa_offset 8
  97              		.cfi_offset 4, -8
  98              		.cfi_offset 5, -4
  99              		.loc 1 164 0
 100 0006 4DD8     		bhi	.L15
 165:../asf/sam/drivers/twihs/twihs.c **** 		return FAIL;
 166:../asf/sam/drivers/twihs/twihs.c **** 	}
 167:../asf/sam/drivers/twihs/twihs.c **** 
 168:../asf/sam/drivers/twihs/twihs.c **** 	/* Low level time not less than 1.3us of I2C Fast Mode. */
 169:../asf/sam/drivers/twihs/twihs.c **** 	if (ul_speed > LOW_LEVEL_TIME_LIMIT) {
 101              		.loc 1 169 0
 102 0008 A3F57A53 		sub	r3, r3, #16000
 103 000c 9942     		cmp	r1, r3
 104 000e 2ED9     		bls	.L5
 105              	.LVL3:
 106              	.LBB18:
 107              	.LBB19:
 170:../asf/sam/drivers/twihs/twihs.c **** 		/* Low level of time fixed for 1.3us. */
 171:../asf/sam/drivers/twihs/twihs.c **** 		cldiv = ul_mck / (LOW_LEVEL_TIME_LIMIT * TWIHS_CLK_DIVIDER) - TWIHS_CLK_CALC_ARGU;
 172:../asf/sam/drivers/twihs/twihs.c **** 		chdiv = ul_mck / ((ul_speed + (ul_speed - LOW_LEVEL_TIME_LIMIT)) * TWIHS_CLK_DIVIDER) - TWIHS_CLK
 108              		.loc 1 172 0
 109 0010 294B     		ldr	r3, .L42+4
 171:../asf/sam/drivers/twihs/twihs.c **** 		chdiv = ul_mck / ((ul_speed + (ul_speed - LOW_LEVEL_TIME_LIMIT)) * TWIHS_CLK_DIVIDER) - TWIHS_CLK
ARM GAS  /tmp/ccsh7mrZ.s 			page 6


 110              		.loc 1 171 0
 111 0012 2A4C     		ldr	r4, .L42+8
 112              		.loc 1 172 0
 113 0014 0B44     		add	r3, r3, r1
 171:../asf/sam/drivers/twihs/twihs.c **** 		chdiv = ul_mck / ((ul_speed + (ul_speed - LOW_LEVEL_TIME_LIMIT)) * TWIHS_CLK_DIVIDER) - TWIHS_CLK
 114              		.loc 1 171 0
 115 0016 A4FB0214 		umull	r1, r4, r4, r2
 116              	.LVL4:
 117              		.loc 1 172 0
 118 001a 9B00     		lsls	r3, r3, #2
 171:../asf/sam/drivers/twihs/twihs.c **** 		chdiv = ul_mck / ((ul_speed + (ul_speed - LOW_LEVEL_TIME_LIMIT)) * TWIHS_CLK_DIVIDER) - TWIHS_CLK
 119              		.loc 1 171 0
 120 001c A40B     		lsrs	r4, r4, #14
 121              		.loc 1 172 0
 122 001e B2FBF3F2 		udiv	r2, r2, r3
 123              	.LVL5:
 171:../asf/sam/drivers/twihs/twihs.c **** 		chdiv = ul_mck / ((ul_speed + (ul_speed - LOW_LEVEL_TIME_LIMIT)) * TWIHS_CLK_DIVIDER) - TWIHS_CLK
 124              		.loc 1 171 0
 125 0022 033C     		subs	r4, r4, #3
 126              	.LVL6:
 127              		.loc 1 172 0
 128 0024 033A     		subs	r2, r2, #3
 129              	.LVL7:
 173:../asf/sam/drivers/twihs/twihs.c **** 		
 174:../asf/sam/drivers/twihs/twihs.c **** 		/* cldiv must fit in 8 bits, ckdiv must fit in 3 bits */
 175:../asf/sam/drivers/twihs/twihs.c **** 		while ((cldiv > TWIHS_CLK_DIV_MAX) && (ckdiv < TWIHS_CLK_DIV_MIN)) {
 130              		.loc 1 175 0
 131 0026 FF2C     		cmp	r4, #255
 132 0028 40D9     		bls	.L16
 133 002a 0021     		movs	r1, #0
 134 002c 00E0     		b	.L7
 135              	.LVL8:
 136              	.L39:
 137 002e 3BB1     		cbz	r3, .L6
 138              	.LVL9:
 139              	.L7:
 176:../asf/sam/drivers/twihs/twihs.c **** 			/* Increase clock divider */
 177:../asf/sam/drivers/twihs/twihs.c **** 			ckdiv++;
 140              		.loc 1 177 0
 141 0030 0131     		adds	r1, r1, #1
 142              	.LVL10:
 178:../asf/sam/drivers/twihs/twihs.c **** 			/* Divide cldiv value */
 179:../asf/sam/drivers/twihs/twihs.c **** 			cldiv /= TWIHS_CLK_DIVIDER;
 143              		.loc 1 179 0
 144 0032 6408     		lsrs	r4, r4, #1
 145              	.LVL11:
 175:../asf/sam/drivers/twihs/twihs.c **** 			/* Increase clock divider */
 146              		.loc 1 175 0
 147 0034 0629     		cmp	r1, #6
 148 0036 8CBF     		ite	hi
 149 0038 0023     		movhi	r3, #0
 150 003a 0123     		movls	r3, #1
 151 003c FF2C     		cmp	r4, #255
 152 003e F6D8     		bhi	.L39
 153              	.LVL12:
 154              	.L6:
 180:../asf/sam/drivers/twihs/twihs.c **** 		}
ARM GAS  /tmp/ccsh7mrZ.s 			page 7


 181:../asf/sam/drivers/twihs/twihs.c **** 		/* chdiv must fit in 8 bits, ckdiv must fit in 3 bits */
 182:../asf/sam/drivers/twihs/twihs.c **** 		while ((chdiv > TWIHS_CLK_DIV_MAX) && (ckdiv < TWIHS_CLK_DIV_MIN)) {
 155              		.loc 1 182 0
 156 0040 FF2A     		cmp	r2, #255
 157 0042 07D9     		bls	.L9
 158 0044 13B9     		cbnz	r3, .L10
 159 0046 05E0     		b	.L9
 160              	.L40:
 161 0048 0629     		cmp	r1, #6
 162 004a 03D8     		bhi	.L9
 163              	.L10:
 183:../asf/sam/drivers/twihs/twihs.c **** 			/* Increase clock divider */
 184:../asf/sam/drivers/twihs/twihs.c **** 			ckdiv++;
 185:../asf/sam/drivers/twihs/twihs.c **** 			/* Divide cldiv value */
 186:../asf/sam/drivers/twihs/twihs.c **** 			chdiv /= TWIHS_CLK_DIVIDER;
 164              		.loc 1 186 0
 165 004c 5208     		lsrs	r2, r2, #1
 166              	.LVL13:
 184:../asf/sam/drivers/twihs/twihs.c **** 			/* Divide cldiv value */
 167              		.loc 1 184 0
 168 004e 0131     		adds	r1, r1, #1
 169              	.LVL14:
 182:../asf/sam/drivers/twihs/twihs.c **** 			/* Increase clock divider */
 170              		.loc 1 182 0
 171 0050 FF2A     		cmp	r2, #255
 172 0052 F9D8     		bhi	.L40
 173              	.L9:
 187:../asf/sam/drivers/twihs/twihs.c **** 		}
 188:../asf/sam/drivers/twihs/twihs.c **** 
 189:../asf/sam/drivers/twihs/twihs.c **** 		/* set clock waveform generator register */
 190:../asf/sam/drivers/twihs/twihs.c **** 		p_twihs->TWIHS_CWGR =
 191:../asf/sam/drivers/twihs/twihs.c **** 				TWIHS_CWGR_CLDIV(cldiv) | TWIHS_CWGR_CHDIV(chdiv) |
 174              		.loc 1 191 0
 175 0054 1302     		lsls	r3, r2, #8
 190:../asf/sam/drivers/twihs/twihs.c **** 				TWIHS_CWGR_CLDIV(cldiv) | TWIHS_CWGR_CHDIV(chdiv) |
 176              		.loc 1 190 0
 177 0056 0025     		movs	r5, #0
 192:../asf/sam/drivers/twihs/twihs.c **** 				TWIHS_CWGR_CKDIV(ckdiv);
 178              		.loc 1 192 0
 179 0058 0904     		lsls	r1, r1, #16
 180              	.LVL15:
 191:../asf/sam/drivers/twihs/twihs.c **** 				TWIHS_CWGR_CKDIV(ckdiv);
 181              		.loc 1 191 0
 182 005a 9BB2     		uxth	r3, r3
 183              		.loc 1 192 0
 184 005c 01F4E021 		and	r1, r1, #458752
 191:../asf/sam/drivers/twihs/twihs.c **** 				TWIHS_CWGR_CKDIV(ckdiv);
 185              		.loc 1 191 0
 186 0060 E4B2     		uxtb	r4, r4
 187              	.LVL16:
 188 0062 0B43     		orrs	r3, r3, r1
 189 0064 2343     		orrs	r3, r3, r4
 190:../asf/sam/drivers/twihs/twihs.c **** 				TWIHS_CWGR_CLDIV(cldiv) | TWIHS_CWGR_CHDIV(chdiv) |
 190              		.loc 1 190 0
 191 0066 0361     		str	r3, [r0, #16]
 192              	.LVL17:
 193              	.LBE19:
ARM GAS  /tmp/ccsh7mrZ.s 			page 8


 194              	.LBE18:
 193:../asf/sam/drivers/twihs/twihs.c **** 	} else {
 194:../asf/sam/drivers/twihs/twihs.c **** 		c_lh_div = ul_mck / (ul_speed * TWIHS_CLK_DIVIDER) - TWIHS_CLK_CALC_ARGU;
 195:../asf/sam/drivers/twihs/twihs.c **** 
 196:../asf/sam/drivers/twihs/twihs.c **** 		/* cldiv must fit in 8 bits, ckdiv must fit in 3 bits */
 197:../asf/sam/drivers/twihs/twihs.c **** 		while ((c_lh_div > TWIHS_CLK_DIV_MAX) && (ckdiv < TWIHS_CLK_DIV_MIN)) {
 198:../asf/sam/drivers/twihs/twihs.c **** 			/* Increase clock divider */
 199:../asf/sam/drivers/twihs/twihs.c **** 			ckdiv++;
 200:../asf/sam/drivers/twihs/twihs.c **** 			/* Divide cldiv value */
 201:../asf/sam/drivers/twihs/twihs.c **** 			c_lh_div /= TWIHS_CLK_DIVIDER;
 202:../asf/sam/drivers/twihs/twihs.c **** 		}
 203:../asf/sam/drivers/twihs/twihs.c **** 
 204:../asf/sam/drivers/twihs/twihs.c **** 		/* set clock waveform generator register */
 205:../asf/sam/drivers/twihs/twihs.c **** 		p_twihs->TWIHS_CWGR =
 206:../asf/sam/drivers/twihs/twihs.c **** 				TWIHS_CWGR_CLDIV(c_lh_div) | TWIHS_CWGR_CHDIV(c_lh_div) |
 207:../asf/sam/drivers/twihs/twihs.c **** 				TWIHS_CWGR_CKDIV(ckdiv);
 208:../asf/sam/drivers/twihs/twihs.c **** 	}
 209:../asf/sam/drivers/twihs/twihs.c **** 
 210:../asf/sam/drivers/twihs/twihs.c **** 	return PASS;
 211:../asf/sam/drivers/twihs/twihs.c **** }
 195              		.loc 1 211 0
 196 0068 2846     		mov	r0, r5
 197              	.LVL18:
 198 006a 30BC     		pop	{r4, r5}
 199              		.cfi_remember_state
 200              		.cfi_restore 5
 201              		.cfi_restore 4
 202              		.cfi_def_cfa_offset 0
 203 006c 7047     		bx	lr
 204              	.LVL19:
 205              	.L5:
 206              		.cfi_restore_state
 194:../asf/sam/drivers/twihs/twihs.c **** 
 207              		.loc 1 194 0
 208 006e 4900     		lsls	r1, r1, #1
 209              	.LVL20:
 197:../asf/sam/drivers/twihs/twihs.c **** 			/* Increase clock divider */
 210              		.loc 1 197 0
 211 0070 0023     		movs	r3, #0
 194:../asf/sam/drivers/twihs/twihs.c **** 
 212              		.loc 1 194 0
 213 0072 B2FBF1F2 		udiv	r2, r2, r1
 214              	.LVL21:
 215 0076 033A     		subs	r2, r2, #3
 216              	.LVL22:
 197:../asf/sam/drivers/twihs/twihs.c **** 			/* Increase clock divider */
 217              		.loc 1 197 0
 218 0078 FF2A     		cmp	r2, #255
 219 007a 02D8     		bhi	.L13
 220 007c 08E0     		b	.L12
 221              	.LVL23:
 222              	.L41:
 223 007e 062B     		cmp	r3, #6
 224 0080 03D8     		bhi	.L18
 225              	.LVL24:
 226              	.L13:
 201:../asf/sam/drivers/twihs/twihs.c **** 		}
ARM GAS  /tmp/ccsh7mrZ.s 			page 9


 227              		.loc 1 201 0
 228 0082 5208     		lsrs	r2, r2, #1
 229              	.LVL25:
 199:../asf/sam/drivers/twihs/twihs.c **** 			/* Divide cldiv value */
 230              		.loc 1 199 0
 231 0084 0133     		adds	r3, r3, #1
 232              	.LVL26:
 197:../asf/sam/drivers/twihs/twihs.c **** 			/* Increase clock divider */
 233              		.loc 1 197 0
 234 0086 FF2A     		cmp	r2, #255
 235 0088 F9D8     		bhi	.L41
 236              	.L18:
 237 008a 1B04     		lsls	r3, r3, #16
 238              	.LVL27:
 239 008c 03F4E023 		and	r3, r3, #458752
 240              	.L12:
 206:../asf/sam/drivers/twihs/twihs.c **** 				TWIHS_CWGR_CKDIV(ckdiv);
 241              		.loc 1 206 0
 242 0090 1102     		lsls	r1, r2, #8
 210:../asf/sam/drivers/twihs/twihs.c **** }
 243              		.loc 1 210 0
 244 0092 0025     		movs	r5, #0
 206:../asf/sam/drivers/twihs/twihs.c **** 				TWIHS_CWGR_CKDIV(ckdiv);
 245              		.loc 1 206 0
 246 0094 D2B2     		uxtb	r2, r2
 247              	.LVL28:
 248 0096 89B2     		uxth	r1, r1
 249 0098 1A43     		orrs	r2, r2, r3
 250 009a 0A43     		orrs	r2, r2, r1
 205:../asf/sam/drivers/twihs/twihs.c **** 				TWIHS_CWGR_CLDIV(c_lh_div) | TWIHS_CWGR_CHDIV(c_lh_div) |
 251              		.loc 1 205 0
 252 009c 0261     		str	r2, [r0, #16]
 253              		.loc 1 211 0
 254 009e 2846     		mov	r0, r5
 255              	.LVL29:
 256 00a0 30BC     		pop	{r4, r5}
 257              		.cfi_remember_state
 258              		.cfi_restore 4
 259              		.cfi_restore 5
 260              		.cfi_def_cfa_offset 0
 261 00a2 7047     		bx	lr
 262              	.LVL30:
 263              	.L15:
 264              		.cfi_restore_state
 165:../asf/sam/drivers/twihs/twihs.c **** 	}
 265              		.loc 1 165 0
 266 00a4 0125     		movs	r5, #1
 267              		.loc 1 211 0
 268 00a6 2846     		mov	r0, r5
 269              	.LVL31:
 270 00a8 30BC     		pop	{r4, r5}
 271              		.cfi_remember_state
 272              		.cfi_restore 4
 273              		.cfi_restore 5
 274              		.cfi_def_cfa_offset 0
 275 00aa 7047     		bx	lr
 276              	.LVL32:
ARM GAS  /tmp/ccsh7mrZ.s 			page 10


 277              	.L16:
 278              		.cfi_restore_state
 279              	.LBB21:
 280              	.LBB20:
 175:../asf/sam/drivers/twihs/twihs.c **** 			/* Increase clock divider */
 281              		.loc 1 175 0
 282 00ac 0123     		movs	r3, #1
 159:../asf/sam/drivers/twihs/twihs.c **** 	uint32_t c_lh_div;
 283              		.loc 1 159 0
 284 00ae 0021     		movs	r1, #0
 285 00b0 C6E7     		b	.L6
 286              	.L43:
 287 00b2 00BF     		.align	2
 288              	.L42:
 289 00b4 801A0600 		.word	400000
 290 00b8 0012FD3F 		.word	1073549824
 291 00bc F1197605 		.word	91625969
 292              	.LBE20:
 293              	.LBE21:
 294              		.cfi_endproc
 295              	.LFE170:
 296              		.size	twihs_set_speed, .-twihs_set_speed
 297              		.section	.text.twihs_master_init,"ax",%progbits
 298              		.align	1
 299              		.p2align 2,,3
 300              		.global	twihs_master_init
 301              		.syntax unified
 302              		.thumb
 303              		.thumb_func
 304              		.fpu fpv5-d16
 305              		.type	twihs_master_init, %function
 306              	twihs_master_init:
 307              	.LFB169:
 124:../asf/sam/drivers/twihs/twihs.c **** 	uint32_t status = TWIHS_SUCCESS;
 308              		.loc 1 124 0
 309              		.cfi_startproc
 310              		@ args = 0, pretend = 0, frame = 0
 311              		@ frame_needed = 0, uses_anonymous_args = 0
 312              	.LVL33:
 313 0000 F8B5     		push	{r3, r4, r5, r6, r7, lr}
 314              		.cfi_def_cfa_offset 24
 315              		.cfi_offset 3, -24
 316              		.cfi_offset 4, -20
 317              		.cfi_offset 5, -16
 318              		.cfi_offset 6, -12
 319              		.cfi_offset 7, -8
 320              		.cfi_offset 14, -4
 321              	.LBB22:
 322              	.LBB23:
 212:../asf/sam/drivers/twihs/twihs.c **** 
 213:../asf/sam/drivers/twihs/twihs.c **** /**
 214:../asf/sam/drivers/twihs/twihs.c ****  * \brief Test if a chip answers a given I2C address.
 215:../asf/sam/drivers/twihs/twihs.c ****  *
 216:../asf/sam/drivers/twihs/twihs.c ****  * \param p_twihs Pointer to a TWIHS instance.
 217:../asf/sam/drivers/twihs/twihs.c ****  * \param uc_slave_addr Address of the remote chip to search for.
 218:../asf/sam/drivers/twihs/twihs.c ****  *
 219:../asf/sam/drivers/twihs/twihs.c ****  * \return TWIHS_SUCCESS if a chip was found, error code otherwise.
ARM GAS  /tmp/ccsh7mrZ.s 			page 11


 220:../asf/sam/drivers/twihs/twihs.c ****  */
 221:../asf/sam/drivers/twihs/twihs.c **** uint32_t twihs_probe(Twihs *p_twihs, uint8_t uc_slave_addr)
 222:../asf/sam/drivers/twihs/twihs.c **** {
 223:../asf/sam/drivers/twihs/twihs.c **** 	twihs_packet_t packet;
 224:../asf/sam/drivers/twihs/twihs.c **** 	uint8_t data = 0;
 225:../asf/sam/drivers/twihs/twihs.c **** 
 226:../asf/sam/drivers/twihs/twihs.c **** 	/* Data to send */
 227:../asf/sam/drivers/twihs/twihs.c **** 	packet.buffer = &data;
 228:../asf/sam/drivers/twihs/twihs.c **** 	/* Data length */
 229:../asf/sam/drivers/twihs/twihs.c **** 	packet.length = 1;
 230:../asf/sam/drivers/twihs/twihs.c **** 	/* Slave chip address */
 231:../asf/sam/drivers/twihs/twihs.c **** 	packet.chip = (uint32_t) uc_slave_addr;
 232:../asf/sam/drivers/twihs/twihs.c **** 	/* Internal chip address */
 233:../asf/sam/drivers/twihs/twihs.c **** 	packet.addr[0] = 0;
 234:../asf/sam/drivers/twihs/twihs.c **** 	/* Address length */
 235:../asf/sam/drivers/twihs/twihs.c **** 	packet.addr_length = 0;
 236:../asf/sam/drivers/twihs/twihs.c **** 
 237:../asf/sam/drivers/twihs/twihs.c **** 	/* Perform a master write access */
 238:../asf/sam/drivers/twihs/twihs.c **** 	return (twihs_master_write(p_twihs, &packet));
 239:../asf/sam/drivers/twihs/twihs.c **** }
 240:../asf/sam/drivers/twihs/twihs.c **** 
 241:../asf/sam/drivers/twihs/twihs.c **** 
 242:../asf/sam/drivers/twihs/twihs.c **** /**
 243:../asf/sam/drivers/twihs/twihs.c ****  * \internal
 244:../asf/sam/drivers/twihs/twihs.c ****  * \brief Construct the TWIHS module address register field
 245:../asf/sam/drivers/twihs/twihs.c ****  *
 246:../asf/sam/drivers/twihs/twihs.c ****  * The TWIHS module address register is sent out MSB first. And the size controls
 247:../asf/sam/drivers/twihs/twihs.c ****  * which byte is the MSB to start with.
 248:../asf/sam/drivers/twihs/twihs.c ****  *
 249:../asf/sam/drivers/twihs/twihs.c ****  * Please see the device datasheet for details on this.
 250:../asf/sam/drivers/twihs/twihs.c ****  */
 251:../asf/sam/drivers/twihs/twihs.c **** static uint32_t twihs_mk_addr(const uint8_t *addr, int len)
 252:../asf/sam/drivers/twihs/twihs.c **** {
 253:../asf/sam/drivers/twihs/twihs.c **** 	uint32_t val;
 254:../asf/sam/drivers/twihs/twihs.c **** 
 255:../asf/sam/drivers/twihs/twihs.c **** 	if (len == 0)
 256:../asf/sam/drivers/twihs/twihs.c **** 		return 0;
 257:../asf/sam/drivers/twihs/twihs.c **** 
 258:../asf/sam/drivers/twihs/twihs.c **** 	val = addr[0];
 259:../asf/sam/drivers/twihs/twihs.c **** 	if (len > 1) {
 260:../asf/sam/drivers/twihs/twihs.c **** 		val <<= 8;
 261:../asf/sam/drivers/twihs/twihs.c **** 		val |= addr[1];
 262:../asf/sam/drivers/twihs/twihs.c **** 	}
 263:../asf/sam/drivers/twihs/twihs.c **** 	if (len > 2) {
 264:../asf/sam/drivers/twihs/twihs.c **** 		val <<= 8;
 265:../asf/sam/drivers/twihs/twihs.c **** 		val |= addr[2];
 266:../asf/sam/drivers/twihs/twihs.c **** 	}
 267:../asf/sam/drivers/twihs/twihs.c **** 	return val;
 268:../asf/sam/drivers/twihs/twihs.c **** }
 269:../asf/sam/drivers/twihs/twihs.c **** 
 270:../asf/sam/drivers/twihs/twihs.c **** /**
 271:../asf/sam/drivers/twihs/twihs.c ****  * \brief Read multiple bytes from a TWIHS compatible slave device.
 272:../asf/sam/drivers/twihs/twihs.c ****  *
 273:../asf/sam/drivers/twihs/twihs.c ****  * \note This function will NOT return until all data has been read or error occurs.
 274:../asf/sam/drivers/twihs/twihs.c ****  *
 275:../asf/sam/drivers/twihs/twihs.c ****  * \param p_twihs Pointer to a TWIHS instance.
 276:../asf/sam/drivers/twihs/twihs.c ****  * \param p_packet Packet information and data (see \ref twihs_packet_t).
ARM GAS  /tmp/ccsh7mrZ.s 			page 12


 277:../asf/sam/drivers/twihs/twihs.c ****  *
 278:../asf/sam/drivers/twihs/twihs.c ****  * \return TWIHS_SUCCESS if all bytes were read, error code otherwise.
 279:../asf/sam/drivers/twihs/twihs.c ****  */
 280:../asf/sam/drivers/twihs/twihs.c **** uint32_t twihs_master_read(Twihs *p_twihs, twihs_packet_t *p_packet)
 281:../asf/sam/drivers/twihs/twihs.c **** {
 282:../asf/sam/drivers/twihs/twihs.c **** 	uint32_t status, cnt = p_packet->length;
 283:../asf/sam/drivers/twihs/twihs.c **** 	uint8_t *buffer = p_packet->buffer;
 284:../asf/sam/drivers/twihs/twihs.c **** 	uint32_t timeout = TWIHS_TIMEOUT;
 285:../asf/sam/drivers/twihs/twihs.c **** 
 286:../asf/sam/drivers/twihs/twihs.c **** 	/* Check argument */
 287:../asf/sam/drivers/twihs/twihs.c **** 	if (cnt == 0) {
 288:../asf/sam/drivers/twihs/twihs.c **** 		return TWIHS_INVALID_ARGUMENT;
 289:../asf/sam/drivers/twihs/twihs.c **** 	}
 290:../asf/sam/drivers/twihs/twihs.c **** 
 291:../asf/sam/drivers/twihs/twihs.c **** 	/* Set read mode, slave address and 3 internal address byte lengths */
 292:../asf/sam/drivers/twihs/twihs.c **** 	p_twihs->TWIHS_MMR = 0;
 293:../asf/sam/drivers/twihs/twihs.c **** 	p_twihs->TWIHS_MMR = TWIHS_MMR_MREAD | TWIHS_MMR_DADR(p_packet->chip) |
 294:../asf/sam/drivers/twihs/twihs.c **** 			((p_packet->addr_length << TWIHS_MMR_IADRSZ_Pos) &
 295:../asf/sam/drivers/twihs/twihs.c **** 			TWIHS_MMR_IADRSZ_Msk);
 296:../asf/sam/drivers/twihs/twihs.c **** 
 297:../asf/sam/drivers/twihs/twihs.c **** 	/* Set internal address for remote chip */
 298:../asf/sam/drivers/twihs/twihs.c **** 	p_twihs->TWIHS_IADR = 0;
 299:../asf/sam/drivers/twihs/twihs.c **** 	p_twihs->TWIHS_IADR = twihs_mk_addr(p_packet->addr, p_packet->addr_length);
 300:../asf/sam/drivers/twihs/twihs.c **** 
 301:../asf/sam/drivers/twihs/twihs.c **** 	/* Send a START Condition */
 302:../asf/sam/drivers/twihs/twihs.c **** 	p_twihs->TWIHS_CR = TWIHS_CR_START;
 303:../asf/sam/drivers/twihs/twihs.c **** 
 304:../asf/sam/drivers/twihs/twihs.c **** 	while (cnt > 0) {
 305:../asf/sam/drivers/twihs/twihs.c **** 		status = p_twihs->TWIHS_SR;
 306:../asf/sam/drivers/twihs/twihs.c **** 		if (status & TWIHS_SR_NACK) {
 307:../asf/sam/drivers/twihs/twihs.c **** 			return TWIHS_RECEIVE_NACK;
 308:../asf/sam/drivers/twihs/twihs.c **** 		}
 309:../asf/sam/drivers/twihs/twihs.c **** 		if (!timeout--) {
 310:../asf/sam/drivers/twihs/twihs.c **** 			return TWIHS_ERROR_TIMEOUT;
 311:../asf/sam/drivers/twihs/twihs.c **** 		}
 312:../asf/sam/drivers/twihs/twihs.c **** 		/* Last byte ? */
 313:../asf/sam/drivers/twihs/twihs.c **** 		if (cnt == 1) {
 314:../asf/sam/drivers/twihs/twihs.c **** 			p_twihs->TWIHS_CR = TWIHS_CR_STOP;
 315:../asf/sam/drivers/twihs/twihs.c **** 		}
 316:../asf/sam/drivers/twihs/twihs.c **** 
 317:../asf/sam/drivers/twihs/twihs.c **** 		if (!(status & TWIHS_SR_RXRDY)) {
 318:../asf/sam/drivers/twihs/twihs.c **** 			continue;
 319:../asf/sam/drivers/twihs/twihs.c **** 		}
 320:../asf/sam/drivers/twihs/twihs.c **** 		*buffer++ = p_twihs->TWIHS_RHR;
 321:../asf/sam/drivers/twihs/twihs.c **** 
 322:../asf/sam/drivers/twihs/twihs.c **** 		cnt--;
 323:../asf/sam/drivers/twihs/twihs.c **** 		timeout = TWIHS_TIMEOUT;
 324:../asf/sam/drivers/twihs/twihs.c **** 	}
 325:../asf/sam/drivers/twihs/twihs.c **** 
 326:../asf/sam/drivers/twihs/twihs.c **** 	while (!(p_twihs->TWIHS_SR & TWIHS_SR_TXCOMP)) {
 327:../asf/sam/drivers/twihs/twihs.c **** 	}
 328:../asf/sam/drivers/twihs/twihs.c **** 
 329:../asf/sam/drivers/twihs/twihs.c **** 	p_twihs->TWIHS_SR;
 330:../asf/sam/drivers/twihs/twihs.c **** 
 331:../asf/sam/drivers/twihs/twihs.c **** 	return TWIHS_SUCCESS;
 332:../asf/sam/drivers/twihs/twihs.c **** }
 333:../asf/sam/drivers/twihs/twihs.c **** 
ARM GAS  /tmp/ccsh7mrZ.s 			page 13


 334:../asf/sam/drivers/twihs/twihs.c **** /**
 335:../asf/sam/drivers/twihs/twihs.c ****  * \brief Write multiple bytes to a TWIHS compatible slave device.
 336:../asf/sam/drivers/twihs/twihs.c ****  *
 337:../asf/sam/drivers/twihs/twihs.c ****  * \note This function will NOT return until all data has been written or error occurred.
 338:../asf/sam/drivers/twihs/twihs.c ****  *
 339:../asf/sam/drivers/twihs/twihs.c ****  * \param p_twihs Pointer to a TWIHS instance.
 340:../asf/sam/drivers/twihs/twihs.c ****  * \param p_packet Packet information and data (see \ref twihs_packet_t).
 341:../asf/sam/drivers/twihs/twihs.c ****  *
 342:../asf/sam/drivers/twihs/twihs.c ****  * \return TWIHS_SUCCESS if all bytes were written, error code otherwise.
 343:../asf/sam/drivers/twihs/twihs.c ****  */
 344:../asf/sam/drivers/twihs/twihs.c **** uint32_t twihs_master_write(Twihs *p_twihs, twihs_packet_t *p_packet)
 345:../asf/sam/drivers/twihs/twihs.c **** {
 346:../asf/sam/drivers/twihs/twihs.c **** 	uint32_t status, cnt = p_packet->length;
 347:../asf/sam/drivers/twihs/twihs.c **** 	uint8_t *buffer = p_packet->buffer;
 348:../asf/sam/drivers/twihs/twihs.c **** 
 349:../asf/sam/drivers/twihs/twihs.c **** 	/* Check argument */
 350:../asf/sam/drivers/twihs/twihs.c **** 	if (cnt == 0) {
 351:../asf/sam/drivers/twihs/twihs.c **** 		return TWIHS_INVALID_ARGUMENT;
 352:../asf/sam/drivers/twihs/twihs.c **** 	}
 353:../asf/sam/drivers/twihs/twihs.c **** 
 354:../asf/sam/drivers/twihs/twihs.c **** 	/* Set write mode, slave address and 3 internal address byte lengths */
 355:../asf/sam/drivers/twihs/twihs.c **** 	p_twihs->TWIHS_MMR = 0;
 356:../asf/sam/drivers/twihs/twihs.c **** 	p_twihs->TWIHS_MMR = TWIHS_MMR_DADR(p_packet->chip) |
 357:../asf/sam/drivers/twihs/twihs.c **** 			((p_packet->addr_length << TWIHS_MMR_IADRSZ_Pos) &
 358:../asf/sam/drivers/twihs/twihs.c **** 			TWIHS_MMR_IADRSZ_Msk);
 359:../asf/sam/drivers/twihs/twihs.c **** 
 360:../asf/sam/drivers/twihs/twihs.c **** 	/* Set internal address for remote chip */
 361:../asf/sam/drivers/twihs/twihs.c **** 	p_twihs->TWIHS_IADR = 0;
 362:../asf/sam/drivers/twihs/twihs.c **** 	p_twihs->TWIHS_IADR = twihs_mk_addr(p_packet->addr, p_packet->addr_length);
 363:../asf/sam/drivers/twihs/twihs.c **** 
 364:../asf/sam/drivers/twihs/twihs.c **** 	/* Send all bytes */
 365:../asf/sam/drivers/twihs/twihs.c **** 	while (cnt > 0) {
 366:../asf/sam/drivers/twihs/twihs.c **** 		status = p_twihs->TWIHS_SR;
 367:../asf/sam/drivers/twihs/twihs.c **** 		if (status & TWIHS_SR_NACK) {
 368:../asf/sam/drivers/twihs/twihs.c **** 			return TWIHS_RECEIVE_NACK;
 369:../asf/sam/drivers/twihs/twihs.c **** 		}
 370:../asf/sam/drivers/twihs/twihs.c **** 
 371:../asf/sam/drivers/twihs/twihs.c **** 		if (!(status & TWIHS_SR_TXRDY)) {
 372:../asf/sam/drivers/twihs/twihs.c **** 			continue;
 373:../asf/sam/drivers/twihs/twihs.c **** 		}
 374:../asf/sam/drivers/twihs/twihs.c **** 		p_twihs->TWIHS_THR = *buffer++;
 375:../asf/sam/drivers/twihs/twihs.c **** 
 376:../asf/sam/drivers/twihs/twihs.c **** 		cnt--;
 377:../asf/sam/drivers/twihs/twihs.c **** 	}
 378:../asf/sam/drivers/twihs/twihs.c **** 
 379:../asf/sam/drivers/twihs/twihs.c **** 	while (1) {
 380:../asf/sam/drivers/twihs/twihs.c **** 		status = p_twihs->TWIHS_SR;
 381:../asf/sam/drivers/twihs/twihs.c **** 		if (status & TWIHS_SR_NACK) {
 382:../asf/sam/drivers/twihs/twihs.c **** 			return TWIHS_RECEIVE_NACK;
 383:../asf/sam/drivers/twihs/twihs.c **** 		}
 384:../asf/sam/drivers/twihs/twihs.c **** 
 385:../asf/sam/drivers/twihs/twihs.c **** 		if (status & TWIHS_SR_TXRDY) {
 386:../asf/sam/drivers/twihs/twihs.c **** 			break;
 387:../asf/sam/drivers/twihs/twihs.c **** 		}
 388:../asf/sam/drivers/twihs/twihs.c **** 	}
 389:../asf/sam/drivers/twihs/twihs.c **** 
 390:../asf/sam/drivers/twihs/twihs.c **** 	p_twihs->TWIHS_CR = TWIHS_CR_STOP;
ARM GAS  /tmp/ccsh7mrZ.s 			page 14


 391:../asf/sam/drivers/twihs/twihs.c **** 
 392:../asf/sam/drivers/twihs/twihs.c **** 	while (!(p_twihs->TWIHS_SR & TWIHS_SR_TXCOMP)) {
 393:../asf/sam/drivers/twihs/twihs.c **** 	}
 394:../asf/sam/drivers/twihs/twihs.c **** 
 395:../asf/sam/drivers/twihs/twihs.c **** 	return TWIHS_SUCCESS;
 396:../asf/sam/drivers/twihs/twihs.c **** }
 397:../asf/sam/drivers/twihs/twihs.c **** 
 398:../asf/sam/drivers/twihs/twihs.c **** /**
 399:../asf/sam/drivers/twihs/twihs.c ****  * \brief Enable TWIHS interrupts.
 400:../asf/sam/drivers/twihs/twihs.c ****  *
 401:../asf/sam/drivers/twihs/twihs.c ****  * \param p_twihs Pointer to a TWIHS instance.
 402:../asf/sam/drivers/twihs/twihs.c ****  * \param ul_sources Interrupts to be enabled.
 403:../asf/sam/drivers/twihs/twihs.c ****  */
 404:../asf/sam/drivers/twihs/twihs.c **** void twihs_enable_interrupt(Twihs *p_twihs, uint32_t ul_sources)
 405:../asf/sam/drivers/twihs/twihs.c **** {
 406:../asf/sam/drivers/twihs/twihs.c **** 	/* Enable the specified interrupts */
 407:../asf/sam/drivers/twihs/twihs.c **** 	p_twihs->TWIHS_IER = ul_sources;
 408:../asf/sam/drivers/twihs/twihs.c **** }
 409:../asf/sam/drivers/twihs/twihs.c **** 
 410:../asf/sam/drivers/twihs/twihs.c **** /**
 411:../asf/sam/drivers/twihs/twihs.c ****  * \brief Disable TWIHS interrupts.
 412:../asf/sam/drivers/twihs/twihs.c ****  *
 413:../asf/sam/drivers/twihs/twihs.c ****  * \param p_twihs Pointer to a TWIHS instance.
 414:../asf/sam/drivers/twihs/twihs.c ****  * \param ul_sources Interrupts to be disabled.
 415:../asf/sam/drivers/twihs/twihs.c ****  */
 416:../asf/sam/drivers/twihs/twihs.c **** void twihs_disable_interrupt(Twihs *p_twihs, uint32_t ul_sources)
 417:../asf/sam/drivers/twihs/twihs.c **** {
 418:../asf/sam/drivers/twihs/twihs.c **** 	/* Disable the specified interrupts */
 419:../asf/sam/drivers/twihs/twihs.c **** 	p_twihs->TWIHS_IDR = ul_sources;
 420:../asf/sam/drivers/twihs/twihs.c **** 	/* Dummy read */
 421:../asf/sam/drivers/twihs/twihs.c **** 	p_twihs->TWIHS_SR;
 422:../asf/sam/drivers/twihs/twihs.c **** }
 423:../asf/sam/drivers/twihs/twihs.c **** 
 424:../asf/sam/drivers/twihs/twihs.c **** /**
 425:../asf/sam/drivers/twihs/twihs.c ****  * \brief Get TWIHS interrupt status.
 426:../asf/sam/drivers/twihs/twihs.c ****  *
 427:../asf/sam/drivers/twihs/twihs.c ****  * \param p_twihs Pointer to a TWIHS instance.
 428:../asf/sam/drivers/twihs/twihs.c ****  *
 429:../asf/sam/drivers/twihs/twihs.c ****  * \retval TWIHS interrupt status.
 430:../asf/sam/drivers/twihs/twihs.c ****  */
 431:../asf/sam/drivers/twihs/twihs.c **** uint32_t twihs_get_interrupt_status(Twihs *p_twihs)
 432:../asf/sam/drivers/twihs/twihs.c **** {
 433:../asf/sam/drivers/twihs/twihs.c **** 	return p_twihs->TWIHS_SR;
 434:../asf/sam/drivers/twihs/twihs.c **** }
 435:../asf/sam/drivers/twihs/twihs.c **** 
 436:../asf/sam/drivers/twihs/twihs.c **** /**
 437:../asf/sam/drivers/twihs/twihs.c ****  * \brief Read TWIHS interrupt mask.
 438:../asf/sam/drivers/twihs/twihs.c ****  *
 439:../asf/sam/drivers/twihs/twihs.c ****  * \param p_twihs Pointer to a TWIHS instance.
 440:../asf/sam/drivers/twihs/twihs.c ****  *
 441:../asf/sam/drivers/twihs/twihs.c ****  * \return The interrupt mask value.
 442:../asf/sam/drivers/twihs/twihs.c ****  */
 443:../asf/sam/drivers/twihs/twihs.c **** uint32_t twihs_get_interrupt_mask(Twihs *p_twihs)
 444:../asf/sam/drivers/twihs/twihs.c **** {
 445:../asf/sam/drivers/twihs/twihs.c **** 	return p_twihs->TWIHS_IMR;
 446:../asf/sam/drivers/twihs/twihs.c **** }
 447:../asf/sam/drivers/twihs/twihs.c **** 
ARM GAS  /tmp/ccsh7mrZ.s 			page 15


 448:../asf/sam/drivers/twihs/twihs.c **** /**
 449:../asf/sam/drivers/twihs/twihs.c ****  * \brief Reads a byte from the TWIHS bus.
 450:../asf/sam/drivers/twihs/twihs.c ****  *
 451:../asf/sam/drivers/twihs/twihs.c ****  * \param p_twihs Pointer to a TWIHS instance.
 452:../asf/sam/drivers/twihs/twihs.c ****  *
 453:../asf/sam/drivers/twihs/twihs.c ****  * \return The byte read.
 454:../asf/sam/drivers/twihs/twihs.c ****  */
 455:../asf/sam/drivers/twihs/twihs.c **** uint8_t twihs_read_byte(Twihs *p_twihs)
 456:../asf/sam/drivers/twihs/twihs.c **** {
 457:../asf/sam/drivers/twihs/twihs.c **** 	return p_twihs->TWIHS_RHR;
 458:../asf/sam/drivers/twihs/twihs.c **** }
 459:../asf/sam/drivers/twihs/twihs.c **** 
 460:../asf/sam/drivers/twihs/twihs.c **** /**
 461:../asf/sam/drivers/twihs/twihs.c ****  * \brief Sends a byte of data to one of the TWIHS slaves on the bus.
 462:../asf/sam/drivers/twihs/twihs.c ****  *
 463:../asf/sam/drivers/twihs/twihs.c ****  * \param p_twihs Pointer to a TWIHS instance.
 464:../asf/sam/drivers/twihs/twihs.c ****  * \param byte The byte to send.
 465:../asf/sam/drivers/twihs/twihs.c ****  */
 466:../asf/sam/drivers/twihs/twihs.c **** void twihs_write_byte(Twihs *p_twihs, uint8_t uc_byte)
 467:../asf/sam/drivers/twihs/twihs.c **** {
 468:../asf/sam/drivers/twihs/twihs.c **** 	p_twihs->TWIHS_THR = uc_byte;
 469:../asf/sam/drivers/twihs/twihs.c **** }
 470:../asf/sam/drivers/twihs/twihs.c **** 
 471:../asf/sam/drivers/twihs/twihs.c **** /**
 472:../asf/sam/drivers/twihs/twihs.c ****  * \brief Enable TWIHS slave mode.
 473:../asf/sam/drivers/twihs/twihs.c ****  *
 474:../asf/sam/drivers/twihs/twihs.c ****  * \param p_twihs Pointer to a TWIHS instance.
 475:../asf/sam/drivers/twihs/twihs.c ****  */
 476:../asf/sam/drivers/twihs/twihs.c **** void twihs_enable_slave_mode(Twihs *p_twihs)
 477:../asf/sam/drivers/twihs/twihs.c **** {
 478:../asf/sam/drivers/twihs/twihs.c **** 	/* Set Master Disable bit and Slave Disable bit */
 479:../asf/sam/drivers/twihs/twihs.c **** 	p_twihs->TWIHS_CR = TWIHS_CR_MSDIS;
 480:../asf/sam/drivers/twihs/twihs.c **** 	p_twihs->TWIHS_CR = TWIHS_CR_SVDIS;
 481:../asf/sam/drivers/twihs/twihs.c **** 
 482:../asf/sam/drivers/twihs/twihs.c **** 	/* Set Slave Enable bit */
 483:../asf/sam/drivers/twihs/twihs.c **** 	p_twihs->TWIHS_CR = TWIHS_CR_SVEN;
 484:../asf/sam/drivers/twihs/twihs.c **** }
 485:../asf/sam/drivers/twihs/twihs.c **** 
 486:../asf/sam/drivers/twihs/twihs.c **** /**
 487:../asf/sam/drivers/twihs/twihs.c ****  * \brief Disable TWIHS slave mode.
 488:../asf/sam/drivers/twihs/twihs.c ****  *
 489:../asf/sam/drivers/twihs/twihs.c ****  * \param p_twihs Pointer to a TWIHS instance.
 490:../asf/sam/drivers/twihs/twihs.c ****  */
 491:../asf/sam/drivers/twihs/twihs.c **** void twihs_disable_slave_mode(Twihs *p_twihs)
 492:../asf/sam/drivers/twihs/twihs.c **** {
 493:../asf/sam/drivers/twihs/twihs.c **** 	/* Set Slave Disable bit */
 494:../asf/sam/drivers/twihs/twihs.c **** 	p_twihs->TWIHS_CR = TWIHS_CR_SVDIS;
 495:../asf/sam/drivers/twihs/twihs.c **** }
 496:../asf/sam/drivers/twihs/twihs.c **** 
 497:../asf/sam/drivers/twihs/twihs.c **** /**
 498:../asf/sam/drivers/twihs/twihs.c ****  * \brief Initialize TWIHS slave mode.
 499:../asf/sam/drivers/twihs/twihs.c ****  *
 500:../asf/sam/drivers/twihs/twihs.c ****  * \param p_twihs Pointer to a TWIHS instance.
 501:../asf/sam/drivers/twihs/twihs.c ****  * \param ul_device_addr Device address of the SAM slave device on the I2C bus.
 502:../asf/sam/drivers/twihs/twihs.c ****  */
 503:../asf/sam/drivers/twihs/twihs.c **** void twihs_slave_init(Twihs *p_twihs, uint32_t ul_device_addr)
 504:../asf/sam/drivers/twihs/twihs.c **** {
ARM GAS  /tmp/ccsh7mrZ.s 			page 16


 505:../asf/sam/drivers/twihs/twihs.c **** 	/* Disable TWIHS interrupts */
 506:../asf/sam/drivers/twihs/twihs.c **** 	p_twihs->TWIHS_IDR = ~0UL;
 507:../asf/sam/drivers/twihs/twihs.c **** 	p_twihs->TWIHS_SR;
 508:../asf/sam/drivers/twihs/twihs.c **** 
 509:../asf/sam/drivers/twihs/twihs.c **** 	/* Reset TWIHS */
 510:../asf/sam/drivers/twihs/twihs.c **** 	twihs_reset(p_twihs);
 511:../asf/sam/drivers/twihs/twihs.c **** 
 512:../asf/sam/drivers/twihs/twihs.c **** 	/* Set slave address in slave mode */
 513:../asf/sam/drivers/twihs/twihs.c **** 	p_twihs->TWIHS_SMR = TWIHS_SMR_SADR(ul_device_addr);
 514:../asf/sam/drivers/twihs/twihs.c **** 
 515:../asf/sam/drivers/twihs/twihs.c **** 	/* Enable slave mode */
 516:../asf/sam/drivers/twihs/twihs.c **** 	twihs_enable_slave_mode(p_twihs);
 517:../asf/sam/drivers/twihs/twihs.c **** }
 518:../asf/sam/drivers/twihs/twihs.c **** 
 519:../asf/sam/drivers/twihs/twihs.c **** /**
 520:../asf/sam/drivers/twihs/twihs.c ****  * \brief Set TWIHS slave address.
 521:../asf/sam/drivers/twihs/twihs.c ****  *
 522:../asf/sam/drivers/twihs/twihs.c ****  * \param p_twihs Pointer to a TWIHS instance.
 523:../asf/sam/drivers/twihs/twihs.c ****  * \param ul_device_addr Device address of the SAM slave device on the I2C bus.
 524:../asf/sam/drivers/twihs/twihs.c ****  */
 525:../asf/sam/drivers/twihs/twihs.c **** void twihs_set_slave_addr(Twihs *p_twihs, uint32_t ul_device_addr)
 526:../asf/sam/drivers/twihs/twihs.c **** {
 527:../asf/sam/drivers/twihs/twihs.c **** 	/* Set slave address */
 528:../asf/sam/drivers/twihs/twihs.c **** 	p_twihs->TWIHS_SMR = TWIHS_SMR_SADR(ul_device_addr);
 529:../asf/sam/drivers/twihs/twihs.c **** }
 530:../asf/sam/drivers/twihs/twihs.c **** 
 531:../asf/sam/drivers/twihs/twihs.c **** /**
 532:../asf/sam/drivers/twihs/twihs.c ****  * \brief Read data from master.
 533:../asf/sam/drivers/twihs/twihs.c ****  *
 534:../asf/sam/drivers/twihs/twihs.c ****  * \note This function will NOT return until master sends a STOP condition.
 535:../asf/sam/drivers/twihs/twihs.c ****  *
 536:../asf/sam/drivers/twihs/twihs.c ****  * \param p_twihs Pointer to a TWIHS instance.
 537:../asf/sam/drivers/twihs/twihs.c ****  * \param p_data Pointer to the data buffer where data received will be stored.
 538:../asf/sam/drivers/twihs/twihs.c ****  *
 539:../asf/sam/drivers/twihs/twihs.c ****  * \return Number of bytes read.
 540:../asf/sam/drivers/twihs/twihs.c ****  */
 541:../asf/sam/drivers/twihs/twihs.c **** uint32_t twihs_slave_read(Twihs *p_twihs, uint8_t *p_data)
 542:../asf/sam/drivers/twihs/twihs.c **** {
 543:../asf/sam/drivers/twihs/twihs.c **** 	uint32_t status, cnt = 0;
 544:../asf/sam/drivers/twihs/twihs.c **** 
 545:../asf/sam/drivers/twihs/twihs.c **** 	do {
 546:../asf/sam/drivers/twihs/twihs.c **** 		status = p_twihs->TWIHS_SR;
 547:../asf/sam/drivers/twihs/twihs.c **** 		if (status & TWIHS_SR_SVACC) {
 548:../asf/sam/drivers/twihs/twihs.c **** 			if (!(status & (TWIHS_SR_GACC | TWIHS_SR_SVREAD)) &&
 549:../asf/sam/drivers/twihs/twihs.c **** 			(status & TWIHS_SR_RXRDY)) {
 550:../asf/sam/drivers/twihs/twihs.c **** 				*p_data++ = (uint8_t) p_twihs->TWIHS_RHR;
 551:../asf/sam/drivers/twihs/twihs.c **** 				cnt++;
 552:../asf/sam/drivers/twihs/twihs.c **** 			}
 553:../asf/sam/drivers/twihs/twihs.c **** 		} else if ((status & (TWIHS_SR_EOSACC | TWIHS_SR_TXCOMP))
 554:../asf/sam/drivers/twihs/twihs.c **** 					== (TWIHS_SR_EOSACC | TWIHS_SR_TXCOMP)) {
 555:../asf/sam/drivers/twihs/twihs.c **** 			break;
 556:../asf/sam/drivers/twihs/twihs.c **** 		}
 557:../asf/sam/drivers/twihs/twihs.c **** 	} while (1);
 558:../asf/sam/drivers/twihs/twihs.c **** 
 559:../asf/sam/drivers/twihs/twihs.c **** 	return cnt;
 560:../asf/sam/drivers/twihs/twihs.c **** }
 561:../asf/sam/drivers/twihs/twihs.c **** 
ARM GAS  /tmp/ccsh7mrZ.s 			page 17


 562:../asf/sam/drivers/twihs/twihs.c **** /**
 563:../asf/sam/drivers/twihs/twihs.c ****  * \brief Write data to TWIHS bus.
 564:../asf/sam/drivers/twihs/twihs.c ****  *
 565:../asf/sam/drivers/twihs/twihs.c ****  * \note This function will NOT return until master sends a STOP condition.
 566:../asf/sam/drivers/twihs/twihs.c ****  *
 567:../asf/sam/drivers/twihs/twihs.c ****  * \param p_twihs Pointer to a TWIHS instance.
 568:../asf/sam/drivers/twihs/twihs.c ****  * \param p_data Pointer to the data buffer to be sent.
 569:../asf/sam/drivers/twihs/twihs.c ****  *
 570:../asf/sam/drivers/twihs/twihs.c ****  * \return Number of bytes written.
 571:../asf/sam/drivers/twihs/twihs.c ****  */
 572:../asf/sam/drivers/twihs/twihs.c **** uint32_t twihs_slave_write(Twihs *p_twihs, uint8_t *p_data)
 573:../asf/sam/drivers/twihs/twihs.c **** {
 574:../asf/sam/drivers/twihs/twihs.c **** 	uint32_t status, cnt = 0;
 575:../asf/sam/drivers/twihs/twihs.c **** 
 576:../asf/sam/drivers/twihs/twihs.c **** 	do {
 577:../asf/sam/drivers/twihs/twihs.c **** 		status = p_twihs->TWIHS_SR;
 578:../asf/sam/drivers/twihs/twihs.c **** 		if (status & TWIHS_SR_SVACC) {
 579:../asf/sam/drivers/twihs/twihs.c **** 			if (!(status & (TWIHS_SR_GACC | TWIHS_SR_NACK)) &&
 580:../asf/sam/drivers/twihs/twihs.c **** 			((status & (TWIHS_SR_SVREAD | TWIHS_SR_TXRDY))
 581:../asf/sam/drivers/twihs/twihs.c **** 			== (TWIHS_SR_SVREAD | TWIHS_SR_TXRDY))) {
 582:../asf/sam/drivers/twihs/twihs.c **** 				p_twihs->TWIHS_THR = *p_data++;
 583:../asf/sam/drivers/twihs/twihs.c **** 				cnt++;
 584:../asf/sam/drivers/twihs/twihs.c **** 			}
 585:../asf/sam/drivers/twihs/twihs.c **** 		} else if ((status & (TWIHS_SR_EOSACC | TWIHS_SR_TXCOMP))
 586:../asf/sam/drivers/twihs/twihs.c **** 					== (TWIHS_SR_EOSACC | TWIHS_SR_TXCOMP)) {
 587:../asf/sam/drivers/twihs/twihs.c **** 			break;
 588:../asf/sam/drivers/twihs/twihs.c **** 		}
 589:../asf/sam/drivers/twihs/twihs.c **** 	} while (1);
 590:../asf/sam/drivers/twihs/twihs.c **** 
 591:../asf/sam/drivers/twihs/twihs.c **** 	return cnt;
 592:../asf/sam/drivers/twihs/twihs.c **** }
 593:../asf/sam/drivers/twihs/twihs.c **** 
 594:../asf/sam/drivers/twihs/twihs.c **** /**
 595:../asf/sam/drivers/twihs/twihs.c ****  * \brief Reset TWIHS.
 596:../asf/sam/drivers/twihs/twihs.c ****  *
 597:../asf/sam/drivers/twihs/twihs.c ****  * \param p_twihs Pointer to a TWIHS instance.
 598:../asf/sam/drivers/twihs/twihs.c ****  */
 599:../asf/sam/drivers/twihs/twihs.c **** void twihs_reset(Twihs *p_twihs)
 600:../asf/sam/drivers/twihs/twihs.c **** {
 601:../asf/sam/drivers/twihs/twihs.c **** 	/* Set SWRST bit to reset TWIHS peripheral */
 602:../asf/sam/drivers/twihs/twihs.c **** 	p_twihs->TWIHS_CR = TWIHS_CR_SWRST;
 323              		.loc 1 602 0
 324 0002 8022     		movs	r2, #128
 325              	.LBE23:
 326              	.LBE22:
 128:../asf/sam/drivers/twihs/twihs.c **** 
 327              		.loc 1 128 0
 328 0004 4FF0FF37 		mov	r7, #-1
 329              	.LBB26:
 330              	.LBB27:
  97:../asf/sam/drivers/twihs/twihs.c **** 	p_twihs->TWIHS_CR = TWIHS_CR_SVDIS;
 331              		.loc 1 97 0
 332 0008 0826     		movs	r6, #8
  98:../asf/sam/drivers/twihs/twihs.c **** 
 333              		.loc 1 98 0
 334 000a 2025     		movs	r5, #32
 101:../asf/sam/drivers/twihs/twihs.c **** }
ARM GAS  /tmp/ccsh7mrZ.s 			page 18


 335              		.loc 1 101 0
 336 000c 0424     		movs	r4, #4
 337              	.LBE27:
 338              	.LBE26:
 128:../asf/sam/drivers/twihs/twihs.c **** 
 339              		.loc 1 128 0
 340 000e 8762     		str	r7, [r0, #40]
 131:../asf/sam/drivers/twihs/twihs.c **** 
 341              		.loc 1 131 0
 342 0010 076A     		ldr	r7, [r0, #32]
 343              	.LVL34:
 344              	.LBB29:
 345              	.LBB24:
 346              		.loc 1 602 0
 347 0012 0260     		str	r2, [r0]
 348              	.LBE24:
 349              	.LBE29:
 139:../asf/sam/drivers/twihs/twihs.c **** 		/* The desired speed setting is rejected */
 350              		.loc 1 139 0
 351 0014 0A68     		ldr	r2, [r1]
 352              	.LBB30:
 353              	.LBB25:
 603:../asf/sam/drivers/twihs/twihs.c **** 	p_twihs->TWIHS_RHR;
 354              		.loc 1 603 0
 355 0016 076B     		ldr	r7, [r0, #48]
 356              	.LVL35:
 357              	.LBE25:
 358              	.LBE30:
 139:../asf/sam/drivers/twihs/twihs.c **** 		/* The desired speed setting is rejected */
 359              		.loc 1 139 0
 360 0018 4968     		ldr	r1, [r1, #4]
 361              	.LVL36:
 362              	.LBB31:
 363              	.LBB28:
  97:../asf/sam/drivers/twihs/twihs.c **** 	p_twihs->TWIHS_CR = TWIHS_CR_SVDIS;
 364              		.loc 1 97 0
 365 001a 0660     		str	r6, [r0]
  98:../asf/sam/drivers/twihs/twihs.c **** 
 366              		.loc 1 98 0
 367 001c 0560     		str	r5, [r0]
 101:../asf/sam/drivers/twihs/twihs.c **** }
 368              		.loc 1 101 0
 369 001e 0460     		str	r4, [r0]
 370              	.LVL37:
 371              	.LBE28:
 372              	.LBE31:
 139:../asf/sam/drivers/twihs/twihs.c **** 		/* The desired speed setting is rejected */
 373              		.loc 1 139 0
 374 0020 FFF7FEFF 		bl	twihs_set_speed
 375              	.LVL38:
 145:../asf/sam/drivers/twihs/twihs.c **** 
 376              		.loc 1 145 0
 377 0024 A0F10100 		sub	r0, #1
 378              	.LVL39:
 379 0028 B0FA80F0 		clz	r0, r0
 380              	.LVL40:
 381 002c 4009     		lsrs	r0, r0, #5
ARM GAS  /tmp/ccsh7mrZ.s 			page 19


 382 002e F8BD     		pop	{r3, r4, r5, r6, r7, pc}
 383              		.cfi_endproc
 384              	.LFE169:
 385              		.size	twihs_master_init, .-twihs_master_init
 386              		.section	.text.twihs_master_read,"ax",%progbits
 387              		.align	1
 388              		.p2align 2,,3
 389              		.global	twihs_master_read
 390              		.syntax unified
 391              		.thumb
 392              		.thumb_func
 393              		.fpu fpv5-d16
 394              		.type	twihs_master_read, %function
 395              	twihs_master_read:
 396              	.LFB173:
 281:../asf/sam/drivers/twihs/twihs.c **** 	uint32_t status, cnt = p_packet->length;
 397              		.loc 1 281 0
 398              		.cfi_startproc
 399              		@ args = 0, pretend = 0, frame = 0
 400              		@ frame_needed = 0, uses_anonymous_args = 0
 401              		@ link register save eliminated.
 402              	.LVL41:
 282:../asf/sam/drivers/twihs/twihs.c **** 	uint8_t *buffer = p_packet->buffer;
 403              		.loc 1 282 0
 404 0000 CA68     		ldr	r2, [r1, #12]
 405              	.LVL42:
 287:../asf/sam/drivers/twihs/twihs.c **** 		return TWIHS_INVALID_ARGUMENT;
 406              		.loc 1 287 0
 407 0002 002A     		cmp	r2, #0
 408 0004 48D0     		beq	.L59
 281:../asf/sam/drivers/twihs/twihs.c **** 	uint32_t status, cnt = p_packet->length;
 409              		.loc 1 281 0
 410 0006 F0B4     		push	{r4, r5, r6, r7}
 411              		.cfi_def_cfa_offset 16
 412              		.cfi_offset 4, -16
 413              		.cfi_offset 5, -12
 414              		.cfi_offset 6, -8
 415              		.cfi_offset 7, -4
 294:../asf/sam/drivers/twihs/twihs.c **** 			TWIHS_MMR_IADRSZ_Msk);
 416              		.loc 1 294 0
 417 0008 4E68     		ldr	r6, [r1, #4]
 292:../asf/sam/drivers/twihs/twihs.c **** 	p_twihs->TWIHS_MMR = TWIHS_MMR_MREAD | TWIHS_MMR_DADR(p_packet->chip) |
 418              		.loc 1 292 0
 419 000a 0027     		movs	r7, #0
 283:../asf/sam/drivers/twihs/twihs.c **** 	uint32_t timeout = TWIHS_TIMEOUT;
 420              		.loc 1 283 0
 421 000c 8C68     		ldr	r4, [r1, #8]
 294:../asf/sam/drivers/twihs/twihs.c **** 			TWIHS_MMR_IADRSZ_Msk);
 422              		.loc 1 294 0
 423 000e 3502     		lsls	r5, r6, #8
 292:../asf/sam/drivers/twihs/twihs.c **** 	p_twihs->TWIHS_MMR = TWIHS_MMR_MREAD | TWIHS_MMR_DADR(p_packet->chip) |
 424              		.loc 1 292 0
 425 0010 4760     		str	r7, [r0, #4]
 293:../asf/sam/drivers/twihs/twihs.c **** 			((p_packet->addr_length << TWIHS_MMR_IADRSZ_Pos) &
 426              		.loc 1 293 0
 427 0012 0B7C     		ldrb	r3, [r1, #16]	@ zero_extendqisi2
 294:../asf/sam/drivers/twihs/twihs.c **** 			TWIHS_MMR_IADRSZ_Msk);
ARM GAS  /tmp/ccsh7mrZ.s 			page 20


 428              		.loc 1 294 0
 429 0014 05F44075 		and	r5, r5, #768
 293:../asf/sam/drivers/twihs/twihs.c **** 			((p_packet->addr_length << TWIHS_MMR_IADRSZ_Pos) &
 430              		.loc 1 293 0
 431 0018 1B04     		lsls	r3, r3, #16
 432 001a 45F48055 		orr	r5, r5, #4096
 433 001e 03F4FE03 		and	r3, r3, #8323072
 434 0022 2B43     		orrs	r3, r3, r5
 435 0024 4360     		str	r3, [r0, #4]
 298:../asf/sam/drivers/twihs/twihs.c **** 	p_twihs->TWIHS_IADR = twihs_mk_addr(p_packet->addr, p_packet->addr_length);
 436              		.loc 1 298 0
 437 0026 C760     		str	r7, [r0, #12]
 438              	.LVL43:
 439              	.LBB36:
 440              	.LBB37:
 255:../asf/sam/drivers/twihs/twihs.c **** 		return 0;
 441              		.loc 1 255 0
 442 0028 BEB9     		cbnz	r6, .L81
 256:../asf/sam/drivers/twihs/twihs.c **** 
 443              		.loc 1 256 0
 444 002a 3346     		mov	r3, r6
 445              	.LVL44:
 446              	.L48:
 447              	.LBE37:
 448              	.LBE36:
 302:../asf/sam/drivers/twihs/twihs.c **** 
 449              		.loc 1 302 0
 450 002c 0121     		movs	r1, #1
 299:../asf/sam/drivers/twihs/twihs.c **** 
 451              		.loc 1 299 0
 452 002e C360     		str	r3, [r0, #12]
 314:../asf/sam/drivers/twihs/twihs.c **** 		}
 453              		.loc 1 314 0
 454 0030 0225     		movs	r5, #2
 302:../asf/sam/drivers/twihs/twihs.c **** 
 455              		.loc 1 302 0
 456 0032 0160     		str	r1, [r0]
 457              	.LVL45:
 305:../asf/sam/drivers/twihs/twihs.c **** 		if (status & TWIHS_SR_NACK) {
 458              		.loc 1 305 0
 459 0034 036A     		ldr	r3, [r0, #32]
 460              	.LVL46:
 306:../asf/sam/drivers/twihs/twihs.c **** 			return TWIHS_RECEIVE_NACK;
 461              		.loc 1 306 0
 462 0036 D905     		lsls	r1, r3, #23
 463 0038 0CD4     		bmi	.L56
 464              	.L83:
 465 003a 47F23051 		movw	r1, #30000
 466              	.LVL47:
 467              	.L51:
 313:../asf/sam/drivers/twihs/twihs.c **** 			p_twihs->TWIHS_CR = TWIHS_CR_STOP;
 468              		.loc 1 313 0
 469 003e 012A     		cmp	r2, #1
 470 0040 1ED0     		beq	.L82
 317:../asf/sam/drivers/twihs/twihs.c **** 			continue;
 471              		.loc 1 317 0
 472 0042 9E07     		lsls	r6, r3, #30
ARM GAS  /tmp/ccsh7mrZ.s 			page 21


 473 0044 15D5     		bpl	.L53
 474              	.LVL48:
 320:../asf/sam/drivers/twihs/twihs.c **** 
 475              		.loc 1 320 0
 476 0046 036B     		ldr	r3, [r0, #48]
 477              	.LVL49:
 322:../asf/sam/drivers/twihs/twihs.c **** 		timeout = TWIHS_TIMEOUT;
 478              		.loc 1 322 0
 479 0048 013A     		subs	r2, r2, #1
 480              	.LVL50:
 320:../asf/sam/drivers/twihs/twihs.c **** 
 481              		.loc 1 320 0
 482 004a 04F8013B 		strb	r3, [r4], #1
 483              	.LVL51:
 305:../asf/sam/drivers/twihs/twihs.c **** 		if (status & TWIHS_SR_NACK) {
 484              		.loc 1 305 0
 485 004e 036A     		ldr	r3, [r0, #32]
 486              	.LVL52:
 306:../asf/sam/drivers/twihs/twihs.c **** 			return TWIHS_RECEIVE_NACK;
 487              		.loc 1 306 0
 488 0050 D905     		lsls	r1, r3, #23
 489 0052 F2D5     		bpl	.L83
 490              	.LVL53:
 491              	.L56:
 307:../asf/sam/drivers/twihs/twihs.c **** 		}
 492              		.loc 1 307 0
 493 0054 0520     		movs	r0, #5
 494              	.LVL54:
 495              	.L46:
 332:../asf/sam/drivers/twihs/twihs.c **** 
 496              		.loc 1 332 0
 497 0056 F0BC     		pop	{r4, r5, r6, r7}
 498              		.cfi_remember_state
 499              		.cfi_restore 7
 500              		.cfi_restore 6
 501              		.cfi_restore 5
 502              		.cfi_restore 4
 503              		.cfi_def_cfa_offset 0
 504 0058 7047     		bx	lr
 505              	.LVL55:
 506              	.L81:
 507              		.cfi_restore_state
 508              	.LBB41:
 509              	.LBB40:
 510              	.LBB38:
 511              	.LBB39:
 259:../asf/sam/drivers/twihs/twihs.c **** 		val <<= 8;
 512              		.loc 1 259 0
 513 005a 012E     		cmp	r6, #1
 258:../asf/sam/drivers/twihs/twihs.c **** 	if (len > 1) {
 514              		.loc 1 258 0
 515 005c 0B78     		ldrb	r3, [r1]	@ zero_extendqisi2
 516              	.LVL56:
 259:../asf/sam/drivers/twihs/twihs.c **** 		val <<= 8;
 517              		.loc 1 259 0
 518 005e E5DD     		ble	.L48
 519              	.LVL57:
ARM GAS  /tmp/ccsh7mrZ.s 			page 22


 261:../asf/sam/drivers/twihs/twihs.c **** 	}
 520              		.loc 1 261 0
 521 0060 4D78     		ldrb	r5, [r1, #1]	@ zero_extendqisi2
 263:../asf/sam/drivers/twihs/twihs.c **** 		val <<= 8;
 522              		.loc 1 263 0
 523 0062 022E     		cmp	r6, #2
 261:../asf/sam/drivers/twihs/twihs.c **** 	}
 524              		.loc 1 261 0
 525 0064 45EA0323 		orr	r3, r5, r3, lsl #8
 526              	.LVL58:
 263:../asf/sam/drivers/twihs/twihs.c **** 		val <<= 8;
 527              		.loc 1 263 0
 528 0068 E0D0     		beq	.L48
 529              	.LVL59:
 265:../asf/sam/drivers/twihs/twihs.c **** 	}
 530              		.loc 1 265 0
 531 006a 8978     		ldrb	r1, [r1, #2]	@ zero_extendqisi2
 532              	.LVL60:
 533 006c 41EA0323 		orr	r3, r1, r3, lsl #8
 534              	.LVL61:
 535 0070 DCE7     		b	.L48
 536              	.LVL62:
 537              	.L53:
 538              	.LBE39:
 539              	.LBE38:
 540              	.LBE40:
 541              	.LBE41:
 305:../asf/sam/drivers/twihs/twihs.c **** 		if (status & TWIHS_SR_NACK) {
 542              		.loc 1 305 0
 543 0072 036A     		ldr	r3, [r0, #32]
 544              	.LVL63:
 306:../asf/sam/drivers/twihs/twihs.c **** 			return TWIHS_RECEIVE_NACK;
 545              		.loc 1 306 0
 546 0074 DE05     		lsls	r6, r3, #23
 547 0076 EDD4     		bmi	.L56
 309:../asf/sam/drivers/twihs/twihs.c **** 			return TWIHS_ERROR_TIMEOUT;
 548              		.loc 1 309 0
 549 0078 0139     		subs	r1, r1, #1
 550              	.LVL64:
 551 007a E0D1     		bne	.L51
 310:../asf/sam/drivers/twihs/twihs.c **** 		}
 552              		.loc 1 310 0
 553 007c 0920     		movs	r0, #9
 554              	.LVL65:
 555 007e EAE7     		b	.L46
 556              	.LVL66:
 557              	.L82:
 317:../asf/sam/drivers/twihs/twihs.c **** 			continue;
 558              		.loc 1 317 0
 559 0080 9F07     		lsls	r7, r3, #30
 314:../asf/sam/drivers/twihs/twihs.c **** 		}
 560              		.loc 1 314 0
 561 0082 0560     		str	r5, [r0]
 317:../asf/sam/drivers/twihs/twihs.c **** 			continue;
 562              		.loc 1 317 0
 563 0084 F5D5     		bpl	.L53
 564              	.LVL67:
ARM GAS  /tmp/ccsh7mrZ.s 			page 23


 320:../asf/sam/drivers/twihs/twihs.c **** 
 565              		.loc 1 320 0
 566 0086 036B     		ldr	r3, [r0, #48]
 567              	.LVL68:
 568 0088 2370     		strb	r3, [r4]
 569              	.LVL69:
 570              	.L58:
 326:../asf/sam/drivers/twihs/twihs.c **** 	}
 571              		.loc 1 326 0 discriminator 1
 572 008a 036A     		ldr	r3, [r0, #32]
 573 008c DB07     		lsls	r3, r3, #31
 574 008e FCD5     		bpl	.L58
 329:../asf/sam/drivers/twihs/twihs.c **** 
 575              		.loc 1 329 0
 576 0090 036A     		ldr	r3, [r0, #32]
 331:../asf/sam/drivers/twihs/twihs.c **** }
 577              		.loc 1 331 0
 578 0092 0020     		movs	r0, #0
 579              	.LVL70:
 332:../asf/sam/drivers/twihs/twihs.c **** 
 580              		.loc 1 332 0
 581 0094 F0BC     		pop	{r4, r5, r6, r7}
 582              		.cfi_restore 4
 583              		.cfi_restore 5
 584              		.cfi_restore 6
 585              		.cfi_restore 7
 586              		.cfi_def_cfa_offset 0
 587              	.LVL71:
 588 0096 7047     		bx	lr
 589              	.LVL72:
 590              	.L59:
 288:../asf/sam/drivers/twihs/twihs.c **** 	}
 591              		.loc 1 288 0
 592 0098 0120     		movs	r0, #1
 593              	.LVL73:
 594 009a 7047     		bx	lr
 595              		.cfi_endproc
 596              	.LFE173:
 597              		.size	twihs_master_read, .-twihs_master_read
 598              		.section	.text.twihs_master_write,"ax",%progbits
 599              		.align	1
 600              		.p2align 2,,3
 601              		.global	twihs_master_write
 602              		.syntax unified
 603              		.thumb
 604              		.thumb_func
 605              		.fpu fpv5-d16
 606              		.type	twihs_master_write, %function
 607              	twihs_master_write:
 608              	.LFB174:
 345:../asf/sam/drivers/twihs/twihs.c **** 	uint32_t status, cnt = p_packet->length;
 609              		.loc 1 345 0
 610              		.cfi_startproc
 611              		@ args = 0, pretend = 0, frame = 0
 612              		@ frame_needed = 0, uses_anonymous_args = 0
 613              		@ link register save eliminated.
 614              	.LVL74:
ARM GAS  /tmp/ccsh7mrZ.s 			page 24


 615 0000 0346     		mov	r3, r0
 346:../asf/sam/drivers/twihs/twihs.c **** 	uint8_t *buffer = p_packet->buffer;
 616              		.loc 1 346 0
 617 0002 C868     		ldr	r0, [r1, #12]
 618              	.LVL75:
 350:../asf/sam/drivers/twihs/twihs.c **** 		return TWIHS_INVALID_ARGUMENT;
 619              		.loc 1 350 0
 620 0004 0028     		cmp	r0, #0
 621 0006 33D0     		beq	.L94
 345:../asf/sam/drivers/twihs/twihs.c **** 	uint32_t status, cnt = p_packet->length;
 622              		.loc 1 345 0
 623 0008 F0B4     		push	{r4, r5, r6, r7}
 624              		.cfi_def_cfa_offset 16
 625              		.cfi_offset 4, -16
 626              		.cfi_offset 5, -12
 627              		.cfi_offset 6, -8
 628              		.cfi_offset 7, -4
 355:../asf/sam/drivers/twihs/twihs.c **** 	p_twihs->TWIHS_MMR = TWIHS_MMR_DADR(p_packet->chip) |
 629              		.loc 1 355 0
 630 000a 0027     		movs	r7, #0
 357:../asf/sam/drivers/twihs/twihs.c **** 			TWIHS_MMR_IADRSZ_Msk);
 631              		.loc 1 357 0
 632 000c 4D68     		ldr	r5, [r1, #4]
 347:../asf/sam/drivers/twihs/twihs.c **** 
 633              		.loc 1 347 0
 634 000e 8C68     		ldr	r4, [r1, #8]
 355:../asf/sam/drivers/twihs/twihs.c **** 	p_twihs->TWIHS_MMR = TWIHS_MMR_DADR(p_packet->chip) |
 635              		.loc 1 355 0
 636 0010 5F60     		str	r7, [r3, #4]
 357:../asf/sam/drivers/twihs/twihs.c **** 			TWIHS_MMR_IADRSZ_Msk);
 637              		.loc 1 357 0
 638 0012 2E02     		lsls	r6, r5, #8
 356:../asf/sam/drivers/twihs/twihs.c **** 			((p_packet->addr_length << TWIHS_MMR_IADRSZ_Pos) &
 639              		.loc 1 356 0
 640 0014 0A7C     		ldrb	r2, [r1, #16]	@ zero_extendqisi2
 357:../asf/sam/drivers/twihs/twihs.c **** 			TWIHS_MMR_IADRSZ_Msk);
 641              		.loc 1 357 0
 642 0016 06F44076 		and	r6, r6, #768
 356:../asf/sam/drivers/twihs/twihs.c **** 			((p_packet->addr_length << TWIHS_MMR_IADRSZ_Pos) &
 643              		.loc 1 356 0
 644 001a 1204     		lsls	r2, r2, #16
 645 001c 02F4FE02 		and	r2, r2, #8323072
 646 0020 3243     		orrs	r2, r2, r6
 647 0022 5A60     		str	r2, [r3, #4]
 361:../asf/sam/drivers/twihs/twihs.c **** 	p_twihs->TWIHS_IADR = twihs_mk_addr(p_packet->addr, p_packet->addr_length);
 648              		.loc 1 361 0
 649 0024 DF60     		str	r7, [r3, #12]
 650              	.LVL76:
 651              	.LBB50:
 652              	.LBB51:
 255:../asf/sam/drivers/twihs/twihs.c **** 		return 0;
 653              		.loc 1 255 0
 654 0026 8DB9     		cbnz	r5, .L116
 256:../asf/sam/drivers/twihs/twihs.c **** 
 655              		.loc 1 256 0
 656 0028 2A46     		mov	r2, r5
 657              	.LVL77:
ARM GAS  /tmp/ccsh7mrZ.s 			page 25


 658              	.L86:
 659              	.LBE51:
 660              	.LBE50:
 362:../asf/sam/drivers/twihs/twihs.c **** 
 661              		.loc 1 362 0
 662 002a DA60     		str	r2, [r3, #12]
 663              	.LVL78:
 664              	.L89:
 366:../asf/sam/drivers/twihs/twihs.c **** 		if (status & TWIHS_SR_NACK) {
 665              		.loc 1 366 0
 666 002c 1A6A     		ldr	r2, [r3, #32]
 667              	.LVL79:
 367:../asf/sam/drivers/twihs/twihs.c **** 			return TWIHS_RECEIVE_NACK;
 668              		.loc 1 367 0
 669 002e D605     		lsls	r6, r2, #23
 670 0030 09D4     		bmi	.L91
 671              	.L113:
 371:../asf/sam/drivers/twihs/twihs.c **** 			continue;
 672              		.loc 1 371 0
 673 0032 5507     		lsls	r5, r2, #29
 674 0034 FAD5     		bpl	.L89
 675              	.LVL80:
 374:../asf/sam/drivers/twihs/twihs.c **** 
 676              		.loc 1 374 0
 677 0036 14F8012B 		ldrb	r2, [r4], #1	@ zero_extendqisi2
 678              	.LVL81:
 365:../asf/sam/drivers/twihs/twihs.c **** 		status = p_twihs->TWIHS_SR;
 679              		.loc 1 365 0
 680 003a 0138     		subs	r0, r0, #1
 681              	.LVL82:
 374:../asf/sam/drivers/twihs/twihs.c **** 
 682              		.loc 1 374 0
 683 003c 5A63     		str	r2, [r3, #52]
 365:../asf/sam/drivers/twihs/twihs.c **** 		status = p_twihs->TWIHS_SR;
 684              		.loc 1 365 0
 685 003e 13D0     		beq	.L90
 686              	.LVL83:
 366:../asf/sam/drivers/twihs/twihs.c **** 		if (status & TWIHS_SR_NACK) {
 687              		.loc 1 366 0
 688 0040 1A6A     		ldr	r2, [r3, #32]
 689              	.LVL84:
 367:../asf/sam/drivers/twihs/twihs.c **** 			return TWIHS_RECEIVE_NACK;
 690              		.loc 1 367 0
 691 0042 D605     		lsls	r6, r2, #23
 692 0044 F5D5     		bpl	.L113
 693              	.LVL85:
 694              	.L91:
 368:../asf/sam/drivers/twihs/twihs.c **** 		}
 695              		.loc 1 368 0
 696 0046 0520     		movs	r0, #5
 396:../asf/sam/drivers/twihs/twihs.c **** 
 697              		.loc 1 396 0
 698 0048 F0BC     		pop	{r4, r5, r6, r7}
 699              		.cfi_remember_state
 700              		.cfi_restore 7
 701              		.cfi_restore 6
 702              		.cfi_restore 5
ARM GAS  /tmp/ccsh7mrZ.s 			page 26


 703              		.cfi_restore 4
 704              		.cfi_def_cfa_offset 0
 705 004a 7047     		bx	lr
 706              	.LVL86:
 707              	.L116:
 708              		.cfi_restore_state
 709              	.LBB55:
 710              	.LBB54:
 711              	.LBB52:
 712              	.LBB53:
 259:../asf/sam/drivers/twihs/twihs.c **** 		val <<= 8;
 713              		.loc 1 259 0
 714 004c 012D     		cmp	r5, #1
 258:../asf/sam/drivers/twihs/twihs.c **** 	if (len > 1) {
 715              		.loc 1 258 0
 716 004e 0A78     		ldrb	r2, [r1]	@ zero_extendqisi2
 717              	.LVL87:
 259:../asf/sam/drivers/twihs/twihs.c **** 		val <<= 8;
 718              		.loc 1 259 0
 719 0050 EBDD     		ble	.L86
 720              	.LVL88:
 261:../asf/sam/drivers/twihs/twihs.c **** 	}
 721              		.loc 1 261 0
 722 0052 4E78     		ldrb	r6, [r1, #1]	@ zero_extendqisi2
 263:../asf/sam/drivers/twihs/twihs.c **** 		val <<= 8;
 723              		.loc 1 263 0
 724 0054 022D     		cmp	r5, #2
 261:../asf/sam/drivers/twihs/twihs.c **** 	}
 725              		.loc 1 261 0
 726 0056 46EA0222 		orr	r2, r6, r2, lsl #8
 727              	.LVL89:
 263:../asf/sam/drivers/twihs/twihs.c **** 		val <<= 8;
 728              		.loc 1 263 0
 729 005a E6D0     		beq	.L86
 730              	.LVL90:
 265:../asf/sam/drivers/twihs/twihs.c **** 	}
 731              		.loc 1 265 0
 732 005c 8978     		ldrb	r1, [r1, #2]	@ zero_extendqisi2
 733              	.LVL91:
 734 005e 41EA0222 		orr	r2, r1, r2, lsl #8
 735              	.LVL92:
 736 0062 E2E7     		b	.L86
 737              	.LVL93:
 738              	.L118:
 739              	.LBE53:
 740              	.LBE52:
 741              	.LBE54:
 742              	.LBE55:
 743              	.LBB56:
 744              	.LBB57:
 385:../asf/sam/drivers/twihs/twihs.c **** 			break;
 745              		.loc 1 385 0
 746 0064 5107     		lsls	r1, r2, #29
 747 0066 05D4     		bmi	.L117
 748              	.LVL94:
 749              	.L90:
 380:../asf/sam/drivers/twihs/twihs.c **** 		if (status & TWIHS_SR_NACK) {
ARM GAS  /tmp/ccsh7mrZ.s 			page 27


 750              		.loc 1 380 0
 751 0068 1A6A     		ldr	r2, [r3, #32]
 752              	.LVL95:
 381:../asf/sam/drivers/twihs/twihs.c **** 			return TWIHS_RECEIVE_NACK;
 753              		.loc 1 381 0
 754 006a D405     		lsls	r4, r2, #23
 755 006c EBD4     		bmi	.L91
 756 006e F9E7     		b	.L118
 757              	.LVL96:
 758              	.L94:
 759              		.cfi_def_cfa_offset 0
 760              		.cfi_restore 4
 761              		.cfi_restore 5
 762              		.cfi_restore 6
 763              		.cfi_restore 7
 764              	.LBE57:
 765              	.LBE56:
 351:../asf/sam/drivers/twihs/twihs.c **** 	}
 766              		.loc 1 351 0
 767 0070 0120     		movs	r0, #1
 768              	.LVL97:
 769 0072 7047     		bx	lr
 770              	.LVL98:
 771              	.L117:
 772              		.cfi_def_cfa_offset 16
 773              		.cfi_offset 4, -16
 774              		.cfi_offset 5, -12
 775              		.cfi_offset 6, -8
 776              		.cfi_offset 7, -4
 777              	.LBB59:
 778              	.LBB58:
 390:../asf/sam/drivers/twihs/twihs.c **** 
 779              		.loc 1 390 0
 780 0074 0222     		movs	r2, #2
 781              	.LVL99:
 782 0076 1A60     		str	r2, [r3]
 783              	.L93:
 392:../asf/sam/drivers/twihs/twihs.c **** 	}
 784              		.loc 1 392 0
 785 0078 1A6A     		ldr	r2, [r3, #32]
 786 007a D207     		lsls	r2, r2, #31
 787 007c FCD5     		bpl	.L93
 788              	.LBE58:
 789              	.LBE59:
 396:../asf/sam/drivers/twihs/twihs.c **** 
 790              		.loc 1 396 0
 791 007e F0BC     		pop	{r4, r5, r6, r7}
 792              		.cfi_restore 4
 793              		.cfi_restore 5
 794              		.cfi_restore 6
 795              		.cfi_restore 7
 796              		.cfi_def_cfa_offset 0
 797 0080 7047     		bx	lr
 798              		.cfi_endproc
 799              	.LFE174:
 800              		.size	twihs_master_write, .-twihs_master_write
 801 0082 00BF     		.section	.text.twihs_probe,"ax",%progbits
ARM GAS  /tmp/ccsh7mrZ.s 			page 28


 802              		.align	1
 803              		.p2align 2,,3
 804              		.global	twihs_probe
 805              		.syntax unified
 806              		.thumb
 807              		.thumb_func
 808              		.fpu fpv5-d16
 809              		.type	twihs_probe, %function
 810              	twihs_probe:
 811              	.LFB171:
 222:../asf/sam/drivers/twihs/twihs.c **** 	twihs_packet_t packet;
 812              		.loc 1 222 0
 813              		.cfi_startproc
 814              		@ args = 0, pretend = 0, frame = 24
 815              		@ frame_needed = 0, uses_anonymous_args = 0
 816              	.LVL100:
 817 0000 10B5     		push	{r4, lr}
 818              		.cfi_def_cfa_offset 8
 819              		.cfi_offset 4, -8
 820              		.cfi_offset 14, -4
 821 0002 86B0     		sub	sp, sp, #24
 822              		.cfi_def_cfa_offset 32
 224:../asf/sam/drivers/twihs/twihs.c **** 
 823              		.loc 1 224 0
 824 0004 0022     		movs	r2, #0
 229:../asf/sam/drivers/twihs/twihs.c **** 	/* Slave chip address */
 825              		.loc 1 229 0
 826 0006 0124     		movs	r4, #1
 224:../asf/sam/drivers/twihs/twihs.c **** 
 827              		.loc 1 224 0
 828 0008 06AB     		add	r3, sp, #24
 231:../asf/sam/drivers/twihs/twihs.c **** 	/* Internal chip address */
 829              		.loc 1 231 0
 830 000a 8DF81410 		strb	r1, [sp, #20]
 238:../asf/sam/drivers/twihs/twihs.c **** }
 831              		.loc 1 238 0
 832 000e 01A9     		add	r1, sp, #4
 833              	.LVL101:
 233:../asf/sam/drivers/twihs/twihs.c **** 	/* Address length */
 834              		.loc 1 233 0
 835 0010 8DF80420 		strb	r2, [sp, #4]
 224:../asf/sam/drivers/twihs/twihs.c **** 
 836              		.loc 1 224 0
 837 0014 03F8152D 		strb	r2, [r3, #-21]!
 235:../asf/sam/drivers/twihs/twihs.c **** 
 838              		.loc 1 235 0
 839 0018 0292     		str	r2, [sp, #8]
 229:../asf/sam/drivers/twihs/twihs.c **** 	/* Slave chip address */
 840              		.loc 1 229 0
 841 001a 0494     		str	r4, [sp, #16]
 227:../asf/sam/drivers/twihs/twihs.c **** 	/* Data length */
 842              		.loc 1 227 0
 843 001c 0393     		str	r3, [sp, #12]
 238:../asf/sam/drivers/twihs/twihs.c **** }
 844              		.loc 1 238 0
 845 001e FFF7FEFF 		bl	twihs_master_write
 846              	.LVL102:
ARM GAS  /tmp/ccsh7mrZ.s 			page 29


 239:../asf/sam/drivers/twihs/twihs.c **** 
 847              		.loc 1 239 0
 848 0022 06B0     		add	sp, sp, #24
 849              		.cfi_def_cfa_offset 8
 850              		@ sp needed
 851 0024 10BD     		pop	{r4, pc}
 852              		.cfi_endproc
 853              	.LFE171:
 854              		.size	twihs_probe, .-twihs_probe
 855 0026 00BF     		.section	.text.twihs_enable_interrupt,"ax",%progbits
 856              		.align	1
 857              		.p2align 2,,3
 858              		.global	twihs_enable_interrupt
 859              		.syntax unified
 860              		.thumb
 861              		.thumb_func
 862              		.fpu fpv5-d16
 863              		.type	twihs_enable_interrupt, %function
 864              	twihs_enable_interrupt:
 865              	.LFB175:
 405:../asf/sam/drivers/twihs/twihs.c **** 	/* Enable the specified interrupts */
 866              		.loc 1 405 0
 867              		.cfi_startproc
 868              		@ args = 0, pretend = 0, frame = 0
 869              		@ frame_needed = 0, uses_anonymous_args = 0
 870              		@ link register save eliminated.
 871              	.LVL103:
 407:../asf/sam/drivers/twihs/twihs.c **** }
 872              		.loc 1 407 0
 873 0000 4162     		str	r1, [r0, #36]
 874 0002 7047     		bx	lr
 875              		.cfi_endproc
 876              	.LFE175:
 877              		.size	twihs_enable_interrupt, .-twihs_enable_interrupt
 878              		.section	.text.twihs_disable_interrupt,"ax",%progbits
 879              		.align	1
 880              		.p2align 2,,3
 881              		.global	twihs_disable_interrupt
 882              		.syntax unified
 883              		.thumb
 884              		.thumb_func
 885              		.fpu fpv5-d16
 886              		.type	twihs_disable_interrupt, %function
 887              	twihs_disable_interrupt:
 888              	.LFB176:
 417:../asf/sam/drivers/twihs/twihs.c **** 	/* Disable the specified interrupts */
 889              		.loc 1 417 0
 890              		.cfi_startproc
 891              		@ args = 0, pretend = 0, frame = 0
 892              		@ frame_needed = 0, uses_anonymous_args = 0
 893              		@ link register save eliminated.
 894              	.LVL104:
 419:../asf/sam/drivers/twihs/twihs.c **** 	/* Dummy read */
 895              		.loc 1 419 0
 896 0000 8162     		str	r1, [r0, #40]
 421:../asf/sam/drivers/twihs/twihs.c **** }
 897              		.loc 1 421 0
ARM GAS  /tmp/ccsh7mrZ.s 			page 30


 898 0002 036A     		ldr	r3, [r0, #32]
 899 0004 7047     		bx	lr
 900              		.cfi_endproc
 901              	.LFE176:
 902              		.size	twihs_disable_interrupt, .-twihs_disable_interrupt
 903              		.section	.text.twihs_get_interrupt_status,"ax",%progbits
 904              		.align	1
 905              		.p2align 2,,3
 906              		.global	twihs_get_interrupt_status
 907              		.syntax unified
 908              		.thumb
 909              		.thumb_func
 910              		.fpu fpv5-d16
 911              		.type	twihs_get_interrupt_status, %function
 912              	twihs_get_interrupt_status:
 913              	.LFB177:
 432:../asf/sam/drivers/twihs/twihs.c **** 	return p_twihs->TWIHS_SR;
 914              		.loc 1 432 0
 915              		.cfi_startproc
 916              		@ args = 0, pretend = 0, frame = 0
 917              		@ frame_needed = 0, uses_anonymous_args = 0
 918              		@ link register save eliminated.
 919              	.LVL105:
 433:../asf/sam/drivers/twihs/twihs.c **** }
 920              		.loc 1 433 0
 921 0000 006A     		ldr	r0, [r0, #32]
 922              	.LVL106:
 434:../asf/sam/drivers/twihs/twihs.c **** 
 923              		.loc 1 434 0
 924 0002 7047     		bx	lr
 925              		.cfi_endproc
 926              	.LFE177:
 927              		.size	twihs_get_interrupt_status, .-twihs_get_interrupt_status
 928              		.section	.text.twihs_get_interrupt_mask,"ax",%progbits
 929              		.align	1
 930              		.p2align 2,,3
 931              		.global	twihs_get_interrupt_mask
 932              		.syntax unified
 933              		.thumb
 934              		.thumb_func
 935              		.fpu fpv5-d16
 936              		.type	twihs_get_interrupt_mask, %function
 937              	twihs_get_interrupt_mask:
 938              	.LFB178:
 444:../asf/sam/drivers/twihs/twihs.c **** 	return p_twihs->TWIHS_IMR;
 939              		.loc 1 444 0
 940              		.cfi_startproc
 941              		@ args = 0, pretend = 0, frame = 0
 942              		@ frame_needed = 0, uses_anonymous_args = 0
 943              		@ link register save eliminated.
 944              	.LVL107:
 445:../asf/sam/drivers/twihs/twihs.c **** }
 945              		.loc 1 445 0
 946 0000 C06A     		ldr	r0, [r0, #44]
 947              	.LVL108:
 446:../asf/sam/drivers/twihs/twihs.c **** 
 948              		.loc 1 446 0
ARM GAS  /tmp/ccsh7mrZ.s 			page 31


 949 0002 7047     		bx	lr
 950              		.cfi_endproc
 951              	.LFE178:
 952              		.size	twihs_get_interrupt_mask, .-twihs_get_interrupt_mask
 953              		.section	.text.twihs_read_byte,"ax",%progbits
 954              		.align	1
 955              		.p2align 2,,3
 956              		.global	twihs_read_byte
 957              		.syntax unified
 958              		.thumb
 959              		.thumb_func
 960              		.fpu fpv5-d16
 961              		.type	twihs_read_byte, %function
 962              	twihs_read_byte:
 963              	.LFB179:
 456:../asf/sam/drivers/twihs/twihs.c **** 	return p_twihs->TWIHS_RHR;
 964              		.loc 1 456 0
 965              		.cfi_startproc
 966              		@ args = 0, pretend = 0, frame = 0
 967              		@ frame_needed = 0, uses_anonymous_args = 0
 968              		@ link register save eliminated.
 969              	.LVL109:
 457:../asf/sam/drivers/twihs/twihs.c **** }
 970              		.loc 1 457 0
 971 0000 006B     		ldr	r0, [r0, #48]
 972              	.LVL110:
 458:../asf/sam/drivers/twihs/twihs.c **** 
 973              		.loc 1 458 0
 974 0002 C0B2     		uxtb	r0, r0
 975 0004 7047     		bx	lr
 976              		.cfi_endproc
 977              	.LFE179:
 978              		.size	twihs_read_byte, .-twihs_read_byte
 979 0006 00BF     		.section	.text.twihs_write_byte,"ax",%progbits
 980              		.align	1
 981              		.p2align 2,,3
 982              		.global	twihs_write_byte
 983              		.syntax unified
 984              		.thumb
 985              		.thumb_func
 986              		.fpu fpv5-d16
 987              		.type	twihs_write_byte, %function
 988              	twihs_write_byte:
 989              	.LFB180:
 467:../asf/sam/drivers/twihs/twihs.c **** 	p_twihs->TWIHS_THR = uc_byte;
 990              		.loc 1 467 0
 991              		.cfi_startproc
 992              		@ args = 0, pretend = 0, frame = 0
 993              		@ frame_needed = 0, uses_anonymous_args = 0
 994              		@ link register save eliminated.
 995              	.LVL111:
 468:../asf/sam/drivers/twihs/twihs.c **** }
 996              		.loc 1 468 0
 997 0000 4163     		str	r1, [r0, #52]
 998 0002 7047     		bx	lr
 999              		.cfi_endproc
 1000              	.LFE180:
ARM GAS  /tmp/ccsh7mrZ.s 			page 32


 1001              		.size	twihs_write_byte, .-twihs_write_byte
 1002              		.section	.text.twihs_enable_slave_mode,"ax",%progbits
 1003              		.align	1
 1004              		.p2align 2,,3
 1005              		.global	twihs_enable_slave_mode
 1006              		.syntax unified
 1007              		.thumb
 1008              		.thumb_func
 1009              		.fpu fpv5-d16
 1010              		.type	twihs_enable_slave_mode, %function
 1011              	twihs_enable_slave_mode:
 1012              	.LFB181:
 477:../asf/sam/drivers/twihs/twihs.c **** 	/* Set Master Disable bit and Slave Disable bit */
 1013              		.loc 1 477 0
 1014              		.cfi_startproc
 1015              		@ args = 0, pretend = 0, frame = 0
 1016              		@ frame_needed = 0, uses_anonymous_args = 0
 1017              		@ link register save eliminated.
 1018              	.LVL112:
 479:../asf/sam/drivers/twihs/twihs.c **** 	p_twihs->TWIHS_CR = TWIHS_CR_SVDIS;
 1019              		.loc 1 479 0
 1020 0000 0821     		movs	r1, #8
 480:../asf/sam/drivers/twihs/twihs.c **** 
 1021              		.loc 1 480 0
 1022 0002 2022     		movs	r2, #32
 483:../asf/sam/drivers/twihs/twihs.c **** }
 1023              		.loc 1 483 0
 1024 0004 1023     		movs	r3, #16
 479:../asf/sam/drivers/twihs/twihs.c **** 	p_twihs->TWIHS_CR = TWIHS_CR_SVDIS;
 1025              		.loc 1 479 0
 1026 0006 0160     		str	r1, [r0]
 480:../asf/sam/drivers/twihs/twihs.c **** 
 1027              		.loc 1 480 0
 1028 0008 0260     		str	r2, [r0]
 483:../asf/sam/drivers/twihs/twihs.c **** }
 1029              		.loc 1 483 0
 1030 000a 0360     		str	r3, [r0]
 1031 000c 7047     		bx	lr
 1032              		.cfi_endproc
 1033              	.LFE181:
 1034              		.size	twihs_enable_slave_mode, .-twihs_enable_slave_mode
 1035 000e 00BF     		.section	.text.twihs_disable_slave_mode,"ax",%progbits
 1036              		.align	1
 1037              		.p2align 2,,3
 1038              		.global	twihs_disable_slave_mode
 1039              		.syntax unified
 1040              		.thumb
 1041              		.thumb_func
 1042              		.fpu fpv5-d16
 1043              		.type	twihs_disable_slave_mode, %function
 1044              	twihs_disable_slave_mode:
 1045              	.LFB182:
 492:../asf/sam/drivers/twihs/twihs.c **** 	/* Set Slave Disable bit */
 1046              		.loc 1 492 0
 1047              		.cfi_startproc
 1048              		@ args = 0, pretend = 0, frame = 0
 1049              		@ frame_needed = 0, uses_anonymous_args = 0
ARM GAS  /tmp/ccsh7mrZ.s 			page 33


 1050              		@ link register save eliminated.
 1051              	.LVL113:
 494:../asf/sam/drivers/twihs/twihs.c **** }
 1052              		.loc 1 494 0
 1053 0000 2023     		movs	r3, #32
 1054 0002 0360     		str	r3, [r0]
 1055 0004 7047     		bx	lr
 1056              		.cfi_endproc
 1057              	.LFE182:
 1058              		.size	twihs_disable_slave_mode, .-twihs_disable_slave_mode
 1059 0006 00BF     		.section	.text.twihs_slave_init,"ax",%progbits
 1060              		.align	1
 1061              		.p2align 2,,3
 1062              		.global	twihs_slave_init
 1063              		.syntax unified
 1064              		.thumb
 1065              		.thumb_func
 1066              		.fpu fpv5-d16
 1067              		.type	twihs_slave_init, %function
 1068              	twihs_slave_init:
 1069              	.LFB183:
 504:../asf/sam/drivers/twihs/twihs.c **** 	/* Disable TWIHS interrupts */
 1070              		.loc 1 504 0
 1071              		.cfi_startproc
 1072              		@ args = 0, pretend = 0, frame = 0
 1073              		@ frame_needed = 0, uses_anonymous_args = 0
 1074              		@ link register save eliminated.
 1075              	.LVL114:
 513:../asf/sam/drivers/twihs/twihs.c **** 
 1076              		.loc 1 513 0
 1077 0000 0904     		lsls	r1, r1, #16
 1078              	.LVL115:
 1079              	.LBB60:
 1080              	.LBB61:
 480:../asf/sam/drivers/twihs/twihs.c **** 
 1081              		.loc 1 480 0
 1082 0002 2022     		movs	r2, #32
 483:../asf/sam/drivers/twihs/twihs.c **** }
 1083              		.loc 1 483 0
 1084 0004 1023     		movs	r3, #16
 1085              	.LBE61:
 1086              	.LBE60:
 513:../asf/sam/drivers/twihs/twihs.c **** 
 1087              		.loc 1 513 0
 1088 0006 01F4FE01 		and	r1, r1, #8323072
 504:../asf/sam/drivers/twihs/twihs.c **** 	/* Disable TWIHS interrupts */
 1089              		.loc 1 504 0
 1090 000a 70B4     		push	{r4, r5, r6}
 1091              		.cfi_def_cfa_offset 12
 1092              		.cfi_offset 4, -12
 1093              		.cfi_offset 5, -8
 1094              		.cfi_offset 6, -4
 506:../asf/sam/drivers/twihs/twihs.c **** 	p_twihs->TWIHS_SR;
 1095              		.loc 1 506 0
 1096 000c 4FF0FF36 		mov	r6, #-1
 1097              	.LBB64:
 1098              	.LBB65:
ARM GAS  /tmp/ccsh7mrZ.s 			page 34


 602:../asf/sam/drivers/twihs/twihs.c **** 	p_twihs->TWIHS_RHR;
 1099              		.loc 1 602 0
 1100 0010 8025     		movs	r5, #128
 1101              	.LBE65:
 1102              	.LBE64:
 1103              	.LBB67:
 1104              	.LBB62:
 479:../asf/sam/drivers/twihs/twihs.c **** 	p_twihs->TWIHS_CR = TWIHS_CR_SVDIS;
 1105              		.loc 1 479 0
 1106 0012 0824     		movs	r4, #8
 1107              	.LBE62:
 1108              	.LBE67:
 506:../asf/sam/drivers/twihs/twihs.c **** 	p_twihs->TWIHS_SR;
 1109              		.loc 1 506 0
 1110 0014 8662     		str	r6, [r0, #40]
 507:../asf/sam/drivers/twihs/twihs.c **** 
 1111              		.loc 1 507 0
 1112 0016 066A     		ldr	r6, [r0, #32]
 1113              	.LVL116:
 1114              	.LBB68:
 1115              	.LBB66:
 602:../asf/sam/drivers/twihs/twihs.c **** 	p_twihs->TWIHS_RHR;
 1116              		.loc 1 602 0
 1117 0018 0560     		str	r5, [r0]
 1118              		.loc 1 603 0
 1119 001a 056B     		ldr	r5, [r0, #48]
 1120              	.LVL117:
 1121              	.LBE66:
 1122              	.LBE68:
 513:../asf/sam/drivers/twihs/twihs.c **** 
 1123              		.loc 1 513 0
 1124 001c 8160     		str	r1, [r0, #8]
 1125              	.LVL118:
 1126              	.LBB69:
 1127              	.LBB63:
 479:../asf/sam/drivers/twihs/twihs.c **** 	p_twihs->TWIHS_CR = TWIHS_CR_SVDIS;
 1128              		.loc 1 479 0
 1129 001e 0460     		str	r4, [r0]
 480:../asf/sam/drivers/twihs/twihs.c **** 
 1130              		.loc 1 480 0
 1131 0020 0260     		str	r2, [r0]
 483:../asf/sam/drivers/twihs/twihs.c **** }
 1132              		.loc 1 483 0
 1133 0022 0360     		str	r3, [r0]
 1134              	.LVL119:
 1135              	.LBE63:
 1136              	.LBE69:
 517:../asf/sam/drivers/twihs/twihs.c **** 
 1137              		.loc 1 517 0
 1138 0024 70BC     		pop	{r4, r5, r6}
 1139              		.cfi_restore 6
 1140              		.cfi_restore 5
 1141              		.cfi_restore 4
 1142              		.cfi_def_cfa_offset 0
 1143 0026 7047     		bx	lr
 1144              		.cfi_endproc
 1145              	.LFE183:
ARM GAS  /tmp/ccsh7mrZ.s 			page 35


 1146              		.size	twihs_slave_init, .-twihs_slave_init
 1147              		.section	.text.twihs_set_slave_addr,"ax",%progbits
 1148              		.align	1
 1149              		.p2align 2,,3
 1150              		.global	twihs_set_slave_addr
 1151              		.syntax unified
 1152              		.thumb
 1153              		.thumb_func
 1154              		.fpu fpv5-d16
 1155              		.type	twihs_set_slave_addr, %function
 1156              	twihs_set_slave_addr:
 1157              	.LFB184:
 526:../asf/sam/drivers/twihs/twihs.c **** 	/* Set slave address */
 1158              		.loc 1 526 0
 1159              		.cfi_startproc
 1160              		@ args = 0, pretend = 0, frame = 0
 1161              		@ frame_needed = 0, uses_anonymous_args = 0
 1162              		@ link register save eliminated.
 1163              	.LVL120:
 528:../asf/sam/drivers/twihs/twihs.c **** }
 1164              		.loc 1 528 0
 1165 0000 0904     		lsls	r1, r1, #16
 1166              	.LVL121:
 1167 0002 01F4FE01 		and	r1, r1, #8323072
 1168 0006 8160     		str	r1, [r0, #8]
 1169 0008 7047     		bx	lr
 1170              		.cfi_endproc
 1171              	.LFE184:
 1172              		.size	twihs_set_slave_addr, .-twihs_set_slave_addr
 1173 000a 00BF     		.section	.text.twihs_slave_read,"ax",%progbits
 1174              		.align	1
 1175              		.p2align 2,,3
 1176              		.global	twihs_slave_read
 1177              		.syntax unified
 1178              		.thumb
 1179              		.thumb_func
 1180              		.fpu fpv5-d16
 1181              		.type	twihs_slave_read, %function
 1182              	twihs_slave_read:
 1183              	.LFB185:
 542:../asf/sam/drivers/twihs/twihs.c **** 	uint32_t status, cnt = 0;
 1184              		.loc 1 542 0
 1185              		.cfi_startproc
 1186              		@ args = 0, pretend = 0, frame = 0
 1187              		@ frame_needed = 0, uses_anonymous_args = 0
 1188              		@ link register save eliminated.
 1189              	.LVL122:
 1190 0000 30B4     		push	{r4, r5}
 1191              		.cfi_def_cfa_offset 8
 1192              		.cfi_offset 4, -8
 1193              		.cfi_offset 5, -4
 543:../asf/sam/drivers/twihs/twihs.c **** 
 1194              		.loc 1 543 0
 1195 0002 0025     		movs	r5, #0
 553:../asf/sam/drivers/twihs/twihs.c **** 					== (TWIHS_SR_EOSACC | TWIHS_SR_TXCOMP)) {
 1196              		.loc 1 553 0
 1197 0004 40F60104 		movw	r4, #2049
ARM GAS  /tmp/ccsh7mrZ.s 			page 36


 1198              	.LVL123:
 1199              	.L133:
 546:../asf/sam/drivers/twihs/twihs.c **** 		if (status & TWIHS_SR_SVACC) {
 1200              		.loc 1 546 0
 1201 0008 036A     		ldr	r3, [r0, #32]
 1202              	.LVL124:
 547:../asf/sam/drivers/twihs/twihs.c **** 			if (!(status & (TWIHS_SR_GACC | TWIHS_SR_SVREAD)) &&
 1203              		.loc 1 547 0
 1204 000a 13F0100F 		tst	r3, #16
 548:../asf/sam/drivers/twihs/twihs.c **** 			(status & TWIHS_SR_RXRDY)) {
 1205              		.loc 1 548 0
 1206 000e 03F02A02 		and	r2, r3, #42
 547:../asf/sam/drivers/twihs/twihs.c **** 			if (!(status & (TWIHS_SR_GACC | TWIHS_SR_SVREAD)) &&
 1207              		.loc 1 547 0
 1208 0012 0CD0     		beq	.L134
 1209              	.L137:
 548:../asf/sam/drivers/twihs/twihs.c **** 			(status & TWIHS_SR_RXRDY)) {
 1210              		.loc 1 548 0
 1211 0014 022A     		cmp	r2, #2
 1212 0016 F7D1     		bne	.L133
 1213              	.LVL125:
 550:../asf/sam/drivers/twihs/twihs.c **** 				cnt++;
 1214              		.loc 1 550 0
 1215 0018 036B     		ldr	r3, [r0, #48]
 1216              	.LVL126:
 551:../asf/sam/drivers/twihs/twihs.c **** 			}
 1217              		.loc 1 551 0
 1218 001a 0135     		adds	r5, r5, #1
 1219              	.LVL127:
 550:../asf/sam/drivers/twihs/twihs.c **** 				cnt++;
 1220              		.loc 1 550 0
 1221 001c 0131     		adds	r1, r1, #1
 1222              	.LVL128:
 1223 001e 01F8013C 		strb	r3, [r1, #-1]
 546:../asf/sam/drivers/twihs/twihs.c **** 		if (status & TWIHS_SR_SVACC) {
 1224              		.loc 1 546 0
 1225 0022 036A     		ldr	r3, [r0, #32]
 1226              	.LVL129:
 547:../asf/sam/drivers/twihs/twihs.c **** 			if (!(status & (TWIHS_SR_GACC | TWIHS_SR_SVREAD)) &&
 1227              		.loc 1 547 0
 1228 0024 13F0100F 		tst	r3, #16
 548:../asf/sam/drivers/twihs/twihs.c **** 			(status & TWIHS_SR_RXRDY)) {
 1229              		.loc 1 548 0
 1230 0028 03F02A02 		and	r2, r3, #42
 547:../asf/sam/drivers/twihs/twihs.c **** 			if (!(status & (TWIHS_SR_GACC | TWIHS_SR_SVREAD)) &&
 1231              		.loc 1 547 0
 1232 002c F2D1     		bne	.L137
 1233              	.L134:
 553:../asf/sam/drivers/twihs/twihs.c **** 					== (TWIHS_SR_EOSACC | TWIHS_SR_TXCOMP)) {
 1234              		.loc 1 553 0
 1235 002e 34EA0303 		bics	r3, r4, r3
 1236              	.LVL130:
 1237 0032 E9D1     		bne	.L133
 560:../asf/sam/drivers/twihs/twihs.c **** 
 1238              		.loc 1 560 0
 1239 0034 2846     		mov	r0, r5
 1240              	.LVL131:
ARM GAS  /tmp/ccsh7mrZ.s 			page 37


 1241 0036 30BC     		pop	{r4, r5}
 1242              		.cfi_restore 5
 1243              		.cfi_restore 4
 1244              		.cfi_def_cfa_offset 0
 1245              	.LVL132:
 1246 0038 7047     		bx	lr
 1247              		.cfi_endproc
 1248              	.LFE185:
 1249              		.size	twihs_slave_read, .-twihs_slave_read
 1250 003a 00BF     		.section	.text.twihs_slave_write,"ax",%progbits
 1251              		.align	1
 1252              		.p2align 2,,3
 1253              		.global	twihs_slave_write
 1254              		.syntax unified
 1255              		.thumb
 1256              		.thumb_func
 1257              		.fpu fpv5-d16
 1258              		.type	twihs_slave_write, %function
 1259              	twihs_slave_write:
 1260              	.LFB186:
 573:../asf/sam/drivers/twihs/twihs.c **** 	uint32_t status, cnt = 0;
 1261              		.loc 1 573 0
 1262              		.cfi_startproc
 1263              		@ args = 0, pretend = 0, frame = 0
 1264              		@ frame_needed = 0, uses_anonymous_args = 0
 1265              		@ link register save eliminated.
 1266              	.LVL133:
 1267 0000 30B4     		push	{r4, r5}
 1268              		.cfi_def_cfa_offset 8
 1269              		.cfi_offset 4, -8
 1270              		.cfi_offset 5, -4
 574:../asf/sam/drivers/twihs/twihs.c **** 
 1271              		.loc 1 574 0
 1272 0002 0025     		movs	r5, #0
 585:../asf/sam/drivers/twihs/twihs.c **** 					== (TWIHS_SR_EOSACC | TWIHS_SR_TXCOMP)) {
 1273              		.loc 1 585 0
 1274 0004 40F60104 		movw	r4, #2049
 1275              	.LVL134:
 1276              	.L139:
 577:../asf/sam/drivers/twihs/twihs.c **** 		if (status & TWIHS_SR_SVACC) {
 1277              		.loc 1 577 0
 1278 0008 036A     		ldr	r3, [r0, #32]
 1279              	.LVL135:
 578:../asf/sam/drivers/twihs/twihs.c **** 			if (!(status & (TWIHS_SR_GACC | TWIHS_SR_NACK)) &&
 1280              		.loc 1 578 0
 1281 000a 13F0100F 		tst	r3, #16
 579:../asf/sam/drivers/twihs/twihs.c **** 			((status & (TWIHS_SR_SVREAD | TWIHS_SR_TXRDY))
 1282              		.loc 1 579 0
 1283 000e 03F49672 		and	r2, r3, #300
 578:../asf/sam/drivers/twihs/twihs.c **** 			if (!(status & (TWIHS_SR_GACC | TWIHS_SR_NACK)) &&
 1284              		.loc 1 578 0
 1285 0012 0BD0     		beq	.L140
 1286              	.L143:
 579:../asf/sam/drivers/twihs/twihs.c **** 			((status & (TWIHS_SR_SVREAD | TWIHS_SR_TXRDY))
 1287              		.loc 1 579 0
 1288 0014 0C2A     		cmp	r2, #12
 1289 0016 F7D1     		bne	.L139
ARM GAS  /tmp/ccsh7mrZ.s 			page 38


 1290              	.LVL136:
 582:../asf/sam/drivers/twihs/twihs.c **** 				cnt++;
 1291              		.loc 1 582 0
 1292 0018 0B78     		ldrb	r3, [r1]	@ zero_extendqisi2
 1293              	.LVL137:
 583:../asf/sam/drivers/twihs/twihs.c **** 			}
 1294              		.loc 1 583 0
 1295 001a 0135     		adds	r5, r5, #1
 1296              	.LVL138:
 582:../asf/sam/drivers/twihs/twihs.c **** 				cnt++;
 1297              		.loc 1 582 0
 1298 001c 0131     		adds	r1, r1, #1
 1299              	.LVL139:
 1300 001e 4363     		str	r3, [r0, #52]
 577:../asf/sam/drivers/twihs/twihs.c **** 		if (status & TWIHS_SR_SVACC) {
 1301              		.loc 1 577 0
 1302 0020 036A     		ldr	r3, [r0, #32]
 1303              	.LVL140:
 578:../asf/sam/drivers/twihs/twihs.c **** 			if (!(status & (TWIHS_SR_GACC | TWIHS_SR_NACK)) &&
 1304              		.loc 1 578 0
 1305 0022 13F0100F 		tst	r3, #16
 579:../asf/sam/drivers/twihs/twihs.c **** 			((status & (TWIHS_SR_SVREAD | TWIHS_SR_TXRDY))
 1306              		.loc 1 579 0
 1307 0026 03F49672 		and	r2, r3, #300
 578:../asf/sam/drivers/twihs/twihs.c **** 			if (!(status & (TWIHS_SR_GACC | TWIHS_SR_NACK)) &&
 1308              		.loc 1 578 0
 1309 002a F3D1     		bne	.L143
 1310              	.L140:
 585:../asf/sam/drivers/twihs/twihs.c **** 					== (TWIHS_SR_EOSACC | TWIHS_SR_TXCOMP)) {
 1311              		.loc 1 585 0
 1312 002c 34EA0303 		bics	r3, r4, r3
 1313              	.LVL141:
 1314 0030 EAD1     		bne	.L139
 592:../asf/sam/drivers/twihs/twihs.c **** 
 1315              		.loc 1 592 0
 1316 0032 2846     		mov	r0, r5
 1317              	.LVL142:
 1318 0034 30BC     		pop	{r4, r5}
 1319              		.cfi_restore 5
 1320              		.cfi_restore 4
 1321              		.cfi_def_cfa_offset 0
 1322              	.LVL143:
 1323 0036 7047     		bx	lr
 1324              		.cfi_endproc
 1325              	.LFE186:
 1326              		.size	twihs_slave_write, .-twihs_slave_write
 1327              		.section	.text.twihs_reset,"ax",%progbits
 1328              		.align	1
 1329              		.p2align 2,,3
 1330              		.global	twihs_reset
 1331              		.syntax unified
 1332              		.thumb
 1333              		.thumb_func
 1334              		.fpu fpv5-d16
 1335              		.type	twihs_reset, %function
 1336              	twihs_reset:
 1337              	.LFB187:
ARM GAS  /tmp/ccsh7mrZ.s 			page 39


 600:../asf/sam/drivers/twihs/twihs.c **** 	/* Set SWRST bit to reset TWIHS peripheral */
 1338              		.loc 1 600 0
 1339              		.cfi_startproc
 1340              		@ args = 0, pretend = 0, frame = 0
 1341              		@ frame_needed = 0, uses_anonymous_args = 0
 1342              		@ link register save eliminated.
 1343              	.LVL144:
 602:../asf/sam/drivers/twihs/twihs.c **** 	p_twihs->TWIHS_RHR;
 1344              		.loc 1 602 0
 1345 0000 8023     		movs	r3, #128
 1346 0002 0360     		str	r3, [r0]
 1347              		.loc 1 603 0
 1348 0004 036B     		ldr	r3, [r0, #48]
 1349 0006 7047     		bx	lr
 1350              		.cfi_endproc
 1351              	.LFE187:
 1352              		.size	twihs_reset, .-twihs_reset
 1353              		.section	.text.twihs_set_write_protection,"ax",%progbits
 1354              		.align	1
 1355              		.p2align 2,,3
 1356              		.global	twihs_set_write_protection
 1357              		.syntax unified
 1358              		.thumb
 1359              		.thumb_func
 1360              		.fpu fpv5-d16
 1361              		.type	twihs_set_write_protection, %function
 1362              	twihs_set_write_protection:
 1363              	.LFB188:
 604:../asf/sam/drivers/twihs/twihs.c **** }
 605:../asf/sam/drivers/twihs/twihs.c **** 
 606:../asf/sam/drivers/twihs/twihs.c **** #if !(SAMV70 || SAMV71 || SAME70 || SAMS70)
 607:../asf/sam/drivers/twihs/twihs.c **** /**
 608:../asf/sam/drivers/twihs/twihs.c ****  * \brief Get TWIHS PDC base address.
 609:../asf/sam/drivers/twihs/twihs.c ****  *
 610:../asf/sam/drivers/twihs/twihs.c ****  * \param p_twihs Pointer to a TWIHS instance.
 611:../asf/sam/drivers/twihs/twihs.c ****  *
 612:../asf/sam/drivers/twihs/twihs.c ****  * \return TWIHS PDC registers base for PDC driver to access.
 613:../asf/sam/drivers/twihs/twihs.c ****  */
 614:../asf/sam/drivers/twihs/twihs.c **** Pdc *twihs_get_pdc_base(Twihs *p_twihs)
 615:../asf/sam/drivers/twihs/twihs.c **** {
 616:../asf/sam/drivers/twihs/twihs.c **** 	Pdc *p_pdc_base = NULL;
 617:../asf/sam/drivers/twihs/twihs.c **** 
 618:../asf/sam/drivers/twihs/twihs.c **** 	if (p_twihs == TWI0) {
 619:../asf/sam/drivers/twihs/twihs.c **** 		p_pdc_base = PDC_TWI0;
 620:../asf/sam/drivers/twihs/twihs.c **** 	} else {
 621:../asf/sam/drivers/twihs/twihs.c **** 		Assert(false);
 622:../asf/sam/drivers/twihs/twihs.c **** 	}
 623:../asf/sam/drivers/twihs/twihs.c **** 
 624:../asf/sam/drivers/twihs/twihs.c **** 	return p_pdc_base;
 625:../asf/sam/drivers/twihs/twihs.c **** }
 626:../asf/sam/drivers/twihs/twihs.c **** #endif
 627:../asf/sam/drivers/twihs/twihs.c **** 
 628:../asf/sam/drivers/twihs/twihs.c **** /**
 629:../asf/sam/drivers/twihs/twihs.c ****  * \brief Enables/Disables write protection mode.
 630:../asf/sam/drivers/twihs/twihs.c ****  *
 631:../asf/sam/drivers/twihs/twihs.c ****  * \param p_twihs Pointer to a TWIHS instance.
 632:../asf/sam/drivers/twihs/twihs.c ****  * \param flag ture for enable, false for disable.
ARM GAS  /tmp/ccsh7mrZ.s 			page 40


 633:../asf/sam/drivers/twihs/twihs.c ****  */
 634:../asf/sam/drivers/twihs/twihs.c **** void twihs_set_write_protection(Twihs *p_twihs, bool flag)
 635:../asf/sam/drivers/twihs/twihs.c **** {
 1364              		.loc 1 635 0
 1365              		.cfi_startproc
 1366              		@ args = 0, pretend = 0, frame = 0
 1367              		@ frame_needed = 0, uses_anonymous_args = 0
 1368              		@ link register save eliminated.
 1369              	.LVL145:
 636:../asf/sam/drivers/twihs/twihs.c **** 	if (flag) {
 1370              		.loc 1 636 0
 1371 0000 19B9     		cbnz	r1, .L148
 637:../asf/sam/drivers/twihs/twihs.c **** 		p_twihs->TWIHS_WPMR = TWIHS_WPMR_WPKEY_PASSWD | TWIHS_WPMR_WPEN;
 638:../asf/sam/drivers/twihs/twihs.c **** 	} else {
 639:../asf/sam/drivers/twihs/twihs.c **** 		p_twihs->TWIHS_WPMR = TWIHS_WPMR_WPKEY_PASSWD;
 1372              		.loc 1 639 0
 1373 0002 044B     		ldr	r3, .L149
 1374 0004 C0F8E430 		str	r3, [r0, #228]
 1375 0008 7047     		bx	lr
 1376              	.L148:
 637:../asf/sam/drivers/twihs/twihs.c **** 		p_twihs->TWIHS_WPMR = TWIHS_WPMR_WPKEY_PASSWD | TWIHS_WPMR_WPEN;
 1377              		.loc 1 637 0
 1378 000a 034B     		ldr	r3, .L149+4
 1379 000c C0F8E430 		str	r3, [r0, #228]
 1380 0010 7047     		bx	lr
 1381              	.L150:
 1382 0012 00BF     		.align	2
 1383              	.L149:
 1384 0014 00495754 		.word	1415006464
 1385 0018 01495754 		.word	1415006465
 1386              		.cfi_endproc
 1387              	.LFE188:
 1388              		.size	twihs_set_write_protection, .-twihs_set_write_protection
 1389              		.section	.text.twihs_read_write_protection_status,"ax",%progbits
 1390              		.align	1
 1391              		.p2align 2,,3
 1392              		.global	twihs_read_write_protection_status
 1393              		.syntax unified
 1394              		.thumb
 1395              		.thumb_func
 1396              		.fpu fpv5-d16
 1397              		.type	twihs_read_write_protection_status, %function
 1398              	twihs_read_write_protection_status:
 1399              	.LFB189:
 640:../asf/sam/drivers/twihs/twihs.c **** 	}
 641:../asf/sam/drivers/twihs/twihs.c **** }
 642:../asf/sam/drivers/twihs/twihs.c **** 
 643:../asf/sam/drivers/twihs/twihs.c **** /**
 644:../asf/sam/drivers/twihs/twihs.c ****  * \brief Read the write protection status.
 645:../asf/sam/drivers/twihs/twihs.c ****  *
 646:../asf/sam/drivers/twihs/twihs.c ****  * \param p_twihs Pointer to a TWIHS instance.
 647:../asf/sam/drivers/twihs/twihs.c ****  * \param p_status Pointer to save the status.
 648:../asf/sam/drivers/twihs/twihs.c ****  */
 649:../asf/sam/drivers/twihs/twihs.c **** void twihs_read_write_protection_status(Twihs *p_twihs, uint32_t *p_status)
 650:../asf/sam/drivers/twihs/twihs.c **** {
 1400              		.loc 1 650 0
 1401              		.cfi_startproc
ARM GAS  /tmp/ccsh7mrZ.s 			page 41


 1402              		@ args = 0, pretend = 0, frame = 0
 1403              		@ frame_needed = 0, uses_anonymous_args = 0
 1404              		@ link register save eliminated.
 1405              	.LVL146:
 651:../asf/sam/drivers/twihs/twihs.c **** 	*p_status = p_twihs->TWIHS_WPSR;
 1406              		.loc 1 651 0
 1407 0000 D0F8E830 		ldr	r3, [r0, #232]
 1408 0004 0B60     		str	r3, [r1]
 1409 0006 7047     		bx	lr
 1410              		.cfi_endproc
 1411              	.LFE189:
 1412              		.size	twihs_read_write_protection_status, .-twihs_read_write_protection_status
 1413              		.section	.text.twihs_smbus_set_timing,"ax",%progbits
 1414              		.align	1
 1415              		.p2align 2,,3
 1416              		.global	twihs_smbus_set_timing
 1417              		.syntax unified
 1418              		.thumb
 1419              		.thumb_func
 1420              		.fpu fpv5-d16
 1421              		.type	twihs_smbus_set_timing, %function
 1422              	twihs_smbus_set_timing:
 1423              	.LFB190:
 652:../asf/sam/drivers/twihs/twihs.c **** }
 653:../asf/sam/drivers/twihs/twihs.c **** 
 654:../asf/sam/drivers/twihs/twihs.c **** /**
 655:../asf/sam/drivers/twihs/twihs.c ****  * \brief Set the prescaler, TLOW:SEXT, TLOW:MEXT and clock high max cycles for SMBUS mode.
 656:../asf/sam/drivers/twihs/twihs.c ****  *
 657:../asf/sam/drivers/twihs/twihs.c ****  * \param p_twihs   Base address of the TWIHS instance.
 658:../asf/sam/drivers/twihs/twihs.c ****  * \param ul_timing Parameter for prescaler, TLOW:SEXT, TLOW:MEXT and clock high max cycles.
 659:../asf/sam/drivers/twihs/twihs.c ****  */
 660:../asf/sam/drivers/twihs/twihs.c **** void twihs_smbus_set_timing(Twihs *p_twihs, uint32_t ul_timing)
 661:../asf/sam/drivers/twihs/twihs.c **** {
 1424              		.loc 1 661 0
 1425              		.cfi_startproc
 1426              		@ args = 0, pretend = 0, frame = 0
 1427              		@ frame_needed = 0, uses_anonymous_args = 0
 1428              		@ link register save eliminated.
 1429              	.LVL147:
 662:../asf/sam/drivers/twihs/twihs.c **** 	p_twihs->TWIHS_SMBTR = ul_timing;;
 1430              		.loc 1 662 0
 1431 0000 8163     		str	r1, [r0, #56]
 1432 0002 7047     		bx	lr
 1433              		.cfi_endproc
 1434              	.LFE190:
 1435              		.size	twihs_smbus_set_timing, .-twihs_smbus_set_timing
 1436              		.section	.text.twihs_set_filter,"ax",%progbits
 1437              		.align	1
 1438              		.p2align 2,,3
 1439              		.global	twihs_set_filter
 1440              		.syntax unified
 1441              		.thumb
 1442              		.thumb_func
 1443              		.fpu fpv5-d16
 1444              		.type	twihs_set_filter, %function
 1445              	twihs_set_filter:
 1446              	.LFB191:
ARM GAS  /tmp/ccsh7mrZ.s 			page 42


 663:../asf/sam/drivers/twihs/twihs.c **** }
 664:../asf/sam/drivers/twihs/twihs.c **** 
 665:../asf/sam/drivers/twihs/twihs.c **** #if !(SAMV70 || SAMV71 || SAME70 || SAMS70)
 666:../asf/sam/drivers/twihs/twihs.c **** /**
 667:../asf/sam/drivers/twihs/twihs.c ****  * \brief Set length/direction/PEC for alternative command mode.
 668:../asf/sam/drivers/twihs/twihs.c ****  *
 669:../asf/sam/drivers/twihs/twihs.c ****  * \param p_twihs   Base address of the TWIHS instance.
 670:../asf/sam/drivers/twihs/twihs.c ****  * \param ul_alt_cmd Alternative command parameters.
 671:../asf/sam/drivers/twihs/twihs.c ****  */
 672:../asf/sam/drivers/twihs/twihs.c **** void twihs_set_alternative_command(Twihs *p_twihs, uint32_t ul_alt_cmd)
 673:../asf/sam/drivers/twihs/twihs.c **** {
 674:../asf/sam/drivers/twihs/twihs.c **** 	p_twihs->TWIHS_ACR = ul_alt_cmd;;
 675:../asf/sam/drivers/twihs/twihs.c **** }
 676:../asf/sam/drivers/twihs/twihs.c **** #endif
 677:../asf/sam/drivers/twihs/twihs.c **** 
 678:../asf/sam/drivers/twihs/twihs.c **** /**
 679:../asf/sam/drivers/twihs/twihs.c ****  * \brief Set the filter for TWIHS.
 680:../asf/sam/drivers/twihs/twihs.c ****  *
 681:../asf/sam/drivers/twihs/twihs.c ****  * \param p_twihs   Base address of the TWIHS instance.
 682:../asf/sam/drivers/twihs/twihs.c ****  * \param ul_filter   Filter value.
 683:../asf/sam/drivers/twihs/twihs.c ****  */
 684:../asf/sam/drivers/twihs/twihs.c **** void twihs_set_filter(Twihs *p_twihs, uint32_t ul_filter)
 685:../asf/sam/drivers/twihs/twihs.c **** {
 1447              		.loc 1 685 0
 1448              		.cfi_startproc
 1449              		@ args = 0, pretend = 0, frame = 0
 1450              		@ frame_needed = 0, uses_anonymous_args = 0
 1451              		@ link register save eliminated.
 1452              	.LVL148:
 686:../asf/sam/drivers/twihs/twihs.c **** 	p_twihs->TWIHS_FILTR = ul_filter;;
 1453              		.loc 1 686 0
 1454 0000 4164     		str	r1, [r0, #68]
 1455 0002 7047     		bx	lr
 1456              		.cfi_endproc
 1457              	.LFE191:
 1458              		.size	twihs_set_filter, .-twihs_set_filter
 1459              		.section	.text.twihs_mask_slave_addr,"ax",%progbits
 1460              		.align	1
 1461              		.p2align 2,,3
 1462              		.global	twihs_mask_slave_addr
 1463              		.syntax unified
 1464              		.thumb
 1465              		.thumb_func
 1466              		.fpu fpv5-d16
 1467              		.type	twihs_mask_slave_addr, %function
 1468              	twihs_mask_slave_addr:
 1469              	.LFB192:
 687:../asf/sam/drivers/twihs/twihs.c **** }
 688:../asf/sam/drivers/twihs/twihs.c **** 
 689:../asf/sam/drivers/twihs/twihs.c **** /**
 690:../asf/sam/drivers/twihs/twihs.c ****  * \brief A mask can be applied on the slave device address in slave mode in order to allow multipl
 691:../asf/sam/drivers/twihs/twihs.c ****  * address answer. For each bit of the MASK field set to one the corresponding SADR bit will be mas
 692:../asf/sam/drivers/twihs/twihs.c ****  *
 693:../asf/sam/drivers/twihs/twihs.c ****  * \param p_twihs   Base address of the TWIHS instance.
 694:../asf/sam/drivers/twihs/twihs.c ****  * \param ul_mask  Mask value.
 695:../asf/sam/drivers/twihs/twihs.c ****  */
 696:../asf/sam/drivers/twihs/twihs.c **** void twihs_mask_slave_addr(Twihs *p_twihs, uint32_t ul_mask)
ARM GAS  /tmp/ccsh7mrZ.s 			page 43


 697:../asf/sam/drivers/twihs/twihs.c **** {
 1470              		.loc 1 697 0
 1471              		.cfi_startproc
 1472              		@ args = 0, pretend = 0, frame = 0
 1473              		@ frame_needed = 0, uses_anonymous_args = 0
 1474              		@ link register save eliminated.
 1475              	.LVL149:
 698:../asf/sam/drivers/twihs/twihs.c **** 	p_twihs->TWIHS_SMR |= TWIHS_SMR_MASK(ul_mask);
 1476              		.loc 1 698 0
 1477 0000 0902     		lsls	r1, r1, #8
 1478              	.LVL150:
 1479 0002 8368     		ldr	r3, [r0, #8]
 1480 0004 01F4FE41 		and	r1, r1, #32512
 1481 0008 1943     		orrs	r1, r1, r3
 1482 000a 8160     		str	r1, [r0, #8]
 1483 000c 7047     		bx	lr
 1484              		.cfi_endproc
 1485              	.LFE192:
 1486              		.size	twihs_mask_slave_addr, .-twihs_mask_slave_addr
 1487 000e 00BF     		.section	.text.twihs_set_sleepwalking,"ax",%progbits
 1488              		.align	1
 1489              		.p2align 2,,3
 1490              		.global	twihs_set_sleepwalking
 1491              		.syntax unified
 1492              		.thumb
 1493              		.thumb_func
 1494              		.fpu fpv5-d16
 1495              		.type	twihs_set_sleepwalking, %function
 1496              	twihs_set_sleepwalking:
 1497              	.LFB193:
 699:../asf/sam/drivers/twihs/twihs.c **** }
 700:../asf/sam/drivers/twihs/twihs.c **** 
 701:../asf/sam/drivers/twihs/twihs.c **** #if (SAMG53 || SAMG54 || SAMV70 || SAMV71 || SAME70 || SAMS70)
 702:../asf/sam/drivers/twihs/twihs.c **** /**
 703:../asf/sam/drivers/twihs/twihs.c ****  * \brief Set sleepwalking match mode.
 704:../asf/sam/drivers/twihs/twihs.c ****  *
 705:../asf/sam/drivers/twihs/twihs.c ****  * \param p_twihs Pointer to a TWIHS instance.
 706:../asf/sam/drivers/twihs/twihs.c ****  * \param ul_matching_addr1   Address 1 value.
 707:../asf/sam/drivers/twihs/twihs.c ****  * \param ul_matching_addr2   Address 2 value.
 708:../asf/sam/drivers/twihs/twihs.c ****  * \param ul_matching_addr3   Address 3 value.
 709:../asf/sam/drivers/twihs/twihs.c ****  * \param ul_matching_data   Data value.
 710:../asf/sam/drivers/twihs/twihs.c ****  * \param flag1 ture for set, false for no.
 711:../asf/sam/drivers/twihs/twihs.c ****  * \param flag2 ture for set, false for no.
 712:../asf/sam/drivers/twihs/twihs.c ****  * \param flag3 ture for set, false for no.
 713:../asf/sam/drivers/twihs/twihs.c ****  * \param flag ture for set, false for no.
 714:../asf/sam/drivers/twihs/twihs.c ****  */
 715:../asf/sam/drivers/twihs/twihs.c **** void twihs_set_sleepwalking(Twihs *p_twihs,
 716:../asf/sam/drivers/twihs/twihs.c **** 		uint32_t ul_matching_addr1, bool flag1,
 717:../asf/sam/drivers/twihs/twihs.c **** 		uint32_t ul_matching_addr2, bool flag2,
 718:../asf/sam/drivers/twihs/twihs.c **** 		uint32_t ul_matching_addr3, bool flag3,
 719:../asf/sam/drivers/twihs/twihs.c **** 		uint32_t ul_matching_data, bool flag)
 720:../asf/sam/drivers/twihs/twihs.c **** {
 1498              		.loc 1 720 0
 1499              		.cfi_startproc
 1500              		@ args = 20, pretend = 0, frame = 0
 1501              		@ frame_needed = 0, uses_anonymous_args = 0
 1502              		@ link register save eliminated.
ARM GAS  /tmp/ccsh7mrZ.s 			page 44


 1503              	.LVL151:
 1504 0000 70B4     		push	{r4, r5, r6}
 1505              		.cfi_def_cfa_offset 12
 1506              		.cfi_offset 4, -12
 1507              		.cfi_offset 5, -8
 1508              		.cfi_offset 6, -4
 1509              		.loc 1 720 0
 1510 0002 9DF80C60 		ldrb	r6, [sp, #12]	@ zero_extendqisi2
 1511 0006 9DF81450 		ldrb	r5, [sp, #20]	@ zero_extendqisi2
 1512 000a 9DF81C40 		ldrb	r4, [sp, #28]	@ zero_extendqisi2
 721:../asf/sam/drivers/twihs/twihs.c **** 	uint32_t temp = 0;
 722:../asf/sam/drivers/twihs/twihs.c **** 
 723:../asf/sam/drivers/twihs/twihs.c **** 	if (flag1) {
 1513              		.loc 1 723 0
 1514 000e 0AB1     		cbz	r2, .L156
 724:../asf/sam/drivers/twihs/twihs.c **** 		temp |= TWIHS_SWMR_SADR1(ul_matching_addr1);
 1515              		.loc 1 724 0
 1516 0010 01F07F02 		and	r2, r1, #127
 1517              	.LVL152:
 1518              	.L156:
 725:../asf/sam/drivers/twihs/twihs.c **** 	}
 726:../asf/sam/drivers/twihs/twihs.c **** 
 727:../asf/sam/drivers/twihs/twihs.c **** 	if (flag2) {
 1519              		.loc 1 727 0
 1520 0014 1EB1     		cbz	r6, .L157
 728:../asf/sam/drivers/twihs/twihs.c **** 		temp |= TWIHS_SWMR_SADR2(ul_matching_addr2);
 1521              		.loc 1 728 0
 1522 0016 1B02     		lsls	r3, r3, #8
 1523              	.LVL153:
 1524 0018 03F4FE43 		and	r3, r3, #32512
 1525 001c 1A43     		orrs	r2, r2, r3
 1526              	.LVL154:
 1527              	.L157:
 729:../asf/sam/drivers/twihs/twihs.c **** 	}
 730:../asf/sam/drivers/twihs/twihs.c **** 
 731:../asf/sam/drivers/twihs/twihs.c **** 	if (flag3) {
 1528              		.loc 1 731 0
 1529 001e 25B1     		cbz	r5, .L158
 732:../asf/sam/drivers/twihs/twihs.c **** 		temp |= TWIHS_SWMR_SADR3(ul_matching_addr3);
 1530              		.loc 1 732 0
 1531 0020 049B     		ldr	r3, [sp, #16]
 1532 0022 1B04     		lsls	r3, r3, #16
 1533 0024 03F4FE03 		and	r3, r3, #8323072
 1534 0028 1A43     		orrs	r2, r2, r3
 1535              	.LVL155:
 1536              	.L158:
 733:../asf/sam/drivers/twihs/twihs.c **** 	}
 734:../asf/sam/drivers/twihs/twihs.c **** 
 735:../asf/sam/drivers/twihs/twihs.c **** 	if (flag) {
 1537              		.loc 1 735 0
 1538 002a 14B1     		cbz	r4, .L159
 736:../asf/sam/drivers/twihs/twihs.c **** 		temp |= TWIHS_SWMR_DATAM(ul_matching_data);
 1539              		.loc 1 736 0
 1540 002c 069B     		ldr	r3, [sp, #24]
 1541 002e 42EA0362 		orr	r2, r2, r3, lsl #24
 1542              	.LVL156:
 1543              	.L159:
ARM GAS  /tmp/ccsh7mrZ.s 			page 45


 737:../asf/sam/drivers/twihs/twihs.c **** 	}
 738:../asf/sam/drivers/twihs/twihs.c **** 
 739:../asf/sam/drivers/twihs/twihs.c **** 	p_twihs->TWIHS_SWMR = temp;
 1544              		.loc 1 739 0
 1545 0032 C264     		str	r2, [r0, #76]
 740:../asf/sam/drivers/twihs/twihs.c **** }
 1546              		.loc 1 740 0
 1547 0034 70BC     		pop	{r4, r5, r6}
 1548              		.cfi_restore 6
 1549              		.cfi_restore 5
 1550              		.cfi_restore 4
 1551              		.cfi_def_cfa_offset 0
 1552              	.LVL157:
 1553 0036 7047     		bx	lr
 1554              		.cfi_endproc
 1555              	.LFE193:
 1556              		.size	twihs_set_sleepwalking, .-twihs_set_sleepwalking
 1557              		.section	.bss.cpu_irq_critical_section_counter,"aw",%nobits
 1558              		.align	2
 1559              		.type	cpu_irq_critical_section_counter, %object
 1560              		.size	cpu_irq_critical_section_counter, 4
 1561              	cpu_irq_critical_section_counter:
 1562 0000 00000000 		.space	4
 1563              		.section	.bss.cpu_irq_prev_interrupt_state,"aw",%nobits
 1564              		.type	cpu_irq_prev_interrupt_state, %object
 1565              		.size	cpu_irq_prev_interrupt_state, 1
 1566              	cpu_irq_prev_interrupt_state:
 1567 0000 00       		.space	1
 1568              		.text
 1569              	.Letext0:
 1570              		.file 2 "/usr/include/newlib/machine/_default_types.h"
 1571              		.file 3 "/usr/include/newlib/sys/_stdint.h"
 1572              		.file 4 "/home/torbjorn/eclipse-workspace/CoreNG/asf/thirdparty/CMSIS/Include/core_cm7.h"
 1573              		.file 5 "/home/torbjorn/eclipse-workspace/CoreNG/variants/same70/system_same70.h"
 1574              		.file 6 "/home/torbjorn/eclipse-workspace/CoreNG/asf/sam/utils/cmsis/same70/include/component/twih
 1575              		.file 7 "/usr/include/newlib/sys/lock.h"
 1576              		.file 8 "/usr/include/newlib/sys/_types.h"
 1577              		.file 9 "/usr/lib/gcc/arm-none-eabi/6.3.1/include/stddef.h"
 1578              		.file 10 "/usr/include/newlib/sys/reent.h"
 1579              		.file 11 "/usr/include/newlib/stdlib.h"
 1580              		.file 12 "/home/torbjorn/eclipse-workspace/CoreNG/asf/common/utils/interrupt/interrupt_sam_nvic.h"
 1581              		.file 13 "../asf/sam/drivers/twihs/twihs.h"