ARM GAS  /tmp/ccpdZtB5.s 			page 1


   1              		.cpu cortex-m7
   2              		.eabi_attribute 28, 1
   3              		.eabi_attribute 20, 1
   4              		.eabi_attribute 21, 1
   5              		.eabi_attribute 23, 3
   6              		.eabi_attribute 24, 1
   7              		.eabi_attribute 25, 1
   8              		.eabi_attribute 26, 1
   9              		.eabi_attribute 30, 2
  10              		.eabi_attribute 34, 1
  11              		.eabi_attribute 18, 4
  12              		.file	"USBSerial.cpp"
  13              		.text
  14              	.Ltext0:
  15              		.cfi_sections	.debug_frame
  16              		.section	.text._ZN9SerialCDC4peekEv,"ax",%progbits
  17              		.align	1
  18              		.p2align 2,,3
  19              		.global	_ZN9SerialCDC4peekEv
  20              		.syntax unified
  21              		.thumb
  22              		.thumb_func
  23              		.fpu fpv5-d16
  24              		.type	_ZN9SerialCDC4peekEv, %function
  25              	_ZN9SerialCDC4peekEv:
  26              	.LFB192:
  27              		.file 1 "../cores/arduino/USB/USBSerial.cpp"
   1:../cores/arduino/USB/USBSerial.cpp **** /*
   2:../cores/arduino/USB/USBSerial.cpp ****  * USBSerial.cpp
   3:../cores/arduino/USB/USBSerial.cpp ****  *
   4:../cores/arduino/USB/USBSerial.cpp ****  *  Created on: 18 Mar 2016
   5:../cores/arduino/USB/USBSerial.cpp ****  *      Author: David
   6:../cores/arduino/USB/USBSerial.cpp ****  */
   7:../cores/arduino/USB/USBSerial.cpp **** 
   8:../cores/arduino/USB/USBSerial.cpp **** #include "USBSerial.h"
   9:../cores/arduino/USB/USBSerial.cpp **** #include "conf_usb.h"		// include this to check that the signatures of the callback functions are c
  10:../cores/arduino/USB/USBSerial.cpp **** #include "udi_cdc.h"		// Atmel CDC module
  11:../cores/arduino/USB/USBSerial.cpp **** #include "udc.h"
  12:../cores/arduino/USB/USBSerial.cpp **** 
  13:../cores/arduino/USB/USBSerial.cpp **** #if SAM4E || SAM4S
  14:../cores/arduino/USB/USBSerial.cpp **** # include "WInterrupts.h"
  15:../cores/arduino/USB/USBSerial.cpp **** 
  16:../cores/arduino/USB/USBSerial.cpp **** void core_vbus_off(CallbackParameter);
  17:../cores/arduino/USB/USBSerial.cpp **** #endif
  18:../cores/arduino/USB/USBSerial.cpp **** 
  19:../cores/arduino/USB/USBSerial.cpp **** // SerialCDC members
  20:../cores/arduino/USB/USBSerial.cpp **** 
  21:../cores/arduino/USB/USBSerial.cpp **** SerialCDC::SerialCDC() : /* _cdc_tx_buffer(), */ txBufsize(1), isConnected(false)
  22:../cores/arduino/USB/USBSerial.cpp **** {
  23:../cores/arduino/USB/USBSerial.cpp **** }
  24:../cores/arduino/USB/USBSerial.cpp **** 
  25:../cores/arduino/USB/USBSerial.cpp **** void SerialCDC::begin(uint32_t baud_count)
  26:../cores/arduino/USB/USBSerial.cpp **** {
  27:../cores/arduino/USB/USBSerial.cpp **** 	// suppress "unused parameter" warning
  28:../cores/arduino/USB/USBSerial.cpp **** 	(void)baud_count;
  29:../cores/arduino/USB/USBSerial.cpp **** 	udc_start();
  30:../cores/arduino/USB/USBSerial.cpp **** 
ARM GAS  /tmp/ccpdZtB5.s 			page 2


  31:../cores/arduino/USB/USBSerial.cpp **** #if SAM4E || SAM4S
  32:../cores/arduino/USB/USBSerial.cpp **** 	static bool isInterruptAttached = false;
  33:../cores/arduino/USB/USBSerial.cpp **** 	if (!isInterruptAttached)
  34:../cores/arduino/USB/USBSerial.cpp **** 	{
  35:../cores/arduino/USB/USBSerial.cpp **** 		isInterruptAttached = true;
  36:../cores/arduino/USB/USBSerial.cpp **** 		attachInterrupt(USB_VBUS_PIN, core_vbus_off, INTERRUPT_MODE_FALLING, nullptr);
  37:../cores/arduino/USB/USBSerial.cpp **** 	}
  38:../cores/arduino/USB/USBSerial.cpp **** #endif
  39:../cores/arduino/USB/USBSerial.cpp **** }
  40:../cores/arduino/USB/USBSerial.cpp **** 
  41:../cores/arduino/USB/USBSerial.cpp **** void SerialCDC::begin(uint32_t baud_count, uint8_t config)
  42:../cores/arduino/USB/USBSerial.cpp **** {
  43:../cores/arduino/USB/USBSerial.cpp **** 	// suppress "unused parameter" warning
  44:../cores/arduino/USB/USBSerial.cpp **** 	(void)baud_count;
  45:../cores/arduino/USB/USBSerial.cpp **** 	(void)config;
  46:../cores/arduino/USB/USBSerial.cpp **** 	udc_start();
  47:../cores/arduino/USB/USBSerial.cpp **** }
  48:../cores/arduino/USB/USBSerial.cpp **** 
  49:../cores/arduino/USB/USBSerial.cpp **** void SerialCDC::end()
  50:../cores/arduino/USB/USBSerial.cpp **** {
  51:../cores/arduino/USB/USBSerial.cpp **** 	isConnected = false;
  52:../cores/arduino/USB/USBSerial.cpp **** 	udc_stop();
  53:../cores/arduino/USB/USBSerial.cpp **** }
  54:../cores/arduino/USB/USBSerial.cpp **** 
  55:../cores/arduino/USB/USBSerial.cpp **** int SerialCDC::available()
  56:../cores/arduino/USB/USBSerial.cpp **** {
  57:../cores/arduino/USB/USBSerial.cpp **** 	return (isConnected) ? udi_cdc_get_nb_received_data() : 0;
  58:../cores/arduino/USB/USBSerial.cpp **** }
  59:../cores/arduino/USB/USBSerial.cpp **** 
  60:../cores/arduino/USB/USBSerial.cpp **** int SerialCDC::peek()
  61:../cores/arduino/USB/USBSerial.cpp **** {
  28              		.loc 1 61 0
  29              		.cfi_startproc
  30              		@ args = 0, pretend = 0, frame = 0
  31              		@ frame_needed = 0, uses_anonymous_args = 0
  32              		@ link register save eliminated.
  33              	.LVL0:
  62:../cores/arduino/USB/USBSerial.cpp **** 	return -1;				// not supported
  63:../cores/arduino/USB/USBSerial.cpp **** }
  34              		.loc 1 63 0
  35 0000 4FF0FF30 		mov	r0, #-1
  36              	.LVL1:
  37 0004 7047     		bx	lr
  38              		.cfi_endproc
  39              	.LFE192:
  40              		.size	_ZN9SerialCDC4peekEv, .-_ZN9SerialCDC4peekEv
  41 0006 00BF     		.section	.text._ZN9SerialCDCD2Ev,"axG",%progbits,_ZN9SerialCDCD5Ev,comdat
  42              		.align	1
  43              		.p2align 2,,3
  44              		.weak	_ZN9SerialCDCD2Ev
  45              		.syntax unified
  46              		.thumb
  47              		.thumb_func
  48              		.fpu fpv5-d16
  49              		.type	_ZN9SerialCDCD2Ev, %function
  50              	_ZN9SerialCDCD2Ev:
  51              	.LFB208:
ARM GAS  /tmp/ccpdZtB5.s 			page 3


  52              		.file 2 "../cores/arduino/USB/USBSerial.h"
   1:../cores/arduino/USB/USBSerial.h **** /*
   2:../cores/arduino/USB/USBSerial.h ****  * USBSerial.h
   3:../cores/arduino/USB/USBSerial.h ****  *
   4:../cores/arduino/USB/USBSerial.h ****  *  Created on: 18 Mar 2016
   5:../cores/arduino/USB/USBSerial.h ****  *      Author: David
   6:../cores/arduino/USB/USBSerial.h ****  */
   7:../cores/arduino/USB/USBSerial.h **** 
   8:../cores/arduino/USB/USBSerial.h **** #ifndef USBSERIAL_H_
   9:../cores/arduino/USB/USBSerial.h **** #define USBSERIAL_H_
  10:../cores/arduino/USB/USBSerial.h **** 
  11:../cores/arduino/USB/USBSerial.h **** #include "Stream.h"
  12:../cores/arduino/USB/USBSerial.h **** 
  13:../cores/arduino/USB/USBSerial.h **** // Serial over CDC
  14:../cores/arduino/USB/USBSerial.h **** 
  15:../cores/arduino/USB/USBSerial.h **** class SerialCDC : public Stream
  53              		.loc 2 15 0
  54              		.cfi_startproc
  55              		@ args = 0, pretend = 0, frame = 0
  56              		@ frame_needed = 0, uses_anonymous_args = 0
  57              		@ link register save eliminated.
  58              	.LVL2:
  59              		.loc 2 15 0
  60 0000 7047     		bx	lr
  61              		.cfi_endproc
  62              	.LFE208:
  63              		.size	_ZN9SerialCDCD2Ev, .-_ZN9SerialCDCD2Ev
  64              		.weak	_ZN9SerialCDCD1Ev
  65              		.thumb_set _ZN9SerialCDCD1Ev,_ZN9SerialCDCD2Ev
  66 0002 00BF     		.section	.text._ZN9SerialCDC9availableEv,"ax",%progbits
  67              		.align	1
  68              		.p2align 2,,3
  69              		.global	_ZN9SerialCDC9availableEv
  70              		.syntax unified
  71              		.thumb
  72              		.thumb_func
  73              		.fpu fpv5-d16
  74              		.type	_ZN9SerialCDC9availableEv, %function
  75              	_ZN9SerialCDC9availableEv:
  76              	.LFB191:
  56:../cores/arduino/USB/USBSerial.cpp **** 	return (isConnected) ? udi_cdc_get_nb_received_data() : 0;
  77              		.loc 1 56 0
  78              		.cfi_startproc
  79              		@ args = 0, pretend = 0, frame = 0
  80              		@ frame_needed = 0, uses_anonymous_args = 0
  81              		@ link register save eliminated.
  82              	.LVL3:
  57:../cores/arduino/USB/USBSerial.cpp **** }
  83              		.loc 1 57 0
  84 0000 007D     		ldrb	r0, [r0, #20]	@ zero_extendqisi2
  85              	.LVL4:
  86 0002 00B9     		cbnz	r0, .L6
  58:../cores/arduino/USB/USBSerial.cpp **** 
  87              		.loc 1 58 0 discriminator 4
  88 0004 7047     		bx	lr
  89              	.L6:
  57:../cores/arduino/USB/USBSerial.cpp **** }
ARM GAS  /tmp/ccpdZtB5.s 			page 4


  90              		.loc 1 57 0 discriminator 1
  91 0006 FFF7FEBF 		b	udi_cdc_get_nb_received_data
  92              	.LVL5:
  93              		.cfi_endproc
  94              	.LFE191:
  95              		.size	_ZN9SerialCDC9availableEv, .-_ZN9SerialCDC9availableEv
  96 000a 00BF     		.section	.text._ZN9SerialCDC4readEv,"ax",%progbits
  97              		.align	1
  98              		.p2align 2,,3
  99              		.global	_ZN9SerialCDC4readEv
 100              		.syntax unified
 101              		.thumb
 102              		.thumb_func
 103              		.fpu fpv5-d16
 104              		.type	_ZN9SerialCDC4readEv, %function
 105              	_ZN9SerialCDC4readEv:
 106              	.LFB193:
  64:../cores/arduino/USB/USBSerial.cpp **** 
  65:../cores/arduino/USB/USBSerial.cpp **** int SerialCDC::read()
  66:../cores/arduino/USB/USBSerial.cpp **** {
 107              		.loc 1 66 0
 108              		.cfi_startproc
 109              		@ args = 0, pretend = 0, frame = 0
 110              		@ frame_needed = 0, uses_anonymous_args = 0
 111              	.LVL6:
 112 0000 08B5     		push	{r3, lr}
 113              		.cfi_def_cfa_offset 8
 114              		.cfi_offset 3, -8
 115              		.cfi_offset 14, -4
  67:../cores/arduino/USB/USBSerial.cpp **** 	return (udi_cdc_is_rx_ready()) ? udi_cdc_getc() : -1;
 116              		.loc 1 67 0
 117 0002 FFF7FEFF 		bl	udi_cdc_is_rx_ready
 118              	.LVL7:
 119 0006 18B1     		cbz	r0, .L8
  68:../cores/arduino/USB/USBSerial.cpp **** }
 120              		.loc 1 68 0 discriminator 1
 121 0008 BDE80840 		pop	{r3, lr}
 122              		.cfi_remember_state
 123              		.cfi_restore 14
 124              		.cfi_restore 3
 125              		.cfi_def_cfa_offset 0
  67:../cores/arduino/USB/USBSerial.cpp **** 	return (udi_cdc_is_rx_ready()) ? udi_cdc_getc() : -1;
 126              		.loc 1 67 0 discriminator 1
 127 000c FFF7FEBF 		b	udi_cdc_getc
 128              	.LVL8:
 129              	.L8:
 130              		.cfi_restore_state
 131              		.loc 1 68 0 discriminator 4
 132 0010 4FF0FF30 		mov	r0, #-1
 133 0014 08BD     		pop	{r3, pc}
 134              		.cfi_endproc
 135              	.LFE193:
 136              		.size	_ZN9SerialCDC4readEv, .-_ZN9SerialCDC4readEv
 137 0016 00BF     		.section	.text._ZN9SerialCDC9readBytesEPcj,"ax",%progbits
 138              		.align	1
 139              		.p2align 2,,3
 140              		.global	_ZN9SerialCDC9readBytesEPcj
ARM GAS  /tmp/ccpdZtB5.s 			page 5


 141              		.syntax unified
 142              		.thumb
 143              		.thumb_func
 144              		.fpu fpv5-d16
 145              		.type	_ZN9SerialCDC9readBytesEPcj, %function
 146              	_ZN9SerialCDC9readBytesEPcj:
 147              	.LFB194:
  69:../cores/arduino/USB/USBSerial.cpp **** 
  70:../cores/arduino/USB/USBSerial.cpp **** size_t SerialCDC::readBytes(char *buffer, size_t length)
  71:../cores/arduino/USB/USBSerial.cpp **** {
 148              		.loc 1 71 0
 149              		.cfi_startproc
 150              		@ args = 0, pretend = 0, frame = 0
 151              		@ frame_needed = 0, uses_anonymous_args = 0
 152              	.LVL9:
 153 0000 38B5     		push	{r3, r4, r5, lr}
 154              		.cfi_def_cfa_offset 16
 155              		.cfi_offset 3, -16
 156              		.cfi_offset 4, -12
 157              		.cfi_offset 5, -8
 158              		.cfi_offset 14, -4
 159              		.loc 1 71 0
 160 0002 0C46     		mov	r4, r1
 161 0004 1546     		mov	r5, r2
  72:../cores/arduino/USB/USBSerial.cpp **** 	return (udi_cdc_is_rx_ready()) ? udi_cdc_read_buf(buffer, length) : 0;
 162              		.loc 1 72 0
 163 0006 FFF7FEFF 		bl	udi_cdc_is_rx_ready
 164              	.LVL10:
 165 000a 00B9     		cbnz	r0, .L13
  73:../cores/arduino/USB/USBSerial.cpp **** }
 166              		.loc 1 73 0 discriminator 4
 167 000c 38BD     		pop	{r3, r4, r5, pc}
 168              	.LVL11:
 169              	.L13:
  72:../cores/arduino/USB/USBSerial.cpp **** 	return (udi_cdc_is_rx_ready()) ? udi_cdc_read_buf(buffer, length) : 0;
 170              		.loc 1 72 0 discriminator 1
 171 000e 2946     		mov	r1, r5
 172 0010 2046     		mov	r0, r4
 173              		.loc 1 73 0 discriminator 1
 174 0012 BDE83840 		pop	{r3, r4, r5, lr}
 175              		.cfi_restore 14
 176              		.cfi_restore 5
 177              		.cfi_restore 4
 178              		.cfi_restore 3
 179              		.cfi_def_cfa_offset 0
 180              	.LVL12:
  72:../cores/arduino/USB/USBSerial.cpp **** 	return (udi_cdc_is_rx_ready()) ? udi_cdc_read_buf(buffer, length) : 0;
 181              		.loc 1 72 0 discriminator 1
 182 0016 FFF7FEBF 		b	udi_cdc_read_buf
 183              	.LVL13:
 184              		.cfi_endproc
 185              	.LFE194:
 186              		.size	_ZN9SerialCDC9readBytesEPcj, .-_ZN9SerialCDC9readBytesEPcj
 187 001a 00BF     		.section	.text._ZN9SerialCDC5flushEv,"ax",%progbits
 188              		.align	1
 189              		.p2align 2,,3
 190              		.global	_ZN9SerialCDC5flushEv
ARM GAS  /tmp/ccpdZtB5.s 			page 6


 191              		.syntax unified
 192              		.thumb
 193              		.thumb_func
 194              		.fpu fpv5-d16
 195              		.type	_ZN9SerialCDC5flushEv, %function
 196              	_ZN9SerialCDC5flushEv:
 197              	.LFB195:
  74:../cores/arduino/USB/USBSerial.cpp **** 
  75:../cores/arduino/USB/USBSerial.cpp **** void SerialCDC::flush(void)
  76:../cores/arduino/USB/USBSerial.cpp **** {
 198              		.loc 1 76 0
 199              		.cfi_startproc
 200              		@ args = 0, pretend = 0, frame = 0
 201              		@ frame_needed = 0, uses_anonymous_args = 0
 202              	.LVL14:
 203 0000 10B5     		push	{r4, lr}
 204              		.cfi_def_cfa_offset 8
 205              		.cfi_offset 4, -8
 206              		.cfi_offset 14, -4
 207 0002 0446     		mov	r4, r0
 208              	.LVL15:
 209              	.L16:
  77:../cores/arduino/USB/USBSerial.cpp **** 	while (isConnected && udi_cdc_get_free_tx_buffer() < txBufsize) {}
 210              		.loc 1 77 0
 211 0004 237D     		ldrb	r3, [r4, #20]	@ zero_extendqisi2
 212 0006 03B9     		cbnz	r3, .L20
 213 0008 10BD     		pop	{r4, pc}
 214              	.LVL16:
 215              	.L20:
 216              		.loc 1 77 0 is_stmt 0 discriminator 1
 217 000a FFF7FEFF 		bl	udi_cdc_get_free_tx_buffer
 218              	.LVL17:
 219 000e 2369     		ldr	r3, [r4, #16]
 220 0010 9842     		cmp	r0, r3
 221 0012 F7D3     		bcc	.L16
 222 0014 10BD     		pop	{r4, pc}
 223              		.cfi_endproc
 224              	.LFE195:
 225              		.size	_ZN9SerialCDC5flushEv, .-_ZN9SerialCDC5flushEv
 226 0016 00BF     		.section	.text._ZNK9SerialCDC8canWriteEv,"ax",%progbits
 227              		.align	1
 228              		.p2align 2,,3
 229              		.global	_ZNK9SerialCDC8canWriteEv
 230              		.syntax unified
 231              		.thumb
 232              		.thumb_func
 233              		.fpu fpv5-d16
 234              		.type	_ZNK9SerialCDC8canWriteEv, %function
 235              	_ZNK9SerialCDC8canWriteEv:
 236              	.LFB198:
  78:../cores/arduino/USB/USBSerial.cpp **** }
  79:../cores/arduino/USB/USBSerial.cpp **** 
  80:../cores/arduino/USB/USBSerial.cpp **** size_t SerialCDC::write(uint8_t c)
  81:../cores/arduino/USB/USBSerial.cpp **** {
  82:../cores/arduino/USB/USBSerial.cpp **** 	if (isConnected)
  83:../cores/arduino/USB/USBSerial.cpp **** 	{
  84:../cores/arduino/USB/USBSerial.cpp **** 		udi_cdc_putc(c);
ARM GAS  /tmp/ccpdZtB5.s 			page 7


  85:../cores/arduino/USB/USBSerial.cpp **** 	}
  86:../cores/arduino/USB/USBSerial.cpp **** 	return 1;
  87:../cores/arduino/USB/USBSerial.cpp **** }
  88:../cores/arduino/USB/USBSerial.cpp **** 
  89:../cores/arduino/USB/USBSerial.cpp **** // Non-blocking write to USB. Returns number of bytes written. If we are not connected, pretend tha
  90:../cores/arduino/USB/USBSerial.cpp **** size_t SerialCDC::write(const uint8_t *buffer, size_t size)
  91:../cores/arduino/USB/USBSerial.cpp **** {
  92:../cores/arduino/USB/USBSerial.cpp **** 	if (isConnected && size != 0)
  93:../cores/arduino/USB/USBSerial.cpp **** 	{
  94:../cores/arduino/USB/USBSerial.cpp **** 		const size_t remaining = udi_cdc_write_buf(buffer, size);
  95:../cores/arduino/USB/USBSerial.cpp **** 		return size - remaining;
  96:../cores/arduino/USB/USBSerial.cpp **** 	}
  97:../cores/arduino/USB/USBSerial.cpp **** 	return size;
  98:../cores/arduino/USB/USBSerial.cpp **** }
  99:../cores/arduino/USB/USBSerial.cpp **** 
 100:../cores/arduino/USB/USBSerial.cpp **** size_t SerialCDC::canWrite() const
 101:../cores/arduino/USB/USBSerial.cpp **** {
 237              		.loc 1 101 0 is_stmt 1
 238              		.cfi_startproc
 239              		@ args = 0, pretend = 0, frame = 0
 240              		@ frame_needed = 0, uses_anonymous_args = 0
 241              		@ link register save eliminated.
 242              	.LVL18:
 102:../cores/arduino/USB/USBSerial.cpp **** 	return (isConnected) ? udi_cdc_get_free_tx_buffer() : 0;
 243              		.loc 1 102 0
 244 0000 007D     		ldrb	r0, [r0, #20]	@ zero_extendqisi2
 245              	.LVL19:
 246 0002 00B9     		cbnz	r0, .L23
 103:../cores/arduino/USB/USBSerial.cpp **** }
 247              		.loc 1 103 0 discriminator 4
 248 0004 7047     		bx	lr
 249              	.L23:
 102:../cores/arduino/USB/USBSerial.cpp **** 	return (isConnected) ? udi_cdc_get_free_tx_buffer() : 0;
 250              		.loc 1 102 0 discriminator 1
 251 0006 FFF7FEBF 		b	udi_cdc_get_free_tx_buffer
 252              	.LVL20:
 253              		.cfi_endproc
 254              	.LFE198:
 255              		.size	_ZNK9SerialCDC8canWriteEv, .-_ZNK9SerialCDC8canWriteEv
 256 000a 00BF     		.section	.text._ZN9SerialCDC5writeEh,"ax",%progbits
 257              		.align	1
 258              		.p2align 2,,3
 259              		.global	_ZN9SerialCDC5writeEh
 260              		.syntax unified
 261              		.thumb
 262              		.thumb_func
 263              		.fpu fpv5-d16
 264              		.type	_ZN9SerialCDC5writeEh, %function
 265              	_ZN9SerialCDC5writeEh:
 266              	.LFB196:
  81:../cores/arduino/USB/USBSerial.cpp **** 	if (isConnected)
 267              		.loc 1 81 0
 268              		.cfi_startproc
 269              		@ args = 0, pretend = 0, frame = 0
 270              		@ frame_needed = 0, uses_anonymous_args = 0
 271              	.LVL21:
 272 0000 08B5     		push	{r3, lr}
ARM GAS  /tmp/ccpdZtB5.s 			page 8


 273              		.cfi_def_cfa_offset 8
 274              		.cfi_offset 3, -8
 275              		.cfi_offset 14, -4
  82:../cores/arduino/USB/USBSerial.cpp **** 	{
 276              		.loc 1 82 0
 277 0002 037D     		ldrb	r3, [r0, #20]	@ zero_extendqisi2
 278 0004 13B1     		cbz	r3, .L25
 279 0006 0846     		mov	r0, r1
 280              	.LVL22:
  84:../cores/arduino/USB/USBSerial.cpp **** 	}
 281              		.loc 1 84 0
 282 0008 FFF7FEFF 		bl	udi_cdc_putc
 283              	.LVL23:
 284              	.L25:
  87:../cores/arduino/USB/USBSerial.cpp **** 
 285              		.loc 1 87 0
 286 000c 0120     		movs	r0, #1
 287 000e 08BD     		pop	{r3, pc}
 288              		.cfi_endproc
 289              	.LFE196:
 290              		.size	_ZN9SerialCDC5writeEh, .-_ZN9SerialCDC5writeEh
 291              		.section	.text._ZN9SerialCDCD0Ev,"axG",%progbits,_ZN9SerialCDCD5Ev,comdat
 292              		.align	1
 293              		.p2align 2,,3
 294              		.weak	_ZN9SerialCDCD0Ev
 295              		.syntax unified
 296              		.thumb
 297              		.thumb_func
 298              		.fpu fpv5-d16
 299              		.type	_ZN9SerialCDCD0Ev, %function
 300              	_ZN9SerialCDCD0Ev:
 301              	.LFB210:
 302              		.loc 2 15 0
 303              		.cfi_startproc
 304              		@ args = 0, pretend = 0, frame = 0
 305              		@ frame_needed = 0, uses_anonymous_args = 0
 306              	.LVL24:
 307 0000 10B5     		push	{r4, lr}
 308              		.cfi_def_cfa_offset 8
 309              		.cfi_offset 4, -8
 310              		.cfi_offset 14, -4
 311              		.loc 2 15 0
 312 0002 0446     		mov	r4, r0
 313 0004 1821     		movs	r1, #24
 314 0006 FFF7FEFF 		bl	_ZdlPvj
 315              	.LVL25:
 316 000a 2046     		mov	r0, r4
 317 000c 10BD     		pop	{r4, pc}
 318              		.cfi_endproc
 319              	.LFE210:
 320              		.size	_ZN9SerialCDCD0Ev, .-_ZN9SerialCDCD0Ev
 321 000e 00BF     		.section	.text._ZN9SerialCDC5writeEPKhj,"ax",%progbits
 322              		.align	1
 323              		.p2align 2,,3
 324              		.global	_ZN9SerialCDC5writeEPKhj
 325              		.syntax unified
 326              		.thumb
ARM GAS  /tmp/ccpdZtB5.s 			page 9


 327              		.thumb_func
 328              		.fpu fpv5-d16
 329              		.type	_ZN9SerialCDC5writeEPKhj, %function
 330              	_ZN9SerialCDC5writeEPKhj:
 331              	.LFB197:
  91:../cores/arduino/USB/USBSerial.cpp **** 	if (isConnected && size != 0)
 332              		.loc 1 91 0
 333              		.cfi_startproc
 334              		@ args = 0, pretend = 0, frame = 0
 335              		@ frame_needed = 0, uses_anonymous_args = 0
 336              	.LVL26:
 337              	.LBB69:
  92:../cores/arduino/USB/USBSerial.cpp **** 	{
 338              		.loc 1 92 0
 339 0000 037D     		ldrb	r3, [r0, #20]	@ zero_extendqisi2
 340              	.LBE69:
  91:../cores/arduino/USB/USBSerial.cpp **** 	if (isConnected && size != 0)
 341              		.loc 1 91 0
 342 0002 10B5     		push	{r4, lr}
 343              		.cfi_def_cfa_offset 8
 344              		.cfi_offset 4, -8
 345              		.cfi_offset 14, -4
  91:../cores/arduino/USB/USBSerial.cpp **** 	if (isConnected && size != 0)
 346              		.loc 1 91 0
 347 0004 1446     		mov	r4, r2
 348              	.LBB70:
  92:../cores/arduino/USB/USBSerial.cpp **** 	{
 349              		.loc 1 92 0
 350 0006 03B1     		cbz	r3, .L33
  92:../cores/arduino/USB/USBSerial.cpp **** 	{
 351              		.loc 1 92 0 is_stmt 0 discriminator 1
 352 0008 0AB9     		cbnz	r2, .L41
 353              	.L33:
 354              	.LBE70:
  98:../cores/arduino/USB/USBSerial.cpp **** 
 355              		.loc 1 98 0 is_stmt 1
 356 000a 2046     		mov	r0, r4
 357              	.LVL27:
 358 000c 10BD     		pop	{r4, pc}
 359              	.LVL28:
 360              	.L41:
 361              	.LBB71:
 362              	.LBB72:
  94:../cores/arduino/USB/USBSerial.cpp **** 		return size - remaining;
 363              		.loc 1 94 0
 364 000e 0846     		mov	r0, r1
 365              	.LVL29:
 366 0010 1146     		mov	r1, r2
 367              	.LVL30:
 368 0012 FFF7FEFF 		bl	udi_cdc_write_buf
 369              	.LVL31:
  95:../cores/arduino/USB/USBSerial.cpp **** 	}
 370              		.loc 1 95 0
 371 0016 241A     		subs	r4, r4, r0
 372              	.LVL32:
 373              	.LBE72:
 374              	.LBE71:
ARM GAS  /tmp/ccpdZtB5.s 			page 10


  98:../cores/arduino/USB/USBSerial.cpp **** 
 375              		.loc 1 98 0
 376 0018 2046     		mov	r0, r4
 377 001a 10BD     		pop	{r4, pc}
 378              		.cfi_endproc
 379              	.LFE197:
 380              		.size	_ZN9SerialCDC5writeEPKhj, .-_ZN9SerialCDC5writeEPKhj
 381              		.section	.text._ZN9SerialCDCC2Ev,"ax",%progbits
 382              		.align	1
 383              		.p2align 2,,3
 384              		.global	_ZN9SerialCDCC2Ev
 385              		.syntax unified
 386              		.thumb
 387              		.thumb_func
 388              		.fpu fpv5-d16
 389              		.type	_ZN9SerialCDCC2Ev, %function
 390              	_ZN9SerialCDCC2Ev:
 391              	.LFB186:
  21:../cores/arduino/USB/USBSerial.cpp **** {
 392              		.loc 1 21 0
 393              		.cfi_startproc
 394              		@ args = 0, pretend = 0, frame = 0
 395              		@ frame_needed = 0, uses_anonymous_args = 0
 396              		@ link register save eliminated.
 397              	.LVL33:
 398 0000 30B4     		push	{r4, r5}
 399              		.cfi_def_cfa_offset 8
 400              		.cfi_offset 4, -8
 401              		.cfi_offset 5, -4
 402              	.LBB73:
 403              	.LBB74:
 404              	.LBB75:
 405              	.LBB76:
 406              	.LBB77:
 407              		.file 3 "/home/torbjorn/eclipse-workspace/CoreNG/cores/arduino/Print.h"
   1:/home/torbjorn/eclipse-workspace/CoreNG/cores/arduino/Print.h **** /*
   2:/home/torbjorn/eclipse-workspace/CoreNG/cores/arduino/Print.h ****   Print.h - Base class that provides print() and println()
   3:/home/torbjorn/eclipse-workspace/CoreNG/cores/arduino/Print.h ****   Copyright (c) 2008 David A. Mellis.  All right reserved.
   4:/home/torbjorn/eclipse-workspace/CoreNG/cores/arduino/Print.h **** 
   5:/home/torbjorn/eclipse-workspace/CoreNG/cores/arduino/Print.h ****   This library is free software; you can redistribute it and/or
   6:/home/torbjorn/eclipse-workspace/CoreNG/cores/arduino/Print.h ****   modify it under the terms of the GNU Lesser General Public
   7:/home/torbjorn/eclipse-workspace/CoreNG/cores/arduino/Print.h ****   License as published by the Free Software Foundation; either
   8:/home/torbjorn/eclipse-workspace/CoreNG/cores/arduino/Print.h ****   version 2.1 of the License, or (at your option) any later version.
   9:/home/torbjorn/eclipse-workspace/CoreNG/cores/arduino/Print.h **** 
  10:/home/torbjorn/eclipse-workspace/CoreNG/cores/arduino/Print.h ****   This library is distributed in the hope that it will be useful,
  11:/home/torbjorn/eclipse-workspace/CoreNG/cores/arduino/Print.h ****   but WITHOUT ANY WARRANTY; without even the implied warranty of
  12:/home/torbjorn/eclipse-workspace/CoreNG/cores/arduino/Print.h ****   MERCHANTABILITY or FITNESS FOR A PARTICULAR PURPOSE.  See the GNU
  13:/home/torbjorn/eclipse-workspace/CoreNG/cores/arduino/Print.h ****   Lesser General Public License for more details.
  14:/home/torbjorn/eclipse-workspace/CoreNG/cores/arduino/Print.h **** 
  15:/home/torbjorn/eclipse-workspace/CoreNG/cores/arduino/Print.h ****   You should have received a copy of the GNU Lesser General Public
  16:/home/torbjorn/eclipse-workspace/CoreNG/cores/arduino/Print.h ****   License along with this library; if not, write to the Free Software
  17:/home/torbjorn/eclipse-workspace/CoreNG/cores/arduino/Print.h ****   Foundation, Inc., 51 Franklin St, Fifth Floor, Boston, MA  02110-1301  USA
  18:/home/torbjorn/eclipse-workspace/CoreNG/cores/arduino/Print.h **** */
  19:/home/torbjorn/eclipse-workspace/CoreNG/cores/arduino/Print.h **** 
  20:/home/torbjorn/eclipse-workspace/CoreNG/cores/arduino/Print.h **** #ifndef Print_h
  21:/home/torbjorn/eclipse-workspace/CoreNG/cores/arduino/Print.h **** #define Print_h
  22:/home/torbjorn/eclipse-workspace/CoreNG/cores/arduino/Print.h **** 
ARM GAS  /tmp/ccpdZtB5.s 			page 11


  23:/home/torbjorn/eclipse-workspace/CoreNG/cores/arduino/Print.h **** #include <inttypes.h>
  24:/home/torbjorn/eclipse-workspace/CoreNG/cores/arduino/Print.h **** #include <stdio.h> // for size_t
  25:/home/torbjorn/eclipse-workspace/CoreNG/cores/arduino/Print.h **** #include <string.h>
  26:/home/torbjorn/eclipse-workspace/CoreNG/cores/arduino/Print.h **** 
  27:/home/torbjorn/eclipse-workspace/CoreNG/cores/arduino/Print.h **** #include "Printable.h"
  28:/home/torbjorn/eclipse-workspace/CoreNG/cores/arduino/Print.h **** 
  29:/home/torbjorn/eclipse-workspace/CoreNG/cores/arduino/Print.h **** #define DEC 10
  30:/home/torbjorn/eclipse-workspace/CoreNG/cores/arduino/Print.h **** #define HEX 16
  31:/home/torbjorn/eclipse-workspace/CoreNG/cores/arduino/Print.h **** #define OCT 8
  32:/home/torbjorn/eclipse-workspace/CoreNG/cores/arduino/Print.h **** #define BIN 2
  33:/home/torbjorn/eclipse-workspace/CoreNG/cores/arduino/Print.h **** 
  34:/home/torbjorn/eclipse-workspace/CoreNG/cores/arduino/Print.h **** class Print
  35:/home/torbjorn/eclipse-workspace/CoreNG/cores/arduino/Print.h **** {
  36:/home/torbjorn/eclipse-workspace/CoreNG/cores/arduino/Print.h **** private:
  37:/home/torbjorn/eclipse-workspace/CoreNG/cores/arduino/Print.h **** 	int write_error;
  38:/home/torbjorn/eclipse-workspace/CoreNG/cores/arduino/Print.h **** 	size_t printNumber(unsigned long, uint8_t);
  39:/home/torbjorn/eclipse-workspace/CoreNG/cores/arduino/Print.h **** 	size_t printFloat(double, uint8_t);
  40:/home/torbjorn/eclipse-workspace/CoreNG/cores/arduino/Print.h **** 
  41:/home/torbjorn/eclipse-workspace/CoreNG/cores/arduino/Print.h **** protected:
  42:/home/torbjorn/eclipse-workspace/CoreNG/cores/arduino/Print.h **** 	void setWriteError(int err = 1) { write_error = err; }
  43:/home/torbjorn/eclipse-workspace/CoreNG/cores/arduino/Print.h **** 
  44:/home/torbjorn/eclipse-workspace/CoreNG/cores/arduino/Print.h **** public:
  45:/home/torbjorn/eclipse-workspace/CoreNG/cores/arduino/Print.h ****     Print() : write_error(0) {}
 408              		.loc 3 45 0
 409 0002 0022     		movs	r2, #0
 410              	.LBE77:
 411              	.LBE76:
 412              		.file 4 "/home/torbjorn/eclipse-workspace/CoreNG/cores/arduino/Stream.h"
   1:/home/torbjorn/eclipse-workspace/CoreNG/cores/arduino/Stream.h **** /*
   2:/home/torbjorn/eclipse-workspace/CoreNG/cores/arduino/Stream.h ****   Stream.h - base class for character-based streams.
   3:/home/torbjorn/eclipse-workspace/CoreNG/cores/arduino/Stream.h ****   Copyright (c) 2010 David A. Mellis.  All right reserved.
   4:/home/torbjorn/eclipse-workspace/CoreNG/cores/arduino/Stream.h **** 
   5:/home/torbjorn/eclipse-workspace/CoreNG/cores/arduino/Stream.h ****   This library is free software; you can redistribute it and/or
   6:/home/torbjorn/eclipse-workspace/CoreNG/cores/arduino/Stream.h ****   modify it under the terms of the GNU Lesser General Public
   7:/home/torbjorn/eclipse-workspace/CoreNG/cores/arduino/Stream.h ****   License as published by the Free Software Foundation; either
   8:/home/torbjorn/eclipse-workspace/CoreNG/cores/arduino/Stream.h ****   version 2.1 of the License, or (at your option) any later version.
   9:/home/torbjorn/eclipse-workspace/CoreNG/cores/arduino/Stream.h **** 
  10:/home/torbjorn/eclipse-workspace/CoreNG/cores/arduino/Stream.h ****   This library is distributed in the hope that it will be useful,
  11:/home/torbjorn/eclipse-workspace/CoreNG/cores/arduino/Stream.h ****   but WITHOUT ANY WARRANTY; without even the implied warranty of
  12:/home/torbjorn/eclipse-workspace/CoreNG/cores/arduino/Stream.h ****   MERCHANTABILITY or FITNESS FOR A PARTICULAR PURPOSE.  See the GNU
  13:/home/torbjorn/eclipse-workspace/CoreNG/cores/arduino/Stream.h ****   Lesser General Public License for more details.
  14:/home/torbjorn/eclipse-workspace/CoreNG/cores/arduino/Stream.h **** 
  15:/home/torbjorn/eclipse-workspace/CoreNG/cores/arduino/Stream.h ****   You should have received a copy of the GNU Lesser General Public
  16:/home/torbjorn/eclipse-workspace/CoreNG/cores/arduino/Stream.h ****   License along with this library; if not, write to the Free Software
  17:/home/torbjorn/eclipse-workspace/CoreNG/cores/arduino/Stream.h ****   Foundation, Inc., 51 Franklin St, Fifth Floor, Boston, MA  02110-1301  USA
  18:/home/torbjorn/eclipse-workspace/CoreNG/cores/arduino/Stream.h **** 
  19:/home/torbjorn/eclipse-workspace/CoreNG/cores/arduino/Stream.h ****   parsing functions based on TextFinder library by Michael Margolis
  20:/home/torbjorn/eclipse-workspace/CoreNG/cores/arduino/Stream.h **** */
  21:/home/torbjorn/eclipse-workspace/CoreNG/cores/arduino/Stream.h **** 
  22:/home/torbjorn/eclipse-workspace/CoreNG/cores/arduino/Stream.h **** #ifndef Stream_h
  23:/home/torbjorn/eclipse-workspace/CoreNG/cores/arduino/Stream.h **** #define Stream_h
  24:/home/torbjorn/eclipse-workspace/CoreNG/cores/arduino/Stream.h **** 
  25:/home/torbjorn/eclipse-workspace/CoreNG/cores/arduino/Stream.h **** #include <inttypes.h>
  26:/home/torbjorn/eclipse-workspace/CoreNG/cores/arduino/Stream.h **** #include "Print.h"
  27:/home/torbjorn/eclipse-workspace/CoreNG/cores/arduino/Stream.h **** 
  28:/home/torbjorn/eclipse-workspace/CoreNG/cores/arduino/Stream.h **** // compatability macros for testing
  29:/home/torbjorn/eclipse-workspace/CoreNG/cores/arduino/Stream.h **** /*
ARM GAS  /tmp/ccpdZtB5.s 			page 12


  30:/home/torbjorn/eclipse-workspace/CoreNG/cores/arduino/Stream.h **** #define   getInt()            parseInt()
  31:/home/torbjorn/eclipse-workspace/CoreNG/cores/arduino/Stream.h **** #define   getInt(skipChar)    parseInt(skipchar)
  32:/home/torbjorn/eclipse-workspace/CoreNG/cores/arduino/Stream.h **** #define   getFloat()          parseFloat()
  33:/home/torbjorn/eclipse-workspace/CoreNG/cores/arduino/Stream.h **** #define   getFloat(skipChar)  parseFloat(skipChar)
  34:/home/torbjorn/eclipse-workspace/CoreNG/cores/arduino/Stream.h **** #define   getString( pre_string, post_string, buffer, length)
  35:/home/torbjorn/eclipse-workspace/CoreNG/cores/arduino/Stream.h **** readBytesBetween( pre_string, terminator, buffer, length)
  36:/home/torbjorn/eclipse-workspace/CoreNG/cores/arduino/Stream.h **** */
  37:/home/torbjorn/eclipse-workspace/CoreNG/cores/arduino/Stream.h **** 
  38:/home/torbjorn/eclipse-workspace/CoreNG/cores/arduino/Stream.h **** class Stream : public Print
  39:/home/torbjorn/eclipse-workspace/CoreNG/cores/arduino/Stream.h **** {
  40:/home/torbjorn/eclipse-workspace/CoreNG/cores/arduino/Stream.h **** protected:
  41:/home/torbjorn/eclipse-workspace/CoreNG/cores/arduino/Stream.h **** 	unsigned long _timeout;      // number of milliseconds to wait for the next char before aborting t
  42:/home/torbjorn/eclipse-workspace/CoreNG/cores/arduino/Stream.h **** 	unsigned long _startMillis;  // used for timeout measurement
  43:/home/torbjorn/eclipse-workspace/CoreNG/cores/arduino/Stream.h **** 	int timedRead();    // private method to read stream with timeout
  44:/home/torbjorn/eclipse-workspace/CoreNG/cores/arduino/Stream.h **** 	int timedPeek();    // private method to peek stream with timeout
  45:/home/torbjorn/eclipse-workspace/CoreNG/cores/arduino/Stream.h **** 	int peekNextDigit(); // returns the next numeric digit in the stream or -1 if timeout
  46:/home/torbjorn/eclipse-workspace/CoreNG/cores/arduino/Stream.h **** 
  47:/home/torbjorn/eclipse-workspace/CoreNG/cores/arduino/Stream.h **** public:
  48:/home/torbjorn/eclipse-workspace/CoreNG/cores/arduino/Stream.h **** 	virtual int available() = 0;
  49:/home/torbjorn/eclipse-workspace/CoreNG/cores/arduino/Stream.h **** 	virtual int read() = 0;
  50:/home/torbjorn/eclipse-workspace/CoreNG/cores/arduino/Stream.h **** 	virtual int peek() = 0;
  51:/home/torbjorn/eclipse-workspace/CoreNG/cores/arduino/Stream.h **** 	virtual void flush() = 0;
  52:/home/torbjorn/eclipse-workspace/CoreNG/cores/arduino/Stream.h **** 	virtual size_t canWrite() const { return 1; }	// DC42 added for Duet
  53:/home/torbjorn/eclipse-workspace/CoreNG/cores/arduino/Stream.h **** 
  54:/home/torbjorn/eclipse-workspace/CoreNG/cores/arduino/Stream.h **** 	Stream() : _timeout(1000), _startMillis(0) {}
 413              		.loc 4 54 0
 414 0004 4FF47A75 		mov	r5, #1000
 415              	.LBE75:
 416              	.LBE74:
  21:../cores/arduino/USB/USBSerial.cpp **** {
 417              		.loc 1 21 0
 418 0008 044C     		ldr	r4, .L44
 419 000a 0121     		movs	r1, #1
 420              	.LBB82:
 421              	.LBB80:
 422              		.loc 4 54 0
 423 000c 8560     		str	r5, [r0, #8]
 424              	.LBE80:
 425              	.LBE82:
  21:../cores/arduino/USB/USBSerial.cpp **** {
 426              		.loc 1 21 0
 427 000e 0460     		str	r4, [r0]
 428 0010 0161     		str	r1, [r0, #16]
 429              	.LBB83:
 430              	.LBB81:
 431              	.LBB79:
 432              	.LBB78:
 433              		.loc 3 45 0
 434 0012 4260     		str	r2, [r0, #4]
 435              	.LVL34:
 436              	.LBE78:
 437              	.LBE79:
 438              		.loc 4 54 0
 439 0014 C260     		str	r2, [r0, #12]
 440              	.LVL35:
 441              	.LBE81:
 442              	.LBE83:
ARM GAS  /tmp/ccpdZtB5.s 			page 13


  21:../cores/arduino/USB/USBSerial.cpp **** {
 443              		.loc 1 21 0
 444 0016 0275     		strb	r2, [r0, #20]
 445              	.LBE73:
  23:../cores/arduino/USB/USBSerial.cpp **** 
 446              		.loc 1 23 0
 447 0018 30BC     		pop	{r4, r5}
 448              		.cfi_restore 5
 449              		.cfi_restore 4
 450              		.cfi_def_cfa_offset 0
 451 001a 7047     		bx	lr
 452              	.L45:
 453              		.align	2
 454              	.L44:
 455 001c 08000000 		.word	.LANCHOR0+8
 456              		.cfi_endproc
 457              	.LFE186:
 458              		.size	_ZN9SerialCDCC2Ev, .-_ZN9SerialCDCC2Ev
 459              		.global	_ZN9SerialCDCC1Ev
 460              		.thumb_set _ZN9SerialCDCC1Ev,_ZN9SerialCDCC2Ev
 461              		.section	.text._ZN9SerialCDC5beginEm,"ax",%progbits
 462              		.align	1
 463              		.p2align 2,,3
 464              		.global	_ZN9SerialCDC5beginEm
 465              		.syntax unified
 466              		.thumb
 467              		.thumb_func
 468              		.fpu fpv5-d16
 469              		.type	_ZN9SerialCDC5beginEm, %function
 470              	_ZN9SerialCDC5beginEm:
 471              	.LFB188:
  26:../cores/arduino/USB/USBSerial.cpp **** 	// suppress "unused parameter" warning
 472              		.loc 1 26 0
 473              		.cfi_startproc
 474              		@ args = 0, pretend = 0, frame = 0
 475              		@ frame_needed = 0, uses_anonymous_args = 0
 476              		@ link register save eliminated.
 477              	.LVL36:
  29:../cores/arduino/USB/USBSerial.cpp **** 
 478              		.loc 1 29 0
 479 0000 FFF7FEBF 		b	udc_start
 480              	.LVL37:
 481              		.cfi_endproc
 482              	.LFE188:
 483              		.size	_ZN9SerialCDC5beginEm, .-_ZN9SerialCDC5beginEm
 484              		.section	.text._ZN9SerialCDC5beginEmh,"ax",%progbits
 485              		.align	1
 486              		.p2align 2,,3
 487              		.global	_ZN9SerialCDC5beginEmh
 488              		.syntax unified
 489              		.thumb
 490              		.thumb_func
 491              		.fpu fpv5-d16
 492              		.type	_ZN9SerialCDC5beginEmh, %function
 493              	_ZN9SerialCDC5beginEmh:
 494              	.LFB189:
  42:../cores/arduino/USB/USBSerial.cpp **** 	// suppress "unused parameter" warning
ARM GAS  /tmp/ccpdZtB5.s 			page 14


 495              		.loc 1 42 0
 496              		.cfi_startproc
 497              		@ args = 0, pretend = 0, frame = 0
 498              		@ frame_needed = 0, uses_anonymous_args = 0
 499              		@ link register save eliminated.
 500              	.LVL38:
  46:../cores/arduino/USB/USBSerial.cpp **** }
 501              		.loc 1 46 0
 502 0000 FFF7FEBF 		b	udc_start
 503              	.LVL39:
 504              		.cfi_endproc
 505              	.LFE189:
 506              		.size	_ZN9SerialCDC5beginEmh, .-_ZN9SerialCDC5beginEmh
 507              		.section	.text._ZN9SerialCDC3endEv,"ax",%progbits
 508              		.align	1
 509              		.p2align 2,,3
 510              		.global	_ZN9SerialCDC3endEv
 511              		.syntax unified
 512              		.thumb
 513              		.thumb_func
 514              		.fpu fpv5-d16
 515              		.type	_ZN9SerialCDC3endEv, %function
 516              	_ZN9SerialCDC3endEv:
 517              	.LFB190:
  50:../cores/arduino/USB/USBSerial.cpp **** 	isConnected = false;
 518              		.loc 1 50 0
 519              		.cfi_startproc
 520              		@ args = 0, pretend = 0, frame = 0
 521              		@ frame_needed = 0, uses_anonymous_args = 0
 522              		@ link register save eliminated.
 523              	.LVL40:
  51:../cores/arduino/USB/USBSerial.cpp **** 	udc_stop();
 524              		.loc 1 51 0
 525 0000 0023     		movs	r3, #0
 526 0002 0375     		strb	r3, [r0, #20]
  52:../cores/arduino/USB/USBSerial.cpp **** }
 527              		.loc 1 52 0
 528 0004 FFF7FEBF 		b	udc_stop
 529              	.LVL41:
 530              		.cfi_endproc
 531              	.LFE190:
 532              		.size	_ZN9SerialCDC3endEv, .-_ZN9SerialCDC3endEv
 533              		.section	.text._ZNK9SerialCDCcvbEv,"ax",%progbits
 534              		.align	1
 535              		.p2align 2,,3
 536              		.global	_ZNK9SerialCDCcvbEv
 537              		.syntax unified
 538              		.thumb
 539              		.thumb_func
 540              		.fpu fpv5-d16
 541              		.type	_ZNK9SerialCDCcvbEv, %function
 542              	_ZNK9SerialCDCcvbEv:
 543              	.LFB199:
 104:../cores/arduino/USB/USBSerial.cpp **** 
 105:../cores/arduino/USB/USBSerial.cpp **** SerialCDC::operator bool() const
 106:../cores/arduino/USB/USBSerial.cpp **** {
 544              		.loc 1 106 0
ARM GAS  /tmp/ccpdZtB5.s 			page 15


 545              		.cfi_startproc
 546              		@ args = 0, pretend = 0, frame = 0
 547              		@ frame_needed = 0, uses_anonymous_args = 0
 548              		@ link register save eliminated.
 549              	.LVL42:
 107:../cores/arduino/USB/USBSerial.cpp **** 	return isConnected;
 108:../cores/arduino/USB/USBSerial.cpp **** }
 550              		.loc 1 108 0
 551 0000 007D     		ldrb	r0, [r0, #20]	@ zero_extendqisi2
 552              	.LVL43:
 553 0002 7047     		bx	lr
 554              		.cfi_endproc
 555              	.LFE199:
 556              		.size	_ZNK9SerialCDCcvbEv, .-_ZNK9SerialCDCcvbEv
 557              		.section	.text._ZN9SerialCDC15cdcSetConnectedEb,"ax",%progbits
 558              		.align	1
 559              		.p2align 2,,3
 560              		.global	_ZN9SerialCDC15cdcSetConnectedEb
 561              		.syntax unified
 562              		.thumb
 563              		.thumb_func
 564              		.fpu fpv5-d16
 565              		.type	_ZN9SerialCDC15cdcSetConnectedEb, %function
 566              	_ZN9SerialCDC15cdcSetConnectedEb:
 567              	.LFB200:
 109:../cores/arduino/USB/USBSerial.cpp **** 
 110:../cores/arduino/USB/USBSerial.cpp **** void SerialCDC::cdcSetConnected(bool b)
 111:../cores/arduino/USB/USBSerial.cpp **** {
 568              		.loc 1 111 0
 569              		.cfi_startproc
 570              		@ args = 0, pretend = 0, frame = 0
 571              		@ frame_needed = 0, uses_anonymous_args = 0
 572              		@ link register save eliminated.
 573              	.LVL44:
 112:../cores/arduino/USB/USBSerial.cpp **** 	isConnected = b;
 574              		.loc 1 112 0
 575 0000 0175     		strb	r1, [r0, #20]
 576 0002 7047     		bx	lr
 577              		.cfi_endproc
 578              	.LFE200:
 579              		.size	_ZN9SerialCDC15cdcSetConnectedEb, .-_ZN9SerialCDC15cdcSetConnectedEb
 580              		.section	.text._ZN9SerialCDC11cdcRxNotifyEv,"ax",%progbits
 581              		.align	1
 582              		.p2align 2,,3
 583              		.global	_ZN9SerialCDC11cdcRxNotifyEv
 584              		.syntax unified
 585              		.thumb
 586              		.thumb_func
 587              		.fpu fpv5-d16
 588              		.type	_ZN9SerialCDC11cdcRxNotifyEv, %function
 589              	_ZN9SerialCDC11cdcRxNotifyEv:
 590              	.LFB201:
 113:../cores/arduino/USB/USBSerial.cpp **** }
 114:../cores/arduino/USB/USBSerial.cpp **** 
 115:../cores/arduino/USB/USBSerial.cpp **** void SerialCDC::cdcRxNotify()
 116:../cores/arduino/USB/USBSerial.cpp **** {
 591              		.loc 1 116 0
ARM GAS  /tmp/ccpdZtB5.s 			page 16


 592              		.cfi_startproc
 593              		@ args = 0, pretend = 0, frame = 0
 594              		@ frame_needed = 0, uses_anonymous_args = 0
 595              		@ link register save eliminated.
 596              	.LVL45:
 597 0000 7047     		bx	lr
 598              		.cfi_endproc
 599              	.LFE201:
 600              		.size	_ZN9SerialCDC11cdcRxNotifyEv, .-_ZN9SerialCDC11cdcRxNotifyEv
 601 0002 00BF     		.section	.text._ZN9SerialCDC16cdcTxEmptyNotifyEv,"ax",%progbits
 602              		.align	1
 603              		.p2align 2,,3
 604              		.global	_ZN9SerialCDC16cdcTxEmptyNotifyEv
 605              		.syntax unified
 606              		.thumb
 607              		.thumb_func
 608              		.fpu fpv5-d16
 609              		.type	_ZN9SerialCDC16cdcTxEmptyNotifyEv, %function
 610              	_ZN9SerialCDC16cdcTxEmptyNotifyEv:
 611              	.LFB202:
 117:../cores/arduino/USB/USBSerial.cpp **** 	// nothing here until we use a Rx buffer
 118:../cores/arduino/USB/USBSerial.cpp **** }
 119:../cores/arduino/USB/USBSerial.cpp **** 
 120:../cores/arduino/USB/USBSerial.cpp **** void SerialCDC::cdcTxEmptyNotify()
 121:../cores/arduino/USB/USBSerial.cpp **** {
 612              		.loc 1 121 0
 613              		.cfi_startproc
 614              		@ args = 0, pretend = 0, frame = 0
 615              		@ frame_needed = 0, uses_anonymous_args = 0
 616              	.LVL46:
 122:../cores/arduino/USB/USBSerial.cpp **** 	// If we haven't yet found out how large the transmit buffer is, find out now
 123:../cores/arduino/USB/USBSerial.cpp **** 	if (txBufsize == 1)
 617              		.loc 1 123 0
 618 0000 0369     		ldr	r3, [r0, #16]
 619 0002 012B     		cmp	r3, #1
 620 0004 00D0     		beq	.L58
 621 0006 7047     		bx	lr
 622              	.L58:
 121:../cores/arduino/USB/USBSerial.cpp **** 	// If we haven't yet found out how large the transmit buffer is, find out now
 623              		.loc 1 121 0
 624 0008 10B5     		push	{r4, lr}
 625              		.cfi_def_cfa_offset 8
 626              		.cfi_offset 4, -8
 627              		.cfi_offset 14, -4
 628 000a 0446     		mov	r4, r0
 124:../cores/arduino/USB/USBSerial.cpp **** 	{
 125:../cores/arduino/USB/USBSerial.cpp **** 		txBufsize = udi_cdc_get_free_tx_buffer();
 629              		.loc 1 125 0
 630 000c FFF7FEFF 		bl	udi_cdc_get_free_tx_buffer
 631              	.LVL47:
 632 0010 2061     		str	r0, [r4, #16]
 633 0012 10BD     		pop	{r4, pc}
 634              		.cfi_endproc
 635              	.LFE202:
 636              		.size	_ZN9SerialCDC16cdcTxEmptyNotifyEv, .-_ZN9SerialCDC16cdcTxEmptyNotifyEv
 637              		.section	.text.core_cdc_enable,"ax",%progbits
 638              		.align	1
ARM GAS  /tmp/ccpdZtB5.s 			page 17


 639              		.p2align 2,,3
 640              		.global	core_cdc_enable
 641              		.syntax unified
 642              		.thumb
 643              		.thumb_func
 644              		.fpu fpv5-d16
 645              		.type	core_cdc_enable, %function
 646              	core_cdc_enable:
 647              	.LFB203:
 126:../cores/arduino/USB/USBSerial.cpp **** 	}
 127:../cores/arduino/USB/USBSerial.cpp **** }
 128:../cores/arduino/USB/USBSerial.cpp **** 
 129:../cores/arduino/USB/USBSerial.cpp **** // Declare the Serial USB device
 130:../cores/arduino/USB/USBSerial.cpp **** SerialCDC SerialUSB;
 131:../cores/arduino/USB/USBSerial.cpp **** 
 132:../cores/arduino/USB/USBSerial.cpp **** // Callback glue functions, all called from the USB ISR
 133:../cores/arduino/USB/USBSerial.cpp **** 
 134:../cores/arduino/USB/USBSerial.cpp **** // This is called when we are plugged in and connect to a host
 135:../cores/arduino/USB/USBSerial.cpp **** extern "C" bool core_cdc_enable(uint8_t port)
 136:../cores/arduino/USB/USBSerial.cpp **** {
 648              		.loc 1 136 0
 649              		.cfi_startproc
 650              		@ args = 0, pretend = 0, frame = 0
 651              		@ frame_needed = 0, uses_anonymous_args = 0
 652              		@ link register save eliminated.
 653              	.LVL48:
 654              	.LBB84:
 655              	.LBB85:
 112:../cores/arduino/USB/USBSerial.cpp **** }
 656              		.loc 1 112 0
 657 0000 014B     		ldr	r3, .L60
 658 0002 0120     		movs	r0, #1
 659              	.LVL49:
 660 0004 1875     		strb	r0, [r3, #20]
 661              	.LVL50:
 662              	.LBE85:
 663              	.LBE84:
 137:../cores/arduino/USB/USBSerial.cpp **** 	SerialUSB.cdcSetConnected(true);
 138:../cores/arduino/USB/USBSerial.cpp **** 	return true;
 139:../cores/arduino/USB/USBSerial.cpp **** }
 664              		.loc 1 139 0
 665 0006 7047     		bx	lr
 666              	.L61:
 667              		.align	2
 668              	.L60:
 669 0008 00000000 		.word	.LANCHOR1
 670              		.cfi_endproc
 671              	.LFE203:
 672              		.size	core_cdc_enable, .-core_cdc_enable
 673              		.section	.text.core_cdc_disable,"ax",%progbits
 674              		.align	1
 675              		.p2align 2,,3
 676              		.global	core_cdc_disable
 677              		.syntax unified
 678              		.thumb
 679              		.thumb_func
 680              		.fpu fpv5-d16
ARM GAS  /tmp/ccpdZtB5.s 			page 18


 681              		.type	core_cdc_disable, %function
 682              	core_cdc_disable:
 683              	.LFB204:
 140:../cores/arduino/USB/USBSerial.cpp **** 
 141:../cores/arduino/USB/USBSerial.cpp **** // This is called when we get disconnected from the host
 142:../cores/arduino/USB/USBSerial.cpp **** extern "C" void core_cdc_disable(uint8_t port)
 143:../cores/arduino/USB/USBSerial.cpp **** {
 684              		.loc 1 143 0
 685              		.cfi_startproc
 686              		@ args = 0, pretend = 0, frame = 0
 687              		@ frame_needed = 0, uses_anonymous_args = 0
 688              		@ link register save eliminated.
 689              	.LVL51:
 690              	.LBB86:
 691              	.LBB87:
 112:../cores/arduino/USB/USBSerial.cpp **** }
 692              		.loc 1 112 0
 693 0000 014B     		ldr	r3, .L63
 694 0002 0022     		movs	r2, #0
 695 0004 1A75     		strb	r2, [r3, #20]
 696              	.LVL52:
 697 0006 7047     		bx	lr
 698              	.L64:
 699              		.align	2
 700              	.L63:
 701 0008 00000000 		.word	.LANCHOR1
 702              	.LBE87:
 703              	.LBE86:
 704              		.cfi_endproc
 705              	.LFE204:
 706              		.size	core_cdc_disable, .-core_cdc_disable
 707              		.section	.text.core_cdc_rx_notify,"ax",%progbits
 708              		.align	1
 709              		.p2align 2,,3
 710              		.global	core_cdc_rx_notify
 711              		.syntax unified
 712              		.thumb
 713              		.thumb_func
 714              		.fpu fpv5-d16
 715              		.type	core_cdc_rx_notify, %function
 716              	core_cdc_rx_notify:
 717              	.LFB205:
 144:../cores/arduino/USB/USBSerial.cpp **** 	SerialUSB.cdcSetConnected(false);
 145:../cores/arduino/USB/USBSerial.cpp **** }
 146:../cores/arduino/USB/USBSerial.cpp **** 
 147:../cores/arduino/USB/USBSerial.cpp **** // This is called when data has been received
 148:../cores/arduino/USB/USBSerial.cpp **** extern "C" void core_cdc_rx_notify(uint8_t port)
 149:../cores/arduino/USB/USBSerial.cpp **** {
 718              		.loc 1 149 0
 719              		.cfi_startproc
 720              		@ args = 0, pretend = 0, frame = 0
 721              		@ frame_needed = 0, uses_anonymous_args = 0
 722              		@ link register save eliminated.
 723              	.LVL53:
 724 0000 7047     		bx	lr
 725              		.cfi_endproc
 726              	.LFE205:
ARM GAS  /tmp/ccpdZtB5.s 			page 19


 727              		.size	core_cdc_rx_notify, .-core_cdc_rx_notify
 728 0002 00BF     		.section	.text.core_cdc_tx_empty_notify,"ax",%progbits
 729              		.align	1
 730              		.p2align 2,,3
 731              		.global	core_cdc_tx_empty_notify
 732              		.syntax unified
 733              		.thumb
 734              		.thumb_func
 735              		.fpu fpv5-d16
 736              		.type	core_cdc_tx_empty_notify, %function
 737              	core_cdc_tx_empty_notify:
 738              	.LFB206:
 150:../cores/arduino/USB/USBSerial.cpp **** 	SerialUSB.cdcRxNotify();
 151:../cores/arduino/USB/USBSerial.cpp **** }
 152:../cores/arduino/USB/USBSerial.cpp **** 
 153:../cores/arduino/USB/USBSerial.cpp **** // This is called when the transmit buffer has been emptied
 154:../cores/arduino/USB/USBSerial.cpp **** extern "C" void core_cdc_tx_empty_notify(uint8_t port)
 155:../cores/arduino/USB/USBSerial.cpp **** {
 739              		.loc 1 155 0
 740              		.cfi_startproc
 741              		@ args = 0, pretend = 0, frame = 0
 742              		@ frame_needed = 0, uses_anonymous_args = 0
 743              	.LVL54:
 744              		.loc 1 155 0
 745 0000 10B5     		push	{r4, lr}
 746              		.cfi_def_cfa_offset 8
 747              		.cfi_offset 4, -8
 748              		.cfi_offset 14, -4
 749              	.LBB88:
 750              	.LBB89:
 123:../cores/arduino/USB/USBSerial.cpp **** 	{
 751              		.loc 1 123 0
 752 0002 044C     		ldr	r4, .L70
 753 0004 2369     		ldr	r3, [r4, #16]
 754 0006 012B     		cmp	r3, #1
 755 0008 00D0     		beq	.L69
 756 000a 10BD     		pop	{r4, pc}
 757              	.L69:
 125:../cores/arduino/USB/USBSerial.cpp **** 	}
 758              		.loc 1 125 0
 759 000c FFF7FEFF 		bl	udi_cdc_get_free_tx_buffer
 760              	.LVL55:
 761 0010 2061     		str	r0, [r4, #16]
 762              	.LVL56:
 763 0012 10BD     		pop	{r4, pc}
 764              	.L71:
 765              		.align	2
 766              	.L70:
 767 0014 00000000 		.word	.LANCHOR1
 768              	.LBE89:
 769              	.LBE88:
 770              		.cfi_endproc
 771              	.LFE206:
 772              		.size	core_cdc_tx_empty_notify, .-core_cdc_tx_empty_notify
 773              		.section	.text.startup._GLOBAL__sub_I__ZN9SerialCDCC2Ev,"ax",%progbits
 774              		.align	1
 775              		.p2align 2,,3
ARM GAS  /tmp/ccpdZtB5.s 			page 20


 776              		.syntax unified
 777              		.thumb
 778              		.thumb_func
 779              		.fpu fpv5-d16
 780              		.type	_GLOBAL__sub_I__ZN9SerialCDCC2Ev, %function
 781              	_GLOBAL__sub_I__ZN9SerialCDCC2Ev:
 782              	.LFB212:
 156:../cores/arduino/USB/USBSerial.cpp **** 	SerialUSB.cdcTxEmptyNotify();
 157:../cores/arduino/USB/USBSerial.cpp **** }
 783              		.loc 1 157 0
 784              		.cfi_startproc
 785              		@ args = 0, pretend = 0, frame = 0
 786              		@ frame_needed = 0, uses_anonymous_args = 0
 787              		@ link register save eliminated.
 788              	.LVL57:
 789 0000 F0B4     		push	{r4, r5, r6, r7}
 790              		.cfi_def_cfa_offset 16
 791              		.cfi_offset 4, -16
 792              		.cfi_offset 5, -12
 793              		.cfi_offset 6, -8
 794              		.cfi_offset 7, -4
 795              	.LBB90:
 796              	.LBB91:
 797              	.LBB92:
 798              	.LBB93:
 799              	.LBB94:
 800              	.LBB95:
 801              	.LBB96:
 802              	.LBB97:
 803              	.LBB98:
 804              	.LBB99:
 805              	.LBB100:
 806              		.loc 3 45 0
 807 0002 094B     		ldr	r3, .L74
 808 0004 0024     		movs	r4, #0
 809              	.LBE100:
 810              	.LBE99:
 811              	.LBE98:
 812              		.loc 4 54 0
 813 0006 4FF47A77 		mov	r7, #1000
 814              	.LBE97:
 815              	.LBE96:
 816              	.LBE95:
  21:../cores/arduino/USB/USBSerial.cpp **** {
 817              		.loc 1 21 0
 818 000a 084E     		ldr	r6, .L74+4
 819 000c 0125     		movs	r5, #1
 820              	.LBB108:
 821              	.LBB106:
 822              	.LBB104:
 823              	.LBB103:
 824              	.LBB102:
 825              	.LBB101:
 826              		.loc 3 45 0
 827 000e 5C60     		str	r4, [r3, #4]
 828              	.LVL58:
 829              	.LBE101:
ARM GAS  /tmp/ccpdZtB5.s 			page 21


 830              	.LBE102:
 831              	.LBE103:
 832              		.loc 4 54 0
 833 0010 9F60     		str	r7, [r3, #8]
 834              	.LBE104:
 835              	.LBE106:
 836              	.LBE108:
 837              	.LBE94:
 838              	.LBE93:
 839              	.LBE92:
 130:../cores/arduino/USB/USBSerial.cpp **** 
 840              		.loc 1 130 0
 841 0012 1846     		mov	r0, r3
 842              	.LBB112:
 843              	.LBB111:
 844              	.LBB110:
  21:../cores/arduino/USB/USBSerial.cpp **** {
 845              		.loc 1 21 0
 846 0014 1E60     		str	r6, [r3]
 847 0016 1D61     		str	r5, [r3, #16]
 848              	.LBB109:
 849              	.LBB107:
 850              	.LBB105:
 851              		.loc 4 54 0
 852 0018 DC60     		str	r4, [r3, #12]
 853              	.LVL59:
 854              	.LBE105:
 855              	.LBE107:
 856              	.LBE109:
  21:../cores/arduino/USB/USBSerial.cpp **** {
 857              		.loc 1 21 0
 858 001a 1C75     		strb	r4, [r3, #20]
 859              	.LVL60:
 860              	.LBE110:
 861              	.LBE111:
 862              	.LBE112:
 130:../cores/arduino/USB/USBSerial.cpp **** 
 863              		.loc 1 130 0
 864 001c 044A     		ldr	r2, .L74+8
 865 001e 0549     		ldr	r1, .L74+12
 866              	.LBE91:
 867              	.LBE90:
 868              		.loc 1 157 0
 869 0020 F0BC     		pop	{r4, r5, r6, r7}
 870              		.cfi_restore 7
 871              		.cfi_restore 6
 872              		.cfi_restore 5
 873              		.cfi_restore 4
 874              		.cfi_def_cfa_offset 0
 875              	.LBB114:
 876              	.LBB113:
 130:../cores/arduino/USB/USBSerial.cpp **** 
 877              		.loc 1 130 0
 878 0022 FFF7FEBF 		b	__aeabi_atexit
 879              	.LVL61:
 880              	.L75:
 881 0026 00BF     		.align	2
ARM GAS  /tmp/ccpdZtB5.s 			page 22


 882              	.L74:
 883 0028 00000000 		.word	.LANCHOR1
 884 002c 08000000 		.word	.LANCHOR0+8
 885 0030 00000000 		.word	__dso_handle
 886 0034 00000000 		.word	_ZN9SerialCDCD1Ev
 887              	.LBE113:
 888              	.LBE114:
 889              		.cfi_endproc
 890              	.LFE212:
 891              		.size	_GLOBAL__sub_I__ZN9SerialCDCC2Ev, .-_GLOBAL__sub_I__ZN9SerialCDCC2Ev
 892              		.section	.init_array,"aw",%init_array
 893              		.align	2
 894 0000 00000000 		.word	_GLOBAL__sub_I__ZN9SerialCDCC2Ev(target1)
 895              		.global	_ZTV9SerialCDC
 896              		.global	SerialUSB
 897              		.section	.bss.SerialUSB,"aw",%nobits
 898              		.align	2
 899              		.set	.LANCHOR1,. + 0
 900              		.type	SerialUSB, %object
 901              		.size	SerialUSB, 24
 902              	SerialUSB:
 903 0000 00000000 		.space	24
 903      00000000 
 903      00000000 
 903      00000000 
 903      00000000 
 904              		.section	.bss._ZL28cpu_irq_prev_interrupt_state,"aw",%nobits
 905              		.type	_ZL28cpu_irq_prev_interrupt_state, %object
 906              		.size	_ZL28cpu_irq_prev_interrupt_state, 1
 907              	_ZL28cpu_irq_prev_interrupt_state:
 908 0000 00       		.space	1
 909              		.section	.bss._ZL32cpu_irq_critical_section_counter,"aw",%nobits
 910              		.align	2
 911              		.type	_ZL32cpu_irq_critical_section_counter, %object
 912              		.size	_ZL32cpu_irq_critical_section_counter, 4
 913              	_ZL32cpu_irq_critical_section_counter:
 914 0000 00000000 		.space	4
 915              		.section	.rodata._ZTV9SerialCDC,"a",%progbits
 916              		.align	2
 917              		.set	.LANCHOR0,. + 0
 918              		.type	_ZTV9SerialCDC, %object
 919              		.size	_ZTV9SerialCDC, 48
 920              	_ZTV9SerialCDC:
 921 0000 00000000 		.word	0
 922 0004 00000000 		.word	0
 923 0008 00000000 		.word	_ZN9SerialCDCD1Ev
 924 000c 00000000 		.word	_ZN9SerialCDCD0Ev
 925 0010 00000000 		.word	_ZN9SerialCDC5writeEh
 926 0014 00000000 		.word	_ZN9SerialCDC5writeEPKhj
 927 0018 00000000 		.word	_ZN9SerialCDC9availableEv
 928 001c 00000000 		.word	_ZN9SerialCDC4readEv
 929 0020 00000000 		.word	_ZN9SerialCDC4peekEv
 930 0024 00000000 		.word	_ZN9SerialCDC5flushEv
 931 0028 00000000 		.word	_ZNK9SerialCDC8canWriteEv
 932 002c 00000000 		.word	_ZN9SerialCDC9readBytesEPcj
 933              		.text
 934              	.Letext0:
ARM GAS  /tmp/ccpdZtB5.s 			page 23


 935              		.file 5 "/usr/include/newlib/machine/_default_types.h"
 936              		.file 6 "/usr/include/newlib/sys/_stdint.h"
 937              		.file 7 "/usr/lib/gcc/arm-none-eabi/6.3.1/include/stddef.h"
 938              		.file 8 "/usr/include/newlib/sys/lock.h"
 939              		.file 9 "/usr/include/newlib/sys/_types.h"
 940              		.file 10 "/usr/include/newlib/sys/reent.h"
 941              		.file 11 "/usr/include/newlib/c++/6.3.1/cstdlib"
 942              		.file 12 "/usr/include/newlib/c++/6.3.1/arm-none-eabi/thumb/v7e-m/fpv5/hard/bits/c++config.h"
 943              		.file 13 "/usr/include/newlib/stdlib.h"
 944              		.file 14 "/usr/include/newlib/c++/6.3.1/stdlib.h"
 945              		.file 15 "/home/torbjorn/eclipse-workspace/CoreNG/asf/thirdparty/CMSIS/Include/core_cm7.h"
 946              		.file 16 "/home/torbjorn/eclipse-workspace/CoreNG/variants/same70/system_same70.h"
 947              		.file 17 "/home/torbjorn/eclipse-workspace/CoreNG/asf/common/utils/interrupt/interrupt_sam_nvic.h"
 948              		.file 18 "/home/torbjorn/eclipse-workspace/CoreNG/asf/sam/utils/compiler.h"
 949              		.file 19 "/home/torbjorn/eclipse-workspace/CoreNG/asf/common/services/usb/usb_protocol.h"
 950              		.file 20 "/home/torbjorn/eclipse-workspace/CoreNG/asf/common/services/usb/udc/udi.h"
 951              		.file 21 "/home/torbjorn/eclipse-workspace/CoreNG/asf/common/services/usb/udc/udc_desc.h"
 952              		.file 22 "/home/torbjorn/eclipse-workspace/CoreNG/asf/common/services/usb/udc/udd.h"
 953              		.file 23 "/home/torbjorn/eclipse-workspace/CoreNG/asf/common/services/usb/class/cdc/device/udi_cdc
 954              		.file 24 "/home/torbjorn/eclipse-workspace/CoreNG/asf/common/services/usb/udc/udc.h"
 955              		.file 25 "<built-in>"