ARM GAS  /tmp/ccE6DmFr.s 			page 1


   1              		.cpu cortex-m7
   2              		.eabi_attribute 28, 1
   3              		.eabi_attribute 20, 1
   4              		.eabi_attribute 21, 1
   5              		.eabi_attribute 23, 3
   6              		.eabi_attribute 24, 1
   7              		.eabi_attribute 25, 1
   8              		.eabi_attribute 26, 1
   9              		.eabi_attribute 30, 2
  10              		.eabi_attribute 34, 1
  11              		.eabi_attribute 18, 4
  12              		.file	"watchdog.cpp"
  13              		.text
  14              	.Ltext0:
  15              		.cfi_sections	.debug_frame
  16              		.section	.text._Z14watchdogEnablem,"ax",%progbits
  17              		.align	1
  18              		.p2align 2,,3
  19              		.global	_Z14watchdogEnablem
  20              		.syntax unified
  21              		.thumb
  22              		.thumb_func
  23              		.fpu fpv5-d16
  24              		.type	_Z14watchdogEnablem, %function
  25              	_Z14watchdogEnablem:
  26              	.LFB229:
  27              		.file 1 "../cores/arduino/watchdog.cpp"
   1:../cores/arduino/watchdog.cpp **** /*
   2:../cores/arduino/watchdog.cpp ****   Copyright (c) 2014 Arduino.  All right reserved.
   3:../cores/arduino/watchdog.cpp **** 
   4:../cores/arduino/watchdog.cpp ****   This library is free software; you can redistribute it and/or
   5:../cores/arduino/watchdog.cpp ****   modify it under the terms of the GNU Lesser General Public
   6:../cores/arduino/watchdog.cpp ****   License as published by the Free Software Foundation; either
   7:../cores/arduino/watchdog.cpp ****   version 2.1 of the License, or (at your option) any later version.
   8:../cores/arduino/watchdog.cpp **** 
   9:../cores/arduino/watchdog.cpp ****   This library is distributed in the hope that it will be useful,
  10:../cores/arduino/watchdog.cpp ****   but WITHOUT ANY WARRANTY; without even the implied warranty of
  11:../cores/arduino/watchdog.cpp ****   MERCHANTABILITY or FITNESS FOR A PARTICULAR PURPOSE.
  12:../cores/arduino/watchdog.cpp ****   See the GNU Lesser General Public License for more details.
  13:../cores/arduino/watchdog.cpp **** 
  14:../cores/arduino/watchdog.cpp ****   You should have received a copy of the GNU Lesser General Public
  15:../cores/arduino/watchdog.cpp ****   License along with this library; if not, write to the Free Software
  16:../cores/arduino/watchdog.cpp ****   Foundation, Inc., 51 Franklin St, Fifth Floor, Boston, MA  02110-1301  USA
  17:../cores/arduino/watchdog.cpp **** */
  18:../cores/arduino/watchdog.cpp **** 
  19:../cores/arduino/watchdog.cpp **** #include <asf.h>
  20:../cores/arduino/watchdog.cpp **** 
  21:../cores/arduino/watchdog.cpp **** #include "watchdog.h"
  22:../cores/arduino/watchdog.cpp **** #include "wdt/wdt.h"
  23:../cores/arduino/watchdog.cpp **** 
  24:../cores/arduino/watchdog.cpp **** void watchdogEnable (uint32_t timeout)
  25:../cores/arduino/watchdog.cpp **** {
  28              		.loc 1 25 0
  29              		.cfi_startproc
  30              		@ args = 0, pretend = 0, frame = 0
  31              		@ frame_needed = 0, uses_anonymous_args = 0
  32              		@ link register save eliminated.
ARM GAS  /tmp/ccE6DmFr.s 			page 2


  33              	.LVL0:
  26:../cores/arduino/watchdog.cpp **** 	/* this assumes the slow clock is running at 32.768 kHz
  27:../cores/arduino/watchdog.cpp **** 	   watchdog frequency is therefore 32768 / 128 = 256 Hz */
  28:../cores/arduino/watchdog.cpp **** 	timeout = timeout * 256 / 1000; 
  34              		.loc 1 28 0
  35 0000 0002     		lsls	r0, r0, #8
  36              	.LVL1:
  37 0002 094B     		ldr	r3, .L5
  38 0004 A3FB0030 		umull	r3, r0, r3, r0
  39              	.LVL2:
  29:../cores/arduino/watchdog.cpp **** 	if (timeout == 0)
  40              		.loc 1 29 0
  41 0008 8009     		lsrs	r0, r0, #6
  42              	.LVL3:
  43 000a 0BD0     		beq	.L3
  44 000c 40F6FF73 		movw	r3, #4095
  45 0010 9842     		cmp	r0, r3
  46 0012 28BF     		it	cs
  47 0014 1846     		movcs	r0, r3
  48              	.LVL4:
  49              	.L2:
  50 0016 83B2     		uxth	r3, r0
  51              	.LVL5:
  30:../cores/arduino/watchdog.cpp **** 	{
  31:../cores/arduino/watchdog.cpp **** 		timeout = 1;
  32:../cores/arduino/watchdog.cpp **** 	}
  33:../cores/arduino/watchdog.cpp **** 	else if (timeout > 0xFFF)
  34:../cores/arduino/watchdog.cpp **** 	{
  35:../cores/arduino/watchdog.cpp **** 		timeout = 0xFFF;
  36:../cores/arduino/watchdog.cpp **** 	}
  37:../cores/arduino/watchdog.cpp **** 	wdt_init (WDT, WDT_MR_WDRSTEN, (uint16_t)timeout, (uint16_t)timeout);
  52              		.loc 1 37 0
  53 0018 4FF40051 		mov	r1, #8192
  54 001c 0348     		ldr	r0, .L5+4
  55 001e 1A46     		mov	r2, r3
  56 0020 FFF7FEBF 		b	wdt_init
  57              	.LVL6:
  58              	.L3:
  59 0024 0120     		movs	r0, #1
  60              	.LVL7:
  61 0026 F6E7     		b	.L2
  62              	.L6:
  63              		.align	2
  64              	.L5:
  65 0028 D34D6210 		.word	274877907
  66 002c 50180E40 		.word	1074665552
  67              		.cfi_endproc
  68              	.LFE229:
  69              		.size	_Z14watchdogEnablem, .-_Z14watchdogEnablem
  70              		.section	.text._Z15watchdogDisablev,"ax",%progbits
  71              		.align	1
  72              		.p2align 2,,3
  73              		.global	_Z15watchdogDisablev
  74              		.syntax unified
  75              		.thumb
  76              		.thumb_func
  77              		.fpu fpv5-d16
ARM GAS  /tmp/ccE6DmFr.s 			page 3


  78              		.type	_Z15watchdogDisablev, %function
  79              	_Z15watchdogDisablev:
  80              	.LFB230:
  38:../cores/arduino/watchdog.cpp **** }
  39:../cores/arduino/watchdog.cpp **** 
  40:../cores/arduino/watchdog.cpp **** void watchdogDisable(void)
  41:../cores/arduino/watchdog.cpp **** {
  81              		.loc 1 41 0
  82              		.cfi_startproc
  83              		@ args = 0, pretend = 0, frame = 0
  84              		@ frame_needed = 0, uses_anonymous_args = 0
  85              		@ link register save eliminated.
  42:../cores/arduino/watchdog.cpp **** 	wdt_disable (WDT);
  86              		.loc 1 42 0
  87 0000 0148     		ldr	r0, .L8
  88 0002 FFF7FEBF 		b	wdt_disable
  89              	.LVL8:
  90              	.L9:
  91 0006 00BF     		.align	2
  92              	.L8:
  93 0008 50180E40 		.word	1074665552
  94              		.cfi_endproc
  95              	.LFE230:
  96              		.size	_Z15watchdogDisablev, .-_Z15watchdogDisablev
  97              		.section	.text._Z13watchdogResetv,"ax",%progbits
  98              		.align	1
  99              		.p2align 2,,3
 100              		.global	_Z13watchdogResetv
 101              		.syntax unified
 102              		.thumb
 103              		.thumb_func
 104              		.fpu fpv5-d16
 105              		.type	_Z13watchdogResetv, %function
 106              	_Z13watchdogResetv:
 107              	.LFB231:
  43:../cores/arduino/watchdog.cpp **** }
  44:../cores/arduino/watchdog.cpp **** 
  45:../cores/arduino/watchdog.cpp **** void watchdogReset(void)
  46:../cores/arduino/watchdog.cpp **** {
 108              		.loc 1 46 0
 109              		.cfi_startproc
 110              		@ args = 0, pretend = 0, frame = 0
 111              		@ frame_needed = 0, uses_anonymous_args = 0
 112              		@ link register save eliminated.
  47:../cores/arduino/watchdog.cpp **** 	wdt_restart (WDT);
 113              		.loc 1 47 0
 114 0000 0148     		ldr	r0, .L11
 115 0002 FFF7FEBF 		b	wdt_restart
 116              	.LVL9:
 117              	.L12:
 118 0006 00BF     		.align	2
 119              	.L11:
 120 0008 50180E40 		.word	1074665552
 121              		.cfi_endproc
 122              	.LFE231:
 123              		.size	_Z13watchdogResetv, .-_Z13watchdogResetv
 124              		.section	.bss._ZL28cpu_irq_prev_interrupt_state,"aw",%nobits
ARM GAS  /tmp/ccE6DmFr.s 			page 4


 125              		.type	_ZL28cpu_irq_prev_interrupt_state, %object
 126              		.size	_ZL28cpu_irq_prev_interrupt_state, 1
 127              	_ZL28cpu_irq_prev_interrupt_state:
 128 0000 00       		.space	1
 129              		.section	.bss._ZL32cpu_irq_critical_section_counter,"aw",%nobits
 130              		.align	2
 131              		.type	_ZL32cpu_irq_critical_section_counter, %object
 132              		.size	_ZL32cpu_irq_critical_section_counter, 4
 133              	_ZL32cpu_irq_critical_section_counter:
 134 0000 00000000 		.space	4
 135              		.text
 136              	.Letext0:
 137              		.file 2 "/usr/lib/gcc/arm-none-eabi/6.3.1/include/stddef.h"
 138              		.file 3 "/usr/include/newlib/machine/_default_types.h"
 139              		.file 4 "/usr/include/newlib/sys/_stdint.h"
 140              		.file 5 "/home/torbjorn/eclipse-workspace/CoreNG/asf/thirdparty/CMSIS/Include/core_cm7.h"
 141              		.file 6 "/home/torbjorn/eclipse-workspace/CoreNG/variants/same70/system_same70.h"
 142              		.file 7 "/home/torbjorn/eclipse-workspace/CoreNG/asf/sam/utils/cmsis/same70/include/component/wdt.
 143              		.file 8 "/usr/include/newlib/sys/lock.h"
 144              		.file 9 "/usr/include/newlib/sys/_types.h"
 145              		.file 10 "/usr/include/newlib/sys/reent.h"
 146              		.file 11 "/usr/include/newlib/c++/6.3.1/cstdlib"
 147              		.file 12 "/usr/include/newlib/c++/6.3.1/arm-none-eabi/thumb/v7e-m/fpv5/hard/bits/c++config.h"
 148              		.file 13 "/usr/include/newlib/stdlib.h"
 149              		.file 14 "/usr/include/newlib/c++/6.3.1/stdlib.h"
 150              		.file 15 "/home/torbjorn/eclipse-workspace/CoreNG/asf/common/utils/interrupt/interrupt_sam_nvic.h"
 151              		.file 16 "/home/torbjorn/eclipse-workspace/CoreNG/asf/sam/drivers/wdt/wdt.h"
 152              		.file 17 "<built-in>"