ARM GAS  /tmp/ccTuq0hs.s 			page 1


   1              		.cpu cortex-m7
   2              		.eabi_attribute 28, 1
   3              		.eabi_attribute 20, 1
   4              		.eabi_attribute 21, 1
   5              		.eabi_attribute 23, 3
   6              		.eabi_attribute 24, 1
   7              		.eabi_attribute 25, 1
   8              		.eabi_attribute 26, 1
   9              		.eabi_attribute 30, 2
  10              		.eabi_attribute 34, 1
  11              		.eabi_attribute 18, 4
  12              		.file	"wiring.c"
  13              		.text
  14              	.Ltext0:
  15              		.cfi_sections	.debug_frame
  16              		.section	.text.TimeTick_Increment,"ax",%progbits
  17              		.align	1
  18              		.p2align 2,,3
  19              		.global	TimeTick_Increment
  20              		.syntax unified
  21              		.thumb
  22              		.thumb_func
  23              		.fpu fpv5-d16
  24              		.type	TimeTick_Increment, %function
  25              	TimeTick_Increment:
  26              	.LFB227:
  27              		.file 1 "../cores/arduino/wiring.c"
   1:../cores/arduino/wiring.c **** /*
   2:../cores/arduino/wiring.c ****   Copyright (c) 2011 Arduino.  All right reserved.
   3:../cores/arduino/wiring.c **** 
   4:../cores/arduino/wiring.c ****   This library is free software; you can redistribute it and/or
   5:../cores/arduino/wiring.c ****   modify it under the terms of the GNU Lesser General Public
   6:../cores/arduino/wiring.c ****   License as published by the Free Software Foundation; either
   7:../cores/arduino/wiring.c ****   version 2.1 of the License, or (at your option) any later version.
   8:../cores/arduino/wiring.c **** 
   9:../cores/arduino/wiring.c ****   This library is distributed in the hope that it will be useful,
  10:../cores/arduino/wiring.c ****   but WITHOUT ANY WARRANTY; without even the implied warranty of
  11:../cores/arduino/wiring.c ****   MERCHANTABILITY or FITNESS FOR A PARTICULAR PURPOSE.
  12:../cores/arduino/wiring.c ****   See the GNU Lesser General Public License for more details.
  13:../cores/arduino/wiring.c **** 
  14:../cores/arduino/wiring.c ****   You should have received a copy of the GNU Lesser General Public
  15:../cores/arduino/wiring.c ****   License along with this library; if not, write to the Free Software
  16:../cores/arduino/wiring.c ****   Foundation, Inc., 51 Franklin St, Fifth Floor, Boston, MA  02110-1301  USA
  17:../cores/arduino/wiring.c **** */
  18:../cores/arduino/wiring.c **** 
  19:../cores/arduino/wiring.c **** #include "Core.h"
  20:../cores/arduino/wiring.c **** 
  21:../cores/arduino/wiring.c **** #ifdef __cplusplus
  22:../cores/arduino/wiring.c **** extern "C" {
  23:../cores/arduino/wiring.c **** #endif
  24:../cores/arduino/wiring.c **** 
  25:../cores/arduino/wiring.c **** static volatile uint64_t g_ms_ticks = 0;		// Count of 1ms time ticks. */
  26:../cores/arduino/wiring.c **** 
  27:../cores/arduino/wiring.c **** void TimeTick_Increment( void )
  28:../cores/arduino/wiring.c **** {
  28              		.loc 1 28 0
  29              		.cfi_startproc
ARM GAS  /tmp/ccTuq0hs.s 			page 2


  30              		@ args = 0, pretend = 0, frame = 0
  31              		@ frame_needed = 0, uses_anonymous_args = 0
  32              		@ link register save eliminated.
  29:../cores/arduino/wiring.c **** 	g_ms_ticks++;
  33              		.loc 1 29 0
  34 0000 0449     		ldr	r1, .L2
  35 0002 D1E90023 		ldrd	r2, [r1]
  36 0006 0132     		adds	r2, r2, #1
  37 0008 43F10003 		adc	r3, r3, #0
  38 000c C1E90023 		strd	r2, [r1]
  39 0010 7047     		bx	lr
  40              	.L3:
  41 0012 00BF     		.align	2
  42              	.L2:
  43 0014 00000000 		.word	.LANCHOR0
  44              		.cfi_endproc
  45              	.LFE227:
  46              		.size	TimeTick_Increment, .-TimeTick_Increment
  47              		.section	.text.millis,"ax",%progbits
  48              		.align	1
  49              		.p2align 2,,3
  50              		.global	millis
  51              		.syntax unified
  52              		.thumb
  53              		.thumb_func
  54              		.fpu fpv5-d16
  55              		.type	millis, %function
  56              	millis:
  57              	.LFB228:
  30:../cores/arduino/wiring.c **** }
  31:../cores/arduino/wiring.c **** 
  32:../cores/arduino/wiring.c **** uint32_t millis( void )
  33:../cores/arduino/wiring.c **** {
  58              		.loc 1 33 0
  59              		.cfi_startproc
  60              		@ args = 0, pretend = 0, frame = 0
  61              		@ frame_needed = 0, uses_anonymous_args = 0
  62              		@ link register save eliminated.
  34:../cores/arduino/wiring.c ****     return (uint32_t)g_ms_ticks;
  63              		.loc 1 34 0
  64 0000 014B     		ldr	r3, .L5
  65 0002 D3E90001 		ldrd	r0, [r3]
  35:../cores/arduino/wiring.c **** }
  66              		.loc 1 35 0
  67 0006 7047     		bx	lr
  68              	.L6:
  69              		.align	2
  70              	.L5:
  71 0008 00000000 		.word	.LANCHOR0
  72              		.cfi_endproc
  73              	.LFE228:
  74              		.size	millis, .-millis
  75              		.section	.text.millis64,"ax",%progbits
  76              		.align	1
  77              		.p2align 2,,3
  78              		.global	millis64
  79              		.syntax unified
ARM GAS  /tmp/ccTuq0hs.s 			page 3


  80              		.thumb
  81              		.thumb_func
  82              		.fpu fpv5-d16
  83              		.type	millis64, %function
  84              	millis64:
  85              	.LFB229:
  36:../cores/arduino/wiring.c **** 
  37:../cores/arduino/wiring.c **** uint64_t millis64( void )
  38:../cores/arduino/wiring.c **** {
  86              		.loc 1 38 0
  87              		.cfi_startproc
  88              		@ args = 0, pretend = 0, frame = 0
  89              		@ frame_needed = 0, uses_anonymous_args = 0
  90              		@ link register save eliminated.
  91              	.LBB32:
  92              	.LBB33:
  93              	.LBB34:
  94              	.LBB35:
  95              		.file 2 "/home/torbjorn/eclipse-workspace/CoreNG/asf/thirdparty/CMSIS/Include/core_cmFunc.h"
   1:/home/torbjorn/eclipse-workspace/CoreNG/asf/thirdparty/CMSIS/Include/core_cmFunc.h **** /**************************************************************************//**
   2:/home/torbjorn/eclipse-workspace/CoreNG/asf/thirdparty/CMSIS/Include/core_cmFunc.h ****  * @file     core_cmFunc.h
   3:/home/torbjorn/eclipse-workspace/CoreNG/asf/thirdparty/CMSIS/Include/core_cmFunc.h ****  * @brief    CMSIS Cortex-M Core Function Access Header File
   4:/home/torbjorn/eclipse-workspace/CoreNG/asf/thirdparty/CMSIS/Include/core_cmFunc.h ****  * @version  V4.00
   5:/home/torbjorn/eclipse-workspace/CoreNG/asf/thirdparty/CMSIS/Include/core_cmFunc.h ****  * @date     28. August 2014
   6:/home/torbjorn/eclipse-workspace/CoreNG/asf/thirdparty/CMSIS/Include/core_cmFunc.h ****  *
   7:/home/torbjorn/eclipse-workspace/CoreNG/asf/thirdparty/CMSIS/Include/core_cmFunc.h ****  * @note
   8:/home/torbjorn/eclipse-workspace/CoreNG/asf/thirdparty/CMSIS/Include/core_cmFunc.h ****  *
   9:/home/torbjorn/eclipse-workspace/CoreNG/asf/thirdparty/CMSIS/Include/core_cmFunc.h ****  ******************************************************************************/
  10:/home/torbjorn/eclipse-workspace/CoreNG/asf/thirdparty/CMSIS/Include/core_cmFunc.h **** /* Copyright (c) 2009 - 2014 ARM LIMITED
  11:/home/torbjorn/eclipse-workspace/CoreNG/asf/thirdparty/CMSIS/Include/core_cmFunc.h **** 
  12:/home/torbjorn/eclipse-workspace/CoreNG/asf/thirdparty/CMSIS/Include/core_cmFunc.h ****    All rights reserved.
  13:/home/torbjorn/eclipse-workspace/CoreNG/asf/thirdparty/CMSIS/Include/core_cmFunc.h ****    Redistribution and use in source and binary forms, with or without
  14:/home/torbjorn/eclipse-workspace/CoreNG/asf/thirdparty/CMSIS/Include/core_cmFunc.h ****    modification, are permitted provided that the following conditions are met:
  15:/home/torbjorn/eclipse-workspace/CoreNG/asf/thirdparty/CMSIS/Include/core_cmFunc.h ****    - Redistributions of source code must retain the above copyright
  16:/home/torbjorn/eclipse-workspace/CoreNG/asf/thirdparty/CMSIS/Include/core_cmFunc.h ****      notice, this list of conditions and the following disclaimer.
  17:/home/torbjorn/eclipse-workspace/CoreNG/asf/thirdparty/CMSIS/Include/core_cmFunc.h ****    - Redistributions in binary form must reproduce the above copyright
  18:/home/torbjorn/eclipse-workspace/CoreNG/asf/thirdparty/CMSIS/Include/core_cmFunc.h ****      notice, this list of conditions and the following disclaimer in the
  19:/home/torbjorn/eclipse-workspace/CoreNG/asf/thirdparty/CMSIS/Include/core_cmFunc.h ****      documentation and/or other materials provided with the distribution.
  20:/home/torbjorn/eclipse-workspace/CoreNG/asf/thirdparty/CMSIS/Include/core_cmFunc.h ****    - Neither the name of ARM nor the names of its contributors may be used
  21:/home/torbjorn/eclipse-workspace/CoreNG/asf/thirdparty/CMSIS/Include/core_cmFunc.h ****      to endorse or promote products derived from this software without
  22:/home/torbjorn/eclipse-workspace/CoreNG/asf/thirdparty/CMSIS/Include/core_cmFunc.h ****      specific prior written permission.
  23:/home/torbjorn/eclipse-workspace/CoreNG/asf/thirdparty/CMSIS/Include/core_cmFunc.h ****    *
  24:/home/torbjorn/eclipse-workspace/CoreNG/asf/thirdparty/CMSIS/Include/core_cmFunc.h ****    THIS SOFTWARE IS PROVIDED BY THE COPYRIGHT HOLDERS AND CONTRIBUTORS "AS IS"
  25:/home/torbjorn/eclipse-workspace/CoreNG/asf/thirdparty/CMSIS/Include/core_cmFunc.h ****    AND ANY EXPRESS OR IMPLIED WARRANTIES, INCLUDING, BUT NOT LIMITED TO, THE
  26:/home/torbjorn/eclipse-workspace/CoreNG/asf/thirdparty/CMSIS/Include/core_cmFunc.h ****    IMPLIED WARRANTIES OF MERCHANTABILITY AND FITNESS FOR A PARTICULAR PURPOSE
  27:/home/torbjorn/eclipse-workspace/CoreNG/asf/thirdparty/CMSIS/Include/core_cmFunc.h ****    ARE DISCLAIMED. IN NO EVENT SHALL COPYRIGHT HOLDERS AND CONTRIBUTORS BE
  28:/home/torbjorn/eclipse-workspace/CoreNG/asf/thirdparty/CMSIS/Include/core_cmFunc.h ****    LIABLE FOR ANY DIRECT, INDIRECT, INCIDENTAL, SPECIAL, EXEMPLARY, OR
  29:/home/torbjorn/eclipse-workspace/CoreNG/asf/thirdparty/CMSIS/Include/core_cmFunc.h ****    CONSEQUENTIAL DAMAGES (INCLUDING, BUT NOT LIMITED TO, PROCUREMENT OF
  30:/home/torbjorn/eclipse-workspace/CoreNG/asf/thirdparty/CMSIS/Include/core_cmFunc.h ****    SUBSTITUTE GOODS OR SERVICES; LOSS OF USE, DATA, OR PROFITS; OR BUSINESS
  31:/home/torbjorn/eclipse-workspace/CoreNG/asf/thirdparty/CMSIS/Include/core_cmFunc.h ****    INTERRUPTION) HOWEVER CAUSED AND ON ANY THEORY OF LIABILITY, WHETHER IN
  32:/home/torbjorn/eclipse-workspace/CoreNG/asf/thirdparty/CMSIS/Include/core_cmFunc.h ****    CONTRACT, STRICT LIABILITY, OR TORT (INCLUDING NEGLIGENCE OR OTHERWISE)
  33:/home/torbjorn/eclipse-workspace/CoreNG/asf/thirdparty/CMSIS/Include/core_cmFunc.h ****    ARISING IN ANY WAY OUT OF THE USE OF THIS SOFTWARE, EVEN IF ADVISED OF THE
  34:/home/torbjorn/eclipse-workspace/CoreNG/asf/thirdparty/CMSIS/Include/core_cmFunc.h ****    POSSIBILITY OF SUCH DAMAGE.
  35:/home/torbjorn/eclipse-workspace/CoreNG/asf/thirdparty/CMSIS/Include/core_cmFunc.h ****    ---------------------------------------------------------------------------*/
  36:/home/torbjorn/eclipse-workspace/CoreNG/asf/thirdparty/CMSIS/Include/core_cmFunc.h **** 
  37:/home/torbjorn/eclipse-workspace/CoreNG/asf/thirdparty/CMSIS/Include/core_cmFunc.h **** 
  38:/home/torbjorn/eclipse-workspace/CoreNG/asf/thirdparty/CMSIS/Include/core_cmFunc.h **** #ifndef __CORE_CMFUNC_H
ARM GAS  /tmp/ccTuq0hs.s 			page 4


  39:/home/torbjorn/eclipse-workspace/CoreNG/asf/thirdparty/CMSIS/Include/core_cmFunc.h **** #define __CORE_CMFUNC_H
  40:/home/torbjorn/eclipse-workspace/CoreNG/asf/thirdparty/CMSIS/Include/core_cmFunc.h **** 
  41:/home/torbjorn/eclipse-workspace/CoreNG/asf/thirdparty/CMSIS/Include/core_cmFunc.h **** 
  42:/home/torbjorn/eclipse-workspace/CoreNG/asf/thirdparty/CMSIS/Include/core_cmFunc.h **** /* ###########################  Core Function Access  ########################### */
  43:/home/torbjorn/eclipse-workspace/CoreNG/asf/thirdparty/CMSIS/Include/core_cmFunc.h **** /** \ingroup  CMSIS_Core_FunctionInterface
  44:/home/torbjorn/eclipse-workspace/CoreNG/asf/thirdparty/CMSIS/Include/core_cmFunc.h ****     \defgroup CMSIS_Core_RegAccFunctions CMSIS Core Register Access Functions
  45:/home/torbjorn/eclipse-workspace/CoreNG/asf/thirdparty/CMSIS/Include/core_cmFunc.h ****   @{
  46:/home/torbjorn/eclipse-workspace/CoreNG/asf/thirdparty/CMSIS/Include/core_cmFunc.h ****  */
  47:/home/torbjorn/eclipse-workspace/CoreNG/asf/thirdparty/CMSIS/Include/core_cmFunc.h **** 
  48:/home/torbjorn/eclipse-workspace/CoreNG/asf/thirdparty/CMSIS/Include/core_cmFunc.h **** #if   defined ( __CC_ARM ) /*------------------RealView Compiler -----------------*/
  49:/home/torbjorn/eclipse-workspace/CoreNG/asf/thirdparty/CMSIS/Include/core_cmFunc.h **** /* ARM armcc specific functions */
  50:/home/torbjorn/eclipse-workspace/CoreNG/asf/thirdparty/CMSIS/Include/core_cmFunc.h **** 
  51:/home/torbjorn/eclipse-workspace/CoreNG/asf/thirdparty/CMSIS/Include/core_cmFunc.h **** #if (__ARMCC_VERSION < 400677)
  52:/home/torbjorn/eclipse-workspace/CoreNG/asf/thirdparty/CMSIS/Include/core_cmFunc.h ****   #error "Please use ARM Compiler Toolchain V4.0.677 or later!"
  53:/home/torbjorn/eclipse-workspace/CoreNG/asf/thirdparty/CMSIS/Include/core_cmFunc.h **** #endif
  54:/home/torbjorn/eclipse-workspace/CoreNG/asf/thirdparty/CMSIS/Include/core_cmFunc.h **** 
  55:/home/torbjorn/eclipse-workspace/CoreNG/asf/thirdparty/CMSIS/Include/core_cmFunc.h **** /* intrinsic void __enable_irq();     */
  56:/home/torbjorn/eclipse-workspace/CoreNG/asf/thirdparty/CMSIS/Include/core_cmFunc.h **** /* intrinsic void __disable_irq();    */
  57:/home/torbjorn/eclipse-workspace/CoreNG/asf/thirdparty/CMSIS/Include/core_cmFunc.h **** 
  58:/home/torbjorn/eclipse-workspace/CoreNG/asf/thirdparty/CMSIS/Include/core_cmFunc.h **** /** \brief  Get Control Register
  59:/home/torbjorn/eclipse-workspace/CoreNG/asf/thirdparty/CMSIS/Include/core_cmFunc.h **** 
  60:/home/torbjorn/eclipse-workspace/CoreNG/asf/thirdparty/CMSIS/Include/core_cmFunc.h ****     This function returns the content of the Control Register.
  61:/home/torbjorn/eclipse-workspace/CoreNG/asf/thirdparty/CMSIS/Include/core_cmFunc.h **** 
  62:/home/torbjorn/eclipse-workspace/CoreNG/asf/thirdparty/CMSIS/Include/core_cmFunc.h ****     \return               Control Register value
  63:/home/torbjorn/eclipse-workspace/CoreNG/asf/thirdparty/CMSIS/Include/core_cmFunc.h ****  */
  64:/home/torbjorn/eclipse-workspace/CoreNG/asf/thirdparty/CMSIS/Include/core_cmFunc.h **** __STATIC_INLINE uint32_t __get_CONTROL(void)
  65:/home/torbjorn/eclipse-workspace/CoreNG/asf/thirdparty/CMSIS/Include/core_cmFunc.h **** {
  66:/home/torbjorn/eclipse-workspace/CoreNG/asf/thirdparty/CMSIS/Include/core_cmFunc.h ****   register uint32_t __regControl         __ASM("control");
  67:/home/torbjorn/eclipse-workspace/CoreNG/asf/thirdparty/CMSIS/Include/core_cmFunc.h ****   return(__regControl);
  68:/home/torbjorn/eclipse-workspace/CoreNG/asf/thirdparty/CMSIS/Include/core_cmFunc.h **** }
  69:/home/torbjorn/eclipse-workspace/CoreNG/asf/thirdparty/CMSIS/Include/core_cmFunc.h **** 
  70:/home/torbjorn/eclipse-workspace/CoreNG/asf/thirdparty/CMSIS/Include/core_cmFunc.h **** 
  71:/home/torbjorn/eclipse-workspace/CoreNG/asf/thirdparty/CMSIS/Include/core_cmFunc.h **** /** \brief  Set Control Register
  72:/home/torbjorn/eclipse-workspace/CoreNG/asf/thirdparty/CMSIS/Include/core_cmFunc.h **** 
  73:/home/torbjorn/eclipse-workspace/CoreNG/asf/thirdparty/CMSIS/Include/core_cmFunc.h ****     This function writes the given value to the Control Register.
  74:/home/torbjorn/eclipse-workspace/CoreNG/asf/thirdparty/CMSIS/Include/core_cmFunc.h **** 
  75:/home/torbjorn/eclipse-workspace/CoreNG/asf/thirdparty/CMSIS/Include/core_cmFunc.h ****     \param [in]    control  Control Register value to set
  76:/home/torbjorn/eclipse-workspace/CoreNG/asf/thirdparty/CMSIS/Include/core_cmFunc.h ****  */
  77:/home/torbjorn/eclipse-workspace/CoreNG/asf/thirdparty/CMSIS/Include/core_cmFunc.h **** __STATIC_INLINE void __set_CONTROL(uint32_t control)
  78:/home/torbjorn/eclipse-workspace/CoreNG/asf/thirdparty/CMSIS/Include/core_cmFunc.h **** {
  79:/home/torbjorn/eclipse-workspace/CoreNG/asf/thirdparty/CMSIS/Include/core_cmFunc.h ****   register uint32_t __regControl         __ASM("control");
  80:/home/torbjorn/eclipse-workspace/CoreNG/asf/thirdparty/CMSIS/Include/core_cmFunc.h ****   __regControl = control;
  81:/home/torbjorn/eclipse-workspace/CoreNG/asf/thirdparty/CMSIS/Include/core_cmFunc.h **** }
  82:/home/torbjorn/eclipse-workspace/CoreNG/asf/thirdparty/CMSIS/Include/core_cmFunc.h **** 
  83:/home/torbjorn/eclipse-workspace/CoreNG/asf/thirdparty/CMSIS/Include/core_cmFunc.h **** 
  84:/home/torbjorn/eclipse-workspace/CoreNG/asf/thirdparty/CMSIS/Include/core_cmFunc.h **** /** \brief  Get IPSR Register
  85:/home/torbjorn/eclipse-workspace/CoreNG/asf/thirdparty/CMSIS/Include/core_cmFunc.h **** 
  86:/home/torbjorn/eclipse-workspace/CoreNG/asf/thirdparty/CMSIS/Include/core_cmFunc.h ****     This function returns the content of the IPSR Register.
  87:/home/torbjorn/eclipse-workspace/CoreNG/asf/thirdparty/CMSIS/Include/core_cmFunc.h **** 
  88:/home/torbjorn/eclipse-workspace/CoreNG/asf/thirdparty/CMSIS/Include/core_cmFunc.h ****     \return               IPSR Register value
  89:/home/torbjorn/eclipse-workspace/CoreNG/asf/thirdparty/CMSIS/Include/core_cmFunc.h ****  */
  90:/home/torbjorn/eclipse-workspace/CoreNG/asf/thirdparty/CMSIS/Include/core_cmFunc.h **** __STATIC_INLINE uint32_t __get_IPSR(void)
  91:/home/torbjorn/eclipse-workspace/CoreNG/asf/thirdparty/CMSIS/Include/core_cmFunc.h **** {
  92:/home/torbjorn/eclipse-workspace/CoreNG/asf/thirdparty/CMSIS/Include/core_cmFunc.h ****   register uint32_t __regIPSR          __ASM("ipsr");
  93:/home/torbjorn/eclipse-workspace/CoreNG/asf/thirdparty/CMSIS/Include/core_cmFunc.h ****   return(__regIPSR);
  94:/home/torbjorn/eclipse-workspace/CoreNG/asf/thirdparty/CMSIS/Include/core_cmFunc.h **** }
  95:/home/torbjorn/eclipse-workspace/CoreNG/asf/thirdparty/CMSIS/Include/core_cmFunc.h **** 
ARM GAS  /tmp/ccTuq0hs.s 			page 5


  96:/home/torbjorn/eclipse-workspace/CoreNG/asf/thirdparty/CMSIS/Include/core_cmFunc.h **** 
  97:/home/torbjorn/eclipse-workspace/CoreNG/asf/thirdparty/CMSIS/Include/core_cmFunc.h **** /** \brief  Get APSR Register
  98:/home/torbjorn/eclipse-workspace/CoreNG/asf/thirdparty/CMSIS/Include/core_cmFunc.h **** 
  99:/home/torbjorn/eclipse-workspace/CoreNG/asf/thirdparty/CMSIS/Include/core_cmFunc.h ****     This function returns the content of the APSR Register.
 100:/home/torbjorn/eclipse-workspace/CoreNG/asf/thirdparty/CMSIS/Include/core_cmFunc.h **** 
 101:/home/torbjorn/eclipse-workspace/CoreNG/asf/thirdparty/CMSIS/Include/core_cmFunc.h ****     \return               APSR Register value
 102:/home/torbjorn/eclipse-workspace/CoreNG/asf/thirdparty/CMSIS/Include/core_cmFunc.h ****  */
 103:/home/torbjorn/eclipse-workspace/CoreNG/asf/thirdparty/CMSIS/Include/core_cmFunc.h **** __STATIC_INLINE uint32_t __get_APSR(void)
 104:/home/torbjorn/eclipse-workspace/CoreNG/asf/thirdparty/CMSIS/Include/core_cmFunc.h **** {
 105:/home/torbjorn/eclipse-workspace/CoreNG/asf/thirdparty/CMSIS/Include/core_cmFunc.h ****   register uint32_t __regAPSR          __ASM("apsr");
 106:/home/torbjorn/eclipse-workspace/CoreNG/asf/thirdparty/CMSIS/Include/core_cmFunc.h ****   return(__regAPSR);
 107:/home/torbjorn/eclipse-workspace/CoreNG/asf/thirdparty/CMSIS/Include/core_cmFunc.h **** }
 108:/home/torbjorn/eclipse-workspace/CoreNG/asf/thirdparty/CMSIS/Include/core_cmFunc.h **** 
 109:/home/torbjorn/eclipse-workspace/CoreNG/asf/thirdparty/CMSIS/Include/core_cmFunc.h **** 
 110:/home/torbjorn/eclipse-workspace/CoreNG/asf/thirdparty/CMSIS/Include/core_cmFunc.h **** /** \brief  Get xPSR Register
 111:/home/torbjorn/eclipse-workspace/CoreNG/asf/thirdparty/CMSIS/Include/core_cmFunc.h **** 
 112:/home/torbjorn/eclipse-workspace/CoreNG/asf/thirdparty/CMSIS/Include/core_cmFunc.h ****     This function returns the content of the xPSR Register.
 113:/home/torbjorn/eclipse-workspace/CoreNG/asf/thirdparty/CMSIS/Include/core_cmFunc.h **** 
 114:/home/torbjorn/eclipse-workspace/CoreNG/asf/thirdparty/CMSIS/Include/core_cmFunc.h ****     \return               xPSR Register value
 115:/home/torbjorn/eclipse-workspace/CoreNG/asf/thirdparty/CMSIS/Include/core_cmFunc.h ****  */
 116:/home/torbjorn/eclipse-workspace/CoreNG/asf/thirdparty/CMSIS/Include/core_cmFunc.h **** __STATIC_INLINE uint32_t __get_xPSR(void)
 117:/home/torbjorn/eclipse-workspace/CoreNG/asf/thirdparty/CMSIS/Include/core_cmFunc.h **** {
 118:/home/torbjorn/eclipse-workspace/CoreNG/asf/thirdparty/CMSIS/Include/core_cmFunc.h ****   register uint32_t __regXPSR          __ASM("xpsr");
 119:/home/torbjorn/eclipse-workspace/CoreNG/asf/thirdparty/CMSIS/Include/core_cmFunc.h ****   return(__regXPSR);
 120:/home/torbjorn/eclipse-workspace/CoreNG/asf/thirdparty/CMSIS/Include/core_cmFunc.h **** }
 121:/home/torbjorn/eclipse-workspace/CoreNG/asf/thirdparty/CMSIS/Include/core_cmFunc.h **** 
 122:/home/torbjorn/eclipse-workspace/CoreNG/asf/thirdparty/CMSIS/Include/core_cmFunc.h **** 
 123:/home/torbjorn/eclipse-workspace/CoreNG/asf/thirdparty/CMSIS/Include/core_cmFunc.h **** /** \brief  Get Process Stack Pointer
 124:/home/torbjorn/eclipse-workspace/CoreNG/asf/thirdparty/CMSIS/Include/core_cmFunc.h **** 
 125:/home/torbjorn/eclipse-workspace/CoreNG/asf/thirdparty/CMSIS/Include/core_cmFunc.h ****     This function returns the current value of the Process Stack Pointer (PSP).
 126:/home/torbjorn/eclipse-workspace/CoreNG/asf/thirdparty/CMSIS/Include/core_cmFunc.h **** 
 127:/home/torbjorn/eclipse-workspace/CoreNG/asf/thirdparty/CMSIS/Include/core_cmFunc.h ****     \return               PSP Register value
 128:/home/torbjorn/eclipse-workspace/CoreNG/asf/thirdparty/CMSIS/Include/core_cmFunc.h ****  */
 129:/home/torbjorn/eclipse-workspace/CoreNG/asf/thirdparty/CMSIS/Include/core_cmFunc.h **** __STATIC_INLINE uint32_t __get_PSP(void)
 130:/home/torbjorn/eclipse-workspace/CoreNG/asf/thirdparty/CMSIS/Include/core_cmFunc.h **** {
 131:/home/torbjorn/eclipse-workspace/CoreNG/asf/thirdparty/CMSIS/Include/core_cmFunc.h ****   register uint32_t __regProcessStackPointer  __ASM("psp");
 132:/home/torbjorn/eclipse-workspace/CoreNG/asf/thirdparty/CMSIS/Include/core_cmFunc.h ****   return(__regProcessStackPointer);
 133:/home/torbjorn/eclipse-workspace/CoreNG/asf/thirdparty/CMSIS/Include/core_cmFunc.h **** }
 134:/home/torbjorn/eclipse-workspace/CoreNG/asf/thirdparty/CMSIS/Include/core_cmFunc.h **** 
 135:/home/torbjorn/eclipse-workspace/CoreNG/asf/thirdparty/CMSIS/Include/core_cmFunc.h **** 
 136:/home/torbjorn/eclipse-workspace/CoreNG/asf/thirdparty/CMSIS/Include/core_cmFunc.h **** /** \brief  Set Process Stack Pointer
 137:/home/torbjorn/eclipse-workspace/CoreNG/asf/thirdparty/CMSIS/Include/core_cmFunc.h **** 
 138:/home/torbjorn/eclipse-workspace/CoreNG/asf/thirdparty/CMSIS/Include/core_cmFunc.h ****     This function assigns the given value to the Process Stack Pointer (PSP).
 139:/home/torbjorn/eclipse-workspace/CoreNG/asf/thirdparty/CMSIS/Include/core_cmFunc.h **** 
 140:/home/torbjorn/eclipse-workspace/CoreNG/asf/thirdparty/CMSIS/Include/core_cmFunc.h ****     \param [in]    topOfProcStack  Process Stack Pointer value to set
 141:/home/torbjorn/eclipse-workspace/CoreNG/asf/thirdparty/CMSIS/Include/core_cmFunc.h ****  */
 142:/home/torbjorn/eclipse-workspace/CoreNG/asf/thirdparty/CMSIS/Include/core_cmFunc.h **** __STATIC_INLINE void __set_PSP(uint32_t topOfProcStack)
 143:/home/torbjorn/eclipse-workspace/CoreNG/asf/thirdparty/CMSIS/Include/core_cmFunc.h **** {
 144:/home/torbjorn/eclipse-workspace/CoreNG/asf/thirdparty/CMSIS/Include/core_cmFunc.h ****   register uint32_t __regProcessStackPointer  __ASM("psp");
 145:/home/torbjorn/eclipse-workspace/CoreNG/asf/thirdparty/CMSIS/Include/core_cmFunc.h ****   __regProcessStackPointer = topOfProcStack;
 146:/home/torbjorn/eclipse-workspace/CoreNG/asf/thirdparty/CMSIS/Include/core_cmFunc.h **** }
 147:/home/torbjorn/eclipse-workspace/CoreNG/asf/thirdparty/CMSIS/Include/core_cmFunc.h **** 
 148:/home/torbjorn/eclipse-workspace/CoreNG/asf/thirdparty/CMSIS/Include/core_cmFunc.h **** 
 149:/home/torbjorn/eclipse-workspace/CoreNG/asf/thirdparty/CMSIS/Include/core_cmFunc.h **** /** \brief  Get Main Stack Pointer
 150:/home/torbjorn/eclipse-workspace/CoreNG/asf/thirdparty/CMSIS/Include/core_cmFunc.h **** 
 151:/home/torbjorn/eclipse-workspace/CoreNG/asf/thirdparty/CMSIS/Include/core_cmFunc.h ****     This function returns the current value of the Main Stack Pointer (MSP).
 152:/home/torbjorn/eclipse-workspace/CoreNG/asf/thirdparty/CMSIS/Include/core_cmFunc.h **** 
ARM GAS  /tmp/ccTuq0hs.s 			page 6


 153:/home/torbjorn/eclipse-workspace/CoreNG/asf/thirdparty/CMSIS/Include/core_cmFunc.h ****     \return               MSP Register value
 154:/home/torbjorn/eclipse-workspace/CoreNG/asf/thirdparty/CMSIS/Include/core_cmFunc.h ****  */
 155:/home/torbjorn/eclipse-workspace/CoreNG/asf/thirdparty/CMSIS/Include/core_cmFunc.h **** __STATIC_INLINE uint32_t __get_MSP(void)
 156:/home/torbjorn/eclipse-workspace/CoreNG/asf/thirdparty/CMSIS/Include/core_cmFunc.h **** {
 157:/home/torbjorn/eclipse-workspace/CoreNG/asf/thirdparty/CMSIS/Include/core_cmFunc.h ****   register uint32_t __regMainStackPointer     __ASM("msp");
 158:/home/torbjorn/eclipse-workspace/CoreNG/asf/thirdparty/CMSIS/Include/core_cmFunc.h ****   return(__regMainStackPointer);
 159:/home/torbjorn/eclipse-workspace/CoreNG/asf/thirdparty/CMSIS/Include/core_cmFunc.h **** }
 160:/home/torbjorn/eclipse-workspace/CoreNG/asf/thirdparty/CMSIS/Include/core_cmFunc.h **** 
 161:/home/torbjorn/eclipse-workspace/CoreNG/asf/thirdparty/CMSIS/Include/core_cmFunc.h **** 
 162:/home/torbjorn/eclipse-workspace/CoreNG/asf/thirdparty/CMSIS/Include/core_cmFunc.h **** /** \brief  Set Main Stack Pointer
 163:/home/torbjorn/eclipse-workspace/CoreNG/asf/thirdparty/CMSIS/Include/core_cmFunc.h **** 
 164:/home/torbjorn/eclipse-workspace/CoreNG/asf/thirdparty/CMSIS/Include/core_cmFunc.h ****     This function assigns the given value to the Main Stack Pointer (MSP).
 165:/home/torbjorn/eclipse-workspace/CoreNG/asf/thirdparty/CMSIS/Include/core_cmFunc.h **** 
 166:/home/torbjorn/eclipse-workspace/CoreNG/asf/thirdparty/CMSIS/Include/core_cmFunc.h ****     \param [in]    topOfMainStack  Main Stack Pointer value to set
 167:/home/torbjorn/eclipse-workspace/CoreNG/asf/thirdparty/CMSIS/Include/core_cmFunc.h ****  */
 168:/home/torbjorn/eclipse-workspace/CoreNG/asf/thirdparty/CMSIS/Include/core_cmFunc.h **** __STATIC_INLINE void __set_MSP(uint32_t topOfMainStack)
 169:/home/torbjorn/eclipse-workspace/CoreNG/asf/thirdparty/CMSIS/Include/core_cmFunc.h **** {
 170:/home/torbjorn/eclipse-workspace/CoreNG/asf/thirdparty/CMSIS/Include/core_cmFunc.h ****   register uint32_t __regMainStackPointer     __ASM("msp");
 171:/home/torbjorn/eclipse-workspace/CoreNG/asf/thirdparty/CMSIS/Include/core_cmFunc.h ****   __regMainStackPointer = topOfMainStack;
 172:/home/torbjorn/eclipse-workspace/CoreNG/asf/thirdparty/CMSIS/Include/core_cmFunc.h **** }
 173:/home/torbjorn/eclipse-workspace/CoreNG/asf/thirdparty/CMSIS/Include/core_cmFunc.h **** 
 174:/home/torbjorn/eclipse-workspace/CoreNG/asf/thirdparty/CMSIS/Include/core_cmFunc.h **** 
 175:/home/torbjorn/eclipse-workspace/CoreNG/asf/thirdparty/CMSIS/Include/core_cmFunc.h **** /** \brief  Get Priority Mask
 176:/home/torbjorn/eclipse-workspace/CoreNG/asf/thirdparty/CMSIS/Include/core_cmFunc.h **** 
 177:/home/torbjorn/eclipse-workspace/CoreNG/asf/thirdparty/CMSIS/Include/core_cmFunc.h ****     This function returns the current state of the priority mask bit from the Priority Mask Registe
 178:/home/torbjorn/eclipse-workspace/CoreNG/asf/thirdparty/CMSIS/Include/core_cmFunc.h **** 
 179:/home/torbjorn/eclipse-workspace/CoreNG/asf/thirdparty/CMSIS/Include/core_cmFunc.h ****     \return               Priority Mask value
 180:/home/torbjorn/eclipse-workspace/CoreNG/asf/thirdparty/CMSIS/Include/core_cmFunc.h ****  */
 181:/home/torbjorn/eclipse-workspace/CoreNG/asf/thirdparty/CMSIS/Include/core_cmFunc.h **** __STATIC_INLINE uint32_t __get_PRIMASK(void)
 182:/home/torbjorn/eclipse-workspace/CoreNG/asf/thirdparty/CMSIS/Include/core_cmFunc.h **** {
 183:/home/torbjorn/eclipse-workspace/CoreNG/asf/thirdparty/CMSIS/Include/core_cmFunc.h ****   register uint32_t __regPriMask         __ASM("primask");
 184:/home/torbjorn/eclipse-workspace/CoreNG/asf/thirdparty/CMSIS/Include/core_cmFunc.h ****   return(__regPriMask);
 185:/home/torbjorn/eclipse-workspace/CoreNG/asf/thirdparty/CMSIS/Include/core_cmFunc.h **** }
 186:/home/torbjorn/eclipse-workspace/CoreNG/asf/thirdparty/CMSIS/Include/core_cmFunc.h **** 
 187:/home/torbjorn/eclipse-workspace/CoreNG/asf/thirdparty/CMSIS/Include/core_cmFunc.h **** 
 188:/home/torbjorn/eclipse-workspace/CoreNG/asf/thirdparty/CMSIS/Include/core_cmFunc.h **** /** \brief  Set Priority Mask
 189:/home/torbjorn/eclipse-workspace/CoreNG/asf/thirdparty/CMSIS/Include/core_cmFunc.h **** 
 190:/home/torbjorn/eclipse-workspace/CoreNG/asf/thirdparty/CMSIS/Include/core_cmFunc.h ****     This function assigns the given value to the Priority Mask Register.
 191:/home/torbjorn/eclipse-workspace/CoreNG/asf/thirdparty/CMSIS/Include/core_cmFunc.h **** 
 192:/home/torbjorn/eclipse-workspace/CoreNG/asf/thirdparty/CMSIS/Include/core_cmFunc.h ****     \param [in]    priMask  Priority Mask
 193:/home/torbjorn/eclipse-workspace/CoreNG/asf/thirdparty/CMSIS/Include/core_cmFunc.h ****  */
 194:/home/torbjorn/eclipse-workspace/CoreNG/asf/thirdparty/CMSIS/Include/core_cmFunc.h **** __STATIC_INLINE void __set_PRIMASK(uint32_t priMask)
 195:/home/torbjorn/eclipse-workspace/CoreNG/asf/thirdparty/CMSIS/Include/core_cmFunc.h **** {
 196:/home/torbjorn/eclipse-workspace/CoreNG/asf/thirdparty/CMSIS/Include/core_cmFunc.h ****   register uint32_t __regPriMask         __ASM("primask");
 197:/home/torbjorn/eclipse-workspace/CoreNG/asf/thirdparty/CMSIS/Include/core_cmFunc.h ****   __regPriMask = (priMask);
 198:/home/torbjorn/eclipse-workspace/CoreNG/asf/thirdparty/CMSIS/Include/core_cmFunc.h **** }
 199:/home/torbjorn/eclipse-workspace/CoreNG/asf/thirdparty/CMSIS/Include/core_cmFunc.h **** 
 200:/home/torbjorn/eclipse-workspace/CoreNG/asf/thirdparty/CMSIS/Include/core_cmFunc.h **** 
 201:/home/torbjorn/eclipse-workspace/CoreNG/asf/thirdparty/CMSIS/Include/core_cmFunc.h **** #if       (__CORTEX_M >= 0x03) || (__CORTEX_SC >= 300)
 202:/home/torbjorn/eclipse-workspace/CoreNG/asf/thirdparty/CMSIS/Include/core_cmFunc.h **** 
 203:/home/torbjorn/eclipse-workspace/CoreNG/asf/thirdparty/CMSIS/Include/core_cmFunc.h **** /** \brief  Enable FIQ
 204:/home/torbjorn/eclipse-workspace/CoreNG/asf/thirdparty/CMSIS/Include/core_cmFunc.h **** 
 205:/home/torbjorn/eclipse-workspace/CoreNG/asf/thirdparty/CMSIS/Include/core_cmFunc.h ****     This function enables FIQ interrupts by clearing the F-bit in the CPSR.
 206:/home/torbjorn/eclipse-workspace/CoreNG/asf/thirdparty/CMSIS/Include/core_cmFunc.h ****     Can only be executed in Privileged modes.
 207:/home/torbjorn/eclipse-workspace/CoreNG/asf/thirdparty/CMSIS/Include/core_cmFunc.h ****  */
 208:/home/torbjorn/eclipse-workspace/CoreNG/asf/thirdparty/CMSIS/Include/core_cmFunc.h **** #define __enable_fault_irq                __enable_fiq
 209:/home/torbjorn/eclipse-workspace/CoreNG/asf/thirdparty/CMSIS/Include/core_cmFunc.h **** 
ARM GAS  /tmp/ccTuq0hs.s 			page 7


 210:/home/torbjorn/eclipse-workspace/CoreNG/asf/thirdparty/CMSIS/Include/core_cmFunc.h **** 
 211:/home/torbjorn/eclipse-workspace/CoreNG/asf/thirdparty/CMSIS/Include/core_cmFunc.h **** /** \brief  Disable FIQ
 212:/home/torbjorn/eclipse-workspace/CoreNG/asf/thirdparty/CMSIS/Include/core_cmFunc.h **** 
 213:/home/torbjorn/eclipse-workspace/CoreNG/asf/thirdparty/CMSIS/Include/core_cmFunc.h ****     This function disables FIQ interrupts by setting the F-bit in the CPSR.
 214:/home/torbjorn/eclipse-workspace/CoreNG/asf/thirdparty/CMSIS/Include/core_cmFunc.h ****     Can only be executed in Privileged modes.
 215:/home/torbjorn/eclipse-workspace/CoreNG/asf/thirdparty/CMSIS/Include/core_cmFunc.h ****  */
 216:/home/torbjorn/eclipse-workspace/CoreNG/asf/thirdparty/CMSIS/Include/core_cmFunc.h **** #define __disable_fault_irq               __disable_fiq
 217:/home/torbjorn/eclipse-workspace/CoreNG/asf/thirdparty/CMSIS/Include/core_cmFunc.h **** 
 218:/home/torbjorn/eclipse-workspace/CoreNG/asf/thirdparty/CMSIS/Include/core_cmFunc.h **** 
 219:/home/torbjorn/eclipse-workspace/CoreNG/asf/thirdparty/CMSIS/Include/core_cmFunc.h **** /** \brief  Get Base Priority
 220:/home/torbjorn/eclipse-workspace/CoreNG/asf/thirdparty/CMSIS/Include/core_cmFunc.h **** 
 221:/home/torbjorn/eclipse-workspace/CoreNG/asf/thirdparty/CMSIS/Include/core_cmFunc.h ****     This function returns the current value of the Base Priority register.
 222:/home/torbjorn/eclipse-workspace/CoreNG/asf/thirdparty/CMSIS/Include/core_cmFunc.h **** 
 223:/home/torbjorn/eclipse-workspace/CoreNG/asf/thirdparty/CMSIS/Include/core_cmFunc.h ****     \return               Base Priority register value
 224:/home/torbjorn/eclipse-workspace/CoreNG/asf/thirdparty/CMSIS/Include/core_cmFunc.h ****  */
 225:/home/torbjorn/eclipse-workspace/CoreNG/asf/thirdparty/CMSIS/Include/core_cmFunc.h **** __STATIC_INLINE uint32_t  __get_BASEPRI(void)
 226:/home/torbjorn/eclipse-workspace/CoreNG/asf/thirdparty/CMSIS/Include/core_cmFunc.h **** {
 227:/home/torbjorn/eclipse-workspace/CoreNG/asf/thirdparty/CMSIS/Include/core_cmFunc.h ****   register uint32_t __regBasePri         __ASM("basepri");
 228:/home/torbjorn/eclipse-workspace/CoreNG/asf/thirdparty/CMSIS/Include/core_cmFunc.h ****   return(__regBasePri);
 229:/home/torbjorn/eclipse-workspace/CoreNG/asf/thirdparty/CMSIS/Include/core_cmFunc.h **** }
 230:/home/torbjorn/eclipse-workspace/CoreNG/asf/thirdparty/CMSIS/Include/core_cmFunc.h **** 
 231:/home/torbjorn/eclipse-workspace/CoreNG/asf/thirdparty/CMSIS/Include/core_cmFunc.h **** 
 232:/home/torbjorn/eclipse-workspace/CoreNG/asf/thirdparty/CMSIS/Include/core_cmFunc.h **** /** \brief  Set Base Priority
 233:/home/torbjorn/eclipse-workspace/CoreNG/asf/thirdparty/CMSIS/Include/core_cmFunc.h **** 
 234:/home/torbjorn/eclipse-workspace/CoreNG/asf/thirdparty/CMSIS/Include/core_cmFunc.h ****     This function assigns the given value to the Base Priority register.
 235:/home/torbjorn/eclipse-workspace/CoreNG/asf/thirdparty/CMSIS/Include/core_cmFunc.h **** 
 236:/home/torbjorn/eclipse-workspace/CoreNG/asf/thirdparty/CMSIS/Include/core_cmFunc.h ****     \param [in]    basePri  Base Priority value to set
 237:/home/torbjorn/eclipse-workspace/CoreNG/asf/thirdparty/CMSIS/Include/core_cmFunc.h ****  */
 238:/home/torbjorn/eclipse-workspace/CoreNG/asf/thirdparty/CMSIS/Include/core_cmFunc.h **** __STATIC_INLINE void __set_BASEPRI(uint32_t basePri)
 239:/home/torbjorn/eclipse-workspace/CoreNG/asf/thirdparty/CMSIS/Include/core_cmFunc.h **** {
 240:/home/torbjorn/eclipse-workspace/CoreNG/asf/thirdparty/CMSIS/Include/core_cmFunc.h ****   register uint32_t __regBasePri         __ASM("basepri");
 241:/home/torbjorn/eclipse-workspace/CoreNG/asf/thirdparty/CMSIS/Include/core_cmFunc.h ****   __regBasePri = (basePri & 0xff);
 242:/home/torbjorn/eclipse-workspace/CoreNG/asf/thirdparty/CMSIS/Include/core_cmFunc.h **** }
 243:/home/torbjorn/eclipse-workspace/CoreNG/asf/thirdparty/CMSIS/Include/core_cmFunc.h **** 
 244:/home/torbjorn/eclipse-workspace/CoreNG/asf/thirdparty/CMSIS/Include/core_cmFunc.h **** 
 245:/home/torbjorn/eclipse-workspace/CoreNG/asf/thirdparty/CMSIS/Include/core_cmFunc.h **** /** \brief  Get Fault Mask
 246:/home/torbjorn/eclipse-workspace/CoreNG/asf/thirdparty/CMSIS/Include/core_cmFunc.h **** 
 247:/home/torbjorn/eclipse-workspace/CoreNG/asf/thirdparty/CMSIS/Include/core_cmFunc.h ****     This function returns the current value of the Fault Mask register.
 248:/home/torbjorn/eclipse-workspace/CoreNG/asf/thirdparty/CMSIS/Include/core_cmFunc.h **** 
 249:/home/torbjorn/eclipse-workspace/CoreNG/asf/thirdparty/CMSIS/Include/core_cmFunc.h ****     \return               Fault Mask register value
 250:/home/torbjorn/eclipse-workspace/CoreNG/asf/thirdparty/CMSIS/Include/core_cmFunc.h ****  */
 251:/home/torbjorn/eclipse-workspace/CoreNG/asf/thirdparty/CMSIS/Include/core_cmFunc.h **** __STATIC_INLINE uint32_t __get_FAULTMASK(void)
 252:/home/torbjorn/eclipse-workspace/CoreNG/asf/thirdparty/CMSIS/Include/core_cmFunc.h **** {
 253:/home/torbjorn/eclipse-workspace/CoreNG/asf/thirdparty/CMSIS/Include/core_cmFunc.h ****   register uint32_t __regFaultMask       __ASM("faultmask");
 254:/home/torbjorn/eclipse-workspace/CoreNG/asf/thirdparty/CMSIS/Include/core_cmFunc.h ****   return(__regFaultMask);
 255:/home/torbjorn/eclipse-workspace/CoreNG/asf/thirdparty/CMSIS/Include/core_cmFunc.h **** }
 256:/home/torbjorn/eclipse-workspace/CoreNG/asf/thirdparty/CMSIS/Include/core_cmFunc.h **** 
 257:/home/torbjorn/eclipse-workspace/CoreNG/asf/thirdparty/CMSIS/Include/core_cmFunc.h **** 
 258:/home/torbjorn/eclipse-workspace/CoreNG/asf/thirdparty/CMSIS/Include/core_cmFunc.h **** /** \brief  Set Fault Mask
 259:/home/torbjorn/eclipse-workspace/CoreNG/asf/thirdparty/CMSIS/Include/core_cmFunc.h **** 
 260:/home/torbjorn/eclipse-workspace/CoreNG/asf/thirdparty/CMSIS/Include/core_cmFunc.h ****     This function assigns the given value to the Fault Mask register.
 261:/home/torbjorn/eclipse-workspace/CoreNG/asf/thirdparty/CMSIS/Include/core_cmFunc.h **** 
 262:/home/torbjorn/eclipse-workspace/CoreNG/asf/thirdparty/CMSIS/Include/core_cmFunc.h ****     \param [in]    faultMask  Fault Mask value to set
 263:/home/torbjorn/eclipse-workspace/CoreNG/asf/thirdparty/CMSIS/Include/core_cmFunc.h ****  */
 264:/home/torbjorn/eclipse-workspace/CoreNG/asf/thirdparty/CMSIS/Include/core_cmFunc.h **** __STATIC_INLINE void __set_FAULTMASK(uint32_t faultMask)
 265:/home/torbjorn/eclipse-workspace/CoreNG/asf/thirdparty/CMSIS/Include/core_cmFunc.h **** {
 266:/home/torbjorn/eclipse-workspace/CoreNG/asf/thirdparty/CMSIS/Include/core_cmFunc.h ****   register uint32_t __regFaultMask       __ASM("faultmask");
ARM GAS  /tmp/ccTuq0hs.s 			page 8


 267:/home/torbjorn/eclipse-workspace/CoreNG/asf/thirdparty/CMSIS/Include/core_cmFunc.h ****   __regFaultMask = (faultMask & (uint32_t)1);
 268:/home/torbjorn/eclipse-workspace/CoreNG/asf/thirdparty/CMSIS/Include/core_cmFunc.h **** }
 269:/home/torbjorn/eclipse-workspace/CoreNG/asf/thirdparty/CMSIS/Include/core_cmFunc.h **** 
 270:/home/torbjorn/eclipse-workspace/CoreNG/asf/thirdparty/CMSIS/Include/core_cmFunc.h **** #endif /* (__CORTEX_M >= 0x03) || (__CORTEX_SC >= 300) */
 271:/home/torbjorn/eclipse-workspace/CoreNG/asf/thirdparty/CMSIS/Include/core_cmFunc.h **** 
 272:/home/torbjorn/eclipse-workspace/CoreNG/asf/thirdparty/CMSIS/Include/core_cmFunc.h **** 
 273:/home/torbjorn/eclipse-workspace/CoreNG/asf/thirdparty/CMSIS/Include/core_cmFunc.h **** #if       (__CORTEX_M == 0x04) || (__CORTEX_M == 0x07)
 274:/home/torbjorn/eclipse-workspace/CoreNG/asf/thirdparty/CMSIS/Include/core_cmFunc.h **** 
 275:/home/torbjorn/eclipse-workspace/CoreNG/asf/thirdparty/CMSIS/Include/core_cmFunc.h **** /** \brief  Get FPSCR
 276:/home/torbjorn/eclipse-workspace/CoreNG/asf/thirdparty/CMSIS/Include/core_cmFunc.h **** 
 277:/home/torbjorn/eclipse-workspace/CoreNG/asf/thirdparty/CMSIS/Include/core_cmFunc.h ****     This function returns the current value of the Floating Point Status/Control register.
 278:/home/torbjorn/eclipse-workspace/CoreNG/asf/thirdparty/CMSIS/Include/core_cmFunc.h **** 
 279:/home/torbjorn/eclipse-workspace/CoreNG/asf/thirdparty/CMSIS/Include/core_cmFunc.h ****     \return               Floating Point Status/Control register value
 280:/home/torbjorn/eclipse-workspace/CoreNG/asf/thirdparty/CMSIS/Include/core_cmFunc.h ****  */
 281:/home/torbjorn/eclipse-workspace/CoreNG/asf/thirdparty/CMSIS/Include/core_cmFunc.h **** __STATIC_INLINE uint32_t __get_FPSCR(void)
 282:/home/torbjorn/eclipse-workspace/CoreNG/asf/thirdparty/CMSIS/Include/core_cmFunc.h **** {
 283:/home/torbjorn/eclipse-workspace/CoreNG/asf/thirdparty/CMSIS/Include/core_cmFunc.h **** #if (__FPU_PRESENT == 1) && (__FPU_USED == 1)
 284:/home/torbjorn/eclipse-workspace/CoreNG/asf/thirdparty/CMSIS/Include/core_cmFunc.h ****   register uint32_t __regfpscr         __ASM("fpscr");
 285:/home/torbjorn/eclipse-workspace/CoreNG/asf/thirdparty/CMSIS/Include/core_cmFunc.h ****   return(__regfpscr);
 286:/home/torbjorn/eclipse-workspace/CoreNG/asf/thirdparty/CMSIS/Include/core_cmFunc.h **** #else
 287:/home/torbjorn/eclipse-workspace/CoreNG/asf/thirdparty/CMSIS/Include/core_cmFunc.h ****    return(0);
 288:/home/torbjorn/eclipse-workspace/CoreNG/asf/thirdparty/CMSIS/Include/core_cmFunc.h **** #endif
 289:/home/torbjorn/eclipse-workspace/CoreNG/asf/thirdparty/CMSIS/Include/core_cmFunc.h **** }
 290:/home/torbjorn/eclipse-workspace/CoreNG/asf/thirdparty/CMSIS/Include/core_cmFunc.h **** 
 291:/home/torbjorn/eclipse-workspace/CoreNG/asf/thirdparty/CMSIS/Include/core_cmFunc.h **** 
 292:/home/torbjorn/eclipse-workspace/CoreNG/asf/thirdparty/CMSIS/Include/core_cmFunc.h **** /** \brief  Set FPSCR
 293:/home/torbjorn/eclipse-workspace/CoreNG/asf/thirdparty/CMSIS/Include/core_cmFunc.h **** 
 294:/home/torbjorn/eclipse-workspace/CoreNG/asf/thirdparty/CMSIS/Include/core_cmFunc.h ****     This function assigns the given value to the Floating Point Status/Control register.
 295:/home/torbjorn/eclipse-workspace/CoreNG/asf/thirdparty/CMSIS/Include/core_cmFunc.h **** 
 296:/home/torbjorn/eclipse-workspace/CoreNG/asf/thirdparty/CMSIS/Include/core_cmFunc.h ****     \param [in]    fpscr  Floating Point Status/Control value to set
 297:/home/torbjorn/eclipse-workspace/CoreNG/asf/thirdparty/CMSIS/Include/core_cmFunc.h ****  */
 298:/home/torbjorn/eclipse-workspace/CoreNG/asf/thirdparty/CMSIS/Include/core_cmFunc.h **** __STATIC_INLINE void __set_FPSCR(uint32_t fpscr)
 299:/home/torbjorn/eclipse-workspace/CoreNG/asf/thirdparty/CMSIS/Include/core_cmFunc.h **** {
 300:/home/torbjorn/eclipse-workspace/CoreNG/asf/thirdparty/CMSIS/Include/core_cmFunc.h **** #if (__FPU_PRESENT == 1) && (__FPU_USED == 1)
 301:/home/torbjorn/eclipse-workspace/CoreNG/asf/thirdparty/CMSIS/Include/core_cmFunc.h ****   register uint32_t __regfpscr         __ASM("fpscr");
 302:/home/torbjorn/eclipse-workspace/CoreNG/asf/thirdparty/CMSIS/Include/core_cmFunc.h ****   __regfpscr = (fpscr);
 303:/home/torbjorn/eclipse-workspace/CoreNG/asf/thirdparty/CMSIS/Include/core_cmFunc.h **** #endif
 304:/home/torbjorn/eclipse-workspace/CoreNG/asf/thirdparty/CMSIS/Include/core_cmFunc.h **** }
 305:/home/torbjorn/eclipse-workspace/CoreNG/asf/thirdparty/CMSIS/Include/core_cmFunc.h **** 
 306:/home/torbjorn/eclipse-workspace/CoreNG/asf/thirdparty/CMSIS/Include/core_cmFunc.h **** #endif /* (__CORTEX_M == 0x04) || (__CORTEX_M == 0x07) */
 307:/home/torbjorn/eclipse-workspace/CoreNG/asf/thirdparty/CMSIS/Include/core_cmFunc.h **** 
 308:/home/torbjorn/eclipse-workspace/CoreNG/asf/thirdparty/CMSIS/Include/core_cmFunc.h **** 
 309:/home/torbjorn/eclipse-workspace/CoreNG/asf/thirdparty/CMSIS/Include/core_cmFunc.h **** #elif defined ( __GNUC__ ) /*------------------ GNU Compiler ---------------------*/
 310:/home/torbjorn/eclipse-workspace/CoreNG/asf/thirdparty/CMSIS/Include/core_cmFunc.h **** /* GNU gcc specific functions */
 311:/home/torbjorn/eclipse-workspace/CoreNG/asf/thirdparty/CMSIS/Include/core_cmFunc.h **** 
 312:/home/torbjorn/eclipse-workspace/CoreNG/asf/thirdparty/CMSIS/Include/core_cmFunc.h **** /** \brief  Enable IRQ Interrupts
 313:/home/torbjorn/eclipse-workspace/CoreNG/asf/thirdparty/CMSIS/Include/core_cmFunc.h **** 
 314:/home/torbjorn/eclipse-workspace/CoreNG/asf/thirdparty/CMSIS/Include/core_cmFunc.h ****   This function enables IRQ interrupts by clearing the I-bit in the CPSR.
 315:/home/torbjorn/eclipse-workspace/CoreNG/asf/thirdparty/CMSIS/Include/core_cmFunc.h ****   Can only be executed in Privileged modes.
 316:/home/torbjorn/eclipse-workspace/CoreNG/asf/thirdparty/CMSIS/Include/core_cmFunc.h ****  */
 317:/home/torbjorn/eclipse-workspace/CoreNG/asf/thirdparty/CMSIS/Include/core_cmFunc.h **** __attribute__( ( always_inline ) ) __STATIC_INLINE void __enable_irq(void)
 318:/home/torbjorn/eclipse-workspace/CoreNG/asf/thirdparty/CMSIS/Include/core_cmFunc.h **** {
 319:/home/torbjorn/eclipse-workspace/CoreNG/asf/thirdparty/CMSIS/Include/core_cmFunc.h ****   __ASM volatile ("cpsie i" : : : "memory");
 320:/home/torbjorn/eclipse-workspace/CoreNG/asf/thirdparty/CMSIS/Include/core_cmFunc.h **** }
 321:/home/torbjorn/eclipse-workspace/CoreNG/asf/thirdparty/CMSIS/Include/core_cmFunc.h **** 
 322:/home/torbjorn/eclipse-workspace/CoreNG/asf/thirdparty/CMSIS/Include/core_cmFunc.h **** 
 323:/home/torbjorn/eclipse-workspace/CoreNG/asf/thirdparty/CMSIS/Include/core_cmFunc.h **** /** \brief  Disable IRQ Interrupts
ARM GAS  /tmp/ccTuq0hs.s 			page 9


 324:/home/torbjorn/eclipse-workspace/CoreNG/asf/thirdparty/CMSIS/Include/core_cmFunc.h **** 
 325:/home/torbjorn/eclipse-workspace/CoreNG/asf/thirdparty/CMSIS/Include/core_cmFunc.h ****   This function disables IRQ interrupts by setting the I-bit in the CPSR.
 326:/home/torbjorn/eclipse-workspace/CoreNG/asf/thirdparty/CMSIS/Include/core_cmFunc.h ****   Can only be executed in Privileged modes.
 327:/home/torbjorn/eclipse-workspace/CoreNG/asf/thirdparty/CMSIS/Include/core_cmFunc.h ****  */
 328:/home/torbjorn/eclipse-workspace/CoreNG/asf/thirdparty/CMSIS/Include/core_cmFunc.h **** __attribute__( ( always_inline ) ) __STATIC_INLINE void __disable_irq(void)
 329:/home/torbjorn/eclipse-workspace/CoreNG/asf/thirdparty/CMSIS/Include/core_cmFunc.h **** {
 330:/home/torbjorn/eclipse-workspace/CoreNG/asf/thirdparty/CMSIS/Include/core_cmFunc.h ****   __ASM volatile ("cpsid i" : : : "memory");
 331:/home/torbjorn/eclipse-workspace/CoreNG/asf/thirdparty/CMSIS/Include/core_cmFunc.h **** }
 332:/home/torbjorn/eclipse-workspace/CoreNG/asf/thirdparty/CMSIS/Include/core_cmFunc.h **** 
 333:/home/torbjorn/eclipse-workspace/CoreNG/asf/thirdparty/CMSIS/Include/core_cmFunc.h **** 
 334:/home/torbjorn/eclipse-workspace/CoreNG/asf/thirdparty/CMSIS/Include/core_cmFunc.h **** /** \brief  Get Control Register
 335:/home/torbjorn/eclipse-workspace/CoreNG/asf/thirdparty/CMSIS/Include/core_cmFunc.h **** 
 336:/home/torbjorn/eclipse-workspace/CoreNG/asf/thirdparty/CMSIS/Include/core_cmFunc.h ****     This function returns the content of the Control Register.
 337:/home/torbjorn/eclipse-workspace/CoreNG/asf/thirdparty/CMSIS/Include/core_cmFunc.h **** 
 338:/home/torbjorn/eclipse-workspace/CoreNG/asf/thirdparty/CMSIS/Include/core_cmFunc.h ****     \return               Control Register value
 339:/home/torbjorn/eclipse-workspace/CoreNG/asf/thirdparty/CMSIS/Include/core_cmFunc.h ****  */
 340:/home/torbjorn/eclipse-workspace/CoreNG/asf/thirdparty/CMSIS/Include/core_cmFunc.h **** __attribute__( ( always_inline ) ) __STATIC_INLINE uint32_t __get_CONTROL(void)
 341:/home/torbjorn/eclipse-workspace/CoreNG/asf/thirdparty/CMSIS/Include/core_cmFunc.h **** {
 342:/home/torbjorn/eclipse-workspace/CoreNG/asf/thirdparty/CMSIS/Include/core_cmFunc.h ****   uint32_t result;
 343:/home/torbjorn/eclipse-workspace/CoreNG/asf/thirdparty/CMSIS/Include/core_cmFunc.h **** 
 344:/home/torbjorn/eclipse-workspace/CoreNG/asf/thirdparty/CMSIS/Include/core_cmFunc.h ****   __ASM volatile ("MRS %0, control" : "=r" (result) );
 345:/home/torbjorn/eclipse-workspace/CoreNG/asf/thirdparty/CMSIS/Include/core_cmFunc.h ****   return(result);
 346:/home/torbjorn/eclipse-workspace/CoreNG/asf/thirdparty/CMSIS/Include/core_cmFunc.h **** }
 347:/home/torbjorn/eclipse-workspace/CoreNG/asf/thirdparty/CMSIS/Include/core_cmFunc.h **** 
 348:/home/torbjorn/eclipse-workspace/CoreNG/asf/thirdparty/CMSIS/Include/core_cmFunc.h **** 
 349:/home/torbjorn/eclipse-workspace/CoreNG/asf/thirdparty/CMSIS/Include/core_cmFunc.h **** /** \brief  Set Control Register
 350:/home/torbjorn/eclipse-workspace/CoreNG/asf/thirdparty/CMSIS/Include/core_cmFunc.h **** 
 351:/home/torbjorn/eclipse-workspace/CoreNG/asf/thirdparty/CMSIS/Include/core_cmFunc.h ****     This function writes the given value to the Control Register.
 352:/home/torbjorn/eclipse-workspace/CoreNG/asf/thirdparty/CMSIS/Include/core_cmFunc.h **** 
 353:/home/torbjorn/eclipse-workspace/CoreNG/asf/thirdparty/CMSIS/Include/core_cmFunc.h ****     \param [in]    control  Control Register value to set
 354:/home/torbjorn/eclipse-workspace/CoreNG/asf/thirdparty/CMSIS/Include/core_cmFunc.h ****  */
 355:/home/torbjorn/eclipse-workspace/CoreNG/asf/thirdparty/CMSIS/Include/core_cmFunc.h **** __attribute__( ( always_inline ) ) __STATIC_INLINE void __set_CONTROL(uint32_t control)
 356:/home/torbjorn/eclipse-workspace/CoreNG/asf/thirdparty/CMSIS/Include/core_cmFunc.h **** {
 357:/home/torbjorn/eclipse-workspace/CoreNG/asf/thirdparty/CMSIS/Include/core_cmFunc.h ****   __ASM volatile ("MSR control, %0" : : "r" (control) : "memory");
 358:/home/torbjorn/eclipse-workspace/CoreNG/asf/thirdparty/CMSIS/Include/core_cmFunc.h **** }
 359:/home/torbjorn/eclipse-workspace/CoreNG/asf/thirdparty/CMSIS/Include/core_cmFunc.h **** 
 360:/home/torbjorn/eclipse-workspace/CoreNG/asf/thirdparty/CMSIS/Include/core_cmFunc.h **** 
 361:/home/torbjorn/eclipse-workspace/CoreNG/asf/thirdparty/CMSIS/Include/core_cmFunc.h **** /** \brief  Get IPSR Register
 362:/home/torbjorn/eclipse-workspace/CoreNG/asf/thirdparty/CMSIS/Include/core_cmFunc.h **** 
 363:/home/torbjorn/eclipse-workspace/CoreNG/asf/thirdparty/CMSIS/Include/core_cmFunc.h ****     This function returns the content of the IPSR Register.
 364:/home/torbjorn/eclipse-workspace/CoreNG/asf/thirdparty/CMSIS/Include/core_cmFunc.h **** 
 365:/home/torbjorn/eclipse-workspace/CoreNG/asf/thirdparty/CMSIS/Include/core_cmFunc.h ****     \return               IPSR Register value
 366:/home/torbjorn/eclipse-workspace/CoreNG/asf/thirdparty/CMSIS/Include/core_cmFunc.h ****  */
 367:/home/torbjorn/eclipse-workspace/CoreNG/asf/thirdparty/CMSIS/Include/core_cmFunc.h **** __attribute__( ( always_inline ) ) __STATIC_INLINE uint32_t __get_IPSR(void)
 368:/home/torbjorn/eclipse-workspace/CoreNG/asf/thirdparty/CMSIS/Include/core_cmFunc.h **** {
 369:/home/torbjorn/eclipse-workspace/CoreNG/asf/thirdparty/CMSIS/Include/core_cmFunc.h ****   uint32_t result;
 370:/home/torbjorn/eclipse-workspace/CoreNG/asf/thirdparty/CMSIS/Include/core_cmFunc.h **** 
 371:/home/torbjorn/eclipse-workspace/CoreNG/asf/thirdparty/CMSIS/Include/core_cmFunc.h ****   __ASM volatile ("MRS %0, ipsr" : "=r" (result) );
 372:/home/torbjorn/eclipse-workspace/CoreNG/asf/thirdparty/CMSIS/Include/core_cmFunc.h ****   return(result);
 373:/home/torbjorn/eclipse-workspace/CoreNG/asf/thirdparty/CMSIS/Include/core_cmFunc.h **** }
 374:/home/torbjorn/eclipse-workspace/CoreNG/asf/thirdparty/CMSIS/Include/core_cmFunc.h **** 
 375:/home/torbjorn/eclipse-workspace/CoreNG/asf/thirdparty/CMSIS/Include/core_cmFunc.h **** 
 376:/home/torbjorn/eclipse-workspace/CoreNG/asf/thirdparty/CMSIS/Include/core_cmFunc.h **** /** \brief  Get APSR Register
 377:/home/torbjorn/eclipse-workspace/CoreNG/asf/thirdparty/CMSIS/Include/core_cmFunc.h **** 
 378:/home/torbjorn/eclipse-workspace/CoreNG/asf/thirdparty/CMSIS/Include/core_cmFunc.h ****     This function returns the content of the APSR Register.
 379:/home/torbjorn/eclipse-workspace/CoreNG/asf/thirdparty/CMSIS/Include/core_cmFunc.h **** 
 380:/home/torbjorn/eclipse-workspace/CoreNG/asf/thirdparty/CMSIS/Include/core_cmFunc.h ****     \return               APSR Register value
ARM GAS  /tmp/ccTuq0hs.s 			page 10


 381:/home/torbjorn/eclipse-workspace/CoreNG/asf/thirdparty/CMSIS/Include/core_cmFunc.h ****  */
 382:/home/torbjorn/eclipse-workspace/CoreNG/asf/thirdparty/CMSIS/Include/core_cmFunc.h **** __attribute__( ( always_inline ) ) __STATIC_INLINE uint32_t __get_APSR(void)
 383:/home/torbjorn/eclipse-workspace/CoreNG/asf/thirdparty/CMSIS/Include/core_cmFunc.h **** {
 384:/home/torbjorn/eclipse-workspace/CoreNG/asf/thirdparty/CMSIS/Include/core_cmFunc.h ****   uint32_t result;
 385:/home/torbjorn/eclipse-workspace/CoreNG/asf/thirdparty/CMSIS/Include/core_cmFunc.h **** 
 386:/home/torbjorn/eclipse-workspace/CoreNG/asf/thirdparty/CMSIS/Include/core_cmFunc.h ****   __ASM volatile ("MRS %0, apsr" : "=r" (result) );
 387:/home/torbjorn/eclipse-workspace/CoreNG/asf/thirdparty/CMSIS/Include/core_cmFunc.h ****   return(result);
 388:/home/torbjorn/eclipse-workspace/CoreNG/asf/thirdparty/CMSIS/Include/core_cmFunc.h **** }
 389:/home/torbjorn/eclipse-workspace/CoreNG/asf/thirdparty/CMSIS/Include/core_cmFunc.h **** 
 390:/home/torbjorn/eclipse-workspace/CoreNG/asf/thirdparty/CMSIS/Include/core_cmFunc.h **** 
 391:/home/torbjorn/eclipse-workspace/CoreNG/asf/thirdparty/CMSIS/Include/core_cmFunc.h **** /** \brief  Get xPSR Register
 392:/home/torbjorn/eclipse-workspace/CoreNG/asf/thirdparty/CMSIS/Include/core_cmFunc.h **** 
 393:/home/torbjorn/eclipse-workspace/CoreNG/asf/thirdparty/CMSIS/Include/core_cmFunc.h ****     This function returns the content of the xPSR Register.
 394:/home/torbjorn/eclipse-workspace/CoreNG/asf/thirdparty/CMSIS/Include/core_cmFunc.h **** 
 395:/home/torbjorn/eclipse-workspace/CoreNG/asf/thirdparty/CMSIS/Include/core_cmFunc.h ****     \return               xPSR Register value
 396:/home/torbjorn/eclipse-workspace/CoreNG/asf/thirdparty/CMSIS/Include/core_cmFunc.h ****  */
 397:/home/torbjorn/eclipse-workspace/CoreNG/asf/thirdparty/CMSIS/Include/core_cmFunc.h **** __attribute__( ( always_inline ) ) __STATIC_INLINE uint32_t __get_xPSR(void)
 398:/home/torbjorn/eclipse-workspace/CoreNG/asf/thirdparty/CMSIS/Include/core_cmFunc.h **** {
 399:/home/torbjorn/eclipse-workspace/CoreNG/asf/thirdparty/CMSIS/Include/core_cmFunc.h ****   uint32_t result;
 400:/home/torbjorn/eclipse-workspace/CoreNG/asf/thirdparty/CMSIS/Include/core_cmFunc.h **** 
 401:/home/torbjorn/eclipse-workspace/CoreNG/asf/thirdparty/CMSIS/Include/core_cmFunc.h ****   __ASM volatile ("MRS %0, xpsr" : "=r" (result) );
 402:/home/torbjorn/eclipse-workspace/CoreNG/asf/thirdparty/CMSIS/Include/core_cmFunc.h ****   return(result);
 403:/home/torbjorn/eclipse-workspace/CoreNG/asf/thirdparty/CMSIS/Include/core_cmFunc.h **** }
 404:/home/torbjorn/eclipse-workspace/CoreNG/asf/thirdparty/CMSIS/Include/core_cmFunc.h **** 
 405:/home/torbjorn/eclipse-workspace/CoreNG/asf/thirdparty/CMSIS/Include/core_cmFunc.h **** 
 406:/home/torbjorn/eclipse-workspace/CoreNG/asf/thirdparty/CMSIS/Include/core_cmFunc.h **** /** \brief  Get Process Stack Pointer
 407:/home/torbjorn/eclipse-workspace/CoreNG/asf/thirdparty/CMSIS/Include/core_cmFunc.h **** 
 408:/home/torbjorn/eclipse-workspace/CoreNG/asf/thirdparty/CMSIS/Include/core_cmFunc.h ****     This function returns the current value of the Process Stack Pointer (PSP).
 409:/home/torbjorn/eclipse-workspace/CoreNG/asf/thirdparty/CMSIS/Include/core_cmFunc.h **** 
 410:/home/torbjorn/eclipse-workspace/CoreNG/asf/thirdparty/CMSIS/Include/core_cmFunc.h ****     \return               PSP Register value
 411:/home/torbjorn/eclipse-workspace/CoreNG/asf/thirdparty/CMSIS/Include/core_cmFunc.h ****  */
 412:/home/torbjorn/eclipse-workspace/CoreNG/asf/thirdparty/CMSIS/Include/core_cmFunc.h **** __attribute__( ( always_inline ) ) __STATIC_INLINE uint32_t __get_PSP(void)
 413:/home/torbjorn/eclipse-workspace/CoreNG/asf/thirdparty/CMSIS/Include/core_cmFunc.h **** {
 414:/home/torbjorn/eclipse-workspace/CoreNG/asf/thirdparty/CMSIS/Include/core_cmFunc.h ****   register uint32_t result;
 415:/home/torbjorn/eclipse-workspace/CoreNG/asf/thirdparty/CMSIS/Include/core_cmFunc.h **** 
 416:/home/torbjorn/eclipse-workspace/CoreNG/asf/thirdparty/CMSIS/Include/core_cmFunc.h ****   __ASM volatile ("MRS %0, psp\n"  : "=r" (result) );
 417:/home/torbjorn/eclipse-workspace/CoreNG/asf/thirdparty/CMSIS/Include/core_cmFunc.h ****   return(result);
 418:/home/torbjorn/eclipse-workspace/CoreNG/asf/thirdparty/CMSIS/Include/core_cmFunc.h **** }
 419:/home/torbjorn/eclipse-workspace/CoreNG/asf/thirdparty/CMSIS/Include/core_cmFunc.h **** 
 420:/home/torbjorn/eclipse-workspace/CoreNG/asf/thirdparty/CMSIS/Include/core_cmFunc.h **** 
 421:/home/torbjorn/eclipse-workspace/CoreNG/asf/thirdparty/CMSIS/Include/core_cmFunc.h **** /** \brief  Set Process Stack Pointer
 422:/home/torbjorn/eclipse-workspace/CoreNG/asf/thirdparty/CMSIS/Include/core_cmFunc.h **** 
 423:/home/torbjorn/eclipse-workspace/CoreNG/asf/thirdparty/CMSIS/Include/core_cmFunc.h ****     This function assigns the given value to the Process Stack Pointer (PSP).
 424:/home/torbjorn/eclipse-workspace/CoreNG/asf/thirdparty/CMSIS/Include/core_cmFunc.h **** 
 425:/home/torbjorn/eclipse-workspace/CoreNG/asf/thirdparty/CMSIS/Include/core_cmFunc.h ****     \param [in]    topOfProcStack  Process Stack Pointer value to set
 426:/home/torbjorn/eclipse-workspace/CoreNG/asf/thirdparty/CMSIS/Include/core_cmFunc.h ****  */
 427:/home/torbjorn/eclipse-workspace/CoreNG/asf/thirdparty/CMSIS/Include/core_cmFunc.h **** __attribute__( ( always_inline ) ) __STATIC_INLINE void __set_PSP(uint32_t topOfProcStack)
 428:/home/torbjorn/eclipse-workspace/CoreNG/asf/thirdparty/CMSIS/Include/core_cmFunc.h **** {
 429:/home/torbjorn/eclipse-workspace/CoreNG/asf/thirdparty/CMSIS/Include/core_cmFunc.h ****   __ASM volatile ("MSR psp, %0\n" : : "r" (topOfProcStack) : "sp");
 430:/home/torbjorn/eclipse-workspace/CoreNG/asf/thirdparty/CMSIS/Include/core_cmFunc.h **** }
 431:/home/torbjorn/eclipse-workspace/CoreNG/asf/thirdparty/CMSIS/Include/core_cmFunc.h **** 
 432:/home/torbjorn/eclipse-workspace/CoreNG/asf/thirdparty/CMSIS/Include/core_cmFunc.h **** 
 433:/home/torbjorn/eclipse-workspace/CoreNG/asf/thirdparty/CMSIS/Include/core_cmFunc.h **** /** \brief  Get Main Stack Pointer
 434:/home/torbjorn/eclipse-workspace/CoreNG/asf/thirdparty/CMSIS/Include/core_cmFunc.h **** 
 435:/home/torbjorn/eclipse-workspace/CoreNG/asf/thirdparty/CMSIS/Include/core_cmFunc.h ****     This function returns the current value of the Main Stack Pointer (MSP).
 436:/home/torbjorn/eclipse-workspace/CoreNG/asf/thirdparty/CMSIS/Include/core_cmFunc.h **** 
 437:/home/torbjorn/eclipse-workspace/CoreNG/asf/thirdparty/CMSIS/Include/core_cmFunc.h ****     \return               MSP Register value
ARM GAS  /tmp/ccTuq0hs.s 			page 11


 438:/home/torbjorn/eclipse-workspace/CoreNG/asf/thirdparty/CMSIS/Include/core_cmFunc.h ****  */
 439:/home/torbjorn/eclipse-workspace/CoreNG/asf/thirdparty/CMSIS/Include/core_cmFunc.h **** __attribute__( ( always_inline ) ) __STATIC_INLINE uint32_t __get_MSP(void)
 440:/home/torbjorn/eclipse-workspace/CoreNG/asf/thirdparty/CMSIS/Include/core_cmFunc.h **** {
 441:/home/torbjorn/eclipse-workspace/CoreNG/asf/thirdparty/CMSIS/Include/core_cmFunc.h ****   register uint32_t result;
 442:/home/torbjorn/eclipse-workspace/CoreNG/asf/thirdparty/CMSIS/Include/core_cmFunc.h **** 
 443:/home/torbjorn/eclipse-workspace/CoreNG/asf/thirdparty/CMSIS/Include/core_cmFunc.h ****   __ASM volatile ("MRS %0, msp\n" : "=r" (result) );
 444:/home/torbjorn/eclipse-workspace/CoreNG/asf/thirdparty/CMSIS/Include/core_cmFunc.h ****   return(result);
 445:/home/torbjorn/eclipse-workspace/CoreNG/asf/thirdparty/CMSIS/Include/core_cmFunc.h **** }
 446:/home/torbjorn/eclipse-workspace/CoreNG/asf/thirdparty/CMSIS/Include/core_cmFunc.h **** 
 447:/home/torbjorn/eclipse-workspace/CoreNG/asf/thirdparty/CMSIS/Include/core_cmFunc.h **** 
 448:/home/torbjorn/eclipse-workspace/CoreNG/asf/thirdparty/CMSIS/Include/core_cmFunc.h **** /** \brief  Set Main Stack Pointer
 449:/home/torbjorn/eclipse-workspace/CoreNG/asf/thirdparty/CMSIS/Include/core_cmFunc.h **** 
 450:/home/torbjorn/eclipse-workspace/CoreNG/asf/thirdparty/CMSIS/Include/core_cmFunc.h ****     This function assigns the given value to the Main Stack Pointer (MSP).
 451:/home/torbjorn/eclipse-workspace/CoreNG/asf/thirdparty/CMSIS/Include/core_cmFunc.h **** 
 452:/home/torbjorn/eclipse-workspace/CoreNG/asf/thirdparty/CMSIS/Include/core_cmFunc.h ****     \param [in]    topOfMainStack  Main Stack Pointer value to set
 453:/home/torbjorn/eclipse-workspace/CoreNG/asf/thirdparty/CMSIS/Include/core_cmFunc.h ****  */
 454:/home/torbjorn/eclipse-workspace/CoreNG/asf/thirdparty/CMSIS/Include/core_cmFunc.h **** __attribute__( ( always_inline ) ) __STATIC_INLINE void __set_MSP(uint32_t topOfMainStack)
 455:/home/torbjorn/eclipse-workspace/CoreNG/asf/thirdparty/CMSIS/Include/core_cmFunc.h **** {
 456:/home/torbjorn/eclipse-workspace/CoreNG/asf/thirdparty/CMSIS/Include/core_cmFunc.h ****   __ASM volatile ("MSR msp, %0\n" : : "r" (topOfMainStack) : "sp");
 457:/home/torbjorn/eclipse-workspace/CoreNG/asf/thirdparty/CMSIS/Include/core_cmFunc.h **** }
 458:/home/torbjorn/eclipse-workspace/CoreNG/asf/thirdparty/CMSIS/Include/core_cmFunc.h **** 
 459:/home/torbjorn/eclipse-workspace/CoreNG/asf/thirdparty/CMSIS/Include/core_cmFunc.h **** 
 460:/home/torbjorn/eclipse-workspace/CoreNG/asf/thirdparty/CMSIS/Include/core_cmFunc.h **** /** \brief  Get Priority Mask
 461:/home/torbjorn/eclipse-workspace/CoreNG/asf/thirdparty/CMSIS/Include/core_cmFunc.h **** 
 462:/home/torbjorn/eclipse-workspace/CoreNG/asf/thirdparty/CMSIS/Include/core_cmFunc.h ****     This function returns the current state of the priority mask bit from the Priority Mask Registe
 463:/home/torbjorn/eclipse-workspace/CoreNG/asf/thirdparty/CMSIS/Include/core_cmFunc.h **** 
 464:/home/torbjorn/eclipse-workspace/CoreNG/asf/thirdparty/CMSIS/Include/core_cmFunc.h ****     \return               Priority Mask value
 465:/home/torbjorn/eclipse-workspace/CoreNG/asf/thirdparty/CMSIS/Include/core_cmFunc.h ****  */
 466:/home/torbjorn/eclipse-workspace/CoreNG/asf/thirdparty/CMSIS/Include/core_cmFunc.h **** __attribute__( ( always_inline ) ) __STATIC_INLINE uint32_t __get_PRIMASK(void)
 467:/home/torbjorn/eclipse-workspace/CoreNG/asf/thirdparty/CMSIS/Include/core_cmFunc.h **** {
 468:/home/torbjorn/eclipse-workspace/CoreNG/asf/thirdparty/CMSIS/Include/core_cmFunc.h ****   uint32_t result;
 469:/home/torbjorn/eclipse-workspace/CoreNG/asf/thirdparty/CMSIS/Include/core_cmFunc.h **** 
 470:/home/torbjorn/eclipse-workspace/CoreNG/asf/thirdparty/CMSIS/Include/core_cmFunc.h ****   __ASM volatile ("MRS %0, primask" : "=r" (result) );
  96              		.loc 2 470 0
  97              		.syntax unified
  98              	@ 470 "/home/torbjorn/eclipse-workspace/CoreNG/asf/thirdparty/CMSIS/Include/core_cmFunc.h" 1
  99 0000 EFF31083 		MRS r3, primask
 100              	@ 0 "" 2
 101              	.LVL0:
 102              		.thumb
 103              		.syntax unified
 104              	.LBE35:
 105              	.LBE34:
 106              	.LBB36:
 107              	.LBB37:
 330:/home/torbjorn/eclipse-workspace/CoreNG/asf/thirdparty/CMSIS/Include/core_cmFunc.h **** }
 108              		.loc 2 330 0
 109              		.syntax unified
 110              	@ 330 "/home/torbjorn/eclipse-workspace/CoreNG/asf/thirdparty/CMSIS/Include/core_cmFunc.h" 1
 111 0004 72B6     		cpsid i
 112              	@ 0 "" 2
 113              		.thumb
 114              		.syntax unified
 115              	.LBE37:
 116              	.LBE36:
 117              	.LBB38:
 118              	.LBB39:
ARM GAS  /tmp/ccTuq0hs.s 			page 12


 119              		.file 3 "/home/torbjorn/eclipse-workspace/CoreNG/asf/thirdparty/CMSIS/Include/core_cmInstr.h"
   1:/home/torbjorn/eclipse-workspace/CoreNG/asf/thirdparty/CMSIS/Include/core_cmInstr.h **** /**************************************************************************//**
   2:/home/torbjorn/eclipse-workspace/CoreNG/asf/thirdparty/CMSIS/Include/core_cmInstr.h ****  * @file     core_cmInstr.h
   3:/home/torbjorn/eclipse-workspace/CoreNG/asf/thirdparty/CMSIS/Include/core_cmInstr.h ****  * @brief    CMSIS Cortex-M Core Instruction Access Header File
   4:/home/torbjorn/eclipse-workspace/CoreNG/asf/thirdparty/CMSIS/Include/core_cmInstr.h ****  * @version  V4.00
   5:/home/torbjorn/eclipse-workspace/CoreNG/asf/thirdparty/CMSIS/Include/core_cmInstr.h ****  * @date     28. August 2014
   6:/home/torbjorn/eclipse-workspace/CoreNG/asf/thirdparty/CMSIS/Include/core_cmInstr.h ****  *
   7:/home/torbjorn/eclipse-workspace/CoreNG/asf/thirdparty/CMSIS/Include/core_cmInstr.h ****  * @note
   8:/home/torbjorn/eclipse-workspace/CoreNG/asf/thirdparty/CMSIS/Include/core_cmInstr.h ****  *
   9:/home/torbjorn/eclipse-workspace/CoreNG/asf/thirdparty/CMSIS/Include/core_cmInstr.h ****  ******************************************************************************/
  10:/home/torbjorn/eclipse-workspace/CoreNG/asf/thirdparty/CMSIS/Include/core_cmInstr.h **** /* Copyright (c) 2009 - 2014 ARM LIMITED
  11:/home/torbjorn/eclipse-workspace/CoreNG/asf/thirdparty/CMSIS/Include/core_cmInstr.h **** 
  12:/home/torbjorn/eclipse-workspace/CoreNG/asf/thirdparty/CMSIS/Include/core_cmInstr.h ****    All rights reserved.
  13:/home/torbjorn/eclipse-workspace/CoreNG/asf/thirdparty/CMSIS/Include/core_cmInstr.h ****    Redistribution and use in source and binary forms, with or without
  14:/home/torbjorn/eclipse-workspace/CoreNG/asf/thirdparty/CMSIS/Include/core_cmInstr.h ****    modification, are permitted provided that the following conditions are met:
  15:/home/torbjorn/eclipse-workspace/CoreNG/asf/thirdparty/CMSIS/Include/core_cmInstr.h ****    - Redistributions of source code must retain the above copyright
  16:/home/torbjorn/eclipse-workspace/CoreNG/asf/thirdparty/CMSIS/Include/core_cmInstr.h ****      notice, this list of conditions and the following disclaimer.
  17:/home/torbjorn/eclipse-workspace/CoreNG/asf/thirdparty/CMSIS/Include/core_cmInstr.h ****    - Redistributions in binary form must reproduce the above copyright
  18:/home/torbjorn/eclipse-workspace/CoreNG/asf/thirdparty/CMSIS/Include/core_cmInstr.h ****      notice, this list of conditions and the following disclaimer in the
  19:/home/torbjorn/eclipse-workspace/CoreNG/asf/thirdparty/CMSIS/Include/core_cmInstr.h ****      documentation and/or other materials provided with the distribution.
  20:/home/torbjorn/eclipse-workspace/CoreNG/asf/thirdparty/CMSIS/Include/core_cmInstr.h ****    - Neither the name of ARM nor the names of its contributors may be used
  21:/home/torbjorn/eclipse-workspace/CoreNG/asf/thirdparty/CMSIS/Include/core_cmInstr.h ****      to endorse or promote products derived from this software without
  22:/home/torbjorn/eclipse-workspace/CoreNG/asf/thirdparty/CMSIS/Include/core_cmInstr.h ****      specific prior written permission.
  23:/home/torbjorn/eclipse-workspace/CoreNG/asf/thirdparty/CMSIS/Include/core_cmInstr.h ****    *
  24:/home/torbjorn/eclipse-workspace/CoreNG/asf/thirdparty/CMSIS/Include/core_cmInstr.h ****    THIS SOFTWARE IS PROVIDED BY THE COPYRIGHT HOLDERS AND CONTRIBUTORS "AS IS"
  25:/home/torbjorn/eclipse-workspace/CoreNG/asf/thirdparty/CMSIS/Include/core_cmInstr.h ****    AND ANY EXPRESS OR IMPLIED WARRANTIES, INCLUDING, BUT NOT LIMITED TO, THE
  26:/home/torbjorn/eclipse-workspace/CoreNG/asf/thirdparty/CMSIS/Include/core_cmInstr.h ****    IMPLIED WARRANTIES OF MERCHANTABILITY AND FITNESS FOR A PARTICULAR PURPOSE
  27:/home/torbjorn/eclipse-workspace/CoreNG/asf/thirdparty/CMSIS/Include/core_cmInstr.h ****    ARE DISCLAIMED. IN NO EVENT SHALL COPYRIGHT HOLDERS AND CONTRIBUTORS BE
  28:/home/torbjorn/eclipse-workspace/CoreNG/asf/thirdparty/CMSIS/Include/core_cmInstr.h ****    LIABLE FOR ANY DIRECT, INDIRECT, INCIDENTAL, SPECIAL, EXEMPLARY, OR
  29:/home/torbjorn/eclipse-workspace/CoreNG/asf/thirdparty/CMSIS/Include/core_cmInstr.h ****    CONSEQUENTIAL DAMAGES (INCLUDING, BUT NOT LIMITED TO, PROCUREMENT OF
  30:/home/torbjorn/eclipse-workspace/CoreNG/asf/thirdparty/CMSIS/Include/core_cmInstr.h ****    SUBSTITUTE GOODS OR SERVICES; LOSS OF USE, DATA, OR PROFITS; OR BUSINESS
  31:/home/torbjorn/eclipse-workspace/CoreNG/asf/thirdparty/CMSIS/Include/core_cmInstr.h ****    INTERRUPTION) HOWEVER CAUSED AND ON ANY THEORY OF LIABILITY, WHETHER IN
  32:/home/torbjorn/eclipse-workspace/CoreNG/asf/thirdparty/CMSIS/Include/core_cmInstr.h ****    CONTRACT, STRICT LIABILITY, OR TORT (INCLUDING NEGLIGENCE OR OTHERWISE)
  33:/home/torbjorn/eclipse-workspace/CoreNG/asf/thirdparty/CMSIS/Include/core_cmInstr.h ****    ARISING IN ANY WAY OUT OF THE USE OF THIS SOFTWARE, EVEN IF ADVISED OF THE
  34:/home/torbjorn/eclipse-workspace/CoreNG/asf/thirdparty/CMSIS/Include/core_cmInstr.h ****    POSSIBILITY OF SUCH DAMAGE.
  35:/home/torbjorn/eclipse-workspace/CoreNG/asf/thirdparty/CMSIS/Include/core_cmInstr.h ****    ---------------------------------------------------------------------------*/
  36:/home/torbjorn/eclipse-workspace/CoreNG/asf/thirdparty/CMSIS/Include/core_cmInstr.h **** 
  37:/home/torbjorn/eclipse-workspace/CoreNG/asf/thirdparty/CMSIS/Include/core_cmInstr.h **** 
  38:/home/torbjorn/eclipse-workspace/CoreNG/asf/thirdparty/CMSIS/Include/core_cmInstr.h **** #ifndef __CORE_CMINSTR_H
  39:/home/torbjorn/eclipse-workspace/CoreNG/asf/thirdparty/CMSIS/Include/core_cmInstr.h **** #define __CORE_CMINSTR_H
  40:/home/torbjorn/eclipse-workspace/CoreNG/asf/thirdparty/CMSIS/Include/core_cmInstr.h **** 
  41:/home/torbjorn/eclipse-workspace/CoreNG/asf/thirdparty/CMSIS/Include/core_cmInstr.h **** 
  42:/home/torbjorn/eclipse-workspace/CoreNG/asf/thirdparty/CMSIS/Include/core_cmInstr.h **** /* ##########################  Core Instruction Access  ######################### */
  43:/home/torbjorn/eclipse-workspace/CoreNG/asf/thirdparty/CMSIS/Include/core_cmInstr.h **** /** \defgroup CMSIS_Core_InstructionInterface CMSIS Core Instruction Interface
  44:/home/torbjorn/eclipse-workspace/CoreNG/asf/thirdparty/CMSIS/Include/core_cmInstr.h ****   Access to dedicated instructions
  45:/home/torbjorn/eclipse-workspace/CoreNG/asf/thirdparty/CMSIS/Include/core_cmInstr.h ****   @{
  46:/home/torbjorn/eclipse-workspace/CoreNG/asf/thirdparty/CMSIS/Include/core_cmInstr.h **** */
  47:/home/torbjorn/eclipse-workspace/CoreNG/asf/thirdparty/CMSIS/Include/core_cmInstr.h **** 
  48:/home/torbjorn/eclipse-workspace/CoreNG/asf/thirdparty/CMSIS/Include/core_cmInstr.h **** #if   defined ( __CC_ARM ) /*------------------RealView Compiler -----------------*/
  49:/home/torbjorn/eclipse-workspace/CoreNG/asf/thirdparty/CMSIS/Include/core_cmInstr.h **** /* ARM armcc specific functions */
  50:/home/torbjorn/eclipse-workspace/CoreNG/asf/thirdparty/CMSIS/Include/core_cmInstr.h **** 
  51:/home/torbjorn/eclipse-workspace/CoreNG/asf/thirdparty/CMSIS/Include/core_cmInstr.h **** #if (__ARMCC_VERSION < 400677)
  52:/home/torbjorn/eclipse-workspace/CoreNG/asf/thirdparty/CMSIS/Include/core_cmInstr.h ****   #error "Please use ARM Compiler Toolchain V4.0.677 or later!"
  53:/home/torbjorn/eclipse-workspace/CoreNG/asf/thirdparty/CMSIS/Include/core_cmInstr.h **** #endif
  54:/home/torbjorn/eclipse-workspace/CoreNG/asf/thirdparty/CMSIS/Include/core_cmInstr.h **** 
  55:/home/torbjorn/eclipse-workspace/CoreNG/asf/thirdparty/CMSIS/Include/core_cmInstr.h **** 
  56:/home/torbjorn/eclipse-workspace/CoreNG/asf/thirdparty/CMSIS/Include/core_cmInstr.h **** /** \brief  No Operation
ARM GAS  /tmp/ccTuq0hs.s 			page 13


  57:/home/torbjorn/eclipse-workspace/CoreNG/asf/thirdparty/CMSIS/Include/core_cmInstr.h **** 
  58:/home/torbjorn/eclipse-workspace/CoreNG/asf/thirdparty/CMSIS/Include/core_cmInstr.h ****     No Operation does nothing. This instruction can be used for code alignment purposes.
  59:/home/torbjorn/eclipse-workspace/CoreNG/asf/thirdparty/CMSIS/Include/core_cmInstr.h ****  */
  60:/home/torbjorn/eclipse-workspace/CoreNG/asf/thirdparty/CMSIS/Include/core_cmInstr.h **** #define __NOP                             __nop
  61:/home/torbjorn/eclipse-workspace/CoreNG/asf/thirdparty/CMSIS/Include/core_cmInstr.h **** 
  62:/home/torbjorn/eclipse-workspace/CoreNG/asf/thirdparty/CMSIS/Include/core_cmInstr.h **** 
  63:/home/torbjorn/eclipse-workspace/CoreNG/asf/thirdparty/CMSIS/Include/core_cmInstr.h **** /** \brief  Wait For Interrupt
  64:/home/torbjorn/eclipse-workspace/CoreNG/asf/thirdparty/CMSIS/Include/core_cmInstr.h **** 
  65:/home/torbjorn/eclipse-workspace/CoreNG/asf/thirdparty/CMSIS/Include/core_cmInstr.h ****     Wait For Interrupt is a hint instruction that suspends execution
  66:/home/torbjorn/eclipse-workspace/CoreNG/asf/thirdparty/CMSIS/Include/core_cmInstr.h ****     until one of a number of events occurs.
  67:/home/torbjorn/eclipse-workspace/CoreNG/asf/thirdparty/CMSIS/Include/core_cmInstr.h ****  */
  68:/home/torbjorn/eclipse-workspace/CoreNG/asf/thirdparty/CMSIS/Include/core_cmInstr.h **** #define __WFI                             __wfi
  69:/home/torbjorn/eclipse-workspace/CoreNG/asf/thirdparty/CMSIS/Include/core_cmInstr.h **** 
  70:/home/torbjorn/eclipse-workspace/CoreNG/asf/thirdparty/CMSIS/Include/core_cmInstr.h **** 
  71:/home/torbjorn/eclipse-workspace/CoreNG/asf/thirdparty/CMSIS/Include/core_cmInstr.h **** /** \brief  Wait For Event
  72:/home/torbjorn/eclipse-workspace/CoreNG/asf/thirdparty/CMSIS/Include/core_cmInstr.h **** 
  73:/home/torbjorn/eclipse-workspace/CoreNG/asf/thirdparty/CMSIS/Include/core_cmInstr.h ****     Wait For Event is a hint instruction that permits the processor to enter
  74:/home/torbjorn/eclipse-workspace/CoreNG/asf/thirdparty/CMSIS/Include/core_cmInstr.h ****     a low-power state until one of a number of events occurs.
  75:/home/torbjorn/eclipse-workspace/CoreNG/asf/thirdparty/CMSIS/Include/core_cmInstr.h ****  */
  76:/home/torbjorn/eclipse-workspace/CoreNG/asf/thirdparty/CMSIS/Include/core_cmInstr.h **** #define __WFE                             __wfe
  77:/home/torbjorn/eclipse-workspace/CoreNG/asf/thirdparty/CMSIS/Include/core_cmInstr.h **** 
  78:/home/torbjorn/eclipse-workspace/CoreNG/asf/thirdparty/CMSIS/Include/core_cmInstr.h **** 
  79:/home/torbjorn/eclipse-workspace/CoreNG/asf/thirdparty/CMSIS/Include/core_cmInstr.h **** /** \brief  Send Event
  80:/home/torbjorn/eclipse-workspace/CoreNG/asf/thirdparty/CMSIS/Include/core_cmInstr.h **** 
  81:/home/torbjorn/eclipse-workspace/CoreNG/asf/thirdparty/CMSIS/Include/core_cmInstr.h ****     Send Event is a hint instruction. It causes an event to be signaled to the CPU.
  82:/home/torbjorn/eclipse-workspace/CoreNG/asf/thirdparty/CMSIS/Include/core_cmInstr.h ****  */
  83:/home/torbjorn/eclipse-workspace/CoreNG/asf/thirdparty/CMSIS/Include/core_cmInstr.h **** #define __SEV                             __sev
  84:/home/torbjorn/eclipse-workspace/CoreNG/asf/thirdparty/CMSIS/Include/core_cmInstr.h **** 
  85:/home/torbjorn/eclipse-workspace/CoreNG/asf/thirdparty/CMSIS/Include/core_cmInstr.h **** 
  86:/home/torbjorn/eclipse-workspace/CoreNG/asf/thirdparty/CMSIS/Include/core_cmInstr.h **** /** \brief  Instruction Synchronization Barrier
  87:/home/torbjorn/eclipse-workspace/CoreNG/asf/thirdparty/CMSIS/Include/core_cmInstr.h **** 
  88:/home/torbjorn/eclipse-workspace/CoreNG/asf/thirdparty/CMSIS/Include/core_cmInstr.h ****     Instruction Synchronization Barrier flushes the pipeline in the processor,
  89:/home/torbjorn/eclipse-workspace/CoreNG/asf/thirdparty/CMSIS/Include/core_cmInstr.h ****     so that all instructions following the ISB are fetched from cache or
  90:/home/torbjorn/eclipse-workspace/CoreNG/asf/thirdparty/CMSIS/Include/core_cmInstr.h ****     memory, after the instruction has been completed.
  91:/home/torbjorn/eclipse-workspace/CoreNG/asf/thirdparty/CMSIS/Include/core_cmInstr.h ****  */
  92:/home/torbjorn/eclipse-workspace/CoreNG/asf/thirdparty/CMSIS/Include/core_cmInstr.h **** #define __ISB()                           __isb(0xF)
  93:/home/torbjorn/eclipse-workspace/CoreNG/asf/thirdparty/CMSIS/Include/core_cmInstr.h **** 
  94:/home/torbjorn/eclipse-workspace/CoreNG/asf/thirdparty/CMSIS/Include/core_cmInstr.h **** 
  95:/home/torbjorn/eclipse-workspace/CoreNG/asf/thirdparty/CMSIS/Include/core_cmInstr.h **** /** \brief  Data Synchronization Barrier
  96:/home/torbjorn/eclipse-workspace/CoreNG/asf/thirdparty/CMSIS/Include/core_cmInstr.h **** 
  97:/home/torbjorn/eclipse-workspace/CoreNG/asf/thirdparty/CMSIS/Include/core_cmInstr.h ****     This function acts as a special kind of Data Memory Barrier.
  98:/home/torbjorn/eclipse-workspace/CoreNG/asf/thirdparty/CMSIS/Include/core_cmInstr.h ****     It completes when all explicit memory accesses before this instruction complete.
  99:/home/torbjorn/eclipse-workspace/CoreNG/asf/thirdparty/CMSIS/Include/core_cmInstr.h ****  */
 100:/home/torbjorn/eclipse-workspace/CoreNG/asf/thirdparty/CMSIS/Include/core_cmInstr.h **** #define __DSB()                           __dsb(0xF)
 101:/home/torbjorn/eclipse-workspace/CoreNG/asf/thirdparty/CMSIS/Include/core_cmInstr.h **** 
 102:/home/torbjorn/eclipse-workspace/CoreNG/asf/thirdparty/CMSIS/Include/core_cmInstr.h **** 
 103:/home/torbjorn/eclipse-workspace/CoreNG/asf/thirdparty/CMSIS/Include/core_cmInstr.h **** /** \brief  Data Memory Barrier
 104:/home/torbjorn/eclipse-workspace/CoreNG/asf/thirdparty/CMSIS/Include/core_cmInstr.h **** 
 105:/home/torbjorn/eclipse-workspace/CoreNG/asf/thirdparty/CMSIS/Include/core_cmInstr.h ****     This function ensures the apparent order of the explicit memory operations before
 106:/home/torbjorn/eclipse-workspace/CoreNG/asf/thirdparty/CMSIS/Include/core_cmInstr.h ****     and after the instruction, without ensuring their completion.
 107:/home/torbjorn/eclipse-workspace/CoreNG/asf/thirdparty/CMSIS/Include/core_cmInstr.h ****  */
 108:/home/torbjorn/eclipse-workspace/CoreNG/asf/thirdparty/CMSIS/Include/core_cmInstr.h **** #define __DMB()                           __dmb(0xF)
 109:/home/torbjorn/eclipse-workspace/CoreNG/asf/thirdparty/CMSIS/Include/core_cmInstr.h **** 
 110:/home/torbjorn/eclipse-workspace/CoreNG/asf/thirdparty/CMSIS/Include/core_cmInstr.h **** 
 111:/home/torbjorn/eclipse-workspace/CoreNG/asf/thirdparty/CMSIS/Include/core_cmInstr.h **** /** \brief  Reverse byte order (32 bit)
 112:/home/torbjorn/eclipse-workspace/CoreNG/asf/thirdparty/CMSIS/Include/core_cmInstr.h **** 
 113:/home/torbjorn/eclipse-workspace/CoreNG/asf/thirdparty/CMSIS/Include/core_cmInstr.h ****     This function reverses the byte order in integer value.
ARM GAS  /tmp/ccTuq0hs.s 			page 14


 114:/home/torbjorn/eclipse-workspace/CoreNG/asf/thirdparty/CMSIS/Include/core_cmInstr.h **** 
 115:/home/torbjorn/eclipse-workspace/CoreNG/asf/thirdparty/CMSIS/Include/core_cmInstr.h ****     \param [in]    value  Value to reverse
 116:/home/torbjorn/eclipse-workspace/CoreNG/asf/thirdparty/CMSIS/Include/core_cmInstr.h ****     \return               Reversed value
 117:/home/torbjorn/eclipse-workspace/CoreNG/asf/thirdparty/CMSIS/Include/core_cmInstr.h ****  */
 118:/home/torbjorn/eclipse-workspace/CoreNG/asf/thirdparty/CMSIS/Include/core_cmInstr.h **** #define __REV                             __rev
 119:/home/torbjorn/eclipse-workspace/CoreNG/asf/thirdparty/CMSIS/Include/core_cmInstr.h **** 
 120:/home/torbjorn/eclipse-workspace/CoreNG/asf/thirdparty/CMSIS/Include/core_cmInstr.h **** 
 121:/home/torbjorn/eclipse-workspace/CoreNG/asf/thirdparty/CMSIS/Include/core_cmInstr.h **** /** \brief  Reverse byte order (16 bit)
 122:/home/torbjorn/eclipse-workspace/CoreNG/asf/thirdparty/CMSIS/Include/core_cmInstr.h **** 
 123:/home/torbjorn/eclipse-workspace/CoreNG/asf/thirdparty/CMSIS/Include/core_cmInstr.h ****     This function reverses the byte order in two unsigned short values.
 124:/home/torbjorn/eclipse-workspace/CoreNG/asf/thirdparty/CMSIS/Include/core_cmInstr.h **** 
 125:/home/torbjorn/eclipse-workspace/CoreNG/asf/thirdparty/CMSIS/Include/core_cmInstr.h ****     \param [in]    value  Value to reverse
 126:/home/torbjorn/eclipse-workspace/CoreNG/asf/thirdparty/CMSIS/Include/core_cmInstr.h ****     \return               Reversed value
 127:/home/torbjorn/eclipse-workspace/CoreNG/asf/thirdparty/CMSIS/Include/core_cmInstr.h ****  */
 128:/home/torbjorn/eclipse-workspace/CoreNG/asf/thirdparty/CMSIS/Include/core_cmInstr.h **** #ifndef __NO_EMBEDDED_ASM
 129:/home/torbjorn/eclipse-workspace/CoreNG/asf/thirdparty/CMSIS/Include/core_cmInstr.h **** __attribute__((section(".rev16_text"))) __STATIC_INLINE __ASM uint32_t __REV16(uint32_t value)
 130:/home/torbjorn/eclipse-workspace/CoreNG/asf/thirdparty/CMSIS/Include/core_cmInstr.h **** {
 131:/home/torbjorn/eclipse-workspace/CoreNG/asf/thirdparty/CMSIS/Include/core_cmInstr.h ****   rev16 r0, r0
 132:/home/torbjorn/eclipse-workspace/CoreNG/asf/thirdparty/CMSIS/Include/core_cmInstr.h ****   bx lr
 133:/home/torbjorn/eclipse-workspace/CoreNG/asf/thirdparty/CMSIS/Include/core_cmInstr.h **** }
 134:/home/torbjorn/eclipse-workspace/CoreNG/asf/thirdparty/CMSIS/Include/core_cmInstr.h **** #endif
 135:/home/torbjorn/eclipse-workspace/CoreNG/asf/thirdparty/CMSIS/Include/core_cmInstr.h **** 
 136:/home/torbjorn/eclipse-workspace/CoreNG/asf/thirdparty/CMSIS/Include/core_cmInstr.h **** /** \brief  Reverse byte order in signed short value
 137:/home/torbjorn/eclipse-workspace/CoreNG/asf/thirdparty/CMSIS/Include/core_cmInstr.h **** 
 138:/home/torbjorn/eclipse-workspace/CoreNG/asf/thirdparty/CMSIS/Include/core_cmInstr.h ****     This function reverses the byte order in a signed short value with sign extension to integer.
 139:/home/torbjorn/eclipse-workspace/CoreNG/asf/thirdparty/CMSIS/Include/core_cmInstr.h **** 
 140:/home/torbjorn/eclipse-workspace/CoreNG/asf/thirdparty/CMSIS/Include/core_cmInstr.h ****     \param [in]    value  Value to reverse
 141:/home/torbjorn/eclipse-workspace/CoreNG/asf/thirdparty/CMSIS/Include/core_cmInstr.h ****     \return               Reversed value
 142:/home/torbjorn/eclipse-workspace/CoreNG/asf/thirdparty/CMSIS/Include/core_cmInstr.h ****  */
 143:/home/torbjorn/eclipse-workspace/CoreNG/asf/thirdparty/CMSIS/Include/core_cmInstr.h **** #ifndef __NO_EMBEDDED_ASM
 144:/home/torbjorn/eclipse-workspace/CoreNG/asf/thirdparty/CMSIS/Include/core_cmInstr.h **** __attribute__((section(".revsh_text"))) __STATIC_INLINE __ASM int32_t __REVSH(int32_t value)
 145:/home/torbjorn/eclipse-workspace/CoreNG/asf/thirdparty/CMSIS/Include/core_cmInstr.h **** {
 146:/home/torbjorn/eclipse-workspace/CoreNG/asf/thirdparty/CMSIS/Include/core_cmInstr.h ****   revsh r0, r0
 147:/home/torbjorn/eclipse-workspace/CoreNG/asf/thirdparty/CMSIS/Include/core_cmInstr.h ****   bx lr
 148:/home/torbjorn/eclipse-workspace/CoreNG/asf/thirdparty/CMSIS/Include/core_cmInstr.h **** }
 149:/home/torbjorn/eclipse-workspace/CoreNG/asf/thirdparty/CMSIS/Include/core_cmInstr.h **** #endif
 150:/home/torbjorn/eclipse-workspace/CoreNG/asf/thirdparty/CMSIS/Include/core_cmInstr.h **** 
 151:/home/torbjorn/eclipse-workspace/CoreNG/asf/thirdparty/CMSIS/Include/core_cmInstr.h **** 
 152:/home/torbjorn/eclipse-workspace/CoreNG/asf/thirdparty/CMSIS/Include/core_cmInstr.h **** /** \brief  Rotate Right in unsigned value (32 bit)
 153:/home/torbjorn/eclipse-workspace/CoreNG/asf/thirdparty/CMSIS/Include/core_cmInstr.h **** 
 154:/home/torbjorn/eclipse-workspace/CoreNG/asf/thirdparty/CMSIS/Include/core_cmInstr.h ****     This function Rotate Right (immediate) provides the value of the contents of a register rotated
 155:/home/torbjorn/eclipse-workspace/CoreNG/asf/thirdparty/CMSIS/Include/core_cmInstr.h **** 
 156:/home/torbjorn/eclipse-workspace/CoreNG/asf/thirdparty/CMSIS/Include/core_cmInstr.h ****     \param [in]    value  Value to rotate
 157:/home/torbjorn/eclipse-workspace/CoreNG/asf/thirdparty/CMSIS/Include/core_cmInstr.h ****     \param [in]    value  Number of Bits to rotate
 158:/home/torbjorn/eclipse-workspace/CoreNG/asf/thirdparty/CMSIS/Include/core_cmInstr.h ****     \return               Rotated value
 159:/home/torbjorn/eclipse-workspace/CoreNG/asf/thirdparty/CMSIS/Include/core_cmInstr.h ****  */
 160:/home/torbjorn/eclipse-workspace/CoreNG/asf/thirdparty/CMSIS/Include/core_cmInstr.h **** #define __ROR                             __ror
 161:/home/torbjorn/eclipse-workspace/CoreNG/asf/thirdparty/CMSIS/Include/core_cmInstr.h **** 
 162:/home/torbjorn/eclipse-workspace/CoreNG/asf/thirdparty/CMSIS/Include/core_cmInstr.h **** 
 163:/home/torbjorn/eclipse-workspace/CoreNG/asf/thirdparty/CMSIS/Include/core_cmInstr.h **** /** \brief  Breakpoint
 164:/home/torbjorn/eclipse-workspace/CoreNG/asf/thirdparty/CMSIS/Include/core_cmInstr.h **** 
 165:/home/torbjorn/eclipse-workspace/CoreNG/asf/thirdparty/CMSIS/Include/core_cmInstr.h ****     This function causes the processor to enter Debug state.
 166:/home/torbjorn/eclipse-workspace/CoreNG/asf/thirdparty/CMSIS/Include/core_cmInstr.h ****     Debug tools can use this to investigate system state when the instruction at a particular addre
 167:/home/torbjorn/eclipse-workspace/CoreNG/asf/thirdparty/CMSIS/Include/core_cmInstr.h **** 
 168:/home/torbjorn/eclipse-workspace/CoreNG/asf/thirdparty/CMSIS/Include/core_cmInstr.h ****     \param [in]    value  is ignored by the processor.
 169:/home/torbjorn/eclipse-workspace/CoreNG/asf/thirdparty/CMSIS/Include/core_cmInstr.h ****                    If required, a debugger can use it to store additional information about the bre
 170:/home/torbjorn/eclipse-workspace/CoreNG/asf/thirdparty/CMSIS/Include/core_cmInstr.h ****  */
ARM GAS  /tmp/ccTuq0hs.s 			page 15


 171:/home/torbjorn/eclipse-workspace/CoreNG/asf/thirdparty/CMSIS/Include/core_cmInstr.h **** #define __BKPT(value)                       __breakpoint(value)
 172:/home/torbjorn/eclipse-workspace/CoreNG/asf/thirdparty/CMSIS/Include/core_cmInstr.h **** 
 173:/home/torbjorn/eclipse-workspace/CoreNG/asf/thirdparty/CMSIS/Include/core_cmInstr.h **** 
 174:/home/torbjorn/eclipse-workspace/CoreNG/asf/thirdparty/CMSIS/Include/core_cmInstr.h **** #if       (__CORTEX_M >= 0x03) || (__CORTEX_SC >= 300)
 175:/home/torbjorn/eclipse-workspace/CoreNG/asf/thirdparty/CMSIS/Include/core_cmInstr.h **** 
 176:/home/torbjorn/eclipse-workspace/CoreNG/asf/thirdparty/CMSIS/Include/core_cmInstr.h **** /** \brief  Reverse bit order of value
 177:/home/torbjorn/eclipse-workspace/CoreNG/asf/thirdparty/CMSIS/Include/core_cmInstr.h **** 
 178:/home/torbjorn/eclipse-workspace/CoreNG/asf/thirdparty/CMSIS/Include/core_cmInstr.h ****     This function reverses the bit order of the given value.
 179:/home/torbjorn/eclipse-workspace/CoreNG/asf/thirdparty/CMSIS/Include/core_cmInstr.h **** 
 180:/home/torbjorn/eclipse-workspace/CoreNG/asf/thirdparty/CMSIS/Include/core_cmInstr.h ****     \param [in]    value  Value to reverse
 181:/home/torbjorn/eclipse-workspace/CoreNG/asf/thirdparty/CMSIS/Include/core_cmInstr.h ****     \return               Reversed value
 182:/home/torbjorn/eclipse-workspace/CoreNG/asf/thirdparty/CMSIS/Include/core_cmInstr.h ****  */
 183:/home/torbjorn/eclipse-workspace/CoreNG/asf/thirdparty/CMSIS/Include/core_cmInstr.h **** #define __RBIT                            __rbit
 184:/home/torbjorn/eclipse-workspace/CoreNG/asf/thirdparty/CMSIS/Include/core_cmInstr.h **** 
 185:/home/torbjorn/eclipse-workspace/CoreNG/asf/thirdparty/CMSIS/Include/core_cmInstr.h **** 
 186:/home/torbjorn/eclipse-workspace/CoreNG/asf/thirdparty/CMSIS/Include/core_cmInstr.h **** /** \brief  LDR Exclusive (8 bit)
 187:/home/torbjorn/eclipse-workspace/CoreNG/asf/thirdparty/CMSIS/Include/core_cmInstr.h **** 
 188:/home/torbjorn/eclipse-workspace/CoreNG/asf/thirdparty/CMSIS/Include/core_cmInstr.h ****     This function executes a exclusive LDR instruction for 8 bit value.
 189:/home/torbjorn/eclipse-workspace/CoreNG/asf/thirdparty/CMSIS/Include/core_cmInstr.h **** 
 190:/home/torbjorn/eclipse-workspace/CoreNG/asf/thirdparty/CMSIS/Include/core_cmInstr.h ****     \param [in]    ptr  Pointer to data
 191:/home/torbjorn/eclipse-workspace/CoreNG/asf/thirdparty/CMSIS/Include/core_cmInstr.h ****     \return             value of type uint8_t at (*ptr)
 192:/home/torbjorn/eclipse-workspace/CoreNG/asf/thirdparty/CMSIS/Include/core_cmInstr.h ****  */
 193:/home/torbjorn/eclipse-workspace/CoreNG/asf/thirdparty/CMSIS/Include/core_cmInstr.h **** #define __LDREXB(ptr)                     ((uint8_t ) __ldrex(ptr))
 194:/home/torbjorn/eclipse-workspace/CoreNG/asf/thirdparty/CMSIS/Include/core_cmInstr.h **** 
 195:/home/torbjorn/eclipse-workspace/CoreNG/asf/thirdparty/CMSIS/Include/core_cmInstr.h **** 
 196:/home/torbjorn/eclipse-workspace/CoreNG/asf/thirdparty/CMSIS/Include/core_cmInstr.h **** /** \brief  LDR Exclusive (16 bit)
 197:/home/torbjorn/eclipse-workspace/CoreNG/asf/thirdparty/CMSIS/Include/core_cmInstr.h **** 
 198:/home/torbjorn/eclipse-workspace/CoreNG/asf/thirdparty/CMSIS/Include/core_cmInstr.h ****     This function executes a exclusive LDR instruction for 16 bit values.
 199:/home/torbjorn/eclipse-workspace/CoreNG/asf/thirdparty/CMSIS/Include/core_cmInstr.h **** 
 200:/home/torbjorn/eclipse-workspace/CoreNG/asf/thirdparty/CMSIS/Include/core_cmInstr.h ****     \param [in]    ptr  Pointer to data
 201:/home/torbjorn/eclipse-workspace/CoreNG/asf/thirdparty/CMSIS/Include/core_cmInstr.h ****     \return        value of type uint16_t at (*ptr)
 202:/home/torbjorn/eclipse-workspace/CoreNG/asf/thirdparty/CMSIS/Include/core_cmInstr.h ****  */
 203:/home/torbjorn/eclipse-workspace/CoreNG/asf/thirdparty/CMSIS/Include/core_cmInstr.h **** #define __LDREXH(ptr)                     ((uint16_t) __ldrex(ptr))
 204:/home/torbjorn/eclipse-workspace/CoreNG/asf/thirdparty/CMSIS/Include/core_cmInstr.h **** 
 205:/home/torbjorn/eclipse-workspace/CoreNG/asf/thirdparty/CMSIS/Include/core_cmInstr.h **** 
 206:/home/torbjorn/eclipse-workspace/CoreNG/asf/thirdparty/CMSIS/Include/core_cmInstr.h **** /** \brief  LDR Exclusive (32 bit)
 207:/home/torbjorn/eclipse-workspace/CoreNG/asf/thirdparty/CMSIS/Include/core_cmInstr.h **** 
 208:/home/torbjorn/eclipse-workspace/CoreNG/asf/thirdparty/CMSIS/Include/core_cmInstr.h ****     This function executes a exclusive LDR instruction for 32 bit values.
 209:/home/torbjorn/eclipse-workspace/CoreNG/asf/thirdparty/CMSIS/Include/core_cmInstr.h **** 
 210:/home/torbjorn/eclipse-workspace/CoreNG/asf/thirdparty/CMSIS/Include/core_cmInstr.h ****     \param [in]    ptr  Pointer to data
 211:/home/torbjorn/eclipse-workspace/CoreNG/asf/thirdparty/CMSIS/Include/core_cmInstr.h ****     \return        value of type uint32_t at (*ptr)
 212:/home/torbjorn/eclipse-workspace/CoreNG/asf/thirdparty/CMSIS/Include/core_cmInstr.h ****  */
 213:/home/torbjorn/eclipse-workspace/CoreNG/asf/thirdparty/CMSIS/Include/core_cmInstr.h **** #define __LDREXW(ptr)                     ((uint32_t ) __ldrex(ptr))
 214:/home/torbjorn/eclipse-workspace/CoreNG/asf/thirdparty/CMSIS/Include/core_cmInstr.h **** 
 215:/home/torbjorn/eclipse-workspace/CoreNG/asf/thirdparty/CMSIS/Include/core_cmInstr.h **** 
 216:/home/torbjorn/eclipse-workspace/CoreNG/asf/thirdparty/CMSIS/Include/core_cmInstr.h **** /** \brief  STR Exclusive (8 bit)
 217:/home/torbjorn/eclipse-workspace/CoreNG/asf/thirdparty/CMSIS/Include/core_cmInstr.h **** 
 218:/home/torbjorn/eclipse-workspace/CoreNG/asf/thirdparty/CMSIS/Include/core_cmInstr.h ****     This function executes a exclusive STR instruction for 8 bit values.
 219:/home/torbjorn/eclipse-workspace/CoreNG/asf/thirdparty/CMSIS/Include/core_cmInstr.h **** 
 220:/home/torbjorn/eclipse-workspace/CoreNG/asf/thirdparty/CMSIS/Include/core_cmInstr.h ****     \param [in]  value  Value to store
 221:/home/torbjorn/eclipse-workspace/CoreNG/asf/thirdparty/CMSIS/Include/core_cmInstr.h ****     \param [in]    ptr  Pointer to location
 222:/home/torbjorn/eclipse-workspace/CoreNG/asf/thirdparty/CMSIS/Include/core_cmInstr.h ****     \return          0  Function succeeded
 223:/home/torbjorn/eclipse-workspace/CoreNG/asf/thirdparty/CMSIS/Include/core_cmInstr.h ****     \return          1  Function failed
 224:/home/torbjorn/eclipse-workspace/CoreNG/asf/thirdparty/CMSIS/Include/core_cmInstr.h ****  */
 225:/home/torbjorn/eclipse-workspace/CoreNG/asf/thirdparty/CMSIS/Include/core_cmInstr.h **** #define __STREXB(value, ptr)              __strex(value, ptr)
 226:/home/torbjorn/eclipse-workspace/CoreNG/asf/thirdparty/CMSIS/Include/core_cmInstr.h **** 
 227:/home/torbjorn/eclipse-workspace/CoreNG/asf/thirdparty/CMSIS/Include/core_cmInstr.h **** 
ARM GAS  /tmp/ccTuq0hs.s 			page 16


 228:/home/torbjorn/eclipse-workspace/CoreNG/asf/thirdparty/CMSIS/Include/core_cmInstr.h **** /** \brief  STR Exclusive (16 bit)
 229:/home/torbjorn/eclipse-workspace/CoreNG/asf/thirdparty/CMSIS/Include/core_cmInstr.h **** 
 230:/home/torbjorn/eclipse-workspace/CoreNG/asf/thirdparty/CMSIS/Include/core_cmInstr.h ****     This function executes a exclusive STR instruction for 16 bit values.
 231:/home/torbjorn/eclipse-workspace/CoreNG/asf/thirdparty/CMSIS/Include/core_cmInstr.h **** 
 232:/home/torbjorn/eclipse-workspace/CoreNG/asf/thirdparty/CMSIS/Include/core_cmInstr.h ****     \param [in]  value  Value to store
 233:/home/torbjorn/eclipse-workspace/CoreNG/asf/thirdparty/CMSIS/Include/core_cmInstr.h ****     \param [in]    ptr  Pointer to location
 234:/home/torbjorn/eclipse-workspace/CoreNG/asf/thirdparty/CMSIS/Include/core_cmInstr.h ****     \return          0  Function succeeded
 235:/home/torbjorn/eclipse-workspace/CoreNG/asf/thirdparty/CMSIS/Include/core_cmInstr.h ****     \return          1  Function failed
 236:/home/torbjorn/eclipse-workspace/CoreNG/asf/thirdparty/CMSIS/Include/core_cmInstr.h ****  */
 237:/home/torbjorn/eclipse-workspace/CoreNG/asf/thirdparty/CMSIS/Include/core_cmInstr.h **** #define __STREXH(value, ptr)              __strex(value, ptr)
 238:/home/torbjorn/eclipse-workspace/CoreNG/asf/thirdparty/CMSIS/Include/core_cmInstr.h **** 
 239:/home/torbjorn/eclipse-workspace/CoreNG/asf/thirdparty/CMSIS/Include/core_cmInstr.h **** 
 240:/home/torbjorn/eclipse-workspace/CoreNG/asf/thirdparty/CMSIS/Include/core_cmInstr.h **** /** \brief  STR Exclusive (32 bit)
 241:/home/torbjorn/eclipse-workspace/CoreNG/asf/thirdparty/CMSIS/Include/core_cmInstr.h **** 
 242:/home/torbjorn/eclipse-workspace/CoreNG/asf/thirdparty/CMSIS/Include/core_cmInstr.h ****     This function executes a exclusive STR instruction for 32 bit values.
 243:/home/torbjorn/eclipse-workspace/CoreNG/asf/thirdparty/CMSIS/Include/core_cmInstr.h **** 
 244:/home/torbjorn/eclipse-workspace/CoreNG/asf/thirdparty/CMSIS/Include/core_cmInstr.h ****     \param [in]  value  Value to store
 245:/home/torbjorn/eclipse-workspace/CoreNG/asf/thirdparty/CMSIS/Include/core_cmInstr.h ****     \param [in]    ptr  Pointer to location
 246:/home/torbjorn/eclipse-workspace/CoreNG/asf/thirdparty/CMSIS/Include/core_cmInstr.h ****     \return          0  Function succeeded
 247:/home/torbjorn/eclipse-workspace/CoreNG/asf/thirdparty/CMSIS/Include/core_cmInstr.h ****     \return          1  Function failed
 248:/home/torbjorn/eclipse-workspace/CoreNG/asf/thirdparty/CMSIS/Include/core_cmInstr.h ****  */
 249:/home/torbjorn/eclipse-workspace/CoreNG/asf/thirdparty/CMSIS/Include/core_cmInstr.h **** #define __STREXW(value, ptr)              __strex(value, ptr)
 250:/home/torbjorn/eclipse-workspace/CoreNG/asf/thirdparty/CMSIS/Include/core_cmInstr.h **** 
 251:/home/torbjorn/eclipse-workspace/CoreNG/asf/thirdparty/CMSIS/Include/core_cmInstr.h **** 
 252:/home/torbjorn/eclipse-workspace/CoreNG/asf/thirdparty/CMSIS/Include/core_cmInstr.h **** /** \brief  Remove the exclusive lock
 253:/home/torbjorn/eclipse-workspace/CoreNG/asf/thirdparty/CMSIS/Include/core_cmInstr.h **** 
 254:/home/torbjorn/eclipse-workspace/CoreNG/asf/thirdparty/CMSIS/Include/core_cmInstr.h ****     This function removes the exclusive lock which is created by LDREX.
 255:/home/torbjorn/eclipse-workspace/CoreNG/asf/thirdparty/CMSIS/Include/core_cmInstr.h **** 
 256:/home/torbjorn/eclipse-workspace/CoreNG/asf/thirdparty/CMSIS/Include/core_cmInstr.h ****  */
 257:/home/torbjorn/eclipse-workspace/CoreNG/asf/thirdparty/CMSIS/Include/core_cmInstr.h **** #define __CLREX                           __clrex
 258:/home/torbjorn/eclipse-workspace/CoreNG/asf/thirdparty/CMSIS/Include/core_cmInstr.h **** 
 259:/home/torbjorn/eclipse-workspace/CoreNG/asf/thirdparty/CMSIS/Include/core_cmInstr.h **** 
 260:/home/torbjorn/eclipse-workspace/CoreNG/asf/thirdparty/CMSIS/Include/core_cmInstr.h **** /** \brief  Signed Saturate
 261:/home/torbjorn/eclipse-workspace/CoreNG/asf/thirdparty/CMSIS/Include/core_cmInstr.h **** 
 262:/home/torbjorn/eclipse-workspace/CoreNG/asf/thirdparty/CMSIS/Include/core_cmInstr.h ****     This function saturates a signed value.
 263:/home/torbjorn/eclipse-workspace/CoreNG/asf/thirdparty/CMSIS/Include/core_cmInstr.h **** 
 264:/home/torbjorn/eclipse-workspace/CoreNG/asf/thirdparty/CMSIS/Include/core_cmInstr.h ****     \param [in]  value  Value to be saturated
 265:/home/torbjorn/eclipse-workspace/CoreNG/asf/thirdparty/CMSIS/Include/core_cmInstr.h ****     \param [in]    sat  Bit position to saturate to (1..32)
 266:/home/torbjorn/eclipse-workspace/CoreNG/asf/thirdparty/CMSIS/Include/core_cmInstr.h ****     \return             Saturated value
 267:/home/torbjorn/eclipse-workspace/CoreNG/asf/thirdparty/CMSIS/Include/core_cmInstr.h ****  */
 268:/home/torbjorn/eclipse-workspace/CoreNG/asf/thirdparty/CMSIS/Include/core_cmInstr.h **** #define __SSAT                            __ssat
 269:/home/torbjorn/eclipse-workspace/CoreNG/asf/thirdparty/CMSIS/Include/core_cmInstr.h **** 
 270:/home/torbjorn/eclipse-workspace/CoreNG/asf/thirdparty/CMSIS/Include/core_cmInstr.h **** 
 271:/home/torbjorn/eclipse-workspace/CoreNG/asf/thirdparty/CMSIS/Include/core_cmInstr.h **** /** \brief  Unsigned Saturate
 272:/home/torbjorn/eclipse-workspace/CoreNG/asf/thirdparty/CMSIS/Include/core_cmInstr.h **** 
 273:/home/torbjorn/eclipse-workspace/CoreNG/asf/thirdparty/CMSIS/Include/core_cmInstr.h ****     This function saturates an unsigned value.
 274:/home/torbjorn/eclipse-workspace/CoreNG/asf/thirdparty/CMSIS/Include/core_cmInstr.h **** 
 275:/home/torbjorn/eclipse-workspace/CoreNG/asf/thirdparty/CMSIS/Include/core_cmInstr.h ****     \param [in]  value  Value to be saturated
 276:/home/torbjorn/eclipse-workspace/CoreNG/asf/thirdparty/CMSIS/Include/core_cmInstr.h ****     \param [in]    sat  Bit position to saturate to (0..31)
 277:/home/torbjorn/eclipse-workspace/CoreNG/asf/thirdparty/CMSIS/Include/core_cmInstr.h ****     \return             Saturated value
 278:/home/torbjorn/eclipse-workspace/CoreNG/asf/thirdparty/CMSIS/Include/core_cmInstr.h ****  */
 279:/home/torbjorn/eclipse-workspace/CoreNG/asf/thirdparty/CMSIS/Include/core_cmInstr.h **** #define __USAT                            __usat
 280:/home/torbjorn/eclipse-workspace/CoreNG/asf/thirdparty/CMSIS/Include/core_cmInstr.h **** 
 281:/home/torbjorn/eclipse-workspace/CoreNG/asf/thirdparty/CMSIS/Include/core_cmInstr.h **** 
 282:/home/torbjorn/eclipse-workspace/CoreNG/asf/thirdparty/CMSIS/Include/core_cmInstr.h **** /** \brief  Count leading zeros
 283:/home/torbjorn/eclipse-workspace/CoreNG/asf/thirdparty/CMSIS/Include/core_cmInstr.h **** 
 284:/home/torbjorn/eclipse-workspace/CoreNG/asf/thirdparty/CMSIS/Include/core_cmInstr.h ****     This function counts the number of leading zeros of a data value.
ARM GAS  /tmp/ccTuq0hs.s 			page 17


 285:/home/torbjorn/eclipse-workspace/CoreNG/asf/thirdparty/CMSIS/Include/core_cmInstr.h **** 
 286:/home/torbjorn/eclipse-workspace/CoreNG/asf/thirdparty/CMSIS/Include/core_cmInstr.h ****     \param [in]  value  Value to count the leading zeros
 287:/home/torbjorn/eclipse-workspace/CoreNG/asf/thirdparty/CMSIS/Include/core_cmInstr.h ****     \return             number of leading zeros in value
 288:/home/torbjorn/eclipse-workspace/CoreNG/asf/thirdparty/CMSIS/Include/core_cmInstr.h ****  */
 289:/home/torbjorn/eclipse-workspace/CoreNG/asf/thirdparty/CMSIS/Include/core_cmInstr.h **** #define __CLZ                             __clz
 290:/home/torbjorn/eclipse-workspace/CoreNG/asf/thirdparty/CMSIS/Include/core_cmInstr.h **** 
 291:/home/torbjorn/eclipse-workspace/CoreNG/asf/thirdparty/CMSIS/Include/core_cmInstr.h **** 
 292:/home/torbjorn/eclipse-workspace/CoreNG/asf/thirdparty/CMSIS/Include/core_cmInstr.h **** /** \brief  Rotate Right with Extend (32 bit)
 293:/home/torbjorn/eclipse-workspace/CoreNG/asf/thirdparty/CMSIS/Include/core_cmInstr.h **** 
 294:/home/torbjorn/eclipse-workspace/CoreNG/asf/thirdparty/CMSIS/Include/core_cmInstr.h ****     This function moves each bit of a bitstring right by one bit. The carry input is shifted in at 
 295:/home/torbjorn/eclipse-workspace/CoreNG/asf/thirdparty/CMSIS/Include/core_cmInstr.h **** 
 296:/home/torbjorn/eclipse-workspace/CoreNG/asf/thirdparty/CMSIS/Include/core_cmInstr.h ****     \param [in]    value  Value to rotate
 297:/home/torbjorn/eclipse-workspace/CoreNG/asf/thirdparty/CMSIS/Include/core_cmInstr.h ****     \return               Rotated value
 298:/home/torbjorn/eclipse-workspace/CoreNG/asf/thirdparty/CMSIS/Include/core_cmInstr.h ****  */
 299:/home/torbjorn/eclipse-workspace/CoreNG/asf/thirdparty/CMSIS/Include/core_cmInstr.h **** #ifndef __NO_EMBEDDED_ASM
 300:/home/torbjorn/eclipse-workspace/CoreNG/asf/thirdparty/CMSIS/Include/core_cmInstr.h **** __attribute__((section(".rrx_text"))) __STATIC_INLINE __ASM uint32_t __RRX(uint32_t value)
 301:/home/torbjorn/eclipse-workspace/CoreNG/asf/thirdparty/CMSIS/Include/core_cmInstr.h **** {
 302:/home/torbjorn/eclipse-workspace/CoreNG/asf/thirdparty/CMSIS/Include/core_cmInstr.h ****   rrx r0, r0
 303:/home/torbjorn/eclipse-workspace/CoreNG/asf/thirdparty/CMSIS/Include/core_cmInstr.h ****   bx lr
 304:/home/torbjorn/eclipse-workspace/CoreNG/asf/thirdparty/CMSIS/Include/core_cmInstr.h **** }
 305:/home/torbjorn/eclipse-workspace/CoreNG/asf/thirdparty/CMSIS/Include/core_cmInstr.h **** #endif
 306:/home/torbjorn/eclipse-workspace/CoreNG/asf/thirdparty/CMSIS/Include/core_cmInstr.h **** 
 307:/home/torbjorn/eclipse-workspace/CoreNG/asf/thirdparty/CMSIS/Include/core_cmInstr.h **** 
 308:/home/torbjorn/eclipse-workspace/CoreNG/asf/thirdparty/CMSIS/Include/core_cmInstr.h **** /** \brief  LDRT Unprivileged (8 bit)
 309:/home/torbjorn/eclipse-workspace/CoreNG/asf/thirdparty/CMSIS/Include/core_cmInstr.h **** 
 310:/home/torbjorn/eclipse-workspace/CoreNG/asf/thirdparty/CMSIS/Include/core_cmInstr.h ****     This function executes a Unprivileged LDRT instruction for 8 bit value.
 311:/home/torbjorn/eclipse-workspace/CoreNG/asf/thirdparty/CMSIS/Include/core_cmInstr.h **** 
 312:/home/torbjorn/eclipse-workspace/CoreNG/asf/thirdparty/CMSIS/Include/core_cmInstr.h ****     \param [in]    ptr  Pointer to data
 313:/home/torbjorn/eclipse-workspace/CoreNG/asf/thirdparty/CMSIS/Include/core_cmInstr.h ****     \return             value of type uint8_t at (*ptr)
 314:/home/torbjorn/eclipse-workspace/CoreNG/asf/thirdparty/CMSIS/Include/core_cmInstr.h ****  */
 315:/home/torbjorn/eclipse-workspace/CoreNG/asf/thirdparty/CMSIS/Include/core_cmInstr.h **** #define __LDRBT(ptr)                      ((uint8_t )  __ldrt(ptr))
 316:/home/torbjorn/eclipse-workspace/CoreNG/asf/thirdparty/CMSIS/Include/core_cmInstr.h **** 
 317:/home/torbjorn/eclipse-workspace/CoreNG/asf/thirdparty/CMSIS/Include/core_cmInstr.h **** 
 318:/home/torbjorn/eclipse-workspace/CoreNG/asf/thirdparty/CMSIS/Include/core_cmInstr.h **** /** \brief  LDRT Unprivileged (16 bit)
 319:/home/torbjorn/eclipse-workspace/CoreNG/asf/thirdparty/CMSIS/Include/core_cmInstr.h **** 
 320:/home/torbjorn/eclipse-workspace/CoreNG/asf/thirdparty/CMSIS/Include/core_cmInstr.h ****     This function executes a Unprivileged LDRT instruction for 16 bit values.
 321:/home/torbjorn/eclipse-workspace/CoreNG/asf/thirdparty/CMSIS/Include/core_cmInstr.h **** 
 322:/home/torbjorn/eclipse-workspace/CoreNG/asf/thirdparty/CMSIS/Include/core_cmInstr.h ****     \param [in]    ptr  Pointer to data
 323:/home/torbjorn/eclipse-workspace/CoreNG/asf/thirdparty/CMSIS/Include/core_cmInstr.h ****     \return        value of type uint16_t at (*ptr)
 324:/home/torbjorn/eclipse-workspace/CoreNG/asf/thirdparty/CMSIS/Include/core_cmInstr.h ****  */
 325:/home/torbjorn/eclipse-workspace/CoreNG/asf/thirdparty/CMSIS/Include/core_cmInstr.h **** #define __LDRHT(ptr)                      ((uint16_t)  __ldrt(ptr))
 326:/home/torbjorn/eclipse-workspace/CoreNG/asf/thirdparty/CMSIS/Include/core_cmInstr.h **** 
 327:/home/torbjorn/eclipse-workspace/CoreNG/asf/thirdparty/CMSIS/Include/core_cmInstr.h **** 
 328:/home/torbjorn/eclipse-workspace/CoreNG/asf/thirdparty/CMSIS/Include/core_cmInstr.h **** /** \brief  LDRT Unprivileged (32 bit)
 329:/home/torbjorn/eclipse-workspace/CoreNG/asf/thirdparty/CMSIS/Include/core_cmInstr.h **** 
 330:/home/torbjorn/eclipse-workspace/CoreNG/asf/thirdparty/CMSIS/Include/core_cmInstr.h ****     This function executes a Unprivileged LDRT instruction for 32 bit values.
 331:/home/torbjorn/eclipse-workspace/CoreNG/asf/thirdparty/CMSIS/Include/core_cmInstr.h **** 
 332:/home/torbjorn/eclipse-workspace/CoreNG/asf/thirdparty/CMSIS/Include/core_cmInstr.h ****     \param [in]    ptr  Pointer to data
 333:/home/torbjorn/eclipse-workspace/CoreNG/asf/thirdparty/CMSIS/Include/core_cmInstr.h ****     \return        value of type uint32_t at (*ptr)
 334:/home/torbjorn/eclipse-workspace/CoreNG/asf/thirdparty/CMSIS/Include/core_cmInstr.h ****  */
 335:/home/torbjorn/eclipse-workspace/CoreNG/asf/thirdparty/CMSIS/Include/core_cmInstr.h **** #define __LDRT(ptr)                       ((uint32_t ) __ldrt(ptr))
 336:/home/torbjorn/eclipse-workspace/CoreNG/asf/thirdparty/CMSIS/Include/core_cmInstr.h **** 
 337:/home/torbjorn/eclipse-workspace/CoreNG/asf/thirdparty/CMSIS/Include/core_cmInstr.h **** 
 338:/home/torbjorn/eclipse-workspace/CoreNG/asf/thirdparty/CMSIS/Include/core_cmInstr.h **** /** \brief  STRT Unprivileged (8 bit)
 339:/home/torbjorn/eclipse-workspace/CoreNG/asf/thirdparty/CMSIS/Include/core_cmInstr.h **** 
 340:/home/torbjorn/eclipse-workspace/CoreNG/asf/thirdparty/CMSIS/Include/core_cmInstr.h ****     This function executes a Unprivileged STRT instruction for 8 bit values.
 341:/home/torbjorn/eclipse-workspace/CoreNG/asf/thirdparty/CMSIS/Include/core_cmInstr.h **** 
ARM GAS  /tmp/ccTuq0hs.s 			page 18


 342:/home/torbjorn/eclipse-workspace/CoreNG/asf/thirdparty/CMSIS/Include/core_cmInstr.h ****     \param [in]  value  Value to store
 343:/home/torbjorn/eclipse-workspace/CoreNG/asf/thirdparty/CMSIS/Include/core_cmInstr.h ****     \param [in]    ptr  Pointer to location
 344:/home/torbjorn/eclipse-workspace/CoreNG/asf/thirdparty/CMSIS/Include/core_cmInstr.h ****  */
 345:/home/torbjorn/eclipse-workspace/CoreNG/asf/thirdparty/CMSIS/Include/core_cmInstr.h **** #define __STRBT(value, ptr)               __strt(value, ptr)
 346:/home/torbjorn/eclipse-workspace/CoreNG/asf/thirdparty/CMSIS/Include/core_cmInstr.h **** 
 347:/home/torbjorn/eclipse-workspace/CoreNG/asf/thirdparty/CMSIS/Include/core_cmInstr.h **** 
 348:/home/torbjorn/eclipse-workspace/CoreNG/asf/thirdparty/CMSIS/Include/core_cmInstr.h **** /** \brief  STRT Unprivileged (16 bit)
 349:/home/torbjorn/eclipse-workspace/CoreNG/asf/thirdparty/CMSIS/Include/core_cmInstr.h **** 
 350:/home/torbjorn/eclipse-workspace/CoreNG/asf/thirdparty/CMSIS/Include/core_cmInstr.h ****     This function executes a Unprivileged STRT instruction for 16 bit values.
 351:/home/torbjorn/eclipse-workspace/CoreNG/asf/thirdparty/CMSIS/Include/core_cmInstr.h **** 
 352:/home/torbjorn/eclipse-workspace/CoreNG/asf/thirdparty/CMSIS/Include/core_cmInstr.h ****     \param [in]  value  Value to store
 353:/home/torbjorn/eclipse-workspace/CoreNG/asf/thirdparty/CMSIS/Include/core_cmInstr.h ****     \param [in]    ptr  Pointer to location
 354:/home/torbjorn/eclipse-workspace/CoreNG/asf/thirdparty/CMSIS/Include/core_cmInstr.h ****  */
 355:/home/torbjorn/eclipse-workspace/CoreNG/asf/thirdparty/CMSIS/Include/core_cmInstr.h **** #define __STRHT(value, ptr)               __strt(value, ptr)
 356:/home/torbjorn/eclipse-workspace/CoreNG/asf/thirdparty/CMSIS/Include/core_cmInstr.h **** 
 357:/home/torbjorn/eclipse-workspace/CoreNG/asf/thirdparty/CMSIS/Include/core_cmInstr.h **** 
 358:/home/torbjorn/eclipse-workspace/CoreNG/asf/thirdparty/CMSIS/Include/core_cmInstr.h **** /** \brief  STRT Unprivileged (32 bit)
 359:/home/torbjorn/eclipse-workspace/CoreNG/asf/thirdparty/CMSIS/Include/core_cmInstr.h **** 
 360:/home/torbjorn/eclipse-workspace/CoreNG/asf/thirdparty/CMSIS/Include/core_cmInstr.h ****     This function executes a Unprivileged STRT instruction for 32 bit values.
 361:/home/torbjorn/eclipse-workspace/CoreNG/asf/thirdparty/CMSIS/Include/core_cmInstr.h **** 
 362:/home/torbjorn/eclipse-workspace/CoreNG/asf/thirdparty/CMSIS/Include/core_cmInstr.h ****     \param [in]  value  Value to store
 363:/home/torbjorn/eclipse-workspace/CoreNG/asf/thirdparty/CMSIS/Include/core_cmInstr.h ****     \param [in]    ptr  Pointer to location
 364:/home/torbjorn/eclipse-workspace/CoreNG/asf/thirdparty/CMSIS/Include/core_cmInstr.h ****  */
 365:/home/torbjorn/eclipse-workspace/CoreNG/asf/thirdparty/CMSIS/Include/core_cmInstr.h **** #define __STRT(value, ptr)                __strt(value, ptr)
 366:/home/torbjorn/eclipse-workspace/CoreNG/asf/thirdparty/CMSIS/Include/core_cmInstr.h **** 
 367:/home/torbjorn/eclipse-workspace/CoreNG/asf/thirdparty/CMSIS/Include/core_cmInstr.h **** #endif /* (__CORTEX_M >= 0x03) || (__CORTEX_SC >= 300) */
 368:/home/torbjorn/eclipse-workspace/CoreNG/asf/thirdparty/CMSIS/Include/core_cmInstr.h **** 
 369:/home/torbjorn/eclipse-workspace/CoreNG/asf/thirdparty/CMSIS/Include/core_cmInstr.h **** 
 370:/home/torbjorn/eclipse-workspace/CoreNG/asf/thirdparty/CMSIS/Include/core_cmInstr.h **** #elif defined ( __GNUC__ ) /*------------------ GNU Compiler ---------------------*/
 371:/home/torbjorn/eclipse-workspace/CoreNG/asf/thirdparty/CMSIS/Include/core_cmInstr.h **** /* GNU gcc specific functions */
 372:/home/torbjorn/eclipse-workspace/CoreNG/asf/thirdparty/CMSIS/Include/core_cmInstr.h **** 
 373:/home/torbjorn/eclipse-workspace/CoreNG/asf/thirdparty/CMSIS/Include/core_cmInstr.h **** /* Define macros for porting to both thumb1 and thumb2.
 374:/home/torbjorn/eclipse-workspace/CoreNG/asf/thirdparty/CMSIS/Include/core_cmInstr.h ****  * For thumb1, use low register (r0-r7), specified by constrant "l"
 375:/home/torbjorn/eclipse-workspace/CoreNG/asf/thirdparty/CMSIS/Include/core_cmInstr.h ****  * Otherwise, use general registers, specified by constrant "r" */
 376:/home/torbjorn/eclipse-workspace/CoreNG/asf/thirdparty/CMSIS/Include/core_cmInstr.h **** #if defined (__thumb__) && !defined (__thumb2__)
 377:/home/torbjorn/eclipse-workspace/CoreNG/asf/thirdparty/CMSIS/Include/core_cmInstr.h **** #define __CMSIS_GCC_OUT_REG(r) "=l" (r)
 378:/home/torbjorn/eclipse-workspace/CoreNG/asf/thirdparty/CMSIS/Include/core_cmInstr.h **** #define __CMSIS_GCC_USE_REG(r) "l" (r)
 379:/home/torbjorn/eclipse-workspace/CoreNG/asf/thirdparty/CMSIS/Include/core_cmInstr.h **** #else
 380:/home/torbjorn/eclipse-workspace/CoreNG/asf/thirdparty/CMSIS/Include/core_cmInstr.h **** #define __CMSIS_GCC_OUT_REG(r) "=r" (r)
 381:/home/torbjorn/eclipse-workspace/CoreNG/asf/thirdparty/CMSIS/Include/core_cmInstr.h **** #define __CMSIS_GCC_USE_REG(r) "r" (r)
 382:/home/torbjorn/eclipse-workspace/CoreNG/asf/thirdparty/CMSIS/Include/core_cmInstr.h **** #endif
 383:/home/torbjorn/eclipse-workspace/CoreNG/asf/thirdparty/CMSIS/Include/core_cmInstr.h **** 
 384:/home/torbjorn/eclipse-workspace/CoreNG/asf/thirdparty/CMSIS/Include/core_cmInstr.h **** /** \brief  No Operation
 385:/home/torbjorn/eclipse-workspace/CoreNG/asf/thirdparty/CMSIS/Include/core_cmInstr.h **** 
 386:/home/torbjorn/eclipse-workspace/CoreNG/asf/thirdparty/CMSIS/Include/core_cmInstr.h ****     No Operation does nothing. This instruction can be used for code alignment purposes.
 387:/home/torbjorn/eclipse-workspace/CoreNG/asf/thirdparty/CMSIS/Include/core_cmInstr.h ****  */
 388:/home/torbjorn/eclipse-workspace/CoreNG/asf/thirdparty/CMSIS/Include/core_cmInstr.h **** __attribute__( ( always_inline ) ) __STATIC_INLINE void __NOP(void)
 389:/home/torbjorn/eclipse-workspace/CoreNG/asf/thirdparty/CMSIS/Include/core_cmInstr.h **** {
 390:/home/torbjorn/eclipse-workspace/CoreNG/asf/thirdparty/CMSIS/Include/core_cmInstr.h ****   __ASM volatile ("nop");
 391:/home/torbjorn/eclipse-workspace/CoreNG/asf/thirdparty/CMSIS/Include/core_cmInstr.h **** }
 392:/home/torbjorn/eclipse-workspace/CoreNG/asf/thirdparty/CMSIS/Include/core_cmInstr.h **** 
 393:/home/torbjorn/eclipse-workspace/CoreNG/asf/thirdparty/CMSIS/Include/core_cmInstr.h **** 
 394:/home/torbjorn/eclipse-workspace/CoreNG/asf/thirdparty/CMSIS/Include/core_cmInstr.h **** /** \brief  Wait For Interrupt
 395:/home/torbjorn/eclipse-workspace/CoreNG/asf/thirdparty/CMSIS/Include/core_cmInstr.h **** 
 396:/home/torbjorn/eclipse-workspace/CoreNG/asf/thirdparty/CMSIS/Include/core_cmInstr.h ****     Wait For Interrupt is a hint instruction that suspends execution
 397:/home/torbjorn/eclipse-workspace/CoreNG/asf/thirdparty/CMSIS/Include/core_cmInstr.h ****     until one of a number of events occurs.
 398:/home/torbjorn/eclipse-workspace/CoreNG/asf/thirdparty/CMSIS/Include/core_cmInstr.h ****  */
ARM GAS  /tmp/ccTuq0hs.s 			page 19


 399:/home/torbjorn/eclipse-workspace/CoreNG/asf/thirdparty/CMSIS/Include/core_cmInstr.h **** __attribute__( ( always_inline ) ) __STATIC_INLINE void __WFI(void)
 400:/home/torbjorn/eclipse-workspace/CoreNG/asf/thirdparty/CMSIS/Include/core_cmInstr.h **** {
 401:/home/torbjorn/eclipse-workspace/CoreNG/asf/thirdparty/CMSIS/Include/core_cmInstr.h ****   __ASM volatile ("wfi");
 402:/home/torbjorn/eclipse-workspace/CoreNG/asf/thirdparty/CMSIS/Include/core_cmInstr.h **** }
 403:/home/torbjorn/eclipse-workspace/CoreNG/asf/thirdparty/CMSIS/Include/core_cmInstr.h **** 
 404:/home/torbjorn/eclipse-workspace/CoreNG/asf/thirdparty/CMSIS/Include/core_cmInstr.h **** 
 405:/home/torbjorn/eclipse-workspace/CoreNG/asf/thirdparty/CMSIS/Include/core_cmInstr.h **** /** \brief  Wait For Event
 406:/home/torbjorn/eclipse-workspace/CoreNG/asf/thirdparty/CMSIS/Include/core_cmInstr.h **** 
 407:/home/torbjorn/eclipse-workspace/CoreNG/asf/thirdparty/CMSIS/Include/core_cmInstr.h ****     Wait For Event is a hint instruction that permits the processor to enter
 408:/home/torbjorn/eclipse-workspace/CoreNG/asf/thirdparty/CMSIS/Include/core_cmInstr.h ****     a low-power state until one of a number of events occurs.
 409:/home/torbjorn/eclipse-workspace/CoreNG/asf/thirdparty/CMSIS/Include/core_cmInstr.h ****  */
 410:/home/torbjorn/eclipse-workspace/CoreNG/asf/thirdparty/CMSIS/Include/core_cmInstr.h **** __attribute__( ( always_inline ) ) __STATIC_INLINE void __WFE(void)
 411:/home/torbjorn/eclipse-workspace/CoreNG/asf/thirdparty/CMSIS/Include/core_cmInstr.h **** {
 412:/home/torbjorn/eclipse-workspace/CoreNG/asf/thirdparty/CMSIS/Include/core_cmInstr.h ****   __ASM volatile ("wfe");
 413:/home/torbjorn/eclipse-workspace/CoreNG/asf/thirdparty/CMSIS/Include/core_cmInstr.h **** }
 414:/home/torbjorn/eclipse-workspace/CoreNG/asf/thirdparty/CMSIS/Include/core_cmInstr.h **** 
 415:/home/torbjorn/eclipse-workspace/CoreNG/asf/thirdparty/CMSIS/Include/core_cmInstr.h **** 
 416:/home/torbjorn/eclipse-workspace/CoreNG/asf/thirdparty/CMSIS/Include/core_cmInstr.h **** /** \brief  Send Event
 417:/home/torbjorn/eclipse-workspace/CoreNG/asf/thirdparty/CMSIS/Include/core_cmInstr.h **** 
 418:/home/torbjorn/eclipse-workspace/CoreNG/asf/thirdparty/CMSIS/Include/core_cmInstr.h ****     Send Event is a hint instruction. It causes an event to be signaled to the CPU.
 419:/home/torbjorn/eclipse-workspace/CoreNG/asf/thirdparty/CMSIS/Include/core_cmInstr.h ****  */
 420:/home/torbjorn/eclipse-workspace/CoreNG/asf/thirdparty/CMSIS/Include/core_cmInstr.h **** __attribute__( ( always_inline ) ) __STATIC_INLINE void __SEV(void)
 421:/home/torbjorn/eclipse-workspace/CoreNG/asf/thirdparty/CMSIS/Include/core_cmInstr.h **** {
 422:/home/torbjorn/eclipse-workspace/CoreNG/asf/thirdparty/CMSIS/Include/core_cmInstr.h ****   __ASM volatile ("sev");
 423:/home/torbjorn/eclipse-workspace/CoreNG/asf/thirdparty/CMSIS/Include/core_cmInstr.h **** }
 424:/home/torbjorn/eclipse-workspace/CoreNG/asf/thirdparty/CMSIS/Include/core_cmInstr.h **** 
 425:/home/torbjorn/eclipse-workspace/CoreNG/asf/thirdparty/CMSIS/Include/core_cmInstr.h **** 
 426:/home/torbjorn/eclipse-workspace/CoreNG/asf/thirdparty/CMSIS/Include/core_cmInstr.h **** /** \brief  Instruction Synchronization Barrier
 427:/home/torbjorn/eclipse-workspace/CoreNG/asf/thirdparty/CMSIS/Include/core_cmInstr.h **** 
 428:/home/torbjorn/eclipse-workspace/CoreNG/asf/thirdparty/CMSIS/Include/core_cmInstr.h ****     Instruction Synchronization Barrier flushes the pipeline in the processor,
 429:/home/torbjorn/eclipse-workspace/CoreNG/asf/thirdparty/CMSIS/Include/core_cmInstr.h ****     so that all instructions following the ISB are fetched from cache or
 430:/home/torbjorn/eclipse-workspace/CoreNG/asf/thirdparty/CMSIS/Include/core_cmInstr.h ****     memory, after the instruction has been completed.
 431:/home/torbjorn/eclipse-workspace/CoreNG/asf/thirdparty/CMSIS/Include/core_cmInstr.h ****  */
 432:/home/torbjorn/eclipse-workspace/CoreNG/asf/thirdparty/CMSIS/Include/core_cmInstr.h **** __attribute__( ( always_inline ) ) __STATIC_INLINE void __ISB(void)
 433:/home/torbjorn/eclipse-workspace/CoreNG/asf/thirdparty/CMSIS/Include/core_cmInstr.h **** {
 434:/home/torbjorn/eclipse-workspace/CoreNG/asf/thirdparty/CMSIS/Include/core_cmInstr.h ****   __ASM volatile ("isb");
 435:/home/torbjorn/eclipse-workspace/CoreNG/asf/thirdparty/CMSIS/Include/core_cmInstr.h **** }
 436:/home/torbjorn/eclipse-workspace/CoreNG/asf/thirdparty/CMSIS/Include/core_cmInstr.h **** 
 437:/home/torbjorn/eclipse-workspace/CoreNG/asf/thirdparty/CMSIS/Include/core_cmInstr.h **** 
 438:/home/torbjorn/eclipse-workspace/CoreNG/asf/thirdparty/CMSIS/Include/core_cmInstr.h **** /** \brief  Data Synchronization Barrier
 439:/home/torbjorn/eclipse-workspace/CoreNG/asf/thirdparty/CMSIS/Include/core_cmInstr.h **** 
 440:/home/torbjorn/eclipse-workspace/CoreNG/asf/thirdparty/CMSIS/Include/core_cmInstr.h ****     This function acts as a special kind of Data Memory Barrier.
 441:/home/torbjorn/eclipse-workspace/CoreNG/asf/thirdparty/CMSIS/Include/core_cmInstr.h ****     It completes when all explicit memory accesses before this instruction complete.
 442:/home/torbjorn/eclipse-workspace/CoreNG/asf/thirdparty/CMSIS/Include/core_cmInstr.h ****  */
 443:/home/torbjorn/eclipse-workspace/CoreNG/asf/thirdparty/CMSIS/Include/core_cmInstr.h **** __attribute__( ( always_inline ) ) __STATIC_INLINE void __DSB(void)
 444:/home/torbjorn/eclipse-workspace/CoreNG/asf/thirdparty/CMSIS/Include/core_cmInstr.h **** {
 445:/home/torbjorn/eclipse-workspace/CoreNG/asf/thirdparty/CMSIS/Include/core_cmInstr.h ****   __ASM volatile ("dsb");
 446:/home/torbjorn/eclipse-workspace/CoreNG/asf/thirdparty/CMSIS/Include/core_cmInstr.h **** }
 447:/home/torbjorn/eclipse-workspace/CoreNG/asf/thirdparty/CMSIS/Include/core_cmInstr.h **** 
 448:/home/torbjorn/eclipse-workspace/CoreNG/asf/thirdparty/CMSIS/Include/core_cmInstr.h **** 
 449:/home/torbjorn/eclipse-workspace/CoreNG/asf/thirdparty/CMSIS/Include/core_cmInstr.h **** /** \brief  Data Memory Barrier
 450:/home/torbjorn/eclipse-workspace/CoreNG/asf/thirdparty/CMSIS/Include/core_cmInstr.h **** 
 451:/home/torbjorn/eclipse-workspace/CoreNG/asf/thirdparty/CMSIS/Include/core_cmInstr.h ****     This function ensures the apparent order of the explicit memory operations before
 452:/home/torbjorn/eclipse-workspace/CoreNG/asf/thirdparty/CMSIS/Include/core_cmInstr.h ****     and after the instruction, without ensuring their completion.
 453:/home/torbjorn/eclipse-workspace/CoreNG/asf/thirdparty/CMSIS/Include/core_cmInstr.h ****  */
 454:/home/torbjorn/eclipse-workspace/CoreNG/asf/thirdparty/CMSIS/Include/core_cmInstr.h **** __attribute__( ( always_inline ) ) __STATIC_INLINE void __DMB(void)
 455:/home/torbjorn/eclipse-workspace/CoreNG/asf/thirdparty/CMSIS/Include/core_cmInstr.h **** {
ARM GAS  /tmp/ccTuq0hs.s 			page 20


 456:/home/torbjorn/eclipse-workspace/CoreNG/asf/thirdparty/CMSIS/Include/core_cmInstr.h ****   __ASM volatile ("dmb");
 120              		.loc 3 456 0
 121              		.syntax unified
 122              	@ 456 "/home/torbjorn/eclipse-workspace/CoreNG/asf/thirdparty/CMSIS/Include/core_cmInstr.h" 1
 123 0006 BFF35F8F 		dmb
 124              	@ 0 "" 2
 125              		.thumb
 126              		.syntax unified
 127              	.LBE39:
 128              	.LBE38:
 129              		.file 4 "/home/torbjorn/eclipse-workspace/CoreNG/asf/common/utils/interrupt/interrupt_sam_nvic.h"
   1:/home/torbjorn/eclipse-workspace/CoreNG/asf/common/utils/interrupt/interrupt_sam_nvic.h **** /**
   2:/home/torbjorn/eclipse-workspace/CoreNG/asf/common/utils/interrupt/interrupt_sam_nvic.h ****  * \file
   3:/home/torbjorn/eclipse-workspace/CoreNG/asf/common/utils/interrupt/interrupt_sam_nvic.h ****  *
   4:/home/torbjorn/eclipse-workspace/CoreNG/asf/common/utils/interrupt/interrupt_sam_nvic.h ****  * \brief Global interrupt management for SAM D20, SAM3 and SAM4 (NVIC based)
   5:/home/torbjorn/eclipse-workspace/CoreNG/asf/common/utils/interrupt/interrupt_sam_nvic.h ****  *
   6:/home/torbjorn/eclipse-workspace/CoreNG/asf/common/utils/interrupt/interrupt_sam_nvic.h ****  * Copyright (c) 2012-2015 Atmel Corporation. All rights reserved.
   7:/home/torbjorn/eclipse-workspace/CoreNG/asf/common/utils/interrupt/interrupt_sam_nvic.h ****  *
   8:/home/torbjorn/eclipse-workspace/CoreNG/asf/common/utils/interrupt/interrupt_sam_nvic.h ****  * \asf_license_start
   9:/home/torbjorn/eclipse-workspace/CoreNG/asf/common/utils/interrupt/interrupt_sam_nvic.h ****  *
  10:/home/torbjorn/eclipse-workspace/CoreNG/asf/common/utils/interrupt/interrupt_sam_nvic.h ****  * \page License
  11:/home/torbjorn/eclipse-workspace/CoreNG/asf/common/utils/interrupt/interrupt_sam_nvic.h ****  *
  12:/home/torbjorn/eclipse-workspace/CoreNG/asf/common/utils/interrupt/interrupt_sam_nvic.h ****  * Redistribution and use in source and binary forms, with or without
  13:/home/torbjorn/eclipse-workspace/CoreNG/asf/common/utils/interrupt/interrupt_sam_nvic.h ****  * modification, are permitted provided that the following conditions are met:
  14:/home/torbjorn/eclipse-workspace/CoreNG/asf/common/utils/interrupt/interrupt_sam_nvic.h ****  *
  15:/home/torbjorn/eclipse-workspace/CoreNG/asf/common/utils/interrupt/interrupt_sam_nvic.h ****  * 1. Redistributions of source code must retain the above copyright notice,
  16:/home/torbjorn/eclipse-workspace/CoreNG/asf/common/utils/interrupt/interrupt_sam_nvic.h ****  *    this list of conditions and the following disclaimer.
  17:/home/torbjorn/eclipse-workspace/CoreNG/asf/common/utils/interrupt/interrupt_sam_nvic.h ****  *
  18:/home/torbjorn/eclipse-workspace/CoreNG/asf/common/utils/interrupt/interrupt_sam_nvic.h ****  * 2. Redistributions in binary form must reproduce the above copyright notice,
  19:/home/torbjorn/eclipse-workspace/CoreNG/asf/common/utils/interrupt/interrupt_sam_nvic.h ****  *    this list of conditions and the following disclaimer in the documentation
  20:/home/torbjorn/eclipse-workspace/CoreNG/asf/common/utils/interrupt/interrupt_sam_nvic.h ****  *    and/or other materials provided with the distribution.
  21:/home/torbjorn/eclipse-workspace/CoreNG/asf/common/utils/interrupt/interrupt_sam_nvic.h ****  *
  22:/home/torbjorn/eclipse-workspace/CoreNG/asf/common/utils/interrupt/interrupt_sam_nvic.h ****  * 3. The name of Atmel may not be used to endorse or promote products derived
  23:/home/torbjorn/eclipse-workspace/CoreNG/asf/common/utils/interrupt/interrupt_sam_nvic.h ****  *    from this software without specific prior written permission.
  24:/home/torbjorn/eclipse-workspace/CoreNG/asf/common/utils/interrupt/interrupt_sam_nvic.h ****  *
  25:/home/torbjorn/eclipse-workspace/CoreNG/asf/common/utils/interrupt/interrupt_sam_nvic.h ****  * 4. This software may only be redistributed and used in connection with an
  26:/home/torbjorn/eclipse-workspace/CoreNG/asf/common/utils/interrupt/interrupt_sam_nvic.h ****  *    Atmel microcontroller product.
  27:/home/torbjorn/eclipse-workspace/CoreNG/asf/common/utils/interrupt/interrupt_sam_nvic.h ****  *
  28:/home/torbjorn/eclipse-workspace/CoreNG/asf/common/utils/interrupt/interrupt_sam_nvic.h ****  * THIS SOFTWARE IS PROVIDED BY ATMEL "AS IS" AND ANY EXPRESS OR IMPLIED
  29:/home/torbjorn/eclipse-workspace/CoreNG/asf/common/utils/interrupt/interrupt_sam_nvic.h ****  * WARRANTIES, INCLUDING, BUT NOT LIMITED TO, THE IMPLIED WARRANTIES OF
  30:/home/torbjorn/eclipse-workspace/CoreNG/asf/common/utils/interrupt/interrupt_sam_nvic.h ****  * MERCHANTABILITY, FITNESS FOR A PARTICULAR PURPOSE AND NON-INFRINGEMENT ARE
  31:/home/torbjorn/eclipse-workspace/CoreNG/asf/common/utils/interrupt/interrupt_sam_nvic.h ****  * EXPRESSLY AND SPECIFICALLY DISCLAIMED. IN NO EVENT SHALL ATMEL BE LIABLE FOR
  32:/home/torbjorn/eclipse-workspace/CoreNG/asf/common/utils/interrupt/interrupt_sam_nvic.h ****  * ANY DIRECT, INDIRECT, INCIDENTAL, SPECIAL, EXEMPLARY, OR CONSEQUENTIAL
  33:/home/torbjorn/eclipse-workspace/CoreNG/asf/common/utils/interrupt/interrupt_sam_nvic.h ****  * DAMAGES (INCLUDING, BUT NOT LIMITED TO, PROCUREMENT OF SUBSTITUTE GOODS
  34:/home/torbjorn/eclipse-workspace/CoreNG/asf/common/utils/interrupt/interrupt_sam_nvic.h ****  * OR SERVICES; LOSS OF USE, DATA, OR PROFITS; OR BUSINESS INTERRUPTION)
  35:/home/torbjorn/eclipse-workspace/CoreNG/asf/common/utils/interrupt/interrupt_sam_nvic.h ****  * HOWEVER CAUSED AND ON ANY THEORY OF LIABILITY, WHETHER IN CONTRACT,
  36:/home/torbjorn/eclipse-workspace/CoreNG/asf/common/utils/interrupt/interrupt_sam_nvic.h ****  * STRICT LIABILITY, OR TORT (INCLUDING NEGLIGENCE OR OTHERWISE) ARISING IN
  37:/home/torbjorn/eclipse-workspace/CoreNG/asf/common/utils/interrupt/interrupt_sam_nvic.h ****  * ANY WAY OUT OF THE USE OF THIS SOFTWARE, EVEN IF ADVISED OF THE
  38:/home/torbjorn/eclipse-workspace/CoreNG/asf/common/utils/interrupt/interrupt_sam_nvic.h ****  * POSSIBILITY OF SUCH DAMAGE.
  39:/home/torbjorn/eclipse-workspace/CoreNG/asf/common/utils/interrupt/interrupt_sam_nvic.h ****  *
  40:/home/torbjorn/eclipse-workspace/CoreNG/asf/common/utils/interrupt/interrupt_sam_nvic.h ****  * \asf_license_stop
  41:/home/torbjorn/eclipse-workspace/CoreNG/asf/common/utils/interrupt/interrupt_sam_nvic.h ****  *
  42:/home/torbjorn/eclipse-workspace/CoreNG/asf/common/utils/interrupt/interrupt_sam_nvic.h ****  */
  43:/home/torbjorn/eclipse-workspace/CoreNG/asf/common/utils/interrupt/interrupt_sam_nvic.h **** /*
  44:/home/torbjorn/eclipse-workspace/CoreNG/asf/common/utils/interrupt/interrupt_sam_nvic.h ****  * Support and FAQ: visit <a href="http://www.atmel.com/design-support/">Atmel Support</a>
  45:/home/torbjorn/eclipse-workspace/CoreNG/asf/common/utils/interrupt/interrupt_sam_nvic.h ****  */
  46:/home/torbjorn/eclipse-workspace/CoreNG/asf/common/utils/interrupt/interrupt_sam_nvic.h **** 
ARM GAS  /tmp/ccTuq0hs.s 			page 21


  47:/home/torbjorn/eclipse-workspace/CoreNG/asf/common/utils/interrupt/interrupt_sam_nvic.h **** #ifndef UTILS_INTERRUPT_INTERRUPT_H
  48:/home/torbjorn/eclipse-workspace/CoreNG/asf/common/utils/interrupt/interrupt_sam_nvic.h **** #define UTILS_INTERRUPT_INTERRUPT_H
  49:/home/torbjorn/eclipse-workspace/CoreNG/asf/common/utils/interrupt/interrupt_sam_nvic.h **** 
  50:/home/torbjorn/eclipse-workspace/CoreNG/asf/common/utils/interrupt/interrupt_sam_nvic.h **** #include <compiler.h>
  51:/home/torbjorn/eclipse-workspace/CoreNG/asf/common/utils/interrupt/interrupt_sam_nvic.h **** #include <parts.h>
  52:/home/torbjorn/eclipse-workspace/CoreNG/asf/common/utils/interrupt/interrupt_sam_nvic.h **** 
  53:/home/torbjorn/eclipse-workspace/CoreNG/asf/common/utils/interrupt/interrupt_sam_nvic.h **** #ifdef __cplusplus
  54:/home/torbjorn/eclipse-workspace/CoreNG/asf/common/utils/interrupt/interrupt_sam_nvic.h **** extern "C" {
  55:/home/torbjorn/eclipse-workspace/CoreNG/asf/common/utils/interrupt/interrupt_sam_nvic.h **** #endif
  56:/home/torbjorn/eclipse-workspace/CoreNG/asf/common/utils/interrupt/interrupt_sam_nvic.h **** 
  57:/home/torbjorn/eclipse-workspace/CoreNG/asf/common/utils/interrupt/interrupt_sam_nvic.h **** /**
  58:/home/torbjorn/eclipse-workspace/CoreNG/asf/common/utils/interrupt/interrupt_sam_nvic.h ****  * \weakgroup interrupt_group
  59:/home/torbjorn/eclipse-workspace/CoreNG/asf/common/utils/interrupt/interrupt_sam_nvic.h ****  *
  60:/home/torbjorn/eclipse-workspace/CoreNG/asf/common/utils/interrupt/interrupt_sam_nvic.h ****  * @{
  61:/home/torbjorn/eclipse-workspace/CoreNG/asf/common/utils/interrupt/interrupt_sam_nvic.h ****  */
  62:/home/torbjorn/eclipse-workspace/CoreNG/asf/common/utils/interrupt/interrupt_sam_nvic.h **** 
  63:/home/torbjorn/eclipse-workspace/CoreNG/asf/common/utils/interrupt/interrupt_sam_nvic.h **** /**
  64:/home/torbjorn/eclipse-workspace/CoreNG/asf/common/utils/interrupt/interrupt_sam_nvic.h ****  * \name Interrupt Service Routine definition
  65:/home/torbjorn/eclipse-workspace/CoreNG/asf/common/utils/interrupt/interrupt_sam_nvic.h ****  *
  66:/home/torbjorn/eclipse-workspace/CoreNG/asf/common/utils/interrupt/interrupt_sam_nvic.h ****  * @{
  67:/home/torbjorn/eclipse-workspace/CoreNG/asf/common/utils/interrupt/interrupt_sam_nvic.h ****  */
  68:/home/torbjorn/eclipse-workspace/CoreNG/asf/common/utils/interrupt/interrupt_sam_nvic.h **** 
  69:/home/torbjorn/eclipse-workspace/CoreNG/asf/common/utils/interrupt/interrupt_sam_nvic.h **** /**
  70:/home/torbjorn/eclipse-workspace/CoreNG/asf/common/utils/interrupt/interrupt_sam_nvic.h ****  * \brief Define service routine
  71:/home/torbjorn/eclipse-workspace/CoreNG/asf/common/utils/interrupt/interrupt_sam_nvic.h ****  *
  72:/home/torbjorn/eclipse-workspace/CoreNG/asf/common/utils/interrupt/interrupt_sam_nvic.h ****  * \note For NVIC devices the interrupt service routines are predefined to
  73:/home/torbjorn/eclipse-workspace/CoreNG/asf/common/utils/interrupt/interrupt_sam_nvic.h ****  *       add to vector table in binary generation, so there is no service
  74:/home/torbjorn/eclipse-workspace/CoreNG/asf/common/utils/interrupt/interrupt_sam_nvic.h ****  *       register at run time. The routine collections are in exceptions.h.
  75:/home/torbjorn/eclipse-workspace/CoreNG/asf/common/utils/interrupt/interrupt_sam_nvic.h ****  *
  76:/home/torbjorn/eclipse-workspace/CoreNG/asf/common/utils/interrupt/interrupt_sam_nvic.h ****  * Usage:
  77:/home/torbjorn/eclipse-workspace/CoreNG/asf/common/utils/interrupt/interrupt_sam_nvic.h ****  * \code
  78:/home/torbjorn/eclipse-workspace/CoreNG/asf/common/utils/interrupt/interrupt_sam_nvic.h **** 	ISR(foo_irq_handler)
  79:/home/torbjorn/eclipse-workspace/CoreNG/asf/common/utils/interrupt/interrupt_sam_nvic.h **** 	{
  80:/home/torbjorn/eclipse-workspace/CoreNG/asf/common/utils/interrupt/interrupt_sam_nvic.h **** 	     // Function definition
  81:/home/torbjorn/eclipse-workspace/CoreNG/asf/common/utils/interrupt/interrupt_sam_nvic.h **** 	     ...
  82:/home/torbjorn/eclipse-workspace/CoreNG/asf/common/utils/interrupt/interrupt_sam_nvic.h **** 	}
  83:/home/torbjorn/eclipse-workspace/CoreNG/asf/common/utils/interrupt/interrupt_sam_nvic.h **** \endcode
  84:/home/torbjorn/eclipse-workspace/CoreNG/asf/common/utils/interrupt/interrupt_sam_nvic.h ****  *
  85:/home/torbjorn/eclipse-workspace/CoreNG/asf/common/utils/interrupt/interrupt_sam_nvic.h ****  * \param func Name for the function.
  86:/home/torbjorn/eclipse-workspace/CoreNG/asf/common/utils/interrupt/interrupt_sam_nvic.h ****  */
  87:/home/torbjorn/eclipse-workspace/CoreNG/asf/common/utils/interrupt/interrupt_sam_nvic.h **** #  define ISR(func)   \
  88:/home/torbjorn/eclipse-workspace/CoreNG/asf/common/utils/interrupt/interrupt_sam_nvic.h **** 	void func (void)
  89:/home/torbjorn/eclipse-workspace/CoreNG/asf/common/utils/interrupt/interrupt_sam_nvic.h **** 
  90:/home/torbjorn/eclipse-workspace/CoreNG/asf/common/utils/interrupt/interrupt_sam_nvic.h **** /**
  91:/home/torbjorn/eclipse-workspace/CoreNG/asf/common/utils/interrupt/interrupt_sam_nvic.h ****  * \brief Initialize interrupt vectors
  92:/home/torbjorn/eclipse-workspace/CoreNG/asf/common/utils/interrupt/interrupt_sam_nvic.h ****  *
  93:/home/torbjorn/eclipse-workspace/CoreNG/asf/common/utils/interrupt/interrupt_sam_nvic.h ****  * For NVIC the interrupt vectors are put in vector table. So nothing
  94:/home/torbjorn/eclipse-workspace/CoreNG/asf/common/utils/interrupt/interrupt_sam_nvic.h ****  * to do to initialize them, except defined the vector function with
  95:/home/torbjorn/eclipse-workspace/CoreNG/asf/common/utils/interrupt/interrupt_sam_nvic.h ****  * right name.
  96:/home/torbjorn/eclipse-workspace/CoreNG/asf/common/utils/interrupt/interrupt_sam_nvic.h ****  *
  97:/home/torbjorn/eclipse-workspace/CoreNG/asf/common/utils/interrupt/interrupt_sam_nvic.h ****  * This must be called prior to \ref irq_register_handler.
  98:/home/torbjorn/eclipse-workspace/CoreNG/asf/common/utils/interrupt/interrupt_sam_nvic.h ****  */
  99:/home/torbjorn/eclipse-workspace/CoreNG/asf/common/utils/interrupt/interrupt_sam_nvic.h **** #  define irq_initialize_vectors()   \
 100:/home/torbjorn/eclipse-workspace/CoreNG/asf/common/utils/interrupt/interrupt_sam_nvic.h **** 	do {                             \
 101:/home/torbjorn/eclipse-workspace/CoreNG/asf/common/utils/interrupt/interrupt_sam_nvic.h **** 	} while(0)
 102:/home/torbjorn/eclipse-workspace/CoreNG/asf/common/utils/interrupt/interrupt_sam_nvic.h **** 
 103:/home/torbjorn/eclipse-workspace/CoreNG/asf/common/utils/interrupt/interrupt_sam_nvic.h **** /**
ARM GAS  /tmp/ccTuq0hs.s 			page 22


 104:/home/torbjorn/eclipse-workspace/CoreNG/asf/common/utils/interrupt/interrupt_sam_nvic.h ****  * \brief Register handler for interrupt
 105:/home/torbjorn/eclipse-workspace/CoreNG/asf/common/utils/interrupt/interrupt_sam_nvic.h ****  *
 106:/home/torbjorn/eclipse-workspace/CoreNG/asf/common/utils/interrupt/interrupt_sam_nvic.h ****  * For NVIC the interrupt vectors are put in vector table. So nothing
 107:/home/torbjorn/eclipse-workspace/CoreNG/asf/common/utils/interrupt/interrupt_sam_nvic.h ****  * to do to register them, except defined the vector function with
 108:/home/torbjorn/eclipse-workspace/CoreNG/asf/common/utils/interrupt/interrupt_sam_nvic.h ****  * right name.
 109:/home/torbjorn/eclipse-workspace/CoreNG/asf/common/utils/interrupt/interrupt_sam_nvic.h ****  *
 110:/home/torbjorn/eclipse-workspace/CoreNG/asf/common/utils/interrupt/interrupt_sam_nvic.h ****  * Usage:
 111:/home/torbjorn/eclipse-workspace/CoreNG/asf/common/utils/interrupt/interrupt_sam_nvic.h ****  * \code
 112:/home/torbjorn/eclipse-workspace/CoreNG/asf/common/utils/interrupt/interrupt_sam_nvic.h **** 	irq_initialize_vectors();
 113:/home/torbjorn/eclipse-workspace/CoreNG/asf/common/utils/interrupt/interrupt_sam_nvic.h **** 	irq_register_handler(foo_irq_handler);
 114:/home/torbjorn/eclipse-workspace/CoreNG/asf/common/utils/interrupt/interrupt_sam_nvic.h **** \endcode
 115:/home/torbjorn/eclipse-workspace/CoreNG/asf/common/utils/interrupt/interrupt_sam_nvic.h ****  *
 116:/home/torbjorn/eclipse-workspace/CoreNG/asf/common/utils/interrupt/interrupt_sam_nvic.h ****  * \note The function \a func must be defined with the \ref ISR macro.
 117:/home/torbjorn/eclipse-workspace/CoreNG/asf/common/utils/interrupt/interrupt_sam_nvic.h ****  * \note The functions prototypes can be found in the device exception header
 118:/home/torbjorn/eclipse-workspace/CoreNG/asf/common/utils/interrupt/interrupt_sam_nvic.h ****  *       files (exceptions.h).
 119:/home/torbjorn/eclipse-workspace/CoreNG/asf/common/utils/interrupt/interrupt_sam_nvic.h ****  */
 120:/home/torbjorn/eclipse-workspace/CoreNG/asf/common/utils/interrupt/interrupt_sam_nvic.h **** #  define irq_register_handler(int_num, int_prio)                      \
 121:/home/torbjorn/eclipse-workspace/CoreNG/asf/common/utils/interrupt/interrupt_sam_nvic.h **** 	NVIC_ClearPendingIRQ(    (IRQn_Type)int_num);                      \
 122:/home/torbjorn/eclipse-workspace/CoreNG/asf/common/utils/interrupt/interrupt_sam_nvic.h **** 	NVIC_SetPriority(    (IRQn_Type)int_num, int_prio);                \
 123:/home/torbjorn/eclipse-workspace/CoreNG/asf/common/utils/interrupt/interrupt_sam_nvic.h **** 	NVIC_EnableIRQ(      (IRQn_Type)int_num);                          \
 124:/home/torbjorn/eclipse-workspace/CoreNG/asf/common/utils/interrupt/interrupt_sam_nvic.h **** 
 125:/home/torbjorn/eclipse-workspace/CoreNG/asf/common/utils/interrupt/interrupt_sam_nvic.h **** //@}
 126:/home/torbjorn/eclipse-workspace/CoreNG/asf/common/utils/interrupt/interrupt_sam_nvic.h **** 
 127:/home/torbjorn/eclipse-workspace/CoreNG/asf/common/utils/interrupt/interrupt_sam_nvic.h **** #  define cpu_irq_enable()                     \
 128:/home/torbjorn/eclipse-workspace/CoreNG/asf/common/utils/interrupt/interrupt_sam_nvic.h **** 	do {                                       \
 129:/home/torbjorn/eclipse-workspace/CoreNG/asf/common/utils/interrupt/interrupt_sam_nvic.h **** 		g_interrupt_enabled = true;            \
 130:/home/torbjorn/eclipse-workspace/CoreNG/asf/common/utils/interrupt/interrupt_sam_nvic.h **** 		__DMB();                               \
 131:/home/torbjorn/eclipse-workspace/CoreNG/asf/common/utils/interrupt/interrupt_sam_nvic.h **** 		__enable_irq();                        \
 132:/home/torbjorn/eclipse-workspace/CoreNG/asf/common/utils/interrupt/interrupt_sam_nvic.h **** 	} while (0)
 133:/home/torbjorn/eclipse-workspace/CoreNG/asf/common/utils/interrupt/interrupt_sam_nvic.h **** #  define cpu_irq_disable()                    \
 134:/home/torbjorn/eclipse-workspace/CoreNG/asf/common/utils/interrupt/interrupt_sam_nvic.h **** 	do {                                       \
 135:/home/torbjorn/eclipse-workspace/CoreNG/asf/common/utils/interrupt/interrupt_sam_nvic.h **** 		__disable_irq();                       \
 136:/home/torbjorn/eclipse-workspace/CoreNG/asf/common/utils/interrupt/interrupt_sam_nvic.h **** 		__DMB();                               \
 137:/home/torbjorn/eclipse-workspace/CoreNG/asf/common/utils/interrupt/interrupt_sam_nvic.h **** 		g_interrupt_enabled = false;           \
 138:/home/torbjorn/eclipse-workspace/CoreNG/asf/common/utils/interrupt/interrupt_sam_nvic.h **** 	} while (0)
 139:/home/torbjorn/eclipse-workspace/CoreNG/asf/common/utils/interrupt/interrupt_sam_nvic.h **** 
 140:/home/torbjorn/eclipse-workspace/CoreNG/asf/common/utils/interrupt/interrupt_sam_nvic.h **** typedef uint32_t irqflags_t;
 141:/home/torbjorn/eclipse-workspace/CoreNG/asf/common/utils/interrupt/interrupt_sam_nvic.h **** 
 142:/home/torbjorn/eclipse-workspace/CoreNG/asf/common/utils/interrupt/interrupt_sam_nvic.h **** #if !defined(__DOXYGEN__)
 143:/home/torbjorn/eclipse-workspace/CoreNG/asf/common/utils/interrupt/interrupt_sam_nvic.h **** extern volatile bool g_interrupt_enabled;
 144:/home/torbjorn/eclipse-workspace/CoreNG/asf/common/utils/interrupt/interrupt_sam_nvic.h **** #endif
 145:/home/torbjorn/eclipse-workspace/CoreNG/asf/common/utils/interrupt/interrupt_sam_nvic.h **** 
 146:/home/torbjorn/eclipse-workspace/CoreNG/asf/common/utils/interrupt/interrupt_sam_nvic.h **** #define cpu_irq_is_enabled()    (__get_PRIMASK() == 0)
 147:/home/torbjorn/eclipse-workspace/CoreNG/asf/common/utils/interrupt/interrupt_sam_nvic.h **** 
 148:/home/torbjorn/eclipse-workspace/CoreNG/asf/common/utils/interrupt/interrupt_sam_nvic.h **** static volatile uint32_t cpu_irq_critical_section_counter;
 149:/home/torbjorn/eclipse-workspace/CoreNG/asf/common/utils/interrupt/interrupt_sam_nvic.h **** static volatile bool     cpu_irq_prev_interrupt_state;
 150:/home/torbjorn/eclipse-workspace/CoreNG/asf/common/utils/interrupt/interrupt_sam_nvic.h **** 
 151:/home/torbjorn/eclipse-workspace/CoreNG/asf/common/utils/interrupt/interrupt_sam_nvic.h **** static inline irqflags_t cpu_irq_save(void)
 152:/home/torbjorn/eclipse-workspace/CoreNG/asf/common/utils/interrupt/interrupt_sam_nvic.h **** {
 153:/home/torbjorn/eclipse-workspace/CoreNG/asf/common/utils/interrupt/interrupt_sam_nvic.h **** 	irqflags_t flags = cpu_irq_is_enabled();
 154:/home/torbjorn/eclipse-workspace/CoreNG/asf/common/utils/interrupt/interrupt_sam_nvic.h **** 	cpu_irq_disable();
 130              		.loc 4 154 0
 131 000a 0020     		movs	r0, #0
 132 000c 054A     		ldr	r2, .L10
 133              	.LBE33:
 134              	.LBE32:
  39:../cores/arduino/wiring.c **** 	const irqflags_t flags = cpu_irq_save();	// save and disable interrupts
ARM GAS  /tmp/ccTuq0hs.s 			page 23


  40:../cores/arduino/wiring.c **** 	const uint64_t ret = g_ms_ticks;			// take a copy with interrupts disabled to guard against rollov
 135              		.loc 1 40 0
 136 000e 0649     		ldr	r1, .L10+4
 137              	.LBB41:
 138              	.LBB40:
 139              		.loc 4 154 0
 140 0010 1070     		strb	r0, [r2]
 141              	.LBE40:
 142              	.LBE41:
 143              		.loc 1 40 0
 144 0012 D1E90001 		ldrd	r0, [r1]
 145              	.LVL1:
 146              	.LBB42:
 147              	.LBB43:
 155:/home/torbjorn/eclipse-workspace/CoreNG/asf/common/utils/interrupt/interrupt_sam_nvic.h **** 	return flags;
 156:/home/torbjorn/eclipse-workspace/CoreNG/asf/common/utils/interrupt/interrupt_sam_nvic.h **** }
 157:/home/torbjorn/eclipse-workspace/CoreNG/asf/common/utils/interrupt/interrupt_sam_nvic.h **** 
 158:/home/torbjorn/eclipse-workspace/CoreNG/asf/common/utils/interrupt/interrupt_sam_nvic.h **** static inline bool cpu_irq_is_enabled_flags(irqflags_t flags)
 159:/home/torbjorn/eclipse-workspace/CoreNG/asf/common/utils/interrupt/interrupt_sam_nvic.h **** {
 160:/home/torbjorn/eclipse-workspace/CoreNG/asf/common/utils/interrupt/interrupt_sam_nvic.h **** 	return (flags);
 161:/home/torbjorn/eclipse-workspace/CoreNG/asf/common/utils/interrupt/interrupt_sam_nvic.h **** }
 162:/home/torbjorn/eclipse-workspace/CoreNG/asf/common/utils/interrupt/interrupt_sam_nvic.h **** 
 163:/home/torbjorn/eclipse-workspace/CoreNG/asf/common/utils/interrupt/interrupt_sam_nvic.h **** static inline void cpu_irq_restore(irqflags_t flags)
 164:/home/torbjorn/eclipse-workspace/CoreNG/asf/common/utils/interrupt/interrupt_sam_nvic.h **** {
 165:/home/torbjorn/eclipse-workspace/CoreNG/asf/common/utils/interrupt/interrupt_sam_nvic.h **** 	if (cpu_irq_is_enabled_flags(flags))
 148              		.loc 4 165 0
 149 0016 23B9     		cbnz	r3, .L8
 166:/home/torbjorn/eclipse-workspace/CoreNG/asf/common/utils/interrupt/interrupt_sam_nvic.h **** 		cpu_irq_enable();
 150              		.loc 4 166 0
 151 0018 0123     		movs	r3, #1
 152 001a 1370     		strb	r3, [r2]
 153              	.LBB44:
 154              	.LBB45:
 155              		.loc 3 456 0
 156              		.syntax unified
 157              	@ 456 "/home/torbjorn/eclipse-workspace/CoreNG/asf/thirdparty/CMSIS/Include/core_cmInstr.h" 1
 158 001c BFF35F8F 		dmb
 159              	@ 0 "" 2
 160              		.thumb
 161              		.syntax unified
 162              	.LBE45:
 163              	.LBE44:
 164              	.LBB46:
 165              	.LBB47:
 319:/home/torbjorn/eclipse-workspace/CoreNG/asf/thirdparty/CMSIS/Include/core_cmFunc.h **** }
 166              		.loc 2 319 0
 167              		.syntax unified
 168              	@ 319 "/home/torbjorn/eclipse-workspace/CoreNG/asf/thirdparty/CMSIS/Include/core_cmFunc.h" 1
 169 0020 62B6     		cpsie i
 170              	@ 0 "" 2
 171              		.thumb
 172              		.syntax unified
 173              	.L8:
 174              	.LBE47:
 175              	.LBE46:
 176              	.LBE43:
 177              	.LBE42:
ARM GAS  /tmp/ccTuq0hs.s 			page 24


  41:../cores/arduino/wiring.c **** 	cpu_irq_restore(flags);
  42:../cores/arduino/wiring.c **** 	return ret;
  43:../cores/arduino/wiring.c **** }
 178              		.loc 1 43 0
 179 0022 7047     		bx	lr
 180              	.L11:
 181              		.align	2
 182              	.L10:
 183 0024 00000000 		.word	g_interrupt_enabled
 184 0028 00000000 		.word	.LANCHOR0
 185              		.cfi_endproc
 186              	.LFE229:
 187              		.size	millis64, .-millis64
 188              		.section	.text.coreDelay,"ax",%progbits
 189              		.align	1
 190              		.p2align 2,,3
 191              		.global	coreDelay
 192              		.syntax unified
 193              		.thumb
 194              		.thumb_func
 195              		.fpu fpv5-d16
 196              		.type	coreDelay, %function
 197              	coreDelay:
 198              	.LFB230:
  44:../cores/arduino/wiring.c **** 
  45:../cores/arduino/wiring.c **** #if 0
  46:../cores/arduino/wiring.c **** 
  47:../cores/arduino/wiring.c **** // Interrupt-compatible version of micros
  48:../cores/arduino/wiring.c **** // Theory: repeatedly take readings of SysTick counter, millis counter and SysTick interrupt pendin
  49:../cores/arduino/wiring.c **** // When it appears that millis counter and pending is stable and SysTick hasn't rolled over, use th
  50:../cores/arduino/wiring.c **** // values to calculate micros. If there is a pending SysTick, add one to the millis counter in the 
  51:../cores/arduino/wiring.c **** // DC 2018-05-28: The return value from this is NOT RELIABLE if it is called while a system tick is
  52:../cores/arduino/wiring.c **** // I think the reason is that if SCB->SHCSR & SCB_SHCSR_SYSTICKACT_Msk indicates that the systick e
  53:../cores/arduino/wiring.c **** // the milliseconds counter may or may not have been incremented yet. So do not use this function! 
  54:../cores/arduino/wiring.c **** uint32_t micros( void )
  55:../cores/arduino/wiring.c **** {
  56:../cores/arduino/wiring.c ****     uint32_t ticks, ticks2;
  57:../cores/arduino/wiring.c ****     uint32_t pend, pend2;
  58:../cores/arduino/wiring.c ****     uint32_t count, count2;
  59:../cores/arduino/wiring.c **** 
  60:../cores/arduino/wiring.c ****     ticks2  = SysTick->VAL;
  61:../cores/arduino/wiring.c ****     pend2   = !!((SCB->ICSR & SCB_ICSR_PENDSTSET_Msk)||((SCB->SHCSR & SCB_SHCSR_SYSTICKACT_Msk)))  
  62:../cores/arduino/wiring.c ****     count2  = (uint32_t)g_ms_ticks;
  63:../cores/arduino/wiring.c **** 
  64:../cores/arduino/wiring.c ****     do {
  65:../cores/arduino/wiring.c ****         ticks=ticks2;
  66:../cores/arduino/wiring.c ****         pend=pend2;
  67:../cores/arduino/wiring.c ****         count=count2;
  68:../cores/arduino/wiring.c ****         ticks2  = SysTick->VAL;
  69:../cores/arduino/wiring.c ****         pend2   = !!((SCB->ICSR & SCB_ICSR_PENDSTSET_Msk)||((SCB->SHCSR & SCB_SHCSR_SYSTICKACT_Msk)
  70:../cores/arduino/wiring.c ****         count2  = (uint32_t)g_ms_ticks;
  71:../cores/arduino/wiring.c ****     } while ((pend != pend2) || (count != count2) || (ticks < ticks2));
  72:../cores/arduino/wiring.c **** 
  73:../cores/arduino/wiring.c ****     return ((count+pend) * 1000) + (((SysTick->LOAD  - ticks)*(1048576/(VARIANT_MCK/1000000)))>>20)
  74:../cores/arduino/wiring.c ****     // this is an optimization to turn a runtime division into two compile-time divisions and 
  75:../cores/arduino/wiring.c ****     // a runtime multiplication and shift, saving a few cycles
  76:../cores/arduino/wiring.c **** }
ARM GAS  /tmp/ccTuq0hs.s 			page 25


  77:../cores/arduino/wiring.c **** 
  78:../cores/arduino/wiring.c **** #endif
  79:../cores/arduino/wiring.c **** 
  80:../cores/arduino/wiring.c **** void coreDelay( uint32_t ms )
  81:../cores/arduino/wiring.c **** {
 199              		.loc 1 81 0
 200              		.cfi_startproc
 201              		@ args = 0, pretend = 0, frame = 0
 202              		@ frame_needed = 0, uses_anonymous_args = 0
 203              	.LVL2:
  82:../cores/arduino/wiring.c ****     if (ms != 0)
 204              		.loc 1 82 0
 205 0000 68B1     		cbz	r0, .L18
  81:../cores/arduino/wiring.c ****     if (ms != 0)
 206              		.loc 1 81 0
 207 0002 70B5     		push	{r4, r5, r6, lr}
 208              		.cfi_def_cfa_offset 16
 209              		.cfi_offset 4, -16
 210              		.cfi_offset 5, -12
 211              		.cfi_offset 6, -8
 212              		.cfi_offset 14, -4
 213              	.LBB48:
  83:../cores/arduino/wiring.c ****     {
  84:../cores/arduino/wiring.c **** 		const uint32_t start = (uint32_t)g_ms_ticks;
 214              		.loc 1 84 0
 215 0004 064E     		ldr	r6, .L21
 216 0006 0446     		mov	r4, r0
 217 0008 D6E90023 		ldrd	r2, [r6]
 218 000c 1546     		mov	r5, r2
 219              	.LVL3:
 220              	.L14:
  85:../cores/arduino/wiring.c **** 		do {
  86:../cores/arduino/wiring.c **** 			yield();
 221              		.loc 1 86 0 discriminator 1
 222 000e FFF7FEFF 		bl	yield
 223              	.LVL4:
  87:../cores/arduino/wiring.c **** 		} while ((uint32_t)g_ms_ticks - start < ms);
 224              		.loc 1 87 0 discriminator 1
 225 0012 D6E90023 		ldrd	r2, [r6]
 226 0016 521B     		subs	r2, r2, r5
 227 0018 9442     		cmp	r4, r2
 228 001a F8D8     		bhi	.L14
 229 001c 70BD     		pop	{r4, r5, r6, pc}
 230              	.LVL5:
 231              	.L18:
 232              		.cfi_def_cfa_offset 0
 233              		.cfi_restore 4
 234              		.cfi_restore 5
 235              		.cfi_restore 6
 236              		.cfi_restore 14
 237 001e 7047     		bx	lr
 238              	.L22:
 239              		.align	2
 240              	.L21:
 241 0020 00000000 		.word	.LANCHOR0
 242              	.LBE48:
 243              		.cfi_endproc
ARM GAS  /tmp/ccTuq0hs.s 			page 26


 244              	.LFE230:
 245              		.size	coreDelay, .-coreDelay
 246              		.section	.bss.cpu_irq_critical_section_counter,"aw",%nobits
 247              		.align	2
 248              		.type	cpu_irq_critical_section_counter, %object
 249              		.size	cpu_irq_critical_section_counter, 4
 250              	cpu_irq_critical_section_counter:
 251 0000 00000000 		.space	4
 252              		.section	.bss.cpu_irq_prev_interrupt_state,"aw",%nobits
 253              		.type	cpu_irq_prev_interrupt_state, %object
 254              		.size	cpu_irq_prev_interrupt_state, 1
 255              	cpu_irq_prev_interrupt_state:
 256 0000 00       		.space	1
 257              		.section	.bss.g_ms_ticks,"aw",%nobits
 258              		.align	3
 259              		.set	.LANCHOR0,. + 0
 260              		.type	g_ms_ticks, %object
 261              		.size	g_ms_ticks, 8
 262              	g_ms_ticks:
 263 0000 00000000 		.space	8
 263      00000000 
 264              		.text
 265              	.Letext0:
 266              		.file 5 "/usr/include/newlib/machine/_default_types.h"
 267              		.file 6 "/usr/include/newlib/sys/_stdint.h"
 268              		.file 7 "/home/torbjorn/eclipse-workspace/CoreNG/asf/thirdparty/CMSIS/Include/core_cm7.h"
 269              		.file 8 "/home/torbjorn/eclipse-workspace/CoreNG/variants/same70/system_same70.h"
 270              		.file 9 "/usr/include/newlib/sys/lock.h"
 271              		.file 10 "/usr/include/newlib/sys/_types.h"
 272              		.file 11 "/usr/lib/gcc/arm-none-eabi/6.3.1/include/stddef.h"
 273              		.file 12 "/usr/include/newlib/sys/reent.h"
 274              		.file 13 "/usr/include/newlib/stdlib.h"
 275              		.file 14 "/usr/include/newlib/math.h"
 276              		.file 15 "../cores/arduino/Core.h"
 277              		.file 16 "/usr/include/newlib/time.h"
 278              		.file 17 "/home/torbjorn/eclipse-workspace/CoreNG/variants/same70/variant.h"