ARM GAS  /tmp/cc6b4z2x.s 			page 1


   1              		.cpu cortex-m7
   2              		.eabi_attribute 28, 1
   3              		.eabi_attribute 20, 1
   4              		.eabi_attribute 21, 1
   5              		.eabi_attribute 23, 3
   6              		.eabi_attribute 24, 1
   7              		.eabi_attribute 25, 1
   8              		.eabi_attribute 26, 1
   9              		.eabi_attribute 30, 2
  10              		.eabi_attribute 34, 1
  11              		.eabi_attribute 18, 4
  12              		.file	"xdmac.c"
  13              		.text
  14              	.Ltext0:
  15              		.cfi_sections	.debug_frame
  16              		.section	.text.xdmac_configure_transfer,"ax",%progbits
  17              		.align	1
  18              		.p2align 2,,3
  19              		.global	xdmac_configure_transfer
  20              		.syntax unified
  21              		.thumb
  22              		.thumb_func
  23              		.fpu fpv5-d16
  24              		.type	xdmac_configure_transfer, %function
  25              	xdmac_configure_transfer:
  26              	.LFB173:
  27              		.file 1 "../asf/sam/drivers/xdmac/xdmac.c"
   1:../asf/sam/drivers/xdmac/xdmac.c **** /**
   2:../asf/sam/drivers/xdmac/xdmac.c ****  * \file
   3:../asf/sam/drivers/xdmac/xdmac.c ****  *
   4:../asf/sam/drivers/xdmac/xdmac.c ****  * \brief SAM XDMA Controller (XDMAC) driver.
   5:../asf/sam/drivers/xdmac/xdmac.c ****  *
   6:../asf/sam/drivers/xdmac/xdmac.c ****  * Copyright (c) 2015 Atmel Corporation. All rights reserved.
   7:../asf/sam/drivers/xdmac/xdmac.c ****  *
   8:../asf/sam/drivers/xdmac/xdmac.c ****  * \asf_license_start
   9:../asf/sam/drivers/xdmac/xdmac.c ****  *
  10:../asf/sam/drivers/xdmac/xdmac.c ****  * \page License
  11:../asf/sam/drivers/xdmac/xdmac.c ****  *
  12:../asf/sam/drivers/xdmac/xdmac.c ****  * Redistribution and use in source and binary forms, with or without
  13:../asf/sam/drivers/xdmac/xdmac.c ****  * modification, are permitted provided that the following conditions are met:
  14:../asf/sam/drivers/xdmac/xdmac.c ****  *
  15:../asf/sam/drivers/xdmac/xdmac.c ****  * 1. Redistributions of source code must retain the above copyright notice,
  16:../asf/sam/drivers/xdmac/xdmac.c ****  *    this list of conditions and the following disclaimer.
  17:../asf/sam/drivers/xdmac/xdmac.c ****  *
  18:../asf/sam/drivers/xdmac/xdmac.c ****  * 2. Redistributions in binary form must reproduce the above copyright notice,
  19:../asf/sam/drivers/xdmac/xdmac.c ****  *    this list of conditions and the following disclaimer in the documentation
  20:../asf/sam/drivers/xdmac/xdmac.c ****  *    and/or other materials provided with the distribution.
  21:../asf/sam/drivers/xdmac/xdmac.c ****  *
  22:../asf/sam/drivers/xdmac/xdmac.c ****  * 3. The name of Atmel may not be used to endorse or promote products derived
  23:../asf/sam/drivers/xdmac/xdmac.c ****  *    from this software without specific prior written permission.
  24:../asf/sam/drivers/xdmac/xdmac.c ****  *
  25:../asf/sam/drivers/xdmac/xdmac.c ****  * 4. This software may only be redistributed and used in connection with an
  26:../asf/sam/drivers/xdmac/xdmac.c ****  *    Atmel microcontroller product.
  27:../asf/sam/drivers/xdmac/xdmac.c ****  *
  28:../asf/sam/drivers/xdmac/xdmac.c ****  * THIS SOFTWARE IS PROVIDED BY ATMEL "AS IS" AND ANY EXPRESS OR IMPLIED
  29:../asf/sam/drivers/xdmac/xdmac.c ****  * WARRANTIES, INCLUDING, BUT NOT LIMITED TO, THE IMPLIED WARRANTIES OF
  30:../asf/sam/drivers/xdmac/xdmac.c ****  * MERCHANTABILITY, FITNESS FOR A PARTICULAR PURPOSE AND NON-INFRINGEMENT ARE
ARM GAS  /tmp/cc6b4z2x.s 			page 2


  31:../asf/sam/drivers/xdmac/xdmac.c ****  * EXPRESSLY AND SPECIFICALLY DISCLAIMED. IN NO EVENT SHALL ATMEL BE LIABLE FOR
  32:../asf/sam/drivers/xdmac/xdmac.c ****  * ANY DIRECT, INDIRECT, INCIDENTAL, SPECIAL, EXEMPLARY, OR CONSEQUENTIAL
  33:../asf/sam/drivers/xdmac/xdmac.c ****  * DAMAGES (INCLUDING, BUT NOT LIMITED TO, PROCUREMENT OF SUBSTITUTE GOODS
  34:../asf/sam/drivers/xdmac/xdmac.c ****  * OR SERVICES; LOSS OF USE, DATA, OR PROFITS; OR BUSINESS INTERRUPTION)
  35:../asf/sam/drivers/xdmac/xdmac.c ****  * HOWEVER CAUSED AND ON ANY THEORY OF LIABILITY, WHETHER IN CONTRACT,
  36:../asf/sam/drivers/xdmac/xdmac.c ****  * STRICT LIABILITY, OR TORT (INCLUDING NEGLIGENCE OR OTHERWISE) ARISING IN
  37:../asf/sam/drivers/xdmac/xdmac.c ****  * ANY WAY OUT OF THE USE OF THIS SOFTWARE, EVEN IF ADVISED OF THE
  38:../asf/sam/drivers/xdmac/xdmac.c ****  * POSSIBILITY OF SUCH DAMAGE.
  39:../asf/sam/drivers/xdmac/xdmac.c ****  *
  40:../asf/sam/drivers/xdmac/xdmac.c ****  * \asf_license_stop
  41:../asf/sam/drivers/xdmac/xdmac.c ****  *
  42:../asf/sam/drivers/xdmac/xdmac.c ****  */
  43:../asf/sam/drivers/xdmac/xdmac.c **** /*
  44:../asf/sam/drivers/xdmac/xdmac.c ****  * Support and FAQ: visit <a href="http://www.atmel.com/design-support/">Atmel Support</a>
  45:../asf/sam/drivers/xdmac/xdmac.c ****  */
  46:../asf/sam/drivers/xdmac/xdmac.c **** 
  47:../asf/sam/drivers/xdmac/xdmac.c **** #include  "xdmac.h"
  48:../asf/sam/drivers/xdmac/xdmac.c **** 
  49:../asf/sam/drivers/xdmac/xdmac.c **** /**
  50:../asf/sam/drivers/xdmac/xdmac.c ****  * \brief Configure DMA for a transfer.
  51:../asf/sam/drivers/xdmac/xdmac.c ****  *
  52:../asf/sam/drivers/xdmac/xdmac.c ****  * \param[out] xdmac Module hardware register base address pointer.
  53:../asf/sam/drivers/xdmac/xdmac.c ****  * \param[in] channel_num The used channel number.
  54:../asf/sam/drivers/xdmac/xdmac.c ****  * \param[in] cfg   The configuration for used channel
  55:../asf/sam/drivers/xdmac/xdmac.c ****  */
  56:../asf/sam/drivers/xdmac/xdmac.c **** void xdmac_configure_transfer(Xdmac *xdmac,
  57:../asf/sam/drivers/xdmac/xdmac.c **** 		uint32_t channel_num, xdmac_channel_config_t *cfg)
  58:../asf/sam/drivers/xdmac/xdmac.c **** {
  28              		.loc 1 58 0
  29              		.cfi_startproc
  30              		@ args = 0, pretend = 0, frame = 0
  31              		@ frame_needed = 0, uses_anonymous_args = 0
  32              	.LVL0:
  33              	.LBB20:
  34              	.LBB21:
  35              		.file 2 "../asf/sam/drivers/xdmac/xdmac.h"
   1:../asf/sam/drivers/xdmac/xdmac.h **** /**
   2:../asf/sam/drivers/xdmac/xdmac.h ****  * \file
   3:../asf/sam/drivers/xdmac/xdmac.h ****  *
   4:../asf/sam/drivers/xdmac/xdmac.h ****  * \brief SAM XDMA Controller (DMAC) driver.
   5:../asf/sam/drivers/xdmac/xdmac.h ****  *
   6:../asf/sam/drivers/xdmac/xdmac.h ****  * Copyright (c) 2015-2016 Atmel Corporation. All rights reserved.
   7:../asf/sam/drivers/xdmac/xdmac.h ****  *
   8:../asf/sam/drivers/xdmac/xdmac.h ****  * \asf_license_start
   9:../asf/sam/drivers/xdmac/xdmac.h ****  *
  10:../asf/sam/drivers/xdmac/xdmac.h ****  * \page License
  11:../asf/sam/drivers/xdmac/xdmac.h ****  *
  12:../asf/sam/drivers/xdmac/xdmac.h ****  * Redistribution and use in source and binary forms, with or without
  13:../asf/sam/drivers/xdmac/xdmac.h ****  * modification, are permitted provided that the following conditions are met:
  14:../asf/sam/drivers/xdmac/xdmac.h ****  *
  15:../asf/sam/drivers/xdmac/xdmac.h ****  * 1. Redistributions of source code must retain the above copyright notice,
  16:../asf/sam/drivers/xdmac/xdmac.h ****  *    this list of conditions and the following disclaimer.
  17:../asf/sam/drivers/xdmac/xdmac.h ****  *
  18:../asf/sam/drivers/xdmac/xdmac.h ****  * 2. Redistributions in binary form must reproduce the above copyright notice,
  19:../asf/sam/drivers/xdmac/xdmac.h ****  *    this list of conditions and the following disclaimer in the documentation
  20:../asf/sam/drivers/xdmac/xdmac.h ****  *    and/or other materials provided with the distribution.
  21:../asf/sam/drivers/xdmac/xdmac.h ****  *
ARM GAS  /tmp/cc6b4z2x.s 			page 3


  22:../asf/sam/drivers/xdmac/xdmac.h ****  * 3. The name of Atmel may not be used to endorse or promote products derived
  23:../asf/sam/drivers/xdmac/xdmac.h ****  *    from this software without specific prior written permission.
  24:../asf/sam/drivers/xdmac/xdmac.h ****  *
  25:../asf/sam/drivers/xdmac/xdmac.h ****  * 4. This software may only be redistributed and used in connection with an
  26:../asf/sam/drivers/xdmac/xdmac.h ****  *    Atmel microcontroller product.
  27:../asf/sam/drivers/xdmac/xdmac.h ****  *
  28:../asf/sam/drivers/xdmac/xdmac.h ****  * THIS SOFTWARE IS PROVIDED BY ATMEL "AS IS" AND ANY EXPRESS OR IMPLIED
  29:../asf/sam/drivers/xdmac/xdmac.h ****  * WARRANTIES, INCLUDING, BUT NOT LIMITED TO, THE IMPLIED WARRANTIES OF
  30:../asf/sam/drivers/xdmac/xdmac.h ****  * MERCHANTABILITY, FITNESS FOR A PARTICULAR PURPOSE AND NON-INFRINGEMENT ARE
  31:../asf/sam/drivers/xdmac/xdmac.h ****  * EXPRESSLY AND SPECIFICALLY DISCLAIMED. IN NO EVENT SHALL ATMEL BE LIABLE FOR
  32:../asf/sam/drivers/xdmac/xdmac.h ****  * ANY DIRECT, INDIRECT, INCIDENTAL, SPECIAL, EXEMPLARY, OR CONSEQUENTIAL
  33:../asf/sam/drivers/xdmac/xdmac.h ****  * DAMAGES (INCLUDING, BUT NOT LIMITED TO, PROCUREMENT OF SUBSTITUTE GOODS
  34:../asf/sam/drivers/xdmac/xdmac.h ****  * OR SERVICES; LOSS OF USE, DATA, OR PROFITS; OR BUSINESS INTERRUPTION)
  35:../asf/sam/drivers/xdmac/xdmac.h ****  * HOWEVER CAUSED AND ON ANY THEORY OF LIABILITY, WHETHER IN CONTRACT,
  36:../asf/sam/drivers/xdmac/xdmac.h ****  * STRICT LIABILITY, OR TORT (INCLUDING NEGLIGENCE OR OTHERWISE) ARISING IN
  37:../asf/sam/drivers/xdmac/xdmac.h ****  * ANY WAY OUT OF THE USE OF THIS SOFTWARE, EVEN IF ADVISED OF THE
  38:../asf/sam/drivers/xdmac/xdmac.h ****  * POSSIBILITY OF SUCH DAMAGE.
  39:../asf/sam/drivers/xdmac/xdmac.h ****  *
  40:../asf/sam/drivers/xdmac/xdmac.h ****  * \asf_license_stop
  41:../asf/sam/drivers/xdmac/xdmac.h ****  *
  42:../asf/sam/drivers/xdmac/xdmac.h ****  */
  43:../asf/sam/drivers/xdmac/xdmac.h **** /*
  44:../asf/sam/drivers/xdmac/xdmac.h ****  * Support and FAQ: visit <a href="http://www.atmel.com/design-support/">Atmel Support</a>
  45:../asf/sam/drivers/xdmac/xdmac.h ****  */
  46:../asf/sam/drivers/xdmac/xdmac.h **** 
  47:../asf/sam/drivers/xdmac/xdmac.h **** #ifndef XDMAC_H_INCLUDED
  48:../asf/sam/drivers/xdmac/xdmac.h **** #define XDMAC_H_INCLUDED
  49:../asf/sam/drivers/xdmac/xdmac.h **** 
  50:../asf/sam/drivers/xdmac/xdmac.h **** /**
  51:../asf/sam/drivers/xdmac/xdmac.h ****  * \defgroup asfdoc_sam_drivers_xdmac_group SAMV71/V70/E70/S70 XDMA Controller (XDMAC) Driver
  52:../asf/sam/drivers/xdmac/xdmac.h ****  *
  53:../asf/sam/drivers/xdmac/xdmac.h ****  * This driver for Atmel&reg; | SMART SAM XDMA Controller (XDMAC) is a AHB-protocol central
  54:../asf/sam/drivers/xdmac/xdmac.h ****  * direct memory access controller. It performs peripheral data transfer and memory move operations
  55:../asf/sam/drivers/xdmac/xdmac.h ****  * over one or two bus ports through the unidirectional communication channel.
  56:../asf/sam/drivers/xdmac/xdmac.h ****  * This is a driver for the configuration, enabling, disabling, and use of the XDMAC peripheral.
  57:../asf/sam/drivers/xdmac/xdmac.h ****  *
  58:../asf/sam/drivers/xdmac/xdmac.h ****  * Devices from the following series can use this module:
  59:../asf/sam/drivers/xdmac/xdmac.h ****  * - Atmel | SMART SAMV71
  60:../asf/sam/drivers/xdmac/xdmac.h ****  * - Atmel | SMART SAMV70
  61:../asf/sam/drivers/xdmac/xdmac.h ****  * - Atmel | SMART SAMS70
  62:../asf/sam/drivers/xdmac/xdmac.h ****  * - Atmel | SMART SAME70
  63:../asf/sam/drivers/xdmac/xdmac.h ****  *
  64:../asf/sam/drivers/xdmac/xdmac.h ****  * The outline of this documentation is as follows:
  65:../asf/sam/drivers/xdmac/xdmac.h ****  *  - \ref asfdoc_sam_drivers_xdmac_prerequisites
  66:../asf/sam/drivers/xdmac/xdmac.h ****  *  - \ref asfdoc_sam_drivers_xdmac_module_overview
  67:../asf/sam/drivers/xdmac/xdmac.h ****  *  - \ref asfdoc_sam_drivers_xdmac_special_considerations
  68:../asf/sam/drivers/xdmac/xdmac.h ****  *  - \ref asfdoc_sam_drivers_xdmac_extra_info
  69:../asf/sam/drivers/xdmac/xdmac.h ****  *  - \ref asfdoc_sam_drivers_xdmac_examples
  70:../asf/sam/drivers/xdmac/xdmac.h ****  *  - \ref asfdoc_sam_drivers_xdmac_api_overview
  71:../asf/sam/drivers/xdmac/xdmac.h ****  *
  72:../asf/sam/drivers/xdmac/xdmac.h ****  *
  73:../asf/sam/drivers/xdmac/xdmac.h ****  * \section asfdoc_sam_drivers_xdmac_prerequisites Prerequisites
  74:../asf/sam/drivers/xdmac/xdmac.h ****  *
  75:../asf/sam/drivers/xdmac/xdmac.h ****  * There are no prerequisites for this module.
  76:../asf/sam/drivers/xdmac/xdmac.h ****  *
  77:../asf/sam/drivers/xdmac/xdmac.h ****  *
  78:../asf/sam/drivers/xdmac/xdmac.h ****  * \section asfdoc_sam_drivers_xdmac_module_overview Module Overview
ARM GAS  /tmp/cc6b4z2x.s 			page 4


  79:../asf/sam/drivers/xdmac/xdmac.h ****  * The DMA Controller (XDMAC) is a AHB-protocol central direct memory access controller.
  80:../asf/sam/drivers/xdmac/xdmac.h ****  * It performs peripheral data transfer and memory move operations over one or two bus ports
  81:../asf/sam/drivers/xdmac/xdmac.h ****  * through the unidirectional communication channel. Each channel is fully programmable and
  82:../asf/sam/drivers/xdmac/xdmac.h ****  * provides both peripheral or memory to memory transfer. The channel features are configurable
  83:../asf/sam/drivers/xdmac/xdmac.h ****  * at implementation time.
  84:../asf/sam/drivers/xdmac/xdmac.h ****  *
  85:../asf/sam/drivers/xdmac/xdmac.h ****  *
  86:../asf/sam/drivers/xdmac/xdmac.h ****  * \section asfdoc_sam_drivers_xdmac_special_considerations Special Considerations
  87:../asf/sam/drivers/xdmac/xdmac.h ****  * There are no special considerations for this module.
  88:../asf/sam/drivers/xdmac/xdmac.h ****  *
  89:../asf/sam/drivers/xdmac/xdmac.h ****  *
  90:../asf/sam/drivers/xdmac/xdmac.h ****  * \section asfdoc_sam_drivers_xdmac_extra_info Extra Information
  91:../asf/sam/drivers/xdmac/xdmac.h ****  *
  92:../asf/sam/drivers/xdmac/xdmac.h ****  * For extra information, see \ref asfdoc_sam_drivers_xdmac_extra. This includes:
  93:../asf/sam/drivers/xdmac/xdmac.h ****  *  - \ref asfdoc_sam_drivers_xdmac_extra_acronyms
  94:../asf/sam/drivers/xdmac/xdmac.h ****  *  - \ref asfdoc_sam_drivers_xdmac_extra_dependencies
  95:../asf/sam/drivers/xdmac/xdmac.h ****  *  - \ref asfdoc_sam_drivers_xdmac_extra_errata
  96:../asf/sam/drivers/xdmac/xdmac.h ****  *  - \ref asfdoc_sam_drivers_xdmac_extra_history
  97:../asf/sam/drivers/xdmac/xdmac.h ****  *
  98:../asf/sam/drivers/xdmac/xdmac.h ****  * \section asfdoc_sam_drivers_xdmac_examples Examples
  99:../asf/sam/drivers/xdmac/xdmac.h ****  *
 100:../asf/sam/drivers/xdmac/xdmac.h ****  * For a list of examples related to this driver, see
 101:../asf/sam/drivers/xdmac/xdmac.h ****  * \ref asfdoc_sam_drivers_xdmac_exqsg.
 102:../asf/sam/drivers/xdmac/xdmac.h ****  *
 103:../asf/sam/drivers/xdmac/xdmac.h ****  *
 104:../asf/sam/drivers/xdmac/xdmac.h ****  * \section asfdoc_sam_drivers_xdmac_api_overview API Overview
 105:../asf/sam/drivers/xdmac/xdmac.h ****  * @{
 106:../asf/sam/drivers/xdmac/xdmac.h ****  */
 107:../asf/sam/drivers/xdmac/xdmac.h **** 
 108:../asf/sam/drivers/xdmac/xdmac.h **** #include  <compiler.h>
 109:../asf/sam/drivers/xdmac/xdmac.h **** #include  <status_codes.h>
 110:../asf/sam/drivers/xdmac/xdmac.h **** 
 111:../asf/sam/drivers/xdmac/xdmac.h **** /** @cond */
 112:../asf/sam/drivers/xdmac/xdmac.h **** /**INDENT-OFF**/
 113:../asf/sam/drivers/xdmac/xdmac.h **** #ifdef __cplusplus
 114:../asf/sam/drivers/xdmac/xdmac.h **** extern "C" {
 115:../asf/sam/drivers/xdmac/xdmac.h **** #endif
 116:../asf/sam/drivers/xdmac/xdmac.h **** /**INDENT-ON**/
 117:../asf/sam/drivers/xdmac/xdmac.h **** /** @endcond */
 118:../asf/sam/drivers/xdmac/xdmac.h **** 
 119:../asf/sam/drivers/xdmac/xdmac.h **** /** DMA channel hardware interface number */
 120:../asf/sam/drivers/xdmac/xdmac.h **** #define XDAMC_CHANNEL_HWID_HSMCI       0
 121:../asf/sam/drivers/xdmac/xdmac.h **** #define XDAMC_CHANNEL_HWID_SPI0_TX     1
 122:../asf/sam/drivers/xdmac/xdmac.h **** #define XDAMC_CHANNEL_HWID_SPI0_RX     2
 123:../asf/sam/drivers/xdmac/xdmac.h **** #define XDAMC_CHANNEL_HWID_SPI1_TX     3
 124:../asf/sam/drivers/xdmac/xdmac.h **** #define XDAMC_CHANNEL_HWID_SPI1_RX     4
 125:../asf/sam/drivers/xdmac/xdmac.h **** #define XDAMC_CHANNEL_HWID_QSPI_TX     5
 126:../asf/sam/drivers/xdmac/xdmac.h **** #define XDAMC_CHANNEL_HWID_QSPI_RX     6
 127:../asf/sam/drivers/xdmac/xdmac.h **** #define XDAMC_CHANNEL_HWID_USART0_TX   7
 128:../asf/sam/drivers/xdmac/xdmac.h **** #define XDAMC_CHANNEL_HWID_USART0_RX   8
 129:../asf/sam/drivers/xdmac/xdmac.h **** #define XDAMC_CHANNEL_HWID_USART1_TX   9
 130:../asf/sam/drivers/xdmac/xdmac.h **** #define XDAMC_CHANNEL_HWID_USART1_RX   10
 131:../asf/sam/drivers/xdmac/xdmac.h **** #define XDAMC_CHANNEL_HWID_USART2_TX   11
 132:../asf/sam/drivers/xdmac/xdmac.h **** #define XDAMC_CHANNEL_HWID_USART2_RX   12
 133:../asf/sam/drivers/xdmac/xdmac.h **** #define XDAMC_CHANNEL_HWID_PWM0        13
 134:../asf/sam/drivers/xdmac/xdmac.h **** #define XDAMC_CHANNEL_HWID_TWIHS0_TX   14
 135:../asf/sam/drivers/xdmac/xdmac.h **** #define XDAMC_CHANNEL_HWID_TWIHS0_RX   15
ARM GAS  /tmp/cc6b4z2x.s 			page 5


 136:../asf/sam/drivers/xdmac/xdmac.h **** #define XDAMC_CHANNEL_HWID_TWIHS1_TX   16
 137:../asf/sam/drivers/xdmac/xdmac.h **** #define XDAMC_CHANNEL_HWID_TWIHS1_RX   17
 138:../asf/sam/drivers/xdmac/xdmac.h **** #define XDAMC_CHANNEL_HWID_TWIHS2_TX   18
 139:../asf/sam/drivers/xdmac/xdmac.h **** #define XDAMC_CHANNEL_HWID_TWIHS2_RX   19
 140:../asf/sam/drivers/xdmac/xdmac.h **** #define XDAMC_CHANNEL_HWID_UART0_TX    20
 141:../asf/sam/drivers/xdmac/xdmac.h **** #define XDAMC_CHANNEL_HWID_UART0_RX    21
 142:../asf/sam/drivers/xdmac/xdmac.h **** #define XDAMC_CHANNEL_HWID_UART1_TX    22
 143:../asf/sam/drivers/xdmac/xdmac.h **** #define XDAMC_CHANNEL_HWID_UART1_RX    23
 144:../asf/sam/drivers/xdmac/xdmac.h **** #define XDAMC_CHANNEL_HWID_UART2_TX    24
 145:../asf/sam/drivers/xdmac/xdmac.h **** #define XDAMC_CHANNEL_HWID_UART2_RX    25
 146:../asf/sam/drivers/xdmac/xdmac.h **** #define XDAMC_CHANNEL_HWID_UART3_TX    26
 147:../asf/sam/drivers/xdmac/xdmac.h **** #define XDAMC_CHANNEL_HWID_UART3_RX    27
 148:../asf/sam/drivers/xdmac/xdmac.h **** #define XDAMC_CHANNEL_HWID_UART4_TX    28
 149:../asf/sam/drivers/xdmac/xdmac.h **** #define XDAMC_CHANNEL_HWID_UART4_RX    29
 150:../asf/sam/drivers/xdmac/xdmac.h **** #define XDAMC_CHANNEL_HWID_DAC         30
 151:../asf/sam/drivers/xdmac/xdmac.h **** #define XDAMC_CHANNEL_HWID_SSC_TX      32
 152:../asf/sam/drivers/xdmac/xdmac.h **** #define XDAMC_CHANNEL_HWID_SSC_RX      33
 153:../asf/sam/drivers/xdmac/xdmac.h **** #define XDAMC_CHANNEL_HWID_PIOA        34
 154:../asf/sam/drivers/xdmac/xdmac.h **** #define XDAMC_CHANNEL_HWID_AFEC0       35
 155:../asf/sam/drivers/xdmac/xdmac.h **** #define XDAMC_CHANNEL_HWID_AFEC1       36
 156:../asf/sam/drivers/xdmac/xdmac.h **** #define XDAMC_CHANNEL_HWID_AES_TX      37
 157:../asf/sam/drivers/xdmac/xdmac.h **** #define XDAMC_CHANNEL_HWID_AES_RX      38
 158:../asf/sam/drivers/xdmac/xdmac.h **** #define XDAMC_CHANNEL_HWID_PWM1        39
 159:../asf/sam/drivers/xdmac/xdmac.h **** #define XDAMC_CHANNEL_HWID_TC0         40
 160:../asf/sam/drivers/xdmac/xdmac.h **** #define XDAMC_CHANNEL_HWID_TC1         41
 161:../asf/sam/drivers/xdmac/xdmac.h **** #define XDAMC_CHANNEL_HWID_TC2         42
 162:../asf/sam/drivers/xdmac/xdmac.h **** #define XDAMC_CHANNEL_HWID_TC3         43
 163:../asf/sam/drivers/xdmac/xdmac.h **** 
 164:../asf/sam/drivers/xdmac/xdmac.h **** /* XDMA_MBR_UBC */
 165:../asf/sam/drivers/xdmac/xdmac.h **** #define   XDMAC_UBC_NDE            (0x1u << 24)
 166:../asf/sam/drivers/xdmac/xdmac.h **** #define   XDMAC_UBC_NDE_FETCH_DIS  (0x0u << 24)
 167:../asf/sam/drivers/xdmac/xdmac.h **** #define   XDMAC_UBC_NDE_FETCH_EN   (0x1u << 24)
 168:../asf/sam/drivers/xdmac/xdmac.h **** #define   XDMAC_UBC_NSEN           (0x1u << 25)
 169:../asf/sam/drivers/xdmac/xdmac.h **** #define   XDMAC_UBC_NSEN_UNCHANGED (0x0u << 25)
 170:../asf/sam/drivers/xdmac/xdmac.h **** #define   XDMAC_UBC_NSEN_UPDATED   (0x1u << 25)
 171:../asf/sam/drivers/xdmac/xdmac.h **** #define   XDMAC_UBC_NDEN           (0x1u << 26)
 172:../asf/sam/drivers/xdmac/xdmac.h **** #define   XDMAC_UBC_NDEN_UNCHANGED (0x0u << 26)
 173:../asf/sam/drivers/xdmac/xdmac.h **** #define   XDMAC_UBC_NDEN_UPDATED   (0x1u << 26)
 174:../asf/sam/drivers/xdmac/xdmac.h **** #define   XDMAC_UBC_NVIEW_Pos      27
 175:../asf/sam/drivers/xdmac/xdmac.h **** #define   XDMAC_UBC_NVIEW_Msk      (0x3u << XDMAC_UBC_NVIEW_Pos)
 176:../asf/sam/drivers/xdmac/xdmac.h **** #define   XDMAC_UBC_NVIEW_NDV0     (0x0u << XDMAC_UBC_NVIEW_Pos)
 177:../asf/sam/drivers/xdmac/xdmac.h **** #define   XDMAC_UBC_NVIEW_NDV1     (0x1u << XDMAC_UBC_NVIEW_Pos)
 178:../asf/sam/drivers/xdmac/xdmac.h **** #define   XDMAC_UBC_NVIEW_NDV2     (0x2u << XDMAC_UBC_NVIEW_Pos)
 179:../asf/sam/drivers/xdmac/xdmac.h **** #define   XDMAC_UBC_NVIEW_NDV3     (0x3u << XDMAC_UBC_NVIEW_Pos)
 180:../asf/sam/drivers/xdmac/xdmac.h **** #define   XDMAC_UBC_UBLEN_Pos 0
 181:../asf/sam/drivers/xdmac/xdmac.h **** #define   XDMAC_UBC_UBLEN_Msk (0xffffffu << XDMAC_UBC_UBLEN_Pos)
 182:../asf/sam/drivers/xdmac/xdmac.h **** #define   XDMAC_UBC_UBLEN(value) ((XDMAC_UBC_UBLEN_Msk & ((value) << XDMAC_UBC_UBLEN_Pos)))
 183:../asf/sam/drivers/xdmac/xdmac.h **** 
 184:../asf/sam/drivers/xdmac/xdmac.h **** /** XDMA config register for channel */
 185:../asf/sam/drivers/xdmac/xdmac.h **** typedef struct {
 186:../asf/sam/drivers/xdmac/xdmac.h **** 	/** Microblock Control Member. */
 187:../asf/sam/drivers/xdmac/xdmac.h **** 	uint32_t mbr_ubc;
 188:../asf/sam/drivers/xdmac/xdmac.h **** 	/** Source Address Member. */
 189:../asf/sam/drivers/xdmac/xdmac.h **** 	uint32_t mbr_sa;
 190:../asf/sam/drivers/xdmac/xdmac.h **** 	/** Destination Address Member. */
 191:../asf/sam/drivers/xdmac/xdmac.h **** 	uint32_t mbr_da;
 192:../asf/sam/drivers/xdmac/xdmac.h **** 	/** Configuration Register. */
ARM GAS  /tmp/cc6b4z2x.s 			page 6


 193:../asf/sam/drivers/xdmac/xdmac.h **** 	uint32_t mbr_cfg;
 194:../asf/sam/drivers/xdmac/xdmac.h **** 	/** Block Control Member. */
 195:../asf/sam/drivers/xdmac/xdmac.h **** 	uint32_t mbr_bc;
 196:../asf/sam/drivers/xdmac/xdmac.h **** 	/** Data Stride Member. */
 197:../asf/sam/drivers/xdmac/xdmac.h **** 	uint32_t mbr_ds;
 198:../asf/sam/drivers/xdmac/xdmac.h **** 	/** Source Microblock Stride Member. */
 199:../asf/sam/drivers/xdmac/xdmac.h **** 	uint32_t mbr_sus;
 200:../asf/sam/drivers/xdmac/xdmac.h **** 	/** Destination Microblock Stride Member. */
 201:../asf/sam/drivers/xdmac/xdmac.h **** 	uint32_t mbr_dus;
 202:../asf/sam/drivers/xdmac/xdmac.h **** } xdmac_channel_config_t;
 203:../asf/sam/drivers/xdmac/xdmac.h **** 
 204:../asf/sam/drivers/xdmac/xdmac.h **** /**
 205:../asf/sam/drivers/xdmac/xdmac.h ****  * \brief Structure for storing parameters for DMA view0 that can be
 206:../asf/sam/drivers/xdmac/xdmac.h ****  * performed by the DMA Master transfer.
 207:../asf/sam/drivers/xdmac/xdmac.h ****  */
 208:../asf/sam/drivers/xdmac/xdmac.h **** typedef struct {
 209:../asf/sam/drivers/xdmac/xdmac.h **** 	/** Next Descriptor Address number. */
 210:../asf/sam/drivers/xdmac/xdmac.h **** 	uint32_t mbr_nda;
 211:../asf/sam/drivers/xdmac/xdmac.h **** 	/** Microblock Control Member. */
 212:../asf/sam/drivers/xdmac/xdmac.h **** 	uint32_t mbr_ubc;
 213:../asf/sam/drivers/xdmac/xdmac.h **** 	/** Destination Address Member. */
 214:../asf/sam/drivers/xdmac/xdmac.h **** 	uint32_t mbr_da;
 215:../asf/sam/drivers/xdmac/xdmac.h **** } lld_view0;
 216:../asf/sam/drivers/xdmac/xdmac.h **** 
 217:../asf/sam/drivers/xdmac/xdmac.h **** /**
 218:../asf/sam/drivers/xdmac/xdmac.h ****  * \brief Structure for storing parameters for DMA view1 that can be
 219:../asf/sam/drivers/xdmac/xdmac.h ****  * performed by the DMA Master transfer.
 220:../asf/sam/drivers/xdmac/xdmac.h ****  */
 221:../asf/sam/drivers/xdmac/xdmac.h **** typedef struct {
 222:../asf/sam/drivers/xdmac/xdmac.h **** 	/** Next Descriptor Address number. */
 223:../asf/sam/drivers/xdmac/xdmac.h **** 	uint32_t mbr_nda;
 224:../asf/sam/drivers/xdmac/xdmac.h **** 	/** Microblock Control Member. */
 225:../asf/sam/drivers/xdmac/xdmac.h **** 	uint32_t mbr_ubc;
 226:../asf/sam/drivers/xdmac/xdmac.h **** 	/** Source Address Member. */
 227:../asf/sam/drivers/xdmac/xdmac.h **** 	uint32_t mbr_sa;
 228:../asf/sam/drivers/xdmac/xdmac.h **** 	/** Destination Address Member. */
 229:../asf/sam/drivers/xdmac/xdmac.h **** 	uint32_t mbr_da;
 230:../asf/sam/drivers/xdmac/xdmac.h **** } lld_view1;
 231:../asf/sam/drivers/xdmac/xdmac.h **** 
 232:../asf/sam/drivers/xdmac/xdmac.h **** /**
 233:../asf/sam/drivers/xdmac/xdmac.h ****  * \brief Structure for storing parameters for DMA view2 that can be
 234:../asf/sam/drivers/xdmac/xdmac.h ****  * performed by the DMA Master transfer.
 235:../asf/sam/drivers/xdmac/xdmac.h ****  */
 236:../asf/sam/drivers/xdmac/xdmac.h **** typedef struct {
 237:../asf/sam/drivers/xdmac/xdmac.h **** 	/** Next Descriptor Address number. */
 238:../asf/sam/drivers/xdmac/xdmac.h **** 	uint32_t mbr_nda;
 239:../asf/sam/drivers/xdmac/xdmac.h **** 	/** Microblock Control Member. */
 240:../asf/sam/drivers/xdmac/xdmac.h **** 	uint32_t mbr_ubc;
 241:../asf/sam/drivers/xdmac/xdmac.h **** 	/** Source Address Member. */
 242:../asf/sam/drivers/xdmac/xdmac.h **** 	uint32_t mbr_sa;
 243:../asf/sam/drivers/xdmac/xdmac.h **** 	/** Destination Address Member. */
 244:../asf/sam/drivers/xdmac/xdmac.h **** 	uint32_t mbr_da;
 245:../asf/sam/drivers/xdmac/xdmac.h **** 	/** Configuration Register. */
 246:../asf/sam/drivers/xdmac/xdmac.h **** 	uint32_t mbr_cfg;
 247:../asf/sam/drivers/xdmac/xdmac.h **** } lld_view2;
 248:../asf/sam/drivers/xdmac/xdmac.h **** 
 249:../asf/sam/drivers/xdmac/xdmac.h **** /**
ARM GAS  /tmp/cc6b4z2x.s 			page 7


 250:../asf/sam/drivers/xdmac/xdmac.h ****  * \brief Structure for storing parameters for DMA view3 that can be
 251:../asf/sam/drivers/xdmac/xdmac.h ****  * performed by the DMA Master transfer.
 252:../asf/sam/drivers/xdmac/xdmac.h ****  */
 253:../asf/sam/drivers/xdmac/xdmac.h **** typedef struct {
 254:../asf/sam/drivers/xdmac/xdmac.h **** 	/** Next Descriptor Address number. */
 255:../asf/sam/drivers/xdmac/xdmac.h **** 	uint32_t mbr_nda;
 256:../asf/sam/drivers/xdmac/xdmac.h **** 	/** Microblock Control Member. */
 257:../asf/sam/drivers/xdmac/xdmac.h **** 	uint32_t mbr_ubc;
 258:../asf/sam/drivers/xdmac/xdmac.h **** 	/** Source Address Member. */
 259:../asf/sam/drivers/xdmac/xdmac.h **** 	uint32_t mbr_sa;
 260:../asf/sam/drivers/xdmac/xdmac.h **** 	/** Destination Address Member. */
 261:../asf/sam/drivers/xdmac/xdmac.h **** 	uint32_t mbr_da;
 262:../asf/sam/drivers/xdmac/xdmac.h **** 	/** Configuration Register. */
 263:../asf/sam/drivers/xdmac/xdmac.h **** 	uint32_t mbr_cfg;
 264:../asf/sam/drivers/xdmac/xdmac.h **** 	/** Block Control Member. */
 265:../asf/sam/drivers/xdmac/xdmac.h **** 	uint32_t mbr_bc;
 266:../asf/sam/drivers/xdmac/xdmac.h **** 	/** Data Stride Member. */
 267:../asf/sam/drivers/xdmac/xdmac.h **** 	uint32_t mbr_ds;
 268:../asf/sam/drivers/xdmac/xdmac.h **** 	/** Source Microblock Stride Member. */
 269:../asf/sam/drivers/xdmac/xdmac.h **** 	uint32_t mbr_sus;
 270:../asf/sam/drivers/xdmac/xdmac.h **** 	/** Destination Microblock Stride Member. */
 271:../asf/sam/drivers/xdmac/xdmac.h **** 	uint32_t mbr_dus;
 272:../asf/sam/drivers/xdmac/xdmac.h **** } lld_view3;
 273:../asf/sam/drivers/xdmac/xdmac.h **** 
 274:../asf/sam/drivers/xdmac/xdmac.h **** /**
 275:../asf/sam/drivers/xdmac/xdmac.h ****  * \brief Get XDMAC global type.
 276:../asf/sam/drivers/xdmac/xdmac.h ****  *
 277:../asf/sam/drivers/xdmac/xdmac.h ****  * \param[out] xdmac Module hardware register base address pointer.
 278:../asf/sam/drivers/xdmac/xdmac.h ****  */
 279:../asf/sam/drivers/xdmac/xdmac.h **** static inline uint32_t xdmac_get_type( Xdmac *xdmac)
 280:../asf/sam/drivers/xdmac/xdmac.h **** {
 281:../asf/sam/drivers/xdmac/xdmac.h **** 	Assert(xdmac);
 282:../asf/sam/drivers/xdmac/xdmac.h **** 	return xdmac->XDMAC_GTYPE;
 283:../asf/sam/drivers/xdmac/xdmac.h **** }
 284:../asf/sam/drivers/xdmac/xdmac.h **** 
 285:../asf/sam/drivers/xdmac/xdmac.h **** /**
 286:../asf/sam/drivers/xdmac/xdmac.h ****  * \brief Get XDMAC global configuration.
 287:../asf/sam/drivers/xdmac/xdmac.h ****  *
 288:../asf/sam/drivers/xdmac/xdmac.h ****  * \param[out] xdmac Module hardware register base address pointer.
 289:../asf/sam/drivers/xdmac/xdmac.h ****  */
 290:../asf/sam/drivers/xdmac/xdmac.h **** static inline uint32_t xdmac_get_config(Xdmac *xdmac)
 291:../asf/sam/drivers/xdmac/xdmac.h **** {
 292:../asf/sam/drivers/xdmac/xdmac.h **** 	Assert(xdmac);
 293:../asf/sam/drivers/xdmac/xdmac.h **** 	return xdmac->XDMAC_GCFG;
 294:../asf/sam/drivers/xdmac/xdmac.h **** }
 295:../asf/sam/drivers/xdmac/xdmac.h **** 
 296:../asf/sam/drivers/xdmac/xdmac.h **** /**
 297:../asf/sam/drivers/xdmac/xdmac.h ****  * \brief Get XDMAC global weighted arbiter configuration.
 298:../asf/sam/drivers/xdmac/xdmac.h ****  *
 299:../asf/sam/drivers/xdmac/xdmac.h ****  * \param[out] xdmac Module hardware register base address pointer.
 300:../asf/sam/drivers/xdmac/xdmac.h ****  */
 301:../asf/sam/drivers/xdmac/xdmac.h **** static inline uint32_t xdmac_get_arbiter(Xdmac *xdmac)
 302:../asf/sam/drivers/xdmac/xdmac.h **** {
 303:../asf/sam/drivers/xdmac/xdmac.h **** 	Assert(xdmac);
 304:../asf/sam/drivers/xdmac/xdmac.h **** 	return xdmac->XDMAC_GWAC;
 305:../asf/sam/drivers/xdmac/xdmac.h **** }
 306:../asf/sam/drivers/xdmac/xdmac.h **** 
ARM GAS  /tmp/cc6b4z2x.s 			page 8


 307:../asf/sam/drivers/xdmac/xdmac.h **** /**
 308:../asf/sam/drivers/xdmac/xdmac.h ****  * \brief Enables XDMAC global interrupt.
 309:../asf/sam/drivers/xdmac/xdmac.h ****  *
 310:../asf/sam/drivers/xdmac/xdmac.h ****  * \param[out] xdmac Module hardware register base address pointer.
 311:../asf/sam/drivers/xdmac/xdmac.h ****  * \param[in] channel_num  XDMA Channel number (range 0 to 23).
 312:../asf/sam/drivers/xdmac/xdmac.h ****  */
 313:../asf/sam/drivers/xdmac/xdmac.h **** static inline void xdmac_enable_interrupt(Xdmac *xdmac, uint32_t channel_num)
 314:../asf/sam/drivers/xdmac/xdmac.h **** {
 315:../asf/sam/drivers/xdmac/xdmac.h **** 	Assert(xdmac);
 316:../asf/sam/drivers/xdmac/xdmac.h **** 	xdmac->XDMAC_GIE = ( XDMAC_GIE_IE0 << channel_num) ;
 317:../asf/sam/drivers/xdmac/xdmac.h **** }
 318:../asf/sam/drivers/xdmac/xdmac.h **** 
 319:../asf/sam/drivers/xdmac/xdmac.h **** /**
 320:../asf/sam/drivers/xdmac/xdmac.h ****  * \brief Disables XDMAC global interrupt
 321:../asf/sam/drivers/xdmac/xdmac.h ****  *
 322:../asf/sam/drivers/xdmac/xdmac.h ****  * \param[out] xdmac Module hardware register base address pointer.
 323:../asf/sam/drivers/xdmac/xdmac.h ****  * \param[in] channel_num  XDMA Channel number (range 0 to 23).
 324:../asf/sam/drivers/xdmac/xdmac.h ****  */
 325:../asf/sam/drivers/xdmac/xdmac.h **** static inline void xdmac_disable_interrupt(Xdmac *xdmac, uint32_t channel_num)
 326:../asf/sam/drivers/xdmac/xdmac.h **** {
 327:../asf/sam/drivers/xdmac/xdmac.h **** 	Assert(xdmac);
 328:../asf/sam/drivers/xdmac/xdmac.h **** 	xdmac->XDMAC_GID = (XDMAC_GID_ID0 << channel_num);
 329:../asf/sam/drivers/xdmac/xdmac.h **** }
 330:../asf/sam/drivers/xdmac/xdmac.h **** 
 331:../asf/sam/drivers/xdmac/xdmac.h **** /**
 332:../asf/sam/drivers/xdmac/xdmac.h ****  * \brief Get XDMAC global interrupt mask.
 333:../asf/sam/drivers/xdmac/xdmac.h ****  *
 334:../asf/sam/drivers/xdmac/xdmac.h ****  * \param[out] xdmac Module hardware register base address pointer.
 335:../asf/sam/drivers/xdmac/xdmac.h ****  */
 336:../asf/sam/drivers/xdmac/xdmac.h **** static inline uint32_t xdmac_get_interrupt_mask(Xdmac *xdmac)
 337:../asf/sam/drivers/xdmac/xdmac.h **** {
 338:../asf/sam/drivers/xdmac/xdmac.h **** 	Assert(xdmac);
 339:../asf/sam/drivers/xdmac/xdmac.h **** 	return (xdmac->XDMAC_GIM);
 340:../asf/sam/drivers/xdmac/xdmac.h **** }
 341:../asf/sam/drivers/xdmac/xdmac.h **** 
 342:../asf/sam/drivers/xdmac/xdmac.h **** /**
 343:../asf/sam/drivers/xdmac/xdmac.h ****  * \brief Get XDMAC global interrupt status.
 344:../asf/sam/drivers/xdmac/xdmac.h ****  *
 345:../asf/sam/drivers/xdmac/xdmac.h ****  * \param[out] xdmac Module hardware register base address pointer.
 346:../asf/sam/drivers/xdmac/xdmac.h ****  */
 347:../asf/sam/drivers/xdmac/xdmac.h **** static inline uint32_t xdmac_get_interrupt_status(Xdmac *xdmac)
 348:../asf/sam/drivers/xdmac/xdmac.h **** {
 349:../asf/sam/drivers/xdmac/xdmac.h **** 	Assert(xdmac);
 350:../asf/sam/drivers/xdmac/xdmac.h **** 	return (xdmac->XDMAC_GIS);
 351:../asf/sam/drivers/xdmac/xdmac.h **** }
 352:../asf/sam/drivers/xdmac/xdmac.h **** 
 353:../asf/sam/drivers/xdmac/xdmac.h **** /**
 354:../asf/sam/drivers/xdmac/xdmac.h ****  * \brief enables the relevant channel of given XDMAC.
 355:../asf/sam/drivers/xdmac/xdmac.h ****  *
 356:../asf/sam/drivers/xdmac/xdmac.h ****  * \param[out] xdmac Module hardware register base address pointer.
 357:../asf/sam/drivers/xdmac/xdmac.h ****  * \param[in]  channel_num  XDMA Channel number (range 0 to 23)
 358:../asf/sam/drivers/xdmac/xdmac.h ****  */
 359:../asf/sam/drivers/xdmac/xdmac.h **** static inline void xdmac_channel_enable(Xdmac *xdmac, uint32_t channel_num)
 360:../asf/sam/drivers/xdmac/xdmac.h **** {
 361:../asf/sam/drivers/xdmac/xdmac.h **** 	Assert(xdmac);
 362:../asf/sam/drivers/xdmac/xdmac.h **** 	Assert(channel_num < XDMACCHID_NUMBER);
 363:../asf/sam/drivers/xdmac/xdmac.h **** 	
ARM GAS  /tmp/cc6b4z2x.s 			page 9


 364:../asf/sam/drivers/xdmac/xdmac.h **** #if 0	// chrishamm: This causes occasional hard faults. Not good
 365:../asf/sam/drivers/xdmac/xdmac.h **** 	/* Update DCache before DMA transmit */
 366:../asf/sam/drivers/xdmac/xdmac.h **** 	SCB_CleanInvalidateDCache();
 367:../asf/sam/drivers/xdmac/xdmac.h **** #endif
 368:../asf/sam/drivers/xdmac/xdmac.h **** 	
 369:../asf/sam/drivers/xdmac/xdmac.h **** 	xdmac->XDMAC_GE = (XDMAC_GE_EN0 << channel_num);
 370:../asf/sam/drivers/xdmac/xdmac.h **** }
 371:../asf/sam/drivers/xdmac/xdmac.h **** 
 372:../asf/sam/drivers/xdmac/xdmac.h **** /**
 373:../asf/sam/drivers/xdmac/xdmac.h ****  * \brief Disables the relevant channel of given XDMAC.
 374:../asf/sam/drivers/xdmac/xdmac.h ****  *
 375:../asf/sam/drivers/xdmac/xdmac.h ****  * \param[out] xdmac Module hardware register base address pointer.
 376:../asf/sam/drivers/xdmac/xdmac.h ****  * \param[in]  channel_num  XDMA Channel number (range 0 to 23)
 377:../asf/sam/drivers/xdmac/xdmac.h ****  */
 378:../asf/sam/drivers/xdmac/xdmac.h **** static inline void xdmac_channel_disable(Xdmac *xdmac, uint32_t channel_num)
 379:../asf/sam/drivers/xdmac/xdmac.h **** {
 380:../asf/sam/drivers/xdmac/xdmac.h **** 	Assert(xdmac);
 381:../asf/sam/drivers/xdmac/xdmac.h **** 	Assert(channel_num < XDMACCHID_NUMBER);
 382:../asf/sam/drivers/xdmac/xdmac.h **** 	xdmac->XDMAC_GD =(XDMAC_GD_DI0 << channel_num);
 383:../asf/sam/drivers/xdmac/xdmac.h **** }
 384:../asf/sam/drivers/xdmac/xdmac.h **** 
 385:../asf/sam/drivers/xdmac/xdmac.h **** /**
 386:../asf/sam/drivers/xdmac/xdmac.h ****  * \brief Get Global channel status of given XDMAC.
 387:../asf/sam/drivers/xdmac/xdmac.h ****  * \note: When set to 1, this bit indicates that the channel x is enabled.
 388:../asf/sam/drivers/xdmac/xdmac.h ****           If a channel disable request is issued, this bit remains asserted
 389:../asf/sam/drivers/xdmac/xdmac.h ****           until pending transaction is completed.
 390:../asf/sam/drivers/xdmac/xdmac.h ****  * \param[out] xdmac Module hardware register base address pointer.
 391:../asf/sam/drivers/xdmac/xdmac.h ****  */
 392:../asf/sam/drivers/xdmac/xdmac.h **** static inline uint32_t xdmac_channel_get_status(Xdmac *xdmac)
 393:../asf/sam/drivers/xdmac/xdmac.h **** {
 394:../asf/sam/drivers/xdmac/xdmac.h **** 	Assert(xdmac);
 395:../asf/sam/drivers/xdmac/xdmac.h **** 	return xdmac->XDMAC_GS;
 396:../asf/sam/drivers/xdmac/xdmac.h **** }
 397:../asf/sam/drivers/xdmac/xdmac.h **** 
 398:../asf/sam/drivers/xdmac/xdmac.h **** /**
 399:../asf/sam/drivers/xdmac/xdmac.h ****  * \brief Suspend the relevant channel's read.
 400:../asf/sam/drivers/xdmac/xdmac.h ****  *
 401:../asf/sam/drivers/xdmac/xdmac.h ****  * \param[out] xdmac Module hardware register base address pointer.
 402:../asf/sam/drivers/xdmac/xdmac.h ****  * \param[in] channel_num  XDMA Channel number (range 0 to 23).
 403:../asf/sam/drivers/xdmac/xdmac.h ****  */
 404:../asf/sam/drivers/xdmac/xdmac.h **** static inline void xdmac_channel_read_suspend(Xdmac *xdmac, uint32_t channel_num)
 405:../asf/sam/drivers/xdmac/xdmac.h **** {
 406:../asf/sam/drivers/xdmac/xdmac.h **** 	Assert(xdmac);
 407:../asf/sam/drivers/xdmac/xdmac.h **** 	Assert(channel_num < XDMACCHID_NUMBER);
 408:../asf/sam/drivers/xdmac/xdmac.h **** 	xdmac->XDMAC_GRS |= XDMAC_GRS_RS0 << channel_num;
 409:../asf/sam/drivers/xdmac/xdmac.h **** }
 410:../asf/sam/drivers/xdmac/xdmac.h **** 
 411:../asf/sam/drivers/xdmac/xdmac.h **** /**
 412:../asf/sam/drivers/xdmac/xdmac.h ****  * \brief Suspend the relevant channel's write.
 413:../asf/sam/drivers/xdmac/xdmac.h ****  *
 414:../asf/sam/drivers/xdmac/xdmac.h ****  * \param[out] xdmac Module hardware register base address pointer.
 415:../asf/sam/drivers/xdmac/xdmac.h ****  * \param[in] channel_num  XDMA Channel number (range 0 to 23).
 416:../asf/sam/drivers/xdmac/xdmac.h ****  */
 417:../asf/sam/drivers/xdmac/xdmac.h **** static inline void xdmac_channel_write_suspend(Xdmac *xdmac, uint32_t channel_num)
 418:../asf/sam/drivers/xdmac/xdmac.h **** {
 419:../asf/sam/drivers/xdmac/xdmac.h **** 	Assert(xdmac);
 420:../asf/sam/drivers/xdmac/xdmac.h **** 	Assert(channel_num < XDMACCHID_NUMBER);
ARM GAS  /tmp/cc6b4z2x.s 			page 10


 421:../asf/sam/drivers/xdmac/xdmac.h **** 	xdmac->XDMAC_GWS |= XDMAC_GWS_WS0 << channel_num;
 422:../asf/sam/drivers/xdmac/xdmac.h **** }
 423:../asf/sam/drivers/xdmac/xdmac.h **** 
 424:../asf/sam/drivers/xdmac/xdmac.h **** /**
 425:../asf/sam/drivers/xdmac/xdmac.h ****  * \brief Suspend the relevant channel's read & write.
 426:../asf/sam/drivers/xdmac/xdmac.h ****  *
 427:../asf/sam/drivers/xdmac/xdmac.h ****  * \param[out] xdmac Module hardware register base address pointer.
 428:../asf/sam/drivers/xdmac/xdmac.h ****  * \param[in] channel_num  XDMA Channel number (range 0 to 23).
 429:../asf/sam/drivers/xdmac/xdmac.h ****  */
 430:../asf/sam/drivers/xdmac/xdmac.h **** static inline void xdmac_channel_readwrite_suspend(Xdmac *xdmac, uint32_t channel_num)
 431:../asf/sam/drivers/xdmac/xdmac.h **** {
 432:../asf/sam/drivers/xdmac/xdmac.h **** 	Assert(xdmac);
 433:../asf/sam/drivers/xdmac/xdmac.h **** 	Assert(channel_num < XDMACCHID_NUMBER);
 434:../asf/sam/drivers/xdmac/xdmac.h **** 	xdmac->XDMAC_GRWS = (XDMAC_GRWS_RWS0 << channel_num);
 435:../asf/sam/drivers/xdmac/xdmac.h **** }
 436:../asf/sam/drivers/xdmac/xdmac.h **** 
 437:../asf/sam/drivers/xdmac/xdmac.h **** /**
 438:../asf/sam/drivers/xdmac/xdmac.h ****  * \brief Resume the relevant channel's read & write.
 439:../asf/sam/drivers/xdmac/xdmac.h ****  *
 440:../asf/sam/drivers/xdmac/xdmac.h ****  * \param[out] xdmac Module hardware register base address pointer.
 441:../asf/sam/drivers/xdmac/xdmac.h ****  * \param[in] channel_num  XDMA Channel number (range 0 to 23).
 442:../asf/sam/drivers/xdmac/xdmac.h ****  */
 443:../asf/sam/drivers/xdmac/xdmac.h **** static inline void xdmac_channel_readwrite_resume(Xdmac *xdmac, uint32_t channel_num)
 444:../asf/sam/drivers/xdmac/xdmac.h **** {
 445:../asf/sam/drivers/xdmac/xdmac.h **** 	Assert(xdmac);
 446:../asf/sam/drivers/xdmac/xdmac.h **** 	Assert(channel_num < XDMACCHID_NUMBER);
 447:../asf/sam/drivers/xdmac/xdmac.h **** 	xdmac->XDMAC_GRWR = (XDMAC_GRWR_RWR0 << channel_num);
 448:../asf/sam/drivers/xdmac/xdmac.h **** }
 449:../asf/sam/drivers/xdmac/xdmac.h **** 
 450:../asf/sam/drivers/xdmac/xdmac.h **** /**
 451:../asf/sam/drivers/xdmac/xdmac.h ****  * \brief Set software transfer request on the relevant channel.
 452:../asf/sam/drivers/xdmac/xdmac.h ****  *
 453:../asf/sam/drivers/xdmac/xdmac.h ****  * \param[out] xdmac Module hardware register base address pointer.
 454:../asf/sam/drivers/xdmac/xdmac.h ****  * \param[in] channel_num  XDMA Channel number (range 0 to 23).
 455:../asf/sam/drivers/xdmac/xdmac.h ****  */
 456:../asf/sam/drivers/xdmac/xdmac.h **** static inline void xdmac_channel_software_request(Xdmac *xdmac, uint32_t channel_num)
 457:../asf/sam/drivers/xdmac/xdmac.h **** {
 458:../asf/sam/drivers/xdmac/xdmac.h **** 	Assert(xdmac);
 459:../asf/sam/drivers/xdmac/xdmac.h **** 	Assert(channel_num < XDMACCHID_NUMBER);
 460:../asf/sam/drivers/xdmac/xdmac.h **** 	xdmac->XDMAC_GSWR = (XDMAC_GSWR_SWREQ0 << channel_num);
 461:../asf/sam/drivers/xdmac/xdmac.h **** }
 462:../asf/sam/drivers/xdmac/xdmac.h **** 
 463:../asf/sam/drivers/xdmac/xdmac.h **** /**
 464:../asf/sam/drivers/xdmac/xdmac.h ****  * \brief Get software transfer status of the relevant channel.
 465:../asf/sam/drivers/xdmac/xdmac.h ****  *
 466:../asf/sam/drivers/xdmac/xdmac.h ****  * \param[out] xdmac Module hardware register base address pointer.
 467:../asf/sam/drivers/xdmac/xdmac.h ****  */
 468:../asf/sam/drivers/xdmac/xdmac.h **** static inline uint32_t xdmac_get_software_request_status(Xdmac *xdmac)
 469:../asf/sam/drivers/xdmac/xdmac.h **** {
 470:../asf/sam/drivers/xdmac/xdmac.h **** 	Assert(xdmac);
 471:../asf/sam/drivers/xdmac/xdmac.h **** 	return xdmac->XDMAC_GSWS;
 472:../asf/sam/drivers/xdmac/xdmac.h **** }
 473:../asf/sam/drivers/xdmac/xdmac.h **** 
 474:../asf/sam/drivers/xdmac/xdmac.h **** /**
 475:../asf/sam/drivers/xdmac/xdmac.h ****  * \brief Enable interrupt with mask on the relevant channel of given XDMA.
 476:../asf/sam/drivers/xdmac/xdmac.h ****  *
 477:../asf/sam/drivers/xdmac/xdmac.h ****  * \param[out] xdmac Module hardware register base address pointer.
ARM GAS  /tmp/cc6b4z2x.s 			page 11


 478:../asf/sam/drivers/xdmac/xdmac.h ****  * \param[in] channel_num  XDMA Channel number (range 0 to 23).
 479:../asf/sam/drivers/xdmac/xdmac.h ****  * \param[in] mask Interrupt mask.
 480:../asf/sam/drivers/xdmac/xdmac.h ****  */
 481:../asf/sam/drivers/xdmac/xdmac.h **** static inline void xdmac_channel_enable_interrupt(Xdmac *xdmac, uint32_t channel_num, uint32_t mask
 482:../asf/sam/drivers/xdmac/xdmac.h **** {
 483:../asf/sam/drivers/xdmac/xdmac.h **** 	Assert(xdmac);
 484:../asf/sam/drivers/xdmac/xdmac.h **** 	Assert(channel_num < XDMACCHID_NUMBER);
 485:../asf/sam/drivers/xdmac/xdmac.h **** 	xdmac->XDMAC_CHID[channel_num].XDMAC_CIE = mask;
 486:../asf/sam/drivers/xdmac/xdmac.h **** }
 487:../asf/sam/drivers/xdmac/xdmac.h **** 
 488:../asf/sam/drivers/xdmac/xdmac.h **** /**
 489:../asf/sam/drivers/xdmac/xdmac.h ****  * \brief Disable interrupt with mask on the relevant channel of given XDMA.
 490:../asf/sam/drivers/xdmac/xdmac.h ****  *
 491:../asf/sam/drivers/xdmac/xdmac.h ****  * \param[out] xdmac Module hardware register base address pointer.
 492:../asf/sam/drivers/xdmac/xdmac.h ****  * \param[in] channel_num  XDMA Channel number (range 0 to 23).
 493:../asf/sam/drivers/xdmac/xdmac.h ****  * \param[in] mask Interrupt mask.
 494:../asf/sam/drivers/xdmac/xdmac.h ****  */
 495:../asf/sam/drivers/xdmac/xdmac.h **** static inline void xdmac_channel_disable_interrupt(Xdmac *xdmac, uint32_t channel_num, uint32_t mas
 496:../asf/sam/drivers/xdmac/xdmac.h **** {
 497:../asf/sam/drivers/xdmac/xdmac.h **** 	Assert(xdmac);
 498:../asf/sam/drivers/xdmac/xdmac.h **** 	Assert(channel_num < XDMACCHID_NUMBER);
 499:../asf/sam/drivers/xdmac/xdmac.h **** 	xdmac->XDMAC_CHID[channel_num].XDMAC_CID = mask;
 500:../asf/sam/drivers/xdmac/xdmac.h **** }
 501:../asf/sam/drivers/xdmac/xdmac.h **** 
 502:../asf/sam/drivers/xdmac/xdmac.h **** /**
 503:../asf/sam/drivers/xdmac/xdmac.h ****  * \brief Get interrupt mask for the relevant channel of given XDMA.
 504:../asf/sam/drivers/xdmac/xdmac.h ****  *
 505:../asf/sam/drivers/xdmac/xdmac.h ****  * \param[out] xdmac Module hardware register base address pointer.
 506:../asf/sam/drivers/xdmac/xdmac.h ****  * \param[in] channel_num  XDMA Channel number (range 0 to 23).
 507:../asf/sam/drivers/xdmac/xdmac.h ****  */
 508:../asf/sam/drivers/xdmac/xdmac.h **** static inline uint32_t xdmac_channel_get_interrupt_mask(Xdmac *xdmac, uint32_t channel_num)
 509:../asf/sam/drivers/xdmac/xdmac.h **** {
 510:../asf/sam/drivers/xdmac/xdmac.h **** 	Assert(xdmac);
 511:../asf/sam/drivers/xdmac/xdmac.h **** 	Assert(channel_num < XDMACCHID_NUMBER);
 512:../asf/sam/drivers/xdmac/xdmac.h **** 	return xdmac->XDMAC_CHID[channel_num].XDMAC_CIM;
 513:../asf/sam/drivers/xdmac/xdmac.h **** }
 514:../asf/sam/drivers/xdmac/xdmac.h **** 
 515:../asf/sam/drivers/xdmac/xdmac.h **** /**
 516:../asf/sam/drivers/xdmac/xdmac.h ****  * \brief Get interrupt status for the relevant channel of given XDMA.
 517:../asf/sam/drivers/xdmac/xdmac.h ****  *
 518:../asf/sam/drivers/xdmac/xdmac.h ****  * \param[out] xdmac Module hardware register base address pointer.
 519:../asf/sam/drivers/xdmac/xdmac.h ****  * \param[in] channel_num  XDMA Channel number (range 0 to 23).
 520:../asf/sam/drivers/xdmac/xdmac.h ****  */
 521:../asf/sam/drivers/xdmac/xdmac.h **** static inline uint32_t xdmac_channel_get_interrupt_status(Xdmac *xdmac, uint32_t channel_num)
 522:../asf/sam/drivers/xdmac/xdmac.h **** {
 523:../asf/sam/drivers/xdmac/xdmac.h **** 	Assert(xdmac);
 524:../asf/sam/drivers/xdmac/xdmac.h **** 	Assert(channel_num < XDMACCHID_NUMBER);
 525:../asf/sam/drivers/xdmac/xdmac.h **** 	return xdmac->XDMAC_CHID[channel_num].XDMAC_CIS;
 526:../asf/sam/drivers/xdmac/xdmac.h **** }
 527:../asf/sam/drivers/xdmac/xdmac.h **** 
 528:../asf/sam/drivers/xdmac/xdmac.h **** /**
 529:../asf/sam/drivers/xdmac/xdmac.h ****  * \brief Set software flush request on the relevant channel.
 530:../asf/sam/drivers/xdmac/xdmac.h ****  *
 531:../asf/sam/drivers/xdmac/xdmac.h ****  * \param[out] xdmac Module hardware register base address pointer.
 532:../asf/sam/drivers/xdmac/xdmac.h ****  * \param[in] channel_num  XDMA Channel number (range 0 to 23).
 533:../asf/sam/drivers/xdmac/xdmac.h ****  */
 534:../asf/sam/drivers/xdmac/xdmac.h **** static inline void xdmac_channel_software_flush_request(Xdmac *xdmac, uint32_t channel_num)
ARM GAS  /tmp/cc6b4z2x.s 			page 12


 535:../asf/sam/drivers/xdmac/xdmac.h **** {
 536:../asf/sam/drivers/xdmac/xdmac.h **** 	Assert(xdmac);
 537:../asf/sam/drivers/xdmac/xdmac.h **** 	Assert(channel_num < XDMACCHID_NUMBER);
 538:../asf/sam/drivers/xdmac/xdmac.h **** 	xdmac->XDMAC_GSWF = (XDMAC_GSWF_SWF0 << channel_num);
 539:../asf/sam/drivers/xdmac/xdmac.h **** 	while( !(xdmac_channel_get_interrupt_status(xdmac, channel_num) & XDMAC_CIS_FIS) );
 540:../asf/sam/drivers/xdmac/xdmac.h **** }
 541:../asf/sam/drivers/xdmac/xdmac.h **** 
 542:../asf/sam/drivers/xdmac/xdmac.h **** /**
 543:../asf/sam/drivers/xdmac/xdmac.h ****  * \brief Set source address for the relevant channel of given XDMA.
 544:../asf/sam/drivers/xdmac/xdmac.h ****  *
 545:../asf/sam/drivers/xdmac/xdmac.h ****  * \param[out] xdmac Module hardware register base address pointer
 546:../asf/sam/drivers/xdmac/xdmac.h ****  * \param[in] channel_num  DMA Channel number (range 0 to 23)
 547:../asf/sam/drivers/xdmac/xdmac.h ****  * \param[in] src_addr Source address
 548:../asf/sam/drivers/xdmac/xdmac.h ****  */
 549:../asf/sam/drivers/xdmac/xdmac.h **** static inline void xdmac_channel_set_source_addr(Xdmac *xdmac, uint32_t channel_num, uint32_t src_a
 550:../asf/sam/drivers/xdmac/xdmac.h **** {
 551:../asf/sam/drivers/xdmac/xdmac.h **** 	Assert(xdmac);
 552:../asf/sam/drivers/xdmac/xdmac.h **** 	Assert(channel_num < XDMACCHID_NUMBER);
 553:../asf/sam/drivers/xdmac/xdmac.h **** 	xdmac->XDMAC_CHID[channel_num].XDMAC_CSA = src_addr;
 554:../asf/sam/drivers/xdmac/xdmac.h **** }
 555:../asf/sam/drivers/xdmac/xdmac.h **** 
 556:../asf/sam/drivers/xdmac/xdmac.h **** /**
 557:../asf/sam/drivers/xdmac/xdmac.h ****  * \brief Set destination address for the relevant channel of given XDMA.
 558:../asf/sam/drivers/xdmac/xdmac.h ****  *
 559:../asf/sam/drivers/xdmac/xdmac.h ****  * \param[out] xdmac Module hardware register base address pointer
 560:../asf/sam/drivers/xdmac/xdmac.h ****  * \param[in] channel_num  DMA Channel number (range 0 to 23)
 561:../asf/sam/drivers/xdmac/xdmac.h ****  * \param[in] dst_addr Destination address
 562:../asf/sam/drivers/xdmac/xdmac.h ****  */
 563:../asf/sam/drivers/xdmac/xdmac.h **** static inline void xdmac_channel_set_destination_addr(Xdmac *xdmac, uint32_t channel_num, uint32_t 
 564:../asf/sam/drivers/xdmac/xdmac.h **** {
 565:../asf/sam/drivers/xdmac/xdmac.h **** 	Assert(xdmac);
 566:../asf/sam/drivers/xdmac/xdmac.h **** 	Assert(channel_num < XDMACCHID_NUMBER);
 567:../asf/sam/drivers/xdmac/xdmac.h **** 	xdmac->XDMAC_CHID[channel_num].XDMAC_CDA = dst_addr;
 568:../asf/sam/drivers/xdmac/xdmac.h **** }
 569:../asf/sam/drivers/xdmac/xdmac.h **** 
 570:../asf/sam/drivers/xdmac/xdmac.h **** /**
 571:../asf/sam/drivers/xdmac/xdmac.h ****  * \brief Set next descriptor's address & interface for the relevant channel of given XDMA.
 572:../asf/sam/drivers/xdmac/xdmac.h ****  *
 573:../asf/sam/drivers/xdmac/xdmac.h ****  * \param[out] xdmac Module hardware register base address pointer
 574:../asf/sam/drivers/xdmac/xdmac.h ****  * \param[in] channel_num  DMA Channel number (range 0 to 23)
 575:../asf/sam/drivers/xdmac/xdmac.h ****  * \param[in] desc_addr Address of next descriptor.
 576:../asf/sam/drivers/xdmac/xdmac.h ****  * \param[in] ndaif Interface of next descriptor.
 577:../asf/sam/drivers/xdmac/xdmac.h ****  */
 578:../asf/sam/drivers/xdmac/xdmac.h **** static inline void xdmac_channel_set_descriptor_addr(Xdmac *xdmac, uint32_t channel_num,
 579:../asf/sam/drivers/xdmac/xdmac.h **** 		uint32_t desc_addr, uint8_t ndaif)
 580:../asf/sam/drivers/xdmac/xdmac.h **** {
 581:../asf/sam/drivers/xdmac/xdmac.h **** 	Assert(xdmac);
 582:../asf/sam/drivers/xdmac/xdmac.h **** 	Assert(channel_num < XDMACCHID_NUMBER);
 583:../asf/sam/drivers/xdmac/xdmac.h **** 	Assert(ndaif<2);
 584:../asf/sam/drivers/xdmac/xdmac.h **** 	xdmac->XDMAC_CHID[channel_num].XDMAC_CNDA = (desc_addr & 0xFFFFFFFC) | ndaif;
 585:../asf/sam/drivers/xdmac/xdmac.h **** }
 586:../asf/sam/drivers/xdmac/xdmac.h **** 
 587:../asf/sam/drivers/xdmac/xdmac.h **** /**
 588:../asf/sam/drivers/xdmac/xdmac.h ****  * \brief Set next descriptor's configuration for the relevant channel of given XDMA.
 589:../asf/sam/drivers/xdmac/xdmac.h ****  *
 590:../asf/sam/drivers/xdmac/xdmac.h ****  * \param[out] xdmac Module hardware register base address pointer
 591:../asf/sam/drivers/xdmac/xdmac.h ****  * \param[in] channel_num  DMA Channel number (range 0 to 23)
ARM GAS  /tmp/cc6b4z2x.s 			page 13


 592:../asf/sam/drivers/xdmac/xdmac.h ****  * \param[in] config Configuration of next descriptor.
 593:../asf/sam/drivers/xdmac/xdmac.h ****  */
 594:../asf/sam/drivers/xdmac/xdmac.h **** static inline void xdmac_channel_set_descriptor_control(Xdmac *xdmac, uint32_t channel_num, uint32_
 595:../asf/sam/drivers/xdmac/xdmac.h **** {
 596:../asf/sam/drivers/xdmac/xdmac.h **** 	Assert(xdmac);
 597:../asf/sam/drivers/xdmac/xdmac.h **** 	Assert(channel_num < XDMACCHID_NUMBER);
 598:../asf/sam/drivers/xdmac/xdmac.h **** 	xdmac->XDMAC_CHID[channel_num].XDMAC_CNDC = config;
 599:../asf/sam/drivers/xdmac/xdmac.h **** }
 600:../asf/sam/drivers/xdmac/xdmac.h **** 
 601:../asf/sam/drivers/xdmac/xdmac.h **** /**
 602:../asf/sam/drivers/xdmac/xdmac.h ****  * \brief Set microblock length for the relevant channel of given XDMA.
 603:../asf/sam/drivers/xdmac/xdmac.h ****  *
 604:../asf/sam/drivers/xdmac/xdmac.h ****  * \param[out] xdmac Module hardware register base address pointer
 605:../asf/sam/drivers/xdmac/xdmac.h ****  * \param[in] channel_num  DMA Channel number (range 0 to 23)
 606:../asf/sam/drivers/xdmac/xdmac.h ****  * \param[in] ublen Microblock length.
 607:../asf/sam/drivers/xdmac/xdmac.h ****  */
 608:../asf/sam/drivers/xdmac/xdmac.h **** static inline void xdmac_channel_set_microblock_control(Xdmac *xdmac, uint32_t channel_num, uint32_
 609:../asf/sam/drivers/xdmac/xdmac.h **** {
 610:../asf/sam/drivers/xdmac/xdmac.h **** 	Assert(xdmac);
 611:../asf/sam/drivers/xdmac/xdmac.h **** 	Assert(channel_num < XDMACCHID_NUMBER);
 612:../asf/sam/drivers/xdmac/xdmac.h **** 	xdmac->XDMAC_CHID[channel_num].XDMAC_CUBC = XDMAC_CUBC_UBLEN(ublen);
  36              		.loc 2 612 0
  37 0000 1368     		ldr	r3, [r2]
  38              	.LBE21:
  39              	.LBE20:
  40              	.LBB24:
  41              	.LBB25:
 525:../asf/sam/drivers/xdmac/xdmac.h **** }
  42              		.loc 2 525 0
  43 0002 00EB8111 		add	r1, r0, r1, lsl #6
  44              	.LVL1:
  45              	.LBE25:
  46              	.LBE24:
  47              	.LBB27:
  48              	.LBB28:
 613:../asf/sam/drivers/xdmac/xdmac.h **** }
 614:../asf/sam/drivers/xdmac/xdmac.h **** 
 615:../asf/sam/drivers/xdmac/xdmac.h **** /**
 616:../asf/sam/drivers/xdmac/xdmac.h ****  * \brief Set block length for the relevant channel of given XDMA.
 617:../asf/sam/drivers/xdmac/xdmac.h ****  *
 618:../asf/sam/drivers/xdmac/xdmac.h ****  * \param[out] xdmac Module hardware register base address pointer
 619:../asf/sam/drivers/xdmac/xdmac.h ****  * \param[in] channel_num  XDMA Channel number (range 0 to 23)
 620:../asf/sam/drivers/xdmac/xdmac.h ****  * \param[in] blen Block length.
 621:../asf/sam/drivers/xdmac/xdmac.h ****  */
 622:../asf/sam/drivers/xdmac/xdmac.h **** static inline void xdmac_channel_set_block_control(Xdmac *xdmac, uint32_t channel_num, uint32_t ble
 623:../asf/sam/drivers/xdmac/xdmac.h **** {
 624:../asf/sam/drivers/xdmac/xdmac.h **** 	Assert(xdmac);
 625:../asf/sam/drivers/xdmac/xdmac.h **** 	Assert(channel_num < XDMACCHID_NUMBER);
 626:../asf/sam/drivers/xdmac/xdmac.h **** 	xdmac->XDMAC_CHID[channel_num].XDMAC_CBC = XDMAC_CBC_BLEN(blen);
 627:../asf/sam/drivers/xdmac/xdmac.h **** }
 628:../asf/sam/drivers/xdmac/xdmac.h **** 
 629:../asf/sam/drivers/xdmac/xdmac.h **** /**
 630:../asf/sam/drivers/xdmac/xdmac.h ****  * \brief Set configuration for the relevant channel of given XDMA.
 631:../asf/sam/drivers/xdmac/xdmac.h ****  *
 632:../asf/sam/drivers/xdmac/xdmac.h ****  * \param[out] xdmac Module hardware register base address pointer
 633:../asf/sam/drivers/xdmac/xdmac.h ****  * \param[in] channel_num  XDMA Channel number (range 0 to 23)
 634:../asf/sam/drivers/xdmac/xdmac.h ****  * \param[in] config Channel configuration.
ARM GAS  /tmp/cc6b4z2x.s 			page 14


 635:../asf/sam/drivers/xdmac/xdmac.h ****  */
 636:../asf/sam/drivers/xdmac/xdmac.h **** static inline void xdmac_channel_set_config(Xdmac *xdmac, uint32_t channel_num, uint32_t config)
 637:../asf/sam/drivers/xdmac/xdmac.h **** {
 638:../asf/sam/drivers/xdmac/xdmac.h **** 	Assert(xdmac);
 639:../asf/sam/drivers/xdmac/xdmac.h **** 	Assert(channel_num < XDMACCHID_NUMBER);
 640:../asf/sam/drivers/xdmac/xdmac.h **** 	xdmac->XDMAC_CHID[channel_num].XDMAC_CC = config;
 641:../asf/sam/drivers/xdmac/xdmac.h **** }
 642:../asf/sam/drivers/xdmac/xdmac.h **** 
 643:../asf/sam/drivers/xdmac/xdmac.h **** /**
 644:../asf/sam/drivers/xdmac/xdmac.h ****  * \brief Set the relevant channel's data stride memory pattern of given XDMA.
 645:../asf/sam/drivers/xdmac/xdmac.h ****  *
 646:../asf/sam/drivers/xdmac/xdmac.h ****  * \param[out] xdmac Module hardware register base address pointer
 647:../asf/sam/drivers/xdmac/xdmac.h ****  * \param[in] channel_num  XDMA Channel number (range 0 to 23)
 648:../asf/sam/drivers/xdmac/xdmac.h ****  * \param[in] dds_msp Data stride memory pattern.
 649:../asf/sam/drivers/xdmac/xdmac.h ****  */
 650:../asf/sam/drivers/xdmac/xdmac.h **** static inline void xdmac_channel_set_datastride_mempattern(Xdmac *xdmac, uint32_t channel_num, uint
 651:../asf/sam/drivers/xdmac/xdmac.h **** {
 652:../asf/sam/drivers/xdmac/xdmac.h **** 	Assert(xdmac);
 653:../asf/sam/drivers/xdmac/xdmac.h **** 	Assert(channel_num < XDMACCHID_NUMBER);
 654:../asf/sam/drivers/xdmac/xdmac.h **** 	xdmac->XDMAC_CHID[channel_num].XDMAC_CDS_MSP = dds_msp;
 655:../asf/sam/drivers/xdmac/xdmac.h **** }
 656:../asf/sam/drivers/xdmac/xdmac.h **** 
 657:../asf/sam/drivers/xdmac/xdmac.h **** /**
 658:../asf/sam/drivers/xdmac/xdmac.h ****  * \brief Set the relevant channel's source microblock stride of given XDMA.
 659:../asf/sam/drivers/xdmac/xdmac.h ****  *
 660:../asf/sam/drivers/xdmac/xdmac.h ****  * \param[out] xdmac Module hardware register base address pointer
 661:../asf/sam/drivers/xdmac/xdmac.h ****  * \param[in] channel_num  XDMA Channel number (range 0 to 23)
 662:../asf/sam/drivers/xdmac/xdmac.h ****  * \param[in] subs Source microblock stride.
 663:../asf/sam/drivers/xdmac/xdmac.h ****  */
 664:../asf/sam/drivers/xdmac/xdmac.h **** static inline void xdmac_channel_set_source_microblock_stride(Xdmac *xdmac,
 665:../asf/sam/drivers/xdmac/xdmac.h **** 		uint32_t channel_num, uint32_t subs)
 666:../asf/sam/drivers/xdmac/xdmac.h **** {
 667:../asf/sam/drivers/xdmac/xdmac.h **** 	Assert(xdmac);
 668:../asf/sam/drivers/xdmac/xdmac.h **** 	Assert(channel_num < XDMACCHID_NUMBER);
 669:../asf/sam/drivers/xdmac/xdmac.h **** 	xdmac->XDMAC_CHID[channel_num].XDMAC_CSUS = XDMAC_CSUS_SUBS(subs);
  49              		.loc 2 669 0
  50 0006 9069     		ldr	r0, [r2, #24]
  51              	.LVL2:
  52              	.LBE28:
  53              	.LBE27:
  54              	.LBB31:
  55              	.LBB26:
 525:../asf/sam/drivers/xdmac/xdmac.h **** }
  56              		.loc 2 525 0
  57 0008 D1F85CC0 		ldr	ip, [r1, #92]
  58              	.LBE26:
  59              	.LBE31:
  60              	.LBB32:
  61              	.LBB29:
  62              		.loc 2 669 0
  63 000c 20F07F40 		bic	r0, r0, #-16777216
  64              	.LBE29:
  65              	.LBE32:
  66              		.loc 1 58 0
  67 0010 F0B5     		push	{r4, r5, r6, r7, lr}
  68              		.cfi_def_cfa_offset 20
  69              		.cfi_offset 4, -20
ARM GAS  /tmp/cc6b4z2x.s 			page 15


  70              		.cfi_offset 5, -16
  71              		.cfi_offset 6, -12
  72              		.cfi_offset 7, -8
  73              		.cfi_offset 14, -4
  74              	.LBB33:
  75              	.LBB34:
 626:../asf/sam/drivers/xdmac/xdmac.h **** }
  76              		.loc 2 626 0
  77 0012 1469     		ldr	r4, [r2, #16]
  78              	.LBE34:
  79              	.LBE33:
  80              	.LBB37:
  81              	.LBB22:
 612:../asf/sam/drivers/xdmac/xdmac.h **** }
  82              		.loc 2 612 0
  83 0014 23F07F45 		bic	r5, r3, #-16777216
  84              	.LBE22:
  85              	.LBE37:
  86              	.LBB38:
  87              	.LBB39:
 670:../asf/sam/drivers/xdmac/xdmac.h **** }
 671:../asf/sam/drivers/xdmac/xdmac.h **** 
 672:../asf/sam/drivers/xdmac/xdmac.h **** /**
 673:../asf/sam/drivers/xdmac/xdmac.h ****  * \brief Set the relevant channel's destination microblock stride of given XDMA.
 674:../asf/sam/drivers/xdmac/xdmac.h ****  *
 675:../asf/sam/drivers/xdmac/xdmac.h ****  * \param[out] xdmac Module hardware register base address pointer
 676:../asf/sam/drivers/xdmac/xdmac.h ****  * \param[in] channel_num  XDMA Channel number (range 0 to 23)
 677:../asf/sam/drivers/xdmac/xdmac.h ****  * \param[in] dubs Destination microblock stride.
 678:../asf/sam/drivers/xdmac/xdmac.h ****  */
 679:../asf/sam/drivers/xdmac/xdmac.h **** static inline void xdmac_channel_set_destination_microblock_stride(Xdmac *xdmac,
 680:../asf/sam/drivers/xdmac/xdmac.h **** 		uint32_t channel_num, uint32_t dubs)
 681:../asf/sam/drivers/xdmac/xdmac.h **** {
 682:../asf/sam/drivers/xdmac/xdmac.h **** 	Assert(xdmac);
 683:../asf/sam/drivers/xdmac/xdmac.h **** 	Assert(channel_num < XDMACCHID_NUMBER);
 684:../asf/sam/drivers/xdmac/xdmac.h **** 	xdmac->XDMAC_CHID[channel_num].XDMAC_CDUS = XDMAC_CDUS_DUBS(dubs);
  88              		.loc 2 684 0
  89 0018 D369     		ldr	r3, [r2, #28]
  90              	.LBE39:
  91              	.LBE38:
  59:../asf/sam/drivers/xdmac/xdmac.c **** 	Assert(xdmac);
  60:../asf/sam/drivers/xdmac/xdmac.c **** 	Assert(channel_num < XDMACCHID_NUMBER);
  61:../asf/sam/drivers/xdmac/xdmac.c **** 	Assert(cfg);
  62:../asf/sam/drivers/xdmac/xdmac.c **** 	
  63:../asf/sam/drivers/xdmac/xdmac.c **** 	xdmac_channel_get_interrupt_status( xdmac, channel_num);
  64:../asf/sam/drivers/xdmac/xdmac.c **** 	xdmac_channel_set_source_addr(xdmac, channel_num, cfg->mbr_sa);
  92              		.loc 1 64 0
  93 001a D2F804E0 		ldr	lr, [r2, #4]
  94              	.LBB42:
  95              	.LBB35:
 626:../asf/sam/drivers/xdmac/xdmac.h **** }
  96              		.loc 2 626 0
  97 001e C4F30B04 		ubfx	r4, r4, #0, #12
  98              	.LBE35:
  99              	.LBE42:
  65:../asf/sam/drivers/xdmac/xdmac.c **** 	xdmac_channel_set_destination_addr(xdmac, channel_num, cfg->mbr_da);
 100              		.loc 1 65 0
 101 0022 9768     		ldr	r7, [r2, #8]
ARM GAS  /tmp/cc6b4z2x.s 			page 16


 102              	.LBB43:
 103              	.LBB40:
 104              		.loc 2 684 0
 105 0024 23F07F43 		bic	r3, r3, #-16777216
 106              	.LBE40:
 107              	.LBE43:
  66:../asf/sam/drivers/xdmac/xdmac.c **** 	xdmac_channel_set_microblock_control(xdmac, channel_num, cfg->mbr_ubc);
  67:../asf/sam/drivers/xdmac/xdmac.c **** 	xdmac_channel_set_block_control(xdmac, channel_num, cfg->mbr_bc);
  68:../asf/sam/drivers/xdmac/xdmac.c **** 	xdmac_channel_set_datastride_mempattern(xdmac, channel_num, cfg->mbr_ds);
 108              		.loc 1 68 0
 109 0028 5669     		ldr	r6, [r2, #20]
 110              	.LVL3:
  69:../asf/sam/drivers/xdmac/xdmac.c **** 	xdmac_channel_set_source_microblock_stride(xdmac, channel_num, cfg->mbr_sus);
  70:../asf/sam/drivers/xdmac/xdmac.c **** 	xdmac_channel_set_destination_microblock_stride(xdmac, channel_num, cfg->mbr_dus);
  71:../asf/sam/drivers/xdmac/xdmac.c **** 	xdmac_channel_set_config(xdmac, channel_num, cfg->mbr_cfg );
 111              		.loc 1 71 0
 112 002a D268     		ldr	r2, [r2, #12]
 113              	.LVL4:
 114              	.LBB44:
 115              	.LBB45:
 553:../asf/sam/drivers/xdmac/xdmac.h **** }
 116              		.loc 2 553 0
 117 002c C1F860E0 		str	lr, [r1, #96]
 118              	.LVL5:
 119              	.LBE45:
 120              	.LBE44:
 121              	.LBB46:
 122              	.LBB47:
 567:../asf/sam/drivers/xdmac/xdmac.h **** }
 123              		.loc 2 567 0
 124 0030 4F66     		str	r7, [r1, #100]
 125              	.LVL6:
 126              	.LBE47:
 127              	.LBE46:
 128              	.LBB48:
 129              	.LBB23:
 612:../asf/sam/drivers/xdmac/xdmac.h **** }
 130              		.loc 2 612 0
 131 0032 0D67     		str	r5, [r1, #112]
 132              	.LVL7:
 133              	.LBE23:
 134              	.LBE48:
 135              	.LBB49:
 136              	.LBB36:
 626:../asf/sam/drivers/xdmac/xdmac.h **** }
 137              		.loc 2 626 0
 138 0034 4C67     		str	r4, [r1, #116]
 139              	.LVL8:
 140              	.LBE36:
 141              	.LBE49:
 142              	.LBB50:
 143              	.LBB51:
 654:../asf/sam/drivers/xdmac/xdmac.h **** }
 144              		.loc 2 654 0
 145 0036 CE67     		str	r6, [r1, #124]
 146              	.LVL9:
 147              	.LBE51:
ARM GAS  /tmp/cc6b4z2x.s 			page 17


 148              	.LBE50:
 149              	.LBB52:
 150              	.LBB30:
 669:../asf/sam/drivers/xdmac/xdmac.h **** }
 151              		.loc 2 669 0
 152 0038 C1F88000 		str	r0, [r1, #128]
 153              	.LVL10:
 154              	.LBE30:
 155              	.LBE52:
 156              	.LBB53:
 157              	.LBB41:
 158              		.loc 2 684 0
 159 003c C1F88430 		str	r3, [r1, #132]
 160              	.LVL11:
 161              	.LBE41:
 162              	.LBE53:
 163              	.LBB54:
 164              	.LBB55:
 640:../asf/sam/drivers/xdmac/xdmac.h **** }
 165              		.loc 2 640 0
 166 0040 8A67     		str	r2, [r1, #120]
 167              	.LVL12:
 168 0042 F0BD     		pop	{r4, r5, r6, r7, pc}
 169              	.LBE55:
 170              	.LBE54:
 171              		.cfi_endproc
 172              	.LFE173:
 173              		.size	xdmac_configure_transfer, .-xdmac_configure_transfer
 174              		.section	.bss.cpu_irq_critical_section_counter,"aw",%nobits
 175              		.align	2
 176              		.type	cpu_irq_critical_section_counter, %object
 177              		.size	cpu_irq_critical_section_counter, 4
 178              	cpu_irq_critical_section_counter:
 179 0000 00000000 		.space	4
 180              		.section	.bss.cpu_irq_prev_interrupt_state,"aw",%nobits
 181              		.type	cpu_irq_prev_interrupt_state, %object
 182              		.size	cpu_irq_prev_interrupt_state, 1
 183              	cpu_irq_prev_interrupt_state:
 184 0000 00       		.space	1
 185              		.text
 186              	.Letext0:
 187              		.file 3 "/usr/include/newlib/machine/_default_types.h"
 188              		.file 4 "/usr/include/newlib/sys/_stdint.h"
 189              		.file 5 "/home/torbjorn/eclipse-workspace/CoreNG/asf/thirdparty/CMSIS/Include/core_cm7.h"
 190              		.file 6 "/home/torbjorn/eclipse-workspace/CoreNG/variants/same70/system_same70.h"
 191              		.file 7 "/home/torbjorn/eclipse-workspace/CoreNG/asf/sam/utils/cmsis/same70/include/component/xdma
 192              		.file 8 "/usr/include/newlib/sys/lock.h"
 193              		.file 9 "/usr/include/newlib/sys/_types.h"
 194              		.file 10 "/usr/lib/gcc/arm-none-eabi/6.3.1/include/stddef.h"
 195              		.file 11 "/usr/include/newlib/sys/reent.h"
 196              		.file 12 "/usr/include/newlib/stdlib.h"
 197              		.file 13 "/home/torbjorn/eclipse-workspace/CoreNG/asf/common/utils/interrupt/interrupt_sam_nvic.h"