ARM GAS  C:\Users\paja\AppData\Local\Temp\ccY4oRD5.s 			page 1


   1              		.cpu cortex-m4
   2              		.eabi_attribute 27, 1
   3              		.eabi_attribute 28, 1
   4              		.eabi_attribute 20, 1
   5              		.eabi_attribute 21, 1
   6              		.eabi_attribute 23, 3
   7              		.eabi_attribute 24, 1
   8              		.eabi_attribute 25, 1
   9              		.eabi_attribute 26, 1
  10              		.eabi_attribute 30, 2
  11              		.eabi_attribute 34, 1
  12              		.eabi_attribute 18, 4
  13              		.file	"RepRap.cpp"
  14              		.text
  15              		.section	.text._ZN6RepRapUlP11ObjectModelE_4_FUNES1_,"ax",%progbits
  16              		.align	1
  17              		.p2align 2,,3
  18              		.syntax unified
  19              		.thumb
  20              		.thumb_func
  21              		.fpu fpv4-sp-d16
  22              		.type	_ZN6RepRapUlP11ObjectModelE_4_FUNES1_, %function
  23              	_ZN6RepRapUlP11ObjectModelE_4_FUNES1_:
  24              		@ args = 0, pretend = 0, frame = 0
  25              		@ frame_needed = 0, uses_anonymous_args = 0
  26              		@ link register save eliminated.
  27 0000 4069     		ldr	r0, [r0, #20]
  28 0002 7047     		bx	lr
  29              		.size	_ZN6RepRapUlP11ObjectModelE_4_FUNES1_, .-_ZN6RepRapUlP11ObjectModelE_4_FUNES1_
  30              		.section	.text._ZN6RepRapUlP11ObjectModelE0_4_FUNES1_,"ax",%progbits
  31              		.align	1
  32              		.p2align 2,,3
  33              		.syntax unified
  34              		.thumb
  35              		.thumb_func
  36              		.fpu fpv4-sp-d16
  37              		.type	_ZN6RepRapUlP11ObjectModelE0_4_FUNES1_, %function
  38              	_ZN6RepRapUlP11ObjectModelE0_4_FUNES1_:
  39              		@ args = 0, pretend = 0, frame = 0
  40              		@ frame_needed = 0, uses_anonymous_args = 0
  41              		@ link register save eliminated.
  42 0000 C068     		ldr	r0, [r0, #12]
  43 0002 00F58870 		add	r0, r0, #272
  44 0006 7047     		bx	lr
  45              		.size	_ZN6RepRapUlP11ObjectModelE0_4_FUNES1_, .-_ZN6RepRapUlP11ObjectModelE0_4_FUNES1_
  46              		.section	.text._ZN6RepRapUlP11ObjectModelE1_4_FUNES1_,"ax",%progbits
  47              		.align	1
  48              		.p2align 2,,3
  49              		.syntax unified
  50              		.thumb
  51              		.thumb_func
  52              		.fpu fpv4-sp-d16
  53              		.type	_ZN6RepRapUlP11ObjectModelE1_4_FUNES1_, %function
  54              	_ZN6RepRapUlP11ObjectModelE1_4_FUNES1_:
  55              		@ args = 0, pretend = 0, frame = 0
  56              		@ frame_needed = 0, uses_anonymous_args = 0
  57              		@ link register save eliminated.
ARM GAS  C:\Users\paja\AppData\Local\Temp\ccY4oRD5.s 			page 2


  58 0000 C068     		ldr	r0, [r0, #12]
  59 0002 7047     		bx	lr
  60              		.size	_ZN6RepRapUlP11ObjectModelE1_4_FUNES1_, .-_ZN6RepRapUlP11ObjectModelE1_4_FUNES1_
  61              		.section	.text._ZN6RepRapUlP11ObjectModelE2_4_FUNES1_,"ax",%progbits
  62              		.align	1
  63              		.p2align 2,,3
  64              		.syntax unified
  65              		.thumb
  66              		.thumb_func
  67              		.fpu fpv4-sp-d16
  68              		.type	_ZN6RepRapUlP11ObjectModelE2_4_FUNES1_, %function
  69              	_ZN6RepRapUlP11ObjectModelE2_4_FUNES1_:
  70              		@ args = 0, pretend = 0, frame = 0
  71              		@ frame_needed = 0, uses_anonymous_args = 0
  72              		@ link register save eliminated.
  73 0000 8068     		ldr	r0, [r0, #8]
  74 0002 7047     		bx	lr
  75              		.size	_ZN6RepRapUlP11ObjectModelE2_4_FUNES1_, .-_ZN6RepRapUlP11ObjectModelE2_4_FUNES1_
  76              		.section	.text._ZN6RepRapUlP11ObjectModelE3_4_FUNES1_,"ax",%progbits
  77              		.align	1
  78              		.p2align 2,,3
  79              		.syntax unified
  80              		.thumb
  81              		.thumb_func
  82              		.fpu fpv4-sp-d16
  83              		.type	_ZN6RepRapUlP11ObjectModelE3_4_FUNES1_, %function
  84              	_ZN6RepRapUlP11ObjectModelE3_4_FUNES1_:
  85              		@ args = 0, pretend = 0, frame = 0
  86              		@ frame_needed = 0, uses_anonymous_args = 0
  87              		@ link register save eliminated.
  88 0000 C068     		ldr	r0, [r0, #12]
  89 0002 00F66400 		addw	r0, r0, #2148
  90 0006 7047     		bx	lr
  91              		.size	_ZN6RepRapUlP11ObjectModelE3_4_FUNES1_, .-_ZN6RepRapUlP11ObjectModelE3_4_FUNES1_
  92              		.section	.text._ZNK6RepRap19GetObjectModelTableERj,"ax",%progbits
  93              		.align	1
  94              		.p2align 2,,3
  95              		.global	_ZNK6RepRap19GetObjectModelTableERj
  96              		.syntax unified
  97              		.thumb
  98              		.thumb_func
  99              		.fpu fpv4-sp-d16
 100              		.type	_ZNK6RepRap19GetObjectModelTableERj, %function
 101              	_ZNK6RepRap19GetObjectModelTableERj:
 102              		@ args = 0, pretend = 0, frame = 0
 103              		@ frame_needed = 0, uses_anonymous_args = 0
 104              		@ link register save eliminated.
 105 0000 0523     		movs	r3, #5
 106 0002 0B60     		str	r3, [r1]
 107 0004 0048     		ldr	r0, .L8
 108 0006 7047     		bx	lr
 109              	.L9:
 110              		.align	2
 111              	.L8:
 112 0008 00000000 		.word	.LANCHOR0
 113              		.size	_ZNK6RepRap19GetObjectModelTableERj, .-_ZNK6RepRap19GetObjectModelTableERj
 114              		.section	.text.hsmciIdle,"ax",%progbits
ARM GAS  C:\Users\paja\AppData\Local\Temp\ccY4oRD5.s 			page 3


 115              		.align	1
 116              		.p2align 2,,3
 117              		.global	hsmciIdle
 118              		.syntax unified
 119              		.thumb
 120              		.thumb_func
 121              		.fpu fpv4-sp-d16
 122              		.type	hsmciIdle, %function
 123              	hsmciIdle:
 124              		@ args = 0, pretend = 0, frame = 0
 125              		@ frame_needed = 0, uses_anonymous_args = 0
 126 0000 38B5     		push	{r3, r4, r5, lr}
 127 0002 0D4D     		ldr	r5, .L16
 128 0004 2B6C     		ldr	r3, [r5, #64]
 129 0006 0342     		tst	r3, r0
 130 0008 00D0     		beq	.L15
 131              	.L10:
 132 000a 38BD     		pop	{r3, r4, r5, pc}
 133              	.L15:
 134 000c 0446     		mov	r4, r0
 135 000e FFF7FEFF 		bl	xTaskGetCurrentTaskHandle
 136 0012 0A4B     		ldr	r3, .L16+4
 137 0014 C821     		movs	r1, #200
 138 0016 1860     		str	r0, [r3]
 139 0018 6C64     		str	r4, [r5, #68]
 140 001a 0120     		movs	r0, #1
 141 001c FFF7FEFF 		bl	ulTaskNotifyTake
 142 0020 0028     		cmp	r0, #0
 143 0022 F2D1     		bne	.L10
 144 0024 064B     		ldr	r3, .L16+8
 145 0026 5A68     		ldr	r2, [r3, #4]	@ unaligned
 146 0028 D2F8FC30 		ldr	r3, [r2, #252]
 147 002c 43F01003 		orr	r3, r3, #16
 148 0030 C2F8FC30 		str	r3, [r2, #252]
 149 0034 38BD     		pop	{r3, r4, r5, pc}
 150              	.L17:
 151 0036 00BF     		.align	2
 152              	.L16:
 153 0038 00000840 		.word	1074266112
 154 003c 00000000 		.word	.LANCHOR1
 155 0040 00000000 		.word	reprap
 156              		.size	hsmciIdle, .-hsmciIdle
 157              		.section	.text.HSMCI_Handler,"ax",%progbits
 158              		.align	1
 159              		.p2align 2,,3
 160              		.global	HSMCI_Handler
 161              		.syntax unified
 162              		.thumb
 163              		.thumb_func
 164              		.fpu fpv4-sp-d16
 165              		.type	HSMCI_Handler, %function
 166              	HSMCI_Handler:
 167              		@ args = 0, pretend = 0, frame = 8
 168              		@ frame_needed = 0, uses_anonymous_args = 0
 169 0000 30B5     		push	{r4, r5, lr}
 170 0002 0D4C     		ldr	r4, .L28
 171 0004 0D4B     		ldr	r3, .L28+4
ARM GAS  C:\Users\paja\AppData\Local\Temp\ccY4oRD5.s 			page 4


 172 0006 2068     		ldr	r0, [r4]
 173 0008 4FF0FF32 		mov	r2, #-1
 174 000c 83B0     		sub	sp, sp, #12
 175 000e 9A64     		str	r2, [r3, #72]
 176 0010 80B1     		cbz	r0, .L18
 177 0012 02A9     		add	r1, sp, #8
 178 0014 0025     		movs	r5, #0
 179 0016 41F8045D 		str	r5, [r1, #-4]!
 180 001a FFF7FEFF 		bl	vTaskNotifyGiveFromISR
 181 001e 019B     		ldr	r3, [sp, #4]
 182 0020 2560     		str	r5, [r4]
 183 0022 3BB1     		cbz	r3, .L18
 184 0024 064B     		ldr	r3, .L28+8
 185 0026 4FF08052 		mov	r2, #268435456
 186 002a 1A60     		str	r2, [r3]
 187              		.syntax unified
 188              	@ 66 "../src/RepRap.cpp" 1
 189 002c BFF34F8F 		dsb
 190              	@ 0 "" 2
 191              	@ 66 "../src/RepRap.cpp" 1
 192 0030 BFF36F8F 		isb
 193              	@ 0 "" 2
 194              		.thumb
 195              		.syntax unified
 196              	.L18:
 197 0034 03B0     		add	sp, sp, #12
 198              		@ sp needed
 199 0036 30BD     		pop	{r4, r5, pc}
 200              	.L29:
 201              		.align	2
 202              	.L28:
 203 0038 00000000 		.word	.LANCHOR1
 204 003c 00000840 		.word	1074266112
 205 0040 04ED00E0 		.word	-536810236
 206              		.size	HSMCI_Handler, .-HSMCI_Handler
 207              		.section	.text._ZN6RepRap4ExitEv,"ax",%progbits
 208              		.align	1
 209              		.p2align 2,,3
 210              		.global	_ZN6RepRap4ExitEv
 211              		.syntax unified
 212              		.thumb
 213              		.thumb_func
 214              		.fpu fpv4-sp-d16
 215              		.type	_ZN6RepRap4ExitEv, %function
 216              	_ZN6RepRap4ExitEv:
 217              		@ args = 0, pretend = 0, frame = 0
 218              		@ frame_needed = 0, uses_anonymous_args = 0
 219 0000 10B5     		push	{r4, lr}
 220 0002 0446     		mov	r4, r0
 221 0004 0020     		movs	r0, #0
 222 0006 FFF7FEFF 		bl	hsmci_set_idle_func
 223 000a 0023     		movs	r3, #0
 224 000c 84F80D31 		strb	r3, [r4, #269]
 225 0010 2069     		ldr	r0, [r4, #16]
 226 0012 FFF7FEFF 		bl	_ZN4Heat4ExitEv
 227 0016 E068     		ldr	r0, [r4, #12]
 228 0018 FFF7FEFF 		bl	_ZN4Move4ExitEv
ARM GAS  C:\Users\paja\AppData\Local\Temp\ccY4oRD5.s 			page 5


 229 001c 6069     		ldr	r0, [r4, #20]
 230 001e FFF7FEFF 		bl	_ZN6GCodes4ExitEv
 231 0022 E069     		ldr	r0, [r4, #28]
 232 0024 FFF7FEFF 		bl	_ZN7Scanner4ExitEv
 233 0028 606A     		ldr	r0, [r4, #36]
 234 002a FFF7FEFF 		bl	_ZN11PortControl4ExitEv
 235 002e A068     		ldr	r0, [r4, #8]
 236 0030 FFF7FEFF 		bl	_ZN7Network4ExitEv
 237 0034 6068     		ldr	r0, [r4, #4]
 238 0036 BDE81040 		pop	{r4, lr}
 239 003a FFF7FEBF 		b	_ZN8Platform4ExitEv
 240              		.size	_ZN6RepRap4ExitEv, .-_ZN6RepRap4ExitEv
 241              		.global	__aeabi_f2d
 242 003e 00BF     		.section	.text._ZN6RepRap6TimingE11MessageType,"ax",%progbits
 243              		.align	1
 244              		.p2align 2,,3
 245              		.global	_ZN6RepRap6TimingE11MessageType
 246              		.syntax unified
 247              		.thumb
 248              		.thumb_func
 249              		.fpu fpv4-sp-d16
 250              		.type	_ZN6RepRap6TimingE11MessageType, %function
 251              	_ZN6RepRap6TimingE11MessageType:
 252              		@ args = 0, pretend = 0, frame = 0
 253              		@ frame_needed = 0, uses_anonymous_args = 0
 254 0000 70B5     		push	{r4, r5, r6, lr}
 255 0002 2DED028B 		vpush.64	{d8}
 256 0006 D0ED407A 		vldr.32	s15, [r0, #256]	@ int
 257 000a 9FED168A 		vldr.32	s16, .L34
 258 000e 4568     		ldr	r5, [r0, #4]
 259 0010 F8EE677A 		vcvt.f32.u32	s15, s15
 260 0014 84B0     		sub	sp, sp, #16
 261 0016 67EE887A 		vmul.f32	s15, s15, s16
 262 001a 0446     		mov	r4, r0
 263 001c 17EE900A 		vmov	r0, s15
 264 0020 0E46     		mov	r6, r1
 265 0022 FFF7FEFF 		bl	__aeabi_f2d
 266 0026 D4ED417A 		vldr.32	s15, [r4, #260]	@ int
 267 002a F8EE677A 		vcvt.f32.u32	s15, s15
 268 002e CDE90201 		strd	r0, [sp, #8]
 269 0032 67EE887A 		vmul.f32	s15, s15, s16
 270 0036 17EE900A 		vmov	r0, s15
 271 003a FFF7FEFF 		bl	__aeabi_f2d
 272 003e 0A4A     		ldr	r2, .L34+4
 273 0040 CDE90001 		strd	r0, [sp]
 274 0044 3146     		mov	r1, r6
 275 0046 2846     		mov	r0, r5
 276 0048 FFF7FEFF 		bl	_ZN8Platform8MessageFE11MessageTypePKcz
 277 004c 4FF0FF32 		mov	r2, #-1
 278 0050 0023     		movs	r3, #0
 279 0052 C4F80021 		str	r2, [r4, #256]
 280 0056 C4F80431 		str	r3, [r4, #260]
 281 005a 04B0     		add	sp, sp, #16
 282              		@ sp needed
 283 005c BDEC028B 		vldm	sp!, {d8}
 284 0060 70BD     		pop	{r4, r5, r6, pc}
 285              	.L35:
ARM GAS  C:\Users\paja\AppData\Local\Temp\ccY4oRD5.s 			page 6


 286 0062 00BF     		.align	2
 287              	.L34:
 288 0064 65CF8B3A 		.word	982241125
 289 0068 00000000 		.word	.LC0
 290              		.size	_ZN6RepRap6TimingE11MessageType, .-_ZN6RepRap6TimingE11MessageType
 291              		.section	.text._ZN6RepRap11DiagnosticsE11MessageType,"ax",%progbits
 292              		.align	1
 293              		.p2align 2,,3
 294              		.global	_ZN6RepRap11DiagnosticsE11MessageType
 295              		.syntax unified
 296              		.thumb
 297              		.thumb_func
 298              		.fpu fpv4-sp-d16
 299              		.type	_ZN6RepRap11DiagnosticsE11MessageType, %function
 300              	_ZN6RepRap11DiagnosticsE11MessageType:
 301              		@ args = 0, pretend = 0, frame = 0
 302              		@ frame_needed = 0, uses_anonymous_args = 0
 303 0000 70B5     		push	{r4, r5, r6, lr}
 304 0002 0546     		mov	r5, r0
 305 0004 82B0     		sub	sp, sp, #8
 306 0006 234A     		ldr	r2, .L40
 307 0008 4068     		ldr	r0, [r0, #4]
 308 000a 0C46     		mov	r4, r1
 309 000c FFF7FEFF 		bl	_ZN8Platform7MessageE11MessageTypePKc
 310 0010 6E68     		ldr	r6, [r5, #4]
 311 0012 3046     		mov	r0, r6
 312 0014 FFF7FEFF 		bl	_ZNK8Platform20GetElectronicsStringEv
 313 0018 1F4B     		ldr	r3, .L40+4
 314 001a 0190     		str	r0, [sp, #4]
 315 001c 2146     		mov	r1, r4
 316 001e 3046     		mov	r0, r6
 317 0020 0093     		str	r3, [sp]
 318 0022 1E4A     		ldr	r2, .L40+8
 319 0024 1E4B     		ldr	r3, .L40+12
 320 0026 FFF7FEFF 		bl	_ZN8Platform8MessageFE11MessageTypePKcz
 321 002a FFF7FEFF 		bl	_ZN13DuetExpansion21GetExpansionBoardNameEv
 322 002e 1D49     		ldr	r1, .L40+16
 323 0030 1D4A     		ldr	r2, .L40+20
 324 0032 0346     		mov	r3, r0
 325 0034 0028     		cmp	r0, #0
 326 0036 08BF     		it	eq
 327 0038 0A46     		moveq	r2, r1
 328 003a 2146     		mov	r1, r4
 329 003c 6868     		ldr	r0, [r5, #4]
 330 003e FFF7FEFF 		bl	_ZN8Platform8MessageFE11MessageTypePKcz
 331 0042 2146     		mov	r1, r4
 332 0044 6868     		ldr	r0, [r5, #4]
 333 0046 FFF7FEFF 		bl	_ZN8Platform13PrintUniqueIdE11MessageType
 334 004a 2046     		mov	r0, r4
 335 004c FFF7FEFF 		bl	_ZN12OutputBuffer11DiagnosticsE11MessageType
 336 0050 2046     		mov	r0, r4
 337 0052 FFF7FEFF 		bl	_ZN5Tasks11DiagnosticsE11MessageType
 338 0056 2146     		mov	r1, r4
 339 0058 6868     		ldr	r0, [r5, #4]
 340 005a FFF7FEFF 		bl	_ZN8Platform11DiagnosticsE11MessageType
 341 005e 2146     		mov	r1, r4
 342 0060 E868     		ldr	r0, [r5, #12]
ARM GAS  C:\Users\paja\AppData\Local\Temp\ccY4oRD5.s 			page 7


 343 0062 FFF7FEFF 		bl	_ZN4Move11DiagnosticsE11MessageType
 344 0066 2146     		mov	r1, r4
 345 0068 2869     		ldr	r0, [r5, #16]
 346 006a FFF7FEFF 		bl	_ZN4Heat11DiagnosticsE11MessageType
 347 006e 2146     		mov	r1, r4
 348 0070 6869     		ldr	r0, [r5, #20]
 349 0072 FFF7FEFF 		bl	_ZN6GCodes11DiagnosticsE11MessageType
 350 0076 2146     		mov	r1, r4
 351 0078 A868     		ldr	r0, [r5, #8]
 352 007a FFF7FEFF 		bl	_ZN7Network11DiagnosticsE11MessageType
 353 007e 2046     		mov	r0, r4
 354 0080 FFF7FEFF 		bl	_ZN15FilamentMonitor11DiagnosticsE11MessageType
 355 0084 2046     		mov	r0, r4
 356 0086 FFF7FEFF 		bl	_ZN13DuetExpansion11DiagnosticsE11MessageType
 357 008a 0123     		movs	r3, #1
 358 008c 85F87234 		strb	r3, [r5, #1138]
 359 0090 02B0     		add	sp, sp, #8
 360              		@ sp needed
 361 0092 70BD     		pop	{r4, r5, r6, pc}
 362              	.L41:
 363              		.align	2
 364              	.L40:
 365 0094 0C000000 		.word	.LC3
 366 0098 68000000 		.word	.LC6
 367 009c 4C000000 		.word	.LC5
 368 00a0 24000000 		.word	.LC4
 369 00a4 00000000 		.word	.LC1
 370 00a8 04000000 		.word	.LC2
 371              		.size	_ZN6RepRap11DiagnosticsE11MessageType, .-_ZN6RepRap11DiagnosticsE11MessageType
 372              		.section	.text._ZN6RepRap4SpinEv.part.27,"ax",%progbits
 373              		.align	1
 374              		.p2align 2,,3
 375              		.syntax unified
 376              		.thumb
 377              		.thumb_func
 378              		.fpu fpv4-sp-d16
 379              		.type	_ZN6RepRap4SpinEv.part.27, %function
 380              	_ZN6RepRap4SpinEv.part.27:
 381              		@ args = 0, pretend = 0, frame = 8
 382              		@ frame_needed = 0, uses_anonymous_args = 0
 383 0000 2DE9F041 		push	{r4, r5, r6, r7, r8, lr}
 384 0004 514B     		ldr	r3, .L64
 385 0006 0446     		mov	r4, r0
 386 0008 0025     		movs	r5, #0
 387 000a 82B0     		sub	sp, sp, #8
 388 000c 4068     		ldr	r0, [r0, #4]
 389 000e D3F89070 		ldr	r7, [r3, #144]
 390 0012 A4F8F850 		strh	r5, [r4, #248]	@ movhi
 391 0016 84F8FC50 		strb	r5, [r4, #252]
 392 001a FFF7FEFF 		bl	_ZN8Platform4SpinEv
 393 001e 0323     		movs	r3, #3
 394 0020 84F8FC30 		strb	r3, [r4, #252]
 395 0024 6069     		ldr	r0, [r4, #20]
 396 0026 A4F8F850 		strh	r5, [r4, #248]	@ movhi
 397 002a FFF7FEFF 		bl	_ZN6GCodes4SpinEv
 398 002e 0423     		movs	r3, #4
 399 0030 84F8FC30 		strb	r3, [r4, #252]
ARM GAS  C:\Users\paja\AppData\Local\Temp\ccY4oRD5.s 			page 8


 400 0034 E068     		ldr	r0, [r4, #12]
 401 0036 A4F8F850 		strh	r5, [r4, #248]	@ movhi
 402 003a FFF7FEFF 		bl	_ZN4Move4SpinEv
 403 003e 0823     		movs	r3, #8
 404 0040 84F8FC30 		strb	r3, [r4, #252]
 405 0044 E069     		ldr	r0, [r4, #28]
 406 0046 A4F8F850 		strh	r5, [r4, #248]	@ movhi
 407 004a FFF7FEFF 		bl	_ZN7Scanner4SpinEv
 408 004e 0B23     		movs	r3, #11
 409 0050 0121     		movs	r1, #1
 410 0052 84F8FC30 		strb	r3, [r4, #252]
 411 0056 606A     		ldr	r0, [r4, #36]
 412 0058 A4F8F850 		strh	r5, [r4, #248]	@ movhi
 413 005c FFF7FEFF 		bl	_ZN11PortControl4SpinEb
 414 0060 0923     		movs	r3, #9
 415 0062 206A     		ldr	r0, [r4, #32]
 416 0064 84F8FC30 		strb	r3, [r4, #252]
 417 0068 A4F8F850 		strh	r5, [r4, #248]	@ movhi
 418 006c FFF7FEFF 		bl	_ZN12PrintMonitor4SpinEv
 419 0070 0C23     		movs	r3, #12
 420 0072 84F8FC30 		strb	r3, [r4, #252]
 421 0076 A4F8F850 		strh	r5, [r4, #248]	@ movhi
 422 007a FFF7FEFF 		bl	_ZN13DuetExpansion4SpinEv
 423 007e 0D23     		movs	r3, #13
 424 0080 84F8FC30 		strb	r3, [r4, #252]
 425 0084 A4F8F850 		strh	r5, [r4, #248]	@ movhi
 426 0088 0120     		movs	r0, #1
 427 008a FFF7FEFF 		bl	_ZN15FilamentMonitor4SpinEb
 428 008e B4F87014 		ldrh	r1, [r4, #1136]
 429 0092 A4F8F850 		strh	r5, [r4, #248]	@ movhi
 430 0096 1023     		movs	r3, #16
 431 0098 84F8FC30 		strb	r3, [r4, #252]
 432 009c 51BB     		cbnz	r1, .L62
 433              	.L43:
 434 009e FFF7FEFF 		bl	millis
 435 00a2 D4F8F030 		ldr	r3, [r4, #240]
 436 00a6 C31A     		subs	r3, r0, r3
 437 00a8 B3F57A6F 		cmp	r3, #4000
 438 00ac 0646     		mov	r6, r0
 439 00ae 27D2     		bcs	.L63
 440              	.L44:
 441 00b0 94F87234 		ldrb	r3, [r4, #1138]	@ zero_extendqisi2
 442 00b4 6BB1     		cbz	r3, .L48
 443 00b6 0023     		movs	r3, #0
 444 00b8 84F87234 		strb	r3, [r4, #1138]
 445              	.L49:
 446 00bc 244B     		ldr	r3, .L64+4
 447 00be 4FF08052 		mov	r2, #268435456
 448 00c2 1A60     		str	r2, [r3]
 449              		.syntax unified
 450              	@ 224 "C:\eclipse\firmware\RRFLibraries\src/RTOSIface/RTOSIface.h" 1
 451 00c4 BFF34F8F 		dsb
 452              	@ 0 "" 2
 453              	@ 224 "C:\eclipse\firmware\RRFLibraries\src/RTOSIface/RTOSIface.h" 1
 454 00c8 BFF36F8F 		isb
 455              	@ 0 "" 2
 456              		.thumb
ARM GAS  C:\Users\paja\AppData\Local\Temp\ccY4oRD5.s 			page 9


 457              		.syntax unified
 458 00cc 02B0     		add	sp, sp, #8
 459              		@ sp needed
 460 00ce BDE8F081 		pop	{r4, r5, r6, r7, r8, pc}
 461              	.L48:
 462 00d2 1E4B     		ldr	r3, .L64
 463 00d4 D4F80021 		ldr	r2, [r4, #256]
 464 00d8 D3F89030 		ldr	r3, [r3, #144]
 465 00dc DB1B     		subs	r3, r3, r7
 466 00de 9342     		cmp	r3, r2
 467 00e0 D4F80421 		ldr	r2, [r4, #260]
 468 00e4 38BF     		it	cc
 469 00e6 C4F80031 		strcc	r3, [r4, #256]
 470 00ea 9342     		cmp	r3, r2
 471 00ec 88BF     		it	hi
 472 00ee C4F80431 		strhi	r3, [r4, #260]
 473 00f2 E3E7     		b	.L49
 474              	.L62:
 475 00f4 2046     		mov	r0, r4
 476 00f6 FFF7FEFF 		bl	_ZN6RepRap11DiagnosticsE11MessageType
 477 00fa A4F87054 		strh	r5, [r4, #1136]	@ movhi
 478 00fe CEE7     		b	.L43
 479              	.L63:
 480 0100 6846     		mov	r0, sp
 481 0102 4FF0FF32 		mov	r2, #-1
 482 0106 04F12801 		add	r1, r4, #40
 483 010a FFF7FEFF 		bl	_ZN11MutexLockerC1ERK5Mutexm
 484 010e D4F8E850 		ldr	r5, [r4, #232]
 485 0112 B5B1     		cbz	r5, .L45
 486 0114 DFF83C80 		ldr	r8, .L64+8
 487 0118 01E0     		b	.L47
 488              	.L46:
 489 011a 2D68     		ldr	r5, [r5]
 490 011c 8DB1     		cbz	r5, .L45
 491              	.L47:
 492 011e 2846     		mov	r0, r5
 493 0120 FFF7FEFF 		bl	_ZN4Tool25DisplayColdExtrudeWarningEv
 494 0124 0028     		cmp	r0, #0
 495 0126 F8D0     		beq	.L46
 496 0128 D5F89C30 		ldr	r3, [r5, #156]
 497 012c 6068     		ldr	r0, [r4, #4]
 498 012e 4246     		mov	r2, r8
 499 0130 40F2B521 		movw	r1, #693
 500 0134 FFF7FEFF 		bl	_ZN8Platform8MessageFE11MessageTypePKcz
 501 0138 C4F8F060 		str	r6, [r4, #240]
 502 013c 2D68     		ldr	r5, [r5]
 503 013e 002D     		cmp	r5, #0
 504 0140 EDD1     		bne	.L47
 505              	.L45:
 506 0142 6846     		mov	r0, sp
 507 0144 FFF7FEFF 		bl	_ZN11MutexLockerD1Ev
 508 0148 B2E7     		b	.L44
 509              	.L65:
 510 014a 00BF     		.align	2
 511              	.L64:
 512 014c 00000940 		.word	1074331648
 513 0150 04ED00E0 		.word	-536810236
ARM GAS  C:\Users\paja\AppData\Local\Temp\ccY4oRD5.s 			page 10


 514 0154 00000000 		.word	.LC7
 515              		.size	_ZN6RepRap4SpinEv.part.27, .-_ZN6RepRap4SpinEv.part.27
 516              		.section	.text._ZN6RepRap4SpinEv,"ax",%progbits
 517              		.align	1
 518              		.p2align 2,,3
 519              		.global	_ZN6RepRap4SpinEv
 520              		.syntax unified
 521              		.thumb
 522              		.thumb_func
 523              		.fpu fpv4-sp-d16
 524              		.type	_ZN6RepRap4SpinEv, %function
 525              	_ZN6RepRap4SpinEv:
 526              		@ args = 0, pretend = 0, frame = 0
 527              		@ frame_needed = 0, uses_anonymous_args = 0
 528              		@ link register save eliminated.
 529 0000 90F80D31 		ldrb	r3, [r0, #269]	@ zero_extendqisi2
 530 0004 03B9     		cbnz	r3, .L68
 531 0006 7047     		bx	lr
 532              	.L68:
 533 0008 FFF7FEBF 		b	_ZN6RepRap4SpinEv.part.27
 534              		.size	_ZN6RepRap4SpinEv, .-_ZN6RepRap4SpinEv
 535              		.section	.text._ZN6RepRap13EmergencyStopEv,"ax",%progbits
 536              		.align	1
 537              		.p2align 2,,3
 538              		.global	_ZN6RepRap13EmergencyStopEv
 539              		.syntax unified
 540              		.thumb
 541              		.thumb_func
 542              		.fpu fpv4-sp-d16
 543              		.type	_ZN6RepRap13EmergencyStopEv, %function
 544              	_ZN6RepRap13EmergencyStopEv:
 545              		@ args = 0, pretend = 0, frame = 8
 546              		@ frame_needed = 0, uses_anonymous_args = 0
 547 0000 30B5     		push	{r4, r5, lr}
 548 0002 0122     		movs	r2, #1
 549 0004 4369     		ldr	r3, [r0, #20]
 550 0006 80F80C21 		strb	r2, [r0, #268]
 551 000a 93F8B430 		ldrb	r3, [r3, #180]	@ zero_extendqisi2
 552 000e 9342     		cmp	r3, r2
 553 0010 83B0     		sub	sp, sp, #12
 554 0012 0546     		mov	r5, r0
 555 0014 40D0     		beq	.L71
 556 0016 022B     		cmp	r3, #2
 557 0018 29D0     		beq	.L80
 558              	.L70:
 559 001a 6846     		mov	r0, sp
 560 001c 4FF0FF32 		mov	r2, #-1
 561 0020 05F12801 		add	r1, r5, #40
 562 0024 FFF7FEFF 		bl	_ZN11MutexLockerC1ERK5Mutexm
 563 0028 D5F8E840 		ldr	r4, [r5, #232]
 564 002c 2CB1     		cbz	r4, .L73
 565              	.L74:
 566 002e 2046     		mov	r0, r4
 567 0030 FFF7FEFF 		bl	_ZN4Tool7StandbyEv
 568 0034 2468     		ldr	r4, [r4]
 569 0036 002C     		cmp	r4, #0
 570 0038 F9D1     		bne	.L74
ARM GAS  C:\Users\paja\AppData\Local\Temp\ccY4oRD5.s 			page 11


 571              	.L73:
 572 003a 6846     		mov	r0, sp
 573 003c FFF7FEFF 		bl	_ZN11MutexLockerD1Ev
 574 0040 2869     		ldr	r0, [r5, #16]
 575 0042 FFF7FEFF 		bl	_ZN4Heat4ExitEv
 576 0046 E868     		ldr	r0, [r5, #12]
 577 0048 FFF7FEFF 		bl	_ZN4Move4ExitEv
 578 004c 6868     		ldr	r0, [r5, #4]
 579 004e FFF7FEFF 		bl	_ZN8Platform16DisableAllDrivesEv
 580 0052 E868     		ldr	r0, [r5, #12]
 581 0054 FFF7FEFF 		bl	_ZN4Move4ExitEv
 582 0058 6868     		ldr	r0, [r5, #4]
 583 005a FFF7FEFF 		bl	_ZN8Platform16DisableAllDrivesEv
 584 005e 6869     		ldr	r0, [r5, #20]
 585 0060 FFF7FEFF 		bl	_ZN6GCodes13EmergencyStopEv
 586 0064 6868     		ldr	r0, [r5, #4]
 587 0066 FFF7FEFF 		bl	_ZN8Platform11StopLoggingEv
 588 006a 03B0     		add	sp, sp, #12
 589              		@ sp needed
 590 006c 30BD     		pop	{r4, r5, pc}
 591              	.L80:
 592 006e 4068     		ldr	r0, [r0, #4]
 593 0070 00F63440 		addw	r0, r0, #3124
 594 0074 FFF7FEFF 		bl	_ZN7Spindle7TurnOffEv
 595 0078 6868     		ldr	r0, [r5, #4]
 596 007a 00F65440 		addw	r0, r0, #3156
 597 007e FFF7FEFF 		bl	_ZN7Spindle7TurnOffEv
 598 0082 6868     		ldr	r0, [r5, #4]
 599 0084 00F67440 		addw	r0, r0, #3188
 600 0088 FFF7FEFF 		bl	_ZN7Spindle7TurnOffEv
 601 008c 6868     		ldr	r0, [r5, #4]
 602 008e 00F69440 		addw	r0, r0, #3220
 603 0092 FFF7FEFF 		bl	_ZN7Spindle7TurnOffEv
 604 0096 C0E7     		b	.L70
 605              	.L71:
 606 0098 0021     		movs	r1, #0
 607 009a 4068     		ldr	r0, [r0, #4]
 608 009c FFF7FEFF 		bl	_ZN8Platform11SetLaserPwmEt
 609 00a0 BBE7     		b	.L70
 610              		.size	_ZN6RepRap13EmergencyStopEv, .-_ZN6RepRap13EmergencyStopEv
 611 00a2 00BF     		.section	.text._ZN6RepRap8SetDebugEb,"ax",%progbits
 612              		.align	1
 613              		.p2align 2,,3
 614              		.global	_ZN6RepRap8SetDebugEb
 615              		.syntax unified
 616              		.thumb
 617              		.thumb_func
 618              		.fpu fpv4-sp-d16
 619              		.type	_ZN6RepRap8SetDebugEb, %function
 620              	_ZN6RepRap8SetDebugEb:
 621              		@ args = 0, pretend = 0, frame = 0
 622              		@ frame_needed = 0, uses_anonymous_args = 0
 623              		@ link register save eliminated.
 624 0000 0029     		cmp	r1, #0
 625 0002 4FF6FF73 		movw	r3, #65535
 626 0006 08BF     		it	eq
 627 0008 0023     		moveq	r3, #0
ARM GAS  C:\Users\paja\AppData\Local\Temp\ccY4oRD5.s 			page 12


 628 000a C0F80831 		str	r3, [r0, #264]
 629 000e 7047     		bx	lr
 630              		.size	_ZN6RepRap8SetDebugEb, .-_ZN6RepRap8SetDebugEb
 631              		.section	.text._ZN6RepRap10PrintDebugEv,"ax",%progbits
 632              		.align	1
 633              		.p2align 2,,3
 634              		.global	_ZN6RepRap10PrintDebugEv
 635              		.syntax unified
 636              		.thumb
 637              		.thumb_func
 638              		.fpu fpv4-sp-d16
 639              		.type	_ZN6RepRap10PrintDebugEv, %function
 640              	_ZN6RepRap10PrintDebugEv:
 641              		@ args = 0, pretend = 0, frame = 0
 642              		@ frame_needed = 0, uses_anonymous_args = 0
 643 0000 2DE9F041 		push	{r4, r5, r6, r7, r8, lr}
 644 0004 0546     		mov	r5, r0
 645 0006 82B0     		sub	sp, sp, #8
 646 0008 4068     		ldr	r0, [r0, #4]
 647 000a 224A     		ldr	r2, .L97
 648 000c DFF89480 		ldr	r8, .L97+16
 649 0010 214F     		ldr	r7, .L97+4
 650 0012 3521     		movs	r1, #53
 651 0014 FFF7FEFF 		bl	_ZN8Platform7MessageE11MessageTypePKc
 652 0018 0024     		movs	r4, #0
 653 001a 6868     		ldr	r0, [r5, #4]
 654 001c 0126     		movs	r6, #1
 655 001e 02E0     		b	.L86
 656              	.L85:
 657 0020 0134     		adds	r4, r4, #1
 658 0022 102C     		cmp	r4, #16
 659 0024 10D0     		beq	.L95
 660              	.L86:
 661 0026 D5F80831 		ldr	r3, [r5, #264]
 662 002a 06FA04F2 		lsl	r2, r6, r4
 663 002e 1A42     		tst	r2, r3
 664 0030 F6D0     		beq	.L85
 665 0032 58F82430 		ldr	r3, [r8, r4, lsl #2]
 666 0036 0094     		str	r4, [sp]
 667 0038 3A46     		mov	r2, r7
 668 003a 3521     		movs	r1, #53
 669 003c 0134     		adds	r4, r4, #1
 670 003e FFF7FEFF 		bl	_ZN8Platform8MessageFE11MessageTypePKcz
 671 0042 102C     		cmp	r4, #16
 672 0044 6868     		ldr	r0, [r5, #4]
 673 0046 EED1     		bne	.L86
 674              	.L95:
 675 0048 144A     		ldr	r2, .L97+8
 676 004a DFF85880 		ldr	r8, .L97+16
 677 004e 124F     		ldr	r7, .L97+4
 678 0050 3521     		movs	r1, #53
 679 0052 FFF7FEFF 		bl	_ZN8Platform7MessageE11MessageTypePKc
 680 0056 0024     		movs	r4, #0
 681 0058 6868     		ldr	r0, [r5, #4]
 682 005a 0126     		movs	r6, #1
 683 005c 02E0     		b	.L88
 684              	.L87:
ARM GAS  C:\Users\paja\AppData\Local\Temp\ccY4oRD5.s 			page 13


 685 005e 0134     		adds	r4, r4, #1
 686 0060 102C     		cmp	r4, #16
 687 0062 10D0     		beq	.L96
 688              	.L88:
 689 0064 D5F80831 		ldr	r3, [r5, #264]
 690 0068 06FA04F2 		lsl	r2, r6, r4
 691 006c 1A42     		tst	r2, r3
 692 006e F6D1     		bne	.L87
 693 0070 58F82430 		ldr	r3, [r8, r4, lsl #2]
 694 0074 0094     		str	r4, [sp]
 695 0076 3A46     		mov	r2, r7
 696 0078 3521     		movs	r1, #53
 697 007a 0134     		adds	r4, r4, #1
 698 007c FFF7FEFF 		bl	_ZN8Platform8MessageFE11MessageTypePKcz
 699 0080 102C     		cmp	r4, #16
 700 0082 6868     		ldr	r0, [r5, #4]
 701 0084 EED1     		bne	.L88
 702              	.L96:
 703 0086 064A     		ldr	r2, .L97+12
 704 0088 3521     		movs	r1, #53
 705 008a 02B0     		add	sp, sp, #8
 706              		@ sp needed
 707 008c BDE8F041 		pop	{r4, r5, r6, r7, r8, lr}
 708 0090 FFF7FEBF 		b	_ZN8Platform7MessageE11MessageTypePKc
 709              	.L98:
 710              		.align	2
 711              	.L97:
 712 0094 00000000 		.word	.LC8
 713 0098 20000000 		.word	.LC9
 714 009c 28000000 		.word	.LC10
 715 00a0 00000000 		.word	.LC1
 716 00a4 00000000 		.word	moduleName
 717              		.size	_ZN6RepRap10PrintDebugEv, .-_ZN6RepRap10PrintDebugEv
 718              		.section	.text._ZN6RepRap8SetDebugE6Moduleb,"ax",%progbits
 719              		.align	1
 720              		.p2align 2,,3
 721              		.global	_ZN6RepRap8SetDebugE6Moduleb
 722              		.syntax unified
 723              		.thumb
 724              		.thumb_func
 725              		.fpu fpv4-sp-d16
 726              		.type	_ZN6RepRap8SetDebugE6Moduleb, %function
 727              	_ZN6RepRap8SetDebugE6Moduleb:
 728              		@ args = 0, pretend = 0, frame = 0
 729              		@ frame_needed = 0, uses_anonymous_args = 0
 730              		@ link register save eliminated.
 731 0000 0F29     		cmp	r1, #15
 732 0002 08D8     		bhi	.L100
 733 0004 0123     		movs	r3, #1
 734 0006 8B40     		lsls	r3, r3, r1
 735 0008 D0F80811 		ldr	r1, [r0, #264]
 736 000c 2AB9     		cbnz	r2, .L102
 737 000e 21EA0303 		bic	r3, r1, r3
 738 0012 C0F80831 		str	r3, [r0, #264]
 739              	.L100:
 740 0016 FFF7FEBF 		b	_ZN6RepRap10PrintDebugEv
 741              	.L102:
ARM GAS  C:\Users\paja\AppData\Local\Temp\ccY4oRD5.s 			page 14


 742 001a 0B43     		orrs	r3, r3, r1
 743 001c C0F80831 		str	r3, [r0, #264]
 744 0020 FFF7FEBF 		b	_ZN6RepRap10PrintDebugEv
 745              		.size	_ZN6RepRap8SetDebugE6Moduleb, .-_ZN6RepRap8SetDebugE6Moduleb
 746              		.section	.text._ZN6RepRap7AddToolEP4Tool,"ax",%progbits
 747              		.align	1
 748              		.p2align 2,,3
 749              		.global	_ZN6RepRap7AddToolEP4Tool
 750              		.syntax unified
 751              		.thumb
 752              		.thumb_func
 753              		.fpu fpv4-sp-d16
 754              		.type	_ZN6RepRap7AddToolEP4Tool, %function
 755              	_ZN6RepRap7AddToolEP4Tool:
 756              		@ args = 0, pretend = 0, frame = 8
 757              		@ frame_needed = 0, uses_anonymous_args = 0
 758 0000 30B5     		push	{r4, r5, lr}
 759 0002 0446     		mov	r4, r0
 760 0004 83B0     		sub	sp, sp, #12
 761 0006 0D46     		mov	r5, r1
 762 0008 6846     		mov	r0, sp
 763 000a 04F12801 		add	r1, r4, #40
 764 000e 4FF0FF32 		mov	r2, #-1
 765 0012 FFF7FEFF 		bl	_ZN11MutexLockerC1ERK5Mutexm
 766 0016 D4F8E830 		ldr	r3, [r4, #232]
 767 001a 04F1E801 		add	r1, r4, #232
 768 001e 73B1     		cbz	r3, .L104
 769 0020 D5F89C00 		ldr	r0, [r5, #156]
 770 0024 D3F89C20 		ldr	r2, [r3, #156]
 771 0028 9042     		cmp	r0, r2
 772 002a 04DC     		bgt	.L105
 773 002c 07E0     		b	.L104
 774              	.L106:
 775 002e D3F89C20 		ldr	r2, [r3, #156]
 776 0032 8242     		cmp	r2, r0
 777 0034 03DA     		bge	.L104
 778              	.L105:
 779 0036 1946     		mov	r1, r3
 780 0038 1B68     		ldr	r3, [r3]
 781 003a 002B     		cmp	r3, #0
 782 003c F7D1     		bne	.L106
 783              	.L104:
 784 003e 2B60     		str	r3, [r5]
 785 0040 04F1F602 		add	r2, r4, #246
 786 0044 2846     		mov	r0, r5
 787 0046 0D60     		str	r5, [r1]
 788 0048 04F1F401 		add	r1, r4, #244
 789 004c FFF7FEFF 		bl	_ZNK4Tool28UpdateExtruderAndHeaterCountERtS0_
 790 0050 6068     		ldr	r0, [r4, #4]
 791 0052 FFF7FEFF 		bl	_ZN8Platform23UpdateConfiguredHeatersEv
 792 0056 6846     		mov	r0, sp
 793 0058 FFF7FEFF 		bl	_ZN11MutexLockerD1Ev
 794 005c 03B0     		add	sp, sp, #12
 795              		@ sp needed
 796 005e 30BD     		pop	{r4, r5, pc}
 797              		.size	_ZN6RepRap7AddToolEP4Tool, .-_ZN6RepRap7AddToolEP4Tool
 798              		.section	.text._ZNK6RepRap7GetToolEi,"ax",%progbits
ARM GAS  C:\Users\paja\AppData\Local\Temp\ccY4oRD5.s 			page 15


 799              		.align	1
 800              		.p2align 2,,3
 801              		.global	_ZNK6RepRap7GetToolEi
 802              		.syntax unified
 803              		.thumb
 804              		.thumb_func
 805              		.fpu fpv4-sp-d16
 806              		.type	_ZNK6RepRap7GetToolEi, %function
 807              	_ZNK6RepRap7GetToolEi:
 808              		@ args = 0, pretend = 0, frame = 8
 809              		@ frame_needed = 0, uses_anonymous_args = 0
 810 0000 30B5     		push	{r4, r5, lr}
 811 0002 0446     		mov	r4, r0
 812 0004 83B0     		sub	sp, sp, #12
 813 0006 0D46     		mov	r5, r1
 814 0008 6846     		mov	r0, sp
 815 000a 04F12801 		add	r1, r4, #40
 816 000e 4FF0FF32 		mov	r2, #-1
 817 0012 FFF7FEFF 		bl	_ZN11MutexLockerC1ERK5Mutexm
 818 0016 D4F8E840 		ldr	r4, [r4, #232]
 819 001a 14B9     		cbnz	r4, .L115
 820 001c 05E0     		b	.L113
 821              	.L120:
 822 001e 2468     		ldr	r4, [r4]
 823 0020 1CB1     		cbz	r4, .L113
 824              	.L115:
 825 0022 D4F89C30 		ldr	r3, [r4, #156]
 826 0026 9D42     		cmp	r5, r3
 827 0028 F9D1     		bne	.L120
 828              	.L113:
 829 002a 6846     		mov	r0, sp
 830 002c FFF7FEFF 		bl	_ZN11MutexLockerD1Ev
 831 0030 2046     		mov	r0, r4
 832 0032 03B0     		add	sp, sp, #12
 833              		@ sp needed
 834 0034 30BD     		pop	{r4, r5, pc}
 835              		.size	_ZNK6RepRap7GetToolEi, .-_ZNK6RepRap7GetToolEi
 836 0036 00BF     		.section	.text._ZN6RepRap10SelectToolEib,"ax",%progbits
 837              		.align	1
 838              		.p2align 2,,3
 839              		.global	_ZN6RepRap10SelectToolEib
 840              		.syntax unified
 841              		.thumb
 842              		.thumb_func
 843              		.fpu fpv4-sp-d16
 844              		.type	_ZN6RepRap10SelectToolEib, %function
 845              	_ZN6RepRap10SelectToolEib:
 846              		@ args = 0, pretend = 0, frame = 0
 847              		@ frame_needed = 0, uses_anonymous_args = 0
 848 0000 70B5     		push	{r4, r5, r6, lr}
 849 0002 1646     		mov	r6, r2
 850 0004 0546     		mov	r5, r0
 851 0006 FFF7FEFF 		bl	_ZNK6RepRap7GetToolEi
 852 000a 0446     		mov	r4, r0
 853 000c 3EB9     		cbnz	r6, .L123
 854 000e D5F8EC00 		ldr	r0, [r5, #236]
 855 0012 18B1     		cbz	r0, .L124
ARM GAS  C:\Users\paja\AppData\Local\Temp\ccY4oRD5.s 			page 16


 856 0014 A042     		cmp	r0, r4
 857 0016 05D0     		beq	.L126
 858 0018 FFF7FEFF 		bl	_ZN4Tool7StandbyEv
 859              	.L124:
 860 001c 14B9     		cbnz	r4, .L126
 861              	.L123:
 862 001e C5F8EC40 		str	r4, [r5, #236]
 863 0022 70BD     		pop	{r4, r5, r6, pc}
 864              	.L126:
 865 0024 2046     		mov	r0, r4
 866 0026 FFF7FEFF 		bl	_ZN4Tool8ActivateEv
 867 002a C5F8EC40 		str	r4, [r5, #236]
 868 002e 70BD     		pop	{r4, r5, r6, pc}
 869              		.size	_ZN6RepRap10SelectToolEib, .-_ZN6RepRap10SelectToolEib
 870              		.section	.text._ZN6RepRap10DeleteToolEP4Tool,"ax",%progbits
 871              		.align	1
 872              		.p2align 2,,3
 873              		.global	_ZN6RepRap10DeleteToolEP4Tool
 874              		.syntax unified
 875              		.thumb
 876              		.thumb_func
 877              		.fpu fpv4-sp-d16
 878              		.type	_ZN6RepRap10DeleteToolEP4Tool, %function
 879              	_ZN6RepRap10DeleteToolEP4Tool:
 880              		@ args = 0, pretend = 0, frame = 8
 881              		@ frame_needed = 0, uses_anonymous_args = 0
 882 0000 0029     		cmp	r1, #0
 883 0002 4ED0     		beq	.L161
 884 0004 F0B5     		push	{r4, r5, r6, r7, lr}
 885 0006 D0F8EC30 		ldr	r3, [r0, #236]
 886 000a 9942     		cmp	r1, r3
 887 000c 83B0     		sub	sp, sp, #12
 888 000e 0646     		mov	r6, r0
 889 0010 0C46     		mov	r4, r1
 890 0012 47D0     		beq	.L164
 891              	.L134:
 892 0014 D4F89830 		ldr	r3, [r4, #152]
 893 0018 73B1     		cbz	r3, .L135
 894 001a 6FF0B807 		mvn	r7, #184
 895 001e 3F1B     		subs	r7, r7, r4
 896 0020 04F1B905 		add	r5, r4, #185
 897              	.L136:
 898 0024 15F9011B 		ldrsb	r1, [r5], #1
 899 0028 3069     		ldr	r0, [r6, #16]
 900 002a FFF7FEFF 		bl	_ZN4Heat9SwitchOffEa
 901 002e D4F89820 		ldr	r2, [r4, #152]
 902 0032 7B19     		adds	r3, r7, r5
 903 0034 9A42     		cmp	r2, r3
 904 0036 F5D8     		bhi	.L136
 905              	.L135:
 906 0038 4FF0FF32 		mov	r2, #-1
 907 003c 6846     		mov	r0, sp
 908 003e 06F12801 		add	r1, r6, #40
 909 0042 FFF7FEFF 		bl	_ZN11MutexLockerC1ERK5Mutexm
 910 0046 D6F8E820 		ldr	r2, [r6, #232]
 911 004a 42B1     		cbz	r2, .L137
 912 004c A242     		cmp	r2, r4
ARM GAS  C:\Users\paja\AppData\Local\Temp\ccY4oRD5.s 			page 17


 913 004e 03D1     		bne	.L139
 914 0050 22E0     		b	.L165
 915              	.L141:
 916 0052 A342     		cmp	r3, r4
 917 0054 22D0     		beq	.L140
 918 0056 1A46     		mov	r2, r3
 919              	.L139:
 920 0058 1368     		ldr	r3, [r2]
 921 005a 002B     		cmp	r3, #0
 922 005c F9D1     		bne	.L141
 923              	.L137:
 924 005e 2046     		mov	r0, r4
 925 0060 FFF7FEFF 		bl	_ZN4Tool6DeleteEPS_
 926 0064 D6F8E840 		ldr	r4, [r6, #232]
 927 0068 0023     		movs	r3, #0
 928 006a C6F8F430 		str	r3, [r6, #244]
 929 006e 5CB1     		cbz	r4, .L142
 930 0070 06F1F407 		add	r7, r6, #244
 931 0074 06F1F605 		add	r5, r6, #246
 932              	.L143:
 933 0078 2046     		mov	r0, r4
 934 007a 2A46     		mov	r2, r5
 935 007c 3946     		mov	r1, r7
 936 007e FFF7FEFF 		bl	_ZNK4Tool28UpdateExtruderAndHeaterCountERtS0_
 937 0082 2468     		ldr	r4, [r4]
 938 0084 002C     		cmp	r4, #0
 939 0086 F7D1     		bne	.L143
 940              	.L142:
 941 0088 7068     		ldr	r0, [r6, #4]
 942 008a FFF7FEFF 		bl	_ZN8Platform23UpdateConfiguredHeatersEv
 943 008e 6846     		mov	r0, sp
 944 0090 FFF7FEFF 		bl	_ZN11MutexLockerD1Ev
 945 0094 03B0     		add	sp, sp, #12
 946              		@ sp needed
 947 0096 F0BD     		pop	{r4, r5, r6, r7, pc}
 948              	.L165:
 949 0098 06F1E802 		add	r2, r6, #232
 950              	.L140:
 951 009c 2368     		ldr	r3, [r4]
 952 009e 1360     		str	r3, [r2]
 953 00a0 DDE7     		b	.L137
 954              	.L161:
 955 00a2 7047     		bx	lr
 956              	.L164:
 957 00a4 0022     		movs	r2, #0
 958 00a6 4FF0FF31 		mov	r1, #-1
 959 00aa FFF7FEFF 		bl	_ZN6RepRap10SelectToolEib
 960 00ae B1E7     		b	.L134
 961              		.size	_ZN6RepRap10DeleteToolEP4Tool, .-_ZN6RepRap10DeleteToolEP4Tool
 962              		.section	.text._ZNK6RepRap9PrintToolEiRK9StringRef,"ax",%progbits
 963              		.align	1
 964              		.p2align 2,,3
 965              		.global	_ZNK6RepRap9PrintToolEiRK9StringRef
 966              		.syntax unified
 967              		.thumb
 968              		.thumb_func
 969              		.fpu fpv4-sp-d16
ARM GAS  C:\Users\paja\AppData\Local\Temp\ccY4oRD5.s 			page 18


 970              		.type	_ZNK6RepRap9PrintToolEiRK9StringRef, %function
 971              	_ZNK6RepRap9PrintToolEiRK9StringRef:
 972              		@ args = 0, pretend = 0, frame = 0
 973              		@ frame_needed = 0, uses_anonymous_args = 0
 974 0000 10B5     		push	{r4, lr}
 975 0002 1446     		mov	r4, r2
 976 0004 FFF7FEFF 		bl	_ZNK6RepRap7GetToolEi
 977 0008 20B1     		cbz	r0, .L167
 978 000a 2146     		mov	r1, r4
 979 000c BDE81040 		pop	{r4, lr}
 980 0010 FFF7FEBF 		b	_ZNK4Tool5PrintERK9StringRef
 981              	.L167:
 982 0014 2046     		mov	r0, r4
 983 0016 0249     		ldr	r1, .L169
 984 0018 BDE81040 		pop	{r4, lr}
 985 001c FFF7FEBF 		b	_ZNK9StringRef4copyEPKc
 986              	.L170:
 987              		.align	2
 988              	.L169:
 989 0020 00000000 		.word	.LC11
 990              		.size	_ZNK6RepRap9PrintToolEiRK9StringRef, .-_ZNK6RepRap9PrintToolEiRK9StringRef
 991              		.section	.text._ZN6RepRap11StandbyToolEib,"ax",%progbits
 992              		.align	1
 993              		.p2align 2,,3
 994              		.global	_ZN6RepRap11StandbyToolEib
 995              		.syntax unified
 996              		.thumb
 997              		.thumb_func
 998              		.fpu fpv4-sp-d16
 999              		.type	_ZN6RepRap11StandbyToolEib, %function
 1000              	_ZN6RepRap11StandbyToolEib:
 1001              		@ args = 0, pretend = 0, frame = 0
 1002              		@ frame_needed = 0, uses_anonymous_args = 0
 1003 0000 2DE9F041 		push	{r4, r5, r6, r7, r8, lr}
 1004 0004 1646     		mov	r6, r2
 1005 0006 0446     		mov	r4, r0
 1006 0008 0F46     		mov	r7, r1
 1007 000a FFF7FEFF 		bl	_ZNK6RepRap7GetToolEi
 1008 000e 90B1     		cbz	r0, .L172
 1009 0010 0546     		mov	r5, r0
 1010 0012 2EB1     		cbz	r6, .L176
 1011 0014 D4F8EC30 		ldr	r3, [r4, #236]
 1012 0018 AB42     		cmp	r3, r5
 1013 001a 07D0     		beq	.L177
 1014              	.L171:
 1015 001c BDE8F081 		pop	{r4, r5, r6, r7, r8, pc}
 1016              	.L176:
 1017 0020 FFF7FEFF 		bl	_ZN4Tool7StandbyEv
 1018 0024 D4F8EC30 		ldr	r3, [r4, #236]
 1019 0028 AB42     		cmp	r3, r5
 1020 002a F7D1     		bne	.L171
 1021              	.L177:
 1022 002c 0023     		movs	r3, #0
 1023 002e C4F8EC30 		str	r3, [r4, #236]
 1024 0032 BDE8F081 		pop	{r4, r5, r6, r7, r8, pc}
 1025              	.L172:
 1026 0036 3B46     		mov	r3, r7
ARM GAS  C:\Users\paja\AppData\Local\Temp\ccY4oRD5.s 			page 19


 1027 0038 6068     		ldr	r0, [r4, #4]
 1028 003a 034A     		ldr	r2, .L178
 1029 003c 40F2B511 		movw	r1, #437
 1030 0040 BDE8F041 		pop	{r4, r5, r6, r7, r8, lr}
 1031 0044 FFF7FEBF 		b	_ZN8Platform8MessageFE11MessageTypePKcz
 1032              	.L179:
 1033              		.align	2
 1034              	.L178:
 1035 0048 00000000 		.word	.LC12
 1036              		.size	_ZN6RepRap11StandbyToolEib, .-_ZN6RepRap11StandbyToolEib
 1037              		.section	.text._ZNK6RepRap20GetCurrentToolNumberEv,"ax",%progbits
 1038              		.align	1
 1039              		.p2align 2,,3
 1040              		.global	_ZNK6RepRap20GetCurrentToolNumberEv
 1041              		.syntax unified
 1042              		.thumb
 1043              		.thumb_func
 1044              		.fpu fpv4-sp-d16
 1045              		.type	_ZNK6RepRap20GetCurrentToolNumberEv, %function
 1046              	_ZNK6RepRap20GetCurrentToolNumberEv:
 1047              		@ args = 0, pretend = 0, frame = 0
 1048              		@ frame_needed = 0, uses_anonymous_args = 0
 1049              		@ link register save eliminated.
 1050 0000 D0F8EC30 		ldr	r3, [r0, #236]
 1051 0004 13B1     		cbz	r3, .L182
 1052 0006 D3F89C00 		ldr	r0, [r3, #156]
 1053 000a 7047     		bx	lr
 1054              	.L182:
 1055 000c 4FF0FF30 		mov	r0, #-1
 1056 0010 7047     		bx	lr
 1057              		.size	_ZNK6RepRap20GetCurrentToolNumberEv, .-_ZNK6RepRap20GetCurrentToolNumberEv
 1058 0012 00BF     		.section	.text._ZNK6RepRap23GetCurrentOrDefaultToolEv,"ax",%progbits
 1059              		.align	1
 1060              		.p2align 2,,3
 1061              		.global	_ZNK6RepRap23GetCurrentOrDefaultToolEv
 1062              		.syntax unified
 1063              		.thumb
 1064              		.thumb_func
 1065              		.fpu fpv4-sp-d16
 1066              		.type	_ZNK6RepRap23GetCurrentOrDefaultToolEv, %function
 1067              	_ZNK6RepRap23GetCurrentOrDefaultToolEv:
 1068              		@ args = 0, pretend = 0, frame = 0
 1069              		@ frame_needed = 0, uses_anonymous_args = 0
 1070              		@ link register save eliminated.
 1071 0000 D0F8EC30 		ldr	r3, [r0, #236]
 1072 0004 0BB9     		cbnz	r3, .L183
 1073 0006 D0F8E830 		ldr	r3, [r0, #232]
 1074              	.L183:
 1075 000a 1846     		mov	r0, r3
 1076 000c 7047     		bx	lr
 1077              		.size	_ZNK6RepRap23GetCurrentOrDefaultToolEv, .-_ZNK6RepRap23GetCurrentOrDefaultToolEv
 1078 000e 00BF     		.section	.text._ZNK6RepRap22IsHeaterAssignedToToolEa,"ax",%progbits
 1079              		.align	1
 1080              		.p2align 2,,3
 1081              		.global	_ZNK6RepRap22IsHeaterAssignedToToolEa
 1082              		.syntax unified
 1083              		.thumb
ARM GAS  C:\Users\paja\AppData\Local\Temp\ccY4oRD5.s 			page 20


 1084              		.thumb_func
 1085              		.fpu fpv4-sp-d16
 1086              		.type	_ZNK6RepRap22IsHeaterAssignedToToolEa, %function
 1087              	_ZNK6RepRap22IsHeaterAssignedToToolEa:
 1088              		@ args = 0, pretend = 0, frame = 8
 1089              		@ frame_needed = 0, uses_anonymous_args = 0
 1090 0000 30B5     		push	{r4, r5, lr}
 1091 0002 0546     		mov	r5, r0
 1092 0004 83B0     		sub	sp, sp, #12
 1093 0006 0C46     		mov	r4, r1
 1094 0008 6846     		mov	r0, sp
 1095 000a 05F12801 		add	r1, r5, #40
 1096 000e 4FF0FF32 		mov	r2, #-1
 1097 0012 FFF7FEFF 		bl	_ZN11MutexLockerC1ERK5Mutexm
 1098 0016 D5F8E800 		ldr	r0, [r5, #232]
 1099 001a A0B1     		cbz	r0, .L191
 1100              	.L190:
 1101 001c D0F89820 		ldr	r2, [r0, #152]
 1102 0020 72B1     		cbz	r2, .L187
 1103 0022 90F9B930 		ldrsb	r3, [r0, #185]
 1104 0026 A342     		cmp	r3, r4
 1105 0028 14D0     		beq	.L193
 1106 002a 0244     		add	r2, r2, r0
 1107 002c B932     		adds	r2, r2, #185
 1108 002e 00F1BA03 		add	r3, r0, #186
 1109 0032 03E0     		b	.L188
 1110              	.L189:
 1111 0034 13F9011B 		ldrsb	r1, [r3], #1
 1112 0038 A142     		cmp	r1, r4
 1113 003a 0BD0     		beq	.L193
 1114              	.L188:
 1115 003c 9A42     		cmp	r2, r3
 1116 003e F9D1     		bne	.L189
 1117              	.L187:
 1118 0040 0068     		ldr	r0, [r0]
 1119 0042 0028     		cmp	r0, #0
 1120 0044 EAD1     		bne	.L190
 1121              	.L191:
 1122 0046 0446     		mov	r4, r0
 1123 0048 6846     		mov	r0, sp
 1124 004a FFF7FEFF 		bl	_ZN11MutexLockerD1Ev
 1125 004e 2046     		mov	r0, r4
 1126 0050 03B0     		add	sp, sp, #12
 1127              		@ sp needed
 1128 0052 30BD     		pop	{r4, r5, pc}
 1129              	.L193:
 1130 0054 6846     		mov	r0, sp
 1131 0056 FFF7FEFF 		bl	_ZN11MutexLockerD1Ev
 1132 005a 0124     		movs	r4, #1
 1133 005c 2046     		mov	r0, r4
 1134 005e 03B0     		add	sp, sp, #12
 1135              		@ sp needed
 1136 0060 30BD     		pop	{r4, r5, pc}
 1137              		.size	_ZNK6RepRap22IsHeaterAssignedToToolEa, .-_ZNK6RepRap22IsHeaterAssignedToToolEa
 1138 0062 00BF     		.section	.text._ZNK6RepRap26GetNumberOfContiguousToolsEv,"ax",%progbits
 1139              		.align	1
 1140              		.p2align 2,,3
ARM GAS  C:\Users\paja\AppData\Local\Temp\ccY4oRD5.s 			page 21


 1141              		.global	_ZNK6RepRap26GetNumberOfContiguousToolsEv
 1142              		.syntax unified
 1143              		.thumb
 1144              		.thumb_func
 1145              		.fpu fpv4-sp-d16
 1146              		.type	_ZNK6RepRap26GetNumberOfContiguousToolsEv, %function
 1147              	_ZNK6RepRap26GetNumberOfContiguousToolsEv:
 1148              		@ args = 0, pretend = 0, frame = 0
 1149              		@ frame_needed = 0, uses_anonymous_args = 0
 1150 0000 38B5     		push	{r3, r4, r5, lr}
 1151 0002 0546     		mov	r5, r0
 1152 0004 0024     		movs	r4, #0
 1153 0006 00E0     		b	.L201
 1154              	.L203:
 1155 0008 0134     		adds	r4, r4, #1
 1156              	.L201:
 1157 000a 2146     		mov	r1, r4
 1158 000c 2846     		mov	r0, r5
 1159 000e FFF7FEFF 		bl	_ZNK6RepRap7GetToolEi
 1160 0012 0028     		cmp	r0, #0
 1161 0014 F8D1     		bne	.L203
 1162 0016 2046     		mov	r0, r4
 1163 0018 38BD     		pop	{r3, r4, r5, pc}
 1164              		.size	_ZNK6RepRap26GetNumberOfContiguousToolsEv, .-_ZNK6RepRap26GetNumberOfContiguousToolsEv
 1165 001a 00BF     		.section	.text._ZN6RepRap4TickEv,"ax",%progbits
 1166              		.align	1
 1167              		.p2align 2,,3
 1168              		.global	_ZN6RepRap4TickEv
 1169              		.syntax unified
 1170              		.thumb
 1171              		.thumb_func
 1172              		.fpu fpv4-sp-d16
 1173              		.type	_ZN6RepRap4TickEv, %function
 1174              	_ZN6RepRap4TickEv:
 1175              		@ args = 0, pretend = 0, frame = 0
 1176              		@ frame_needed = 0, uses_anonymous_args = 0
 1177 0000 90F80D31 		ldrb	r3, [r0, #269]	@ zero_extendqisi2
 1178 0004 03B9     		cbnz	r3, .L217
 1179 0006 7047     		bx	lr
 1180              	.L217:
 1181 0008 70B5     		push	{r4, r5, r6, lr}
 1182 000a 0446     		mov	r4, r0
 1183 000c 2DED028B 		vpush.64	{d8}
 1184 0010 2148     		ldr	r0, .L219
 1185 0012 FFF7FEFF 		bl	wdt_restart
 1186 0016 2148     		ldr	r0, .L219+4
 1187 0018 FFF7FEFF 		bl	rswdt_restart
 1188 001c 94F80E31 		ldrb	r3, [r4, #270]	@ zero_extendqisi2
 1189 0020 13B1     		cbz	r3, .L218
 1190              	.L204:
 1191 0022 BDEC028B 		vldm	sp!, {d8}
 1192 0026 70BD     		pop	{r4, r5, r6, pc}
 1193              	.L218:
 1194 0028 6068     		ldr	r0, [r4, #4]
 1195 002a FFF7FEFF 		bl	_ZN8Platform4TickEv
 1196 002e B4F8FA60 		ldrh	r6, [r4, #250]
 1197 0032 B4F8F830 		ldrh	r3, [r4, #248]
ARM GAS  C:\Users\paja\AppData\Local\Temp\ccY4oRD5.s 			page 22


 1198 0036 0136     		adds	r6, r6, #1
 1199 0038 B6B2     		uxth	r6, r6
 1200 003a 0133     		adds	r3, r3, #1
 1201 003c 44F61F62 		movw	r2, #19999
 1202 0040 9BB2     		uxth	r3, r3
 1203 0042 9642     		cmp	r6, r2
 1204 0044 A4F8F830 		strh	r3, [r4, #248]	@ movhi
 1205 0048 A4F8FA60 		strh	r6, [r4, #250]	@ movhi
 1206 004c 01D8     		bhi	.L208
 1207 004e 9342     		cmp	r3, r2
 1208 0050 E7D9     		bls	.L204
 1209              	.L208:
 1210 0052 0123     		movs	r3, #1
 1211 0054 9FED128A 		vldr.32	s16, .L219+8
 1212 0058 84F80E31 		strb	r3, [r4, #270]
 1213 005c 0025     		movs	r5, #0
 1214              	.L209:
 1215 005e 2946     		mov	r1, r5
 1216 0060 0022     		movs	r2, #0
 1217 0062 B0EE480A 		vmov.f32	s0, s16
 1218 0066 6068     		ldr	r0, [r4, #4]
 1219 0068 0135     		adds	r5, r5, #1
 1220 006a FFF7FEFF 		bl	_ZN8Platform9SetHeaterEjft
 1221 006e 082D     		cmp	r5, #8
 1222 0070 F5D1     		bne	.L209
 1223 0072 6068     		ldr	r0, [r4, #4]
 1224 0074 FFF7FEFF 		bl	_ZN8Platform16DisableAllDrivesEv
 1225              		.syntax unified
 1226              	@ 819 "../src/RepRap.cpp" 1
 1227 0078 EFF30982 		mrs r2, psp
 1228              	@ 0 "" 2
 1229              		.thumb
 1230              		.syntax unified
 1231 007c BDEC028B 		vldm	sp!, {d8}
 1232 0080 44F61F61 		movw	r1, #19999
 1233 0084 6068     		ldr	r0, [r4, #4]
 1234 0086 8E42     		cmp	r6, r1
 1235 0088 8CBF     		ite	hi
 1236 008a A021     		movhi	r1, #160
 1237 008c 4021     		movls	r1, #64
 1238 008e 1432     		adds	r2, r2, #20
 1239 0090 BDE87040 		pop	{r4, r5, r6, lr}
 1240 0094 FFF7FEBF 		b	_ZN8Platform13SoftwareResetEtPKm
 1241              	.L220:
 1242              		.align	2
 1243              	.L219:
 1244 0098 50180E40 		.word	1074665552
 1245 009c 00190E40 		.word	1074665728
 1246 00a0 00000000 		.word	0
 1247              		.size	_ZN6RepRap4TickEv, .-_ZN6RepRap4TickEv
 1248              		.section	.text._ZNK6RepRap19SpinTimeoutImminentEv,"ax",%progbits
 1249              		.align	1
 1250              		.p2align 2,,3
 1251              		.global	_ZNK6RepRap19SpinTimeoutImminentEv
 1252              		.syntax unified
 1253              		.thumb
 1254              		.thumb_func
ARM GAS  C:\Users\paja\AppData\Local\Temp\ccY4oRD5.s 			page 23


 1255              		.fpu fpv4-sp-d16
 1256              		.type	_ZNK6RepRap19SpinTimeoutImminentEv, %function
 1257              	_ZNK6RepRap19SpinTimeoutImminentEv:
 1258              		@ args = 0, pretend = 0, frame = 0
 1259              		@ frame_needed = 0, uses_anonymous_args = 0
 1260              		@ link register save eliminated.
 1261 0000 B0F8F800 		ldrh	r0, [r0, #248]
 1262 0004 B0F57A5F 		cmp	r0, #16000
 1263 0008 34BF     		ite	cc
 1264 000a 0020     		movcc	r0, #0
 1265 000c 0120     		movcs	r0, #1
 1266 000e 7047     		bx	lr
 1267              		.size	_ZNK6RepRap19SpinTimeoutImminentEv, .-_ZNK6RepRap19SpinTimeoutImminentEv
 1268              		.section	.text._ZN6RepRap17GetConfigResponseEv,"ax",%progbits
 1269              		.align	1
 1270              		.p2align 2,,3
 1271              		.global	_ZN6RepRap17GetConfigResponseEv
 1272              		.syntax unified
 1273              		.thumb
 1274              		.thumb_func
 1275              		.fpu fpv4-sp-d16
 1276              		.type	_ZN6RepRap17GetConfigResponseEv, %function
 1277              	_ZN6RepRap17GetConfigResponseEv:
 1278              		@ args = 0, pretend = 0, frame = 8
 1279              		@ frame_needed = 0, uses_anonymous_args = 0
 1280 0000 2DE9F043 		push	{r4, r5, r6, r7, r8, r9, lr}
 1281 0004 85B0     		sub	sp, sp, #20
 1282 0006 0446     		mov	r4, r0
 1283 0008 03A8     		add	r0, sp, #12
 1284 000a FFF7FEFF 		bl	_ZN12OutputBuffer8AllocateERPS_
 1285 000e 0028     		cmp	r0, #0
 1286 0010 00F00881 		beq	.L222
 1287 0014 6369     		ldr	r3, [r4, #20]
 1288 0016 8C49     		ldr	r1, .L253
 1289 0018 D3F86083 		ldr	r8, [r3, #864]
 1290 001c 0398     		ldr	r0, [sp, #12]
 1291 001e FFF7FEFF 		bl	_ZN12OutputBuffer4copyEPKc
 1292 0022 B8F1000F 		cmp	r8, #0
 1293 0026 00F00A81 		beq	.L224
 1294 002a DFF86892 		ldr	r9, .L253+76
 1295 002e 0025     		movs	r5, #0
 1296 0030 5B26     		movs	r6, #91
 1297              	.L226:
 1298 0032 6368     		ldr	r3, [r4, #4]
 1299 0034 039F     		ldr	r7, [sp, #12]
 1300 0036 05F5F872 		add	r2, r5, #496
 1301 003a 03EB8203 		add	r3, r3, r2, lsl #2
 1302 003e 0135     		adds	r5, r5, #1
 1303 0040 1868     		ldr	r0, [r3]	@ float
 1304 0042 FFF7FEFF 		bl	__aeabi_f2d
 1305 0046 3246     		mov	r2, r6
 1306 0048 CDE90001 		strd	r0, [sp]
 1307 004c 3846     		mov	r0, r7
 1308 004e 4946     		mov	r1, r9
 1309 0050 FFF7FEFF 		bl	_ZN12OutputBuffer4catfEPKcz
 1310 0054 4545     		cmp	r5, r8
 1311 0056 4FF02C06 		mov	r6, #44
ARM GAS  C:\Users\paja\AppData\Local\Temp\ccY4oRD5.s 			page 24


 1312 005a EAD1     		bne	.L226
 1313 005c 7B49     		ldr	r1, .L253+4
 1314 005e 0398     		ldr	r0, [sp, #12]
 1315 0060 DFF83092 		ldr	r9, .L253+76
 1316 0064 FFF7FEFF 		bl	_ZN12OutputBuffer3catEPKc
 1317 0068 0026     		movs	r6, #0
 1318 006a 5B27     		movs	r7, #91
 1319              	.L227:
 1320 006c 6368     		ldr	r3, [r4, #4]
 1321 006e DDF80C80 		ldr	r8, [sp, #12]
 1322 0072 06F5F372 		add	r2, r6, #486
 1323 0076 03EB8203 		add	r3, r3, r2, lsl #2
 1324 007a 0136     		adds	r6, r6, #1
 1325 007c 5868     		ldr	r0, [r3, #4]	@ float
 1326 007e FFF7FEFF 		bl	__aeabi_f2d
 1327 0082 3A46     		mov	r2, r7
 1328 0084 CDE90001 		strd	r0, [sp]
 1329 0088 4046     		mov	r0, r8
 1330 008a 4946     		mov	r1, r9
 1331 008c FFF7FEFF 		bl	_ZN12OutputBuffer4catfEPKcz
 1332 0090 B542     		cmp	r5, r6
 1333 0092 4FF02C07 		mov	r7, #44
 1334 0096 E9D1     		bne	.L227
 1335              	.L235:
 1336 0098 6D49     		ldr	r1, .L253+8
 1337 009a 0398     		ldr	r0, [sp, #12]
 1338 009c DFF8F481 		ldr	r8, .L253+76
 1339 00a0 FFF7FEFF 		bl	_ZN12OutputBuffer3catEPKc
 1340 00a4 0025     		movs	r5, #0
 1341 00a6 5B26     		movs	r6, #91
 1342              	.L228:
 1343 00a8 6368     		ldr	r3, [r4, #4]
 1344 00aa 039F     		ldr	r7, [sp, #12]
 1345 00ac 03EB8503 		add	r3, r3, r5, lsl #2
 1346 00b0 0135     		adds	r5, r5, #1
 1347 00b2 D3F8AC01 		ldr	r0, [r3, #428]	@ float
 1348 00b6 FFF7FEFF 		bl	__aeabi_f2d
 1349 00ba 3246     		mov	r2, r6
 1350 00bc CDE90001 		strd	r0, [sp]
 1351 00c0 3846     		mov	r0, r7
 1352 00c2 4146     		mov	r1, r8
 1353 00c4 FFF7FEFF 		bl	_ZN12OutputBuffer4catfEPKcz
 1354 00c8 0C2D     		cmp	r5, #12
 1355 00ca 4FF02C06 		mov	r6, #44
 1356 00ce EBD1     		bne	.L228
 1357 00d0 6049     		ldr	r1, .L253+12
 1358 00d2 0398     		ldr	r0, [sp, #12]
 1359 00d4 DFF8BC81 		ldr	r8, .L253+76
 1360 00d8 FFF7FEFF 		bl	_ZN12OutputBuffer3catEPKc
 1361 00dc 0025     		movs	r5, #0
 1362 00de 5B26     		movs	r6, #91
 1363              	.L229:
 1364 00e0 40F28A32 		movw	r2, #906
 1365 00e4 2946     		mov	r1, r5
 1366 00e6 6068     		ldr	r0, [r4, #4]
 1367 00e8 039F     		ldr	r7, [sp, #12]
 1368 00ea FFF7FEFF 		bl	_ZNK8Platform15GetMotorCurrentEji
ARM GAS  C:\Users\paja\AppData\Local\Temp\ccY4oRD5.s 			page 25


 1369 00ee 10EE100A 		vmov	r0, s0
 1370 00f2 FFF7FEFF 		bl	__aeabi_f2d
 1371 00f6 0135     		adds	r5, r5, #1
 1372 00f8 CDE90001 		strd	r0, [sp]
 1373 00fc 3246     		mov	r2, r6
 1374 00fe 3846     		mov	r0, r7
 1375 0100 4146     		mov	r1, r8
 1376 0102 FFF7FEFF 		bl	_ZN12OutputBuffer4catfEPKcz
 1377 0106 0C2D     		cmp	r5, #12
 1378 0108 4FF02C06 		mov	r6, #44
 1379 010c E8D1     		bne	.L229
 1380 010e 6068     		ldr	r0, [r4, #4]
 1381 0110 039D     		ldr	r5, [sp, #12]
 1382 0112 FFF7FEFF 		bl	_ZNK8Platform20GetElectronicsStringEv
 1383 0116 5049     		ldr	r1, .L253+16
 1384 0118 0246     		mov	r2, r0
 1385 011a 2846     		mov	r0, r5
 1386 011c FFF7FEFF 		bl	_ZN12OutputBuffer4catfEPKcz
 1387 0120 FFF7FEFF 		bl	_ZN13DuetExpansion21GetExpansionBoardNameEv
 1388 0124 20B1     		cbz	r0, .L230
 1389 0126 0246     		mov	r2, r0
 1390 0128 4C49     		ldr	r1, .L253+20
 1391 012a 0398     		ldr	r0, [sp, #12]
 1392 012c FFF7FEFF 		bl	_ZN12OutputBuffer4catfEPKcz
 1393              	.L230:
 1394 0130 FFF7FEFF 		bl	_ZN13DuetExpansion31GetAdditionalExpansionBoardNameEv
 1395 0134 20B1     		cbz	r0, .L231
 1396 0136 0246     		mov	r2, r0
 1397 0138 4849     		ldr	r1, .L253+20
 1398 013a 0398     		ldr	r0, [sp, #12]
 1399 013c FFF7FEFF 		bl	_ZN12OutputBuffer4catfEPKcz
 1400              	.L231:
 1401 0140 474A     		ldr	r2, .L253+24
 1402 0142 4849     		ldr	r1, .L253+28
 1403 0144 0398     		ldr	r0, [sp, #12]
 1404 0146 FFF7FEFF 		bl	_ZN12OutputBuffer4catfEPKcz
 1405 014a 474A     		ldr	r2, .L253+32
 1406 014c 4749     		ldr	r1, .L253+36
 1407 014e 0398     		ldr	r0, [sp, #12]
 1408 0150 FFF7FEFF 		bl	_ZN12OutputBuffer4catfEPKcz
 1409 0154 6068     		ldr	r0, [r4, #4]
 1410 0156 FFF7FEFF 		bl	_ZNK8Platform10IsDuetWiFiEv
 1411 015a 0028     		cmp	r0, #0
 1412 015c 65D1     		bne	.L252
 1413              	.L232:
 1414 015e 444A     		ldr	r2, .L253+40
 1415 0160 4449     		ldr	r1, .L253+44
 1416 0162 0398     		ldr	r0, [sp, #12]
 1417 0164 DFF82C81 		ldr	r8, .L253+76
 1418 0168 FFF7FEFF 		bl	_ZN12OutputBuffer4catfEPKcz
 1419 016c 6368     		ldr	r3, [r4, #4]
 1420 016e DFED427A 		vldr.32	s15, .L253+48
 1421 0172 03F58363 		add	r3, r3, #1048
 1422 0176 93ED007A 		vldr.32	s14, [r3]
 1423 017a 67EE277A 		vmul.f32	s15, s14, s15
 1424 017e 5B26     		movs	r6, #91
 1425 0180 17EE900A 		vmov	r0, s15
ARM GAS  C:\Users\paja\AppData\Local\Temp\ccY4oRD5.s 			page 26


 1426 0184 FFF7FEFF 		bl	__aeabi_f2d
 1427 0188 0246     		mov	r2, r0
 1428 018a 0B46     		mov	r3, r1
 1429 018c 0398     		ldr	r0, [sp, #12]
 1430 018e 3B49     		ldr	r1, .L253+52
 1431 0190 FFF7FEFF 		bl	_ZN12OutputBuffer4catfEPKcz
 1432 0194 E068     		ldr	r0, [r4, #12]
 1433 0196 039D     		ldr	r5, [sp, #12]
 1434 0198 FFF7FEFF 		bl	_ZNK4Move11IdleTimeoutEv
 1435 019c 10EE100A 		vmov	r0, s0
 1436 01a0 FFF7FEFF 		bl	__aeabi_f2d
 1437 01a4 0246     		mov	r2, r0
 1438 01a6 0B46     		mov	r3, r1
 1439 01a8 2846     		mov	r0, r5
 1440 01aa 3549     		ldr	r1, .L253+56
 1441 01ac FFF7FEFF 		bl	_ZN12OutputBuffer4catfEPKcz
 1442 01b0 3449     		ldr	r1, .L253+60
 1443 01b2 0398     		ldr	r0, [sp, #12]
 1444 01b4 FFF7FEFF 		bl	_ZN12OutputBuffer3catEPKc
 1445 01b8 0025     		movs	r5, #0
 1446              	.L233:
 1447 01ba 6368     		ldr	r3, [r4, #4]
 1448 01bc 039F     		ldr	r7, [sp, #12]
 1449 01be 03EB8503 		add	r3, r3, r5, lsl #2
 1450 01c2 0135     		adds	r5, r5, #1
 1451 01c4 D3F80C02 		ldr	r0, [r3, #524]	@ float
 1452 01c8 FFF7FEFF 		bl	__aeabi_f2d
 1453 01cc 3246     		mov	r2, r6
 1454 01ce CDE90001 		strd	r0, [sp]
 1455 01d2 3846     		mov	r0, r7
 1456 01d4 4146     		mov	r1, r8
 1457 01d6 FFF7FEFF 		bl	_ZN12OutputBuffer4catfEPKcz
 1458 01da 0C2D     		cmp	r5, #12
 1459 01dc 4FF02C06 		mov	r6, #44
 1460 01e0 EBD1     		bne	.L233
 1461 01e2 2949     		ldr	r1, .L253+64
 1462 01e4 0398     		ldr	r0, [sp, #12]
 1463 01e6 DFF8AC80 		ldr	r8, .L253+76
 1464 01ea FFF7FEFF 		bl	_ZN12OutputBuffer3catEPKc
 1465 01ee 0025     		movs	r5, #0
 1466 01f0 5B26     		movs	r6, #91
 1467              	.L234:
 1468 01f2 6368     		ldr	r3, [r4, #4]
 1469 01f4 039F     		ldr	r7, [sp, #12]
 1470 01f6 03EB8503 		add	r3, r3, r5, lsl #2
 1471 01fa 0135     		adds	r5, r5, #1
 1472 01fc D3F87C01 		ldr	r0, [r3, #380]	@ float
 1473 0200 FFF7FEFF 		bl	__aeabi_f2d
 1474 0204 3246     		mov	r2, r6
 1475 0206 CDE90001 		strd	r0, [sp]
 1476 020a 3846     		mov	r0, r7
 1477 020c 4146     		mov	r1, r8
 1478 020e FFF7FEFF 		bl	_ZN12OutputBuffer4catfEPKcz
 1479 0212 0C2D     		cmp	r5, #12
 1480 0214 4FF02C06 		mov	r6, #44
 1481 0218 EBD1     		bne	.L234
 1482 021a 1C49     		ldr	r1, .L253+68
ARM GAS  C:\Users\paja\AppData\Local\Temp\ccY4oRD5.s 			page 27


 1483 021c 0398     		ldr	r0, [sp, #12]
 1484 021e FFF7FEFF 		bl	_ZN12OutputBuffer3catEPKc
 1485 0222 0398     		ldr	r0, [sp, #12]
 1486              	.L222:
 1487 0224 05B0     		add	sp, sp, #20
 1488              		@ sp needed
 1489 0226 BDE8F083 		pop	{r4, r5, r6, r7, r8, r9, pc}
 1490              	.L252:
 1491 022a A068     		ldr	r0, [r4, #8]
 1492 022c 039D     		ldr	r5, [sp, #12]
 1493 022e FFF7FEFF 		bl	_ZNK7Network20GetWiFiServerVersionEv
 1494 0232 1749     		ldr	r1, .L253+72
 1495 0234 0246     		mov	r2, r0
 1496 0236 2846     		mov	r0, r5
 1497 0238 FFF7FEFF 		bl	_ZN12OutputBuffer4catfEPKcz
 1498 023c 8FE7     		b	.L232
 1499              	.L224:
 1500 023e 0349     		ldr	r1, .L253+4
 1501 0240 0398     		ldr	r0, [sp, #12]
 1502 0242 FFF7FEFF 		bl	_ZN12OutputBuffer3catEPKc
 1503 0246 27E7     		b	.L235
 1504              	.L254:
 1505              		.align	2
 1506              	.L253:
 1507 0248 00000000 		.word	.LC13
 1508 024c 28010000 		.word	.LC29
 1509 0250 18000000 		.word	.LC15
 1510 0254 2C000000 		.word	.LC16
 1511 0258 3C000000 		.word	.LC17
 1512 025c 58000000 		.word	.LC18
 1513 0260 24000000 		.word	.LC4
 1514 0264 60000000 		.word	.LC19
 1515 0268 68000000 		.word	.LC6
 1516 026c 78000000 		.word	.LC20
 1517 0270 A4000000 		.word	.LC22
 1518 0274 B4000000 		.word	.LC23
 1519 0278 0000C842 		.word	1120403456
 1520 027c CC000000 		.word	.LC24
 1521 0280 E8000000 		.word	.LC25
 1522 0284 FC000000 		.word	.LC26
 1523 0288 10010000 		.word	.LC27
 1524 028c 24010000 		.word	.LC28
 1525 0290 90000000 		.word	.LC21
 1526 0294 10000000 		.word	.LC14
 1527              		.size	_ZN6RepRap17GetConfigResponseEv, .-_ZN6RepRap17GetConfigResponseEv
 1528              		.section	.text._ZN6RepRap16GetFilesResponseEPKcjb,"ax",%progbits
 1529              		.align	1
 1530              		.p2align 2,,3
 1531              		.global	_ZN6RepRap16GetFilesResponseEPKcjb
 1532              		.syntax unified
 1533              		.thumb
 1534              		.thumb_func
 1535              		.fpu fpv4-sp-d16
 1536              		.type	_ZN6RepRap16GetFilesResponseEPKcjb, %function
 1537              	_ZN6RepRap16GetFilesResponseEPKcjb:
 1538              		@ args = 0, pretend = 0, frame = 144
 1539              		@ frame_needed = 0, uses_anonymous_args = 0
ARM GAS  C:\Users\paja\AppData\Local\Temp\ccY4oRD5.s 			page 28


 1540 0000 2DE9F047 		push	{r4, r5, r6, r7, r8, r9, r10, lr}
 1541 0004 A6B0     		sub	sp, sp, #152
 1542 0006 0746     		mov	r7, r0
 1543 0008 03A8     		add	r0, sp, #12
 1544 000a 0E46     		mov	r6, r1
 1545 000c 9046     		mov	r8, r2
 1546 000e 9946     		mov	r9, r3
 1547 0010 FFF7FEFF 		bl	_ZN12OutputBuffer8AllocateERPS_
 1548 0014 50B3     		cbz	r0, .L255
 1549 0016 3F49     		ldr	r1, .L281
 1550 0018 0398     		ldr	r0, [sp, #12]
 1551 001a FFF7FEFF 		bl	_ZN12OutputBuffer4copyEPKc
 1552 001e 3046     		mov	r0, r6
 1553 0020 FFF7FEFF 		bl	strlen
 1554 0024 039B     		ldr	r3, [sp, #12]
 1555 0026 0024     		movs	r4, #0
 1556 0028 0125     		movs	r5, #1
 1557 002a 0246     		mov	r2, r0
 1558 002c 3146     		mov	r1, r6
 1559 002e 1846     		mov	r0, r3
 1560 0030 0194     		str	r4, [sp, #4]
 1561 0032 2346     		mov	r3, r4
 1562 0034 0095     		str	r5, [sp]
 1563 0036 FFF7FEFF 		bl	_ZN12OutputBuffer12EncodeStringEPKcjbbb
 1564 003a 3749     		ldr	r1, .L281+4
 1565 003c 0398     		ldr	r0, [sp, #12]
 1566 003e 4246     		mov	r2, r8
 1567 0040 FFF7FEFF 		bl	_ZN12OutputBuffer4catfEPKcz
 1568 0044 7B68     		ldr	r3, [r7, #4]
 1569 0046 3146     		mov	r1, r6
 1570 0048 D3F8DC0B 		ldr	r0, [r3, #3036]
 1571 004c FFF7FEFF 		bl	_ZN11MassStorage17CheckDriveMountedEPKc
 1572 0050 78B1     		cbz	r0, .L268
 1573 0052 7B68     		ldr	r3, [r7, #4]
 1574 0054 3146     		mov	r1, r6
 1575 0056 D3F8DC0B 		ldr	r0, [r3, #3036]
 1576 005a FFF7FEFF 		bl	_ZNK11MassStorage15DirectoryExistsEPKc
 1577 005e 50B9     		cbnz	r0, .L279
 1578 0060 0222     		movs	r2, #2
 1579              	.L257:
 1580 0062 2E49     		ldr	r1, .L281+8
 1581 0064 0398     		ldr	r0, [sp, #12]
 1582 0066 FFF7FEFF 		bl	_ZN12OutputBuffer4catfEPKcz
 1583              	.L266:
 1584 006a 0398     		ldr	r0, [sp, #12]
 1585              	.L255:
 1586 006c 26B0     		add	sp, sp, #152
 1587              		@ sp needed
 1588 006e BDE8F087 		pop	{r4, r5, r6, r7, r8, r9, r10, pc}
 1589              	.L268:
 1590 0072 2A46     		mov	r2, r5
 1591 0074 F5E7     		b	.L257
 1592              	.L279:
 1593 0076 7B68     		ldr	r3, [r7, #4]
 1594 0078 3146     		mov	r1, r6
 1595 007a D3F8DC0B 		ldr	r0, [r3, #3036]
 1596 007e 04AA     		add	r2, sp, #16
ARM GAS  C:\Users\paja\AppData\Local\Temp\ccY4oRD5.s 			page 29


 1597 0080 FFF7FEFF 		bl	_ZN11MassStorage9FindFirstEPKcR8FileInfo
 1598 0084 8246     		mov	r10, r0
 1599 0086 0398     		ldr	r0, [sp, #12]
 1600 0088 FFF7FEFF 		bl	_ZN12OutputBuffer12GetBytesLeftEPKS_
 1601 008c 0646     		mov	r6, r0
 1602 008e BAF1000F 		cmp	r10, #0
 1603 0092 2ED0     		beq	.L258
 1604              	.L265:
 1605 0094 9DF81130 		ldrb	r3, [sp, #17]	@ zero_extendqisi2
 1606 0098 2E2B     		cmp	r3, #46
 1607 009a 22D0     		beq	.L259
 1608 009c A045     		cmp	r8, r4
 1609 009e 1FD8     		bhi	.L260
 1610 00a0 0DF11100 		add	r0, sp, #17
 1611 00a4 FFF7FEFF 		bl	strlen
 1612 00a8 0A30     		adds	r0, r0, #10
 1613 00aa B6EB400F 		cmp	r6, r0, lsl #1
 1614 00ae 2AD3     		bcc	.L280
 1615 00b0 A045     		cmp	r8, r4
 1616 00b2 039B     		ldr	r3, [sp, #12]
 1617 00b4 05D0     		beq	.L263
 1618 00b6 1846     		mov	r0, r3
 1619 00b8 2C21     		movs	r1, #44
 1620 00ba FFF7FEFF 		bl	_ZN12OutputBuffer3catEc
 1621 00be 039B     		ldr	r3, [sp, #12]
 1622 00c0 361A     		subs	r6, r6, r0
 1623              	.L263:
 1624 00c2 B9F1000F 		cmp	r9, #0
 1625 00c6 1CD0     		beq	.L270
 1626 00c8 9DF81020 		ldrb	r2, [sp, #16]	@ zero_extendqisi2
 1627              	.L264:
 1628 00cc CDE90052 		strd	r5, r2, [sp]
 1629 00d0 1846     		mov	r0, r3
 1630 00d2 7822     		movs	r2, #120
 1631 00d4 0023     		movs	r3, #0
 1632 00d6 0DF11101 		add	r1, sp, #17
 1633 00da FFF7FEFF 		bl	_ZN12OutputBuffer12EncodeStringEPKcjbbb
 1634 00de 361A     		subs	r6, r6, r0
 1635              	.L260:
 1636 00e0 0134     		adds	r4, r4, #1
 1637              	.L259:
 1638 00e2 7B68     		ldr	r3, [r7, #4]
 1639 00e4 04A9     		add	r1, sp, #16
 1640 00e6 D3F8DC0B 		ldr	r0, [r3, #3036]
 1641 00ea FFF7FEFF 		bl	_ZN11MassStorage8FindNextER8FileInfo
 1642 00ee 0028     		cmp	r0, #0
 1643 00f0 D0D1     		bne	.L265
 1644              	.L258:
 1645 00f2 0024     		movs	r4, #0
 1646              	.L262:
 1647 00f4 2246     		mov	r2, r4
 1648 00f6 0023     		movs	r3, #0
 1649 00f8 0949     		ldr	r1, .L281+12
 1650 00fa 0398     		ldr	r0, [sp, #12]
 1651 00fc FFF7FEFF 		bl	_ZN12OutputBuffer4catfEPKcz
 1652 0100 B3E7     		b	.L266
 1653              	.L270:
ARM GAS  C:\Users\paja\AppData\Local\Temp\ccY4oRD5.s 			page 30


 1654 0102 4A46     		mov	r2, r9
 1655 0104 E2E7     		b	.L264
 1656              	.L280:
 1657 0106 7B68     		ldr	r3, [r7, #4]
 1658 0108 D3F8DC0B 		ldr	r0, [r3, #3036]
 1659 010c FFF7FEFF 		bl	_ZN11MassStorage15AbandonFindNextEv
 1660 0110 F0E7     		b	.L262
 1661              	.L282:
 1662 0112 00BF     		.align	2
 1663              	.L281:
 1664 0114 00000000 		.word	.LC30
 1665 0118 08000000 		.word	.LC31
 1666 011c 38000000 		.word	.LC33
 1667 0120 20000000 		.word	.LC32
 1668              		.size	_ZN6RepRap16GetFilesResponseEPKcjb, .-_ZN6RepRap16GetFilesResponseEPKcjb
 1669              		.section	.text._ZN6RepRap19GetFilelistResponseEPKcj,"ax",%progbits
 1670              		.align	1
 1671              		.p2align 2,,3
 1672              		.global	_ZN6RepRap19GetFilelistResponseEPKcj
 1673              		.syntax unified
 1674              		.thumb
 1675              		.thumb_func
 1676              		.fpu fpv4-sp-d16
 1677              		.type	_ZN6RepRap19GetFilelistResponseEPKcj, %function
 1678              	_ZN6RepRap19GetFilelistResponseEPKcj:
 1679              		@ args = 0, pretend = 0, frame = 144
 1680              		@ frame_needed = 0, uses_anonymous_args = 0
 1681 0000 2DE9F047 		push	{r4, r5, r6, r7, r8, r9, r10, lr}
 1682 0004 A8B0     		sub	sp, sp, #160
 1683 0006 0646     		mov	r6, r0
 1684 0008 05A8     		add	r0, sp, #20
 1685 000a 0C46     		mov	r4, r1
 1686 000c 9046     		mov	r8, r2
 1687 000e FFF7FEFF 		bl	_ZN12OutputBuffer8AllocateERPS_
 1688 0012 50B3     		cbz	r0, .L283
 1689 0014 5649     		ldr	r1, .L311
 1690 0016 0598     		ldr	r0, [sp, #20]
 1691 0018 FFF7FEFF 		bl	_ZN12OutputBuffer4copyEPKc
 1692 001c 2046     		mov	r0, r4
 1693 001e FFF7FEFF 		bl	strlen
 1694 0022 059B     		ldr	r3, [sp, #20]
 1695 0024 0025     		movs	r5, #0
 1696 0026 0127     		movs	r7, #1
 1697 0028 0246     		mov	r2, r0
 1698 002a 2146     		mov	r1, r4
 1699 002c 1846     		mov	r0, r3
 1700 002e 0195     		str	r5, [sp, #4]
 1701 0030 2B46     		mov	r3, r5
 1702 0032 0097     		str	r7, [sp]
 1703 0034 FFF7FEFF 		bl	_ZN12OutputBuffer12EncodeStringEPKcjbbb
 1704 0038 4E49     		ldr	r1, .L311+4
 1705 003a 0598     		ldr	r0, [sp, #20]
 1706 003c 4246     		mov	r2, r8
 1707 003e FFF7FEFF 		bl	_ZN12OutputBuffer4catfEPKcz
 1708 0042 7368     		ldr	r3, [r6, #4]
 1709 0044 2146     		mov	r1, r4
 1710 0046 D3F8DC0B 		ldr	r0, [r3, #3036]
ARM GAS  C:\Users\paja\AppData\Local\Temp\ccY4oRD5.s 			page 31


 1711 004a FFF7FEFF 		bl	_ZN11MassStorage17CheckDriveMountedEPKc
 1712 004e 78B1     		cbz	r0, .L297
 1713 0050 7368     		ldr	r3, [r6, #4]
 1714 0052 2146     		mov	r1, r4
 1715 0054 D3F8DC0B 		ldr	r0, [r3, #3036]
 1716 0058 FFF7FEFF 		bl	_ZNK11MassStorage15DirectoryExistsEPKc
 1717 005c 50B9     		cbnz	r0, .L308
 1718 005e 0222     		movs	r2, #2
 1719              	.L285:
 1720 0060 4549     		ldr	r1, .L311+8
 1721 0062 0598     		ldr	r0, [sp, #20]
 1722 0064 FFF7FEFF 		bl	_ZN12OutputBuffer4catfEPKcz
 1723              	.L295:
 1724 0068 0598     		ldr	r0, [sp, #20]
 1725              	.L283:
 1726 006a 28B0     		add	sp, sp, #160
 1727              		@ sp needed
 1728 006c BDE8F087 		pop	{r4, r5, r6, r7, r8, r9, r10, pc}
 1729              	.L297:
 1730 0070 3A46     		mov	r2, r7
 1731 0072 F5E7     		b	.L285
 1732              	.L308:
 1733 0074 7368     		ldr	r3, [r6, #4]
 1734 0076 2146     		mov	r1, r4
 1735 0078 D3F8DC0B 		ldr	r0, [r3, #3036]
 1736 007c 06AA     		add	r2, sp, #24
 1737 007e FFF7FEFF 		bl	_ZN11MassStorage9FindFirstEPKcR8FileInfo
 1738 0082 0746     		mov	r7, r0
 1739 0084 0598     		ldr	r0, [sp, #20]
 1740 0086 FFF7FEFF 		bl	_ZN12OutputBuffer12GetBytesLeftEPKS_
 1741 008a 0446     		mov	r4, r0
 1742 008c 002F     		cmp	r7, #0
 1743 008e 61D0     		beq	.L286
 1744 0090 DFF8F090 		ldr	r9, .L311+20
 1745 0094 394F     		ldr	r7, .L311+12
 1746 0096 DFF8F0A0 		ldr	r10, .L311+24
 1747 009a 0CE0     		b	.L294
 1748              	.L310:
 1749 009c 0598     		ldr	r0, [sp, #20]
 1750 009e FFF7FEFF 		bl	_ZN12OutputBuffer3catEc
 1751 00a2 241A     		subs	r4, r4, r0
 1752              	.L288:
 1753 00a4 0135     		adds	r5, r5, #1
 1754              	.L287:
 1755 00a6 7368     		ldr	r3, [r6, #4]
 1756 00a8 06A9     		add	r1, sp, #24
 1757 00aa D3F8DC0B 		ldr	r0, [r3, #3036]
 1758 00ae FFF7FEFF 		bl	_ZN11MassStorage8FindNextER8FileInfo
 1759 00b2 0028     		cmp	r0, #0
 1760 00b4 4ED0     		beq	.L286
 1761              	.L294:
 1762 00b6 9DF81930 		ldrb	r3, [sp, #25]	@ zero_extendqisi2
 1763 00ba 2E2B     		cmp	r3, #46
 1764 00bc F3D0     		beq	.L287
 1765 00be A845     		cmp	r8, r5
 1766 00c0 0DF11900 		add	r0, sp, #25
 1767 00c4 EED8     		bhi	.L288
ARM GAS  C:\Users\paja\AppData\Local\Temp\ccY4oRD5.s 			page 32


 1768 00c6 FFF7FEFF 		bl	strlen
 1769 00ca 1930     		adds	r0, r0, #25
 1770 00cc B4EB400F 		cmp	r4, r0, lsl #1
 1771 00d0 4FF02C01 		mov	r1, #44
 1772 00d4 45D3     		bcc	.L309
 1773 00d6 059B     		ldr	r3, [sp, #20]
 1774 00d8 A845     		cmp	r8, r5
 1775 00da 1846     		mov	r0, r3
 1776 00dc 03D0     		beq	.L291
 1777 00de FFF7FEFF 		bl	_ZN12OutputBuffer3catEc
 1778 00e2 059B     		ldr	r3, [sp, #20]
 1779 00e4 241A     		subs	r4, r4, r0
 1780              	.L291:
 1781 00e6 9DF81820 		ldrb	r2, [sp, #24]	@ zero_extendqisi2
 1782 00ea 002A     		cmp	r2, #0
 1783 00ec 0CBF     		ite	eq
 1784 00ee 6622     		moveq	r2, #102
 1785 00f0 6422     		movne	r2, #100
 1786 00f2 1846     		mov	r0, r3
 1787 00f4 4946     		mov	r1, r9
 1788 00f6 FFF7FEFF 		bl	_ZN12OutputBuffer4catfEPKcz
 1789 00fa 0023     		movs	r3, #0
 1790 00fc 0122     		movs	r2, #1
 1791 00fe CDE90023 		strd	r2, r3, [sp]
 1792 0102 241A     		subs	r4, r4, r0
 1793 0104 0DF11901 		add	r1, sp, #25
 1794 0108 7822     		movs	r2, #120
 1795 010a 0598     		ldr	r0, [sp, #20]
 1796 010c FFF7FEFF 		bl	_ZN12OutputBuffer12EncodeStringEPKcjbbb
 1797 0110 259A     		ldr	r2, [sp, #148]
 1798 0112 3946     		mov	r1, r7
 1799 0114 241A     		subs	r4, r4, r0
 1800 0116 0598     		ldr	r0, [sp, #20]
 1801 0118 FFF7FEFF 		bl	_ZN12OutputBuffer4catfEPKcz
 1802 011c 241A     		subs	r4, r4, r0
 1803 011e 26A8     		add	r0, sp, #152
 1804 0120 FFF7FEFF 		bl	gmtime
 1805 0124 4369     		ldr	r3, [r0, #20]
 1806 0126 502B     		cmp	r3, #80
 1807 0128 4FF07D01 		mov	r1, #125
 1808 012c 03F26C72 		addw	r2, r3, #1900
 1809 0130 B4DD     		ble	.L310
 1810 0132 0168     		ldr	r1, [r0]
 1811 0134 0369     		ldr	r3, [r0, #16]
 1812 0136 0391     		str	r1, [sp, #12]
 1813 0138 4168     		ldr	r1, [r0, #4]
 1814 013a 0291     		str	r1, [sp, #8]
 1815 013c 8168     		ldr	r1, [r0, #8]
 1816 013e 0191     		str	r1, [sp, #4]
 1817 0140 0599     		ldr	r1, [sp, #20]
 1818 0142 C068     		ldr	r0, [r0, #12]
 1819 0144 0090     		str	r0, [sp]
 1820 0146 0133     		adds	r3, r3, #1
 1821 0148 0846     		mov	r0, r1
 1822 014a 5146     		mov	r1, r10
 1823 014c FFF7FEFF 		bl	_ZN12OutputBuffer4catfEPKcz
 1824 0150 241A     		subs	r4, r4, r0
ARM GAS  C:\Users\paja\AppData\Local\Temp\ccY4oRD5.s 			page 33


 1825 0152 A7E7     		b	.L288
 1826              	.L286:
 1827 0154 0025     		movs	r5, #0
 1828              	.L290:
 1829 0156 2A46     		mov	r2, r5
 1830 0158 0949     		ldr	r1, .L311+16
 1831 015a 0598     		ldr	r0, [sp, #20]
 1832 015c FFF7FEFF 		bl	_ZN12OutputBuffer4catfEPKcz
 1833 0160 82E7     		b	.L295
 1834              	.L309:
 1835 0162 7368     		ldr	r3, [r6, #4]
 1836 0164 D3F8DC0B 		ldr	r0, [r3, #3036]
 1837 0168 FFF7FEFF 		bl	_ZN11MassStorage15AbandonFindNextEv
 1838 016c F3E7     		b	.L290
 1839              	.L312:
 1840 016e 00BF     		.align	2
 1841              	.L311:
 1842 0170 00000000 		.word	.LC30
 1843 0174 08000000 		.word	.LC31
 1844 0178 38000000 		.word	.LC33
 1845 017c 18000000 		.word	.LC35
 1846 0180 50000000 		.word	.LC37
 1847 0184 00000000 		.word	.LC34
 1848 0188 24000000 		.word	.LC36
 1849              		.size	_ZN6RepRap19GetFilelistResponseEPKcj, .-_ZN6RepRap19GetFilelistResponseEPKcj
 1850              		.section	.text._ZN6RepRap19GetFileInfoResponseEPKcRP12OutputBufferb,"ax",%progbits
 1851              		.align	1
 1852              		.p2align 2,,3
 1853              		.global	_ZN6RepRap19GetFileInfoResponseEPKcRP12OutputBufferb
 1854              		.syntax unified
 1855              		.thumb
 1856              		.thumb_func
 1857              		.fpu fpv4-sp-d16
 1858              		.type	_ZN6RepRap19GetFileInfoResponseEPKcRP12OutputBufferb, %function
 1859              	_ZN6RepRap19GetFileInfoResponseEPKcRP12OutputBufferb:
 1860              		@ args = 0, pretend = 0, frame = 136
 1861              		@ frame_needed = 0, uses_anonymous_args = 0
 1862 0000 2DE9F047 		push	{r4, r5, r6, r7, r8, r9, r10, lr}
 1863 0004 1546     		mov	r5, r2
 1864 0006 A6B0     		sub	sp, sp, #152
 1865 0008 11B1     		cbz	r1, .L314
 1866 000a 0A46     		mov	r2, r1
 1867 000c 0978     		ldrb	r1, [r1]	@ zero_extendqisi2
 1868 000e 99B9     		cbnz	r1, .L353
 1869              	.L314:
 1870 0010 006A     		ldr	r0, [r0, #32]
 1871 0012 037B     		ldrb	r3, [r0, #12]	@ zero_extendqisi2
 1872 0014 43B9     		cbnz	r3, .L354
 1873 0016 2846     		mov	r0, r5
 1874 0018 FFF7FEFF 		bl	_ZN12OutputBuffer8AllocateERPS_
 1875 001c 0446     		mov	r4, r0
 1876 001e 50BB     		cbnz	r0, .L352
 1877              	.L324:
 1878 0020 2046     		mov	r0, r4
 1879 0022 26B0     		add	sp, sp, #152
 1880              		@ sp needed
 1881 0024 BDE8F087 		pop	{r4, r5, r6, r7, r8, r9, r10, pc}
ARM GAS  C:\Users\paja\AppData\Local\Temp\ccY4oRD5.s 			page 34


 1882              	.L354:
 1883 0028 2946     		mov	r1, r5
 1884 002a FFF7FEFF 		bl	_ZNK12PrintMonitor27GetPrintingFileInfoResponseERP12OutputBuffer
 1885 002e 0446     		mov	r4, r0
 1886 0030 2046     		mov	r0, r4
 1887 0032 26B0     		add	sp, sp, #152
 1888              		@ sp needed
 1889 0034 BDE8F087 		pop	{r4, r5, r6, r7, r8, r9, r10, pc}
 1890              	.L353:
 1891 0038 4068     		ldr	r0, [r0, #4]
 1892 003a 5049     		ldr	r1, .L360
 1893 003c D0F8DC0B 		ldr	r0, [r0, #3036]
 1894 0040 0093     		str	r3, [sp]
 1895 0042 0024     		movs	r4, #0
 1896 0044 00F5C060 		add	r0, r0, #1536
 1897 0048 04AB     		add	r3, sp, #16
 1898 004a 8DF85E40 		strb	r4, [sp, #94]
 1899 004e FFF7FEFF 		bl	_ZN14FileInfoParser11GetFileInfoEPKcS1_R13GCodeFileInfob
 1900 0052 0446     		mov	r4, r0
 1901 0054 30B1     		cbz	r0, .L315
 1902 0056 9DF85C30 		ldrb	r3, [sp, #92]	@ zero_extendqisi2
 1903 005a 2846     		mov	r0, r5
 1904 005c 3BB1     		cbz	r3, .L316
 1905 005e FFF7FEFF 		bl	_ZN12OutputBuffer8AllocateERPS_
 1906 0062 80B9     		cbnz	r0, .L355
 1907              	.L315:
 1908 0064 0024     		movs	r4, #0
 1909 0066 2046     		mov	r0, r4
 1910 0068 26B0     		add	sp, sp, #152
 1911              		@ sp needed
 1912 006a BDE8F087 		pop	{r4, r5, r6, r7, r8, r9, r10, pc}
 1913              	.L316:
 1914 006e FFF7FEFF 		bl	_ZN12OutputBuffer8AllocateERPS_
 1915 0072 0028     		cmp	r0, #0
 1916 0074 F6D0     		beq	.L315
 1917              	.L352:
 1918 0076 2868     		ldr	r0, [r5]
 1919 0078 4149     		ldr	r1, .L360+4
 1920 007a FFF7FEFF 		bl	_ZN12OutputBuffer4copyEPKc
 1921 007e 2046     		mov	r0, r4
 1922 0080 26B0     		add	sp, sp, #152
 1923              		@ sp needed
 1924 0082 BDE8F087 		pop	{r4, r5, r6, r7, r8, r9, r10, pc}
 1925              	.L355:
 1926 0086 049A     		ldr	r2, [sp, #16]
 1927 0088 3E49     		ldr	r1, .L360+8
 1928 008a 2868     		ldr	r0, [r5]
 1929 008c FFF7FEFF 		bl	_ZN12OutputBuffer6printfEPKcz
 1930 0090 06A8     		add	r0, sp, #24
 1931 0092 FFF7FEFF 		bl	gmtime
 1932 0096 4269     		ldr	r2, [r0, #20]
 1933 0098 502A     		cmp	r2, #80
 1934 009a 5CDC     		bgt	.L356
 1935              	.L317:
 1936 009c 0A98     		ldr	r0, [sp, #40]	@ float
 1937 009e FFF7FEFF 		bl	__aeabi_f2d
 1938 00a2 8046     		mov	r8, r0
ARM GAS  C:\Users\paja\AppData\Local\Temp\ccY4oRD5.s 			page 35


 1939 00a4 0898     		ldr	r0, [sp, #32]	@ float
 1940 00a6 2E68     		ldr	r6, [r5]
 1941 00a8 8946     		mov	r9, r1
 1942 00aa FFF7FEFF 		bl	__aeabi_f2d
 1943 00ae CDE90201 		strd	r0, [sp, #8]
 1944 00b2 0998     		ldr	r0, [sp, #36]	@ float
 1945 00b4 FFF7FEFF 		bl	__aeabi_f2d
 1946 00b8 4246     		mov	r2, r8
 1947 00ba CDE90001 		strd	r0, [sp]
 1948 00be 4B46     		mov	r3, r9
 1949 00c0 3046     		mov	r0, r6
 1950 00c2 3149     		ldr	r1, .L360+12
 1951 00c4 FFF7FEFF 		bl	_ZN12OutputBuffer4catfEPKcz
 1952 00c8 149A     		ldr	r2, [sp, #80]
 1953 00ca 002A     		cmp	r2, #0
 1954 00cc 3ED1     		bne	.L357
 1955              	.L318:
 1956 00ce 159A     		ldr	r2, [sp, #84]
 1957 00d0 2868     		ldr	r0, [r5]
 1958 00d2 002A     		cmp	r2, #0
 1959 00d4 35D1     		bne	.L358
 1960              	.L319:
 1961 00d6 2D49     		ldr	r1, .L360+16
 1962 00d8 FFF7FEFF 		bl	_ZN12OutputBuffer3catEPKc
 1963 00dc 169B     		ldr	r3, [sp, #88]
 1964 00de 5BB3     		cbz	r3, .L359
 1965 00e0 DFF8C0A0 		ldr	r10, .L360+40
 1966 00e4 0DF12C08 		add	r8, sp, #44
 1967 00e8 0026     		movs	r6, #0
 1968 00ea 5B27     		movs	r7, #91
 1969              	.L322:
 1970 00ec 58F8040B 		ldr	r0, [r8], #4	@ float
 1971 00f0 D5F80090 		ldr	r9, [r5]
 1972 00f4 FFF7FEFF 		bl	__aeabi_f2d
 1973 00f8 3A46     		mov	r2, r7
 1974 00fa CDE90001 		strd	r0, [sp]
 1975 00fe 4846     		mov	r0, r9
 1976 0100 5146     		mov	r1, r10
 1977 0102 FFF7FEFF 		bl	_ZN12OutputBuffer4catfEPKcz
 1978 0106 169B     		ldr	r3, [sp, #88]
 1979 0108 0136     		adds	r6, r6, #1
 1980 010a B342     		cmp	r3, r6
 1981 010c 4FF02C07 		mov	r7, #44
 1982 0110 ECD8     		bhi	.L322
 1983              	.L321:
 1984 0112 1F49     		ldr	r1, .L360+20
 1985 0114 2868     		ldr	r0, [r5]
 1986 0116 FFF7FEFF 		bl	_ZN12OutputBuffer3catEPKc
 1987 011a 0023     		movs	r3, #0
 1988 011c 0122     		movs	r2, #1
 1989 011e 2868     		ldr	r0, [r5]
 1990 0120 0DF15E01 		add	r1, sp, #94
 1991 0124 CDE90023 		strd	r2, r3, [sp]
 1992 0128 3222     		movs	r2, #50
 1993 012a FFF7FEFF 		bl	_ZN12OutputBuffer12EncodeStringEPKcjbbb
 1994 012e 2868     		ldr	r0, [r5]
 1995 0130 1849     		ldr	r1, .L360+24
ARM GAS  C:\Users\paja\AppData\Local\Temp\ccY4oRD5.s 			page 36


 1996 0132 FFF7FEFF 		bl	_ZN12OutputBuffer3catEPKc
 1997 0136 73E7     		b	.L324
 1998              	.L359:
 1999 0138 5B21     		movs	r1, #91
 2000 013a 2868     		ldr	r0, [r5]
 2001 013c FFF7FEFF 		bl	_ZN12OutputBuffer3catEc
 2002 0140 E7E7     		b	.L321
 2003              	.L358:
 2004 0142 1549     		ldr	r1, .L360+28
 2005 0144 FFF7FEFF 		bl	_ZN12OutputBuffer4catfEPKcz
 2006 0148 2868     		ldr	r0, [r5]
 2007 014a C4E7     		b	.L319
 2008              	.L357:
 2009 014c 1349     		ldr	r1, .L360+32
 2010 014e 2868     		ldr	r0, [r5]
 2011 0150 FFF7FEFF 		bl	_ZN12OutputBuffer4catfEPKcz
 2012 0154 BBE7     		b	.L318
 2013              	.L356:
 2014 0156 0168     		ldr	r1, [r0]
 2015 0158 0369     		ldr	r3, [r0, #16]
 2016 015a 0391     		str	r1, [sp, #12]
 2017 015c 4168     		ldr	r1, [r0, #4]
 2018 015e 0291     		str	r1, [sp, #8]
 2019 0160 8168     		ldr	r1, [r0, #8]
 2020 0162 0191     		str	r1, [sp, #4]
 2021 0164 2968     		ldr	r1, [r5]
 2022 0166 C068     		ldr	r0, [r0, #12]
 2023 0168 0090     		str	r0, [sp]
 2024 016a 02F26C72 		addw	r2, r2, #1900
 2025 016e 0133     		adds	r3, r3, #1
 2026 0170 0846     		mov	r0, r1
 2027 0172 0B49     		ldr	r1, .L360+36
 2028 0174 FFF7FEFF 		bl	_ZN12OutputBuffer4catfEPKcz
 2029 0178 90E7     		b	.L317
 2030              	.L361:
 2031 017a 00BF     		.align	2
 2032              	.L360:
 2033 017c 00000000 		.word	.LC38
 2034 0180 E8000000 		.word	.LC48
 2035 0184 0C000000 		.word	.LC39
 2036 0188 54000000 		.word	.LC41
 2037 018c BC000000 		.word	.LC44
 2038 0190 D0000000 		.word	.LC46
 2039 0194 E4000000 		.word	.LC47
 2040 0198 A4000000 		.word	.LC43
 2041 019c 90000000 		.word	.LC42
 2042 01a0 24000000 		.word	.LC40
 2043 01a4 C8000000 		.word	.LC45
 2044              		.size	_ZN6RepRap19GetFileInfoResponseEPKcRP12OutputBufferb, .-_ZN6RepRap19GetFileInfoResponseEPKcR
 2045              		.section	.text._ZN6RepRap4BeepEjj,"ax",%progbits
 2046              		.align	1
 2047              		.p2align 2,,3
 2048              		.global	_ZN6RepRap4BeepEjj
 2049              		.syntax unified
 2050              		.thumb
 2051              		.thumb_func
 2052              		.fpu fpv4-sp-d16
ARM GAS  C:\Users\paja\AppData\Local\Temp\ccY4oRD5.s 			page 37


 2053              		.type	_ZN6RepRap4BeepEjj, %function
 2054              	_ZN6RepRap4BeepEjj:
 2055              		@ args = 0, pretend = 0, frame = 0
 2056              		@ frame_needed = 0, uses_anonymous_args = 0
 2057              		@ link register save eliminated.
 2058 0000 30B4     		push	{r4, r5}
 2059 0002 3229     		cmp	r1, #50
 2060 0004 42F21075 		movw	r5, #10000
 2061 0008 38BF     		it	cc
 2062 000a 3221     		movcc	r1, #50
 2063 000c 4368     		ldr	r3, [r0, #4]
 2064 000e 0A2A     		cmp	r2, #10
 2065 0010 38BF     		it	cc
 2066 0012 0A22     		movcc	r2, #10
 2067 0014 A942     		cmp	r1, r5
 2068 0016 28BF     		it	cs
 2069 0018 2946     		movcs	r1, r5
 2070 001a 93F8644B 		ldrb	r4, [r3, #2916]	@ zero_extendqisi2
 2071 001e 4EF66025 		movw	r5, #60000
 2072 0022 AA42     		cmp	r2, r5
 2073 0024 28BF     		it	cs
 2074 0026 2A46     		movcs	r2, r5
 2075 0028 2CB9     		cbnz	r4, .L365
 2076 002a C0F85011 		str	r1, [r0, #336]
 2077 002e C0F85421 		str	r2, [r0, #340]
 2078 0032 30BC     		pop	{r4, r5}
 2079 0034 7047     		bx	lr
 2080              	.L365:
 2081 0036 1846     		mov	r0, r3
 2082 0038 30BC     		pop	{r4, r5}
 2083 003a FFF7FEBF 		b	_ZN8Platform4BeepEii
 2084              		.size	_ZN6RepRap4BeepEjj, .-_ZN6RepRap4BeepEjj
 2085 003e 00BF     		.section	.text._ZN6RepRap10SetMessageEPKc,"ax",%progbits
 2086              		.align	1
 2087              		.p2align 2,,3
 2088              		.global	_ZN6RepRap10SetMessageEPKc
 2089              		.syntax unified
 2090              		.thumb
 2091              		.thumb_func
 2092              		.fpu fpv4-sp-d16
 2093              		.type	_ZN6RepRap10SetMessageEPKc, %function
 2094              	_ZN6RepRap10SetMessageEPKc:
 2095              		@ args = 0, pretend = 0, frame = 0
 2096              		@ frame_needed = 0, uses_anonymous_args = 0
 2097 0000 38B5     		push	{r3, r4, r5, lr}
 2098 0002 0446     		mov	r4, r0
 2099 0004 40F20112 		movw	r2, #257
 2100 0008 00F5AC70 		add	r0, r0, #344
 2101 000c 0D46     		mov	r5, r1
 2102 000e FFF7FEFF 		bl	_Z11SafeStrncpyPcPKcj
 2103 0012 6068     		ldr	r0, [r4, #4]
 2104 0014 90F8643B 		ldrb	r3, [r0, #2916]	@ zero_extendqisi2
 2105 0018 03B9     		cbnz	r3, .L369
 2106 001a 38BD     		pop	{r3, r4, r5, pc}
 2107              	.L369:
 2108 001c 2946     		mov	r1, r5
 2109 001e BDE83840 		pop	{r3, r4, r5, lr}
ARM GAS  C:\Users\paja\AppData\Local\Temp\ccY4oRD5.s 			page 38


 2110 0022 FFF7FEBF 		b	_ZN8Platform14SendAuxMessageEPKc
 2111              		.size	_ZN6RepRap10SetMessageEPKc, .-_ZN6RepRap10SetMessageEPKc
 2112 0026 00BF     		.section	.text._ZN6RepRap8SetAlertEPKcS1_ifm,"ax",%progbits
 2113              		.align	1
 2114              		.p2align 2,,3
 2115              		.global	_ZN6RepRap8SetAlertEPKcS1_ifm
 2116              		.syntax unified
 2117              		.thumb
 2118              		.thumb_func
 2119              		.fpu fpv4-sp-d16
 2120              		.type	_ZN6RepRap8SetAlertEPKcS1_ifm, %function
 2121              	_ZN6RepRap8SetAlertEPKcS1_ifm:
 2122              		@ args = 4, pretend = 0, frame = 16
 2123              		@ frame_needed = 0, uses_anonymous_args = 0
 2124 0000 2DE9F043 		push	{r4, r5, r6, r7, r8, r9, lr}
 2125 0004 2DED028B 		vpush.64	{d8}
 2126 0008 85B0     		sub	sp, sp, #20
 2127 000a 0446     		mov	r4, r0
 2128 000c 8946     		mov	r9, r1
 2129 000e 9046     		mov	r8, r2
 2130 0010 00F18801 		add	r1, r0, #136
 2131 0014 4FF0FF32 		mov	r2, #-1
 2132 0018 6846     		mov	r0, sp
 2133 001a B0EE408A 		vmov.f32	s16, s0
 2134 001e 1F46     		mov	r7, r3
 2135 0020 40F20116 		movw	r6, #257
 2136 0024 0E9D     		ldr	r5, [sp, #56]
 2137 0026 FFF7FEFF 		bl	_ZN11MutexLockerC1ERK5Mutexm
 2138 002a 04F25A23 		addw	r3, r4, #602
 2139 002e 4946     		mov	r1, r9
 2140 0030 02A8     		add	r0, sp, #8
 2141 0032 CDE90236 		strd	r3, r6, [sp, #8]
 2142 0036 FFF7FEFF 		bl	_ZNK9StringRef4copyEPKc
 2143 003a 04F25B33 		addw	r3, r4, #859
 2144 003e 4146     		mov	r1, r8
 2145 0040 02A8     		add	r0, sp, #8
 2146 0042 CDE90236 		strd	r3, r6, [sp, #8]
 2147 0046 FFF7FEFF 		bl	_ZNK9StringRef4copyEPKc
 2148 004a B5EEC08A 		vcmpe.f32	s16, #0
 2149 004e F1EE10FA 		vmrs	APSR_nzcv, FPSCR
 2150 0052 C4F85C74 		str	r7, [r4, #1116]
 2151 0056 2AD8     		bhi	.L377
 2152 0058 0020     		movs	r0, #0
 2153              	.L371:
 2154 005a B4EE488A 		vcmp.f32	s16, s16
 2155 005e F1EE10FA 		vmrs	APSR_nzcv, FPSCR
 2156 0062 C4F86404 		str	r0, [r4, #1124]
 2157 0066 04D6     		bvs	.L374
 2158 0068 B5EEC08A 		vcmpe.f32	s16, #0
 2159 006c F1EE10FA 		vmrs	APSR_nzcv, FPSCR
 2160 0070 20DD     		ble	.L378
 2161              	.L374:
 2162 0072 9FED110A 		vldr.32	s0, .L379
 2163 0076 28EE000A 		vmul.f32	s0, s16, s0
 2164 007a FFF7FEFF 		bl	roundf
 2165 007e FCEEC07A 		vcvt.u32.f32	s15, s0
 2166 0082 17EE902A 		vmov	r2, s15	@ int
ARM GAS  C:\Users\paja\AppData\Local\Temp\ccY4oRD5.s 			page 39


 2167              	.L373:
 2168 0086 D4F86034 		ldr	r3, [r4, #1120]
 2169 008a C4F86824 		str	r2, [r4, #1128]
 2170 008e 0133     		adds	r3, r3, #1
 2171 0090 0122     		movs	r2, #1
 2172 0092 C4F86C54 		str	r5, [r4, #1132]
 2173 0096 6846     		mov	r0, sp
 2174 0098 C4F86034 		str	r3, [r4, #1120]
 2175 009c 84F85922 		strb	r2, [r4, #601]
 2176 00a0 FFF7FEFF 		bl	_ZN11MutexLockerD1Ev
 2177 00a4 05B0     		add	sp, sp, #20
 2178              		@ sp needed
 2179 00a6 BDEC028B 		vldm	sp!, {d8}
 2180 00aa BDE8F083 		pop	{r4, r5, r6, r7, r8, r9, pc}
 2181              	.L377:
 2182 00ae FFF7FEFF 		bl	millis
 2183 00b2 D2E7     		b	.L371
 2184              	.L378:
 2185 00b4 0022     		movs	r2, #0
 2186 00b6 E6E7     		b	.L373
 2187              	.L380:
 2188              		.align	2
 2189              	.L379:
 2190 00b8 00007A44 		.word	1148846080
 2191              		.size	_ZN6RepRap8SetAlertEPKcS1_ifm, .-_ZN6RepRap8SetAlertEPKcS1_ifm
 2192              		.section	.text._ZN6RepRap10ClearAlertEv,"ax",%progbits
 2193              		.align	1
 2194              		.p2align 2,,3
 2195              		.global	_ZN6RepRap10ClearAlertEv
 2196              		.syntax unified
 2197              		.thumb
 2198              		.thumb_func
 2199              		.fpu fpv4-sp-d16
 2200              		.type	_ZN6RepRap10ClearAlertEv, %function
 2201              	_ZN6RepRap10ClearAlertEv:
 2202              		@ args = 0, pretend = 0, frame = 8
 2203              		@ frame_needed = 0, uses_anonymous_args = 0
 2204 0000 10B5     		push	{r4, lr}
 2205 0002 82B0     		sub	sp, sp, #8
 2206 0004 00F18801 		add	r1, r0, #136
 2207 0008 0446     		mov	r4, r0
 2208 000a 4FF0FF32 		mov	r2, #-1
 2209 000e 6846     		mov	r0, sp
 2210 0010 FFF7FEFF 		bl	_ZN11MutexLockerC1ERK5Mutexm
 2211 0014 0023     		movs	r3, #0
 2212 0016 6846     		mov	r0, sp
 2213 0018 84F85932 		strb	r3, [r4, #601]
 2214 001c FFF7FEFF 		bl	_ZN11MutexLockerD1Ev
 2215 0020 02B0     		add	sp, sp, #8
 2216              		@ sp needed
 2217 0022 10BD     		pop	{r4, pc}
 2218              		.size	_ZN6RepRap10ClearAlertEv, .-_ZN6RepRap10ClearAlertEv
 2219              		.section	.text._ZNK6RepRap18GetStatusCharacterEv,"ax",%progbits
 2220              		.align	1
 2221              		.p2align 2,,3
 2222              		.global	_ZNK6RepRap18GetStatusCharacterEv
 2223              		.syntax unified
ARM GAS  C:\Users\paja\AppData\Local\Temp\ccY4oRD5.s 			page 40


 2224              		.thumb
 2225              		.thumb_func
 2226              		.fpu fpv4-sp-d16
 2227              		.type	_ZNK6RepRap18GetStatusCharacterEv, %function
 2228              	_ZNK6RepRap18GetStatusCharacterEv:
 2229              		@ args = 0, pretend = 0, frame = 0
 2230              		@ frame_needed = 0, uses_anonymous_args = 0
 2231 0000 90F80F31 		ldrb	r3, [r0, #271]	@ zero_extendqisi2
 2232 0004 53B9     		cbnz	r3, .L388
 2233 0006 4369     		ldr	r3, [r0, #20]
 2234 0008 93F8B536 		ldrb	r3, [r3, #1717]	@ zero_extendqisi2
 2235 000c 23B9     		cbnz	r3, .L389
 2236 000e 90F80C31 		ldrb	r3, [r0, #268]	@ zero_extendqisi2
 2237 0012 2BB1     		cbz	r3, .L405
 2238 0014 4820     		movs	r0, #72
 2239 0016 7047     		bx	lr
 2240              	.L389:
 2241 0018 4620     		movs	r0, #70
 2242 001a 7047     		bx	lr
 2243              	.L388:
 2244 001c 4320     		movs	r0, #67
 2245 001e 7047     		bx	lr
 2246              	.L405:
 2247 0020 10B5     		push	{r4, lr}
 2248 0022 0446     		mov	r4, r0
 2249 0024 4068     		ldr	r0, [r0, #4]
 2250 0026 FFF7FEFF 		bl	_ZNK8Platform11HasVinPowerEv
 2251 002a A0B9     		cbnz	r0, .L406
 2252 002c 6069     		ldr	r0, [r4, #20]
 2253 002e 90F81836 		ldrb	r3, [r0, #1560]	@ zero_extendqisi2
 2254 0032 23B1     		cbz	r3, .L391
 2255              	.L386:
 2256 0034 FFF7FEFF 		bl	_ZNK6GCodes9IsPausingEv
 2257 0038 18B1     		cbz	r0, .L407
 2258 003a 4420     		movs	r0, #68
 2259 003c 10BD     		pop	{r4, pc}
 2260              	.L391:
 2261 003e 4F20     		movs	r0, #79
 2262 0040 10BD     		pop	{r4, pc}
 2263              	.L407:
 2264 0042 6069     		ldr	r0, [r4, #20]
 2265 0044 FFF7FEFF 		bl	_ZNK6GCodes10IsResumingEv
 2266 0048 38B9     		cbnz	r0, .L393
 2267 004a 6069     		ldr	r0, [r4, #20]
 2268 004c 90F8BA30 		ldrb	r3, [r0, #186]	@ zero_extendqisi2
 2269 0050 2BB1     		cbz	r3, .L408
 2270 0052 5420     		movs	r0, #84
 2271 0054 10BD     		pop	{r4, pc}
 2272              	.L406:
 2273 0056 6069     		ldr	r0, [r4, #20]
 2274 0058 ECE7     		b	.L386
 2275              	.L393:
 2276 005a 5220     		movs	r0, #82
 2277 005c 10BD     		pop	{r4, pc}
 2278              	.L408:
 2279 005e FFF7FEFF 		bl	_ZNK6GCodes8IsPausedEv
 2280 0062 50B9     		cbnz	r0, .L395
ARM GAS  C:\Users\paja\AppData\Local\Temp\ccY4oRD5.s 			page 41


 2281 0064 236A     		ldr	r3, [r4, #32]
 2282 0066 6069     		ldr	r0, [r4, #20]
 2283 0068 1B7B     		ldrb	r3, [r3, #12]	@ zero_extendqisi2
 2284 006a 43B1     		cbz	r3, .L387
 2285 006c 90F81836 		ldrb	r3, [r0, #1560]	@ zero_extendqisi2
 2286 0070 002B     		cmp	r3, #0
 2287 0072 0CBF     		ite	eq
 2288 0074 5020     		moveq	r0, #80
 2289 0076 4D20     		movne	r0, #77
 2290 0078 10BD     		pop	{r4, pc}
 2291              	.L395:
 2292 007a 5320     		movs	r0, #83
 2293 007c 10BD     		pop	{r4, pc}
 2294              	.L387:
 2295 007e FFF7FEFF 		bl	_ZNK6GCodes14DoingFileMacroEv
 2296 0082 20B9     		cbnz	r0, .L399
 2297 0084 E368     		ldr	r3, [r4, #12]
 2298 0086 DA68     		ldr	r2, [r3, #12]
 2299 0088 9968     		ldr	r1, [r3, #8]
 2300 008a 8A42     		cmp	r2, r1
 2301 008c 01D0     		beq	.L409
 2302              	.L399:
 2303 008e 4220     		movs	r0, #66
 2304 0090 10BD     		pop	{r4, pc}
 2305              	.L409:
 2306 0092 127A     		ldrb	r2, [r2, #8]	@ zero_extendqisi2
 2307 0094 002A     		cmp	r2, #0
 2308 0096 FAD1     		bne	.L399
 2309 0098 5B68     		ldr	r3, [r3, #4]
 2310 009a 002B     		cmp	r3, #0
 2311 009c 14BF     		ite	ne
 2312 009e 4220     		movne	r0, #66
 2313 00a0 4920     		moveq	r0, #73
 2314 00a2 10BD     		pop	{r4, pc}
 2315              		.size	_ZNK6RepRap18GetStatusCharacterEv, .-_ZNK6RepRap18GetStatusCharacterEv
 2316              		.global	__aeabi_uldivmod
 2317              		.global	__aeabi_ul2d
 2318              		.section	.text._ZN6RepRap17GetStatusResponseEh14ResponseSource,"ax",%progbits
 2319              		.align	1
 2320              		.p2align 2,,3
 2321              		.global	_ZN6RepRap17GetStatusResponseEh14ResponseSource
 2322              		.syntax unified
 2323              		.thumb
 2324              		.thumb_func
 2325              		.fpu fpv4-sp-d16
 2326              		.type	_ZN6RepRap17GetStatusResponseEh14ResponseSource, %function
 2327              	_ZN6RepRap17GetStatusResponseEh14ResponseSource:
 2328              		@ args = 0, pretend = 0, frame = 88
 2329              		@ frame_needed = 0, uses_anonymous_args = 0
 2330 0000 2DE9F04F 		push	{r4, r5, r6, r7, r8, r9, r10, fp, lr}
 2331 0004 2DED028B 		vpush.64	{d8}
 2332 0008 9BB0     		sub	sp, sp, #108
 2333 000a 0446     		mov	r4, r0
 2334 000c 0BA8     		add	r0, sp, #44
 2335 000e 0691     		str	r1, [sp, #24]
 2336 0010 0892     		str	r2, [sp, #32]
 2337 0012 FFF7FEFF 		bl	_ZN12OutputBuffer8AllocateERPS_
ARM GAS  C:\Users\paja\AppData\Local\Temp\ccY4oRD5.s 			page 42


 2338 0016 0590     		str	r0, [sp, #20]
 2339 0018 0028     		cmp	r0, #0
 2340 001a 00F09B87 		beq	.L533
 2341 001e 2046     		mov	r0, r4
 2342 0020 FFF7FEFF 		bl	_ZNK6RepRap18GetStatusCharacterEv
 2343 0024 C249     		ldr	r1, .L683
 2344 0026 0246     		mov	r2, r0
 2345 0028 0B98     		ldr	r0, [sp, #44]
 2346 002a FFF7FEFF 		bl	_ZN12OutputBuffer6printfEPKcz
 2347 002e 6369     		ldr	r3, [r4, #20]
 2348 0030 C049     		ldr	r1, .L683+4
 2349 0032 D3F86073 		ldr	r7, [r3, #864]
 2350 0036 0B98     		ldr	r0, [sp, #44]
 2351 0038 0797     		str	r7, [sp, #28]
 2352 003a FFF7FEFF 		bl	_ZN12OutputBuffer3catEPKc
 2353 003e 002F     		cmp	r7, #0
 2354 0040 00F0DA87 		beq	.L412
 2355 0044 BC4E     		ldr	r6, .L683+8
 2356 0046 0025     		movs	r5, #0
 2357 0048 5B22     		movs	r2, #91
 2358              	.L414:
 2359 004a 6369     		ldr	r3, [r4, #20]
 2360 004c 0B98     		ldr	r0, [sp, #44]
 2361 004e D3F82C35 		ldr	r3, [r3, #1324]
 2362 0052 EB40     		lsrs	r3, r3, r5
 2363 0054 03F00103 		and	r3, r3, #1
 2364 0058 0135     		adds	r5, r5, #1
 2365 005a 3146     		mov	r1, r6
 2366 005c FFF7FEFF 		bl	_ZN12OutputBuffer4catfEPKcz
 2367 0060 BD42     		cmp	r5, r7
 2368 0062 4FF02C02 		mov	r2, #44
 2369 0066 F0D1     		bne	.L414
 2370 0068 B449     		ldr	r1, .L683+12
 2371 006a 0B98     		ldr	r0, [sp, #44]
 2372 006c B44F     		ldr	r7, .L683+16
 2373 006e FFF7FEFF 		bl	_ZN12OutputBuffer3catEPKc
 2374 0072 6569     		ldr	r5, [r4, #20]
 2375 0074 079B     		ldr	r3, [sp, #28]
 2376 0076 C035     		adds	r5, r5, #192
 2377 0078 05EB8306 		add	r6, r5, r3, lsl #2
 2378 007c 4FF05B08 		mov	r8, #91
 2379 0080 B146     		mov	r9, r6
 2380              	.L416:
 2381 0082 B5EC010A 		vldmia.32	r5!, {s0}
 2382 0086 0B9E     		ldr	r6, [sp, #44]
 2383 0088 FFF7FEFF 		bl	_Z7HideNanf
 2384 008c 4246     		mov	r2, r8
 2385 008e 3046     		mov	r0, r6
 2386 0090 8DED000B 		vstr.64	d0, [sp]
 2387 0094 3946     		mov	r1, r7
 2388 0096 FFF7FEFF 		bl	_ZN12OutputBuffer4catfEPKcz
 2389 009a A945     		cmp	r9, r5
 2390 009c 4FF02C08 		mov	r8, #44
 2391 00a0 EFD1     		bne	.L416
 2392 00a2 D4F8EC20 		ldr	r2, [r4, #236]
 2393 00a6 E068     		ldr	r0, [r4, #12]
 2394 00a8 002A     		cmp	r2, #0
ARM GAS  C:\Users\paja\AppData\Local\Temp\ccY4oRD5.s 			page 43


 2395 00aa 00F03A83 		beq	.L653
 2396 00ae 0EAB     		add	r3, sp, #56
 2397 00b0 1946     		mov	r1, r3
 2398 00b2 0493     		str	r3, [sp, #16]
 2399 00b4 D2E92823 		ldrd	r2, r3, [r2, #160]
 2400 00b8 FFF7FEFF 		bl	_ZN4Move15LiveCoordinatesEPfmm
 2401 00bc A149     		ldr	r1, .L683+20
 2402 00be 0B98     		ldr	r0, [sp, #44]
 2403 00c0 FFF7FEFF 		bl	_ZN12OutputBuffer4catfEPKcz
 2404              	.L526:
 2405 00c4 9E4E     		ldr	r6, .L683+16
 2406 00c6 049F     		ldr	r7, [sp, #16]
 2407 00c8 DDF81C90 		ldr	r9, [sp, #28]
 2408 00cc 0025     		movs	r5, #0
 2409 00ce 4FF05B08 		mov	r8, #91
 2410 00d2 A246     		mov	r10, r4
 2411              	.L417:
 2412 00d4 B7EC010A 		vldmia.32	r7!, {s0}
 2413 00d8 0B9C     		ldr	r4, [sp, #44]
 2414 00da FFF7FEFF 		bl	_Z7HideNanf
 2415 00de 0135     		adds	r5, r5, #1
 2416 00e0 4246     		mov	r2, r8
 2417 00e2 8DED000B 		vstr.64	d0, [sp]
 2418 00e6 2046     		mov	r0, r4
 2419 00e8 3146     		mov	r1, r6
 2420 00ea FFF7FEFF 		bl	_ZN12OutputBuffer4catfEPKcz
 2421 00ee 4D45     		cmp	r5, r9
 2422 00f0 4FF02C08 		mov	r8, #44
 2423 00f4 EED3     		bcc	.L417
 2424 00f6 5446     		mov	r4, r10
 2425              	.L530:
 2426 00f8 9349     		ldr	r1, .L683+24
 2427 00fa 0B98     		ldr	r0, [sp, #44]
 2428 00fc FFF7FEFF 		bl	_ZN12OutputBuffer4catfEPKcz
 2429 0100 B4F8F430 		ldrh	r3, [r4, #244]
 2430 0104 002B     		cmp	r3, #0
 2431 0106 00F01F87 		beq	.L418
 2432 010a 904E     		ldr	r6, .L683+28
 2433 010c 0025     		movs	r5, #0
 2434 010e 4FF05B08 		mov	r8, #91
 2435              	.L419:
 2436 0112 6369     		ldr	r3, [r4, #20]
 2437 0114 0B9F     		ldr	r7, [sp, #44]
 2438 0116 D3F85C33 		ldr	r3, [r3, #860]
 2439 011a 1AAA     		add	r2, sp, #104
 2440 011c 2B44     		add	r3, r3, r5
 2441 011e 02EB8303 		add	r3, r2, r3, lsl #2
 2442 0122 0135     		adds	r5, r5, #1
 2443 0124 53F8300C 		ldr	r0, [r3, #-48]	@ float
 2444 0128 FFF7FEFF 		bl	__aeabi_f2d
 2445 012c 4246     		mov	r2, r8
 2446 012e CDE90001 		strd	r0, [sp]
 2447 0132 3846     		mov	r0, r7
 2448 0134 3146     		mov	r1, r6
 2449 0136 FFF7FEFF 		bl	_ZN12OutputBuffer4catfEPKcz
 2450 013a B4F8F430 		ldrh	r3, [r4, #244]
 2451 013e AB42     		cmp	r3, r5
ARM GAS  C:\Users\paja\AppData\Local\Temp\ccY4oRD5.s 			page 44


 2452 0140 4FF02C08 		mov	r8, #44
 2453 0144 E5D8     		bhi	.L419
 2454              	.L420:
 2455 0146 E068     		ldr	r0, [r4, #12]
 2456 0148 0B9D     		ldr	r5, [sp, #44]
 2457 014a FFF7FEFF 		bl	_ZNK4Move17GetRequestedSpeedEv
 2458 014e E068     		ldr	r0, [r4, #12]
 2459 0150 10EE106A 		vmov	r6, s0
 2460 0154 FFF7FEFF 		bl	_ZNK4Move11GetTopSpeedEv
 2461 0158 3046     		mov	r0, r6	@ float
 2462 015a 8DED090A 		vstr.32	s0, [sp, #36]	@ int
 2463 015e FFF7FEFF 		bl	__aeabi_f2d
 2464 0162 9DED090A 		vldr.32	s0, [sp, #36]	@ int
 2465 0166 0646     		mov	r6, r0
 2466 0168 10EE100A 		vmov	r0, s0
 2467 016c 0F46     		mov	r7, r1
 2468 016e FFF7FEFF 		bl	__aeabi_f2d
 2469 0172 3B46     		mov	r3, r7
 2470 0174 CDE90001 		strd	r0, [sp]
 2471 0178 3246     		mov	r2, r6
 2472 017a 2846     		mov	r0, r5
 2473 017c 7449     		ldr	r1, .L683+32
 2474 017e FFF7FEFF 		bl	_ZN12OutputBuffer4catfEPKcz
 2475 0182 D4F8EC30 		ldr	r3, [r4, #236]
 2476 0186 0B98     		ldr	r0, [sp, #44]
 2477 0188 002B     		cmp	r3, #0
 2478 018a 00F07B85 		beq	.L534
 2479 018e D3F89C20 		ldr	r2, [r3, #156]
 2480              	.L421:
 2481 0192 7049     		ldr	r1, .L683+36
 2482 0194 FFF7FEFF 		bl	_ZN12OutputBuffer4catfEPKcz
 2483 0198 089B     		ldr	r3, [sp, #32]
 2484 019a 012B     		cmp	r3, #1
 2485 019c 04F18801 		add	r1, r4, #136
 2486 01a0 00F0DD84 		beq	.L654
 2487 01a4 6368     		ldr	r3, [r4, #4]
 2488 01a6 94F85851 		ldrb	r5, [r4, #344]	@ zero_extendqisi2
 2489 01aa 93F8643B 		ldrb	r3, [r3, #2916]	@ zero_extendqisi2
 2490 01ae 3BB9     		cbnz	r3, .L424
 2491              	.L423:
 2492 01b0 D4F85431 		ldr	r3, [r4, #340]
 2493 01b4 23B1     		cbz	r3, .L424
 2494 01b6 D4F85031 		ldr	r3, [r4, #336]
 2495 01ba 002B     		cmp	r3, #0
 2496 01bc 40F06685 		bne	.L425
 2497              	.L424:
 2498 01c0 4FF0FF32 		mov	r2, #-1
 2499 01c4 0498     		ldr	r0, [sp, #16]
 2500 01c6 FFF7FEFF 		bl	_ZN11MutexLockerC1ERK5Mutexm
 2501 01ca 94F85932 		ldrb	r3, [r4, #601]	@ zero_extendqisi2
 2502 01ce 002B     		cmp	r3, #0
 2503 01d0 40F0D684 		bne	.L655
 2504 01d4 05B3     		cbz	r5, .L430
 2505 01d6 9FED608A 		vldr.32	s16, .L683+40
 2506              	.L428:
 2507 01da 6049     		ldr	r1, .L683+44
 2508 01dc 0B98     		ldr	r0, [sp, #44]
ARM GAS  C:\Users\paja\AppData\Local\Temp\ccY4oRD5.s 			page 45


 2509 01de FFF7FEFF 		bl	_ZN12OutputBuffer3catEPKc
 2510 01e2 0B98     		ldr	r0, [sp, #44]
 2511              	.L432:
 2512 01e4 5E49     		ldr	r1, .L683+48
 2513 01e6 FFF7FEFF 		bl	_ZN12OutputBuffer3catEPKc
 2514 01ea 0025     		movs	r5, #0
 2515 01ec 0122     		movs	r2, #1
 2516 01ee 2B46     		mov	r3, r5
 2517 01f0 0092     		str	r2, [sp]
 2518 01f2 0B98     		ldr	r0, [sp, #44]
 2519 01f4 0195     		str	r5, [sp, #4]
 2520 01f6 40F20112 		movw	r2, #257
 2521 01fa 04F5AC71 		add	r1, r4, #344
 2522 01fe FFF7FEFF 		bl	_ZN12OutputBuffer12EncodeStringEPKcjbbb
 2523 0202 94F85932 		ldrb	r3, [r4, #601]	@ zero_extendqisi2
 2524 0206 002B     		cmp	r3, #0
 2525 0208 40F05585 		bne	.L434
 2526 020c 84F85831 		strb	r3, [r4, #344]
 2527 0210 0B98     		ldr	r0, [sp, #44]
 2528 0212 5449     		ldr	r1, .L683+52
 2529 0214 FFF7FEFF 		bl	_ZN12OutputBuffer3catEPKc
 2530              	.L430:
 2531 0218 0498     		ldr	r0, [sp, #16]
 2532 021a 9FED538A 		vldr.32	s16, .L683+56
 2533 021e 464F     		ldr	r7, .L683+8
 2534 0220 FFF7FEFF 		bl	_ZN11MutexLockerD1Ev
 2535 0224 6068     		ldr	r0, [r4, #4]
 2536 0226 0B9D     		ldr	r5, [sp, #44]
 2537 0228 FFF7FEFF 		bl	_ZNK8Platform8AtxPowerEv
 2538 022c 4F49     		ldr	r1, .L683+60
 2539 022e 0246     		mov	r2, r0
 2540 0230 2846     		mov	r0, r5
 2541 0232 FFF7FEFF 		bl	_ZN12OutputBuffer4catfEPKcz
 2542 0236 4E49     		ldr	r1, .L683+64
 2543 0238 0B98     		ldr	r0, [sp, #44]
 2544 023a FFF7FEFF 		bl	_ZN12OutputBuffer3catEPKc
 2545 023e 0025     		movs	r5, #0
 2546 0240 4FF05B08 		mov	r8, #91
 2547              	.L436:
 2548 0244 2946     		mov	r1, r5
 2549 0246 6068     		ldr	r0, [r4, #4]
 2550 0248 0B9E     		ldr	r6, [sp, #44]
 2551 024a FFF7FEFF 		bl	_ZNK8Platform11GetFanValueEj
 2552 024e 20EE080A 		vmul.f32	s0, s0, s16
 2553 0252 FFF7FEFF 		bl	lrintf
 2554 0256 0135     		adds	r5, r5, #1
 2555 0258 0346     		mov	r3, r0
 2556 025a 4246     		mov	r2, r8
 2557 025c 3946     		mov	r1, r7
 2558 025e 3046     		mov	r0, r6
 2559 0260 FFF7FEFF 		bl	_ZN12OutputBuffer4catfEPKcz
 2560 0264 092D     		cmp	r5, #9
 2561 0266 4FF02C08 		mov	r8, #44
 2562 026a EBD1     		bne	.L436
 2563 026c 4149     		ldr	r1, .L683+68
 2564 026e 0B98     		ldr	r0, [sp, #44]
 2565 0270 FFF7FEFF 		bl	_ZN12OutputBuffer3catEPKc
ARM GAS  C:\Users\paja\AppData\Local\Temp\ccY4oRD5.s 			page 46


 2566 0274 069B     		ldr	r3, [sp, #24]
 2567 0276 022B     		cmp	r3, #2
 2568 0278 00F04086 		beq	.L656
 2569              	.L437:
 2570 027c 6069     		ldr	r0, [r4, #20]
 2571 027e 0B9D     		ldr	r5, [sp, #44]
 2572 0280 FFF7FEFF 		bl	_ZNK6GCodes14GetSpeedFactorEv
 2573 0284 10EE100A 		vmov	r0, s0
 2574 0288 FFF7FEFF 		bl	__aeabi_f2d
 2575 028c 0B46     		mov	r3, r1
 2576 028e 0246     		mov	r2, r0
 2577 0290 3949     		ldr	r1, .L683+72
 2578 0292 2846     		mov	r0, r5
 2579 0294 FFF7FEFF 		bl	_ZN12OutputBuffer4catfEPKcz
 2580 0298 B4F8F430 		ldrh	r3, [r4, #244]
 2581 029c 002B     		cmp	r3, #0
 2582 029e 00F0A786 		beq	.L439
 2583 02a2 9FED318A 		vldr.32	s16, .L683+56
 2584 02a6 294E     		ldr	r6, .L683+28
 2585 02a8 0025     		movs	r5, #0
 2586 02aa 4FF05B08 		mov	r8, #91
 2587              	.L440:
 2588 02ae 2946     		mov	r1, r5
 2589 02b0 6069     		ldr	r0, [r4, #20]
 2590 02b2 0B9F     		ldr	r7, [sp, #44]
 2591 02b4 FFF7FEFF 		bl	_ZN6GCodes18GetExtrusionFactorEj
 2592 02b8 60EE087A 		vmul.f32	s15, s0, s16
 2593 02bc 0135     		adds	r5, r5, #1
 2594 02be 17EE900A 		vmov	r0, s15
 2595 02c2 FFF7FEFF 		bl	__aeabi_f2d
 2596 02c6 4246     		mov	r2, r8
 2597 02c8 CDE90001 		strd	r0, [sp]
 2598 02cc 3846     		mov	r0, r7
 2599 02ce 3146     		mov	r1, r6
 2600 02d0 FFF7FEFF 		bl	_ZN12OutputBuffer4catfEPKcz
 2601 02d4 B4F8F430 		ldrh	r3, [r4, #244]
 2602 02d8 AB42     		cmp	r3, r5
 2603 02da 4FF02C08 		mov	r8, #44
 2604 02de E6D8     		bhi	.L440
 2605 02e0 0B98     		ldr	r0, [sp, #44]
 2606 02e2 2449     		ldr	r1, .L683+68
 2607              	.L442:
 2608 02e4 FFF7FEFF 		bl	_ZN12OutputBuffer3catEPKc
 2609 02e8 6369     		ldr	r3, [r4, #20]
 2610 02ea 03F5B563 		add	r3, r3, #1448
 2611 02ee 1868     		ldr	r0, [r3]	@ float
 2612 02f0 FFF7FEFF 		bl	__aeabi_f2d
 2613 02f4 0B46     		mov	r3, r1
 2614 02f6 0246     		mov	r2, r0
 2615 02f8 2049     		ldr	r1, .L683+76
 2616 02fa 0B98     		ldr	r0, [sp, #44]
 2617 02fc FFF7FEFF 		bl	_ZN12OutputBuffer4catfEPKcz
 2618 0300 089B     		ldr	r3, [sp, #32]
 2619 0302 002B     		cmp	r3, #0
 2620 0304 00F09C84 		beq	.L657
 2621              	.L443:
 2622 0308 1D49     		ldr	r1, .L683+80
ARM GAS  C:\Users\paja\AppData\Local\Temp\ccY4oRD5.s 			page 47


 2623 030a 0B98     		ldr	r0, [sp, #44]
 2624 030c FFF7FEFF 		bl	_ZN12OutputBuffer3catEPKc
 2625 0310 6068     		ldr	r0, [r4, #4]
 2626 0312 FFF7FEFF 		bl	_ZNK8Platform16GetZProbeReadingEv
 2627 0316 0DA9     		add	r1, sp, #52
 2628 0318 0546     		mov	r5, r0
 2629 031a 049A     		ldr	r2, [sp, #16]
 2630 031c 6068     		ldr	r0, [r4, #4]
 2631 031e FFF7FEFF 		bl	_ZN8Platform24GetZProbeSecondaryValuesERiS0_
 2632 0322 0128     		cmp	r0, #1
 2633 0324 00F02584 		beq	.L445
 2634 0328 0228     		cmp	r0, #2
 2635 032a 40F01C84 		bne	.L658
 2636 032e 29E0     		b	.L684
 2637              	.L685:
 2638              		.align	2
 2639              	.L683:
 2640 0330 1C000000 		.word	.LC54
 2641 0334 38000000 		.word	.LC55
 2642 0338 48000000 		.word	.LC56
 2643 033c 68070000 		.word	.LC140
 2644 0340 50000000 		.word	.LC57
 2645 0344 74070000 		.word	.LC141
 2646 0348 58000000 		.word	.LC58
 2647 034c C8000000 		.word	.LC45
 2648 0350 64000000 		.word	.LC59
 2649 0354 90000000 		.word	.LC60
 2650 0358 00000000 		.word	0
 2651 035c 34070000 		.word	.LC138
 2652 0360 A8000000 		.word	.LC62
 2653 0364 E4000000 		.word	.LC47
 2654 0368 0000C842 		.word	1120403456
 2655 036c 08010000 		.word	.LC66
 2656 0370 24010000 		.word	.LC67
 2657 0374 04000000 		.word	.LC50
 2658 0378 44010000 		.word	.LC69
 2659 037c 68010000 		.word	.LC70
 2660 0380 88010000 		.word	.LC72
 2661              	.L684:
 2662 0384 0E9A     		ldr	r2, [sp, #56]
 2663 0386 0092     		str	r2, [sp]
 2664 0388 0D9B     		ldr	r3, [sp, #52]
 2665 038a 0B98     		ldr	r0, [sp, #44]
 2666 038c B949     		ldr	r1, .L686
 2667 038e 2A46     		mov	r2, r5
 2668 0390 FFF7FEFF 		bl	_ZN12OutputBuffer4catfEPKcz
 2669              	.L447:
 2670 0394 B849     		ldr	r1, .L686+4
 2671 0396 0B98     		ldr	r0, [sp, #44]
 2672 0398 FFF7FEFF 		bl	_ZN12OutputBuffer3catEPKc
 2673 039c 0021     		movs	r1, #0
 2674 039e 6068     		ldr	r0, [r4, #4]
 2675 03a0 0B9D     		ldr	r5, [sp, #44]
 2676 03a2 FFF7FEFF 		bl	_ZNK8Platform9GetFanRPMEj
 2677 03a6 B549     		ldr	r1, .L686+8
 2678 03a8 0246     		mov	r2, r0
 2679 03aa 2846     		mov	r0, r5
ARM GAS  C:\Users\paja\AppData\Local\Temp\ccY4oRD5.s 			page 48


 2680 03ac FFF7FEFF 		bl	_ZN12OutputBuffer4catfEPKcz
 2681 03b0 7D21     		movs	r1, #125
 2682 03b2 0B98     		ldr	r0, [sp, #44]
 2683 03b4 FFF7FEFF 		bl	_ZN12OutputBuffer3catEc
 2684 03b8 B149     		ldr	r1, .L686+12
 2685 03ba 0B98     		ldr	r0, [sp, #44]
 2686 03bc FFF7FEFF 		bl	_ZN12OutputBuffer3catEPKc
 2687 03c0 2069     		ldr	r0, [r4, #16]
 2688 03c2 90F9D980 		ldrsb	r8, [r0, #217]
 2689 03c6 B8F1FF3F 		cmp	r8, #-1
 2690 03ca 26D0     		beq	.L448
 2691 03cc 4146     		mov	r1, r8
 2692 03ce 0B9D     		ldr	r5, [sp, #44]
 2693 03d0 FFF7FEFF 		bl	_ZNK4Heat14GetTemperatureEa
 2694 03d4 4146     		mov	r1, r8
 2695 03d6 2069     		ldr	r0, [r4, #16]
 2696 03d8 10EE106A 		vmov	r6, s0
 2697 03dc FFF7FEFF 		bl	_ZNK4Heat20GetActiveTemperatureEa
 2698 03e0 4146     		mov	r1, r8
 2699 03e2 2069     		ldr	r0, [r4, #16]
 2700 03e4 8DED090A 		vstr.32	s0, [sp, #36]	@ int
 2701 03e8 FFF7FEFF 		bl	_ZNK4Heat9GetStatusEa
 2702 03ec 8146     		mov	r9, r0
 2703 03ee 3046     		mov	r0, r6	@ float
 2704 03f0 FFF7FEFF 		bl	__aeabi_f2d
 2705 03f4 9DED090A 		vldr.32	s0, [sp, #36]	@ int
 2706 03f8 0646     		mov	r6, r0
 2707 03fa 10EE100A 		vmov	r0, s0
 2708 03fe 0F46     		mov	r7, r1
 2709 0400 CDE90298 		strd	r9, r8, [sp, #8]
 2710 0404 FFF7FEFF 		bl	__aeabi_f2d
 2711 0408 3246     		mov	r2, r6
 2712 040a CDE90001 		strd	r0, [sp]
 2713 040e 3B46     		mov	r3, r7
 2714 0410 2846     		mov	r0, r5
 2715 0412 9C49     		ldr	r1, .L686+16
 2716 0414 FFF7FEFF 		bl	_ZN12OutputBuffer4catfEPKcz
 2717 0418 2069     		ldr	r0, [r4, #16]
 2718              	.L448:
 2719 041a 90F9DD80 		ldrsb	r8, [r0, #221]
 2720 041e 0B9D     		ldr	r5, [sp, #44]
 2721 0420 B8F1FF3F 		cmp	r8, #-1
 2722 0424 26D0     		beq	.L449
 2723 0426 4146     		mov	r1, r8
 2724 0428 FFF7FEFF 		bl	_ZNK4Heat14GetTemperatureEa
 2725 042c 4146     		mov	r1, r8
 2726 042e 2069     		ldr	r0, [r4, #16]
 2727 0430 10EE106A 		vmov	r6, s0
 2728 0434 FFF7FEFF 		bl	_ZNK4Heat20GetActiveTemperatureEa
 2729 0438 4146     		mov	r1, r8
 2730 043a 2069     		ldr	r0, [r4, #16]
 2731 043c 8DED090A 		vstr.32	s0, [sp, #36]	@ int
 2732 0440 FFF7FEFF 		bl	_ZNK4Heat9GetStatusEa
 2733 0444 8146     		mov	r9, r0
 2734 0446 3046     		mov	r0, r6	@ float
 2735 0448 FFF7FEFF 		bl	__aeabi_f2d
 2736 044c 9DED090A 		vldr.32	s0, [sp, #36]	@ int
ARM GAS  C:\Users\paja\AppData\Local\Temp\ccY4oRD5.s 			page 49


 2737 0450 0646     		mov	r6, r0
 2738 0452 10EE100A 		vmov	r0, s0
 2739 0456 0F46     		mov	r7, r1
 2740 0458 CDE90298 		strd	r9, r8, [sp, #8]
 2741 045c FFF7FEFF 		bl	__aeabi_f2d
 2742 0460 3246     		mov	r2, r6
 2743 0462 CDE90001 		strd	r0, [sp]
 2744 0466 3B46     		mov	r3, r7
 2745 0468 2846     		mov	r0, r5
 2746 046a 8749     		ldr	r1, .L686+20
 2747 046c FFF7FEFF 		bl	_ZN12OutputBuffer4catfEPKcz
 2748 0470 2069     		ldr	r0, [r4, #16]
 2749 0472 0B9D     		ldr	r5, [sp, #44]
 2750              	.L449:
 2751 0474 90F9DE80 		ldrsb	r8, [r0, #222]
 2752 0478 B8F1FF3F 		cmp	r8, #-1
 2753 047c 25D0     		beq	.L450
 2754 047e 4146     		mov	r1, r8
 2755 0480 FFF7FEFF 		bl	_ZNK4Heat14GetTemperatureEa
 2756 0484 4146     		mov	r1, r8
 2757 0486 2069     		ldr	r0, [r4, #16]
 2758 0488 10EE106A 		vmov	r6, s0
 2759 048c FFF7FEFF 		bl	_ZNK4Heat20GetActiveTemperatureEa
 2760 0490 4146     		mov	r1, r8
 2761 0492 2069     		ldr	r0, [r4, #16]
 2762 0494 8DED090A 		vstr.32	s0, [sp, #36]	@ int
 2763 0498 FFF7FEFF 		bl	_ZNK4Heat9GetStatusEa
 2764 049c 8146     		mov	r9, r0
 2765 049e 3046     		mov	r0, r6	@ float
 2766 04a0 FFF7FEFF 		bl	__aeabi_f2d
 2767 04a4 9DED090A 		vldr.32	s0, [sp, #36]	@ int
 2768 04a8 0646     		mov	r6, r0
 2769 04aa 10EE100A 		vmov	r0, s0
 2770 04ae 0F46     		mov	r7, r1
 2771 04b0 CDE90298 		strd	r9, r8, [sp, #8]
 2772 04b4 FFF7FEFF 		bl	__aeabi_f2d
 2773 04b8 3246     		mov	r2, r6
 2774 04ba CDE90001 		strd	r0, [sp]
 2775 04be 3B46     		mov	r3, r7
 2776 04c0 2846     		mov	r0, r5
 2777 04c2 7249     		ldr	r1, .L686+24
 2778 04c4 FFF7FEFF 		bl	_ZN12OutputBuffer4catfEPKcz
 2779 04c8 0B9D     		ldr	r5, [sp, #44]
 2780              	.L450:
 2781 04ca 7149     		ldr	r1, .L686+28
 2782 04cc 714E     		ldr	r6, .L686+32
 2783 04ce 2846     		mov	r0, r5
 2784 04d0 FFF7FEFF 		bl	_ZN12OutputBuffer3catEPKc
 2785 04d4 0025     		movs	r5, #0
 2786 04d6 4FF05B08 		mov	r8, #91
 2787              	.L451:
 2788 04da 69B2     		sxtb	r1, r5
 2789 04dc 2069     		ldr	r0, [r4, #16]
 2790 04de 0B9F     		ldr	r7, [sp, #44]
 2791 04e0 FFF7FEFF 		bl	_ZNK4Heat14GetTemperatureEa
 2792 04e4 10EE100A 		vmov	r0, s0
 2793 04e8 FFF7FEFF 		bl	__aeabi_f2d
ARM GAS  C:\Users\paja\AppData\Local\Temp\ccY4oRD5.s 			page 50


 2794 04ec 0135     		adds	r5, r5, #1
 2795 04ee CDE90001 		strd	r0, [sp]
 2796 04f2 4246     		mov	r2, r8
 2797 04f4 3846     		mov	r0, r7
 2798 04f6 3146     		mov	r1, r6
 2799 04f8 FFF7FEFF 		bl	_ZN12OutputBuffer4catfEPKcz
 2800 04fc 082D     		cmp	r5, #8
 2801 04fe 4FF02C08 		mov	r8, #44
 2802 0502 EAD1     		bne	.L451
 2803 0504 6449     		ldr	r1, .L686+36
 2804 0506 0B98     		ldr	r0, [sp, #44]
 2805 0508 644F     		ldr	r7, .L686+40
 2806 050a FFF7FEFF 		bl	_ZN12OutputBuffer3catEPKc
 2807 050e 6449     		ldr	r1, .L686+44
 2808 0510 0B98     		ldr	r0, [sp, #44]
 2809 0512 FFF7FEFF 		bl	_ZN12OutputBuffer3catEPKc
 2810 0516 0025     		movs	r5, #0
 2811 0518 4FF05B08 		mov	r8, #91
 2812              	.L452:
 2813 051c 69B2     		sxtb	r1, r5
 2814 051e 2069     		ldr	r0, [r4, #16]
 2815 0520 0B9E     		ldr	r6, [sp, #44]
 2816 0522 FFF7FEFF 		bl	_ZNK4Heat9GetStatusEa
 2817 0526 0135     		adds	r5, r5, #1
 2818 0528 0346     		mov	r3, r0
 2819 052a 4246     		mov	r2, r8
 2820 052c 3946     		mov	r1, r7
 2821 052e 3046     		mov	r0, r6
 2822 0530 FFF7FEFF 		bl	_ZN12OutputBuffer4catfEPKcz
 2823 0534 082D     		cmp	r5, #8
 2824 0536 4FF02C08 		mov	r8, #44
 2825 053a EFD1     		bne	.L452
 2826 053c 5649     		ldr	r1, .L686+36
 2827 053e 0B98     		ldr	r0, [sp, #44]
 2828 0540 FFF7FEFF 		bl	_ZN12OutputBuffer3catEPKc
 2829 0544 069B     		ldr	r3, [sp, #24]
 2830 0546 022B     		cmp	r3, #2
 2831 0548 00F0AA84 		beq	.L659
 2832              	.L453:
 2833 054c 04F12803 		add	r3, r4, #40
 2834 0550 1D46     		mov	r5, r3
 2835 0552 5449     		ldr	r1, .L686+48
 2836 0554 0B98     		ldr	r0, [sp, #44]
 2837 0556 0993     		str	r3, [sp, #36]
 2838 0558 FFF7FEFF 		bl	_ZN12OutputBuffer3catEPKc
 2839 055c 2946     		mov	r1, r5
 2840 055e 4FF0FF32 		mov	r2, #-1
 2841 0562 0498     		ldr	r0, [sp, #16]
 2842 0564 FFF7FEFF 		bl	_ZN11MutexLockerC1ERK5Mutexm
 2843 0568 D4F8E8B0 		ldr	fp, [r4, #232]
 2844 056c BBF1000F 		cmp	fp, #0
 2845 0570 32D0     		beq	.L456
 2846 0572 DFF82081 		ldr	r8, .L686+32
 2847 0576 DFF82091 		ldr	r9, .L686+36
 2848              	.L460:
 2849 057a DBF89830 		ldr	r3, [fp, #152]
 2850 057e 0B9E     		ldr	r6, [sp, #44]
ARM GAS  C:\Users\paja\AppData\Local\Temp\ccY4oRD5.s 			page 51


 2851 0580 002B     		cmp	r3, #0
 2852 0582 00F00F81 		beq	.L537
 2853 0586 0BF15407 		add	r7, fp, #84
 2854 058a 0025     		movs	r5, #0
 2855 058c 4FF05B0A 		mov	r10, #91
 2856 0590 01E0     		b	.L459
 2857              	.L660:
 2858 0592 4FF02C0A 		mov	r10, #44
 2859              	.L459:
 2860 0596 57F8040B 		ldr	r0, [r7], #4	@ float
 2861 059a FFF7FEFF 		bl	__aeabi_f2d
 2862 059e 5246     		mov	r2, r10
 2863 05a0 CDE90001 		strd	r0, [sp]
 2864 05a4 3046     		mov	r0, r6
 2865 05a6 4146     		mov	r1, r8
 2866 05a8 FFF7FEFF 		bl	_ZN12OutputBuffer4catfEPKcz
 2867 05ac DBF89830 		ldr	r3, [fp, #152]
 2868 05b0 0B9E     		ldr	r6, [sp, #44]
 2869 05b2 0135     		adds	r5, r5, #1
 2870 05b4 AB42     		cmp	r3, r5
 2871 05b6 ECD8     		bhi	.L660
 2872 05b8 4946     		mov	r1, r9
 2873              	.L457:
 2874 05ba 3046     		mov	r0, r6
 2875 05bc FFF7FEFF 		bl	_ZN12OutputBuffer3catEPKc
 2876 05c0 DBF80030 		ldr	r3, [fp]
 2877 05c4 43B1     		cbz	r3, .L456
 2878 05c6 3849     		ldr	r1, .L686+52
 2879 05c8 0B98     		ldr	r0, [sp, #44]
 2880 05ca FFF7FEFF 		bl	_ZN12OutputBuffer3catEPKc
 2881 05ce DBF800B0 		ldr	fp, [fp]
 2882 05d2 BBF1000F 		cmp	fp, #0
 2883 05d6 D0D1     		bne	.L460
 2884              	.L456:
 2885 05d8 3449     		ldr	r1, .L686+56
 2886 05da 0B98     		ldr	r0, [sp, #44]
 2887 05dc FFF7FEFF 		bl	_ZN12OutputBuffer3catEPKc
 2888 05e0 D4F8E8B0 		ldr	fp, [r4, #232]
 2889 05e4 BBF1000F 		cmp	fp, #0
 2890 05e8 32D0     		beq	.L461
 2891 05ea DFF8A880 		ldr	r8, .L686+32
 2892 05ee DFF8A890 		ldr	r9, .L686+36
 2893              	.L465:
 2894 05f2 DBF89830 		ldr	r3, [fp, #152]
 2895 05f6 0B9E     		ldr	r6, [sp, #44]
 2896 05f8 002B     		cmp	r3, #0
 2897 05fa 00F0D180 		beq	.L538
 2898 05fe 0BF17407 		add	r7, fp, #116
 2899 0602 0025     		movs	r5, #0
 2900 0604 4FF05B0A 		mov	r10, #91
 2901 0608 01E0     		b	.L464
 2902              	.L661:
 2903 060a 4FF02C0A 		mov	r10, #44
 2904              	.L464:
 2905 060e 57F8040B 		ldr	r0, [r7], #4	@ float
 2906 0612 FFF7FEFF 		bl	__aeabi_f2d
 2907 0616 5246     		mov	r2, r10
ARM GAS  C:\Users\paja\AppData\Local\Temp\ccY4oRD5.s 			page 52


 2908 0618 CDE90001 		strd	r0, [sp]
 2909 061c 3046     		mov	r0, r6
 2910 061e 4146     		mov	r1, r8
 2911 0620 FFF7FEFF 		bl	_ZN12OutputBuffer4catfEPKcz
 2912 0624 DBF89830 		ldr	r3, [fp, #152]
 2913 0628 0B9E     		ldr	r6, [sp, #44]
 2914 062a 0135     		adds	r5, r5, #1
 2915 062c AB42     		cmp	r3, r5
 2916 062e ECD8     		bhi	.L661
 2917 0630 4946     		mov	r1, r9
 2918              	.L462:
 2919 0632 3046     		mov	r0, r6
 2920 0634 FFF7FEFF 		bl	_ZN12OutputBuffer3catEPKc
 2921 0638 DBF80030 		ldr	r3, [fp]
 2922 063c 43B1     		cbz	r3, .L461
 2923 063e 1A49     		ldr	r1, .L686+52
 2924 0640 0B98     		ldr	r0, [sp, #44]
 2925 0642 FFF7FEFF 		bl	_ZN12OutputBuffer3catEPKc
 2926 0646 DBF800B0 		ldr	fp, [fp]
 2927 064a BBF1000F 		cmp	fp, #0
 2928 064e D0D1     		bne	.L465
 2929              	.L461:
 2930 0650 DDF810B0 		ldr	fp, [sp, #16]
 2931 0654 DFF85CA0 		ldr	r10, .L686+64
 2932 0658 DFF85C90 		ldr	r9, .L686+68
 2933 065c 5846     		mov	r0, fp
 2934 065e FFF7FEFF 		bl	_ZN11MutexLockerD1Ev
 2935 0662 1349     		ldr	r1, .L686+60
 2936 0664 0B98     		ldr	r0, [sp, #44]
 2937 0666 FFF7FEFF 		bl	_ZN12OutputBuffer3catEPKc
 2938 066a 6425     		movs	r5, #100
 2939 066c 059F     		ldr	r7, [sp, #20]
 2940 066e 4FF00008 		mov	r8, #0
 2941 0672 47E0     		b	.L468
 2942              	.L687:
 2943              		.align	2
 2944              	.L686:
 2945 0674 C0010000 		.word	.LC74
 2946 0678 FC010000 		.word	.LC76
 2947 067c 08020000 		.word	.LC77
 2948 0680 0C020000 		.word	.LC78
 2949 0684 18020000 		.word	.LC79
 2950 0688 58020000 		.word	.LC80
 2951 068c 9C020000 		.word	.LC81
 2952 0690 E0020000 		.word	.LC82
 2953 0694 C8000000 		.word	.LC45
 2954 0698 04000000 		.word	.LC50
 2955 069c 48000000 		.word	.LC56
 2956 06a0 EC020000 		.word	.LC83
 2957 06a4 04030000 		.word	.LC85
 2958 06a8 A4000000 		.word	.LC61
 2959 06ac 1C030000 		.word	.LC86
 2960 06b0 2C030000 		.word	.LC87
 2961 06b4 3C030000 		.word	.LC88
 2962 06b8 48030000 		.word	.LC89
 2963              	.L467:
 2964 06bc 5146     		mov	r1, r10
ARM GAS  C:\Users\paja\AppData\Local\Temp\ccY4oRD5.s 			page 53


 2965 06be FFF7FEFF 		bl	_ZN12OutputBuffer3catEPKc
 2966 06c2 3046     		mov	r0, r6
 2967 06c4 FFF7FEFF 		bl	strlen
 2968 06c8 0B9B     		ldr	r3, [sp, #44]
 2969 06ca CDF80480 		str	r8, [sp, #4]
 2970 06ce 0127     		movs	r7, #1
 2971 06d0 0246     		mov	r2, r0
 2972 06d2 3146     		mov	r1, r6
 2973 06d4 1846     		mov	r0, r3
 2974 06d6 0097     		str	r7, [sp]
 2975 06d8 0023     		movs	r3, #0
 2976 06da FFF7FEFF 		bl	_ZN12OutputBuffer12EncodeStringEPKcjbbb
 2977 06de 5A46     		mov	r2, fp
 2978 06e0 2946     		mov	r1, r5
 2979 06e2 2069     		ldr	r0, [r4, #16]
 2980 06e4 FFF7FEFF 		bl	_ZN4Heat14GetTemperatureEjR16TemperatureError
 2981 06e8 10EE100A 		vmov	r0, s0
 2982 06ec FFF7FEFF 		bl	__aeabi_f2d
 2983 06f0 0246     		mov	r2, r0
 2984 06f2 0B46     		mov	r3, r1
 2985 06f4 0B98     		ldr	r0, [sp, #44]
 2986 06f6 4946     		mov	r1, r9
 2987 06f8 FFF7FEFF 		bl	_ZN12OutputBuffer4catfEPKcz
 2988 06fc 0027     		movs	r7, #0
 2989              	.L466:
 2990 06fe 0135     		adds	r5, r5, #1
 2991 0700 6E2D     		cmp	r5, #110
 2992 0702 1AD0     		beq	.L662
 2993              	.L468:
 2994 0704 2946     		mov	r1, r5
 2995 0706 2069     		ldr	r0, [r4, #16]
 2996 0708 FFF7FEFF 		bl	_ZNK4Heat13GetHeaterNameEj
 2997 070c 0646     		mov	r6, r0
 2998 070e 0028     		cmp	r0, #0
 2999 0710 F5D0     		beq	.L466
 3000 0712 0B98     		ldr	r0, [sp, #44]
 3001 0714 002F     		cmp	r7, #0
 3002 0716 D1D1     		bne	.L467
 3003 0718 2C21     		movs	r1, #44
 3004 071a FFF7FEFF 		bl	_ZN12OutputBuffer3catEc
 3005 071e 0B98     		ldr	r0, [sp, #44]
 3006 0720 CCE7     		b	.L467
 3007              	.L653:
 3008 0722 0EAB     		add	r3, sp, #56
 3009 0724 0493     		str	r3, [sp, #16]
 3010 0726 1946     		mov	r1, r3
 3011 0728 0122     		movs	r2, #1
 3012 072a 0223     		movs	r3, #2
 3013 072c FFF7FEFF 		bl	_ZN4Move15LiveCoordinatesEPfmm
 3014 0730 B849     		ldr	r1, .L688
 3015 0732 0B98     		ldr	r0, [sp, #44]
 3016 0734 FFF7FEFF 		bl	_ZN12OutputBuffer4catfEPKcz
 3017 0738 C4E4     		b	.L526
 3018              	.L662:
 3019 073a B749     		ldr	r1, .L688+4
 3020 073c 0B98     		ldr	r0, [sp, #44]
 3021 073e FFF7FEFF 		bl	_ZN12OutputBuffer3catEPKc
ARM GAS  C:\Users\paja\AppData\Local\Temp\ccY4oRD5.s 			page 54


 3022 0742 0B9D     		ldr	r5, [sp, #44]
 3023 0744 FFF7FEFF 		bl	millis64
 3024 0748 4FF47A72 		mov	r2, #1000
 3025 074c 0023     		movs	r3, #0
 3026 074e FFF7FEFF 		bl	__aeabi_uldivmod
 3027 0752 FFF7FEFF 		bl	__aeabi_ul2d
 3028 0756 0B46     		mov	r3, r1
 3029 0758 0246     		mov	r2, r0
 3030 075a B049     		ldr	r1, .L688+8
 3031 075c 2846     		mov	r0, r5
 3032 075e FFF7FEFF 		bl	_ZN12OutputBuffer4catfEPKcz
 3033 0762 E069     		ldr	r0, [r4, #28]
 3034 0764 037A     		ldrb	r3, [r0, #8]	@ zero_extendqisi2
 3035 0766 002B     		cmp	r3, #0
 3036 0768 40F07582 		bne	.L663
 3037              	.L469:
 3038 076c 6369     		ldr	r3, [r4, #20]
 3039 076e 0B98     		ldr	r0, [sp, #44]
 3040 0770 93F8B430 		ldrb	r3, [r3, #180]	@ zero_extendqisi2
 3041 0774 022B     		cmp	r3, #2
 3042 0776 00F09C81 		beq	.L664
 3043              	.L470:
 3044 077a 069B     		ldr	r3, [sp, #24]
 3045 077c 022B     		cmp	r3, #2
 3046 077e 28D0     		beq	.L665
 3047 0780 069B     		ldr	r3, [sp, #24]
 3048 0782 032B     		cmp	r3, #3
 3049 0784 00F07A84 		beq	.L666
 3050              	.L510:
 3051 0788 089B     		ldr	r3, [sp, #32]
 3052 078a 012B     		cmp	r3, #1
 3053 078c 0CD0     		beq	.L667
 3054              	.L518:
 3055 078e A449     		ldr	r1, .L688+12
 3056 0790 FFF7FEFF 		bl	_ZN12OutputBuffer3catEPKc
 3057 0794 0B98     		ldr	r0, [sp, #44]
 3058 0796 1BB0     		add	sp, sp, #108
 3059              		@ sp needed
 3060 0798 BDEC028B 		vldm	sp!, {d8}
 3061 079c BDE8F08F 		pop	{r4, r5, r6, r7, r8, r9, r10, fp, pc}
 3062              	.L538:
 3063 07a0 A049     		ldr	r1, .L688+16
 3064 07a2 46E7     		b	.L462
 3065              	.L537:
 3066 07a4 9F49     		ldr	r1, .L688+16
 3067 07a6 08E7     		b	.L457
 3068              	.L667:
 3069 07a8 6368     		ldr	r3, [r4, #4]
 3070 07aa 0022     		movs	r2, #0
 3071 07ac D3F85C5B 		ldr	r5, [r3, #2908]
 3072 07b0 C3F85C2B 		str	r2, [r3, #2908]
 3073 07b4 0028     		cmp	r0, #0
 3074 07b6 EAD0     		beq	.L518
 3075 07b8 6368     		ldr	r3, [r4, #4]
 3076 07ba 9B49     		ldr	r1, .L688+20
 3077 07bc D3F8602B 		ldr	r2, [r3, #2912]
 3078 07c0 FFF7FEFF 		bl	_ZN12OutputBuffer4catfEPKcz
ARM GAS  C:\Users\paja\AppData\Local\Temp\ccY4oRD5.s 			page 55


 3079 07c4 089A     		ldr	r2, [sp, #32]
 3080 07c6 0B98     		ldr	r0, [sp, #44]
 3081 07c8 2946     		mov	r1, r5
 3082 07ca FFF7FEFF 		bl	_ZN12OutputBuffer11EncodeReplyEPS_b
 3083 07ce 0B98     		ldr	r0, [sp, #44]
 3084 07d0 DDE7     		b	.L518
 3085              	.L665:
 3086 07d2 2369     		ldr	r3, [r4, #16]
 3087 07d4 93F8D830 		ldrb	r3, [r3, #216]	@ zero_extendqisi2
 3088 07d8 0022     		movs	r2, #0
 3089 07da 002B     		cmp	r3, #0
 3090 07dc 40F06382 		bne	.L668
 3091 07e0 924B     		ldr	r3, .L688+24
 3092              	.L478:
 3093 07e2 9349     		ldr	r1, .L688+28
 3094 07e4 FFF7FEFF 		bl	_ZN12OutputBuffer4catfEPKcz
 3095 07e8 2369     		ldr	r3, [r4, #16]
 3096 07ea 0B98     		ldr	r0, [sp, #44]
 3097 07ec 93F8D830 		ldrb	r3, [r3, #216]	@ zero_extendqisi2
 3098 07f0 0022     		movs	r2, #0
 3099 07f2 002B     		cmp	r3, #0
 3100 07f4 00F0C383 		beq	.L543
 3101 07f8 0023     		movs	r3, #0
 3102              	.L479:
 3103 07fa 8E49     		ldr	r1, .L688+32
 3104 07fc FFF7FEFF 		bl	_ZN12OutputBuffer4catfEPKcz
 3105 0800 8D49     		ldr	r1, .L688+36
 3106 0802 0B98     		ldr	r0, [sp, #44]
 3107 0804 FFF7FEFF 		bl	_ZN12OutputBuffer3catEPKc
 3108 0808 E068     		ldr	r0, [r4, #12]
 3109 080a 90F8683A 		ldrb	r3, [r0, #2664]	@ zero_extendqisi2
 3110 080e 002B     		cmp	r3, #0
 3111 0810 00F0A683 		beq	.L480
 3112 0814 8949     		ldr	r1, .L688+40
 3113 0816 0B98     		ldr	r0, [sp, #44]
 3114 0818 FFF7FEFF 		bl	_ZN12OutputBuffer3catEPKc
 3115              	.L481:
 3116 081c 0025     		movs	r5, #0
 3117 081e 2F46     		mov	r7, r5
 3118 0820 0126     		movs	r6, #1
 3119              	.L484:
 3120 0822 3946     		mov	r1, r7
 3121 0824 6068     		ldr	r0, [r4, #4]
 3122 0826 FFF7FEFF 		bl	_ZNK8Platform17IsFanControllableEj
 3123 082a 10B1     		cbz	r0, .L483
 3124 082c 06FA07F3 		lsl	r3, r6, r7
 3125 0830 1D43     		orrs	r5, r5, r3
 3126              	.L483:
 3127 0832 0137     		adds	r7, r7, #1
 3128 0834 092F     		cmp	r7, #9
 3129 0836 F4D1     		bne	.L484
 3130 0838 2A46     		mov	r2, r5
 3131 083a 8149     		ldr	r1, .L688+44
 3132 083c 0B98     		ldr	r0, [sp, #44]
 3133 083e FFF7FEFF 		bl	_ZN12OutputBuffer4catfEPKcz
 3134 0842 2069     		ldr	r0, [r4, #16]
 3135 0844 0B9D     		ldr	r5, [sp, #44]
ARM GAS  C:\Users\paja\AppData\Local\Temp\ccY4oRD5.s 			page 56


 3136 0846 FFF7FEFF 		bl	_ZNK4Heat26GetHighestTemperatureLimitEv
 3137 084a 10EE100A 		vmov	r0, s0
 3138 084e FFF7FEFF 		bl	__aeabi_f2d
 3139 0852 0B46     		mov	r3, r1
 3140 0854 0246     		mov	r2, r0
 3141 0856 7B49     		ldr	r1, .L688+48
 3142 0858 2846     		mov	r0, r5
 3143 085a FFF7FEFF 		bl	_ZN12OutputBuffer4catfEPKcz
 3144 085e 6369     		ldr	r3, [r4, #20]
 3145 0860 4FF00008 		mov	r8, #0
 3146 0864 D3F85C53 		ldr	r5, [r3, #860]
 3147 0868 4646     		mov	r6, r8
 3148 086a 0127     		movs	r7, #1
 3149              	.L487:
 3150 086c 6368     		ldr	r3, [r4, #4]
 3151 086e 4545     		cmp	r5, r8
 3152 0870 4146     		mov	r1, r8
 3153 0872 1846     		mov	r0, r3
 3154 0874 40F20B83 		bls	.L485
 3155 0878 FFF7FEFF 		bl	_ZNK8Platform7StoppedEj
 3156 087c 0138     		subs	r0, r0, #1
 3157 087e 0128     		cmp	r0, #1
 3158 0880 40F20A83 		bls	.L651
 3159              	.L486:
 3160 0884 08F10108 		add	r8, r8, #1
 3161 0888 B8F10C0F 		cmp	r8, #12
 3162 088c EED1     		bne	.L487
 3163 088e 3246     		mov	r2, r6
 3164 0890 6D49     		ldr	r1, .L688+52
 3165 0892 0B98     		ldr	r0, [sp, #44]
 3166 0894 FFF7FEFF 		bl	_ZN12OutputBuffer4catfEPKcz
 3167 0898 E368     		ldr	r3, [r4, #12]
 3168 089a 0B9E     		ldr	r6, [sp, #44]
 3169 089c D3F8740A 		ldr	r0, [r3, #2676]
 3170 08a0 0368     		ldr	r3, [r0]
 3171 08a2 0121     		movs	r1, #1
 3172 08a4 1B68     		ldr	r3, [r3]
 3173 08a6 9847     		blx	r3
 3174 08a8 6269     		ldr	r2, [r4, #20]
 3175 08aa 0799     		ldr	r1, [sp, #28]
 3176 08ac 0091     		str	r1, [sp]
 3177 08ae 02F5A262 		add	r2, r2, #1296
 3178 08b2 0346     		mov	r3, r0
 3179 08b4 0292     		str	r2, [sp, #8]
 3180 08b6 0195     		str	r5, [sp, #4]
 3181 08b8 644A     		ldr	r2, .L688+56
 3182 08ba 6549     		ldr	r1, .L688+60
 3183 08bc 3046     		mov	r0, r6
 3184 08be FFF7FEFF 		bl	_ZN12OutputBuffer4catfEPKcz
 3185 08c2 6368     		ldr	r3, [r4, #4]
 3186 08c4 D3F8DC3B 		ldr	r3, [r3, #3036]
 3187 08c8 93F83E25 		ldrb	r2, [r3, #1342]	@ zero_extendqisi2
 3188 08cc 93F89E32 		ldrb	r3, [r3, #670]	@ zero_extendqisi2
 3189 08d0 0AB1     		cbz	r2, .L488
 3190 08d2 43F00203 		orr	r3, r3, #2
 3191              	.L488:
 3192 08d6 0222     		movs	r2, #2
ARM GAS  C:\Users\paja\AppData\Local\Temp\ccY4oRD5.s 			page 57


 3193 08d8 5E49     		ldr	r1, .L688+64
 3194 08da 0B98     		ldr	r0, [sp, #44]
 3195 08dc FFF7FEFF 		bl	_ZN12OutputBuffer4catfEPKcz
 3196 08e0 5D49     		ldr	r1, .L688+68
 3197 08e2 0B98     		ldr	r0, [sp, #44]
 3198 08e4 FFF7FEFF 		bl	_ZN12OutputBuffer3catEPKc
 3199 08e8 0126     		movs	r6, #1
 3200 08ea 0023     		movs	r3, #0
 3201 08ec CDE90063 		strd	r6, r3, [sp]
 3202 08f0 2822     		movs	r2, #40
 3203 08f2 04F22511 		addw	r1, r4, #293
 3204 08f6 0B98     		ldr	r0, [sp, #44]
 3205 08f8 FFF7FEFF 		bl	_ZN12OutputBuffer12EncodeStringEPKcjbbb
 3206 08fc 6068     		ldr	r0, [r4, #4]
 3207 08fe 90F8CC10 		ldrb	r1, [r0, #204]	@ zero_extendqisi2
 3208 0902 FFF7FEFF 		bl	_ZNK8Platform19GetZProbeParametersE10ZProbeType
 3209 0906 C568     		ldr	r5, [r0, #12]	@ float
 3210 0908 0268     		ldr	r2, [r0]
 3211 090a 5449     		ldr	r1, .L688+72
 3212 090c 0B98     		ldr	r0, [sp, #44]
 3213 090e FFF7FEFF 		bl	_ZN12OutputBuffer4catfEPKcz
 3214 0912 2846     		mov	r0, r5	@ float
 3215 0914 FFF7FEFF 		bl	__aeabi_f2d
 3216 0918 0246     		mov	r2, r0
 3217 091a 0B46     		mov	r3, r1
 3218 091c 0B98     		ldr	r0, [sp, #44]
 3219 091e 5049     		ldr	r1, .L688+76
 3220 0920 FFF7FEFF 		bl	_ZN12OutputBuffer4catfEPKcz
 3221 0924 6368     		ldr	r3, [r4, #4]
 3222 0926 4F49     		ldr	r1, .L688+80
 3223 0928 93F8CC20 		ldrb	r2, [r3, #204]	@ zero_extendqisi2
 3224 092c 0B98     		ldr	r0, [sp, #44]
 3225 092e FFF7FEFF 		bl	_ZN12OutputBuffer4catfEPKcz
 3226 0932 4D49     		ldr	r1, .L688+84
 3227 0934 0B98     		ldr	r0, [sp, #44]
 3228 0936 FFF7FEFF 		bl	_ZN12OutputBuffer3catEPKc
 3229 093a 0999     		ldr	r1, [sp, #36]
 3230 093c 0498     		ldr	r0, [sp, #16]
 3231 093e 4FF0FF32 		mov	r2, #-1
 3232 0942 FFF7FEFF 		bl	_ZN11MutexLockerC1ERK5Mutexm
 3233 0946 D4F8E850 		ldr	r5, [r4, #232]
 3234 094a 002D     		cmp	r5, #0
 3235 094c 00F04A82 		beq	.L489
 3236 0950 DFF82CB1 		ldr	fp, .L688+108
 3237 0954 0994     		str	r4, [sp, #36]
 3238 0956 B246     		mov	r10, r6
 3239              	.L509:
 3240 0958 D5F89C20 		ldr	r2, [r5, #156]
 3241 095c 0B98     		ldr	r0, [sp, #44]
 3242 095e 4349     		ldr	r1, .L688+88
 3243 0960 FFF7FEFF 		bl	_ZN12OutputBuffer4catfEPKcz
 3244 0964 AE68     		ldr	r6, [r5, #8]
 3245 0966 002E     		cmp	r6, #0
 3246 0968 00F08F82 		beq	.L652
 3247 096c 3378     		ldrb	r3, [r6]	@ zero_extendqisi2
 3248 096e 0B98     		ldr	r0, [sp, #44]
 3249 0970 002B     		cmp	r3, #0
ARM GAS  C:\Users\paja\AppData\Local\Temp\ccY4oRD5.s 			page 58


 3250 0972 40F07A82 		bne	.L669
 3251              	.L491:
 3252 0976 3E49     		ldr	r1, .L688+92
 3253 0978 FFF7FEFF 		bl	_ZN12OutputBuffer3catEPKc
 3254 097c D5F89830 		ldr	r3, [r5, #152]
 3255 0980 05F1B806 		add	r6, r5, #184
 3256 0984 0024     		movs	r4, #0
 3257              	.L492:
 3258 0986 0B9A     		ldr	r2, [sp, #44]
 3259 0988 9C42     		cmp	r4, r3
 3260 098a 5946     		mov	r1, fp
 3261 098c 1046     		mov	r0, r2
 3262 098e 04F10104 		add	r4, r4, #1
 3263 0992 14D2     		bcs	.L493
 3264              	.L670:
 3265 0994 16F9012F 		ldrsb	r2, [r6, #1]!
 3266 0998 FFF7FEFF 		bl	_ZN12OutputBuffer4catfEPKcz
 3267 099c D5F89830 		ldr	r3, [r5, #152]
 3268 09a0 9C42     		cmp	r4, r3
 3269 09a2 F0D2     		bcs	.L492
 3270 09a4 3349     		ldr	r1, .L688+96
 3271 09a6 0B98     		ldr	r0, [sp, #44]
 3272 09a8 FFF7FEFF 		bl	_ZN12OutputBuffer3catEPKc
 3273 09ac D5F89830 		ldr	r3, [r5, #152]
 3274 09b0 0B9A     		ldr	r2, [sp, #44]
 3275 09b2 9C42     		cmp	r4, r3
 3276 09b4 5946     		mov	r1, fp
 3277 09b6 1046     		mov	r0, r2
 3278 09b8 04F10104 		add	r4, r4, #1
 3279 09bc EAD3     		bcc	.L670
 3280              	.L493:
 3281 09be 2E49     		ldr	r1, .L688+100
 3282 09c0 FFF7FEFF 		bl	_ZN12OutputBuffer3catEPKc
 3283 09c4 D5F89430 		ldr	r3, [r5, #148]
 3284 09c8 05F1AF06 		add	r6, r5, #175
 3285 09cc 0024     		movs	r4, #0
 3286              	.L495:
 3287 09ce 0B9A     		ldr	r2, [sp, #44]
 3288 09d0 9C42     		cmp	r4, r3
 3289 09d2 5946     		mov	r1, fp
 3290 09d4 1046     		mov	r0, r2
 3291 09d6 04F10104 		add	r4, r4, #1
 3292 09da 14D2     		bcs	.L496
 3293              	.L671:
 3294 09dc 16F8012F 		ldrb	r2, [r6, #1]!	@ zero_extendqisi2
 3295 09e0 FFF7FEFF 		bl	_ZN12OutputBuffer4catfEPKcz
 3296 09e4 D5F89430 		ldr	r3, [r5, #148]
 3297 09e8 9C42     		cmp	r4, r3
 3298 09ea F0D2     		bcs	.L495
 3299 09ec 2149     		ldr	r1, .L688+96
 3300 09ee 0B98     		ldr	r0, [sp, #44]
 3301 09f0 FFF7FEFF 		bl	_ZN12OutputBuffer3catEPKc
 3302 09f4 D5F89430 		ldr	r3, [r5, #148]
 3303 09f8 0B9A     		ldr	r2, [sp, #44]
 3304 09fa 9C42     		cmp	r4, r3
 3305 09fc 5946     		mov	r1, fp
 3306 09fe 1046     		mov	r0, r2
ARM GAS  C:\Users\paja\AppData\Local\Temp\ccY4oRD5.s 			page 59


 3307 0a00 04F10104 		add	r4, r4, #1
 3308 0a04 EAD3     		bcc	.L671
 3309              	.L496:
 3310 0a06 1D49     		ldr	r1, .L688+104
 3311 0a08 FFF7FEFF 		bl	_ZN12OutputBuffer3catEPKc
 3312 0a0c 0024     		movs	r4, #0
 3313 0a0e 0B98     		ldr	r0, [sp, #44]
 3314 0a10 0599     		ldr	r1, [sp, #20]
 3315 0a12 41E0     		b	.L500
 3316              	.L689:
 3317              		.align	2
 3318              	.L688:
 3319 0a14 74070000 		.word	.LC141
 3320 0a18 24010000 		.word	.LC28
 3321 0a1c 58030000 		.word	.LC90
 3322 0a20 E4000000 		.word	.LC47
 3323 0a24 00000000 		.word	.LC49
 3324 0a28 20070000 		.word	.LC137
 3325 0a2c 00006440 		.word	1080295424
 3326 0a30 D4030000 		.word	.LC96
 3327 0a34 EC030000 		.word	.LC97
 3328 0a38 04040000 		.word	.LC98
 3329 0a3c 18040000 		.word	.LC99
 3330 0a40 34040000 		.word	.LC102
 3331 0a44 4C040000 		.word	.LC103
 3332 0a48 60040000 		.word	.LC104
 3333 0a4c 24000000 		.word	.LC4
 3334 0a50 70040000 		.word	.LC105
 3335 0a54 C0040000 		.word	.LC106
 3336 0a58 E4040000 		.word	.LC107
 3337 0a5c F0040000 		.word	.LC108
 3338 0a60 0C050000 		.word	.LC109
 3339 0a64 1C050000 		.word	.LC110
 3340 0a68 28050000 		.word	.LC111
 3341 0a6c 34050000 		.word	.LC112
 3342 0a70 44050000 		.word	.LC113
 3343 0a74 A4000000 		.word	.LC61
 3344 0a78 58050000 		.word	.LC115
 3345 0a7c 68050000 		.word	.LC116
 3346 0a80 54050000 		.word	.LC114
 3347              	.L499:
 3348 0a84 9F49     		ldr	r1, .L690
 3349 0a86 2246     		mov	r2, r4
 3350 0a88 FFF7FEFF 		bl	_ZN12OutputBuffer4catfEPKcz
 3351 0a8c 0B98     		ldr	r0, [sp, #44]
 3352 0a8e 0021     		movs	r1, #0
 3353              	.L498:
 3354 0a90 0134     		adds	r4, r4, #1
 3355 0a92 092C     		cmp	r4, #9
 3356 0a94 00F01981 		beq	.L672
 3357              	.L500:
 3358 0a98 D5F8A030 		ldr	r3, [r5, #160]
 3359 0a9c 0AFA04F2 		lsl	r2, r10, r4
 3360 0aa0 1A42     		tst	r2, r3
 3361 0aa2 F5D0     		beq	.L498
 3362 0aa4 0029     		cmp	r1, #0
 3363 0aa6 EDD1     		bne	.L499
ARM GAS  C:\Users\paja\AppData\Local\Temp\ccY4oRD5.s 			page 60


 3364 0aa8 9749     		ldr	r1, .L690+4
 3365 0aaa FFF7FEFF 		bl	_ZN12OutputBuffer3catEPKc
 3366 0aae 0B98     		ldr	r0, [sp, #44]
 3367 0ab0 E8E7     		b	.L499
 3368              	.L664:
 3369 0ab2 6568     		ldr	r5, [r4, #4]
 3370 0ab4 D5F8501C 		ldr	r1, [r5, #3152]
 3371 0ab8 D5F8702C 		ldr	r2, [r5, #3184]
 3372 0abc D5F8903C 		ldr	r3, [r5, #3216]
 3373 0ac0 0131     		adds	r1, r1, #1
 3374 0ac2 4FF0FF3B 		mov	fp, #-1
 3375 0ac6 18BF     		it	ne
 3376 0ac8 4FF0000B 		movne	fp, #0
 3377 0acc 0132     		adds	r2, r2, #1
 3378 0ace 18BF     		it	ne
 3379 0ad0 4FF0010B 		movne	fp, #1
 3380 0ad4 0133     		adds	r3, r3, #1
 3381 0ad6 D5F8B03C 		ldr	r3, [r5, #3248]
 3382 0ada 00F0E680 		beq	.L472
 3383 0ade 0133     		adds	r3, r3, #1
 3384 0ae0 0CBF     		ite	eq
 3385 0ae2 4FF0020B 		moveq	fp, #2
 3386 0ae6 4FF0030B 		movne	fp, #3
 3387              	.L473:
 3388 0aea 8849     		ldr	r1, .L690+8
 3389 0aec 0BF1010B 		add	fp, fp, #1
 3390 0af0 FFF7FEFF 		bl	_ZN12OutputBuffer3catEPKc
 3391 0af4 40F63449 		movw	r9, #3124
 3392 0af8 4FF00008 		mov	r8, #0
 3393 0afc A246     		mov	r10, r4
 3394 0afe 0FE0     		b	.L474
 3395              	.L475:
 3396 0b00 0B98     		ldr	r0, [sp, #44]
 3397 0b02 FFF7FEFF 		bl	_ZN12OutputBuffer3catEc
 3398              	.L476:
 3399 0b06 08F10108 		add	r8, r8, #1
 3400 0b0a 0B9B     		ldr	r3, [sp, #44]
 3401 0b0c C345     		cmp	fp, r8
 3402 0b0e 4FF02C01 		mov	r1, #44
 3403 0b12 1846     		mov	r0, r3
 3404 0b14 00F03582 		beq	.L673
 3405 0b18 FFF7FEFF 		bl	_ZN12OutputBuffer3catEc
 3406 0b1c 09F12009 		add	r9, r9, #32
 3407              	.L474:
 3408 0b20 DAF80450 		ldr	r5, [r10, #4]
 3409 0b24 4D44     		add	r5, r5, r9
 3410 0b26 2869     		ldr	r0, [r5, #16]	@ float
 3411 0b28 FFF7FEFF 		bl	__aeabi_f2d
 3412 0b2c 0646     		mov	r6, r0
 3413 0b2e 6869     		ldr	r0, [r5, #20]	@ float
 3414 0b30 0B9C     		ldr	r4, [sp, #44]
 3415 0b32 0F46     		mov	r7, r1
 3416 0b34 FFF7FEFF 		bl	__aeabi_f2d
 3417 0b38 3B46     		mov	r3, r7
 3418 0b3a CDE90001 		strd	r0, [sp]
 3419 0b3e 3246     		mov	r2, r6
 3420 0b40 7349     		ldr	r1, .L690+12
ARM GAS  C:\Users\paja\AppData\Local\Temp\ccY4oRD5.s 			page 61


 3421 0b42 2046     		mov	r0, r4
 3422 0b44 FFF7FEFF 		bl	_ZN12OutputBuffer4catfEPKcz
 3423 0b48 069B     		ldr	r3, [sp, #24]
 3424 0b4a 022B     		cmp	r3, #2
 3425 0b4c 4FF07D01 		mov	r1, #125
 3426 0b50 D6D1     		bne	.L475
 3427 0b52 EA69     		ldr	r2, [r5, #28]
 3428 0b54 0B98     		ldr	r0, [sp, #44]
 3429 0b56 6F49     		ldr	r1, .L690+16
 3430 0b58 FFF7FEFF 		bl	_ZN12OutputBuffer4catfEPKcz
 3431 0b5c D3E7     		b	.L476
 3432              	.L654:
 3433 0b5e 94F85851 		ldrb	r5, [r4, #344]	@ zero_extendqisi2
 3434 0b62 FFF725BB 		b	.L423
 3435              	.L658:
 3436 0b66 2A46     		mov	r2, r5
 3437 0b68 6B49     		ldr	r1, .L690+20
 3438 0b6a 0B98     		ldr	r0, [sp, #44]
 3439 0b6c FFF7FEFF 		bl	_ZN12OutputBuffer4catfEPKcz
 3440 0b70 10E4     		b	.L447
 3441              	.L445:
 3442 0b72 2A46     		mov	r2, r5
 3443 0b74 0D9B     		ldr	r3, [sp, #52]
 3444 0b76 6949     		ldr	r1, .L690+24
 3445 0b78 0B98     		ldr	r0, [sp, #44]
 3446 0b7a FFF7FEFF 		bl	_ZN12OutputBuffer4catfEPKcz
 3447 0b7e 09E4     		b	.L447
 3448              	.L655:
 3449 0b80 0026     		movs	r6, #0
 3450              	.L519:
 3451 0b82 D4F86434 		ldr	r3, [r4, #1124]
 3452 0b86 002B     		cmp	r3, #0
 3453 0b88 40F01182 		bne	.L674
 3454 0b8c 9FED648A 		vldr.32	s16, .L690+28
 3455              	.L426:
 3456 0b90 002E     		cmp	r6, #0
 3457 0b92 00F0FE81 		beq	.L675
 3458              	.L427:
 3459 0b96 6349     		ldr	r1, .L690+32
 3460 0b98 0B98     		ldr	r0, [sp, #44]
 3461 0b9a FFF7FEFF 		bl	_ZN12OutputBuffer3catEPKc
 3462 0b9e D4F85031 		ldr	r3, [r4, #336]
 3463 0ba2 D4F85421 		ldr	r2, [r4, #340]
 3464 0ba6 6049     		ldr	r1, .L690+36
 3465 0ba8 0B98     		ldr	r0, [sp, #44]
 3466 0baa FFF7FEFF 		bl	_ZN12OutputBuffer4catfEPKcz
 3467 0bae 15B9     		cbnz	r5, .L521
 3468 0bb0 94F85932 		ldrb	r3, [r4, #601]	@ zero_extendqisi2
 3469 0bb4 1BB1     		cbz	r3, .L431
 3470              	.L521:
 3471 0bb6 5449     		ldr	r1, .L690+4
 3472 0bb8 0B98     		ldr	r0, [sp, #44]
 3473 0bba FFF7FEFF 		bl	_ZN12OutputBuffer3catEPKc
 3474              	.L431:
 3475 0bbe 0023     		movs	r3, #0
 3476 0bc0 C4F85431 		str	r3, [r4, #340]
 3477 0bc4 C4F85031 		str	r3, [r4, #336]
ARM GAS  C:\Users\paja\AppData\Local\Temp\ccY4oRD5.s 			page 62


 3478 0bc8 0B98     		ldr	r0, [sp, #44]
 3479 0bca 002D     		cmp	r5, #0
 3480 0bcc 7FF40AAB 		bne	.L432
 3481              	.L523:
 3482 0bd0 94F85932 		ldrb	r3, [r4, #601]	@ zero_extendqisi2
 3483              	.L433:
 3484 0bd4 7BB3     		cbz	r3, .L435
 3485 0bd6 0025     		movs	r5, #0
 3486 0bd8 5449     		ldr	r1, .L690+40
 3487 0bda 0126     		movs	r6, #1
 3488 0bdc FFF7FEFF 		bl	_ZN12OutputBuffer3catEPKc
 3489 0be0 2B46     		mov	r3, r5
 3490 0be2 4FF48072 		mov	r2, #256
 3491 0be6 0195     		str	r5, [sp, #4]
 3492 0be8 04F25A21 		addw	r1, r4, #602
 3493 0bec 0B98     		ldr	r0, [sp, #44]
 3494 0bee 0096     		str	r6, [sp]
 3495 0bf0 FFF7FEFF 		bl	_ZN12OutputBuffer12EncodeStringEPKcjbbb
 3496 0bf4 4E49     		ldr	r1, .L690+44
 3497 0bf6 0B98     		ldr	r0, [sp, #44]
 3498 0bf8 FFF7FEFF 		bl	_ZN12OutputBuffer3catEPKc
 3499 0bfc 2B46     		mov	r3, r5
 3500 0bfe 4FF48072 		mov	r2, #256
 3501 0c02 CDE90065 		strd	r6, r5, [sp]
 3502 0c06 04F25B31 		addw	r1, r4, #859
 3503 0c0a 0B98     		ldr	r0, [sp, #44]
 3504 0c0c FFF7FEFF 		bl	_ZN12OutputBuffer12EncodeStringEPKcjbbb
 3505 0c10 D4F86C34 		ldr	r3, [r4, #1132]
 3506 0c14 0293     		str	r3, [sp, #8]
 3507 0c16 18EE100A 		vmov	r0, s16
 3508 0c1a FFF7FEFF 		bl	__aeabi_f2d
 3509 0c1e 0B9D     		ldr	r5, [sp, #44]
 3510 0c20 D4F86034 		ldr	r3, [r4, #1120]
 3511 0c24 D4F85C24 		ldr	r2, [r4, #1116]
 3512 0c28 CDE90001 		strd	r0, [sp]
 3513 0c2c 2846     		mov	r0, r5
 3514 0c2e 4149     		ldr	r1, .L690+48
 3515 0c30 FFF7FEFF 		bl	_ZN12OutputBuffer4catfEPKcz
 3516 0c34 0B98     		ldr	r0, [sp, #44]
 3517              	.L435:
 3518 0c36 4049     		ldr	r1, .L690+52
 3519 0c38 FFF7FEFF 		bl	_ZN12OutputBuffer3catEPKc
 3520 0c3c FFF7ECBA 		b	.L430
 3521              	.L657:
 3522 0c40 A068     		ldr	r0, [r4, #8]
 3523 0c42 0B9D     		ldr	r5, [sp, #44]
 3524 0c44 FFF7FEFF 		bl	_ZN7Network15GetHttpReplySeqEv
 3525 0c48 3C49     		ldr	r1, .L690+56
 3526 0c4a 0246     		mov	r2, r0
 3527 0c4c 2846     		mov	r0, r5
 3528 0c4e FFF7FEFF 		bl	_ZN12OutputBuffer4catfEPKcz
 3529 0c52 FFF759BB 		b	.L443
 3530              	.L663:
 3531 0c56 0B9D     		ldr	r5, [sp, #44]
 3532 0c58 FFF7FEFF 		bl	_ZNK7Scanner18GetStatusCharacterEv
 3533 0c5c 3849     		ldr	r1, .L690+60
 3534 0c5e 0246     		mov	r2, r0
ARM GAS  C:\Users\paja\AppData\Local\Temp\ccY4oRD5.s 			page 63


 3535 0c60 2846     		mov	r0, r5
 3536 0c62 FFF7FEFF 		bl	_ZN12OutputBuffer4catfEPKcz
 3537 0c66 E069     		ldr	r0, [r4, #28]
 3538 0c68 0B9D     		ldr	r5, [sp, #44]
 3539 0c6a FFF7FEFF 		bl	_ZNK7Scanner11GetProgressEv
 3540 0c6e 10EE100A 		vmov	r0, s0
 3541 0c72 FFF7FEFF 		bl	__aeabi_f2d
 3542 0c76 0246     		mov	r2, r0
 3543 0c78 0B46     		mov	r3, r1
 3544 0c7a 2846     		mov	r0, r5
 3545 0c7c 3149     		ldr	r1, .L690+64
 3546 0c7e FFF7FEFF 		bl	_ZN12OutputBuffer4catfEPKcz
 3547 0c82 73E5     		b	.L469
 3548              	.L534:
 3549 0c84 4FF0FF32 		mov	r2, #-1
 3550 0c88 FFF783BA 		b	.L421
 3551              	.L425:
 3552 0c8c 4FF0FF32 		mov	r2, #-1
 3553 0c90 0498     		ldr	r0, [sp, #16]
 3554 0c92 FFF7FEFF 		bl	_ZN11MutexLockerC1ERK5Mutexm
 3555 0c96 94F85962 		ldrb	r6, [r4, #601]	@ zero_extendqisi2
 3556 0c9a 002E     		cmp	r6, #0
 3557 0c9c 7FF471AF 		bne	.L519
 3558 0ca0 9FED1F8A 		vldr.32	s16, .L690+28
 3559 0ca4 77E7     		b	.L427
 3560              	.L668:
 3561 0ca6 0023     		movs	r3, #0
 3562 0ca8 9BE5     		b	.L478
 3563              	.L472:
 3564 0caa 0133     		adds	r3, r3, #1
 3565 0cac 00F0C382 		beq	.L676
 3566 0cb0 4FF0030B 		mov	fp, #3
 3567 0cb4 19E7     		b	.L473
 3568              	.L434:
 3569 0cb6 1449     		ldr	r1, .L690+4
 3570 0cb8 0B98     		ldr	r0, [sp, #44]
 3571 0cba FFF7FEFF 		bl	_ZN12OutputBuffer3catEPKc
 3572 0cbe 94F85932 		ldrb	r3, [r4, #601]	@ zero_extendqisi2
 3573 0cc2 0B98     		ldr	r0, [sp, #44]
 3574 0cc4 84F85851 		strb	r5, [r4, #344]
 3575 0cc8 84E7     		b	.L433
 3576              	.L672:
 3577 0cca 1F49     		ldr	r1, .L690+68
 3578 0ccc FFF7FEFF 		bl	_ZN12OutputBuffer3catEPKc
 3579 0cd0 0024     		movs	r4, #0
 3580 0cd2 0B98     		ldr	r0, [sp, #44]
 3581 0cd4 0599     		ldr	r1, [sp, #20]
 3582 0cd6 08E0     		b	.L503
 3583              	.L502:
 3584 0cd8 0A49     		ldr	r1, .L690
 3585 0cda 2246     		mov	r2, r4
 3586 0cdc FFF7FEFF 		bl	_ZN12OutputBuffer4catfEPKcz
 3587 0ce0 0B98     		ldr	r0, [sp, #44]
 3588 0ce2 0021     		movs	r1, #0
 3589              	.L501:
 3590 0ce4 0134     		adds	r4, r4, #1
 3591 0ce6 092C     		cmp	r4, #9
ARM GAS  C:\Users\paja\AppData\Local\Temp\ccY4oRD5.s 			page 64


 3592 0ce8 30D0     		beq	.L677
 3593              	.L503:
 3594 0cea D5F8A430 		ldr	r3, [r5, #164]
 3595 0cee 0AFA04F2 		lsl	r2, r10, r4
 3596 0cf2 1A42     		tst	r2, r3
 3597 0cf4 F6D0     		beq	.L501
 3598 0cf6 0029     		cmp	r1, #0
 3599 0cf8 EED1     		bne	.L502
 3600 0cfa 0349     		ldr	r1, .L690+4
 3601 0cfc FFF7FEFF 		bl	_ZN12OutputBuffer3catEPKc
 3602 0d00 0B98     		ldr	r0, [sp, #44]
 3603 0d02 E9E7     		b	.L502
 3604              	.L691:
 3605              		.align	2
 3606              	.L690:
 3607 0d04 78050000 		.word	.LC117
 3608 0d08 A4000000 		.word	.LC61
 3609 0d0c 98030000 		.word	.LC93
 3610 0d10 A8030000 		.word	.LC94
 3611 0d14 C8030000 		.word	.LC95
 3612 0d18 EC010000 		.word	.LC75
 3613 0d1c 98010000 		.word	.LC73
 3614 0d20 00000000 		.word	0
 3615 0d24 34070000 		.word	.LC138
 3616 0d28 40070000 		.word	.LC139
 3617 0d2c B4000000 		.word	.LC63
 3618 0d30 C8000000 		.word	.LC64
 3619 0d34 D4000000 		.word	.LC65
 3620 0d38 E4000000 		.word	.LC47
 3621 0d3c 7C010000 		.word	.LC71
 3622 0d40 68030000 		.word	.LC91
 3623 0d44 84030000 		.word	.LC92
 3624 0d48 7C050000 		.word	.LC118
 3625              	.L677:
 3626 0d4c B649     		ldr	r1, .L692
 3627 0d4e FFF7FEFF 		bl	_ZN12OutputBuffer3catEPKc
 3628 0d52 D5F8AC20 		ldr	r2, [r5, #172]
 3629 0d56 B549     		ldr	r1, .L692+4
 3630 0d58 0B98     		ldr	r0, [sp, #44]
 3631 0d5a FFF7FEFF 		bl	_ZN12OutputBuffer4catfEPKcz
 3632 0d5e 6C68     		ldr	r4, [r5, #4]
 3633 0d60 8CB1     		cbz	r4, .L504
 3634 0d62 B349     		ldr	r1, .L692+8
 3635 0d64 0B98     		ldr	r0, [sp, #44]
 3636 0d66 0834     		adds	r4, r4, #8
 3637 0d68 FFF7FEFF 		bl	_ZN12OutputBuffer4catfEPKcz
 3638 0d6c 2046     		mov	r0, r4
 3639 0d6e FFF7FEFF 		bl	strlen
 3640 0d72 0B9E     		ldr	r6, [sp, #44]
 3641 0d74 CDF800A0 		str	r10, [sp]
 3642 0d78 0023     		movs	r3, #0
 3643 0d7a 0246     		mov	r2, r0
 3644 0d7c 2146     		mov	r1, r4
 3645 0d7e 3046     		mov	r0, r6
 3646 0d80 0193     		str	r3, [sp, #4]
 3647 0d82 FFF7FEFF 		bl	_ZN12OutputBuffer12EncodeStringEPKcjbbb
 3648              	.L504:
ARM GAS  C:\Users\paja\AppData\Local\Temp\ccY4oRD5.s 			page 65


 3649 0d86 AB49     		ldr	r1, .L692+12
 3650 0d88 0B98     		ldr	r0, [sp, #44]
 3651 0d8a FFF7FEFF 		bl	_ZN12OutputBuffer3catEPKc
 3652 0d8e 079B     		ldr	r3, [sp, #28]
 3653 0d90 CBB1     		cbz	r3, .L505
 3654 0d92 DFF8E492 		ldr	r9, .L692+80
 3655 0d96 0695     		str	r5, [sp, #24]
 3656 0d98 05F10C06 		add	r6, r5, #12
 3657 0d9c 0024     		movs	r4, #0
 3658 0d9e 9846     		mov	r8, r3
 3659              	.L507:
 3660 0da0 56F8040B 		ldr	r0, [r6], #4	@ float
 3661 0da4 A44F     		ldr	r7, .L692+16
 3662 0da6 0B9D     		ldr	r5, [sp, #44]
 3663 0da8 FFF7FEFF 		bl	__aeabi_f2d
 3664 0dac 002C     		cmp	r4, #0
 3665 0dae 18BF     		it	ne
 3666 0db0 4F46     		movne	r7, r9
 3667 0db2 0246     		mov	r2, r0
 3668 0db4 0B46     		mov	r3, r1
 3669 0db6 2846     		mov	r0, r5
 3670 0db8 3946     		mov	r1, r7
 3671 0dba 0134     		adds	r4, r4, #1
 3672 0dbc FFF7FEFF 		bl	_ZN12OutputBuffer4catfEPKcz
 3673 0dc0 4445     		cmp	r4, r8
 3674 0dc2 EDD1     		bne	.L507
 3675 0dc4 069D     		ldr	r5, [sp, #24]
 3676              	.L505:
 3677 0dc6 2968     		ldr	r1, [r5]
 3678 0dc8 9C4A     		ldr	r2, .L692+20
 3679 0dca 9D4B     		ldr	r3, .L692+24
 3680 0dcc 0B98     		ldr	r0, [sp, #44]
 3681 0dce 0029     		cmp	r1, #0
 3682 0dd0 0CBF     		ite	eq
 3683 0dd2 1146     		moveq	r1, r2
 3684 0dd4 1946     		movne	r1, r3
 3685 0dd6 FFF7FEFF 		bl	_ZN12OutputBuffer3catEPKc
 3686 0dda 2D68     		ldr	r5, [r5]
 3687 0ddc 002D     		cmp	r5, #0
 3688 0dde 7FF4BBAD 		bne	.L509
 3689 0de2 099C     		ldr	r4, [sp, #36]
 3690              	.L489:
 3691 0de4 9749     		ldr	r1, .L692+28
 3692 0de6 0B98     		ldr	r0, [sp, #44]
 3693 0de8 FFF7FEFF 		bl	_ZN12OutputBuffer3catEPKc
 3694 0dec DDF81080 		ldr	r8, [sp, #16]
 3695 0df0 4046     		mov	r0, r8
 3696 0df2 FFF7FEFF 		bl	_ZN11MutexLockerD1Ev
 3697 0df6 4346     		mov	r3, r8
 3698 0df8 0DAA     		add	r2, sp, #52
 3699 0dfa 0CA9     		add	r1, sp, #48
 3700 0dfc 6068     		ldr	r0, [r4, #4]
 3701 0dfe FFF7FEFF 		bl	_ZNK8Platform18GetMcuTemperaturesERfS0_S0_
 3702 0e02 0C98     		ldr	r0, [sp, #48]	@ float
 3703 0e04 FFF7FEFF 		bl	__aeabi_f2d
 3704 0e08 0646     		mov	r6, r0
 3705 0e0a 0E98     		ldr	r0, [sp, #56]	@ float
ARM GAS  C:\Users\paja\AppData\Local\Temp\ccY4oRD5.s 			page 66


 3706 0e0c 0B9D     		ldr	r5, [sp, #44]
 3707 0e0e 0F46     		mov	r7, r1
 3708 0e10 FFF7FEFF 		bl	__aeabi_f2d
 3709 0e14 CDE90201 		strd	r0, [sp, #8]
 3710 0e18 0D98     		ldr	r0, [sp, #52]	@ float
 3711 0e1a FFF7FEFF 		bl	__aeabi_f2d
 3712 0e1e 3246     		mov	r2, r6
 3713 0e20 3B46     		mov	r3, r7
 3714 0e22 CDE90001 		strd	r0, [sp]
 3715 0e26 2846     		mov	r0, r5
 3716 0e28 8749     		ldr	r1, .L692+32
 3717 0e2a FFF7FEFF 		bl	_ZN12OutputBuffer4catfEPKcz
 3718 0e2e 4346     		mov	r3, r8
 3719 0e30 0DAA     		add	r2, sp, #52
 3720 0e32 0CA9     		add	r1, sp, #48
 3721 0e34 6068     		ldr	r0, [r4, #4]
 3722 0e36 FFF7FEFF 		bl	_ZNK8Platform16GetPowerVoltagesERfS0_S0_
 3723 0e3a 0C98     		ldr	r0, [sp, #48]	@ float
 3724 0e3c FFF7FEFF 		bl	__aeabi_f2d
 3725 0e40 0646     		mov	r6, r0
 3726 0e42 0E98     		ldr	r0, [sp, #56]	@ float
 3727 0e44 0B9D     		ldr	r5, [sp, #44]
 3728 0e46 0F46     		mov	r7, r1
 3729 0e48 FFF7FEFF 		bl	__aeabi_f2d
 3730 0e4c CDE90201 		strd	r0, [sp, #8]
 3731 0e50 0D98     		ldr	r0, [sp, #52]	@ float
 3732 0e52 FFF7FEFF 		bl	__aeabi_f2d
 3733 0e56 3246     		mov	r2, r6
 3734 0e58 CDE90001 		strd	r0, [sp]
 3735 0e5c 3B46     		mov	r3, r7
 3736 0e5e 2846     		mov	r0, r5
 3737 0e60 7A49     		ldr	r1, .L692+36
 3738 0e62 FFF7FEFF 		bl	_ZN12OutputBuffer4catfEPKcz
 3739 0e66 0B98     		ldr	r0, [sp, #44]
 3740 0e68 8EE4     		b	.L510
 3741              	.L669:
 3742 0e6a 7949     		ldr	r1, .L692+40
 3743 0e6c FFF7FEFF 		bl	_ZN12OutputBuffer3catEPKc
 3744 0e70 3046     		mov	r0, r6
 3745 0e72 FFF7FEFF 		bl	strlen
 3746 0e76 0B9C     		ldr	r4, [sp, #44]
 3747 0e78 CDF800A0 		str	r10, [sp]
 3748 0e7c 0023     		movs	r3, #0
 3749 0e7e 0246     		mov	r2, r0
 3750 0e80 3146     		mov	r1, r6
 3751 0e82 2046     		mov	r0, r4
 3752 0e84 0193     		str	r3, [sp, #4]
 3753 0e86 FFF7FEFF 		bl	_ZN12OutputBuffer12EncodeStringEPKcjbbb
 3754              	.L652:
 3755 0e8a 0B98     		ldr	r0, [sp, #44]
 3756 0e8c 73E5     		b	.L491
 3757              	.L485:
 3758 0e8e FFF7FEFF 		bl	_ZNK8Platform17EndStopInputStateEj
 3759 0e92 0028     		cmp	r0, #0
 3760 0e94 3FF4F6AC 		beq	.L486
 3761              	.L651:
 3762 0e98 07FA08F3 		lsl	r3, r7, r8
ARM GAS  C:\Users\paja\AppData\Local\Temp\ccY4oRD5.s 			page 67


 3763 0e9c 1E43     		orrs	r6, r6, r3
 3764 0e9e F1E4     		b	.L486
 3765              	.L659:
 3766 0ea0 6C49     		ldr	r1, .L692+44
 3767 0ea2 0B98     		ldr	r0, [sp, #44]
 3768 0ea4 0025     		movs	r5, #0
 3769 0ea6 FFF7FEFF 		bl	_ZN12OutputBuffer3catEPKc
 3770 0eaa A846     		mov	r8, r5
 3771 0eac 5B21     		movs	r1, #91
 3772 0eae 0127     		movs	r7, #1
 3773 0eb0 A146     		mov	r9, r4
 3774 0eb2 0EE0     		b	.L455
 3775              	.L679:
 3776 0eb4 FFF7FEFF 		bl	strlen
 3777 0eb8 0246     		mov	r2, r0
 3778              	.L454:
 3779 0eba 0123     		movs	r3, #1
 3780 0ebc 3146     		mov	r1, r6
 3781 0ebe 1D44     		add	r5, r5, r3
 3782 0ec0 CDE90078 		strd	r7, r8, [sp]
 3783 0ec4 2046     		mov	r0, r4
 3784 0ec6 FFF7FEFF 		bl	_ZN12OutputBuffer12EncodeStringEPKcjbbb
 3785 0eca 082D     		cmp	r5, #8
 3786 0ecc 4FF02C01 		mov	r1, #44
 3787 0ed0 0DD0     		beq	.L678
 3788              	.L455:
 3789 0ed2 0B98     		ldr	r0, [sp, #44]
 3790 0ed4 FFF7FEFF 		bl	_ZN12OutputBuffer3catEc
 3791 0ed8 2946     		mov	r1, r5
 3792 0eda D9F81000 		ldr	r0, [r9, #16]
 3793 0ede FFF7FEFF 		bl	_ZNK4Heat13GetHeaterNameEj
 3794 0ee2 0B9C     		ldr	r4, [sp, #44]
 3795 0ee4 0646     		mov	r6, r0
 3796 0ee6 0028     		cmp	r0, #0
 3797 0ee8 E4D1     		bne	.L679
 3798 0eea 0246     		mov	r2, r0
 3799 0eec E5E7     		b	.L454
 3800              	.L678:
 3801 0eee 5549     		ldr	r1, .L692+28
 3802 0ef0 0B98     		ldr	r0, [sp, #44]
 3803 0ef2 4C46     		mov	r4, r9
 3804 0ef4 FFF7FEFF 		bl	_ZN12OutputBuffer3catEPKc
 3805 0ef8 FFF728BB 		b	.L453
 3806              	.L656:
 3807 0efc 5649     		ldr	r1, .L692+48
 3808 0efe 0B98     		ldr	r0, [sp, #44]
 3809 0f00 0025     		movs	r5, #0
 3810 0f02 FFF7FEFF 		bl	_ZN12OutputBuffer3catEPKc
 3811 0f06 2F46     		mov	r7, r5
 3812 0f08 5B21     		movs	r1, #91
 3813 0f0a 0126     		movs	r6, #1
 3814              	.L438:
 3815 0f0c 0B98     		ldr	r0, [sp, #44]
 3816 0f0e FFF7FEFF 		bl	_ZN12OutputBuffer3catEc
 3817 0f12 2946     		mov	r1, r5
 3818 0f14 6068     		ldr	r0, [r4, #4]
 3819 0f16 FFF7FEFF 		bl	_ZNK8Platform10GetFanNameEj
ARM GAS  C:\Users\paja\AppData\Local\Temp\ccY4oRD5.s 			page 68


 3820 0f1a 8046     		mov	r8, r0
 3821 0f1c FFF7FEFF 		bl	strlen
 3822 0f20 0B9B     		ldr	r3, [sp, #44]
 3823 0f22 0197     		str	r7, [sp, #4]
 3824 0f24 0246     		mov	r2, r0
 3825 0f26 4146     		mov	r1, r8
 3826 0f28 1846     		mov	r0, r3
 3827 0f2a 0135     		adds	r5, r5, #1
 3828 0f2c 0096     		str	r6, [sp]
 3829 0f2e 0123     		movs	r3, #1
 3830 0f30 FFF7FEFF 		bl	_ZN12OutputBuffer12EncodeStringEPKcjbbb
 3831 0f34 092D     		cmp	r5, #9
 3832 0f36 4FF02C01 		mov	r1, #44
 3833 0f3a E7D1     		bne	.L438
 3834 0f3c 4149     		ldr	r1, .L692+28
 3835 0f3e 0B98     		ldr	r0, [sp, #44]
 3836 0f40 FFF7FEFF 		bl	_ZN12OutputBuffer3catEPKc
 3837 0f44 FFF79AB9 		b	.L437
 3838              	.L418:
 3839 0f48 5B21     		movs	r1, #91
 3840 0f4a 0B98     		ldr	r0, [sp, #44]
 3841 0f4c FFF7FEFF 		bl	_ZN12OutputBuffer3catEc
 3842 0f50 FFF7F9B8 		b	.L420
 3843              	.L533:
 3844 0f54 0598     		ldr	r0, [sp, #20]
 3845 0f56 1BB0     		add	sp, sp, #108
 3846              		@ sp needed
 3847 0f58 BDEC028B 		vldm	sp!, {d8}
 3848 0f5c BDE8F08F 		pop	{r4, r5, r6, r7, r8, r9, r10, fp, pc}
 3849              	.L480:
 3850 0f60 FFF7FEFF 		bl	_ZNK4Move17GetNumProbePointsEv
 3851 0f64 0028     		cmp	r0, #0
 3852 0f66 00F04181 		beq	.L482
 3853 0f6a E068     		ldr	r0, [r4, #12]
 3854 0f6c 0B9D     		ldr	r5, [sp, #44]
 3855 0f6e FFF7FEFF 		bl	_ZNK4Move17GetNumProbePointsEv
 3856 0f72 3A49     		ldr	r1, .L692+52
 3857 0f74 0246     		mov	r2, r0
 3858 0f76 2846     		mov	r0, r5
 3859 0f78 FFF7FEFF 		bl	_ZN12OutputBuffer4catfEPKcz
 3860 0f7c 4EE4     		b	.L481
 3861              	.L543:
 3862 0f7e 384B     		ldr	r3, .L692+56
 3863 0f80 3BE4     		b	.L479
 3864              	.L673:
 3865 0f82 1846     		mov	r0, r3
 3866 0f84 5D21     		movs	r1, #93
 3867 0f86 FFF7FEFF 		bl	_ZN12OutputBuffer3catEc
 3868 0f8a 5446     		mov	r4, r10
 3869 0f8c 0B98     		ldr	r0, [sp, #44]
 3870 0f8e FFF7F4BB 		b	.L470
 3871              	.L675:
 3872 0f92 002D     		cmp	r5, #0
 3873 0f94 7FF421A9 		bne	.L428
 3874 0f98 94F85932 		ldrb	r3, [r4, #601]	@ zero_extendqisi2
 3875 0f9c 002B     		cmp	r3, #0
 3876 0f9e 3FF43BA9 		beq	.L430
ARM GAS  C:\Users\paja\AppData\Local\Temp\ccY4oRD5.s 			page 69


 3877 0fa2 3049     		ldr	r1, .L692+60
 3878 0fa4 0B98     		ldr	r0, [sp, #44]
 3879 0fa6 FFF7FEFF 		bl	_ZN12OutputBuffer3catEPKc
 3880 0faa 0B98     		ldr	r0, [sp, #44]
 3881 0fac 10E6     		b	.L523
 3882              	.L674:
 3883 0fae D4F86834 		ldr	r3, [r4, #1128]
 3884 0fb2 DFED2D8A 		vldr.32	s17, .L692+64
 3885 0fb6 07EE903A 		vmov	s15, r3	@ int
 3886 0fba F8EE677A 		vcvt.f32.u32	s15, s15
 3887 0fbe 87EEA88A 		vdiv.f32	s16, s15, s17
 3888 0fc2 FFF7FEFF 		bl	millis
 3889 0fc6 D4F86434 		ldr	r3, [r4, #1124]
 3890 0fca C01A     		subs	r0, r0, r3
 3891 0fcc 07EE900A 		vmov	s15, r0	@ int
 3892 0fd0 F8EE677A 		vcvt.f32.u32	s15, s15
 3893 0fd4 87EEA87A 		vdiv.f32	s14, s15, s17
 3894 0fd8 38EE478A 		vsub.f32	s16, s16, s14
 3895 0fdc B5EEC08A 		vcmpe.f32	s16, #0
 3896 0fe0 F1EE10FA 		vmrs	APSR_nzcv, FPSCR
 3897 0fe4 CCBF     		ite	gt
 3898 0fe6 0123     		movgt	r3, #1
 3899 0fe8 0023     		movle	r3, #0
 3900 0fea 84F85932 		strb	r3, [r4, #601]
 3901 0fee CFE5     		b	.L426
 3902              	.L439:
 3903 0ff0 0B98     		ldr	r0, [sp, #44]
 3904 0ff2 1E49     		ldr	r1, .L692+68
 3905 0ff4 FFF776B9 		b	.L442
 3906              	.L412:
 3907 0ff8 1D49     		ldr	r1, .L692+72
 3908 0ffa 0B98     		ldr	r0, [sp, #44]
 3909 0ffc FFF7FEFF 		bl	_ZN12OutputBuffer3catEPKc
 3910 1000 D4F8EC20 		ldr	r2, [r4, #236]
 3911 1004 E068     		ldr	r0, [r4, #12]
 3912 1006 002A     		cmp	r2, #0
 3913 1008 00F01F81 		beq	.L680
 3914 100c 0EAB     		add	r3, sp, #56
 3915 100e 0493     		str	r3, [sp, #16]
 3916 1010 1946     		mov	r1, r3
 3917 1012 D2E92823 		ldrd	r2, r3, [r2, #160]
 3918 1016 FFF7FEFF 		bl	_ZN4Move15LiveCoordinatesEPfmm
 3919 101a 1649     		ldr	r1, .L692+76
 3920 101c 0B98     		ldr	r0, [sp, #44]
 3921 101e FFF7FEFF 		bl	_ZN12OutputBuffer4catfEPKcz
 3922 1022 FFF769B8 		b	.L530
 3923              	.L693:
 3924 1026 00BF     		.align	2
 3925              	.L692:
 3926 1028 80050000 		.word	.LC119
 3927 102c 84050000 		.word	.LC120
 3928 1030 90050000 		.word	.LC121
 3929 1034 A0050000 		.word	.LC122
 3930 1038 08000000 		.word	.LC51
 3931 103c 24010000 		.word	.LC28
 3932 1040 18000000 		.word	.LC53
 3933 1044 04000000 		.word	.LC50
ARM GAS  C:\Users\paja\AppData\Local\Temp\ccY4oRD5.s 			page 70


 3934 1048 B0050000 		.word	.LC123
 3935 104c E0050000 		.word	.LC124
 3936 1050 E4040000 		.word	.LC107
 3937 1054 F8020000 		.word	.LC84
 3938 1058 34010000 		.word	.LC68
 3939 105c 20040000 		.word	.LC100
 3940 1060 00805640 		.word	1079410688
 3941 1064 34070000 		.word	.LC138
 3942 1068 00007A44 		.word	1148846080
 3943 106c 00000000 		.word	.LC49
 3944 1070 68070000 		.word	.LC140
 3945 1074 74070000 		.word	.LC141
 3946 1078 10000000 		.word	.LC52
 3947              	.L666:
 3948 107c 236A     		ldr	r3, [r4, #32]
 3949 107e 7949     		ldr	r1, .L694
 3950 1080 1A6B     		ldr	r2, [r3, #48]
 3951 1082 FFF7FEFF 		bl	_ZN12OutputBuffer4catfEPKcz
 3952 1086 256A     		ldr	r5, [r4, #32]
 3953 1088 0B9E     		ldr	r6, [sp, #44]
 3954 108a D5ED117A 		vldr.32	s15, [r5, #68]
 3955 108e F5EEC07A 		vcmpe.f32	s15, #0
 3956 1092 F1EE10FA 		vmrs	APSR_nzcv, FPSCR
 3957 1096 00F3B280 		bgt	.L681
 3958 109a 0022     		movs	r2, #0
 3959 109c 0023     		movs	r3, #0
 3960              	.L511:
 3961 109e 7249     		ldr	r1, .L694+4
 3962 10a0 3046     		mov	r0, r6
 3963 10a2 FFF7FEFF 		bl	_ZN12OutputBuffer4catfEPKcz
 3964 10a6 7149     		ldr	r1, .L694+8
 3965 10a8 0B98     		ldr	r0, [sp, #44]
 3966 10aa FFF7FEFF 		bl	_ZN12OutputBuffer3catEPKc
 3967 10ae B4F8F430 		ldrh	r3, [r4, #244]
 3968 10b2 002B     		cmp	r3, #0
 3969 10b4 00F0C480 		beq	.L513
 3970 10b8 DFF8E481 		ldr	r8, .L694+60
 3971 10bc 0025     		movs	r5, #0
 3972 10be 5B26     		movs	r6, #91
 3973              	.L514:
 3974 10c0 2946     		mov	r1, r5
 3975 10c2 6069     		ldr	r0, [r4, #20]
 3976 10c4 0B9F     		ldr	r7, [sp, #44]
 3977 10c6 FFF7FEFF 		bl	_ZNK6GCodes26GetRawExtruderTotalByDriveEj
 3978 10ca 10EE100A 		vmov	r0, s0
 3979 10ce FFF7FEFF 		bl	__aeabi_f2d
 3980 10d2 3246     		mov	r2, r6
 3981 10d4 CDE90001 		strd	r0, [sp]
 3982 10d8 3846     		mov	r0, r7
 3983 10da 4146     		mov	r1, r8
 3984 10dc FFF7FEFF 		bl	_ZN12OutputBuffer4catfEPKcz
 3985 10e0 B4F8F430 		ldrh	r3, [r4, #244]
 3986 10e4 0135     		adds	r5, r5, #1
 3987 10e6 AB42     		cmp	r3, r5
 3988 10e8 4FF02C06 		mov	r6, #44
 3989 10ec E8D8     		bhi	.L514
 3990              	.L515:
ARM GAS  C:\Users\paja\AppData\Local\Temp\ccY4oRD5.s 			page 71


 3991 10ee 236A     		ldr	r3, [r4, #32]
 3992 10f0 0B9D     		ldr	r5, [sp, #44]
 3993 10f2 1B7B     		ldrb	r3, [r3, #12]	@ zero_extendqisi2
 3994 10f4 002B     		cmp	r3, #0
 3995 10f6 40F09080 		bne	.L682
 3996 10fa 0022     		movs	r2, #0
 3997 10fc 0023     		movs	r3, #0
 3998              	.L516:
 3999 10fe 5C49     		ldr	r1, .L694+12
 4000 1100 2846     		mov	r0, r5
 4001 1102 FFF7FEFF 		bl	_ZN12OutputBuffer4catfEPKcz
 4002 1106 6069     		ldr	r0, [r4, #20]
 4003 1108 0B9D     		ldr	r5, [sp, #44]
 4004 110a FFF7FEFF 		bl	_ZNK6GCodes15GetFilePositionEv
 4005 110e 5949     		ldr	r1, .L694+16
 4006 1110 0246     		mov	r2, r0
 4007 1112 2846     		mov	r0, r5
 4008 1114 FFF7FEFF 		bl	_ZN12OutputBuffer4catfEPKcz
 4009 1118 206A     		ldr	r0, [r4, #32]
 4010 111a 0B9D     		ldr	r5, [sp, #44]
 4011 111c FFF7FEFF 		bl	_ZNK12PrintMonitor21GetFirstLayerDurationEv
 4012 1120 10EE100A 		vmov	r0, s0
 4013 1124 FFF7FEFF 		bl	__aeabi_f2d
 4014 1128 0246     		mov	r2, r0
 4015 112a 0B46     		mov	r3, r1
 4016 112c 2846     		mov	r0, r5
 4017 112e 5249     		ldr	r1, .L694+20
 4018 1130 FFF7FEFF 		bl	_ZN12OutputBuffer4catfEPKcz
 4019 1134 236A     		ldr	r3, [r4, #32]
 4020 1136 0B9D     		ldr	r5, [sp, #44]
 4021 1138 93F89420 		ldrb	r2, [r3, #148]	@ zero_extendqisi2
 4022 113c 002A     		cmp	r2, #0
 4023 113e 5BD0     		beq	.L548
 4024 1140 D3F8AC00 		ldr	r0, [r3, #172]	@ float
 4025 1144 FFF7FEFF 		bl	__aeabi_f2d
 4026 1148 0246     		mov	r2, r0
 4027 114a 0B46     		mov	r3, r1
 4028              	.L517:
 4029 114c 4B49     		ldr	r1, .L694+24
 4030 114e 2846     		mov	r0, r5
 4031 1150 FFF7FEFF 		bl	_ZN12OutputBuffer4catfEPKcz
 4032 1154 206A     		ldr	r0, [r4, #32]
 4033 1156 0B9D     		ldr	r5, [sp, #44]
 4034 1158 FFF7FEFF 		bl	_ZNK12PrintMonitor16GetPrintDurationEv
 4035 115c 10EE100A 		vmov	r0, s0
 4036 1160 FFF7FEFF 		bl	__aeabi_f2d
 4037 1164 0246     		mov	r2, r0
 4038 1166 0B46     		mov	r3, r1
 4039 1168 2846     		mov	r0, r5
 4040 116a 4549     		ldr	r1, .L694+28
 4041 116c FFF7FEFF 		bl	_ZN12OutputBuffer4catfEPKcz
 4042 1170 206A     		ldr	r0, [r4, #32]
 4043 1172 0B9D     		ldr	r5, [sp, #44]
 4044 1174 FFF7FEFF 		bl	_ZNK12PrintMonitor17GetWarmUpDurationEv
 4045 1178 10EE100A 		vmov	r0, s0
 4046 117c FFF7FEFF 		bl	__aeabi_f2d
 4047 1180 0246     		mov	r2, r0
ARM GAS  C:\Users\paja\AppData\Local\Temp\ccY4oRD5.s 			page 72


 4048 1182 0B46     		mov	r3, r1
 4049 1184 2846     		mov	r0, r5
 4050 1186 3F49     		ldr	r1, .L694+32
 4051 1188 FFF7FEFF 		bl	_ZN12OutputBuffer4catfEPKcz
 4052 118c 206A     		ldr	r0, [r4, #32]
 4053 118e 0B9D     		ldr	r5, [sp, #44]
 4054 1190 0121     		movs	r1, #1
 4055 1192 FFF7FEFF 		bl	_ZNK12PrintMonitor16EstimateTimeLeftE21PrintEstimationMethod
 4056 1196 10EE100A 		vmov	r0, s0
 4057 119a FFF7FEFF 		bl	__aeabi_f2d
 4058 119e 0246     		mov	r2, r0
 4059 11a0 0B46     		mov	r3, r1
 4060 11a2 2846     		mov	r0, r5
 4061 11a4 3849     		ldr	r1, .L694+36
 4062 11a6 FFF7FEFF 		bl	_ZN12OutputBuffer4catfEPKcz
 4063 11aa 206A     		ldr	r0, [r4, #32]
 4064 11ac 0B9D     		ldr	r5, [sp, #44]
 4065 11ae 0021     		movs	r1, #0
 4066 11b0 FFF7FEFF 		bl	_ZNK12PrintMonitor16EstimateTimeLeftE21PrintEstimationMethod
 4067 11b4 10EE100A 		vmov	r0, s0
 4068 11b8 FFF7FEFF 		bl	__aeabi_f2d
 4069 11bc 0246     		mov	r2, r0
 4070 11be 0B46     		mov	r3, r1
 4071 11c0 2846     		mov	r0, r5
 4072 11c2 3249     		ldr	r1, .L694+40
 4073 11c4 FFF7FEFF 		bl	_ZN12OutputBuffer4catfEPKcz
 4074 11c8 206A     		ldr	r0, [r4, #32]
 4075 11ca 0B9D     		ldr	r5, [sp, #44]
 4076 11cc 0221     		movs	r1, #2
 4077 11ce FFF7FEFF 		bl	_ZNK12PrintMonitor16EstimateTimeLeftE21PrintEstimationMethod
 4078 11d2 10EE100A 		vmov	r0, s0
 4079 11d6 FFF7FEFF 		bl	__aeabi_f2d
 4080 11da 0246     		mov	r2, r0
 4081 11dc 0B46     		mov	r3, r1
 4082 11de 2846     		mov	r0, r5
 4083 11e0 2B49     		ldr	r1, .L694+44
 4084 11e2 FFF7FEFF 		bl	_ZN12OutputBuffer4catfEPKcz
 4085 11e6 0B98     		ldr	r0, [sp, #44]
 4086 11e8 FFF7CEBA 		b	.L510
 4087              	.L482:
 4088 11ec 2949     		ldr	r1, .L694+48
 4089 11ee 0B98     		ldr	r0, [sp, #44]
 4090 11f0 FFF7FEFF 		bl	_ZN12OutputBuffer3catEPKc
 4091 11f4 FFF712BB 		b	.L481
 4092              	.L548:
 4093 11f8 0022     		movs	r2, #0
 4094 11fa 0023     		movs	r3, #0
 4095 11fc A6E7     		b	.L517
 4096              	.L681:
 4097 11fe 2846     		mov	r0, r5
 4098 1200 FFF7FEFF 		bl	_ZNK12PrintMonitor16GetPrintDurationEv
 4099 1204 D5ED117A 		vldr.32	s15, [r5, #68]
 4100 1208 70EE677A 		vsub.f32	s15, s0, s15
 4101 120c 17EE900A 		vmov	r0, s15
 4102 1210 FFF7FEFF 		bl	__aeabi_f2d
 4103 1214 0246     		mov	r2, r0
 4104 1216 0B46     		mov	r3, r1
ARM GAS  C:\Users\paja\AppData\Local\Temp\ccY4oRD5.s 			page 73


 4105 1218 41E7     		b	.L511
 4106              	.L682:
 4107 121a 6069     		ldr	r0, [r4, #20]
 4108 121c FFF7FEFF 		bl	_ZNK6GCodes21FractionOfFilePrintedEv
 4109 1220 DFED1D7A 		vldr.32	s15, .L694+52
 4110 1224 60EE277A 		vmul.f32	s15, s0, s15
 4111 1228 17EE900A 		vmov	r0, s15
 4112 122c FFF7FEFF 		bl	__aeabi_f2d
 4113 1230 0246     		mov	r2, r0
 4114 1232 0B46     		mov	r3, r1
 4115 1234 63E7     		b	.L516
 4116              	.L676:
 4117 1236 BBF1FF3F 		cmp	fp, #-1
 4118 123a 3FF49EAA 		beq	.L470
 4119 123e 54E4     		b	.L473
 4120              	.L513:
 4121 1240 5B21     		movs	r1, #91
 4122 1242 0B98     		ldr	r0, [sp, #44]
 4123 1244 FFF7FEFF 		bl	_ZN12OutputBuffer3catEc
 4124 1248 51E7     		b	.L515
 4125              	.L680:
 4126 124a 0EAB     		add	r3, sp, #56
 4127 124c 0493     		str	r3, [sp, #16]
 4128 124e 1946     		mov	r1, r3
 4129 1250 0122     		movs	r2, #1
 4130 1252 0223     		movs	r3, #2
 4131 1254 FFF7FEFF 		bl	_ZN4Move15LiveCoordinatesEPfmm
 4132 1258 1049     		ldr	r1, .L694+56
 4133 125a 0B98     		ldr	r0, [sp, #44]
 4134 125c FFF7FEFF 		bl	_ZN12OutputBuffer4catfEPKcz
 4135 1260 FEF74ABF 		b	.L530
 4136              	.L695:
 4137              		.align	2
 4138              	.L694:
 4139 1264 0C060000 		.word	.LC125
 4140 1268 20060000 		.word	.LC126
 4141 126c 3C060000 		.word	.LC127
 4142 1270 48060000 		.word	.LC128
 4143 1274 64060000 		.word	.LC129
 4144 1278 78060000 		.word	.LC130
 4145 127c 94060000 		.word	.LC131
 4146 1280 B0060000 		.word	.LC132
 4147 1284 C8060000 		.word	.LC133
 4148 1288 E0060000 		.word	.LC134
 4149 128c FC060000 		.word	.LC135
 4150 1290 10070000 		.word	.LC136
 4151 1294 2C040000 		.word	.LC101
 4152 1298 0000C842 		.word	1120403456
 4153 129c 74070000 		.word	.LC141
 4154 12a0 C8000000 		.word	.LC45
 4155              		.size	_ZN6RepRap17GetStatusResponseEh14ResponseSource, .-_ZN6RepRap17GetStatusResponseEh14Response
 4156              		.section	.text._ZN6RepRap23GetLegacyStatusResponseEhi,"ax",%progbits
 4157              		.align	1
 4158              		.p2align 2,,3
 4159              		.global	_ZN6RepRap23GetLegacyStatusResponseEhi
 4160              		.syntax unified
 4161              		.thumb
ARM GAS  C:\Users\paja\AppData\Local\Temp\ccY4oRD5.s 			page 74


 4162              		.thumb_func
 4163              		.fpu fpv4-sp-d16
 4164              		.type	_ZN6RepRap23GetLegacyStatusResponseEhi, %function
 4165              	_ZN6RepRap23GetLegacyStatusResponseEhi:
 4166              		@ args = 0, pretend = 0, frame = 80
 4167              		@ frame_needed = 0, uses_anonymous_args = 0
 4168 0000 2DE9F04F 		push	{r4, r5, r6, r7, r8, r9, r10, fp, lr}
 4169 0004 2DED028B 		vpush.64	{d8}
 4170 0008 99B0     		sub	sp, sp, #100
 4171 000a 0446     		mov	r4, r0
 4172 000c 07A8     		add	r0, sp, #28
 4173 000e 8A46     		mov	r10, r1
 4174 0010 0492     		str	r2, [sp, #16]
 4175 0012 FFF7FEFF 		bl	_ZN12OutputBuffer8AllocateERPS_
 4176 0016 0028     		cmp	r0, #0
 4177 0018 00F06982 		beq	.L696
 4178 001c 2046     		mov	r0, r4
 4179 001e FFF7FEFF 		bl	_ZNK6RepRap18GetStatusCharacterEv
 4180 0022 5328     		cmp	r0, #83
 4181 0024 00F08D82 		beq	.L751
 4182 0028 4828     		cmp	r0, #72
 4183 002a 14BF     		ite	ne
 4184 002c 0246     		movne	r2, r0
 4185 002e 5322     		moveq	r2, #83
 4186              	.L698:
 4187 0030 7949     		ldr	r1, .L807+8
 4188 0032 0798     		ldr	r0, [sp, #28]
 4189 0034 FFF7FEFF 		bl	_ZN12OutputBuffer6printfEPKcz
 4190 0038 2069     		ldr	r0, [r4, #16]
 4191 003a 079D     		ldr	r5, [sp, #28]
 4192 003c 90F9D960 		ldrsb	r6, [r0, #217]
 4193 0040 771C     		adds	r7, r6, #1
 4194 0042 40F05982 		bne	.L795
 4195 0046 0022     		movs	r2, #0
 4196 0048 0023     		movs	r3, #0
 4197              	.L699:
 4198 004a 2846     		mov	r0, r5
 4199 004c 7349     		ldr	r1, .L807+12
 4200 004e FFF7FEFF 		bl	_ZN12OutputBuffer4catfEPKcz
 4201 0052 B4F8F630 		ldrh	r3, [r4, #246]
 4202 0056 012B     		cmp	r3, #1
 4203 0058 17D9     		bls	.L700
 4204 005a DFF8E081 		ldr	r8, .L807+44
 4205 005e 0125     		movs	r5, #1
 4206              	.L701:
 4207 0060 69B2     		sxtb	r1, r5
 4208 0062 2069     		ldr	r0, [r4, #16]
 4209 0064 079F     		ldr	r7, [sp, #28]
 4210 0066 FFF7FEFF 		bl	_ZNK4Heat14GetTemperatureEa
 4211 006a 10EE100A 		vmov	r0, s0
 4212 006e FFF7FEFF 		bl	__aeabi_f2d
 4213 0072 2C22     		movs	r2, #44
 4214 0074 CDE90001 		strd	r0, [sp]
 4215 0078 3846     		mov	r0, r7
 4216 007a 4146     		mov	r1, r8
 4217 007c FFF7FEFF 		bl	_ZN12OutputBuffer4catfEPKcz
 4218 0080 B4F8F630 		ldrh	r3, [r4, #246]
ARM GAS  C:\Users\paja\AppData\Local\Temp\ccY4oRD5.s 			page 75


 4219 0084 0135     		adds	r5, r5, #1
 4220 0086 AB42     		cmp	r3, r5
 4221 0088 EAD8     		bhi	.L701
 4222              	.L700:
 4223 008a 6549     		ldr	r1, .L807+16
 4224 008c 0798     		ldr	r0, [sp, #28]
 4225 008e FFF7FEFF 		bl	_ZN12OutputBuffer3catEPKc
 4226 0092 711C     		adds	r1, r6, #1
 4227 0094 079D     		ldr	r5, [sp, #28]
 4228 0096 00F03E82 		beq	.L754
 4229 009a 3146     		mov	r1, r6
 4230 009c 2069     		ldr	r0, [r4, #16]
 4231 009e FFF7FEFF 		bl	_ZNK4Heat20GetActiveTemperatureEa
 4232 00a2 10EE100A 		vmov	r0, s0
 4233 00a6 FFF7FEFF 		bl	__aeabi_f2d
 4234 00aa 0246     		mov	r2, r0
 4235 00ac 0B46     		mov	r3, r1
 4236              	.L702:
 4237 00ae 2846     		mov	r0, r5
 4238 00b0 5C49     		ldr	r1, .L807+20
 4239 00b2 FFF7FEFF 		bl	_ZN12OutputBuffer4catfEPKcz
 4240 00b6 B4F8F630 		ldrh	r3, [r4, #246]
 4241 00ba 012B     		cmp	r3, #1
 4242 00bc 16D9     		bls	.L703
 4243 00be DFF88081 		ldr	r8, .L807+48
 4244 00c2 0125     		movs	r5, #1
 4245              	.L704:
 4246 00c4 69B2     		sxtb	r1, r5
 4247 00c6 2069     		ldr	r0, [r4, #16]
 4248 00c8 079F     		ldr	r7, [sp, #28]
 4249 00ca FFF7FEFF 		bl	_ZNK4Heat20GetActiveTemperatureEa
 4250 00ce 10EE100A 		vmov	r0, s0
 4251 00d2 FFF7FEFF 		bl	__aeabi_f2d
 4252 00d6 0B46     		mov	r3, r1
 4253 00d8 0246     		mov	r2, r0
 4254 00da 4146     		mov	r1, r8
 4255 00dc 3846     		mov	r0, r7
 4256 00de FFF7FEFF 		bl	_ZN12OutputBuffer4catfEPKcz
 4257 00e2 B4F8F630 		ldrh	r3, [r4, #246]
 4258 00e6 0135     		adds	r5, r5, #1
 4259 00e8 AB42     		cmp	r3, r5
 4260 00ea EBD8     		bhi	.L704
 4261              	.L703:
 4262 00ec 4C49     		ldr	r1, .L807+16
 4263 00ee 0798     		ldr	r0, [sp, #28]
 4264 00f0 FFF7FEFF 		bl	_ZN12OutputBuffer3catEPKc
 4265 00f4 721C     		adds	r2, r6, #1
 4266 00f6 079D     		ldr	r5, [sp, #28]
 4267 00f8 00F00A82 		beq	.L755
 4268 00fc 3146     		mov	r1, r6
 4269 00fe 2069     		ldr	r0, [r4, #16]
 4270 0100 FFF7FEFF 		bl	_ZNK4Heat21GetStandbyTemperatureEa
 4271 0104 10EE100A 		vmov	r0, s0
 4272 0108 FFF7FEFF 		bl	__aeabi_f2d
 4273 010c 0246     		mov	r2, r0
 4274 010e 0B46     		mov	r3, r1
 4275              	.L705:
ARM GAS  C:\Users\paja\AppData\Local\Temp\ccY4oRD5.s 			page 76


 4276 0110 2846     		mov	r0, r5
 4277 0112 4549     		ldr	r1, .L807+24
 4278 0114 FFF7FEFF 		bl	_ZN12OutputBuffer4catfEPKcz
 4279 0118 B4F8F630 		ldrh	r3, [r4, #246]
 4280 011c 012B     		cmp	r3, #1
 4281 011e 16D9     		bls	.L706
 4282 0120 DFF81C81 		ldr	r8, .L807+48
 4283 0124 0125     		movs	r5, #1
 4284              	.L707:
 4285 0126 69B2     		sxtb	r1, r5
 4286 0128 2069     		ldr	r0, [r4, #16]
 4287 012a 079F     		ldr	r7, [sp, #28]
 4288 012c FFF7FEFF 		bl	_ZNK4Heat21GetStandbyTemperatureEa
 4289 0130 10EE100A 		vmov	r0, s0
 4290 0134 FFF7FEFF 		bl	__aeabi_f2d
 4291 0138 0B46     		mov	r3, r1
 4292 013a 0246     		mov	r2, r0
 4293 013c 4146     		mov	r1, r8
 4294 013e 3846     		mov	r0, r7
 4295 0140 FFF7FEFF 		bl	_ZN12OutputBuffer4catfEPKcz
 4296 0144 B4F8F630 		ldrh	r3, [r4, #246]
 4297 0148 0135     		adds	r5, r5, #1
 4298 014a AB42     		cmp	r3, r5
 4299 014c EBD8     		bhi	.L707
 4300              	.L706:
 4301 014e 3449     		ldr	r1, .L807+16
 4302 0150 0798     		ldr	r0, [sp, #28]
 4303 0152 FFF7FEFF 		bl	_ZN12OutputBuffer3catEPKc
 4304 0156 731C     		adds	r3, r6, #1
 4305 0158 079D     		ldr	r5, [sp, #28]
 4306 015a 00F0D781 		beq	.L756
 4307 015e 3146     		mov	r1, r6
 4308 0160 2069     		ldr	r0, [r4, #16]
 4309 0162 FFF7FEFF 		bl	_ZNK4Heat9GetStatusEa
 4310 0166 0246     		mov	r2, r0
 4311              	.L708:
 4312 0168 2846     		mov	r0, r5
 4313 016a 3049     		ldr	r1, .L807+28
 4314 016c FFF7FEFF 		bl	_ZN12OutputBuffer4catfEPKcz
 4315 0170 B4F8F630 		ldrh	r3, [r4, #246]
 4316 0174 012B     		cmp	r3, #1
 4317 0176 10D9     		bls	.L709
 4318 0178 2D4F     		ldr	r7, .L807+32
 4319 017a 0125     		movs	r5, #1
 4320              	.L710:
 4321 017c 69B2     		sxtb	r1, r5
 4322 017e 2069     		ldr	r0, [r4, #16]
 4323 0180 079E     		ldr	r6, [sp, #28]
 4324 0182 FFF7FEFF 		bl	_ZNK4Heat9GetStatusEa
 4325 0186 3946     		mov	r1, r7
 4326 0188 0246     		mov	r2, r0
 4327 018a 3046     		mov	r0, r6
 4328 018c FFF7FEFF 		bl	_ZN12OutputBuffer4catfEPKcz
 4329 0190 B4F8F630 		ldrh	r3, [r4, #246]
 4330 0194 0135     		adds	r5, r5, #1
 4331 0196 AB42     		cmp	r3, r5
 4332 0198 F0D8     		bhi	.L710
ARM GAS  C:\Users\paja\AppData\Local\Temp\ccY4oRD5.s 			page 77


 4333              	.L709:
 4334 019a 2149     		ldr	r1, .L807+16
 4335 019c 0798     		ldr	r0, [sp, #28]
 4336 019e FFF7FEFF 		bl	_ZN12OutputBuffer3catEPKc
 4337 01a2 6369     		ldr	r3, [r4, #20]
 4338 01a4 2349     		ldr	r1, .L807+36
 4339 01a6 0798     		ldr	r0, [sp, #28]
 4340 01a8 D3F86063 		ldr	r6, [r3, #864]
 4341 01ac FFF7FEFF 		bl	_ZN12OutputBuffer4catfEPKcz
 4342 01b0 6569     		ldr	r5, [r4, #20]
 4343 01b2 C035     		adds	r5, r5, #192
 4344 01b4 002E     		cmp	r6, #0
 4345 01b6 00F0BD82 		beq	.L711
 4346 01ba 9FED1F8A 		vldr.32	s16, .L807+40
 4347 01be DFF88490 		ldr	r9, .L807+52
 4348 01c2 05EB8608 		add	r8, r5, r6, lsl #2
 4349 01c6 4FF05B0B 		mov	fp, #91
 4350 01ca 0CE0     		b	.L715
 4351              	.L797:
 4352 01cc FFF7FEFF 		bl	__aeabi_f2d
 4353              	.L712:
 4354 01d0 CDE90001 		strd	r0, [sp]
 4355 01d4 5A46     		mov	r2, fp
 4356 01d6 3846     		mov	r0, r7
 4357 01d8 4946     		mov	r1, r9
 4358 01da FFF7FEFF 		bl	_ZN12OutputBuffer4catfEPKcz
 4359 01de 4545     		cmp	r5, r8
 4360 01e0 4FF02C0B 		mov	fp, #44
 4361 01e4 30D0     		beq	.L796
 4362              	.L715:
 4363 01e6 F5EC017A 		vldmia.32	r5!, {s15}
 4364 01ea 079F     		ldr	r7, [sp, #28]
 4365 01ec F4EE677A 		vcmp.f32	s15, s15
 4366 01f0 F1EE10FA 		vmrs	APSR_nzcv, FPSCR
 4367 01f4 B0EEE77A 		vabs.f32	s14, s15
 4368 01f8 17EE900A 		vmov	r0, s15
 4369 01fc 04D6     		bvs	.L787
 4370 01fe B4EE487A 		vcmp.f32	s14, s16
 4371 0202 F1EE10FA 		vmrs	APSR_nzcv, FPSCR
 4372 0206 E1DD     		ble	.L797
 4373              	.L787:
 4374 0208 01A1     		adr	r1, .L807
 4375 020a D1E90001 		ldrd	r0, [r1]
 4376 020e DFE7     		b	.L712
 4377              	.L808:
 4378              		.align	3
 4379              	.L807:
 4380 0210 00000040 		.word	1073741824
 4381 0214 F387C340 		.word	1086556147
 4382 0218 00000000 		.word	.LC142
 4383 021c 1C000000 		.word	.LC143
 4384 0220 04000000 		.word	.LC50
 4385 0224 24000000 		.word	.LC144
 4386 0228 3C000000 		.word	.LC146
 4387 022c 50000000 		.word	.LC147
 4388 0230 60000000 		.word	.LC148
 4389 0234 64000000 		.word	.LC149
ARM GAS  C:\Users\paja\AppData\Local\Temp\ccY4oRD5.s 			page 78


 4390 0238 FFFF7F7F 		.word	2139095039
 4391 023c C8000000 		.word	.LC45
 4392 0240 34000000 		.word	.LC145
 4393 0244 50000000 		.word	.LC57
 4394              	.L796:
 4395 0248 D4F8EC20 		ldr	r2, [r4, #236]
 4396 024c E068     		ldr	r0, [r4, #12]
 4397 024e 002A     		cmp	r2, #0
 4398 0250 00F06582 		beq	.L798
 4399 0254 0CAF     		add	r7, sp, #48
 4400 0256 3946     		mov	r1, r7
 4401 0258 D2E92823 		ldrd	r2, r3, [r2, #160]
 4402 025c FFF7FEFF 		bl	_ZN4Move15LiveCoordinatesEPfmm
 4403 0260 BF49     		ldr	r1, .L809
 4404 0262 0798     		ldr	r0, [sp, #28]
 4405 0264 FFF7FEFF 		bl	_ZN12OutputBuffer4catfEPKcz
 4406              	.L743:
 4407 0268 DFF84483 		ldr	r8, .L809+80
 4408 026c 0025     		movs	r5, #0
 4409 026e 4FF05B09 		mov	r9, #91
 4410 0272 A346     		mov	fp, r4
 4411              	.L716:
 4412 0274 57F8040B 		ldr	r0, [r7], #4	@ float
 4413 0278 079C     		ldr	r4, [sp, #28]
 4414 027a FFF7FEFF 		bl	__aeabi_f2d
 4415 027e 0135     		adds	r5, r5, #1
 4416 0280 CDE90001 		strd	r0, [sp]
 4417 0284 4A46     		mov	r2, r9
 4418 0286 2046     		mov	r0, r4
 4419 0288 4146     		mov	r1, r8
 4420 028a FFF7FEFF 		bl	_ZN12OutputBuffer4catfEPKcz
 4421 028e B542     		cmp	r5, r6
 4422 0290 4FF02C09 		mov	r9, #44
 4423 0294 EED3     		bcc	.L716
 4424 0296 5C46     		mov	r4, fp
 4425              	.L746:
 4426 0298 6069     		ldr	r0, [r4, #20]
 4427 029a 079D     		ldr	r5, [sp, #28]
 4428 029c FFF7FEFF 		bl	_ZNK6GCodes14GetSpeedFactorEv
 4429 02a0 10EE100A 		vmov	r0, s0
 4430 02a4 FFF7FEFF 		bl	__aeabi_f2d
 4431 02a8 0B46     		mov	r3, r1
 4432 02aa 0246     		mov	r2, r0
 4433 02ac AD49     		ldr	r1, .L809+4
 4434 02ae 2846     		mov	r0, r5
 4435 02b0 FFF7FEFF 		bl	_ZN12OutputBuffer4catfEPKcz
 4436 02b4 B4F8F430 		ldrh	r3, [r4, #244]
 4437 02b8 002B     		cmp	r3, #0
 4438 02ba 00F02D82 		beq	.L717
 4439 02be 9FEDAA8A 		vldr.32	s16, .L809+8
 4440 02c2 DFF8F082 		ldr	r8, .L809+84
 4441 02c6 0025     		movs	r5, #0
 4442 02c8 5B27     		movs	r7, #91
 4443 02ca B146     		mov	r9, r6
 4444              	.L718:
 4445 02cc 2946     		mov	r1, r5
 4446 02ce 6069     		ldr	r0, [r4, #20]
ARM GAS  C:\Users\paja\AppData\Local\Temp\ccY4oRD5.s 			page 79


 4447 02d0 079E     		ldr	r6, [sp, #28]
 4448 02d2 FFF7FEFF 		bl	_ZN6GCodes18GetExtrusionFactorEj
 4449 02d6 60EE087A 		vmul.f32	s15, s0, s16
 4450 02da 0135     		adds	r5, r5, #1
 4451 02dc 17EE900A 		vmov	r0, s15
 4452 02e0 FFF7FEFF 		bl	__aeabi_f2d
 4453 02e4 3A46     		mov	r2, r7
 4454 02e6 CDE90001 		strd	r0, [sp]
 4455 02ea 3046     		mov	r0, r6
 4456 02ec 4146     		mov	r1, r8
 4457 02ee FFF7FEFF 		bl	_ZN12OutputBuffer4catfEPKcz
 4458 02f2 B4F8F430 		ldrh	r3, [r4, #244]
 4459 02f6 AB42     		cmp	r3, r5
 4460 02f8 4FF02C07 		mov	r7, #44
 4461 02fc E6D8     		bhi	.L718
 4462 02fe 0798     		ldr	r0, [sp, #28]
 4463 0300 9A49     		ldr	r1, .L809+12
 4464 0302 4E46     		mov	r6, r9
 4465              	.L720:
 4466 0304 FFF7FEFF 		bl	_ZN12OutputBuffer3catEPKc
 4467 0308 6369     		ldr	r3, [r4, #20]
 4468 030a 03F5B563 		add	r3, r3, #1448
 4469 030e 1868     		ldr	r0, [r3]	@ float
 4470 0310 FFF7FEFF 		bl	__aeabi_f2d
 4471 0314 0B46     		mov	r3, r1
 4472 0316 0246     		mov	r2, r0
 4473 0318 9549     		ldr	r1, .L809+16
 4474 031a 0798     		ldr	r0, [sp, #28]
 4475 031c FFF7FEFF 		bl	_ZN12OutputBuffer4catfEPKcz
 4476 0320 D4F8EC30 		ldr	r3, [r4, #236]
 4477 0324 0798     		ldr	r0, [sp, #28]
 4478 0326 002B     		cmp	r3, #0
 4479 0328 00F05C81 		beq	.L759
 4480 032c D3F89C20 		ldr	r2, [r3, #156]
 4481              	.L721:
 4482 0330 9049     		ldr	r1, .L809+20
 4483 0332 FFF7FEFF 		bl	_ZN12OutputBuffer4catfEPKcz
 4484 0336 6068     		ldr	r0, [r4, #4]
 4485 0338 FFF7FEFF 		bl	_ZNK8Platform16GetZProbeReadingEv
 4486 033c 09AA     		add	r2, sp, #36
 4487 033e 0546     		mov	r5, r0
 4488 0340 08A9     		add	r1, sp, #32
 4489 0342 6068     		ldr	r0, [r4, #4]
 4490 0344 FFF7FEFF 		bl	_ZN8Platform24GetZProbeSecondaryValuesERiS0_
 4491 0348 0128     		cmp	r0, #1
 4492 034a 00F00281 		beq	.L723
 4493 034e 0228     		cmp	r0, #2
 4494 0350 40F0F980 		bne	.L799
 4495 0354 099A     		ldr	r2, [sp, #36]
 4496 0356 0092     		str	r2, [sp]
 4497 0358 DDE90703 		ldrd	r0, r3, [sp, #28]
 4498 035c 2A46     		mov	r2, r5
 4499 035e 8649     		ldr	r1, .L809+24
 4500 0360 FFF7FEFF 		bl	_ZN12OutputBuffer4catfEPKcz
 4501              	.L725:
 4502 0364 6369     		ldr	r3, [r4, #20]
 4503 0366 9FED808A 		vldr.32	s16, .L809+8
ARM GAS  C:\Users\paja\AppData\Local\Temp\ccY4oRD5.s 			page 80


 4504 036a DFF84C82 		ldr	r8, .L809+88
 4505 036e 03F25453 		addw	r3, r3, #1364
 4506 0372 D3ED007A 		vldr.32	s15, [r3]
 4507 0376 67EE887A 		vmul.f32	s15, s15, s16
 4508 037a 0025     		movs	r5, #0
 4509 037c 17EE900A 		vmov	r0, s15
 4510 0380 FFF7FEFF 		bl	__aeabi_f2d
 4511 0384 0246     		mov	r2, r0
 4512 0386 0B46     		mov	r3, r1
 4513 0388 0798     		ldr	r0, [sp, #28]
 4514 038a 7C49     		ldr	r1, .L809+28
 4515 038c FFF7FEFF 		bl	_ZN12OutputBuffer4catfEPKcz
 4516              	.L726:
 4517 0390 2946     		mov	r1, r5
 4518 0392 6068     		ldr	r0, [r4, #4]
 4519 0394 079F     		ldr	r7, [sp, #28]
 4520 0396 FFF7FEFF 		bl	_ZNK8Platform11GetFanValueEj
 4521 039a 60EE087A 		vmul.f32	s15, s0, s16
 4522 039e 0135     		adds	r5, r5, #1
 4523 03a0 17EE900A 		vmov	r0, s15
 4524 03a4 FFF7FEFF 		bl	__aeabi_f2d
 4525 03a8 0246     		mov	r2, r0
 4526 03aa 0B46     		mov	r3, r1
 4527 03ac 3846     		mov	r0, r7
 4528 03ae 4146     		mov	r1, r8
 4529 03b0 FFF7FEFF 		bl	_ZN12OutputBuffer4catfEPKcz
 4530 03b4 092D     		cmp	r5, #9
 4531 03b6 EBD1     		bne	.L726
 4532 03b8 5D21     		movs	r1, #93
 4533 03ba 0798     		ldr	r0, [sp, #28]
 4534 03bc FFF7FEFF 		bl	_ZN12OutputBuffer3catEc
 4535 03c0 6F49     		ldr	r1, .L809+32
 4536 03c2 0798     		ldr	r0, [sp, #28]
 4537 03c4 FFF7FEFF 		bl	_ZN12OutputBuffer3catEPKc
 4538 03c8 0021     		movs	r1, #0
 4539 03ca 6068     		ldr	r0, [r4, #4]
 4540 03cc 079D     		ldr	r5, [sp, #28]
 4541 03ce FFF7FEFF 		bl	_ZNK8Platform9GetFanRPMEj
 4542 03d2 6C49     		ldr	r1, .L809+36
 4543 03d4 0246     		mov	r2, r0
 4544 03d6 2846     		mov	r0, r5
 4545 03d8 FFF7FEFF 		bl	_ZN12OutputBuffer4catfEPKcz
 4546 03dc 6A49     		ldr	r1, .L809+40
 4547 03de 0798     		ldr	r0, [sp, #28]
 4548 03e0 FFF7FEFF 		bl	_ZN12OutputBuffer3catEPKc
 4549 03e4 8EB1     		cbz	r6, .L727
 4550 03e6 694F     		ldr	r7, .L809+44
 4551 03e8 0025     		movs	r5, #0
 4552 03ea 5B22     		movs	r2, #91
 4553              	.L728:
 4554 03ec 6369     		ldr	r3, [r4, #20]
 4555 03ee 0798     		ldr	r0, [sp, #28]
 4556 03f0 D3F82C35 		ldr	r3, [r3, #1324]
 4557 03f4 EB40     		lsrs	r3, r3, r5
 4558 03f6 03F00103 		and	r3, r3, #1
 4559 03fa 0135     		adds	r5, r5, #1
 4560 03fc 3946     		mov	r1, r7
ARM GAS  C:\Users\paja\AppData\Local\Temp\ccY4oRD5.s 			page 81


 4561 03fe FFF7FEFF 		bl	_ZN12OutputBuffer4catfEPKcz
 4562 0402 B542     		cmp	r5, r6
 4563 0404 4FF02C02 		mov	r2, #44
 4564 0408 F0D1     		bne	.L728
 4565              	.L727:
 4566 040a 5D21     		movs	r1, #93
 4567 040c 0798     		ldr	r0, [sp, #28]
 4568 040e FFF7FEFF 		bl	_ZN12OutputBuffer3catEc
 4569 0412 236A     		ldr	r3, [r4, #32]
 4570 0414 1B7B     		ldrb	r3, [r3, #12]	@ zero_extendqisi2
 4571 0416 002B     		cmp	r3, #0
 4572 0418 40F0D080 		bne	.L800
 4573              	.L729:
 4574 041c 0AA8     		add	r0, sp, #40
 4575 041e 4FF0FF32 		mov	r2, #-1
 4576 0422 04F18801 		add	r1, r4, #136
 4577 0426 FFF7FEFF 		bl	_ZN11MutexLockerC1ERK5Mutexm
 4578 042a 94F85932 		ldrb	r3, [r4, #601]	@ zero_extendqisi2
 4579 042e 002B     		cmp	r3, #0
 4580 0430 74D0     		beq	.L731
 4581 0432 D4F86434 		ldr	r3, [r4, #1124]
 4582 0436 002B     		cmp	r3, #0
 4583 0438 40F04581 		bne	.L801
 4584 043c 4FF00008 		mov	r8, #0
 4585 0440 4FF00009 		mov	r9, #0
 4586              	.L732:
 4587 0444 D4F86C14 		ldr	r1, [r4, #1132]
 4588 0448 D4F86034 		ldr	r3, [r4, #1120]
 4589 044c D4F85C24 		ldr	r2, [r4, #1116]
 4590 0450 0798     		ldr	r0, [sp, #28]
 4591 0452 0291     		str	r1, [sp, #8]
 4592 0454 CDE90089 		strd	r8, [sp]
 4593 0458 4D49     		ldr	r1, .L809+48
 4594 045a FFF7FEFF 		bl	_ZN12OutputBuffer4catfEPKcz
 4595 045e 0025     		movs	r5, #0
 4596 0460 4C49     		ldr	r1, .L809+52
 4597 0462 0798     		ldr	r0, [sp, #28]
 4598 0464 0127     		movs	r7, #1
 4599 0466 FFF7FEFF 		bl	_ZN12OutputBuffer3catEPKc
 4600 046a 2B46     		mov	r3, r5
 4601 046c 4FF48072 		mov	r2, #256
 4602 0470 04F25A21 		addw	r1, r4, #602
 4603 0474 0798     		ldr	r0, [sp, #28]
 4604 0476 0195     		str	r5, [sp, #4]
 4605 0478 0097     		str	r7, [sp]
 4606 047a FFF7FEFF 		bl	_ZN12OutputBuffer12EncodeStringEPKcjbbb
 4607 047e 4649     		ldr	r1, .L809+56
 4608 0480 0798     		ldr	r0, [sp, #28]
 4609 0482 FFF7FEFF 		bl	_ZN12OutputBuffer3catEPKc
 4610 0486 2B46     		mov	r3, r5
 4611 0488 4FF48072 		mov	r2, #256
 4612 048c 04F25B31 		addw	r1, r4, #859
 4613 0490 0798     		ldr	r0, [sp, #28]
 4614 0492 CDE90075 		strd	r7, r5, [sp]
 4615 0496 FFF7FEFF 		bl	_ZN12OutputBuffer12EncodeStringEPKcjbbb
 4616 049a 0AA8     		add	r0, sp, #40
 4617 049c FFF7FEFF 		bl	_ZN11MutexLockerD1Ev
ARM GAS  C:\Users\paja\AppData\Local\Temp\ccY4oRD5.s 			page 82


 4618 04a0 BAF1020F 		cmp	r10, #2
 4619 04a4 44D0     		beq	.L802
 4620              	.L735:
 4621 04a6 BAF1030F 		cmp	r10, #3
 4622 04aa 079D     		ldr	r5, [sp, #28]
 4623 04ac 00F0CB80 		beq	.L803
 4624 04b0 6368     		ldr	r3, [r4, #4]
 4625 04b2 BAF1010F 		cmp	r10, #1
 4626 04b6 D3F8602B 		ldr	r2, [r3, #2912]
 4627 04ba 04D9     		bls	.L741
 4628              	.L740:
 4629 04bc 049B     		ldr	r3, [sp, #16]
 4630 04be 591C     		adds	r1, r3, #1
 4631 04c0 10D0     		beq	.L742
 4632 04c2 9342     		cmp	r3, r2
 4633 04c4 0ED0     		beq	.L742
 4634              	.L741:
 4635 04c6 2846     		mov	r0, r5
 4636 04c8 3449     		ldr	r1, .L809+60
 4637 04ca FFF7FEFF 		bl	_ZN12OutputBuffer4catfEPKcz
 4638 04ce 6368     		ldr	r3, [r4, #4]
 4639 04d0 0798     		ldr	r0, [sp, #28]
 4640 04d2 D3F85C1B 		ldr	r1, [r3, #2908]
 4641 04d6 0022     		movs	r2, #0
 4642 04d8 C3F85C2B 		str	r2, [r3, #2908]
 4643 04dc 0122     		movs	r2, #1
 4644 04de FFF7FEFF 		bl	_ZN12OutputBuffer11EncodeReplyEPS_b
 4645 04e2 079D     		ldr	r5, [sp, #28]
 4646              	.L742:
 4647 04e4 2E49     		ldr	r1, .L809+64
 4648 04e6 2846     		mov	r0, r5
 4649 04e8 FFF7FEFF 		bl	_ZN12OutputBuffer3catEPKc
 4650 04ec 0798     		ldr	r0, [sp, #28]
 4651              	.L696:
 4652 04ee 19B0     		add	sp, sp, #100
 4653              		@ sp needed
 4654 04f0 BDEC028B 		vldm	sp!, {d8}
 4655 04f4 BDE8F08F 		pop	{r4, r5, r6, r7, r8, r9, r10, fp, pc}
 4656              	.L795:
 4657 04f8 3146     		mov	r1, r6
 4658 04fa FFF7FEFF 		bl	_ZNK4Heat14GetTemperatureEa
 4659 04fe 10EE100A 		vmov	r0, s0
 4660 0502 FFF7FEFF 		bl	__aeabi_f2d
 4661 0506 0246     		mov	r2, r0
 4662 0508 0B46     		mov	r3, r1
 4663 050a 9EE5     		b	.L699
 4664              	.L756:
 4665 050c 0022     		movs	r2, #0
 4666 050e 2BE6     		b	.L708
 4667              	.L755:
 4668 0510 0022     		movs	r2, #0
 4669 0512 0023     		movs	r3, #0
 4670 0514 FCE5     		b	.L705
 4671              	.L754:
 4672 0516 0022     		movs	r2, #0
 4673 0518 0023     		movs	r3, #0
 4674 051a C8E5     		b	.L702
ARM GAS  C:\Users\paja\AppData\Local\Temp\ccY4oRD5.s 			page 83


 4675              	.L731:
 4676 051c 2149     		ldr	r1, .L809+68
 4677 051e 0798     		ldr	r0, [sp, #28]
 4678 0520 FFF7FEFF 		bl	_ZN12OutputBuffer3catEPKc
 4679 0524 0AA8     		add	r0, sp, #40
 4680 0526 FFF7FEFF 		bl	_ZN11MutexLockerD1Ev
 4681 052a BAF1020F 		cmp	r10, #2
 4682 052e BAD1     		bne	.L735
 4683              	.L802:
 4684 0530 206A     		ldr	r0, [r4, #32]
 4685 0532 079D     		ldr	r5, [sp, #28]
 4686 0534 037B     		ldrb	r3, [r0, #12]	@ zero_extendqisi2
 4687 0536 002B     		cmp	r3, #0
 4688 0538 5AD1     		bne	.L804
 4689              	.L736:
 4690 053a 6368     		ldr	r3, [r4, #4]
 4691 053c D3F8602B 		ldr	r2, [r3, #2912]
 4692 0540 BCE7     		b	.L740
 4693              	.L751:
 4694 0542 4122     		movs	r2, #65
 4695 0544 74E5     		b	.L698
 4696              	.L799:
 4697 0546 2A46     		mov	r2, r5
 4698 0548 1749     		ldr	r1, .L809+72
 4699 054a 0798     		ldr	r0, [sp, #28]
 4700 054c FFF7FEFF 		bl	_ZN12OutputBuffer4catfEPKcz
 4701 0550 08E7     		b	.L725
 4702              	.L723:
 4703 0552 2A46     		mov	r2, r5
 4704 0554 089B     		ldr	r3, [sp, #32]
 4705 0556 1549     		ldr	r1, .L809+76
 4706 0558 0798     		ldr	r0, [sp, #28]
 4707 055a FFF7FEFF 		bl	_ZN12OutputBuffer4catfEPKcz
 4708 055e 01E7     		b	.L725
 4709              	.L810:
 4710              		.align	2
 4711              	.L809:
 4712 0560 74070000 		.word	.LC141
 4713 0564 6C000000 		.word	.LC150
 4714 0568 0000C842 		.word	1120403456
 4715 056c 04000000 		.word	.LC50
 4716 0570 88000000 		.word	.LC151
 4717 0574 9C000000 		.word	.LC152
 4718 0578 BC000000 		.word	.LC154
 4719 057c E4000000 		.word	.LC156
 4720 0580 FC010000 		.word	.LC76
 4721 0584 08020000 		.word	.LC77
 4722 0588 F8000000 		.word	.LC157
 4723 058c 48000000 		.word	.LC56
 4724 0590 20010000 		.word	.LC159
 4725 0594 70010000 		.word	.LC160
 4726 0598 80010000 		.word	.LC161
 4727 059c 3C020000 		.word	.LC166
 4728 05a0 E4000000 		.word	.LC47
 4729 05a4 94010000 		.word	.LC162
 4730 05a8 D4000000 		.word	.LC155
 4731 05ac A8000000 		.word	.LC153
ARM GAS  C:\Users\paja\AppData\Local\Temp\ccY4oRD5.s 			page 84


 4732 05b0 50000000 		.word	.LC57
 4733 05b4 10000000 		.word	.LC14
 4734 05b8 34000000 		.word	.LC145
 4735              	.L800:
 4736 05bc 6069     		ldr	r0, [r4, #20]
 4737 05be 079D     		ldr	r5, [sp, #28]
 4738 05c0 FFF7FEFF 		bl	_ZNK6GCodes21FractionOfFilePrintedEv
 4739 05c4 B5EEC00A 		vcmpe.f32	s0, #0
 4740 05c8 F1EE10FA 		vmrs	APSR_nzcv, FPSCR
 4741 05cc 0DD4     		bmi	.L760
 4742 05ce 10EE100A 		vmov	r0, s0
 4743 05d2 FFF7FEFF 		bl	__aeabi_f2d
 4744 05d6 0246     		mov	r2, r0
 4745 05d8 0B46     		mov	r3, r1
 4746              	.L730:
 4747 05da 2846     		mov	r0, r5
 4748 05dc 5E49     		ldr	r1, .L811
 4749 05de FFF7FEFF 		bl	_ZN12OutputBuffer4catfEPKcz
 4750 05e2 1BE7     		b	.L729
 4751              	.L759:
 4752 05e4 4FF0FF32 		mov	r2, #-1
 4753 05e8 A2E6     		b	.L721
 4754              	.L760:
 4755 05ea 0022     		movs	r2, #0
 4756 05ec 0023     		movs	r3, #0
 4757 05ee F4E7     		b	.L730
 4758              	.L804:
 4759 05f0 0121     		movs	r1, #1
 4760 05f2 FFF7FEFF 		bl	_ZNK12PrintMonitor16EstimateTimeLeftE21PrintEstimationMethod
 4761 05f6 0021     		movs	r1, #0
 4762 05f8 206A     		ldr	r0, [r4, #32]
 4763 05fa 10EE106A 		vmov	r6, s0
 4764 05fe FFF7FEFF 		bl	_ZNK12PrintMonitor16EstimateTimeLeftE21PrintEstimationMethod
 4765 0602 5146     		mov	r1, r10
 4766 0604 206A     		ldr	r0, [r4, #32]
 4767 0606 10EE108A 		vmov	r8, s0
 4768 060a FFF7FEFF 		bl	_ZNK12PrintMonitor16EstimateTimeLeftE21PrintEstimationMethod
 4769 060e 3046     		mov	r0, r6	@ float
 4770 0610 8DED050A 		vstr.32	s0, [sp, #20]	@ int
 4771 0614 FFF7FEFF 		bl	__aeabi_f2d
 4772 0618 9DED050A 		vldr.32	s0, [sp, #20]	@ int
 4773 061c 0646     		mov	r6, r0
 4774 061e 10EE100A 		vmov	r0, s0
 4775 0622 0F46     		mov	r7, r1
 4776 0624 FFF7FEFF 		bl	__aeabi_f2d
 4777 0628 CDE90201 		strd	r0, [sp, #8]
 4778 062c 4046     		mov	r0, r8	@ float
 4779 062e FFF7FEFF 		bl	__aeabi_f2d
 4780 0632 3246     		mov	r2, r6
 4781 0634 CDE90001 		strd	r0, [sp]
 4782 0638 3B46     		mov	r3, r7
 4783 063a 2846     		mov	r0, r5
 4784 063c 4749     		ldr	r1, .L811+4
 4785 063e FFF7FEFF 		bl	_ZN12OutputBuffer4catfEPKcz
 4786 0642 079D     		ldr	r5, [sp, #28]
 4787 0644 79E7     		b	.L736
 4788              	.L803:
ARM GAS  C:\Users\paja\AppData\Local\Temp\ccY4oRD5.s 			page 85


 4789 0646 E368     		ldr	r3, [r4, #12]
 4790 0648 D3F8740A 		ldr	r0, [r3, #2676]
 4791 064c 0368     		ldr	r3, [r0]
 4792 064e 0121     		movs	r1, #1
 4793 0650 1B68     		ldr	r3, [r3]
 4794 0652 9847     		blx	r3
 4795 0654 6369     		ldr	r3, [r4, #20]
 4796 0656 8146     		mov	r9, r0
 4797 0658 D3F85CB3 		ldr	fp, [r3, #860]
 4798 065c 03F5A268 		add	r8, r3, #1296
 4799 0660 4FF0000A 		mov	r10, #0
 4800 0664 01E0     		b	.L739
 4801              	.L805:
 4802 0666 0AF1010A 		add	r10, r10, #1
 4803              	.L739:
 4804 066a 5146     		mov	r1, r10
 4805 066c 2046     		mov	r0, r4
 4806 066e FFF7FEFF 		bl	_ZNK6RepRap7GetToolEi
 4807 0672 0028     		cmp	r0, #0
 4808 0674 F7D1     		bne	.L805
 4809 0676 0221     		movs	r1, #2
 4810 0678 0746     		mov	r7, r0
 4811 067a 3346     		mov	r3, r6
 4812 067c 4A46     		mov	r2, r9
 4813 067e 2846     		mov	r0, r5
 4814 0680 0291     		str	r1, [sp, #8]
 4815 0682 0125     		movs	r5, #1
 4816 0684 3649     		ldr	r1, .L811+8
 4817 0686 CDF80CA0 		str	r10, [sp, #12]
 4818 068a CDE900B8 		strd	fp, r8, [sp]
 4819 068e FFF7FEFF 		bl	_ZN12OutputBuffer4catfEPKcz
 4820 0692 3B46     		mov	r3, r7
 4821 0694 2822     		movs	r2, #40
 4822 0696 0095     		str	r5, [sp]
 4823 0698 04F22511 		addw	r1, r4, #293
 4824 069c 0798     		ldr	r0, [sp, #28]
 4825 069e 0197     		str	r7, [sp, #4]
 4826 06a0 FFF7FEFF 		bl	_ZN12OutputBuffer12EncodeStringEPKcjbbb
 4827 06a4 2F49     		ldr	r1, .L811+12
 4828 06a6 0798     		ldr	r0, [sp, #28]
 4829 06a8 FFF7FEFF 		bl	_ZN12OutputBuffer3catEPKc
 4830 06ac CDE90057 		strd	r5, r7, [sp]
 4831 06b0 3B46     		mov	r3, r7
 4832 06b2 2722     		movs	r2, #39
 4833 06b4 0798     		ldr	r0, [sp, #28]
 4834 06b6 2C49     		ldr	r1, .L811+16
 4835 06b8 FFF7FEFF 		bl	_ZN12OutputBuffer12EncodeStringEPKcjbbb
 4836 06bc 6368     		ldr	r3, [r4, #4]
 4837 06be 079D     		ldr	r5, [sp, #28]
 4838 06c0 D3F8602B 		ldr	r2, [r3, #2912]
 4839 06c4 FAE6     		b	.L740
 4840              	.L801:
 4841 06c6 D4F86834 		ldr	r3, [r4, #1128]
 4842 06ca DFED288A 		vldr.32	s17, .L811+20
 4843 06ce 07EE903A 		vmov	s15, r3	@ int
 4844 06d2 F8EE677A 		vcvt.f32.u32	s15, s15
 4845 06d6 87EEA88A 		vdiv.f32	s16, s15, s17
ARM GAS  C:\Users\paja\AppData\Local\Temp\ccY4oRD5.s 			page 86


 4846 06da FFF7FEFF 		bl	millis
 4847 06de D4F86434 		ldr	r3, [r4, #1124]
 4848 06e2 C01A     		subs	r0, r0, r3
 4849 06e4 07EE900A 		vmov	s15, r0	@ int
 4850 06e8 F8EE677A 		vcvt.f32.u32	s15, s15
 4851 06ec 87EEA87A 		vdiv.f32	s14, s15, s17
 4852 06f0 78EE477A 		vsub.f32	s15, s16, s14
 4853 06f4 F5EEC07A 		vcmpe.f32	s15, #0
 4854 06f8 F1EE10FA 		vmrs	APSR_nzcv, FPSCR
 4855 06fc CCBF     		ite	gt
 4856 06fe 0123     		movgt	r3, #1
 4857 0700 0023     		movle	r3, #0
 4858 0702 84F85932 		strb	r3, [r4, #601]
 4859 0706 7FF709AF 		ble	.L731
 4860 070a 17EE900A 		vmov	r0, s15
 4861 070e FFF7FEFF 		bl	__aeabi_f2d
 4862 0712 8046     		mov	r8, r0
 4863 0714 8946     		mov	r9, r1
 4864 0716 95E6     		b	.L732
 4865              	.L717:
 4866 0718 0798     		ldr	r0, [sp, #28]
 4867 071a 1549     		ldr	r1, .L811+24
 4868 071c F2E5     		b	.L720
 4869              	.L798:
 4870 071e 0CAF     		add	r7, sp, #48
 4871 0720 3946     		mov	r1, r7
 4872 0722 0223     		movs	r3, #2
 4873 0724 0122     		movs	r2, #1
 4874 0726 FFF7FEFF 		bl	_ZN4Move15LiveCoordinatesEPfmm
 4875 072a 1249     		ldr	r1, .L811+28
 4876 072c 0798     		ldr	r0, [sp, #28]
 4877 072e FFF7FEFF 		bl	_ZN12OutputBuffer4catfEPKcz
 4878 0732 99E5     		b	.L743
 4879              	.L711:
 4880 0734 D4F8EC20 		ldr	r2, [r4, #236]
 4881 0738 E068     		ldr	r0, [r4, #12]
 4882 073a 4AB9     		cbnz	r2, .L806
 4883 073c 0223     		movs	r3, #2
 4884 073e 0122     		movs	r2, #1
 4885              	.L794:
 4886 0740 0CA9     		add	r1, sp, #48
 4887 0742 FFF7FEFF 		bl	_ZN4Move15LiveCoordinatesEPfmm
 4888 0746 0B49     		ldr	r1, .L811+28
 4889 0748 0798     		ldr	r0, [sp, #28]
 4890 074a FFF7FEFF 		bl	_ZN12OutputBuffer4catfEPKcz
 4891 074e A3E5     		b	.L746
 4892              	.L806:
 4893 0750 D2E92823 		ldrd	r2, r3, [r2, #160]
 4894 0754 F4E7     		b	.L794
 4895              	.L812:
 4896 0756 00BF     		.align	2
 4897              	.L811:
 4898 0758 04010000 		.word	.LC158
 4899 075c A8010000 		.word	.LC163
 4900 0760 C8010000 		.word	.LC164
 4901 0764 28020000 		.word	.LC165
 4902 0768 24000000 		.word	.LC4
ARM GAS  C:\Users\paja\AppData\Local\Temp\ccY4oRD5.s 			page 87


 4903 076c 00007A44 		.word	1148846080
 4904 0770 00000000 		.word	.LC49
 4905 0774 74070000 		.word	.LC141
 4906              		.size	_ZN6RepRap23GetLegacyStatusResponseEhi, .-_ZN6RepRap23GetLegacyStatusResponseEhi
 4907              		.section	.text._ZNK6RepRap7GetNameEv,"ax",%progbits
 4908              		.align	1
 4909              		.p2align 2,,3
 4910              		.global	_ZNK6RepRap7GetNameEv
 4911              		.syntax unified
 4912              		.thumb
 4913              		.thumb_func
 4914              		.fpu fpv4-sp-d16
 4915              		.type	_ZNK6RepRap7GetNameEv, %function
 4916              	_ZNK6RepRap7GetNameEv:
 4917              		@ args = 0, pretend = 0, frame = 0
 4918              		@ frame_needed = 0, uses_anonymous_args = 0
 4919              		@ link register save eliminated.
 4920 0000 00F22510 		addw	r0, r0, #293
 4921 0004 7047     		bx	lr
 4922              		.size	_ZNK6RepRap7GetNameEv, .-_ZNK6RepRap7GetNameEv
 4923 0006 00BF     		.section	.text._ZN6RepRap7SetNameEPKc,"ax",%progbits
 4924              		.align	1
 4925              		.p2align 2,,3
 4926              		.global	_ZN6RepRap7SetNameEPKc
 4927              		.syntax unified
 4928              		.thumb
 4929              		.thumb_func
 4930              		.fpu fpv4-sp-d16
 4931              		.type	_ZN6RepRap7SetNameEPKc, %function
 4932              	_ZN6RepRap7SetNameEPKc:
 4933              		@ args = 0, pretend = 0, frame = 8
 4934              		@ frame_needed = 0, uses_anonymous_args = 0
 4935 0000 30B5     		push	{r4, r5, lr}
 4936 0002 0446     		mov	r4, r0
 4937 0004 83B0     		sub	sp, sp, #12
 4938 0006 00F22515 		addw	r5, r0, #293
 4939 000a 2923     		movs	r3, #41
 4940 000c 6846     		mov	r0, sp
 4941 000e CDE90053 		strd	r5, r3, [sp]
 4942 0012 FFF7FEFF 		bl	_ZNK9StringRef4copyEPKc
 4943 0016 2946     		mov	r1, r5
 4944 0018 A068     		ldr	r0, [r4, #8]
 4945 001a FFF7FEFF 		bl	_ZN7Network11SetHostnameEPKc
 4946 001e 03B0     		add	sp, sp, #12
 4947              		@ sp needed
 4948 0020 30BD     		pop	{r4, r5, pc}
 4949              		.size	_ZN6RepRap7SetNameEPKc, .-_ZN6RepRap7SetNameEPKc
 4950 0022 00BF     		.section	.text._ZN6RepRap4InitEv,"ax",%progbits
 4951              		.align	1
 4952              		.p2align 2,,3
 4953              		.global	_ZN6RepRap4InitEv
 4954              		.syntax unified
 4955              		.thumb
 4956              		.thumb_func
 4957              		.fpu fpv4-sp-d16
 4958              		.type	_ZN6RepRap4InitEv, %function
 4959              	_ZN6RepRap4InitEv:
ARM GAS  C:\Users\paja\AppData\Local\Temp\ccY4oRD5.s 			page 88


 4960              		@ args = 0, pretend = 0, frame = 112
 4961              		@ frame_needed = 0, uses_anonymous_args = 0
 4962 0000 F0B5     		push	{r4, r5, r6, r7, lr}
 4963 0002 6949     		ldr	r1, .L835
 4964 0004 9FB0     		sub	sp, sp, #124
 4965 0006 0446     		mov	r4, r0
 4966 0008 2830     		adds	r0, r0, #40
 4967 000a FFF7FEFF 		bl	_ZN5Mutex6CreateEPKc
 4968 000e 6749     		ldr	r1, .L835+4
 4969 0010 04F18800 		add	r0, r4, #136
 4970 0014 FFF7FEFF 		bl	_ZN5Mutex6CreateEPKc
 4971 0018 6068     		ldr	r0, [r4, #4]
 4972 001a FFF7FEFF 		bl	_ZN8Platform4InitEv
 4973 001e A068     		ldr	r0, [r4, #8]
 4974 0020 FFF7FEFF 		bl	_ZN7Network4InitEv
 4975 0024 6249     		ldr	r1, .L835+8
 4976 0026 2046     		mov	r0, r4
 4977 0028 FFF7FEFF 		bl	_ZN6RepRap7SetNameEPKc
 4978 002c 6069     		ldr	r0, [r4, #20]
 4979 002e FFF7FEFF 		bl	_ZN6GCodes4InitEv
 4980 0032 E068     		ldr	r0, [r4, #12]
 4981 0034 FFF7FEFF 		bl	_ZN4Move4InitEv
 4982 0038 2069     		ldr	r0, [r4, #16]
 4983 003a FFF7FEFF 		bl	_ZN4Heat4InitEv
 4984 003e E069     		ldr	r0, [r4, #28]
 4985 0040 FFF7FEFF 		bl	_ZN7Scanner4InitEv
 4986 0044 606A     		ldr	r0, [r4, #36]
 4987 0046 FFF7FEFF 		bl	_ZN11PortControl4InitEv
 4988 004a 206A     		ldr	r0, [r4, #32]
 4989 004c FFF7FEFF 		bl	_ZN12PrintMonitor4InitEv
 4990 0050 FFF7FEFF 		bl	_ZN15FilamentMonitor10InitStaticEv
 4991 0054 4FF48073 		mov	r3, #256
 4992 0058 1A46     		mov	r2, r3
 4993 005a 4FF40051 		mov	r1, #8192
 4994 005e 5548     		ldr	r0, .L835+12
 4995 0060 FFF7FEFF 		bl	wdt_init
 4996 0064 8023     		movs	r3, #128
 4997 0066 1A46     		mov	r2, r3
 4998 0068 4FF48051 		mov	r1, #4096
 4999 006c 5248     		ldr	r0, .L835+16
 5000 006e FFF7FEFF 		bl	rswdt_init
 5001 0072 5249     		ldr	r1, .L835+20
 5002 0074 524B     		ldr	r3, .L835+24
 5003 0076 534A     		ldr	r2, .L835+28
 5004 0078 1020     		movs	r0, #16
 5005 007a 0860     		str	r0, [r1]
 5006 007c 1B68     		ldr	r3, [r3]
 5007 007e A2FB0323 		umull	r2, r3, r2, r3
 5008 0082 9A0C     		lsrs	r2, r3, #18
 5009 0084 C823     		movs	r3, #200
 5010 0086 03FB02F3 		mul	r3, r3, r2
 5011              		.syntax unified
 5012              	@ 88 "C:\eclipse\firmware\CoreNG\cores\arduino/wiring.h" 1
 5013              		L_6126_delayMicroseconds:
 5014 008a 013B     		subs   r3, #1
 5015 008c FDD1     		bne    L_6126_delayMicroseconds
 5016              	
ARM GAS  C:\Users\paja\AppData\Local\Temp\ccY4oRD5.s 			page 89


 5017              	@ 0 "" 2
 5018              		.thumb
 5019              		.syntax unified
 5020 008e 4E4A     		ldr	r2, .L835+32
 5021 0090 4E4B     		ldr	r3, .L835+36
 5022 0092 6068     		ldr	r0, [r4, #4]
 5023 0094 0192     		str	r2, [sp, #4]
 5024 0096 0121     		movs	r1, #1
 5025 0098 0093     		str	r3, [sp]
 5026 009a 4D4A     		ldr	r2, .L835+40
 5027 009c 4D4B     		ldr	r3, .L835+44
 5028 009e 84F80D11 		strb	r1, [r4, #269]
 5029 00a2 1EAE     		add	r6, sp, #120
 5030 00a4 FFF7FEFF 		bl	_ZN8Platform8MessageFE11MessageTypePKcz
 5031 00a8 0023     		movs	r3, #0
 5032 00aa 06F8683D 		strb	r3, [r6, #-104]!
 5033 00ae 6527     		movs	r7, #101
 5034              	.L817:
 5035 00b0 6368     		ldr	r3, [r4, #4]
 5036 00b2 D3F8DC0B 		ldr	r0, [r3, #3036]
 5037 00b6 FFF7FEFF 		bl	_ZN11MassStorage4SpinEv
 5038 00ba 6368     		ldr	r3, [r4, #4]
 5039 00bc 0296     		str	r6, [sp, #8]
 5040 00be D3F8DC0B 		ldr	r0, [r3, #3036]
 5041 00c2 0397     		str	r7, [sp, #12]
 5042 00c4 0023     		movs	r3, #0
 5043 00c6 1946     		mov	r1, r3
 5044 00c8 02AA     		add	r2, sp, #8
 5045 00ca FFF7FEFF 		bl	_ZN11MassStorage5MountEjRK9StringRefb
 5046 00ce 0546     		mov	r5, r0
 5047 00d0 0028     		cmp	r0, #0
 5048 00d2 EDD0     		beq	.L817
 5049 00d4 0128     		cmp	r0, #1
 5050 00d6 26D0     		beq	.L832
 5051 00d8 40F6B830 		movw	r0, #3000
 5052 00dc FFF7FEFF 		bl	_Z5delaym
 5053 00e0 3346     		mov	r3, r6
 5054 00e2 3D4A     		ldr	r2, .L835+48
 5055 00e4 6068     		ldr	r0, [r4, #4]
 5056 00e6 0121     		movs	r1, #1
 5057 00e8 FFF7FEFF 		bl	_ZN8Platform8MessageFE11MessageTypePKcz
 5058              	.L824:
 5059 00ec 0026     		movs	r6, #0
 5060 00ee A068     		ldr	r0, [r4, #8]
 5061 00f0 84F80F61 		strb	r6, [r4, #271]
 5062 00f4 FFF7FEFF 		bl	_ZN7Network8ActivateEv
 5063 00f8 3848     		ldr	r0, .L835+52
 5064 00fa 394F     		ldr	r7, .L835+56
 5065 00fc FFF7FEFF 		bl	hsmci_set_idle_func
 5066 0100 2E49     		ldr	r1, .L835+20
 5067 0102 344B     		ldr	r3, .L835+44
 5068 0104 374A     		ldr	r2, .L835+60
 5069 0106 4FF0FF35 		mov	r5, #-1
 5070 010a 4FF48030 		mov	r0, #65536
 5071 010e BD64     		str	r5, [r7, #72]
 5072 0110 0860     		str	r0, [r1]
 5073 0112 6068     		ldr	r0, [r4, #4]
ARM GAS  C:\Users\paja\AppData\Local\Temp\ccY4oRD5.s 			page 90


 5074 0114 0121     		movs	r1, #1
 5075 0116 FFF7FEFF 		bl	_ZN8Platform8MessageFE11MessageTypePKcz
 5076 011a C4F80461 		str	r6, [r4, #260]
 5077 011e C4F80051 		str	r5, [r4, #256]
 5078 0122 1FB0     		add	sp, sp, #124
 5079              		@ sp needed
 5080 0124 F0BD     		pop	{r4, r5, r6, r7, pc}
 5081              	.L832:
 5082 0126 304A     		ldr	r2, .L835+64
 5083 0128 6068     		ldr	r0, [r4, #4]
 5084 012a 2946     		mov	r1, r5
 5085 012c FFF7FEFF 		bl	_ZN8Platform7MessageE11MessageTypePKc
 5086 0130 6368     		ldr	r3, [r4, #4]
 5087 0132 2E49     		ldr	r1, .L835+68
 5088 0134 2E4A     		ldr	r2, .L835+72
 5089 0136 D3F8DC0B 		ldr	r0, [r3, #3036]
 5090 013a FFF7FEFF 		bl	_ZNK11MassStorage10FileExistsEPKcS1_
 5091 013e 2946     		mov	r1, r5
 5092 0140 00BB     		cbnz	r0, .L833
 5093 0142 6068     		ldr	r0, [r4, #4]
 5094 0144 2B4B     		ldr	r3, .L835+76
 5095 0146 2C4A     		ldr	r2, .L835+80
 5096 0148 FFF7FEFF 		bl	_ZN8Platform8MessageFE11MessageTypePKcz
 5097 014c 2949     		ldr	r1, .L835+76
 5098 014e 6069     		ldr	r0, [r4, #20]
 5099 0150 FFF7FEFF 		bl	_ZN6GCodes13RunConfigFileEPKc
 5100 0154 20B9     		cbnz	r0, .L823
 5101 0156 20E0     		b	.L821
 5102              	.L822:
 5103 0158 6069     		ldr	r0, [r4, #20]
 5104 015a FFF7FEFF 		bl	_ZNK6GCodes12IsDaemonBusyEv
 5105 015e 58B1     		cbz	r0, .L834
 5106              	.L823:
 5107 0160 94F80D31 		ldrb	r3, [r4, #269]	@ zero_extendqisi2
 5108 0164 002B     		cmp	r3, #0
 5109 0166 F7D0     		beq	.L822
 5110 0168 2046     		mov	r0, r4
 5111 016a FFF7FEFF 		bl	_ZN6RepRap4SpinEv.part.27
 5112 016e 6069     		ldr	r0, [r4, #20]
 5113 0170 FFF7FEFF 		bl	_ZNK6GCodes12IsDaemonBusyEv
 5114 0174 0028     		cmp	r0, #0
 5115 0176 F3D1     		bne	.L823
 5116              	.L834:
 5117 0178 204A     		ldr	r2, .L835+84
 5118 017a 6068     		ldr	r0, [r4, #4]
 5119 017c 0121     		movs	r1, #1
 5120 017e FFF7FEFF 		bl	_ZN8Platform7MessageE11MessageTypePKc
 5121 0182 B3E7     		b	.L824
 5122              	.L833:
 5123 0184 6068     		ldr	r0, [r4, #4]
 5124 0186 1A4B     		ldr	r3, .L835+72
 5125 0188 1D4A     		ldr	r2, .L835+88
 5126 018a FFF7FEFF 		bl	_ZN8Platform8MessageFE11MessageTypePKcz
 5127 018e 1849     		ldr	r1, .L835+72
 5128 0190 6069     		ldr	r0, [r4, #20]
 5129 0192 FFF7FEFF 		bl	_ZN6GCodes13RunConfigFileEPKc
 5130 0196 0028     		cmp	r0, #0
ARM GAS  C:\Users\paja\AppData\Local\Temp\ccY4oRD5.s 			page 91


 5131 0198 E2D1     		bne	.L823
 5132              	.L821:
 5133 019a 1A4A     		ldr	r2, .L835+92
 5134 019c 6068     		ldr	r0, [r4, #4]
 5135 019e 0121     		movs	r1, #1
 5136 01a0 FFF7FEFF 		bl	_ZN8Platform7MessageE11MessageTypePKc
 5137 01a4 A2E7     		b	.L824
 5138              	.L836:
 5139 01a6 00BF     		.align	2
 5140              	.L835:
 5141 01a8 1C000000 		.word	.LC169
 5142 01ac 28000000 		.word	.LC170
 5143 01b0 34000000 		.word	.LC171
 5144 01b4 50180E40 		.word	1074665552
 5145 01b8 00190E40 		.word	1074665728
 5146 01bc 00E100E0 		.word	-536813312
 5147 01c0 00000000 		.word	SystemCoreClock
 5148 01c4 819F5E16 		.word	375299969
 5149 01c8 A4000000 		.word	.LC22
 5150 01cc 68000000 		.word	.LC6
 5151 01d0 3C000000 		.word	.LC172
 5152 01d4 24000000 		.word	.LC4
 5153 01d8 B0000000 		.word	.LC179
 5154 01dc 00000000 		.word	hsmciIdle
 5155 01e0 00000840 		.word	1074266112
 5156 01e4 B4000000 		.word	.LC180
 5157 01e8 54000000 		.word	.LC173
 5158 01ec 60000000 		.word	.LC174
 5159 01f0 00000000 		.word	.LC167
 5160 01f4 0C000000 		.word	.LC168
 5161 01f8 70000000 		.word	.LC176
 5162 01fc 94000000 		.word	.LC177
 5163 0200 68000000 		.word	.LC175
 5164 0204 9C000000 		.word	.LC178
 5165              		.size	_ZN6RepRap4InitEv, .-_ZN6RepRap4InitEv
 5166              		.section	.text._ZN6RepRap30GetProhibitedExtruderMovementsEjj,"ax",%progbits
 5167              		.align	1
 5168              		.p2align 2,,3
 5169              		.global	_ZN6RepRap30GetProhibitedExtruderMovementsEjj
 5170              		.syntax unified
 5171              		.thumb
 5172              		.thumb_func
 5173              		.fpu fpv4-sp-d16
 5174              		.type	_ZN6RepRap30GetProhibitedExtruderMovementsEjj, %function
 5175              	_ZN6RepRap30GetProhibitedExtruderMovementsEjj:
 5176              		@ args = 0, pretend = 0, frame = 0
 5177              		@ frame_needed = 0, uses_anonymous_args = 0
 5178 0000 2DE9F84F 		push	{r3, r4, r5, r6, r7, r8, r9, r10, fp, lr}
 5179 0004 0369     		ldr	r3, [r0, #16]
 5180 0006 93F8D830 		ldrb	r3, [r3, #216]	@ zero_extendqisi2
 5181 000a CBBB     		cbnz	r3, .L843
 5182 000c D0F8EC60 		ldr	r6, [r0, #236]
 5183 0010 DEB3     		cbz	r6, .L857
 5184 0012 D6F89400 		ldr	r0, [r6, #148]
 5185 0016 8146     		mov	r9, r0
 5186 0018 28B3     		cbz	r0, .L837
 5187 001a 9046     		mov	r8, r2
ARM GAS  C:\Users\paja\AppData\Local\Temp\ccY4oRD5.s 			page 92


 5188 001c 0F46     		mov	r7, r1
 5189 001e 9946     		mov	r9, r3
 5190 0020 06F1AF05 		add	r5, r6, #175
 5191 0024 4FF0010A 		mov	r10, #1
 5192 0028 07E0     		b	.L842
 5193              	.L840:
 5194 002a 14EA080F 		tst	r4, r8
 5195 002e 1DD1     		bne	.L858
 5196              	.L841:
 5197 0030 AE3D     		subs	r5, r5, #174
 5198 0032 AB1B     		subs	r3, r5, r6
 5199 0034 9842     		cmp	r0, r3
 5200 0036 5D46     		mov	r5, fp
 5201 0038 15D9     		bls	.L837
 5202              	.L842:
 5203 003a 6C78     		ldrb	r4, [r5, #1]	@ zero_extendqisi2
 5204 003c 0AFA04F4 		lsl	r4, r10, r4
 5205 0040 14EA0701 		ands	r1, r4, r7
 5206 0044 05F1010B 		add	fp, r5, #1
 5207 0048 EFD0     		beq	.L840
 5208 004a 0121     		movs	r1, #1
 5209 004c 3046     		mov	r0, r6
 5210 004e FFF7FEFF 		bl	_ZN4Tool12ToolCanDriveEb
 5211 0052 08B9     		cbnz	r0, .L856
 5212 0054 49EA0409 		orr	r9, r9, r4
 5213              	.L856:
 5214 0058 AE3D     		subs	r5, r5, #174
 5215 005a D6F89400 		ldr	r0, [r6, #148]
 5216 005e AB1B     		subs	r3, r5, r6
 5217 0060 9842     		cmp	r0, r3
 5218 0062 5D46     		mov	r5, fp
 5219 0064 E9D8     		bhi	.L842
 5220              	.L837:
 5221 0066 4846     		mov	r0, r9
 5222 0068 BDE8F88F 		pop	{r3, r4, r5, r6, r7, r8, r9, r10, fp, pc}
 5223              	.L858:
 5224 006c 3046     		mov	r0, r6
 5225 006e FFF7FEFF 		bl	_ZN4Tool12ToolCanDriveEb
 5226 0072 0028     		cmp	r0, #0
 5227 0074 F0D1     		bne	.L856
 5228 0076 D6F89400 		ldr	r0, [r6, #148]
 5229 007a 49EA0409 		orr	r9, r9, r4
 5230 007e D7E7     		b	.L841
 5231              	.L843:
 5232 0080 4FF00009 		mov	r9, #0
 5233 0084 4846     		mov	r0, r9
 5234 0086 BDE8F88F 		pop	{r3, r4, r5, r6, r7, r8, r9, r10, fp, pc}
 5235              	.L857:
 5236 008a 41EA0209 		orr	r9, r1, r2
 5237 008e 4846     		mov	r0, r9
 5238 0090 BDE8F88F 		pop	{r3, r4, r5, r6, r7, r8, r9, r10, fp, pc}
 5239              		.size	_ZN6RepRap30GetProhibitedExtruderMovementsEjj, .-_ZN6RepRap30GetProhibitedExtruderMovementsE
 5240              		.section	.text._ZN6RepRap20FlagTemperatureFaultEa,"ax",%progbits
 5241              		.align	1
 5242              		.p2align 2,,3
 5243              		.global	_ZN6RepRap20FlagTemperatureFaultEa
 5244              		.syntax unified
ARM GAS  C:\Users\paja\AppData\Local\Temp\ccY4oRD5.s 			page 93


 5245              		.thumb
 5246              		.thumb_func
 5247              		.fpu fpv4-sp-d16
 5248              		.type	_ZN6RepRap20FlagTemperatureFaultEa, %function
 5249              	_ZN6RepRap20FlagTemperatureFaultEa:
 5250              		@ args = 0, pretend = 0, frame = 8
 5251              		@ frame_needed = 0, uses_anonymous_args = 0
 5252 0000 30B5     		push	{r4, r5, lr}
 5253 0002 0446     		mov	r4, r0
 5254 0004 83B0     		sub	sp, sp, #12
 5255 0006 0D46     		mov	r5, r1
 5256 0008 6846     		mov	r0, sp
 5257 000a 04F12801 		add	r1, r4, #40
 5258 000e 4FF0FF32 		mov	r2, #-1
 5259 0012 FFF7FEFF 		bl	_ZN11MutexLockerC1ERK5Mutexm
 5260 0016 D4F8E800 		ldr	r0, [r4, #232]
 5261 001a 10B1     		cbz	r0, .L860
 5262 001c 2946     		mov	r1, r5
 5263 001e FFF7FEFF 		bl	_ZN4Tool20FlagTemperatureFaultEa
 5264              	.L860:
 5265 0022 6846     		mov	r0, sp
 5266 0024 FFF7FEFF 		bl	_ZN11MutexLockerD1Ev
 5267 0028 03B0     		add	sp, sp, #12
 5268              		@ sp needed
 5269 002a 30BD     		pop	{r4, r5, pc}
 5270              		.size	_ZN6RepRap20FlagTemperatureFaultEa, .-_ZN6RepRap20FlagTemperatureFaultEa
 5271              		.section	.text._ZN6RepRap21ClearTemperatureFaultEa,"ax",%progbits
 5272              		.align	1
 5273              		.p2align 2,,3
 5274              		.global	_ZN6RepRap21ClearTemperatureFaultEa
 5275              		.syntax unified
 5276              		.thumb
 5277              		.thumb_func
 5278              		.fpu fpv4-sp-d16
 5279              		.type	_ZN6RepRap21ClearTemperatureFaultEa, %function
 5280              	_ZN6RepRap21ClearTemperatureFaultEa:
 5281              		@ args = 0, pretend = 0, frame = 8
 5282              		@ frame_needed = 0, uses_anonymous_args = 0
 5283 0000 30B5     		push	{r4, r5, lr}
 5284 0002 0446     		mov	r4, r0
 5285 0004 83B0     		sub	sp, sp, #12
 5286 0006 0069     		ldr	r0, [r0, #16]
 5287 0008 0D46     		mov	r5, r1
 5288 000a FFF7FEFF 		bl	_ZN4Heat10ResetFaultEa
 5289 000e 04F12801 		add	r1, r4, #40
 5290 0012 6846     		mov	r0, sp
 5291 0014 4FF0FF32 		mov	r2, #-1
 5292 0018 FFF7FEFF 		bl	_ZN11MutexLockerC1ERK5Mutexm
 5293 001c D4F8E800 		ldr	r0, [r4, #232]
 5294 0020 10B1     		cbz	r0, .L866
 5295 0022 2946     		mov	r1, r5
 5296 0024 FFF7FEFF 		bl	_ZN4Tool21ClearTemperatureFaultEa
 5297              	.L866:
 5298 0028 6846     		mov	r0, sp
 5299 002a FFF7FEFF 		bl	_ZN11MutexLockerD1Ev
 5300 002e 03B0     		add	sp, sp, #12
 5301              		@ sp needed
ARM GAS  C:\Users\paja\AppData\Local\Temp\ccY4oRD5.s 			page 94


 5302 0030 30BD     		pop	{r4, r5, pc}
 5303              		.size	_ZN6RepRap21ClearTemperatureFaultEa, .-_ZN6RepRap21ClearTemperatureFaultEa
 5304 0032 00BF     		.section	.text._ZNK6RepRap15GetCurrentXAxesEv,"ax",%progbits
 5305              		.align	1
 5306              		.p2align 2,,3
 5307              		.global	_ZNK6RepRap15GetCurrentXAxesEv
 5308              		.syntax unified
 5309              		.thumb
 5310              		.thumb_func
 5311              		.fpu fpv4-sp-d16
 5312              		.type	_ZNK6RepRap15GetCurrentXAxesEv, %function
 5313              	_ZNK6RepRap15GetCurrentXAxesEv:
 5314              		@ args = 0, pretend = 0, frame = 0
 5315              		@ frame_needed = 0, uses_anonymous_args = 0
 5316              		@ link register save eliminated.
 5317 0000 D0F8EC30 		ldr	r3, [r0, #236]
 5318 0004 13B1     		cbz	r3, .L873
 5319 0006 D3F8A000 		ldr	r0, [r3, #160]
 5320 000a 7047     		bx	lr
 5321              	.L873:
 5322 000c 0120     		movs	r0, #1
 5323 000e 7047     		bx	lr
 5324              		.size	_ZNK6RepRap15GetCurrentXAxesEv, .-_ZNK6RepRap15GetCurrentXAxesEv
 5325              		.section	.text._ZNK6RepRap15GetCurrentYAxesEv,"ax",%progbits
 5326              		.align	1
 5327              		.p2align 2,,3
 5328              		.global	_ZNK6RepRap15GetCurrentYAxesEv
 5329              		.syntax unified
 5330              		.thumb
 5331              		.thumb_func
 5332              		.fpu fpv4-sp-d16
 5333              		.type	_ZNK6RepRap15GetCurrentYAxesEv, %function
 5334              	_ZNK6RepRap15GetCurrentYAxesEv:
 5335              		@ args = 0, pretend = 0, frame = 0
 5336              		@ frame_needed = 0, uses_anonymous_args = 0
 5337              		@ link register save eliminated.
 5338 0000 D0F8EC30 		ldr	r3, [r0, #236]
 5339 0004 13B1     		cbz	r3, .L876
 5340 0006 D3F8A400 		ldr	r0, [r3, #164]
 5341 000a 7047     		bx	lr
 5342              	.L876:
 5343 000c 0220     		movs	r0, #2
 5344 000e 7047     		bx	lr
 5345              		.size	_ZNK6RepRap15GetCurrentYAxesEv, .-_ZNK6RepRap15GetCurrentYAxesEv
 5346              		.section	.text._ZNK6RepRap17WriteToolSettingsEP9FileStore,"ax",%progbits
 5347              		.align	1
 5348              		.p2align 2,,3
 5349              		.global	_ZNK6RepRap17WriteToolSettingsEP9FileStore
 5350              		.syntax unified
 5351              		.thumb
 5352              		.thumb_func
 5353              		.fpu fpv4-sp-d16
 5354              		.type	_ZNK6RepRap17WriteToolSettingsEP9FileStore, %function
 5355              	_ZNK6RepRap17WriteToolSettingsEP9FileStore:
 5356              		@ args = 0, pretend = 0, frame = 8
 5357              		@ frame_needed = 0, uses_anonymous_args = 0
 5358 0000 F0B5     		push	{r4, r5, r6, r7, lr}
ARM GAS  C:\Users\paja\AppData\Local\Temp\ccY4oRD5.s 			page 95


 5359 0002 0646     		mov	r6, r0
 5360 0004 83B0     		sub	sp, sp, #12
 5361 0006 0F46     		mov	r7, r1
 5362 0008 6846     		mov	r0, sp
 5363 000a 06F12801 		add	r1, r6, #40
 5364 000e 4FF0FF32 		mov	r2, #-1
 5365 0012 FFF7FEFF 		bl	_ZN11MutexLockerC1ERK5Mutexm
 5366 0016 D6F8E840 		ldr	r4, [r6, #232]
 5367 001a 0CB3     		cbz	r4, .L897
 5368              	.L878:
 5369 001c D6F8EC00 		ldr	r0, [r6, #236]
 5370              	.L883:
 5371 0020 A042     		cmp	r0, r4
 5372 0022 0ED0     		beq	.L898
 5373 0024 2046     		mov	r0, r4
 5374 0026 3946     		mov	r1, r7
 5375 0028 FFF7FEFF 		bl	_ZNK4Tool13WriteSettingsEP9FileStore
 5376 002c 2468     		ldr	r4, [r4]
 5377 002e 0546     		mov	r5, r0
 5378 0030 A4B1     		cbz	r4, .L899
 5379 0032 002D     		cmp	r5, #0
 5380 0034 F2D1     		bne	.L878
 5381              	.L880:
 5382 0036 6846     		mov	r0, sp
 5383 0038 FFF7FEFF 		bl	_ZN11MutexLockerD1Ev
 5384 003c 2846     		mov	r0, r5
 5385 003e 03B0     		add	sp, sp, #12
 5386              		@ sp needed
 5387 0040 F0BD     		pop	{r4, r5, r6, r7, pc}
 5388              	.L898:
 5389 0042 0468     		ldr	r4, [r0]
 5390 0044 002C     		cmp	r4, #0
 5391 0046 EBD1     		bne	.L883
 5392              	.L882:
 5393 0048 3946     		mov	r1, r7
 5394 004a FFF7FEFF 		bl	_ZNK4Tool13WriteSettingsEP9FileStore
 5395 004e 0546     		mov	r5, r0
 5396 0050 6846     		mov	r0, sp
 5397 0052 FFF7FEFF 		bl	_ZN11MutexLockerD1Ev
 5398 0056 2846     		mov	r0, r5
 5399 0058 03B0     		add	sp, sp, #12
 5400              		@ sp needed
 5401 005a F0BD     		pop	{r4, r5, r6, r7, pc}
 5402              	.L899:
 5403 005c 0028     		cmp	r0, #0
 5404 005e EAD0     		beq	.L880
 5405              	.L897:
 5406 0060 D6F8EC00 		ldr	r0, [r6, #236]
 5407 0064 0028     		cmp	r0, #0
 5408 0066 EFD1     		bne	.L882
 5409 0068 6846     		mov	r0, sp
 5410 006a FFF7FEFF 		bl	_ZN11MutexLockerD1Ev
 5411 006e 0125     		movs	r5, #1
 5412 0070 2846     		mov	r0, r5
 5413 0072 03B0     		add	sp, sp, #12
 5414              		@ sp needed
 5415 0074 F0BD     		pop	{r4, r5, r6, r7, pc}
ARM GAS  C:\Users\paja\AppData\Local\Temp\ccY4oRD5.s 			page 96


 5416              		.size	_ZNK6RepRap17WriteToolSettingsEP9FileStore, .-_ZNK6RepRap17WriteToolSettingsEP9FileStore
 5417 0076 00BF     		.section	.text._ZN6RepRap8DoDivideEmm,"ax",%progbits
 5418              		.align	1
 5419              		.p2align 2,,3
 5420              		.global	_ZN6RepRap8DoDivideEmm
 5421              		.syntax unified
 5422              		.thumb
 5423              		.thumb_func
 5424              		.fpu fpv4-sp-d16
 5425              		.type	_ZN6RepRap8DoDivideEmm, %function
 5426              	_ZN6RepRap8DoDivideEmm:
 5427              		@ args = 0, pretend = 0, frame = 0
 5428              		@ frame_needed = 0, uses_anonymous_args = 0
 5429              		@ link register save eliminated.
 5430 0000 B0FBF1F0 		udiv	r0, r0, r1
 5431 0004 7047     		bx	lr
 5432              		.size	_ZN6RepRap8DoDivideEmm, .-_ZN6RepRap8DoDivideEmm
 5433 0006 00BF     		.section	.text._ZNK6RepRap19ReportInternalErrorEPKcS1_i,"ax",%progbits
 5434              		.align	1
 5435              		.p2align 2,,3
 5436              		.global	_ZNK6RepRap19ReportInternalErrorEPKcS1_i
 5437              		.syntax unified
 5438              		.thumb
 5439              		.thumb_func
 5440              		.fpu fpv4-sp-d16
 5441              		.type	_ZNK6RepRap19ReportInternalErrorEPKcS1_i, %function
 5442              	_ZNK6RepRap19ReportInternalErrorEPKcS1_i:
 5443              		@ args = 0, pretend = 0, frame = 0
 5444              		@ frame_needed = 0, uses_anonymous_args = 0
 5445 0000 00B5     		push	{lr}
 5446 0002 83B0     		sub	sp, sp, #12
 5447 0004 4068     		ldr	r0, [r0, #4]
 5448 0006 CDE90013 		strd	r1, r3, [sp]
 5449 000a 1346     		mov	r3, r2
 5450 000c 40F2B511 		movw	r1, #437
 5451 0010 024A     		ldr	r2, .L903
 5452 0012 FFF7FEFF 		bl	_ZN8Platform8MessageFE11MessageTypePKcz
 5453 0016 03B0     		add	sp, sp, #12
 5454              		@ sp needed
 5455 0018 5DF804FB 		ldr	pc, [sp], #4
 5456              	.L904:
 5457              		.align	2
 5458              	.L903:
 5459 001c 00000000 		.word	.LC181
 5460              		.size	_ZNK6RepRap19ReportInternalErrorEPKcS1_i, .-_ZNK6RepRap19ReportInternalErrorEPKcS1_i
 5461              		.section	.text._ZN6StringILj20EE10CopyAndPadEPKc,"axG",%progbits,_ZN6StringILj20EE10CopyAndPadEPKc
 5462              		.align	1
 5463              		.p2align 2,,3
 5464              		.weak	_ZN6StringILj20EE10CopyAndPadEPKc
 5465              		.syntax unified
 5466              		.thumb
 5467              		.thumb_func
 5468              		.fpu fpv4-sp-d16
 5469              		.type	_ZN6StringILj20EE10CopyAndPadEPKc, %function
 5470              	_ZN6StringILj20EE10CopyAndPadEPKc:
 5471              		@ args = 0, pretend = 0, frame = 8
 5472              		@ frame_needed = 0, uses_anonymous_args = 0
ARM GAS  C:\Users\paja\AppData\Local\Temp\ccY4oRD5.s 			page 97


 5473 0000 00B5     		push	{lr}
 5474 0002 0022     		movs	r2, #0
 5475 0004 83B0     		sub	sp, sp, #12
 5476 0006 0346     		mov	r3, r0
 5477 0008 0260     		str	r2, [r0]	@ unaligned
 5478 000a 4260     		str	r2, [r0, #4]	@ unaligned
 5479 000c 8260     		str	r2, [r0, #8]	@ unaligned
 5480 000e C260     		str	r2, [r0, #12]	@ unaligned
 5481 0010 0261     		str	r2, [r0, #16]	@ unaligned
 5482 0012 0275     		strb	r2, [r0, #20]
 5483 0014 1522     		movs	r2, #21
 5484 0016 6846     		mov	r0, sp
 5485 0018 CDE90032 		strd	r3, r2, [sp]
 5486 001c FFF7FEFF 		bl	_ZNK9StringRef4copyEPKc
 5487 0020 03B0     		add	sp, sp, #12
 5488              		@ sp needed
 5489 0022 5DF804FB 		ldr	pc, [sp], #4
 5490              		.size	_ZN6StringILj20EE10CopyAndPadEPKc, .-_ZN6StringILj20EE10CopyAndPadEPKc
 5491 0026 00BF     		.section	.text._ZNK6RepRap13CheckPasswordEPKc,"ax",%progbits
 5492              		.align	1
 5493              		.p2align 2,,3
 5494              		.global	_ZNK6RepRap13CheckPasswordEPKc
 5495              		.syntax unified
 5496              		.thumb
 5497              		.thumb_func
 5498              		.fpu fpv4-sp-d16
 5499              		.type	_ZNK6RepRap13CheckPasswordEPKc, %function
 5500              	_ZNK6RepRap13CheckPasswordEPKc:
 5501              		@ args = 0, pretend = 0, frame = 48
 5502              		@ frame_needed = 0, uses_anonymous_args = 0
 5503 0000 F0B5     		push	{r4, r5, r6, r7, lr}
 5504 0002 8DB0     		sub	sp, sp, #52
 5505 0004 0CAE     		add	r6, sp, #48
 5506 0006 0024     		movs	r4, #0
 5507 0008 06F8304D 		strb	r4, [r6, #-48]!
 5508 000c 0546     		mov	r5, r0
 5509 000e 3046     		mov	r0, r6
 5510 0010 FFF7FEFF 		bl	_ZN6StringILj20EE10CopyAndPadEPKc
 5511 0014 0FCE     		ldmia	r6!, {r0, r1, r2, r3}
 5512 0016 06AF     		add	r7, sp, #24
 5513 0018 0FC7     		stmia	r7!, {r0, r1, r2, r3}
 5514 001a 96E80300 		ldm	r6, {r0, r1}
 5515 001e 47F8040B 		str	r0, [r7], #4
 5516 0022 05F20F15 		addw	r5, r5, #271
 5517 0026 2046     		mov	r0, r4
 5518 0028 3970     		strb	r1, [r7]
 5519 002a 0DF11702 		add	r2, sp, #23
 5520 002e 0DF12B04 		add	r4, sp, #43
 5521              	.L908:
 5522 0032 12F8011F 		ldrb	r1, [r2, #1]!	@ zero_extendqisi2
 5523 0036 15F8013F 		ldrb	r3, [r5, #1]!	@ zero_extendqisi2
 5524 003a A242     		cmp	r2, r4
 5525 003c 83EA0103 		eor	r3, r3, r1
 5526 0040 40EA0300 		orr	r0, r0, r3
 5527 0044 F5D1     		bne	.L908
 5528 0046 B0FA80F0 		clz	r0, r0
 5529 004a 4009     		lsrs	r0, r0, #5
ARM GAS  C:\Users\paja\AppData\Local\Temp\ccY4oRD5.s 			page 98


 5530 004c 0DB0     		add	sp, sp, #52
 5531              		@ sp needed
 5532 004e F0BD     		pop	{r4, r5, r6, r7, pc}
 5533              		.size	_ZNK6RepRap13CheckPasswordEPKc, .-_ZNK6RepRap13CheckPasswordEPKc
 5534              		.section	.text._ZNK6RepRap13NoPasswordSetEv,"ax",%progbits
 5535              		.align	1
 5536              		.p2align 2,,3
 5537              		.global	_ZNK6RepRap13NoPasswordSetEv
 5538              		.syntax unified
 5539              		.thumb
 5540              		.thumb_func
 5541              		.fpu fpv4-sp-d16
 5542              		.type	_ZNK6RepRap13NoPasswordSetEv, %function
 5543              	_ZNK6RepRap13NoPasswordSetEv:
 5544              		@ args = 0, pretend = 0, frame = 0
 5545              		@ frame_needed = 0, uses_anonymous_args = 0
 5546              		@ link register save eliminated.
 5547 0000 90F81031 		ldrb	r3, [r0, #272]	@ zero_extendqisi2
 5548 0004 0BB9     		cbnz	r3, .L913
 5549 0006 0120     		movs	r0, #1
 5550 0008 7047     		bx	lr
 5551              	.L913:
 5552 000a 0149     		ldr	r1, .L914
 5553 000c FFF7FEBF 		b	_ZNK6RepRap13CheckPasswordEPKc
 5554              	.L915:
 5555              		.align	2
 5556              	.L914:
 5557 0010 00000000 		.word	.LC182
 5558              		.size	_ZNK6RepRap13NoPasswordSetEv, .-_ZNK6RepRap13NoPasswordSetEv
 5559              		.section	.text._ZN6RepRap11SetPasswordEPKc,"ax",%progbits
 5560              		.align	1
 5561              		.p2align 2,,3
 5562              		.global	_ZN6RepRap11SetPasswordEPKc
 5563              		.syntax unified
 5564              		.thumb
 5565              		.thumb_func
 5566              		.fpu fpv4-sp-d16
 5567              		.type	_ZN6RepRap11SetPasswordEPKc, %function
 5568              	_ZN6RepRap11SetPasswordEPKc:
 5569              		@ args = 0, pretend = 0, frame = 0
 5570              		@ frame_needed = 0, uses_anonymous_args = 0
 5571 0000 08B5     		push	{r3, lr}
 5572 0002 00F58870 		add	r0, r0, #272
 5573 0006 FFF7FEFF 		bl	_ZN6StringILj20EE10CopyAndPadEPKc
 5574 000a 08BD     		pop	{r3, pc}
 5575              		.size	_ZN6RepRap11SetPasswordEPKc, .-_ZN6RepRap11SetPasswordEPKc
 5576              		.section	.text._ZN6RepRapC2Ev,"ax",%progbits
 5577              		.align	1
 5578              		.p2align 2,,3
 5579              		.global	_ZN6RepRapC2Ev
 5580              		.syntax unified
 5581              		.thumb
 5582              		.thumb_func
 5583              		.fpu fpv4-sp-d16
 5584              		.type	_ZN6RepRapC2Ev, %function
 5585              	_ZN6RepRapC2Ev:
 5586              		@ args = 0, pretend = 0, frame = 0
ARM GAS  C:\Users\paja\AppData\Local\Temp\ccY4oRD5.s 			page 99


 5587              		@ frame_needed = 0, uses_anonymous_args = 0
 5588 0000 70B5     		push	{r4, r5, r6, lr}
 5589 0002 0446     		mov	r4, r0
 5590 0004 FFF7FEFF 		bl	_ZN11ObjectModelC2Ev
 5591 0008 3E4B     		ldr	r3, .L920
 5592 000a 2360     		str	r3, [r4]
 5593 000c 0025     		movs	r5, #0
 5594 000e 1022     		movs	r2, #16
 5595 0010 0123     		movs	r3, #1
 5596 0012 84F8FC20 		strb	r2, [r4, #252]
 5597 0016 84F80F31 		strb	r3, [r4, #271]
 5598 001a A562     		str	r5, [r4, #40]
 5599 001c C4F88850 		str	r5, [r4, #136]
 5600 0020 C4E93A55 		strd	r5, r5, [r4, #232]
 5601 0024 C4E93C55 		strd	r5, r5, [r4, #240]
 5602 0028 C4F8F850 		str	r5, [r4, #248]
 5603 002c C4F80851 		str	r5, [r4, #264]
 5604 0030 84F80C51 		strb	r5, [r4, #268]
 5605 0034 84F80D51 		strb	r5, [r4, #269]
 5606 0038 84F80E51 		strb	r5, [r4, #270]
 5607 003c 84F81051 		strb	r5, [r4, #272]
 5608 0040 84F82551 		strb	r5, [r4, #293]
 5609 0044 C4F85051 		str	r5, [r4, #336]
 5610 0048 C4F85451 		str	r5, [r4, #340]
 5611 004c 84F85952 		strb	r5, [r4, #601]
 5612 0050 84F85A52 		strb	r5, [r4, #602]
 5613 0054 84F85B53 		strb	r5, [r4, #859]
 5614 0058 C4F86054 		str	r5, [r4, #1120]
 5615 005c A4F87054 		strh	r5, [r4, #1136]	@ movhi
 5616 0060 84F87254 		strb	r5, [r4, #1138]
 5617 0064 FFF7FEFF 		bl	_ZN12OutputBuffer4InitEv
 5618 0068 4FF45560 		mov	r0, #3408
 5619 006c FFF7FEFF 		bl	_Znwj
 5620 0070 0646     		mov	r6, r0
 5621 0072 FFF7FEFF 		bl	_ZN8PlatformC1Ev
 5622 0076 6660     		str	r6, [r4, #4]
 5623 0078 EC20     		movs	r0, #236
 5624 007a FFF7FEFF 		bl	_Znwj
 5625 007e 6168     		ldr	r1, [r4, #4]
 5626 0080 0646     		mov	r6, r0
 5627 0082 FFF7FEFF 		bl	_ZN7NetworkC1ER8Platform
 5628 0086 A660     		str	r6, [r4, #8]
 5629 0088 40F26C70 		movw	r0, #1900
 5630 008c FFF7FEFF 		bl	_Znwj
 5631 0090 6168     		ldr	r1, [r4, #4]
 5632 0092 0646     		mov	r6, r0
 5633 0094 FFF7FEFF 		bl	_ZN6GCodesC1ER8Platform
 5634 0098 6661     		str	r6, [r4, #20]
 5635 009a 40F6B820 		movw	r0, #2744
 5636 009e FFF7FEFF 		bl	_Znwj
 5637 00a2 0646     		mov	r6, r0
 5638 00a4 FFF7FEFF 		bl	_ZN4MoveC1Ev
 5639 00a8 E660     		str	r6, [r4, #12]
 5640 00aa E420     		movs	r0, #228
 5641 00ac FFF7FEFF 		bl	_Znwj
 5642 00b0 6168     		ldr	r1, [r4, #4]
 5643 00b2 0646     		mov	r6, r0
ARM GAS  C:\Users\paja\AppData\Local\Temp\ccY4oRD5.s 			page 100


 5644 00b4 FFF7FEFF 		bl	_ZN4HeatC1ER8Platform
 5645 00b8 2661     		str	r6, [r4, #16]
 5646 00ba 4FF49A70 		mov	r0, #308
 5647 00be FFF7FEFF 		bl	_Znwj
 5648 00c2 0346     		mov	r3, r0
 5649 00c4 6268     		ldr	r2, [r4, #4]
 5650 00c6 80F89C50 		strb	r5, [r0, #156]
 5651 00ca E061     		str	r0, [r4, #28]
 5652 00cc 5A60     		str	r2, [r3, #4]
 5653 00ce 5020     		movs	r0, #80
 5654 00d0 FFF7FEFF 		bl	_Znwj
 5655 00d4 0646     		mov	r6, r0
 5656 00d6 FFF7FEFF 		bl	_ZN11PortControlC1Ev
 5657 00da 6662     		str	r6, [r4, #36]
 5658 00dc 4FF4D070 		mov	r0, #416
 5659 00e0 FFF7FEFF 		bl	_Znwj
 5660 00e4 6269     		ldr	r2, [r4, #20]
 5661 00e6 6168     		ldr	r1, [r4, #4]
 5662 00e8 0646     		mov	r6, r0
 5663 00ea FFF7FEFF 		bl	_ZN12PrintMonitorC1ER8PlatformR6GCodes
 5664 00ee 04F58870 		add	r0, r4, #272
 5665 00f2 2662     		str	r6, [r4, #32]
 5666 00f4 0449     		ldr	r1, .L920+4
 5667 00f6 FFF7FEFF 		bl	_ZN6StringILj20EE10CopyAndPadEPKc
 5668 00fa 84F85851 		strb	r5, [r4, #344]
 5669 00fe 2046     		mov	r0, r4
 5670 0100 70BD     		pop	{r4, r5, r6, pc}
 5671              	.L921:
 5672 0102 00BF     		.align	2
 5673              	.L920:
 5674 0104 08000000 		.word	.LANCHOR2+8
 5675 0108 00000000 		.word	.LC182
 5676              		.size	_ZN6RepRapC2Ev, .-_ZN6RepRapC2Ev
 5677              		.global	_ZN6RepRapC1Ev
 5678              		.thumb_set _ZN6RepRapC1Ev,_ZN6RepRapC2Ev
 5679              		.section	.text._ZN6StringILj220EE4catfEPKcz,"axG",%progbits,_ZN6StringILj220EE4catfEPKcz,comdat
 5680              		.align	1
 5681              		.p2align 2,,3
 5682              		.weak	_ZN6StringILj220EE4catfEPKcz
 5683              		.syntax unified
 5684              		.thumb
 5685              		.thumb_func
 5686              		.fpu fpv4-sp-d16
 5687              		.type	_ZN6StringILj220EE4catfEPKcz, %function
 5688              	_ZN6StringILj220EE4catfEPKcz:
 5689              		@ args = 4, pretend = 12, frame = 16
 5690              		@ frame_needed = 0, uses_anonymous_args = 1
 5691 0000 0EB4     		push	{r1, r2, r3}
 5692 0002 00B5     		push	{lr}
 5693 0004 84B0     		sub	sp, sp, #16
 5694 0006 05AA     		add	r2, sp, #20
 5695 0008 0290     		str	r0, [sp, #8]
 5696 000a 52F8041B 		ldr	r1, [r2], #4
 5697 000e 0192     		str	r2, [sp, #4]
 5698 0010 DD23     		movs	r3, #221
 5699 0012 02A8     		add	r0, sp, #8
 5700 0014 0393     		str	r3, [sp, #12]
ARM GAS  C:\Users\paja\AppData\Local\Temp\ccY4oRD5.s 			page 101


 5701 0016 FFF7FEFF 		bl	_ZNK9StringRef5vcatfEPKcSt9__va_list
 5702 001a 04B0     		add	sp, sp, #16
 5703              		@ sp needed
 5704 001c 5DF804EB 		ldr	lr, [sp], #4
 5705 0020 03B0     		add	sp, sp, #12
 5706 0022 7047     		bx	lr
 5707              		.size	_ZN6StringILj220EE4catfEPKcz, .-_ZN6StringILj220EE4catfEPKcz
 5708              		.section	.text._ZNK6RepRap19WriteToolParametersEP9FileStore,"ax",%progbits
 5709              		.align	1
 5710              		.p2align 2,,3
 5711              		.global	_ZNK6RepRap19WriteToolParametersEP9FileStore
 5712              		.syntax unified
 5713              		.thumb
 5714              		.thumb_func
 5715              		.fpu fpv4-sp-d16
 5716              		.type	_ZNK6RepRap19WriteToolParametersEP9FileStore, %function
 5717              	_ZNK6RepRap19WriteToolParametersEP9FileStore:
 5718              		@ args = 0, pretend = 0, frame = 248
 5719              		@ frame_needed = 0, uses_anonymous_args = 0
 5720 0000 2DE9F04F 		push	{r4, r5, r6, r7, r8, r9, r10, fp, lr}
 5721 0004 C1B0     		sub	sp, sp, #260
 5722 0006 8046     		mov	r8, r0
 5723 0008 0391     		str	r1, [sp, #12]
 5724 000a 04A8     		add	r0, sp, #16
 5725 000c 08F12801 		add	r1, r8, #40
 5726 0010 4FF0FF32 		mov	r2, #-1
 5727 0014 FFF7FEFF 		bl	_ZN11MutexLockerC1ERK5Mutexm
 5728 0018 D8F8E8B0 		ldr	fp, [r8, #232]
 5729 001c DFF8D490 		ldr	r9, .L951+8
 5730 0020 0024     		movs	r4, #0
 5731 0022 2046     		mov	r0, r4
 5732 0024 BBF1000F 		cmp	fp, #0
 5733 0028 4BD0     		beq	.L934
 5734              	.L950:
 5735 002a DBF8A860 		ldr	r6, [fp, #168]
 5736 002e 46B9     		cbnz	r6, .L926
 5737 0030 5B46     		mov	r3, fp
 5738              	.L927:
 5739 0032 1B68     		ldr	r3, [r3]
 5740 0034 002B     		cmp	r3, #0
 5741 0036 44D0     		beq	.L934
 5742 0038 D3F8A860 		ldr	r6, [r3, #168]
 5743 003c 002E     		cmp	r6, #0
 5744 003e F8D0     		beq	.L927
 5745 0040 9B46     		mov	fp, r3
 5746              	.L926:
 5747 0042 0022     		movs	r2, #0
 5748 0044 8DF82020 		strb	r2, [sp, #32]
 5749 0048 0028     		cmp	r0, #0
 5750 004a 44D0     		beq	.L944
 5751 004c 06AB     		add	r3, sp, #24
 5752 004e 08AF     		add	r7, sp, #32
 5753 0050 0293     		str	r3, [sp, #8]
 5754              	.L929:
 5755 0052 DBF89C20 		ldr	r2, [fp, #156]
 5756 0056 2549     		ldr	r1, .L951
 5757 0058 3846     		mov	r0, r7
ARM GAS  C:\Users\paja\AppData\Local\Temp\ccY4oRD5.s 			page 102


 5758 005a FFF7FEFF 		bl	_ZN6StringILj220EE4catfEPKcz
 5759 005e 0BF10C05 		add	r5, fp, #12
 5760 0062 0024     		movs	r4, #0
 5761 0064 04E0     		b	.L931
 5762              	.L930:
 5763 0066 0134     		adds	r4, r4, #1
 5764 0068 092C     		cmp	r4, #9
 5765 006a 05F10405 		add	r5, r5, #4
 5766 006e 17D0     		beq	.L949
 5767              	.L931:
 5768 0070 26FA04F3 		lsr	r3, r6, r4
 5769 0074 DB07     		lsls	r3, r3, #31
 5770 0076 F6D5     		bpl	.L930
 5771 0078 D8F81430 		ldr	r3, [r8, #20]
 5772 007c 2868     		ldr	r0, [r5]	@ float
 5773 007e 2344     		add	r3, r3, r4
 5774 0080 0134     		adds	r4, r4, #1
 5775 0082 93F810A5 		ldrb	r10, [r3, #1296]	@ zero_extendqisi2
 5776 0086 FFF7FEFF 		bl	__aeabi_f2d
 5777 008a 5246     		mov	r2, r10
 5778 008c CDE90001 		strd	r0, [sp]
 5779 0090 4946     		mov	r1, r9
 5780 0092 3846     		mov	r0, r7
 5781 0094 FFF7FEFF 		bl	_ZN6StringILj220EE4catfEPKcz
 5782 0098 092C     		cmp	r4, #9
 5783 009a 05F10405 		add	r5, r5, #4
 5784 009e E7D1     		bne	.L931
 5785              	.L949:
 5786 00a0 DD22     		movs	r2, #221
 5787 00a2 0A21     		movs	r1, #10
 5788 00a4 0298     		ldr	r0, [sp, #8]
 5789 00a6 CDE90672 		strd	r7, r2, [sp, #24]
 5790 00aa FFF7FEFF 		bl	_ZNK9StringRef3catEc
 5791 00ae 3946     		mov	r1, r7
 5792 00b0 0398     		ldr	r0, [sp, #12]
 5793 00b2 FFF7FEFF 		bl	_ZN9FileStore5WriteEPKc
 5794 00b6 30B1     		cbz	r0, .L947
 5795 00b8 DBF800B0 		ldr	fp, [fp]
 5796 00bc BBF1000F 		cmp	fp, #0
 5797 00c0 B3D1     		bne	.L950
 5798              	.L934:
 5799 00c2 0124     		movs	r4, #1
 5800 00c4 00E0     		b	.L925
 5801              	.L947:
 5802 00c6 0446     		mov	r4, r0
 5803              	.L925:
 5804 00c8 04A8     		add	r0, sp, #16
 5805 00ca FFF7FEFF 		bl	_ZN11MutexLockerD1Ev
 5806 00ce 2046     		mov	r0, r4
 5807 00d0 41B0     		add	sp, sp, #260
 5808              		@ sp needed
 5809 00d2 BDE8F08F 		pop	{r4, r5, r6, r7, r8, r9, r10, fp, pc}
 5810              	.L944:
 5811 00d6 06AB     		add	r3, sp, #24
 5812 00d8 08AF     		add	r7, sp, #32
 5813 00da DD22     		movs	r2, #221
 5814 00dc 1846     		mov	r0, r3
ARM GAS  C:\Users\paja\AppData\Local\Temp\ccY4oRD5.s 			page 103


 5815 00de 0449     		ldr	r1, .L951+4
 5816 00e0 0293     		str	r3, [sp, #8]
 5817 00e2 CDE90672 		strd	r7, r2, [sp, #24]
 5818 00e6 FFF7FEFF 		bl	_ZNK9StringRef4copyEPKc
 5819 00ea B2E7     		b	.L929
 5820              	.L952:
 5821              		.align	2
 5822              	.L951:
 5823 00ec 18000000 		.word	.LC184
 5824 00f0 00000000 		.word	.LC183
 5825 00f4 20000000 		.word	.LC185
 5826              		.size	_ZNK6RepRap19WriteToolParametersEP9FileStore, .-_ZNK6RepRap19WriteToolParametersEP9FileStore
 5827              		.section	.text.startup._GLOBAL__sub_I_HSMCI_Handler,"ax",%progbits
 5828              		.align	1
 5829              		.p2align 2,,3
 5830              		.syntax unified
 5831              		.thumb
 5832              		.thumb_func
 5833              		.fpu fpv4-sp-d16
 5834              		.type	_GLOBAL__sub_I_HSMCI_Handler, %function
 5835              	_GLOBAL__sub_I_HSMCI_Handler:
 5836              		@ args = 0, pretend = 0, frame = 0
 5837              		@ frame_needed = 0, uses_anonymous_args = 0
 5838              		@ link register save eliminated.
 5839 0000 0149     		ldr	r1, .L954
 5840 0002 0248     		ldr	r0, .L954+4
 5841 0004 FFF7FEBF 		b	_ZN9IPAddress5SetV4EPKh
 5842              	.L955:
 5843              		.align	2
 5844              	.L954:
 5845 0008 00000000 		.word	.LANCHOR3
 5846 000c 00000000 		.word	.LANCHOR4
 5847              		.size	_GLOBAL__sub_I_HSMCI_Handler, .-_GLOBAL__sub_I_HSMCI_Handler
 5848              		.section	.init_array,"aw",%init_array
 5849              		.align	2
 5850 0000 00000000 		.word	_GLOBAL__sub_I_HSMCI_Handler(target1)
 5851              		.global	_ZTV6RepRap
 5852              		.global	_ZN6RepRap16objectModelTableE
 5853              		.section	.bss._ZL14DefaultNetMask,"aw",%nobits
 5854              		.align	2
 5855              		.set	.LANCHOR4,. + 0
 5856              		.type	_ZL14DefaultNetMask, %object
 5857              		.size	_ZL14DefaultNetMask, 4
 5858              	_ZL14DefaultNetMask:
 5859 0000 00000000 		.space	4
 5860              		.section	.bss._ZL28cpu_irq_prev_interrupt_state,"aw",%nobits
 5861              		.type	_ZL28cpu_irq_prev_interrupt_state, %object
 5862              		.size	_ZL28cpu_irq_prev_interrupt_state, 1
 5863              	_ZL28cpu_irq_prev_interrupt_state:
 5864 0000 00       		.space	1
 5865              		.section	.bss._ZL32cpu_irq_critical_section_counter,"aw",%nobits
 5866              		.align	2
 5867              		.type	_ZL32cpu_irq_critical_section_counter, %object
 5868              		.size	_ZL32cpu_irq_critical_section_counter, 4
 5869              	_ZL32cpu_irq_critical_section_counter:
 5870 0000 00000000 		.space	4
 5871              		.section	.bss._ZL9hsmciTask,"aw",%nobits
ARM GAS  C:\Users\paja\AppData\Local\Temp\ccY4oRD5.s 			page 104


 5872              		.align	2
 5873              		.set	.LANCHOR1,. + 0
 5874              		.type	_ZL9hsmciTask, %object
 5875              		.size	_ZL9hsmciTask, 4
 5876              	_ZL9hsmciTask:
 5877 0000 00000000 		.space	4
 5878              		.section	.rodata.._157,"a",%progbits
 5879              		.align	2
 5880              		.set	.LANCHOR3,. + 0
 5881              		.type	._157, %object
 5882              		.size	._157, 4
 5883              	._157:
 5884 0000 FF       		.byte	-1
 5885 0001 FF       		.byte	-1
 5886 0002 FF       		.byte	-1
 5887 0003 00       		.byte	0
 5888              		.section	.rodata._ZN6RepRap10PrintDebugEv.str1.4,"aMS",%progbits,1
 5889              		.align	2
 5890              	.LC8:
 5891 0000 44656275 		.ascii	"Debugging enabled for modules:\000"
 5891      6767696E 
 5891      6720656E 
 5891      61626C65 
 5891      6420666F 
 5892 001f 00       		.space	1
 5893              	.LC9:
 5894 0020 20257328 		.ascii	" %s(%u)\000"
 5894      25752900 
 5895              	.LC10:
 5896 0028 0A446562 		.ascii	"\012Debugging disabled for modules:\000"
 5896      75676769 
 5896      6E672064 
 5896      69736162 
 5896      6C656420 
 5897              		.section	.rodata._ZN6RepRap11DiagnosticsE11MessageType.str1.4,"aMS",%progbits,1
 5898              		.align	2
 5899              	.LC1:
 5900 0000 0A00     		.ascii	"\012\000"
 5901 0002 0000     		.space	2
 5902              	.LC2:
 5903 0004 202B2025 		.ascii	" + %s\012\000"
 5903      730A00
 5904 000b 00       		.space	1
 5905              	.LC3:
 5906 000c 3D3D3D20 		.ascii	"=== Diagnostics ===\012\000"
 5906      44696167 
 5906      6E6F7374 
 5906      69637320 
 5906      3D3D3D0A 
 5907 0021 000000   		.space	3
 5908              	.LC4:
 5909 0024 52657052 		.ascii	"RepRapFirmware for Duet 2 WiFi/Ethernet\000"
 5909      61704669 
 5909      726D7761 
 5909      72652066 
 5909      6F722044 
 5910              	.LC5:
ARM GAS  C:\Users\paja\AppData\Local\Temp\ccY4oRD5.s 			page 105


 5911 004c 25732076 		.ascii	"%s version %s running on %s\000"
 5911      65727369 
 5911      6F6E2025 
 5911      73207275 
 5911      6E6E696E 
 5912              	.LC6:
 5913 0068 322E3032 		.ascii	"2.02RC4(RTOS)\000"
 5913      52433428 
 5913      52544F53 
 5913      2900
 5914              		.section	.rodata._ZN6RepRap11StandbyToolEib.str1.4,"aMS",%progbits,1
 5915              		.align	2
 5916              	.LC12:
 5917 0000 41747465 		.ascii	"Attempt to standby a non-existent tool: %d.\012\000"
 5917      6D707420 
 5917      746F2073 
 5917      74616E64 
 5917      62792061 
 5918              		.section	.rodata._ZN6RepRap16GetFilesResponseEPKcjb.str1.4,"aMS",%progbits,1
 5919              		.align	2
 5920              	.LC30:
 5921 0000 7B226469 		.ascii	"{\"dir\":\000"
 5921      72223A00 
 5922              	.LC31:
 5923 0008 2C226669 		.ascii	",\"first\":%u,\"files\":[\000"
 5923      72737422 
 5923      3A25752C 
 5923      2266696C 
 5923      6573223A 
 5924 001e 0000     		.space	2
 5925              	.LC32:
 5926 0020 5D2C226E 		.ascii	"],\"next\":%u,\"err\":%u}\000"
 5926      65787422 
 5926      3A25752C 
 5926      22657272 
 5926      223A2575 
 5927 0036 0000     		.space	2
 5928              	.LC33:
 5929 0038 5D2C2265 		.ascii	"],\"err\":%u}\000"
 5929      7272223A 
 5929      25757D00 
 5930              		.section	.rodata._ZN6RepRap16objectModelTableE,"a",%progbits
 5931              		.align	2
 5932              		.set	.LANCHOR0,. + 0
 5933              		.type	_ZN6RepRap16objectModelTableE, %object
 5934              		.size	_ZN6RepRap16objectModelTableE, 60
 5935              	_ZN6RepRap16objectModelTableE:
 5936 0000 00000000 		.word	.LC186
 5937 0004 00000000 		.word	_ZN6RepRapUlP11ObjectModelE_4_FUNES1_
 5938 0008 09       		.byte	9
 5939 0009 00       		.space	1
 5940 000a 0000     		.short	0
 5941 000c 08000000 		.word	.LC187
 5942 0010 00000000 		.word	_ZN6RepRapUlP11ObjectModelE0_4_FUNES1_
 5943 0014 09       		.byte	9
 5944 0015 00       		.space	1
 5945 0016 0000     		.short	0
ARM GAS  C:\Users\paja\AppData\Local\Temp\ccY4oRD5.s 			page 106


 5946 0018 14000000 		.word	.LC188
 5947 001c 00000000 		.word	_ZN6RepRapUlP11ObjectModelE1_4_FUNES1_
 5948 0020 09       		.byte	9
 5949 0021 00       		.space	1
 5950 0022 0000     		.short	0
 5951 0024 1C000000 		.word	.LC189
 5952 0028 00000000 		.word	_ZN6RepRapUlP11ObjectModelE2_4_FUNES1_
 5953 002c 09       		.byte	9
 5954 002d 00       		.space	1
 5955 002e 0000     		.short	0
 5956 0030 24000000 		.word	.LC190
 5957 0034 00000000 		.word	_ZN6RepRapUlP11ObjectModelE3_4_FUNES1_
 5958 0038 09       		.byte	9
 5959 0039 00       		.space	1
 5960 003a 0000     		.short	0
 5961              		.section	.rodata._ZN6RepRap17GetConfigResponseEv.str1.4,"aMS",%progbits,1
 5962              		.align	2
 5963              	.LC13:
 5964 0000 7B226178 		.ascii	"{\"axisMins\":\000"
 5964      69734D69 
 5964      6E73223A 
 5964      00
 5965 000d 000000   		.space	3
 5966              	.LC14:
 5967 0010 2563252E 		.ascii	"%c%.2f\000"
 5967      326600
 5968 0017 00       		.space	1
 5969              	.LC15:
 5970 0018 5D2C2261 		.ascii	"],\"accelerations\":\000"
 5970      6363656C 
 5970      65726174 
 5970      696F6E73 
 5970      223A00
 5971 002b 00       		.space	1
 5972              	.LC16:
 5973 002c 5D2C2263 		.ascii	"],\"currents\":\000"
 5973      75727265 
 5973      6E747322 
 5973      3A00
 5974 003a 0000     		.space	2
 5975              	.LC17:
 5976 003c 5D2C2266 		.ascii	"],\"firmwareElectronics\":\"%s\000"
 5976      69726D77 
 5976      61726545 
 5976      6C656374 
 5976      726F6E69 
 5977              	.LC18:
 5978 0058 202B2025 		.ascii	" + %s\000"
 5978      7300
 5979 005e 0000     		.space	2
 5980              	.LC19:
 5981 0060 222C2266 		.ascii	"\",\"firmwareName\":\"%s\"\000"
 5981      69726D77 
 5981      6172654E 
 5981      616D6522 
 5981      3A222573 
 5982 0076 0000     		.space	2
ARM GAS  C:\Users\paja\AppData\Local\Temp\ccY4oRD5.s 			page 107


 5983              	.LC20:
 5984 0078 2C226669 		.ascii	",\"firmwareVersion\":\"%s\"\000"
 5984      726D7761 
 5984      72655665 
 5984      7273696F 
 5984      6E223A22 
 5985              	.LC21:
 5986 0090 2C226477 		.ascii	",\"dwsVersion\":\"%s\"\000"
 5986      73566572 
 5986      73696F6E 
 5986      223A2225 
 5986      732200
 5987 00a3 00       		.space	1
 5988              	.LC22:
 5989 00a4 32303138 		.ascii	"2018-11-18b5\000"
 5989      2D31312D 
 5989      31386235 
 5989      00
 5990 00b1 000000   		.space	3
 5991              	.LC23:
 5992 00b4 2C226669 		.ascii	",\"firmwareDate\":\"%s\"\000"
 5992      726D7761 
 5992      72654461 
 5992      7465223A 
 5992      22257322 
 5993 00c9 000000   		.space	3
 5994              	.LC24:
 5995 00cc 2C226964 		.ascii	",\"idleCurrentFactor\":%.1f\000"
 5995      6C654375 
 5995      7272656E 
 5995      74466163 
 5995      746F7222 
 5996 00e6 0000     		.space	2
 5997              	.LC25:
 5998 00e8 2C226964 		.ascii	",\"idleTimeout\":%.1f\000"
 5998      6C655469 
 5998      6D656F75 
 5998      74223A25 
 5998      2E316600 
 5999              	.LC26:
 6000 00fc 2C226D69 		.ascii	",\"minFeedrates\":\000"
 6000      6E466565 
 6000      64726174 
 6000      6573223A 
 6000      00
 6001 010d 000000   		.space	3
 6002              	.LC27:
 6003 0110 5D2C226D 		.ascii	"],\"maxFeedrates\":\000"
 6003      61784665 
 6003      65647261 
 6003      74657322 
 6003      3A00
 6004 0122 0000     		.space	2
 6005              	.LC28:
 6006 0124 5D7D00   		.ascii	"]}\000"
 6007 0127 00       		.space	1
 6008              	.LC29:
ARM GAS  C:\Users\paja\AppData\Local\Temp\ccY4oRD5.s 			page 108


 6009 0128 5D2C2261 		.ascii	"],\"axisMaxes\":\000"
 6009      7869734D 
 6009      61786573 
 6009      223A00
 6010              		.section	.rodata._ZN6RepRap17GetStatusResponseEh14ResponseSource.str1.4,"aMS",%progbits,1
 6011              		.align	2
 6012              	.LC49:
 6013 0000 5B5D00   		.ascii	"[]\000"
 6014 0003 00       		.space	1
 6015              	.LC50:
 6016 0004 5D00     		.ascii	"]\000"
 6017 0006 0000     		.space	2
 6018              	.LC51:
 6019 0008 252E3266 		.ascii	"%.2f\000"
 6019      00
 6020 000d 000000   		.space	3
 6021              	.LC52:
 6022 0010 2C252E32 		.ascii	",%.2f\000"
 6022      6600
 6023 0016 0000     		.space	2
 6024              	.LC53:
 6025 0018 5D7D2C00 		.ascii	"]},\000"
 6026              	.LC54:
 6027 001c 7B227374 		.ascii	"{\"status\":\"%c\",\"coords\":{\000"
 6027      61747573 
 6027      223A2225 
 6027      63222C22 
 6027      636F6F72 
 6028 0036 0000     		.space	2
 6029              	.LC55:
 6030 0038 22617865 		.ascii	"\"axesHomed\":\000"
 6030      73486F6D 
 6030      6564223A 
 6030      00
 6031 0045 000000   		.space	3
 6032              	.LC56:
 6033 0048 25632564 		.ascii	"%c%d\000"
 6033      00
 6034 004d 000000   		.space	3
 6035              	.LC57:
 6036 0050 2563252E 		.ascii	"%c%.3f\000"
 6036      336600
 6037 0057 00       		.space	1
 6038              	.LC58:
 6039 0058 5D2C2265 		.ascii	"],\"extr\":\000"
 6039      78747222 
 6039      3A00
 6040 0062 0000     		.space	2
 6041              	.LC59:
 6042 0064 5D7D2C22 		.ascii	"]},\"speeds\":{\"requested\":%.1f,\"top\":%.1f}\000"
 6042      73706565 
 6042      6473223A 
 6042      7B227265 
 6042      71756573 
 6043 008e 0000     		.space	2
 6044              	.LC60:
 6045 0090 2C226375 		.ascii	",\"currentTool\":%d\000"
ARM GAS  C:\Users\paja\AppData\Local\Temp\ccY4oRD5.s 			page 109


 6045      7272656E 
 6045      74546F6F 
 6045      6C223A25 
 6045      6400
 6046 00a2 0000     		.space	2
 6047              	.LC61:
 6048 00a4 2C00     		.ascii	",\000"
 6049 00a6 0000     		.space	2
 6050              	.LC62:
 6051 00a8 226D6573 		.ascii	"\"message\":\000"
 6051      73616765 
 6051      223A00
 6052 00b3 00       		.space	1
 6053              	.LC63:
 6054 00b4 226D7367 		.ascii	"\"msgBox\":{\"msg\":\000"
 6054      426F7822 
 6054      3A7B226D 
 6054      7367223A 
 6054      00
 6055 00c5 000000   		.space	3
 6056              	.LC64:
 6057 00c8 2C227469 		.ascii	",\"title\":\000"
